	.text
	.file	"aes_test.simplifycfg.mem2reg.indvars.elimsinglephis.criticalpath.regioninstrument.renamemain.O3.bc"
	.text
	.globl	__main
	.align	16, 0x90
	.type	__main,@function
__main:                                 # @__main
.Lfunc_begin0:
	.file	1 "aes_test.c"
	.loc	1 29 0                  # aes_test.c:29:0
	.cfi_startproc
# BB#0:                                 # %entry
	pushq	%rbp
.Ltmp0:
	.cfi_def_cfa_offset 16
.Ltmp1:
	.cfi_offset %rbp, -16
	movq	%rsp, %rbp
.Ltmp2:
	.cfi_def_cfa_register %rbp
	pushq	%r15
	pushq	%r14
	pushq	%r13
	pushq	%r12
	pushq	%rbx
	subq	$152, %rsp
.Ltmp3:
	.cfi_offset %rbx, -56
.Ltmp4:
	.cfi_offset %r12, -48
.Ltmp5:
	.cfi_offset %r13, -40
.Ltmp6:
	.cfi_offset %r14, -32
.Ltmp7:
	.cfi_offset %r15, -24
	#DEBUG_VALUE: main:argc <- EDI
	#DEBUG_VALUE: main:argv <- RSI
	movabsq	$-3677947425469889523, %r14 # imm = 0xCCF54E4D9A4E040D
	movabsq	$-8779237491214610492, %r15 # imm = 0x8629E204215C8FC4
	callq	_KInit
	xorl	%r13d, %r13d
	xorl	%esi, %esi
.Ltmp8:
	movq	%r14, %rdi
.Ltmp9:
	callq	_KEnterRegion
	movl	$18, %edi
	movl	$2, %esi
	callq	_KPrepRTable
.Ltmp10:
	#DEBUG_VALUE: main:i <- 0
	movl	$2, %edi
	callq	_KInduction
	movl	$1, %esi
	movq	%r15, %rdi
	callq	_KEnterRegion
	movl	$1, %edi
	callq	_KWork
	movl	$3, %edi
	movl	$2, %esi
	movl	$1, %edx
	callq	_KTimestamp1
	movl	$2, %edi
	movl	$2, %esi
	xorl	%edx, %edx
	callq	_KTimestamp1
	leaq	-192(%rbp), %rbx
	movabsq	$8432504331812674398, %r12 # imm = 0x7506460330A31B5E
	.align	16, 0x90
.LBB0_1:                                # %for.body
                                        # =>This Inner Loop Header: Depth=1
.Ltmp11:
	#DEBUG_VALUE: main:argc <- EDI
	#DEBUG_VALUE: main:argv <- RSI
	#DEBUG_VALUE: main:i <- 0
	movl	$2, %esi
.Ltmp12:
	movq	%r12, %rdi
.Ltmp13:
	callq	_KEnterRegion
	movl	$3, %edi
	callq	_KPushCDep
	movl	$4, %edi
	callq	_KWork
	movl	$1, %edi
	movl	$3, %esi
	movl	$3, %edx
	movl	$2, %ecx
	movl	$3, %r8d
	callq	_KTimestamp2
	movl	$1, %edi
	movl	$1, %edx
	movq	%rbx, %rsi
	callq	_KStore
	.loc	1 36 9 prologue_end     # aes_test.c:36:9
.Ltmp14:
	movb	%r13b, (%rbx)
	callq	_KPopCDep
	movl	$2, %esi
	movq	%r12, %rdi
	callq	_KExitRegion
	movl	$1, %edi
	callq	_KWork
	movl	$3, %edi
	movl	$2, %esi
	movl	$1, %edx
	callq	_KTimestamp1
	movl	$2, %edi
	movl	$2, %esi
	xorl	%edx, %edx
	callq	_KTimestamp1
.Ltmp15:
	.loc	1 35 5                  # aes_test.c:35:5
	addq	$17, %r13
	incq	%rbx
	cmpq	$272, %r13              # imm = 0x110
	jne	.LBB0_1
.Ltmp16:
# BB#2:                                 # %for.cond.pre_exit.for.end
	#DEBUG_VALUE: main:argc <- EDI
	#DEBUG_VALUE: main:argv <- RSI
	#DEBUG_VALUE: main:i <- 0
	movabsq	$-1905267364658838766, %r12 # imm = 0xE58F216D275D8312
	movl	$1, %esi
.Ltmp17:
	movq	%r15, %rdi
.Ltmp18:
	callq	_KExitRegion
	movl	$4, %edi
	callq	_KInduction
	movl	$1, %esi
	movq	%r12, %rdi
	callq	_KEnterRegion
	movl	$1, %edi
	callq	_KWork
	xorl	%ebx, %ebx
	movl	$4, %edi
	movl	$4, %esi
	xorl	%edx, %edx
	callq	_KTimestamp1
	movl	$14, %edi
	movl	$4, %esi
	movl	$1, %edx
	callq	_KTimestamp1
	movabsq	$1148366543529385833, %r15 # imm = 0xFEFD1497B031F69
	.align	16, 0x90
.LBB0_3:                                # %for.body9
                                        # =>This Inner Loop Header: Depth=1
.Ltmp19:
	#DEBUG_VALUE: main:argc <- EDI
	#DEBUG_VALUE: main:argv <- RSI
	#DEBUG_VALUE: main:i <- 0
	movl	$2, %esi
.Ltmp20:
	movq	%r15, %rdi
.Ltmp21:
	callq	_KEnterRegion
	movl	$14, %edi
	callq	_KPushCDep
	movl	$1, %edi
	callq	_KWork
	leaq	-176(%rbp,%rbx), %rsi
	movl	$4, %edi
	movl	$1, %edx
	callq	_KStore
	.loc	1 40 9                  # aes_test.c:40:9
.Ltmp22:
	movb	%bl, -176(%rbp,%rbx)
.Ltmp23:
	.loc	1 39 5                  # aes_test.c:39:5
	incq	%rbx
	callq	_KPopCDep
	movl	$2, %esi
	movq	%r15, %rdi
	callq	_KExitRegion
	movl	$1, %edi
	callq	_KWork
	movl	$4, %edi
	movl	$4, %esi
	xorl	%edx, %edx
	callq	_KTimestamp1
	movl	$14, %edi
	movl	$4, %esi
	movl	$1, %edx
	callq	_KTimestamp1
	cmpq	$32, %rbx
	jne	.LBB0_3
.Ltmp24:
# BB#4:                                 # %for.cond5.pre_exit.for.end14
	#DEBUG_VALUE: main:argc <- EDI
	#DEBUG_VALUE: main:argv <- RSI
	#DEBUG_VALUE: main:i <- 0
	movabsq	$7469569789579879888, %r15 # imm = 0x67A93E25ECE5E5D0
	movl	$1, %esi
.Ltmp25:
	movq	%r12, %rdi
.Ltmp26:
	callq	_KExitRegion
	.loc	1 43 5                  # aes_test.c:43:5
.Ltmp27:
	movl	$.L.str, %edi
	xorl	%eax, %eax
	callq	printf
	movl	$11, %edi
	callq	_KInduction
	movl	$1, %esi
	movq	%r15, %rdi
	callq	_KEnterRegion
	movl	$1, %edi
	callq	_KWork
	movl	$15, %edi
	movl	$11, %esi
	movl	$1, %edx
	callq	_KTimestamp1
	movabsq	$-7812974899900440998, %r12 # imm = 0x9392BCB934641E5A
	xorl	%ebx, %ebx
	.align	16, 0x90
.LBB0_5:                                # %for.body19
                                        # =>This Inner Loop Header: Depth=1
.Ltmp28:
	#DEBUG_VALUE: main:argc <- EDI
	#DEBUG_VALUE: main:argv <- RSI
	#DEBUG_VALUE: main:i <- 0
	movl	$2, %esi
.Ltmp29:
	movq	%r12, %rdi
.Ltmp30:
	callq	_KEnterRegion
	movl	$15, %edi
	callq	_KPushCDep
	movl	$4, %edi
	callq	_KWork
	leaq	-192(%rbp,%rbx), %rdi
	movl	$5, %esi
	movl	$6, %edx
	movl	$1, %ecx
	callq	_KLoad1
	.loc	1 43 5 is_stmt 0 discriminator 2 # aes_test.c:43:5
.Ltmp31:
	movzbl	-192(%rbp,%rbx), %esi
	movl	$.L.str1, %edi
	xorl	%eax, %eax
	callq	printf
.Ltmp32:
	.loc	1 43 5                  # aes_test.c:43:5
	incq	%rbx
	callq	_KPopCDep
	movl	$2, %esi
	movq	%r12, %rdi
	callq	_KExitRegion
	movl	$1, %edi
	callq	_KWork
	movl	$15, %edi
	movl	$11, %esi
	movl	$1, %edx
	callq	_KTimestamp1
	cmpq	$16, %rbx
	jne	.LBB0_5
.Ltmp33:
# BB#6:                                 # %for.cond15.pre_exit.for.end26
	#DEBUG_VALUE: main:argc <- EDI
	#DEBUG_VALUE: main:argv <- RSI
	#DEBUG_VALUE: main:i <- 0
	movabsq	$2422637332084631920, %r12 # imm = 0x219EEFD15E812970
	movl	$1, %esi
.Ltmp34:
	movq	%r15, %rdi
.Ltmp35:
	callq	_KExitRegion
	movl	$10, %edi
	.loc	1 43 5 discriminator 3  # aes_test.c:43:5
	callq	putchar
.Ltmp36:
	.loc	1 44 5 is_stmt 1        # aes_test.c:44:5
	movl	$.L.str3, %edi
	xorl	%eax, %eax
	callq	printf
	movl	$12, %edi
	callq	_KInduction
	movl	$1, %esi
	movq	%r12, %rdi
	callq	_KEnterRegion
	movl	$1, %edi
	callq	_KWork
	movl	$16, %edi
	movl	$12, %esi
	movl	$1, %edx
	callq	_KTimestamp1
	movabsq	$3400699360903365038, %r15 # imm = 0x2F31B60D128B01AE
	xorl	%ebx, %ebx
	.align	16, 0x90
.LBB0_7:                                # %for.body33
                                        # =>This Inner Loop Header: Depth=1
.Ltmp37:
	#DEBUG_VALUE: main:argc <- EDI
	#DEBUG_VALUE: main:argv <- RSI
	#DEBUG_VALUE: main:i <- 0
	movl	$2, %esi
.Ltmp38:
	movq	%r15, %rdi
.Ltmp39:
	callq	_KEnterRegion
	movl	$16, %edi
	callq	_KPushCDep
	movl	$4, %edi
	callq	_KWork
	leaq	-176(%rbp,%rbx), %rdi
	movl	$7, %esi
	movl	$8, %edx
	movl	$1, %ecx
	callq	_KLoad1
	.loc	1 44 5 is_stmt 0 discriminator 2 # aes_test.c:44:5
.Ltmp40:
	movzbl	-176(%rbp,%rbx), %esi
	movl	$.L.str1, %edi
	xorl	%eax, %eax
	callq	printf
.Ltmp41:
	.loc	1 44 5                  # aes_test.c:44:5
	incq	%rbx
	callq	_KPopCDep
	movl	$2, %esi
	movq	%r15, %rdi
	callq	_KExitRegion
	movl	$1, %edi
	callq	_KWork
	movl	$16, %edi
	movl	$12, %esi
	movl	$1, %edx
	callq	_KTimestamp1
	cmpq	$32, %rbx
	jne	.LBB0_7
.Ltmp42:
# BB#8:                                 # %for.cond29.pre_exit.for.end40
	#DEBUG_VALUE: main:argc <- EDI
	#DEBUG_VALUE: main:argv <- RSI
	#DEBUG_VALUE: main:i <- 0
	movabsq	$-4170386391138020483, %r15 # imm = 0xC61FCFAC4418537D
	movl	$1, %esi
.Ltmp43:
	movq	%r12, %rdi
.Ltmp44:
	callq	_KExitRegion
	movl	$10, %edi
	.loc	1 44 5 discriminator 3  # aes_test.c:44:5
	callq	putchar
.Ltmp45:
	.loc	1 46 5 is_stmt 1        # aes_test.c:46:5
	movl	$.Lstr, %edi
	callq	puts
	movabsq	$31745525473081360, %rdi # imm = 0x70C8632107F810
	xorl	%esi, %esi
	callq	_KPrepCall
	leaq	-136(%rbp), %rdi
.Ltmp46:
	#DEBUG_VALUE: main:ctx <- [RDI+0]
	leaq	-176(%rbp), %rsi
	leaq	-192(%rbp), %rdx
	.loc	1 49 5                  # aes_test.c:49:5
	callq	aes256_encrypt_ecb
	.loc	1 51 5                  # aes_test.c:51:5
.Ltmp47:
	movl	$.L.str5, %edi
.Ltmp48:
	xorl	%eax, %eax
	callq	printf
	movl	$13, %edi
	callq	_KInduction
	movl	$1, %esi
	movq	%r15, %rdi
	callq	_KEnterRegion
	movl	$1, %edi
	callq	_KWork
	movl	$17, %edi
	movl	$13, %esi
	movl	$1, %edx
	callq	_KTimestamp1
	movabsq	$4392963556129976231, %r12 # imm = 0x3CF6F114525D2FA7
	xorl	%ebx, %ebx
	.align	16, 0x90
.LBB0_9:                                # %for.body49
                                        # =>This Inner Loop Header: Depth=1
.Ltmp49:
	#DEBUG_VALUE: main:argc <- EDI
	#DEBUG_VALUE: main:argv <- RSI
	#DEBUG_VALUE: main:i <- 0
	movl	$2, %esi
.Ltmp50:
	movq	%r12, %rdi
.Ltmp51:
	callq	_KEnterRegion
	movl	$17, %edi
	callq	_KPushCDep
	movl	$4, %edi
	callq	_KWork
	leaq	-192(%rbp,%rbx), %rdi
	movl	$9, %esi
	movl	$10, %edx
	movl	$1, %ecx
	callq	_KLoad1
	.loc	1 51 5 is_stmt 0 discriminator 2 # aes_test.c:51:5
.Ltmp52:
	movzbl	-192(%rbp,%rbx), %esi
	movl	$.L.str1, %edi
	xorl	%eax, %eax
	callq	printf
.Ltmp53:
	.loc	1 51 5                  # aes_test.c:51:5
	incq	%rbx
	callq	_KPopCDep
	movl	$2, %esi
	movq	%r12, %rdi
	callq	_KExitRegion
	movl	$1, %edi
	callq	_KWork
	movl	$17, %edi
	movl	$13, %esi
	movl	$1, %edx
	callq	_KTimestamp1
	cmpq	$16, %rbx
	jne	.LBB0_9
.Ltmp54:
# BB#10:                                # %for.cond45.pre_exit.for.end56
	#DEBUG_VALUE: main:argc <- EDI
	#DEBUG_VALUE: main:argv <- RSI
	#DEBUG_VALUE: main:i <- 0
	movl	$1, %esi
.Ltmp55:
	movq	%r15, %rdi
.Ltmp56:
	callq	_KExitRegion
	movl	$10, %edi
	.loc	1 51 5 discriminator 3  # aes_test.c:51:5
	callq	putchar
.Ltmp57:
	.loc	1 52 5 is_stmt 1        # aes_test.c:52:5
	movl	$.Lstr1, %edi
	callq	puts
	callq	_KReturnConst
	xorl	%esi, %esi
	movq	%r14, %rdi
	callq	_KExitRegion
	callq	_KDeinit
	xorl	%eax, %eax
	.loc	1 60 5                  # aes_test.c:60:5
	addq	$152, %rsp
	popq	%rbx
	popq	%r12
	popq	%r13
	popq	%r14
	popq	%r15
	popq	%rbp
	retq
.Ltmp58:
.Ltmp59:
	.size	__main, .Ltmp59-__main
.Lfunc_end0:
	.cfi_endproc

	.type	.L.str,@object          # @.str
	.section	.rodata.str1.1,"aMS",@progbits,1
.L.str:
	.asciz	"txt: "
	.size	.L.str, 6

	.type	.L.str1,@object         # @.str1
.L.str1:
	.asciz	"%02x "
	.size	.L.str1, 6

	.type	.L.str3,@object         # @.str3
.L.str3:
	.asciz	"key: "
	.size	.L.str3, 6

	.type	.L.str5,@object         # @.str5
.L.str5:
	.asciz	"enc: "
	.size	.L.str5, 6

	.type	krem_prefix0070c8632107f810_krem_callsiteId_krem_aes_test.c_krem_main_krem_49_krem_49_krem_,@object # @krem_prefix0070c8632107f810_krem_callsiteId_krem_aes_test.c_krem_main_krem_49_krem_49_krem_
	.bss
	.globl	krem_prefix0070c8632107f810_krem_callsiteId_krem_aes_test.c_krem_main_krem_49_krem_49_krem_
krem_prefix0070c8632107f810_krem_callsiteId_krem_aes_test.c_krem_main_krem_49_krem_49_krem_:
	.byte	0                       # 0x0
	.size	krem_prefix0070c8632107f810_krem_callsiteId_krem_aes_test.c_krem_main_krem_49_krem_49_krem_, 1

	.type	krem_prefix0fefd1497b031f69_krem_loop_body_krem_aes_test.c_krem_main_krem_32_krem_40_krem_,@object # @krem_prefix0fefd1497b031f69_krem_loop_body_krem_aes_test.c_krem_main_krem_32_krem_40_krem_
	.globl	krem_prefix0fefd1497b031f69_krem_loop_body_krem_aes_test.c_krem_main_krem_32_krem_40_krem_
krem_prefix0fefd1497b031f69_krem_loop_body_krem_aes_test.c_krem_main_krem_32_krem_40_krem_:
	.byte	0                       # 0x0
	.size	krem_prefix0fefd1497b031f69_krem_loop_body_krem_aes_test.c_krem_main_krem_32_krem_40_krem_, 1

	.type	krem_prefix219eefd15e812970_krem_loop_krem_aes_test.c_krem_main_krem_32_krem_44_krem_,@object # @krem_prefix219eefd15e812970_krem_loop_krem_aes_test.c_krem_main_krem_32_krem_44_krem_
	.globl	krem_prefix219eefd15e812970_krem_loop_krem_aes_test.c_krem_main_krem_32_krem_44_krem_
krem_prefix219eefd15e812970_krem_loop_krem_aes_test.c_krem_main_krem_32_krem_44_krem_:
	.byte	0                       # 0x0
	.size	krem_prefix219eefd15e812970_krem_loop_krem_aes_test.c_krem_main_krem_32_krem_44_krem_, 1

	.type	krem_prefix2f31b60d128b01ae_krem_loop_body_krem_aes_test.c_krem_main_krem_32_krem_44_krem_,@object # @krem_prefix2f31b60d128b01ae_krem_loop_body_krem_aes_test.c_krem_main_krem_32_krem_44_krem_
	.globl	krem_prefix2f31b60d128b01ae_krem_loop_body_krem_aes_test.c_krem_main_krem_32_krem_44_krem_
krem_prefix2f31b60d128b01ae_krem_loop_body_krem_aes_test.c_krem_main_krem_32_krem_44_krem_:
	.byte	0                       # 0x0
	.size	krem_prefix2f31b60d128b01ae_krem_loop_body_krem_aes_test.c_krem_main_krem_32_krem_44_krem_, 1

	.type	krem_prefix3cf6f114525d2fa7_krem_loop_body_krem_aes_test.c_krem_main_krem_32_krem_51_krem_,@object # @krem_prefix3cf6f114525d2fa7_krem_loop_body_krem_aes_test.c_krem_main_krem_32_krem_51_krem_
	.globl	krem_prefix3cf6f114525d2fa7_krem_loop_body_krem_aes_test.c_krem_main_krem_32_krem_51_krem_
krem_prefix3cf6f114525d2fa7_krem_loop_body_krem_aes_test.c_krem_main_krem_32_krem_51_krem_:
	.byte	0                       # 0x0
	.size	krem_prefix3cf6f114525d2fa7_krem_loop_body_krem_aes_test.c_krem_main_krem_32_krem_51_krem_, 1

	.type	krem_prefix67a93e25ece5e5d0_krem_loop_krem_aes_test.c_krem_main_krem_32_krem_43_krem_,@object # @krem_prefix67a93e25ece5e5d0_krem_loop_krem_aes_test.c_krem_main_krem_32_krem_43_krem_
	.globl	krem_prefix67a93e25ece5e5d0_krem_loop_krem_aes_test.c_krem_main_krem_32_krem_43_krem_
krem_prefix67a93e25ece5e5d0_krem_loop_krem_aes_test.c_krem_main_krem_32_krem_43_krem_:
	.byte	0                       # 0x0
	.size	krem_prefix67a93e25ece5e5d0_krem_loop_krem_aes_test.c_krem_main_krem_32_krem_43_krem_, 1

	.type	krem_prefix7506460330a31b5e_krem_loop_body_krem_aes_test.c_krem_main_krem_32_krem_36_krem_,@object # @krem_prefix7506460330a31b5e_krem_loop_body_krem_aes_test.c_krem_main_krem_32_krem_36_krem_
	.globl	krem_prefix7506460330a31b5e_krem_loop_body_krem_aes_test.c_krem_main_krem_32_krem_36_krem_
krem_prefix7506460330a31b5e_krem_loop_body_krem_aes_test.c_krem_main_krem_32_krem_36_krem_:
	.byte	0                       # 0x0
	.size	krem_prefix7506460330a31b5e_krem_loop_body_krem_aes_test.c_krem_main_krem_32_krem_36_krem_, 1

	.type	krem_prefix8629e204215c8fc4_krem_loop_krem_aes_test.c_krem_main_krem_32_krem_36_krem_,@object # @krem_prefix8629e204215c8fc4_krem_loop_krem_aes_test.c_krem_main_krem_32_krem_36_krem_
	.globl	krem_prefix8629e204215c8fc4_krem_loop_krem_aes_test.c_krem_main_krem_32_krem_36_krem_
krem_prefix8629e204215c8fc4_krem_loop_krem_aes_test.c_krem_main_krem_32_krem_36_krem_:
	.byte	0                       # 0x0
	.size	krem_prefix8629e204215c8fc4_krem_loop_krem_aes_test.c_krem_main_krem_32_krem_36_krem_, 1

	.type	krem_prefix9392bcb934641e5a_krem_loop_body_krem_aes_test.c_krem_main_krem_32_krem_43_krem_,@object # @krem_prefix9392bcb934641e5a_krem_loop_body_krem_aes_test.c_krem_main_krem_32_krem_43_krem_
	.globl	krem_prefix9392bcb934641e5a_krem_loop_body_krem_aes_test.c_krem_main_krem_32_krem_43_krem_
krem_prefix9392bcb934641e5a_krem_loop_body_krem_aes_test.c_krem_main_krem_32_krem_43_krem_:
	.byte	0                       # 0x0
	.size	krem_prefix9392bcb934641e5a_krem_loop_body_krem_aes_test.c_krem_main_krem_32_krem_43_krem_, 1

	.type	krem_prefixc61fcfac4418537d_krem_loop_krem_aes_test.c_krem_main_krem_32_krem_51_krem_,@object # @krem_prefixc61fcfac4418537d_krem_loop_krem_aes_test.c_krem_main_krem_32_krem_51_krem_
	.globl	krem_prefixc61fcfac4418537d_krem_loop_krem_aes_test.c_krem_main_krem_32_krem_51_krem_
krem_prefixc61fcfac4418537d_krem_loop_krem_aes_test.c_krem_main_krem_32_krem_51_krem_:
	.byte	0                       # 0x0
	.size	krem_prefixc61fcfac4418537d_krem_loop_krem_aes_test.c_krem_main_krem_32_krem_51_krem_, 1

	.type	krem_prefixccf54e4d9a4e040d_krem_func_krem_aes_test.c_krem_main_krem_28_krem_28_krem_,@object # @krem_prefixccf54e4d9a4e040d_krem_func_krem_aes_test.c_krem_main_krem_28_krem_28_krem_
	.globl	krem_prefixccf54e4d9a4e040d_krem_func_krem_aes_test.c_krem_main_krem_28_krem_28_krem_
krem_prefixccf54e4d9a4e040d_krem_func_krem_aes_test.c_krem_main_krem_28_krem_28_krem_:
	.byte	0                       # 0x0
	.size	krem_prefixccf54e4d9a4e040d_krem_func_krem_aes_test.c_krem_main_krem_28_krem_28_krem_, 1

	.type	krem_prefixe58f216d275d8312_krem_loop_krem_aes_test.c_krem_main_krem_32_krem_40_krem_,@object # @krem_prefixe58f216d275d8312_krem_loop_krem_aes_test.c_krem_main_krem_32_krem_40_krem_
	.globl	krem_prefixe58f216d275d8312_krem_loop_krem_aes_test.c_krem_main_krem_32_krem_40_krem_
krem_prefixe58f216d275d8312_krem_loop_krem_aes_test.c_krem_main_krem_32_krem_40_krem_:
	.byte	0                       # 0x0
	.size	krem_prefixe58f216d275d8312_krem_loop_krem_aes_test.c_krem_main_krem_32_krem_40_krem_, 1

	.type	.Lstr,@object           # @str
	.section	.rodata.str1.1,"aMS",@progbits,1
.Lstr:
	.asciz	"---"
	.size	.Lstr, 4

	.type	.Lstr1,@object          # @str1
	.section	.rodata.str1.16,"aMS",@progbits,1
	.align	16
.Lstr1:
	.asciz	"tst: 8e a2 b7 ca 51 67 45 bf ea fc 49 90 4b 49 60 89"
	.size	.Lstr1, 53

	.text
.Ldebug_end0:
	.file	2 "/usr/include/stdint.h"
	.file	3 "./aes.h"
	.section	".note.GNU-stack","",@progbits