	.text
	.file	"md.simplifycfg.mem2reg.indvars.elimsinglephis.criticalpath.regioninstrument.renamemain.O3.bc"
	.section	.rodata.cst8,"aM",@progbits,8
	.align	8
.LCPI0_0:
	.quad	4607182418800017408     # double 1
.LCPI0_1:
	.quad	4609434218613702656     # double 1.5
.LCPI0_2:
	.quad	-4611686018427387904    # double -2
	.text
	.globl	md_kernel
	.align	16, 0x90
	.type	md_kernel,@function
md_kernel:                              # @md_kernel
.Lfunc_begin0:
	.file	1 "md.c"
	.loc	1 17 0                  # md.c:17:0
	.cfi_startproc
# BB#0:                                 # %entry
	pushq	%rbp
.Ltmp0:
	.cfi_def_cfa_offset 16
.Ltmp1:
	.cfi_offset %rbp, -16
	movq	%rsp, %rbp
.Ltmp2:
	.cfi_def_cfa_register %rbp
	pushq	%r15
	pushq	%r14
	pushq	%r13
	pushq	%r12
	pushq	%rbx
	subq	$280, %rsp              # imm = 0x118
.Ltmp3:
	.cfi_offset %rbx, -56
.Ltmp4:
	.cfi_offset %r12, -48
.Ltmp5:
	.cfi_offset %r13, -40
.Ltmp6:
	.cfi_offset %r14, -32
.Ltmp7:
	.cfi_offset %r15, -24
	#DEBUG_VALUE: md_kernel:force_x <- RDI
	#DEBUG_VALUE: md_kernel:force_y <- RSI
	#DEBUG_VALUE: md_kernel:force_z <- RDX
	#DEBUG_VALUE: md_kernel:position_x <- RCX
	#DEBUG_VALUE: md_kernel:position_y <- R8
	#DEBUG_VALUE: md_kernel:position_z <- R9
	movq	%r9, -152(%rbp)         # 8-byte Spill
.Ltmp8:
	#DEBUG_VALUE: md_kernel:position_z <- [RBP+-152]
	movq	%r8, -160(%rbp)         # 8-byte Spill
.Ltmp9:
	#DEBUG_VALUE: md_kernel:position_y <- [RBP+-160]
	movq	%rcx, -168(%rbp)        # 8-byte Spill
.Ltmp10:
	#DEBUG_VALUE: md_kernel:position_x <- [RBP+-168]
	movq	%rdx, -200(%rbp)        # 8-byte Spill
.Ltmp11:
	#DEBUG_VALUE: md_kernel:force_z <- [RBP+-200]
	movq	%rsi, -208(%rbp)        # 8-byte Spill
.Ltmp12:
	#DEBUG_VALUE: md_kernel:force_y <- [RBP+-208]
	movq	%rdi, -216(%rbp)        # 8-byte Spill
.Ltmp13:
	#DEBUG_VALUE: md_kernel:force_x <- [RBP+-216]
	movq	16(%rbp), %r15
	#DEBUG_VALUE: md_kernel:NL <- R15
	movabsq	$7125751620995309092, %rdi # imm = 0x62E3C1586F16DE24
	movabsq	$4732430347351226210, %rbx # imm = 0x41ACF853D225F762
	xorl	%esi, %esi
	callq	_KEnterRegion
	movl	$22, %edi
	movl	$4, %esi
	callq	_KPrepRTable
.Ltmp14:
	#DEBUG_VALUE: md_kernel:i <- 0
	movl	$15, %edi
	callq	_KInduction
	movl	$1, %esi
	movq	%rbx, %rdi
	callq	_KEnterRegion
	movl	$1, %edi
	callq	_KWork
	movl	$18, %edi
	movl	$15, %esi
	movl	$1, %edx
	callq	_KTimestamp1
	movabsq	$-2157070561602265570, %rbx # imm = 0xE2108BC0BC3E9E1E
	movabsq	$1614877203561612961, %r13 # imm = 0x16693242BA2A86A1
	xorl	%r14d, %r14d
.Ltmp15:
	.align	16, 0x90
.LBB0_1:                                # %for.body
                                        # =>This Loop Header: Depth=1
                                        #     Child Loop BB0_2 Depth 2
	#DEBUG_VALUE: md_kernel:force_x <- [RBP+-216]
	#DEBUG_VALUE: md_kernel:force_y <- [RBP+-208]
	#DEBUG_VALUE: md_kernel:force_z <- [RBP+-200]
	#DEBUG_VALUE: md_kernel:position_x <- [RBP+-168]
	#DEBUG_VALUE: md_kernel:position_y <- [RBP+-160]
	#DEBUG_VALUE: md_kernel:position_z <- [RBP+-152]
	#DEBUG_VALUE: md_kernel:i <- 0
	movq	%r14, -192(%rbp)        # 8-byte Spill
	movq	%r15, -184(%rbp)        # 8-byte Spill
	movl	$2, %esi
	movq	%rbx, %rdi
	callq	_KEnterRegion
	movl	$18, %edi
	callq	_KPushCDep
	movl	$12, %edi
	callq	_KWork
	movq	-168(%rbp), %rbx        # 8-byte Reload
.Ltmp16:
	#DEBUG_VALUE: md_kernel:position_x <- RBX
	.loc	1 25 20 prologue_end    # md.c:25:20
	leaq	(%rbx,%r14,8), %rdi
	movl	$1, %esi
	movl	$8, %edx
	callq	_KLoad0
	movq	-160(%rbp), %r12        # 8-byte Reload
.Ltmp17:
	#DEBUG_VALUE: md_kernel:position_y <- R12
	.loc	1 26 20                 # md.c:26:20
	leaq	(%r12,%r14,8), %rdi
	.loc	1 39 21                 # md.c:39:21
.Ltmp18:
	movsd	(%rbx,%r14,8), %xmm0
	movaps	%xmm0, -144(%rbp)       # 16-byte Spill
.Ltmp19:
	#DEBUG_VALUE: md_kernel:position_x <- [RBP+-168]
	movl	$2, %esi
	movl	$8, %edx
	callq	_KLoad0
	movq	-152(%rbp), %rbx        # 8-byte Reload
.Ltmp20:
	#DEBUG_VALUE: md_kernel:position_z <- RBX
	.loc	1 27 20                 # md.c:27:20
	leaq	(%rbx,%r14,8), %rdi
	.loc	1 39 21                 # md.c:39:21
.Ltmp21:
	movsd	(%r12,%r14,8), %xmm0
	movaps	%xmm0, -64(%rbp)        # 16-byte Spill
.Ltmp22:
	#DEBUG_VALUE: md_kernel:position_y <- [RBP+-160]
	movl	$3, %esi
	movl	$8, %edx
	callq	_KLoad0
.Ltmp23:
	.loc	1 27 20                 # md.c:27:20
	movsd	(%rbx,%r14,8), %xmm0
.Ltmp24:
	#DEBUG_VALUE: md_kernel:j <- 0
	#DEBUG_VALUE: md_kernel:fz <- 0.000000e+00
	#DEBUG_VALUE: md_kernel:fy <- 0.000000e+00
	#DEBUG_VALUE: md_kernel:fx <- 0.000000e+00
	#DEBUG_VALUE: md_kernel:i_z <- [RBP+-176]
	movsd	%xmm0, -176(%rbp)       # 8-byte Spill
.Ltmp25:
	#DEBUG_VALUE: md_kernel:position_z <- [RBP+-152]
	movl	$3, %edi
	movl	$3, %esi
	xorl	%edx, %edx
	callq	_KTimestamp1
	movl	$2, %edi
	movl	$2, %esi
	xorl	%edx, %edx
	callq	_KTimestamp1
	movl	$1, %edi
	movl	$1, %esi
	xorl	%edx, %edx
	callq	_KTimestamp1
	movl	$16, %edi
	callq	_KInduction
	callq	_KPopCDep
	movl	$1, %esi
	movabsq	$-4562323874147107420, %rdi # imm = 0xC0AF5E9BD32D7DA4
	callq	_KEnterRegion
	.loc	1 39 21                 # md.c:39:21
.Ltmp26:
	movapd	-144(%rbp), %xmm0       # 16-byte Reload
	unpcklpd	-64(%rbp), %xmm0 # 16-byte Folded Reload
                                        # xmm0 = xmm0[0],mem[0]
	movapd	%xmm0, -144(%rbp)       # 16-byte Spill
	xorpd	%xmm0, %xmm0
	movapd	%xmm0, -64(%rbp)        # 16-byte Spill
	xorpd	%xmm0, %xmm0
	movsd	%xmm0, -88(%rbp)        # 8-byte Spill
	movl	$16, %eax
	movq	%rax, -72(%rbp)         # 8-byte Spill
	movq	%r15, %r14
	movl	$0, -76(%rbp)           # 4-byte Folded Spill
	xorl	%r15d, %r15d
	xorl	%r12d, %r12d
	xorl	%ebx, %ebx
	jmp	.LBB0_2
	.align	16, 0x90
.LBB0_3:                                # %for.body7
                                        #   in Loop: Header=BB0_2 Depth=2
	#DEBUG_VALUE: md_kernel:force_x <- [RBP+-216]
	#DEBUG_VALUE: md_kernel:force_y <- [RBP+-208]
	#DEBUG_VALUE: md_kernel:force_z <- [RBP+-200]
	#DEBUG_VALUE: md_kernel:position_x <- [RBP+-168]
	#DEBUG_VALUE: md_kernel:position_y <- [RBP+-160]
	#DEBUG_VALUE: md_kernel:position_z <- [RBP+-152]
	#DEBUG_VALUE: md_kernel:i <- 0
	#DEBUG_VALUE: md_kernel:i_z <- [RBP+-176]
	#DEBUG_VALUE: md_kernel:fx <- 0.000000e+00
	#DEBUG_VALUE: md_kernel:fy <- 0.000000e+00
	#DEBUG_VALUE: md_kernel:fz <- 0.000000e+00
	#DEBUG_VALUE: md_kernel:j <- 0
	movl	$2, %esi
	movq	%r13, %rdi
	callq	_KEnterRegion
	movl	$19, -76(%rbp)          # 4-byte Folded Spill
	movl	$19, %edi
	callq	_KPushCDep
	movl	$112, %edi
	callq	_KWork
	movl	$4, %esi
	movl	$5, %edx
	movl	$4, %ecx
	movq	%r14, %rdi
	callq	_KLoad1
	.loc	1 35 20                 # md.c:35:20
	movslq	(%r14), %rbx
	movq	-168(%rbp), %r15        # 8-byte Reload
.Ltmp27:
	#DEBUG_VALUE: md_kernel:position_x <- R15
	leaq	(%r15,%rbx,8), %rdi
	movl	$6, %esi
	movl	$7, %edx
	movl	$8, %ecx
	callq	_KLoad1
	movq	-160(%rbp), %r12        # 8-byte Reload
.Ltmp28:
	#DEBUG_VALUE: md_kernel:position_y <- R12
	.loc	1 36 20                 # md.c:36:20
	leaq	(%r12,%rbx,8), %rdi
	.loc	1 39 21                 # md.c:39:21
	movsd	(%r15,%rbx,8), %xmm0
	movaps	%xmm0, -112(%rbp)       # 16-byte Spill
.Ltmp29:
	#DEBUG_VALUE: md_kernel:position_x <- [RBP+-168]
	movl	$8, %esi
	movl	$9, %edx
	movl	$8, %ecx
	callq	_KLoad1
	movq	-152(%rbp), %r15        # 8-byte Reload
.Ltmp30:
	#DEBUG_VALUE: md_kernel:position_z <- R15
	.loc	1 37 20                 # md.c:37:20
	leaq	(%r15,%rbx,8), %rdi
	.loc	1 39 21                 # md.c:39:21
	movsd	(%r12,%rbx,8), %xmm0
	movaps	%xmm0, -128(%rbp)       # 16-byte Spill
.Ltmp31:
	#DEBUG_VALUE: md_kernel:position_y <- [RBP+-160]
	movl	$10, %esi
	movl	$11, %edx
	movl	$8, %ecx
	callq	_KLoad1
	movapd	-112(%rbp), %xmm0       # 16-byte Reload
	unpcklpd	-128(%rbp), %xmm0 # 16-byte Folded Reload
                                        # xmm0 = xmm0[0],mem[0]
	movapd	-144(%rbp), %xmm1       # 16-byte Reload
	subpd	%xmm0, %xmm1
	.loc	1 41 21                 # md.c:41:21
	movsd	-176(%rbp), %xmm0       # 8-byte Reload
	subsd	(%r15,%rbx,8), %xmm0
.Ltmp32:
	#DEBUG_VALUE: md_kernel:delz <- XMM0
	#DEBUG_VALUE: md_kernel:position_z <- [RBP+-152]
	.loc	1 42 28                 # md.c:42:28
	movapd	%xmm1, %xmm2
	mulsd	%xmm2, %xmm2
	.loc	1 42 40 is_stmt 0       # md.c:42:40
	movapd	%xmm1, %xmm3
	shufpd	$1, %xmm3, %xmm3        # xmm3 = xmm3[1,0]
	mulsd	%xmm3, %xmm3
	.loc	1 42 28                 # md.c:42:28
	addsd	%xmm2, %xmm3
	.loc	1 42 52                 # md.c:42:52
	movaps	%xmm0, %xmm2
	mulsd	%xmm2, %xmm2
	.loc	1 42 28                 # md.c:42:28
	addsd	%xmm3, %xmm2
	movsd	.LCPI0_0(%rip), %xmm3
	.loc	1 42 22                 # md.c:42:22
	divsd	%xmm2, %xmm3
.Ltmp33:
	#DEBUG_VALUE: md_kernel:r2inv <- XMM3
	.loc	1 44 22 is_stmt 1       # md.c:44:22
	movaps	%xmm3, %xmm2
	mulsd	%xmm2, %xmm2
	mulsd	%xmm3, %xmm2
.Ltmp34:
	#DEBUG_VALUE: md_kernel:r6inv <- XMM2
	.loc	1 45 33                 # md.c:45:33
	movaps	%xmm2, %xmm4
	mulsd	.LCPI0_1(%rip), %xmm4
	addsd	.LCPI0_2(%rip), %xmm4
	.loc	1 45 26 is_stmt 0       # md.c:45:26
	mulsd	%xmm2, %xmm4
.Ltmp35:
	#DEBUG_VALUE: md_kernel:potential <- XMM4
	.loc	1 47 22 is_stmt 1       # md.c:47:22
	mulsd	%xmm3, %xmm4
.Ltmp36:
	.loc	1 50 20                 # md.c:50:20
	mulsd	%xmm4, %xmm0
.Ltmp37:
	#DEBUG_VALUE: md_kernel:force <- XMM4
	.loc	1 48 20                 # md.c:48:20
	movlhps	%xmm4, %xmm4            # xmm4 = xmm4[0,0]
.Ltmp38:
	mulpd	%xmm1, %xmm4
	.loc	1 48 14 is_stmt 0       # md.c:48:14
	movapd	-64(%rbp), %xmm1        # 16-byte Reload
	addpd	%xmm4, %xmm1
	.loc	1 50 14 is_stmt 1       # md.c:50:14
	movapd	%xmm1, -64(%rbp)        # 16-byte Spill
	movsd	-88(%rbp), %xmm1        # 8-byte Reload
	addsd	%xmm0, %xmm1
.Ltmp39:
	#DEBUG_VALUE: md_kernel:fz <- [RBP+-88]
	movsd	%xmm1, -88(%rbp)        # 8-byte Spill
	movl	$63, 88(%rsp)
	movl	$10, 80(%rsp)
	movl	$65, 72(%rsp)
	movl	$8, 64(%rsp)
	movl	$65, 56(%rsp)
	movl	$6, 48(%rsp)
	movl	$63, 40(%rsp)
	movl	$3, 32(%rsp)
	movl	$65, 24(%rsp)
	movl	$2, 16(%rsp)
	movl	$65, 8(%rsp)
	movl	$1, (%rsp)
	movl	$21, %ebx
	movl	$21, %edi
	movl	$8, %esi
	movl	$14, %edx
	movl	$2, %ecx
	movl	$19, %r8d
	movl	$65, %r9d
	xorl	%eax, %eax
	callq	_KTimestamp
	movl	$63, 88(%rsp)
	movl	$10, 80(%rsp)
	movl	$65, 72(%rsp)
	movl	$8, 64(%rsp)
	movl	$65, 56(%rsp)
	movl	$6, 48(%rsp)
	movl	$2, 40(%rsp)
	movl	$13, 32(%rsp)
	movl	$63, 24(%rsp)
	movl	$3, 16(%rsp)
	movl	$65, 8(%rsp)
	movl	$2, (%rsp)
	movl	$20, %r12d
	movl	$20, %edi
	movl	$8, %esi
	movl	$19, %edx
	movl	$65, %ecx
	movl	$1, %r8d
	movl	$65, %r9d
	xorl	%eax, %eax
	callq	_KTimestamp
	movl	$63, 88(%rsp)
	movl	$10, 80(%rsp)
	movl	$65, 72(%rsp)
	movl	$8, 64(%rsp)
	movl	$65, 56(%rsp)
	movl	$6, 48(%rsp)
	movl	$2, 40(%rsp)
	movl	$12, 32(%rsp)
	movl	$63, 24(%rsp)
	movl	$3, 16(%rsp)
	movl	$65, 8(%rsp)
	movl	$2, (%rsp)
	movl	$17, %r15d
	movl	$17, %edi
	movl	$8, %esi
	movl	$19, %edx
	movl	$65, %ecx
	movl	$1, %r8d
	movl	$65, %r9d
	xorl	%eax, %eax
	callq	_KTimestamp
	callq	_KPopCDep
	movl	$2, %esi
	movq	%r13, %rdi
	callq	_KExitRegion
	addq	$4, %r14
	decq	-72(%rbp)               # 8-byte Folded Spill
.Ltmp40:
.LBB0_2:                                # %for.cond5
                                        #   Parent Loop BB0_1 Depth=1
                                        # =>  This Inner Loop Header: Depth=2
	#DEBUG_VALUE: md_kernel:force_x <- [RBP+-216]
	#DEBUG_VALUE: md_kernel:force_y <- [RBP+-208]
	#DEBUG_VALUE: md_kernel:force_z <- [RBP+-200]
	#DEBUG_VALUE: md_kernel:position_x <- [RBP+-168]
	#DEBUG_VALUE: md_kernel:position_y <- [RBP+-160]
	#DEBUG_VALUE: md_kernel:position_z <- [RBP+-152]
	#DEBUG_VALUE: md_kernel:i <- 0
	#DEBUG_VALUE: md_kernel:i_z <- [RBP+-176]
	#DEBUG_VALUE: md_kernel:fx <- 0.000000e+00
	#DEBUG_VALUE: md_kernel:fy <- 0.000000e+00
	#DEBUG_VALUE: md_kernel:fz <- 0.000000e+00
	#DEBUG_VALUE: md_kernel:j <- 0
	movl	$18, %edi
	callq	_KPushCDep
	movl	$14, %edi
	movl	$18, %edx
	movl	%ebx, %esi
	movl	-76(%rbp), %ebx         # 4-byte Reload
	movl	%ebx, %ecx
	callq	_KPhi2To1
	movl	$13, %edi
	movl	$18, %edx
	movl	%r12d, %esi
	movl	%ebx, %ecx
	callq	_KPhi2To1
	movl	$12, %edi
	movl	$18, %edx
	movl	%r15d, %esi
	movl	%ebx, %ecx
	callq	_KPhi2To1
	movl	$1, %edi
	callq	_KWork
	movl	$14, %edi
	movl	$14, %esi
	xorl	%edx, %edx
	callq	_KTimestamp1
	movl	$13, %edi
	movl	$13, %esi
	xorl	%edx, %edx
	callq	_KTimestamp1
	movl	$12, %edi
	movl	$12, %esi
	xorl	%edx, %edx
	callq	_KTimestamp1
	movl	$19, %edi
	movl	$18, %esi
	movl	$1, %edx
	movl	$16, %ecx
	movl	$1, %r8d
	callq	_KTimestamp2
	movl	$14, %edi
	movl	$19, %esi
	callq	_KPhiAddCond
	movl	$13, %edi
	movl	$19, %esi
	callq	_KPhiAddCond
	movl	$12, %edi
	movl	$19, %esi
	callq	_KPhiAddCond
	callq	_KPopCDep
	.loc	1 31 10                 # md.c:31:10
	cmpq	$0, -72(%rbp)           # 8-byte Folded Reload
	jne	.LBB0_3
.Ltmp41:
# BB#4:                                 # %for.cond5.pre_exit.for.end
                                        #   in Loop: Header=BB0_1 Depth=1
	#DEBUG_VALUE: md_kernel:force_x <- [RBP+-216]
	#DEBUG_VALUE: md_kernel:force_y <- [RBP+-208]
	#DEBUG_VALUE: md_kernel:force_z <- [RBP+-200]
	#DEBUG_VALUE: md_kernel:position_x <- [RBP+-168]
	#DEBUG_VALUE: md_kernel:position_y <- [RBP+-160]
	#DEBUG_VALUE: md_kernel:position_z <- [RBP+-152]
	#DEBUG_VALUE: md_kernel:i <- 0
	#DEBUG_VALUE: md_kernel:fx <- 0.000000e+00
	#DEBUG_VALUE: md_kernel:fy <- 0.000000e+00
	#DEBUG_VALUE: md_kernel:fz <- 0.000000e+00
	#DEBUG_VALUE: md_kernel:j <- 0
	movl	$1, %esi
	movabsq	$-4562323874147107420, %r12 # imm = 0xC0AF5E9BD32D7DA4
	movq	%r12, %rdi
	callq	_KExitRegion
	movl	$18, %edi
	callq	_KPushCDep
	movl	$3, %edi
	callq	_KWork
	movq	-216(%rbp), %rbx        # 8-byte Reload
.Ltmp42:
	#DEBUG_VALUE: md_kernel:force_x <- RBX
	movq	-192(%rbp), %r14        # 8-byte Reload
	.loc	1 53 10                 # md.c:53:10
	leaq	(%rbx,%r14,8), %rsi
	movl	$12, %edi
	movl	$8, %edx
	callq	_KStore
	movapd	-64(%rbp), %xmm0        # 16-byte Reload
	movlpd	%xmm0, (%rbx,%r14,8)
.Ltmp43:
	#DEBUG_VALUE: md_kernel:force_x <- [RBP+-216]
	movq	-208(%rbp), %rbx        # 8-byte Reload
.Ltmp44:
	#DEBUG_VALUE: md_kernel:force_y <- RBX
	.loc	1 54 10                 # md.c:54:10
	leaq	(%rbx,%r14,8), %rsi
	movl	$13, %edi
	movl	$8, %edx
	callq	_KStore
	movapd	-64(%rbp), %xmm0        # 16-byte Reload
	movhpd	%xmm0, (%rbx,%r14,8)
.Ltmp45:
	#DEBUG_VALUE: md_kernel:force_y <- [RBP+-208]
	movq	-200(%rbp), %rbx        # 8-byte Reload
.Ltmp46:
	#DEBUG_VALUE: md_kernel:force_z <- RBX
	.loc	1 55 10                 # md.c:55:10
	leaq	(%rbx,%r14,8), %rsi
	movl	$14, %edi
	movl	$8, %edx
	callq	_KStore
	movsd	-88(%rbp), %xmm0        # 8-byte Reload
	movsd	%xmm0, (%rbx,%r14,8)
.Ltmp47:
	#DEBUG_VALUE: md_kernel:force_z <- [RBP+-200]
	.loc	1 24 10                 # md.c:24:10
	incq	%r14
	callq	_KPopCDep
	movl	$2, %esi
	movabsq	$-2157070561602265570, %rbx # imm = 0xE2108BC0BC3E9E1E
	movq	%rbx, %rdi
	callq	_KExitRegion
	movl	$1, %edi
	callq	_KWork
	movl	$18, %edi
	movl	$15, %esi
	movl	$1, %edx
	callq	_KTimestamp1
	movq	-184(%rbp), %r15        # 8-byte Reload
.Ltmp48:
	.loc	1 24 10 is_stmt 0       # md.c:24:10
	addq	$64, %r15
	cmpq	$256, %r14              # imm = 0x100
	jne	.LBB0_1
.Ltmp49:
# BB#5:                                 # %for.cond.pre_exit.for.end43
	#DEBUG_VALUE: md_kernel:i <- 0
	#DEBUG_VALUE: md_kernel:fx <- 0.000000e+00
	#DEBUG_VALUE: md_kernel:fy <- 0.000000e+00
	#DEBUG_VALUE: md_kernel:fz <- 0.000000e+00
	#DEBUG_VALUE: md_kernel:j <- 0
	movl	$1, %esi
	movabsq	$4732430347351226210, %rdi # imm = 0x41ACF853D225F762
	callq	_KExitRegion
	xorl	%esi, %esi
	movabsq	$7125751620995309092, %rdi # imm = 0x62E3C1586F16DE24
	addq	$280, %rsp              # imm = 0x118
	popq	%rbx
	popq	%r12
	popq	%r13
	popq	%r14
	popq	%r15
	popq	%rbp
	jmp	_KExitRegion            # TAILCALL
.Ltmp50:
	.size	md_kernel, .Ltmp50-md_kernel
.Lfunc_end0:
	.cfi_endproc

	.type	krem_prefix16693242ba2a86a1_krem_loop_body_krem_md.c_krem_md_kernel_krem_18_krem_50_krem_,@object # @krem_prefix16693242ba2a86a1_krem_loop_body_krem_md.c_krem_md_kernel_krem_18_krem_50_krem_
	.bss
	.globl	krem_prefix16693242ba2a86a1_krem_loop_body_krem_md.c_krem_md_kernel_krem_18_krem_50_krem_
krem_prefix16693242ba2a86a1_krem_loop_body_krem_md.c_krem_md_kernel_krem_18_krem_50_krem_:
	.byte	0                       # 0x0
	.size	krem_prefix16693242ba2a86a1_krem_loop_body_krem_md.c_krem_md_kernel_krem_18_krem_50_krem_, 1

	.type	krem_prefix41acf853d225f762_krem_loop_krem_md.c_krem_md_kernel_krem_18_krem_55_krem_,@object # @krem_prefix41acf853d225f762_krem_loop_krem_md.c_krem_md_kernel_krem_18_krem_55_krem_
	.globl	krem_prefix41acf853d225f762_krem_loop_krem_md.c_krem_md_kernel_krem_18_krem_55_krem_
krem_prefix41acf853d225f762_krem_loop_krem_md.c_krem_md_kernel_krem_18_krem_55_krem_:
	.byte	0                       # 0x0
	.size	krem_prefix41acf853d225f762_krem_loop_krem_md.c_krem_md_kernel_krem_18_krem_55_krem_, 1

	.type	krem_prefix62e3c1586f16de24_krem_func_krem_md.c_krem_md_kernel_krem_10_krem_10_krem_,@object # @krem_prefix62e3c1586f16de24_krem_func_krem_md.c_krem_md_kernel_krem_10_krem_10_krem_
	.globl	krem_prefix62e3c1586f16de24_krem_func_krem_md.c_krem_md_kernel_krem_10_krem_10_krem_
krem_prefix62e3c1586f16de24_krem_func_krem_md.c_krem_md_kernel_krem_10_krem_10_krem_:
	.byte	0                       # 0x0
	.size	krem_prefix62e3c1586f16de24_krem_func_krem_md.c_krem_md_kernel_krem_10_krem_10_krem_, 1

	.type	krem_prefixc0af5e9bd32d7da4_krem_loop_krem_md.c_krem_md_kernel_krem_18_krem_50_krem_,@object # @krem_prefixc0af5e9bd32d7da4_krem_loop_krem_md.c_krem_md_kernel_krem_18_krem_50_krem_
	.globl	krem_prefixc0af5e9bd32d7da4_krem_loop_krem_md.c_krem_md_kernel_krem_18_krem_50_krem_
krem_prefixc0af5e9bd32d7da4_krem_loop_krem_md.c_krem_md_kernel_krem_18_krem_50_krem_:
	.byte	0                       # 0x0
	.size	krem_prefixc0af5e9bd32d7da4_krem_loop_krem_md.c_krem_md_kernel_krem_18_krem_50_krem_, 1

	.type	krem_prefixe2108bc0bc3e9e1e_krem_loop_body_krem_md.c_krem_md_kernel_krem_18_krem_55_krem_,@object # @krem_prefixe2108bc0bc3e9e1e_krem_loop_body_krem_md.c_krem_md_kernel_krem_18_krem_55_krem_
	.globl	krem_prefixe2108bc0bc3e9e1e_krem_loop_body_krem_md.c_krem_md_kernel_krem_18_krem_55_krem_
krem_prefixe2108bc0bc3e9e1e_krem_loop_body_krem_md.c_krem_md_kernel_krem_18_krem_55_krem_:
	.byte	0                       # 0x0
	.size	krem_prefixe2108bc0bc3e9e1e_krem_loop_body_krem_md.c_krem_md_kernel_krem_18_krem_55_krem_, 1

	.text
.Ldebug_end0:
	.file	2 "/usr/include/x86_64-linux-gnu/sys/types.h"
	.section	".note.GNU-stack","",@progbits