	.text
	.file	"spmv.simplifycfg.mem2reg.indvars.elimsinglephis.criticalpath.regioninstrument.renamemain.O3.bc"
	.text
	.globl	spmv
	.align	16, 0x90
	.type	spmv,@function
spmv:                                   # @spmv
.Lfunc_begin0:
	.file	1 "spmv.c"
	.loc	1 8 0                   # spmv.c:8:0
	.cfi_startproc
# BB#0:                                 # %entry
	pushq	%rbp
.Ltmp0:
	.cfi_def_cfa_offset 16
.Ltmp1:
	.cfi_offset %rbp, -16
	movq	%rsp, %rbp
.Ltmp2:
	.cfi_def_cfa_register %rbp
	pushq	%r15
	pushq	%r14
	pushq	%r13
	pushq	%r12
	pushq	%rbx
	subq	$120, %rsp
.Ltmp3:
	.cfi_offset %rbx, -56
.Ltmp4:
	.cfi_offset %r12, -48
.Ltmp5:
	.cfi_offset %r13, -40
.Ltmp6:
	.cfi_offset %r14, -32
.Ltmp7:
	.cfi_offset %r15, -24
	#DEBUG_VALUE: spmv:val <- RDI
	#DEBUG_VALUE: spmv:cols <- RSI
	#DEBUG_VALUE: spmv:rowDelimiters <- RDX
	#DEBUG_VALUE: spmv:vec <- RCX
	#DEBUG_VALUE: spmv:out <- R8
	movq	%r8, -112(%rbp)         # 8-byte Spill
.Ltmp8:
	#DEBUG_VALUE: spmv:out <- [RBP+-112]
	movq	%rcx, -88(%rbp)         # 8-byte Spill
.Ltmp9:
	#DEBUG_VALUE: spmv:vec <- [RBP+-88]
	movq	%rdx, -120(%rbp)        # 8-byte Spill
.Ltmp10:
	#DEBUG_VALUE: spmv:rowDelimiters <- [RBP+-120]
	movq	%rsi, -128(%rbp)        # 8-byte Spill
.Ltmp11:
	#DEBUG_VALUE: spmv:cols <- [RBP+-128]
	movq	%rdi, -136(%rbp)        # 8-byte Spill
.Ltmp12:
	#DEBUG_VALUE: spmv:val <- [RBP+-136]
	movabsq	$-1137594477356936952, %rdi # imm = 0xF03673D99EB19108
	movabsq	$-8215084911183108723, %rbx # imm = 0x8DFE27CC7542658D
	xorl	%r14d, %r14d
	xorl	%esi, %esi
	callq	_KEnterRegion
	movl	$16, %edi
	movl	$4, %esi
	callq	_KPrepRTable
.Ltmp13:
	#DEBUG_VALUE: spmv:i <- 0
	movl	$9, %edi
	callq	_KInduction
	movl	$1, %esi
	movq	%rbx, %rdi
	callq	_KEnterRegion
	movl	$1, %edi
	callq	_KWork
	movl	$11, %edi
	movl	$9, %esi
	movl	$1, %edx
	callq	_KTimestamp1
	movabsq	$-7483411739756497559, %r15 # imm = 0x982594ABE7D37569
	movabsq	$-3925944229609966928, %rbx # imm = 0xC9843E86121A72B0
	movabsq	$-2850233725275223656, %r12 # imm = 0xD871EF872E21C998
	.align	16, 0x90
.LBB0_1:                                # %for.body
                                        # =>This Loop Header: Depth=1
                                        #     Child Loop BB0_2 Depth 2
	#DEBUG_VALUE: spmv:val <- [RBP+-136]
	#DEBUG_VALUE: spmv:cols <- [RBP+-128]
	#DEBUG_VALUE: spmv:rowDelimiters <- [RBP+-120]
	#DEBUG_VALUE: spmv:vec <- [RBP+-88]
	#DEBUG_VALUE: spmv:out <- [RBP+-112]
	#DEBUG_VALUE: spmv:i <- 0
	movq	%r14, -96(%rbp)         # 8-byte Spill
	movl	$2, %esi
	movq	%rbx, %rdi
	callq	_KEnterRegion
	movl	$11, %edi
	callq	_KPushCDep
	movl	$8, %edi
	callq	_KWork
.Ltmp14:
	#DEBUG_VALUE: spmv:Si <- 0.000000e+00
	#DEBUG_VALUE: spmv:sum <- 0.000000e+00
	movq	-120(%rbp), %rbx        # 8-byte Reload
.Ltmp15:
	#DEBUG_VALUE: spmv:rowDelimiters <- RBX
	.loc	1 14 25 prologue_end    # spmv.c:14:25
	leaq	(%rbx,%r14,4), %rdi
	movl	$1, %esi
	movl	$4, %edx
	callq	_KLoad0
.Ltmp16:
	.loc	1 12 14                 # spmv.c:12:14
	leaq	1(%r14), %rax
	.loc	1 15 23                 # spmv.c:15:23
.Ltmp17:
	movq	%rax, -104(%rbp)        # 8-byte Spill
	leaq	4(%rbx,%r14,4), %rdi
	movslq	(%rbx,%r14,4), %r13
	movq	%r13, -48(%rbp)         # 8-byte Spill
	movl	$2, %esi
	movl	$4, %edx
	callq	_KLoad0
	.loc	1 16 23                 # spmv.c:16:23
.Ltmp18:
	movslq	4(%rbx,%r14,4), %rax
	movq	%rax, -80(%rbp)         # 8-byte Spill
.Ltmp19:
	#DEBUG_VALUE: spmv:rowDelimiters <- [RBP+-120]
	movl	$14, %r14d
	movl	$14, %edi
	movl	$11, %esi
	xorl	%edx, %edx
	movl	$1, %ecx
	xorl	%r8d, %r8d
	callq	_KTimestamp2
	movl	$12, %edi
	movl	$11, %esi
	xorl	%edx, %edx
	movl	$2, %ecx
	xorl	%r8d, %r8d
	callq	_KTimestamp2
	callq	_KPopCDep
	movl	$1, %esi
	movq	%r15, %rdi
	callq	_KEnterRegion
	movq	-128(%rbp), %rax        # 8-byte Reload
	leaq	(%rax,%r13,4), %r15
	movq	-136(%rbp), %rax        # 8-byte Reload
	leaq	(%rax,%r13,8), %r13
	xorps	%xmm0, %xmm0
	movsd	%xmm0, -64(%rbp)        # 8-byte Spill
	movl	$0, -52(%rbp)           # 4-byte Folded Spill
	xorl	%ebx, %ebx
	jmp	.LBB0_2
	.align	16, 0x90
.LBB0_3:                                # %for.body5
                                        #   in Loop: Header=BB0_2 Depth=2
	#DEBUG_VALUE: spmv:val <- [RBP+-136]
	#DEBUG_VALUE: spmv:cols <- [RBP+-128]
	#DEBUG_VALUE: spmv:rowDelimiters <- [RBP+-120]
	#DEBUG_VALUE: spmv:vec <- [RBP+-88]
	#DEBUG_VALUE: spmv:out <- [RBP+-112]
	#DEBUG_VALUE: spmv:i <- 0
	#DEBUG_VALUE: spmv:sum <- 0.000000e+00
	#DEBUG_VALUE: spmv:Si <- 0.000000e+00
	movl	$2, %esi
	movq	%r12, %rdi
	callq	_KEnterRegion
	movl	$13, -52(%rbp)          # 4-byte Folded Spill
	movl	$13, %edi
	callq	_KPushCDep
	movl	$20, %edi
	callq	_KWork
	movl	$3, %esi
	movl	$4, %edx
	movl	$8, %ecx
	movq	%r13, %rdi
	callq	_KLoad1
	.loc	1 17 18                 # spmv.c:17:18
.Ltmp20:
	movsd	(%r13), %xmm0
	movsd	%xmm0, -72(%rbp)        # 8-byte Spill
	movl	$5, %esi
	movl	$4, %edx
	movl	$4, %ecx
	movq	%r15, %rdi
	callq	_KLoad1
	.loc	1 17 27 is_stmt 0       # spmv.c:17:27
	movslq	(%r15), %r14
	movq	-88(%rbp), %rbx         # 8-byte Reload
.Ltmp21:
	#DEBUG_VALUE: spmv:vec <- RBX
	leaq	(%rbx,%r14,8), %rdi
	movl	$6, %esi
	movl	$7, %edx
	movl	$8, %ecx
	callq	_KLoad1
	movsd	-72(%rbp), %xmm1        # 8-byte Reload
	.loc	1 17 18                 # spmv.c:17:18
	mulsd	(%rbx,%r14,8), %xmm1
.Ltmp22:
	#DEBUG_VALUE: spmv:Si <- XMM1
	.loc	1 18 19 is_stmt 1       # spmv.c:18:19
	movsd	-64(%rbp), %xmm0        # 8-byte Reload
.Ltmp23:
	#DEBUG_VALUE: spmv:vec <- [RBP+-88]
	addsd	%xmm1, %xmm0
.Ltmp24:
	#DEBUG_VALUE: spmv:sum <- [RBP+-64]
	.loc	1 16 18                 # spmv.c:16:18
	movsd	%xmm0, -64(%rbp)        # 8-byte Spill
	incq	-48(%rbp)               # 8-byte Folded Spill
	movl	$7, 16(%rsp)
	movl	$6, 8(%rsp)
	movl	$7, (%rsp)
	movl	$15, %ebx
	movl	$15, %edi
	movl	$8, %esi
	movl	$2, %edx
	movl	$13, %ecx
	movl	$7, %r8d
	movl	$3, %r9d
	callq	_KTimestamp4
	movl	$10, %r14d
	movl	$10, %edi
	movl	$4, %esi
	movl	$1, %edx
	movl	$13, %ecx
	movl	$1, %r8d
	callq	_KTimestamp2
	callq	_KPopCDep
	movl	$2, %esi
	movq	%r12, %rdi
	callq	_KExitRegion
	addq	$4, %r15
	addq	$8, %r13
.Ltmp25:
.LBB0_2:                                # %for.cond3
                                        #   Parent Loop BB0_1 Depth=1
                                        # =>  This Inner Loop Header: Depth=2
	#DEBUG_VALUE: spmv:val <- [RBP+-136]
	#DEBUG_VALUE: spmv:cols <- [RBP+-128]
	#DEBUG_VALUE: spmv:rowDelimiters <- [RBP+-120]
	#DEBUG_VALUE: spmv:vec <- [RBP+-88]
	#DEBUG_VALUE: spmv:out <- [RBP+-112]
	#DEBUG_VALUE: spmv:i <- 0
	#DEBUG_VALUE: spmv:sum <- 0.000000e+00
	#DEBUG_VALUE: spmv:Si <- 0.000000e+00
	movl	$11, %edi
	callq	_KPushCDep
	movl	$8, %edi
	movl	$11, %edx
	movl	%ebx, %esi
	movl	-52(%rbp), %ebx         # 4-byte Reload
	movl	%ebx, %ecx
	callq	_KPhi2To1
	movl	$4, %edi
	movl	$11, %edx
	movl	%r14d, %esi
	movl	%ebx, %ecx
	callq	_KPhi2To1
	movl	$1, %edi
	callq	_KWork
	movl	$8, %edi
	movl	$8, %esi
	xorl	%edx, %edx
	callq	_KTimestamp1
	movl	$1, (%rsp)
	movl	$13, %edi
	movl	$11, %esi
	movl	$1, %edx
	movl	$12, %ecx
	movl	$1, %r8d
	movl	$4, %r9d
	callq	_KTimestamp3
	movl	$8, %edi
	movl	$13, %esi
	callq	_KPhiAddCond
	movl	$4, %edi
	movl	$13, %esi
	callq	_KPhiAddCond
	movl	$4, %edi
	movl	$4, %esi
	xorl	%edx, %edx
	callq	_KTimestamp1
	callq	_KPopCDep
	.loc	1 16 18 is_stmt 0       # spmv.c:16:18
	movq	-80(%rbp), %rax         # 8-byte Reload
	cmpq	%rax, -48(%rbp)         # 8-byte Folded Reload
	jl	.LBB0_3
.Ltmp26:
# BB#4:                                 # %for.cond3.pre_exit.for.end
                                        #   in Loop: Header=BB0_1 Depth=1
	#DEBUG_VALUE: spmv:val <- [RBP+-136]
	#DEBUG_VALUE: spmv:cols <- [RBP+-128]
	#DEBUG_VALUE: spmv:rowDelimiters <- [RBP+-120]
	#DEBUG_VALUE: spmv:vec <- [RBP+-88]
	#DEBUG_VALUE: spmv:out <- [RBP+-112]
	#DEBUG_VALUE: spmv:i <- 0
	#DEBUG_VALUE: spmv:sum <- 0.000000e+00
	#DEBUG_VALUE: spmv:Si <- 0.000000e+00
	movl	$1, %esi
	movabsq	$-7483411739756497559, %r15 # imm = 0x982594ABE7D37569
	movq	%r15, %rdi
	callq	_KExitRegion
	movl	$11, %edi
	callq	_KPushCDep
	movl	$1, %edi
	callq	_KWork
	movq	-112(%rbp), %rbx        # 8-byte Reload
.Ltmp27:
	#DEBUG_VALUE: spmv:out <- RBX
	movq	-96(%rbp), %r14         # 8-byte Reload
	.loc	1 20 9 is_stmt 1        # spmv.c:20:9
	leaq	(%rbx,%r14,8), %rsi
	movl	$8, %edi
	movl	$8, %edx
	callq	_KStore
	movsd	-64(%rbp), %xmm0        # 8-byte Reload
	movsd	%xmm0, (%rbx,%r14,8)
.Ltmp28:
	#DEBUG_VALUE: spmv:out <- [RBP+-112]
	callq	_KPopCDep
	movl	$2, %esi
	movabsq	$-3925944229609966928, %rbx # imm = 0xC9843E86121A72B0
	movq	%rbx, %rdi
	callq	_KExitRegion
	movl	$1, %edi
	callq	_KWork
	movl	$11, %edi
	movl	$9, %esi
	movl	$1, %edx
	callq	_KTimestamp1
	movq	-104(%rbp), %rax        # 8-byte Reload
.Ltmp29:
	.loc	1 12 14                 # spmv.c:12:14
	cmpq	$494, %rax              # imm = 0x1EE
	movq	%rax, %r14
	jne	.LBB0_1
.Ltmp30:
# BB#5:                                 # %for.cond.pre_exit.for.end17
	#DEBUG_VALUE: spmv:i <- 0
	#DEBUG_VALUE: spmv:sum <- 0.000000e+00
	#DEBUG_VALUE: spmv:Si <- 0.000000e+00
	movl	$1, %esi
	movabsq	$-8215084911183108723, %rdi # imm = 0x8DFE27CC7542658D
	callq	_KExitRegion
	xorl	%esi, %esi
	movabsq	$-1137594477356936952, %rdi # imm = 0xF03673D99EB19108
	addq	$120, %rsp
	popq	%rbx
	popq	%r12
	popq	%r13
	popq	%r14
	popq	%r15
	popq	%rbp
	jmp	_KExitRegion            # TAILCALL
.Ltmp31:
	.size	spmv, .Ltmp31-spmv
.Lfunc_end0:
	.cfi_endproc

	.type	krem_prefix8dfe27cc7542658d_krem_loop_krem_spmv.c_krem_spmv_krem_9_krem_20_krem_,@object # @krem_prefix8dfe27cc7542658d_krem_loop_krem_spmv.c_krem_spmv_krem_9_krem_20_krem_
	.bss
	.globl	krem_prefix8dfe27cc7542658d_krem_loop_krem_spmv.c_krem_spmv_krem_9_krem_20_krem_
krem_prefix8dfe27cc7542658d_krem_loop_krem_spmv.c_krem_spmv_krem_9_krem_20_krem_:
	.byte	0                       # 0x0
	.size	krem_prefix8dfe27cc7542658d_krem_loop_krem_spmv.c_krem_spmv_krem_9_krem_20_krem_, 1

	.type	krem_prefix982594abe7d37569_krem_loop_krem_spmv.c_krem_spmv_krem_9_krem_18_krem_,@object # @krem_prefix982594abe7d37569_krem_loop_krem_spmv.c_krem_spmv_krem_9_krem_18_krem_
	.globl	krem_prefix982594abe7d37569_krem_loop_krem_spmv.c_krem_spmv_krem_9_krem_18_krem_
krem_prefix982594abe7d37569_krem_loop_krem_spmv.c_krem_spmv_krem_9_krem_18_krem_:
	.byte	0                       # 0x0
	.size	krem_prefix982594abe7d37569_krem_loop_krem_spmv.c_krem_spmv_krem_9_krem_18_krem_, 1

	.type	krem_prefixc9843e86121a72b0_krem_loop_body_krem_spmv.c_krem_spmv_krem_9_krem_20_krem_,@object # @krem_prefixc9843e86121a72b0_krem_loop_body_krem_spmv.c_krem_spmv_krem_9_krem_20_krem_
	.globl	krem_prefixc9843e86121a72b0_krem_loop_body_krem_spmv.c_krem_spmv_krem_9_krem_20_krem_
krem_prefixc9843e86121a72b0_krem_loop_body_krem_spmv.c_krem_spmv_krem_9_krem_20_krem_:
	.byte	0                       # 0x0
	.size	krem_prefixc9843e86121a72b0_krem_loop_body_krem_spmv.c_krem_spmv_krem_9_krem_20_krem_, 1

	.type	krem_prefixd871ef872e21c998_krem_loop_body_krem_spmv.c_krem_spmv_krem_9_krem_18_krem_,@object # @krem_prefixd871ef872e21c998_krem_loop_body_krem_spmv.c_krem_spmv_krem_9_krem_18_krem_
	.globl	krem_prefixd871ef872e21c998_krem_loop_body_krem_spmv.c_krem_spmv_krem_9_krem_18_krem_
krem_prefixd871ef872e21c998_krem_loop_body_krem_spmv.c_krem_spmv_krem_9_krem_18_krem_:
	.byte	0                       # 0x0
	.size	krem_prefixd871ef872e21c998_krem_loop_body_krem_spmv.c_krem_spmv_krem_9_krem_18_krem_, 1

	.type	krem_prefixf03673d99eb19108_krem_func_krem_spmv.c_krem_spmv_krem_8_krem_8_krem_,@object # @krem_prefixf03673d99eb19108_krem_func_krem_spmv.c_krem_spmv_krem_8_krem_8_krem_
	.globl	krem_prefixf03673d99eb19108_krem_func_krem_spmv.c_krem_spmv_krem_8_krem_8_krem_
krem_prefixf03673d99eb19108_krem_func_krem_spmv.c_krem_spmv_krem_8_krem_8_krem_:
	.byte	0                       # 0x0
	.size	krem_prefixf03673d99eb19108_krem_func_krem_spmv.c_krem_spmv_krem_8_krem_8_krem_, 1

	.text
.Ldebug_end0:
	.file	2 "/usr/include/x86_64-linux-gnu/sys/types.h"
	.section	".note.GNU-stack","",@progbits