	.text
	.file	"bitcnt_2.simplifycfg.mem2reg.indvars.elimsinglephis.criticalpath.regioninstrument.renamemain.O3.bc"
	.text
	.globl	bitcount_bitcount
	.align	16, 0x90
	.type	bitcount_bitcount,@function
bitcount_bitcount:                      # @bitcount_bitcount
.Lfunc_begin0:
	.file	1 "bitcnt_2.c"
	.loc	1 24 0                  # bitcnt_2.c:24:0
	.cfi_startproc
# BB#0:                                 # %entry
	pushq	%rbp
.Ltmp0:
	.cfi_def_cfa_offset 16
.Ltmp1:
	.cfi_offset %rbp, -16
	movq	%rsp, %rbp
.Ltmp2:
	.cfi_def_cfa_register %rbp
	pushq	%r14
	pushq	%rbx
.Ltmp3:
	.cfi_offset %rbx, -32
.Ltmp4:
	.cfi_offset %r14, -24
	#DEBUG_VALUE: bitcount_bitcount:i <- RDI
	movq	%rdi, %rbx
.Ltmp5:
	#DEBUG_VALUE: bitcount_bitcount:i <- RBX
	movabsq	$-4857276722264098757, %r14 # imm = 0xBC977C8E59ACB83B
	xorl	%esi, %esi
	movq	%r14, %rdi
	callq	_KEnterRegion
	movl	$3, %edi
	xorl	%esi, %esi
	callq	_KPrepRTable
	movl	$20, %edi
	callq	_KWork
	movl	$1, %edi
	callq	_KDeqArg
	.loc	1 25 9 prologue_end     # bitcnt_2.c:25:9
.Ltmp6:
	movq	%rbx, %rax
	shrq	%rax
	andq	$1431655765, %rax       # imm = 0x55555555
	.loc	1 25 40 is_stmt 0       # bitcnt_2.c:25:40
	andq	$1431655765, %rbx       # imm = 0x55555555
.Ltmp7:
	.loc	1 25 7                  # bitcnt_2.c:25:7
	addq	%rax, %rbx
.Ltmp8:
	#DEBUG_VALUE: bitcount_bitcount:i <- RBX
	.loc	1 26 9 is_stmt 1        # bitcnt_2.c:26:9
	movq	%rbx, %rax
	shrq	$2, %rax
	andq	$858993459, %rax        # imm = 0x33333333
	.loc	1 26 40 is_stmt 0       # bitcnt_2.c:26:40
	andq	$858993459, %rbx        # imm = 0x33333333
.Ltmp9:
	.loc	1 26 7                  # bitcnt_2.c:26:7
	addq	%rax, %rbx
.Ltmp10:
	#DEBUG_VALUE: bitcount_bitcount:i <- RBX
	.loc	1 27 9 is_stmt 1        # bitcnt_2.c:27:9
	movq	%rbx, %rax
	shrq	$4, %rax
	andq	$117901063, %rax        # imm = 0x7070707
	.loc	1 27 40 is_stmt 0       # bitcnt_2.c:27:40
	andq	$117901063, %rbx        # imm = 0x7070707
.Ltmp11:
	.loc	1 27 7                  # bitcnt_2.c:27:7
	addq	%rax, %rbx
.Ltmp12:
	#DEBUG_VALUE: bitcount_bitcount:i <- RBX
	.loc	1 28 9 is_stmt 1        # bitcnt_2.c:28:9
	movq	%rbx, %rax
	shrq	$8, %rax
	andq	$983055, %rax           # imm = 0xF000F
	.loc	1 28 40 is_stmt 0       # bitcnt_2.c:28:40
	andq	$983055, %rbx           # imm = 0xF000F
.Ltmp13:
	.loc	1 28 7                  # bitcnt_2.c:28:7
	addq	%rax, %rbx
.Ltmp14:
	#DEBUG_VALUE: bitcount_bitcount:i <- RBX
	.loc	1 29 9 is_stmt 1        # bitcnt_2.c:29:9
	movq	%rbx, %rax
	shrq	$16, %rax
	.loc	1 29 41 is_stmt 0       # bitcnt_2.c:29:41
	andl	$31, %ebx
.Ltmp15:
	.loc	1 29 7                  # bitcnt_2.c:29:7
	addl	%eax, %ebx
	movl	$2, %edi
	movl	$1, %esi
	movl	$15, %edx
	callq	_KTimestamp1
	movl	$2, %edi
	callq	_KReturn
	xorl	%esi, %esi
	movq	%r14, %rdi
	callq	_KExitRegion
	.loc	1 30 3 is_stmt 1        # bitcnt_2.c:30:3
	movl	%ebx, %eax
	popq	%rbx
	popq	%r14
	popq	%rbp
	retq
.Ltmp16:
.Ltmp17:
	.size	bitcount_bitcount, .Ltmp17-bitcount_bitcount
.Lfunc_end0:
	.cfi_endproc

	.type	krem_prefixbc977c8e59acb83b_krem_func_krem_bitcnt_2.c_krem_bitcount_bitcount_krem_23_krem_23_krem_,@object # @krem_prefixbc977c8e59acb83b_krem_func_krem_bitcnt_2.c_krem_bitcount_bitcount_krem_23_krem_23_krem_
	.bss
	.globl	krem_prefixbc977c8e59acb83b_krem_func_krem_bitcnt_2.c_krem_bitcount_bitcount_krem_23_krem_23_krem_
krem_prefixbc977c8e59acb83b_krem_func_krem_bitcnt_2.c_krem_bitcount_bitcount_krem_23_krem_23_krem_:
	.byte	0                       # 0x0
	.size	krem_prefixbc977c8e59acb83b_krem_func_krem_bitcnt_2.c_krem_bitcount_bitcount_krem_23_krem_23_krem_, 1

	.text
.Ldebug_end0:
	.section	".note.GNU-stack","",@progbits