	.text
	.file	"bitcnt_1.simplifycfg.mem2reg.indvars.elimsinglephis.criticalpath.regioninstrument.renamemain.O3.bc"
	.text
	.globl	bitcount_bit_count
	.align	16, 0x90
	.type	bitcount_bit_count,@function
bitcount_bit_count:                     # @bitcount_bit_count
.Lfunc_begin0:
	.file	1 "bitcnt_1.c"
	.loc	1 23 0                  # bitcnt_1.c:23:0
	.cfi_startproc
# BB#0:                                 # %entry
	pushq	%rbp
.Ltmp0:
	.cfi_def_cfa_offset 16
.Ltmp1:
	.cfi_offset %rbp, -16
	movq	%rsp, %rbp
.Ltmp2:
	.cfi_def_cfa_register %rbp
	pushq	%r15
	pushq	%r14
	pushq	%r13
	pushq	%r12
	pushq	%rbx
	pushq	%rax
.Ltmp3:
	.cfi_offset %rbx, -56
.Ltmp4:
	.cfi_offset %r12, -48
.Ltmp5:
	.cfi_offset %r13, -40
.Ltmp6:
	.cfi_offset %r14, -32
.Ltmp7:
	.cfi_offset %r15, -24
	#DEBUG_VALUE: bitcount_bit_count:x <- RDI
	movq	%rdi, %rbx
.Ltmp8:
	#DEBUG_VALUE: bitcount_bit_count:x <- RBX
	movabsq	$-8539087407226904067, %r12 # imm = 0x897F113EC23AA1FD
	xorl	%r14d, %r14d
	xorl	%esi, %esi
	movq	%r12, %rdi
	callq	_KEnterRegion
	movl	$9, %edi
	movl	$2, %esi
	callq	_KPrepRTable
	movl	$1, %r13d
	movl	$1, %edi
	callq	_KWork
	movl	$1, %edi
	callq	_KDeqArg
	movl	$6, %edi
	movl	$1, %esi
	movl	$1, %edx
	callq	_KTimestamp1
.Ltmp9:
	#DEBUG_VALUE: bitcount_bit_count:n <- 0
	.loc	1 29 8 prologue_end     # bitcnt_1.c:29:8
	testq	%rbx, %rbx
	movl	$0, %r15d
	je	.LBB0_4
.Ltmp10:
# BB#1:                                 # %do.body.preheader
	#DEBUG_VALUE: bitcount_bit_count:x <- RBX
	#DEBUG_VALUE: bitcount_bit_count:n <- 0
	movabsq	$-8376489218466736465, %r14 # imm = 0x8BC0BB6FB46696AF
	movl	$6, %edi
	callq	_KPushCDep
	xorl	%r15d, %r15d
	movl	$1, %edi
	movl	$1, %esi
	xorl	%edx, %edx
	callq	_KTimestamp1
	movl	$3, %edi
	callq	_KInduction
	callq	_KPopCDep
	movl	$1, %esi
	movq	%r14, %rdi
	callq	_KEnterRegion
	movabsq	$5431194881478083259, %r14 # imm = 0x4B5F7AF8106BC2BB
.Ltmp11:
	.align	16, 0x90
.LBB0_2:                                # %do.body
                                        # =>This Inner Loop Header: Depth=1
	#DEBUG_VALUE: bitcount_bit_count:n <- 0
	movl	$2, %esi
	movq	%r14, %rdi
	callq	_KEnterRegion
	movl	$6, %edi
	callq	_KPushCDep
	movl	$4, %edi
	movl	$6, %edx
	movl	%r13d, %esi
	callq	_KPhi1To1
	movl	$3, %edi
	callq	_KWork
	.loc	1 32 7                  # bitcnt_1.c:32:7
.Ltmp12:
	incl	%r15d
.Ltmp13:
	#DEBUG_VALUE: bitcount_bit_count:n <- R15D
	.loc	1 33 32                 # bitcnt_1.c:33:32
	leaq	-1(%rbx), %r12
	movl	$8, %edi
	movl	$6, %esi
	xorl	%edx, %edx
	movl	$3, %ecx
	xorl	%r8d, %r8d
	callq	_KTimestamp2
	movl	$7, %edi
	movl	$6, %esi
	movl	$3, %edx
	movl	$4, %ecx
	movl	$3, %r8d
	callq	_KTimestamp2
	movl	$4, %edi
	movl	$7, %esi
	callq	_KPhiAddCond
	movl	$5, %r13d
	movl	$5, %edi
	movl	$6, %esi
	movl	$2, %edx
	movl	$4, %ecx
	movl	$2, %r8d
	callq	_KTimestamp2
	callq	_KPopCDep
	movl	$2, %esi
	movq	%r14, %rdi
	callq	_KExitRegion
	.loc	1 33 5 is_stmt 0        # bitcnt_1.c:33:5
.Ltmp14:
	andq	%r12, %rbx
	jne	.LBB0_2
.Ltmp15:
# BB#3:                                 # %do.body.pre_exit.if.end.loopexit
	#DEBUG_VALUE: bitcount_bit_count:n <- R15D
	movl	$1, %esi
	movabsq	$-8376489218466736465, %rdi # imm = 0x8BC0BB6FB46696AF
	callq	_KExitRegion
	movl	$6, %edi
	callq	_KPushCDep
	callq	_KPopCDep
	movl	$8, %r14d
	movabsq	$-8539087407226904067, %r12 # imm = 0x897F113EC23AA1FD
.Ltmp16:
.LBB0_4:                                # %if.end
	#DEBUG_VALUE: bitcount_bit_count:n <- 0
	movl	$2, %edi
	movl	$6, %edx
	movl	%r14d, %esi
	callq	_KPhi1To1
	movl	$2, %edi
	movl	$2, %esi
	xorl	%edx, %edx
	callq	_KTimestamp1
	movl	$2, %edi
	callq	_KReturn
	xorl	%esi, %esi
	movq	%r12, %rdi
	callq	_KExitRegion
	.loc	1 35 3 is_stmt 1        # bitcnt_1.c:35:3
	movl	%r15d, %eax
	addq	$8, %rsp
	popq	%rbx
	popq	%r12
	popq	%r13
	popq	%r14
	popq	%r15
	popq	%rbp
	retq
.Ltmp17:
.Ltmp18:
	.size	bitcount_bit_count, .Ltmp18-bitcount_bit_count
.Lfunc_end0:
	.cfi_endproc

	.type	krem_prefix4b5f7af8106bc2bb_krem_loop_body_krem_bitcnt_1.c_krem_bitcount_bit_count_krem_22_krem_33_krem_,@object # @krem_prefix4b5f7af8106bc2bb_krem_loop_body_krem_bitcnt_1.c_krem_bitcount_bit_count_krem_22_krem_33_krem_
	.bss
	.globl	krem_prefix4b5f7af8106bc2bb_krem_loop_body_krem_bitcnt_1.c_krem_bitcount_bit_count_krem_22_krem_33_krem_
krem_prefix4b5f7af8106bc2bb_krem_loop_body_krem_bitcnt_1.c_krem_bitcount_bit_count_krem_22_krem_33_krem_:
	.byte	0                       # 0x0
	.size	krem_prefix4b5f7af8106bc2bb_krem_loop_body_krem_bitcnt_1.c_krem_bitcount_bit_count_krem_22_krem_33_krem_, 1

	.type	krem_prefix897f113ec23aa1fd_krem_func_krem_bitcnt_1.c_krem_bitcount_bit_count_krem_22_krem_22_krem_,@object # @krem_prefix897f113ec23aa1fd_krem_func_krem_bitcnt_1.c_krem_bitcount_bit_count_krem_22_krem_22_krem_
	.globl	krem_prefix897f113ec23aa1fd_krem_func_krem_bitcnt_1.c_krem_bitcount_bit_count_krem_22_krem_22_krem_
krem_prefix897f113ec23aa1fd_krem_func_krem_bitcnt_1.c_krem_bitcount_bit_count_krem_22_krem_22_krem_:
	.byte	0                       # 0x0
	.size	krem_prefix897f113ec23aa1fd_krem_func_krem_bitcnt_1.c_krem_bitcount_bit_count_krem_22_krem_22_krem_, 1

	.type	krem_prefix8bc0bb6fb46696af_krem_loop_krem_bitcnt_1.c_krem_bitcount_bit_count_krem_22_krem_33_krem_,@object # @krem_prefix8bc0bb6fb46696af_krem_loop_krem_bitcnt_1.c_krem_bitcount_bit_count_krem_22_krem_33_krem_
	.globl	krem_prefix8bc0bb6fb46696af_krem_loop_krem_bitcnt_1.c_krem_bitcount_bit_count_krem_22_krem_33_krem_
krem_prefix8bc0bb6fb46696af_krem_loop_krem_bitcnt_1.c_krem_bitcount_bit_count_krem_22_krem_33_krem_:
	.byte	0                       # 0x0
	.size	krem_prefix8bc0bb6fb46696af_krem_loop_krem_bitcnt_1.c_krem_bitcount_bit_count_krem_22_krem_33_krem_, 1

	.text
.Ldebug_end0:
	.section	".note.GNU-stack","",@progbits