	.text
	.file	"quicksortlibm.simplifycfg.mem2reg.indvars.elimsinglephis.criticalpath.regioninstrument.renamemain.O3.bc"
	.section	.rodata.cst4,"aM",@progbits,4
	.align	4
.LCPI0_0:
	.long	1065353216              # float 1
.LCPI0_1:
	.long	3212836864              # float -1
.LCPI0_3:
	.long	1266679808              # float 16777216
.LCPI0_4:
	.long	1045688642              # float 0.206975013
.LCPI0_5:
	.long	1047278165              # float 0.230660751
.LCPI0_6:
	.long	1049338629              # float 0.272728115
.LCPI0_7:
	.long	1051372203              # float 0.333333343
.LCPI0_8:
	.long	1054567863              # float 0.428571433
.LCPI0_9:
	.long	1058642330              # float 0.600000024
.LCPI0_10:
	.long	1077936128              # float 3
.LCPI0_11:
	.long	3225419776              # float -3
.LCPI0_12:
	.long	1064712192              # float 0.961791992
.LCPI0_13:
	.long	916308896               # float 4.70173836E-6
.LCPI0_14:
	.long	1064712271              # float 0.9617967
.LCPI0_15:
	.long	3196059648              # float -0.25
.LCPI0_16:
	.long	1056964608              # float 0.5
.LCPI0_17:
	.long	1069066752              # float 1.44268799
.LCPI0_18:
	.long	921478512               # float 7.05260754E-6
.LCPI0_19:
	.long	3216550459              # float -1.44269502
.LCPI0_21:
	.long	228737632               # float 1.0E-30
.LCPI0_22:
	.long	859351612               # float 4.29956657E-8
.LCPI0_23:
	.long	1060205056              # float 0.693145751
.LCPI0_24:
	.long	1060205080              # float 0.693147182
.LCPI0_25:
	.long	901758604               # float 1.42860654E-6
.LCPI0_26:
	.long	858897228               # float 4.13813694E-8
.LCPI0_27:
	.long	3051219470              # float -1.6533902E-6
.LCPI0_28:
	.long	948613973               # float 6.61375597E-5
.LCPI0_29:
	.long	3140881249              # float -0.00277777785
.LCPI0_30:
	.long	1042983595              # float 0.166666672
.LCPI0_31:
	.long	3221225472              # float -2
.LCPI0_32:
	.long	1900671690              # float 1.00000002E+30
.LCPI0_33:
	.long	2139095040              # float +Inf
	.section	.rodata.cst16,"aM",@progbits,16
	.align	16
.LCPI0_2:
	.long	2147483648              # 0x80000000
	.long	2147483648              # 0x80000000
	.long	2147483648              # 0x80000000
	.long	2147483648              # 0x80000000
	.section	.rodata.cst8,"aM",@progbits,8
	.align	4
.LCPI0_20:
	.long	1065353216              # float 1.000000e+00
	.long	3212836864              # float -1.000000e+00
	.text
	.globl	quicksort___ieee754_powf
	.align	16, 0x90
	.type	quicksort___ieee754_powf,@function
quicksort___ieee754_powf:               # @quicksort___ieee754_powf
.Lfunc_begin0:
	.loc	1 92 0                  # quicksortlibm.c:92:0
	.cfi_startproc
# BB#0:                                 # %entry
	pushq	%rbp
.Ltmp0:
	.cfi_def_cfa_offset 16
.Ltmp1:
	.cfi_offset %rbp, -16
	movq	%rsp, %rbp
.Ltmp2:
	.cfi_def_cfa_register %rbp
	pushq	%r15
	pushq	%r14
	pushq	%r13
	pushq	%r12
	pushq	%rbx
	subq	$504, %rsp              # imm = 0x1F8
.Ltmp3:
	.cfi_offset %rbx, -56
.Ltmp4:
	.cfi_offset %r12, -48
.Ltmp5:
	.cfi_offset %r13, -40
.Ltmp6:
	.cfi_offset %r14, -32
.Ltmp7:
	.cfi_offset %r15, -24
	#DEBUG_VALUE: quicksort___ieee754_powf:x <- XMM0
	#DEBUG_VALUE: quicksort___ieee754_powf:y <- XMM1
	movss	%xmm1, -240(%rbp)       # 4-byte Spill
.Ltmp8:
	#DEBUG_VALUE: quicksort___ieee754_powf:y <- [RBP+-240]
	#DEBUG_VALUE: quicksort___ieee754_powf:y <- undef
	movss	%xmm0, -228(%rbp)       # 4-byte Spill
.Ltmp9:
	#DEBUG_VALUE: quicksort___ieee754_powf:x <- [RBP+-228]
	#DEBUG_VALUE: quicksort___ieee754_powf:x <- undef
	movabsq	$-1090793993995395279, %rdi # imm = 0xF0DCB8A448C65F31
	xorl	%esi, %esi
	callq	_KEnterRegion
	movl	$145, %edi
	xorl	%esi, %esi
	callq	_KPrepRTable
	movl	$2, %edi
	callq	_KDeqArg
	movl	$1, %edi
	callq	_KDeqArg
	movl	$13, %edi
	callq	_KWork
	movl	$1, %edi
	movl	$1, %esi
	xorl	%edx, %edx
	callq	_KTimestamp1
	leaq	-48(%rbp), %rbx
	movl	$1, %edi
	movl	$4, %edx
	movq	%rbx, %rsi
	callq	_KStore
	.loc	1 99 3 prologue_end     # quicksortlibm.c:99:3
.Ltmp10:
	movss	-228(%rbp), %xmm0       # 4-byte Reload
	movss	%xmm0, -48(%rbp)
.Ltmp11:
	#DEBUG_VALUE: quicksort___ieee754_powf:x <- [RBP+-228]
	movl	$3, %esi
	movl	$4, %edx
	movq	%rbx, %rdi
	callq	_KLoad0
	movl	-48(%rbp), %r15d
.Ltmp12:
	#DEBUG_VALUE: quicksort___ieee754_powf:hx <- R15D
	movl	$2, %edi
	movl	$2, %esi
	xorl	%edx, %edx
	callq	_KTimestamp1
	leaq	-56(%rbp), %rbx
	movl	$2, %edi
	movl	$4, %edx
	movq	%rbx, %rsi
	callq	_KStore
.Ltmp13:
	.loc	1 100 3                 # quicksortlibm.c:100:3
	movss	-240(%rbp), %xmm0       # 4-byte Reload
	movss	%xmm0, -56(%rbp)
.Ltmp14:
	#DEBUG_VALUE: quicksort___ieee754_powf:y <- [RBP+-240]
	movl	$4, %esi
	movl	$4, %edx
	movq	%rbx, %rdi
	callq	_KLoad0
	movl	-56(%rbp), %ebx
.Ltmp15:
	#DEBUG_VALUE: quicksort___ieee754_powf:hy <- EBX
	movl	$133, %edi
	movl	$4, %esi
	movl	$2, %edx
	callq	_KTimestamp1
	movl	$95, %edi
	movl	$3, %esi
	movl	$1, %edx
	callq	_KTimestamp1
	movl	$133, %edi
	callq	_KPushCDep
.Ltmp16:
	.loc	1 105 8                 # quicksortlibm.c:105:8
	movl	%ebx, %r14d
	andl	$2147483647, %r14d      # imm = 0x7FFFFFFF
	je	.LBB0_1
.Ltmp17:
# BB#2:                                 # %if.end
	#DEBUG_VALUE: quicksort___ieee754_powf:x <- [RBP+-228]
	#DEBUG_VALUE: quicksort___ieee754_powf:y <- [RBP+-240]
	#DEBUG_VALUE: quicksort___ieee754_powf:hx <- R15D
	#DEBUG_VALUE: quicksort___ieee754_powf:hy <- EBX
	movl	$2, %edi
	callq	_KWork
	movl	$143, %edi
	movl	$1, %esi
	movl	$2, %edx
	movl	$4, %ecx
	movl	$4, %r8d
	callq	_KTimestamp2
	callq	_KPopCDep
	movl	$143, %edi
	callq	_KPushCDep
	movss	-228(%rbp), %xmm0       # 4-byte Reload
.Ltmp18:
	#DEBUG_VALUE: quicksort___ieee754_powf:x <- XMM0
	.loc	1 109 8                 # quicksortlibm.c:109:8
	ucomiss	.LCPI0_0(%rip), %xmm0
.Ltmp19:
	#DEBUG_VALUE: quicksort___ieee754_powf:x <- undef
	jne	.LBB0_4
	jp	.LBB0_4
.Ltmp20:
# BB#3:                                 # %if.then6
	movl	$143, -256(%rbp)        # 4-byte Folded Spill
	callq	_KPopCDep
	movss	.LCPI0_0(%rip), %xmm0
	movss	%xmm0, -228(%rbp)       # 4-byte Spill
	movl	$0, -268(%rbp)          # 4-byte Folded Spill
	xorl	%eax, %eax
	movq	%rax, -264(%rbp)        # 8-byte Spill
	xorl	%eax, %eax
	movq	%rax, -296(%rbp)        # 8-byte Spill
	xorl	%r11d, %r11d
	xorl	%r10d, %r10d
	xorl	%esi, %esi
	xorl	%eax, %eax
	movq	%rax, -304(%rbp)        # 8-byte Spill
	xorl	%edi, %edi
	xorl	%eax, %eax
	xorl	%r13d, %r13d
	xorl	%ecx, %ecx
	movq	%rcx, -280(%rbp)        # 8-byte Spill
	xorl	%ecx, %ecx
	movq	%rcx, -288(%rbp)        # 8-byte Spill
	xorl	%r9d, %r9d
	xorl	%r12d, %r12d
	xorl	%r15d, %r15d
	xorl	%r14d, %r14d
	xorl	%ecx, %ecx
	movq	%rcx, -240(%rbp)        # 8-byte Spill
	xorl	%ebx, %ebx
	xorl	%r8d, %r8d
	xorl	%ecx, %ecx
	xorl	%edx, %edx
	.loc	1 110 5                 # quicksortlibm.c:110:5
.Ltmp21:
	movq	%rdx, -248(%rbp)        # 8-byte Spill
	jmp	.LBB0_105
.Ltmp22:
.LBB0_1:                                # %if.then
	movl	$0, -256(%rbp)          # 4-byte Folded Spill
	callq	_KPopCDep
	movss	.LCPI0_0(%rip), %xmm0
	movss	%xmm0, -228(%rbp)       # 4-byte Spill
	movl	$0, -268(%rbp)          # 4-byte Folded Spill
	xorl	%eax, %eax
	movq	%rax, -264(%rbp)        # 8-byte Spill
	xorl	%eax, %eax
	movq	%rax, -296(%rbp)        # 8-byte Spill
	xorl	%r11d, %r11d
	xorl	%r10d, %r10d
	xorl	%eax, %eax
	movq	%rax, -304(%rbp)        # 8-byte Spill
	xorl	%edi, %edi
	xorl	%eax, %eax
	xorl	%r13d, %r13d
	xorl	%ecx, %ecx
	movq	%rcx, -280(%rbp)        # 8-byte Spill
	xorl	%ecx, %ecx
	movq	%rcx, -288(%rbp)        # 8-byte Spill
	xorl	%r12d, %r12d
	xorl	%r15d, %r15d
	xorl	%r14d, %r14d
	xorl	%ecx, %ecx
	movq	%rcx, -240(%rbp)        # 8-byte Spill
	xorl	%ebx, %ebx
	xorl	%r8d, %r8d
	xorl	%ecx, %ecx
	xorl	%r9d, %r9d
	.loc	1 106 5                 # quicksortlibm.c:106:5
.Ltmp23:
	movq	%r9, -248(%rbp)         # 8-byte Spill
	xorl	%r9d, %r9d
	xorl	%esi, %esi
	jmp	.LBB0_105
.Ltmp24:
.LBB0_4:                                # %if.end7
	#DEBUG_VALUE: quicksort___ieee754_powf:x <- undef
	#DEBUG_VALUE: quicksort___ieee754_powf:y <- [RBP+-240]
	#DEBUG_VALUE: quicksort___ieee754_powf:hx <- R15D
	#DEBUG_VALUE: quicksort___ieee754_powf:hy <- EBX
	movl	$2, %edi
.Ltmp25:
	#DEBUG_VALUE: quicksort___ieee754_powf:x <- [RBP+-228]
	callq	_KWork
	movl	$142, %edi
	movl	$1, %esi
	movl	$4, %edx
	movl	$4, %ecx
	movl	$6, %r8d
	callq	_KTimestamp2
	callq	_KPopCDep
	.loc	1 111 8                 # quicksortlibm.c:111:8
	movss	-228(%rbp), %xmm0       # 4-byte Reload
	ucomiss	.LCPI0_1(%rip), %xmm0
	jne	.LBB0_7
	jp	.LBB0_7
.Ltmp26:
# BB#5:                                 # %land.lhs.true
	#DEBUG_VALUE: quicksort___ieee754_powf:x <- [RBP+-228]
	#DEBUG_VALUE: quicksort___ieee754_powf:y <- [RBP+-240]
	#DEBUG_VALUE: quicksort___ieee754_powf:hx <- R15D
	#DEBUG_VALUE: quicksort___ieee754_powf:hy <- EBX
	movl	$142, %edi
	callq	_KPushCDep
	movabsq	$-8666389617435120091, %rdi # imm = 0x87BACC8F37A56E25
	xorl	%esi, %esi
	callq	_KPrepCall
	movl	$2, %edi
	callq	_KEnqArg
	movl	$5, %edi
	callq	_KLinkReturn
	movl	$1, %edi
	callq	_KWork
	.loc	1 111 26 is_stmt 0      # quicksortlibm.c:111:26
.Ltmp27:
	movss	-240(%rbp), %xmm0       # 4-byte Reload
	callq	quicksort___isinff
	movl	%eax, %r12d
	movl	$1, (%rsp)
	movl	$144, %edi
	movl	$1, %esi
	movl	$5, %edx
	movl	$4, %ecx
	movl	$7, %r8d
	movl	$5, %r9d
	callq	_KTimestamp3
	callq	_KPopCDep
.Ltmp28:
	.loc	1 111 8                 # quicksortlibm.c:111:8
	testl	%r12d, %r12d
	je	.LBB0_7
.Ltmp29:
# BB#6:                                 # %if.then9
	movl	$144, %edi
	callq	_KPushCDep
	callq	_KPopCDep
	movss	.LCPI0_0(%rip), %xmm0
	movss	%xmm0, -228(%rbp)       # 4-byte Spill
	movl	$143, -256(%rbp)        # 4-byte Folded Spill
	movl	$0, %eax
	movq	%rax, -296(%rbp)        # 8-byte Spill
	movl	$0, %r11d
	movl	$0, %r10d
	movl	$0, %esi
	movl	$0, %eax
	movq	%rax, -304(%rbp)        # 8-byte Spill
	movl	$0, %edi
	movl	$0, %eax
	movl	$0, %r13d
	movl	$0, %ecx
	movq	%rcx, -280(%rbp)        # 8-byte Spill
	movl	$0, %ecx
	movq	%rcx, -288(%rbp)        # 8-byte Spill
	movl	$0, %r9d
	movl	$0, %r12d
	movl	$0, %r15d
	movl	$0, %r14d
	movl	$0, %ecx
	movq	%rcx, -240(%rbp)        # 8-byte Spill
	movl	$0, %ebx
	xorl	%r8d, %r8d
	xorl	%ecx, %ecx
	xorl	%edx, %edx
	movq	%rdx, -248(%rbp)        # 8-byte Spill
	movl	$142, -268(%rbp)        # 4-byte Folded Spill
	xorl	%edx, %edx
	.loc	1 112 5 is_stmt 1       # quicksortlibm.c:112:5
.Ltmp30:
	movq	%rdx, -264(%rbp)        # 8-byte Spill
	jmp	.LBB0_105
.Ltmp31:
.LBB0_7:                                # %if.end10
	#DEBUG_VALUE: quicksort___ieee754_powf:x <- [RBP+-228]
	#DEBUG_VALUE: quicksort___ieee754_powf:y <- [RBP+-240]
	#DEBUG_VALUE: quicksort___ieee754_powf:hx <- R15D
	#DEBUG_VALUE: quicksort___ieee754_powf:hy <- EBX
	.loc	1 101 8                 # quicksortlibm.c:101:8
	movl	%r15d, %r13d
	andl	$2147483647, %r13d      # imm = 0x7FFFFFFF
.Ltmp32:
	#DEBUG_VALUE: quicksort___ieee754_powf:ix <- R13D
	movl	$142, %edi
	callq	_KPushCDep
	movl	$3, %edi
	callq	_KWork
	movl	$8, (%rsp)
	movl	$75, %edi
	movl	$1, %esi
	movl	$6, %edx
	movl	$3, %ecx
	movl	$3, %r8d
	movl	$4, %r9d
	callq	_KTimestamp3
	callq	_KPopCDep
	movl	$75, %edi
	callq	_KPushCDep
	.loc	1 115 10                # quicksortlibm.c:115:10
.Ltmp33:
	cmpl	$2139095040, %r13d      # imm = 0x7F800000
	ja	.LBB0_9
.Ltmp34:
# BB#8:                                 # %if.end10
	#DEBUG_VALUE: quicksort___ieee754_powf:x <- [RBP+-228]
	#DEBUG_VALUE: quicksort___ieee754_powf:y <- [RBP+-240]
	#DEBUG_VALUE: quicksort___ieee754_powf:hx <- R15D
	#DEBUG_VALUE: quicksort___ieee754_powf:hy <- EBX
	#DEBUG_VALUE: quicksort___ieee754_powf:ix <- R13D
	cmpl	$2139095041, %r14d      # imm = 0x7F800001
	jae	.LBB0_9
.Ltmp35:
# BB#10:                                # %if.end14
	#DEBUG_VALUE: quicksort___ieee754_powf:x <- [RBP+-228]
	#DEBUG_VALUE: quicksort___ieee754_powf:y <- [RBP+-240]
	#DEBUG_VALUE: quicksort___ieee754_powf:hx <- R15D
	#DEBUG_VALUE: quicksort___ieee754_powf:hy <- EBX
	#DEBUG_VALUE: quicksort___ieee754_powf:ix <- R13D
	movl	%ebx, -248(%rbp)        # 4-byte Spill
.Ltmp36:
	#DEBUG_VALUE: quicksort___ieee754_powf:hy <- [RBP+-248]
	movl	$1, %edi
	callq	_KWork
.Ltmp37:
	#DEBUG_VALUE: quicksort___ieee754_powf:yisint <- 0
	movl	$9, (%rsp)
	movl	$74, %edi
	movl	$1, %esi
	movl	$7, %edx
	movl	$3, %ecx
	movl	$4, %r8d
	movl	$4, %r9d
	callq	_KTimestamp3
	callq	_KPopCDep
	.loc	1 124 8                 # quicksortlibm.c:124:8
	testl	%r15d, %r15d
	js	.LBB0_12
.Ltmp38:
# BB#11:
	#DEBUG_VALUE: quicksort___ieee754_powf:x <- [RBP+-228]
	#DEBUG_VALUE: quicksort___ieee754_powf:y <- [RBP+-240]
	#DEBUG_VALUE: quicksort___ieee754_powf:hx <- R15D
	#DEBUG_VALUE: quicksort___ieee754_powf:hy <- [RBP+-248]
	#DEBUG_VALUE: quicksort___ieee754_powf:ix <- R13D
	#DEBUG_VALUE: quicksort___ieee754_powf:yisint <- 0
	movl	%r15d, -264(%rbp)       # 4-byte Spill
.Ltmp39:
	#DEBUG_VALUE: quicksort___ieee754_powf:hx <- [RBP+-264]
	xorl	%ebx, %ebx
	movq	%r13, -256(%rbp)        # 8-byte Spill
.Ltmp40:
	#DEBUG_VALUE: quicksort___ieee754_powf:ix <- [RBP+-256]
	xorl	%r12d, %r12d
	xorl	%r13d, %r13d
	xorl	%r15d, %r15d
	movl	$0, -268(%rbp)          # 4-byte Folded Spill
	jmp	.LBB0_20
.LBB0_9:                                # %if.then13
	#DEBUG_VALUE: quicksort___ieee754_powf:x <- [RBP+-228]
	#DEBUG_VALUE: quicksort___ieee754_powf:y <- [RBP+-240]
	movl	$2, %edi
	callq	_KWork
	.loc	1 116 13                # quicksortlibm.c:116:13
.Ltmp41:
	movss	-228(%rbp), %xmm0       # 4-byte Reload
.Ltmp42:
	#DEBUG_VALUE: quicksort___ieee754_powf:x <- undef
	addss	-240(%rbp), %xmm0       # 4-byte Folded Reload
	movss	%xmm0, -228(%rbp)       # 4-byte Spill
	movl	$10, 16(%rsp)
	movl	$4, 8(%rsp)
	movl	$5, (%rsp)
	movl	$116, %edi
	movl	$2, %esi
	movl	$2, %edx
	movl	$1, %ecx
	movl	$8, %r8d
	movl	$3, %r9d
	callq	_KTimestamp4
	callq	_KPopCDep
	movl	$116, %eax
	movq	%rax, -248(%rbp)        # 8-byte Spill
	xorl	%eax, %eax
	movq	%rax, -296(%rbp)        # 8-byte Spill
	movl	$143, -256(%rbp)        # 4-byte Folded Spill
	xorl	%r11d, %r11d
	xorl	%r10d, %r10d
	xorl	%esi, %esi
	xorl	%eax, %eax
	movq	%rax, -304(%rbp)        # 8-byte Spill
	xorl	%edi, %edi
	xorl	%eax, %eax
	xorl	%r13d, %r13d
	xorl	%ecx, %ecx
	movq	%rcx, -280(%rbp)        # 8-byte Spill
	xorl	%ecx, %ecx
	movq	%rcx, -288(%rbp)        # 8-byte Spill
	xorl	%r9d, %r9d
	movl	$142, -268(%rbp)        # 4-byte Folded Spill
	movl	$75, %ecx
	movq	%rcx, -264(%rbp)        # 8-byte Spill
	xorl	%r12d, %r12d
	xorl	%r15d, %r15d
	xorl	%r14d, %r14d
	xorl	%ecx, %ecx
	movq	%rcx, -240(%rbp)        # 8-byte Spill
	xorl	%ebx, %ebx
	jmp	.LBB0_29
.Ltmp43:
.LBB0_12:                               # %if.then16
	#DEBUG_VALUE: quicksort___ieee754_powf:x <- [RBP+-228]
	#DEBUG_VALUE: quicksort___ieee754_powf:y <- [RBP+-240]
	#DEBUG_VALUE: quicksort___ieee754_powf:hx <- R15D
	#DEBUG_VALUE: quicksort___ieee754_powf:hy <- [RBP+-248]
	#DEBUG_VALUE: quicksort___ieee754_powf:ix <- R13D
	#DEBUG_VALUE: quicksort___ieee754_powf:yisint <- 0
	movq	%r13, -256(%rbp)        # 8-byte Spill
.Ltmp44:
	#DEBUG_VALUE: quicksort___ieee754_powf:ix <- [RBP+-256]
	movl	$74, %edi
	callq	_KPushCDep
	movl	$1, %edi
	callq	_KWork
	movl	$10, (%rsp)
	movl	$73, %edi
	movl	$1, %esi
	movl	$8, %edx
	movl	$3, %ecx
	movl	$5, %r8d
	movl	$4, %r9d
	callq	_KTimestamp3
	callq	_KPopCDep
	movl	$73, %edi
	callq	_KPushCDep
	.loc	1 125 10                # quicksortlibm.c:125:10
.Ltmp45:
	cmpl	$1266679808, %r14d      # imm = 0x4B800000
	jb	.LBB0_14
.Ltmp46:
# BB#13:                                # %if.then18
	#DEBUG_VALUE: quicksort___ieee754_powf:x <- [RBP+-228]
	#DEBUG_VALUE: quicksort___ieee754_powf:y <- [RBP+-240]
	#DEBUG_VALUE: quicksort___ieee754_powf:hx <- R15D
	#DEBUG_VALUE: quicksort___ieee754_powf:hy <- [RBP+-248]
	#DEBUG_VALUE: quicksort___ieee754_powf:ix <- [RBP+-256]
	#DEBUG_VALUE: quicksort___ieee754_powf:yisint <- 2
	movl	%r15d, -264(%rbp)       # 4-byte Spill
.Ltmp47:
	#DEBUG_VALUE: quicksort___ieee754_powf:hx <- [RBP+-264]
	xorl	%ebx, %ebx
	callq	_KPopCDep
	movl	$2, -268(%rbp)          # 4-byte Folded Spill
	xorl	%r13d, %r13d
	movl	$73, %r12d
	xorl	%r15d, %r15d
	jmp	.LBB0_20
.LBB0_14:                               # %if.else
	#DEBUG_VALUE: quicksort___ieee754_powf:x <- [RBP+-228]
	#DEBUG_VALUE: quicksort___ieee754_powf:y <- [RBP+-240]
.Ltmp48:
	#DEBUG_VALUE: quicksort___ieee754_powf:hx <- R15D
	#DEBUG_VALUE: quicksort___ieee754_powf:hy <- [RBP+-248]
	#DEBUG_VALUE: quicksort___ieee754_powf:ix <- [RBP+-256]
	#DEBUG_VALUE: quicksort___ieee754_powf:yisint <- 0
	movl	$1, %edi
	callq	_KWork
	movl	$11, (%rsp)
	movl	$72, %edi
	movl	$1, %esi
	movl	$9, %edx
	movl	$3, %ecx
	movl	$6, %r8d
	movl	$4, %r9d
	callq	_KTimestamp3
	callq	_KPopCDep
	.loc	1 128 12                # quicksortlibm.c:128:12
.Ltmp49:
	cmpl	$1065353216, %r14d      # imm = 0x3F800000
	jb	.LBB0_15
.Ltmp50:
# BB#16:                                # %if.then20
	#DEBUG_VALUE: quicksort___ieee754_powf:x <- [RBP+-228]
	#DEBUG_VALUE: quicksort___ieee754_powf:y <- [RBP+-240]
	#DEBUG_VALUE: quicksort___ieee754_powf:hx <- R15D
	#DEBUG_VALUE: quicksort___ieee754_powf:hy <- [RBP+-248]
	#DEBUG_VALUE: quicksort___ieee754_powf:ix <- [RBP+-256]
	#DEBUG_VALUE: quicksort___ieee754_powf:yisint <- 0
	movl	%r15d, -264(%rbp)       # 4-byte Spill
.Ltmp51:
	#DEBUG_VALUE: quicksort___ieee754_powf:hx <- [RBP+-264]
	movl	$72, %edi
	callq	_KPushCDep
	movl	$7, %edi
	callq	_KWork
	.loc	1 129 15                # quicksortlibm.c:129:15
.Ltmp52:
	movl	%r14d, %eax
	shrl	$23, %eax
	movl	$150, %ecx
	.loc	1 130 21                # quicksortlibm.c:130:21
	subl	%eax, %ecx
	.loc	1 130 13 is_stmt 0      # quicksortlibm.c:130:13
	movl	%r14d, %r12d
	shrl	%cl, %r12d
.Ltmp53:
	#DEBUG_VALUE: quicksort___ieee754_powf:j <- R12D
	.loc	1 132 16 is_stmt 1      # quicksortlibm.c:132:16
	movl	%r12d, %r15d
                                        # kill: CL<def> CL<kill> ECX<kill>
	shll	%cl, %r15d
	movl	$17, (%rsp)
	movl	$71, %edi
	movl	$1, %esi
	movl	$15, %edx
	movl	$3, %ecx
	movl	$12, %r8d
	movl	$4, %r9d
	callq	_KTimestamp3
	callq	_KPopCDep
.Ltmp54:
	.loc	1 132 14 is_stmt 0      # quicksortlibm.c:132:14
	cmpl	%r14d, %r15d
	jne	.LBB0_17
.Ltmp55:
# BB#18:                                # %if.then25
	#DEBUG_VALUE: quicksort___ieee754_powf:x <- [RBP+-228]
	#DEBUG_VALUE: quicksort___ieee754_powf:y <- [RBP+-240]
	#DEBUG_VALUE: quicksort___ieee754_powf:hx <- [RBP+-264]
	#DEBUG_VALUE: quicksort___ieee754_powf:hy <- [RBP+-248]
	#DEBUG_VALUE: quicksort___ieee754_powf:ix <- [RBP+-256]
	#DEBUG_VALUE: quicksort___ieee754_powf:yisint <- 0
	#DEBUG_VALUE: quicksort___ieee754_powf:j <- R12D
	movl	$71, %r15d
	movl	$71, %edi
	callq	_KPushCDep
	movl	$2, %ebx
	movl	$2, %edi
	callq	_KWork
	.loc	1 133 26 is_stmt 1      # quicksortlibm.c:133:26
.Ltmp56:
	andl	$1, %r12d
.Ltmp57:
	.loc	1 133 20 is_stmt 0      # quicksortlibm.c:133:20
	subl	%r12d, %ebx
.Ltmp58:
	#DEBUG_VALUE: quicksort___ieee754_powf:yisint <- EBX
	movl	%ebx, -268(%rbp)        # 4-byte Spill
.Ltmp59:
	#DEBUG_VALUE: quicksort___ieee754_powf:yisint <- [RBP+-268]
	movl	$19, (%rsp)
	movl	$70, %ebx
	movl	$70, %edi
	movl	$1, %esi
	movl	$17, %edx
	movl	$3, %ecx
	movl	$14, %r8d
	movl	$4, %r9d
	callq	_KTimestamp3
	callq	_KPopCDep
	jmp	.LBB0_19
.Ltmp60:
.LBB0_15:
	#DEBUG_VALUE: quicksort___ieee754_powf:x <- [RBP+-228]
	#DEBUG_VALUE: quicksort___ieee754_powf:y <- [RBP+-240]
	#DEBUG_VALUE: quicksort___ieee754_powf:hx <- R15D
	#DEBUG_VALUE: quicksort___ieee754_powf:hy <- [RBP+-248]
	#DEBUG_VALUE: quicksort___ieee754_powf:ix <- [RBP+-256]
	#DEBUG_VALUE: quicksort___ieee754_powf:yisint <- 0
	movl	%r15d, -264(%rbp)       # 4-byte Spill
.Ltmp61:
	#DEBUG_VALUE: quicksort___ieee754_powf:hx <- [RBP+-264]
	movl	$72, %r13d
	xorl	%ebx, %ebx
	xorl	%r15d, %r15d
	movl	$0, -268(%rbp)          # 4-byte Folded Spill
	movl	$73, %r12d
	jmp	.LBB0_20
.LBB0_17:
	#DEBUG_VALUE: quicksort___ieee754_powf:x <- [RBP+-228]
	#DEBUG_VALUE: quicksort___ieee754_powf:y <- [RBP+-240]
	#DEBUG_VALUE: quicksort___ieee754_powf:hx <- [RBP+-264]
	#DEBUG_VALUE: quicksort___ieee754_powf:hy <- [RBP+-248]
	#DEBUG_VALUE: quicksort___ieee754_powf:ix <- [RBP+-256]
	#DEBUG_VALUE: quicksort___ieee754_powf:yisint <- 0
	movl	$71, %r15d
	xorl	%ebx, %ebx
	movl	$0, -268(%rbp)          # 4-byte Folded Spill
.LBB0_19:                               # %if.end31
	movl	$73, %r12d
	movl	$72, %r13d
.LBB0_20:                               # %if.end31
	#DEBUG_VALUE: quicksort___ieee754_powf:x <- [RBP+-228]
	#DEBUG_VALUE: quicksort___ieee754_powf:y <- [RBP+-240]
	#DEBUG_VALUE: quicksort___ieee754_powf:hx <- [RBP+-264]
	#DEBUG_VALUE: quicksort___ieee754_powf:hy <- [RBP+-248]
	#DEBUG_VALUE: quicksort___ieee754_powf:ix <- [RBP+-256]
	#DEBUG_VALUE: quicksort___ieee754_powf:yisint <- 0
	movl	$75, %edi
	callq	_KPushCDep
	movl	$75, 8(%rsp)
	movl	$74, (%rsp)
	movl	$9, %edi
	movl	$5, %edx
	xorl	%eax, %eax
	movl	%ebx, %esi
	movl	%r13d, %r8d
	movl	%r12d, %r9d
	movl	%r15d, %ecx
	callq	_KPhi
	movl	$1, %edi
	callq	_KWork
	movl	$9, (%rsp)
	movl	$132, %edi
	movl	$1, %esi
	movl	$7, %edx
	movl	$3, %ecx
	movl	$4, %r8d
	movl	$4, %r9d
	callq	_KTimestamp3
	callq	_KPopCDep
	movl	$132, %edi
	callq	_KPushCDep
	movl	$1, %edi
	callq	_KWork
	.loc	1 138 8 is_stmt 1       # quicksortlibm.c:138:8
	cmpl	$2139095040, %r14d      # imm = 0x7F800000
	jne	.LBB0_33
# BB#21:                                # %if.then33
	#DEBUG_VALUE: quicksort___ieee754_powf:y <- [RBP+-240]
	#DEBUG_VALUE: quicksort___ieee754_powf:hy <- [RBP+-248]
	#DEBUG_VALUE: quicksort___ieee754_powf:ix <- [RBP+-256]
	#DEBUG_VALUE: quicksort___ieee754_powf:yisint <- 0
	movl	$10, (%rsp)
	movl	$131, %r12d
	movl	$131, %edi
	movl	$1, %esi
	movl	$8, %edx
	movl	$3, %ecx
	movl	$5, %r8d
	movl	$4, %r9d
	callq	_KTimestamp3
	callq	_KPopCDep
	movl	$131, %edi
	callq	_KPushCDep
	movq	-256(%rbp), %rbx        # 8-byte Reload
.Ltmp62:
	#DEBUG_VALUE: quicksort___ieee754_powf:ix <- EBX
	.loc	1 139 10                # quicksortlibm.c:139:10
	cmpl	$1065353216, %ebx       # imm = 0x3F800000
	jne	.LBB0_23
.Ltmp63:
# BB#22:                                # %if.then35
	#DEBUG_VALUE: quicksort___ieee754_powf:y <- [RBP+-240]
	#DEBUG_VALUE: quicksort___ieee754_powf:yisint <- 0
	movl	$2, %edi
	callq	_KWork
.Ltmp64:
	#DEBUG_VALUE: quicksort___ieee754_powf:y <- undef
	.loc	1 140 15                # quicksortlibm.c:140:15
	movss	-240(%rbp), %xmm0       # 4-byte Reload
	subss	%xmm0, %xmm0
	movss	%xmm0, -240(%rbp)       # 4-byte Spill
	movl	$12, 16(%rsp)
	movl	$4, 8(%rsp)
	movl	$7, (%rsp)
	movl	$117, %edi
	movl	$2, %esi
	movl	$2, %edx
	movl	$1, %ecx
	movl	$10, %r8d
	movl	$3, %r9d
	callq	_KTimestamp4
	callq	_KPopCDep
	movl	$117, %eax
	movq	%rax, -248(%rbp)        # 8-byte Spill
	movl	$132, %r9d
	xorl	%eax, %eax
	movq	%rax, -296(%rbp)        # 8-byte Spill
	movl	$75, %eax
	movq	%rax, -264(%rbp)        # 8-byte Spill
	movl	$142, -268(%rbp)        # 4-byte Folded Spill
	movl	$143, -256(%rbp)        # 4-byte Folded Spill
	movl	$0, %r11d
	movl	$0, %r10d
	movl	$0, %esi
	movl	$0, %eax
	movq	%rax, -304(%rbp)        # 8-byte Spill
	movl	$0, %edi
	movl	$0, %eax
	movl	$0, %r13d
	movl	$0, %ecx
	movq	%rcx, -280(%rbp)        # 8-byte Spill
	movl	$0, %ecx
	movq	%rcx, -288(%rbp)        # 8-byte Spill
	movss	-240(%rbp), %xmm0       # 4-byte Reload
	movss	%xmm0, -228(%rbp)       # 4-byte Spill
	movl	$0, %r15d
	movl	$0, %r14d
	jmp	.LBB0_27
.Ltmp65:
.LBB0_33:                               # %if.end48
	#DEBUG_VALUE: quicksort___ieee754_powf:x <- [RBP+-228]
	#DEBUG_VALUE: quicksort___ieee754_powf:y <- [RBP+-240]
	#DEBUG_VALUE: quicksort___ieee754_powf:hx <- [RBP+-264]
	#DEBUG_VALUE: quicksort___ieee754_powf:hy <- [RBP+-248]
	#DEBUG_VALUE: quicksort___ieee754_powf:ix <- [RBP+-256]
	#DEBUG_VALUE: quicksort___ieee754_powf:yisint <- 0
	movl	$10, (%rsp)
	movl	$130, %edi
	movl	$1, %esi
	movl	$8, %edx
	movl	$3, %ecx
	movl	$5, %r8d
	movl	$4, %r9d
	callq	_KTimestamp3
	callq	_KPopCDep
	movl	$130, %edi
	callq	_KPushCDep
	movl	$1, %edi
	callq	_KWork
	.loc	1 147 8                 # quicksortlibm.c:147:8
	cmpl	$1065353216, %r14d      # imm = 0x3F800000
	jne	.LBB0_37
# BB#34:                                # %if.then50
	#DEBUG_VALUE: quicksort___ieee754_powf:x <- [RBP+-228]
	#DEBUG_VALUE: quicksort___ieee754_powf:hy <- [RBP+-248]
	#DEBUG_VALUE: quicksort___ieee754_powf:yisint <- 0
	movl	$11, (%rsp)
	movl	$129, %ebx
	movl	$129, %edi
	movl	$1, %esi
	movl	$9, %edx
	movl	$3, %ecx
	movl	$6, %r8d
	movl	$4, %r9d
	callq	_KTimestamp3
	callq	_KPopCDep
	movl	$129, %edi
	callq	_KPushCDep
	.loc	1 148 10                # quicksortlibm.c:148:10
.Ltmp66:
	cmpl	$0, -248(%rbp)          # 4-byte Folded Reload
	js	.LBB0_35
# BB#36:                                # %if.else53
	#DEBUG_VALUE: quicksort___ieee754_powf:x <- [RBP+-228]
	#DEBUG_VALUE: quicksort___ieee754_powf:yisint <- 0
	callq	_KPopCDep
	movl	$130, %eax
	movq	%rax, -240(%rbp)        # 8-byte Spill
	movl	$132, %r9d
	xorl	%eax, %eax
	movq	%rax, -296(%rbp)        # 8-byte Spill
	movl	$75, %eax
	movq	%rax, -264(%rbp)        # 8-byte Spill
	movl	$142, -268(%rbp)        # 4-byte Folded Spill
	movl	$143, -256(%rbp)        # 4-byte Folded Spill
	movl	$0, %r11d
	movl	$0, %r10d
	movl	$0, %esi
	movl	$0, %eax
	movq	%rax, -304(%rbp)        # 8-byte Spill
	movl	$0, %edi
	movl	$0, %eax
	movl	$0, %r13d
	movl	$0, %ecx
	movq	%rcx, -280(%rbp)        # 8-byte Spill
	movl	$0, %ecx
	movq	%rcx, -288(%rbp)        # 8-byte Spill
	movl	$0, %r12d
	movl	$0, %r15d
	xorl	%r14d, %r14d
	xorl	%r8d, %r8d
	xorl	%ecx, %ecx
	movl	$1, %edx
	.loc	1 151 7                 # quicksortlibm.c:151:7
.Ltmp67:
	movq	%rdx, -248(%rbp)        # 8-byte Spill
	jmp	.LBB0_105
.Ltmp68:
.LBB0_23:                               # %if.else37
	#DEBUG_VALUE: quicksort___ieee754_powf:y <- [RBP+-240]
	#DEBUG_VALUE: quicksort___ieee754_powf:hy <- [RBP+-248]
	#DEBUG_VALUE: quicksort___ieee754_powf:ix <- EBX
	#DEBUG_VALUE: quicksort___ieee754_powf:yisint <- 0
	movl	$1, %edi
	callq	_KWork
	movl	$11, (%rsp)
	movl	$78, %edi
	movl	$1, %esi
	movl	$9, %edx
	movl	$3, %ecx
	movl	$6, %r8d
	movl	$4, %r9d
	callq	_KTimestamp3
	callq	_KPopCDep
	movl	$78, %edi
	callq	_KPushCDep
	movl	$1, %edi
	callq	_KWork
	.loc	1 142 12                # quicksortlibm.c:142:12
.Ltmp69:
	cmpl	$1065353217, %ebx       # imm = 0x3F800001
	jb	.LBB0_30
.Ltmp70:
# BB#24:                                # %if.then39
	#DEBUG_VALUE: quicksort___ieee754_powf:y <- [RBP+-240]
	#DEBUG_VALUE: quicksort___ieee754_powf:hy <- [RBP+-248]
	#DEBUG_VALUE: quicksort___ieee754_powf:yisint <- 0
	.loc	1 143 19                # quicksortlibm.c:143:19
	cmpl	$0, -248(%rbp)          # 4-byte Folded Reload
	jns	.LBB0_26
.Ltmp71:
# BB#25:                                # %if.then39
	#DEBUG_VALUE: quicksort___ieee754_powf:yisint <- 0
	xorps	%xmm0, %xmm0
	movss	%xmm0, -240(%rbp)       # 4-byte Spill
.LBB0_26:                               # %if.then39
	#DEBUG_VALUE: quicksort___ieee754_powf:yisint <- 0
	movl	$12, 16(%rsp)
	movl	$4, 8(%rsp)
	movl	$7, (%rsp)
	movl	$118, %edi
	movl	$2, %esi
	xorl	%edx, %edx
	movl	$1, %ecx
	movl	$10, %r8d
	movl	$3, %r9d
	callq	_KTimestamp4
	callq	_KPopCDep
	movl	$118, %eax
	movq	%rax, -248(%rbp)        # 8-byte Spill
	xorl	%eax, %eax
	movq	%rax, -296(%rbp)        # 8-byte Spill
	movl	$78, %r14d
	movl	$131, %r12d
	movl	$132, %r9d
	movl	$75, %eax
	movq	%rax, -264(%rbp)        # 8-byte Spill
	movl	$142, -268(%rbp)        # 4-byte Folded Spill
	movl	$143, -256(%rbp)        # 4-byte Folded Spill
	movl	$0, %r11d
	movl	$0, %r10d
	movl	$0, %esi
	movl	$0, %eax
	movq	%rax, -304(%rbp)        # 8-byte Spill
	movl	$0, %edi
	movl	$0, %eax
	movl	$0, %r13d
	movl	$0, %ecx
	movq	%rcx, -280(%rbp)        # 8-byte Spill
	movss	-240(%rbp), %xmm0       # 4-byte Reload
	movss	%xmm0, -228(%rbp)       # 4-byte Spill
	movl	$0, %ecx
	movq	%rcx, -288(%rbp)        # 8-byte Spill
	movl	$0, %r15d
.LBB0_27:                               # %return
	movl	$0, %ecx
	movq	%rcx, -240(%rbp)        # 8-byte Spill
.LBB0_28:                               # %return
	movl	$0, %ebx
	jmp	.LBB0_29
.LBB0_37:                               # %if.end54
	#DEBUG_VALUE: quicksort___ieee754_powf:x <- [RBP+-228]
	#DEBUG_VALUE: quicksort___ieee754_powf:y <- [RBP+-240]
	#DEBUG_VALUE: quicksort___ieee754_powf:hx <- [RBP+-264]
	#DEBUG_VALUE: quicksort___ieee754_powf:hy <- [RBP+-248]
.Ltmp72:
	#DEBUG_VALUE: quicksort___ieee754_powf:ix <- [RBP+-256]
	#DEBUG_VALUE: quicksort___ieee754_powf:yisint <- 0
	movl	$11, (%rsp)
	movl	$135, %edi
	movl	$1, %esi
	movl	$9, %edx
	movl	$3, %ecx
	movl	$6, %r8d
	movl	$4, %r9d
	callq	_KTimestamp3
	callq	_KPopCDep
	movl	$135, %edi
	callq	_KPushCDep
	movl	-248(%rbp), %ebx        # 4-byte Reload
.Ltmp73:
	#DEBUG_VALUE: quicksort___ieee754_powf:hy <- EBX
	.loc	1 153 8                 # quicksortlibm.c:153:8
	cmpl	$1073741824, %ebx       # imm = 0x40000000
	jne	.LBB0_40
.Ltmp74:
# BB#38:                                # %if.then56
	#DEBUG_VALUE: quicksort___ieee754_powf:x <- [RBP+-228]
	#DEBUG_VALUE: quicksort___ieee754_powf:yisint <- 0
	movl	$5, %edi
	callq	_KWork
.Ltmp75:
	#DEBUG_VALUE: quicksort___ieee754_powf:x <- undef
	.loc	1 154 13                # quicksortlibm.c:154:13
	movss	-228(%rbp), %xmm0       # 4-byte Reload
	mulss	%xmm0, %xmm0
	movss	%xmm0, -228(%rbp)       # 4-byte Spill
	movl	$16, (%rsp)
	movl	$120, %edi
	movl	$1, %esi
	movl	$14, %edx
	movl	$3, %ecx
	movl	$11, %r8d
	movl	$4, %r9d
	callq	_KTimestamp3
	callq	_KPopCDep
	movl	$120, %eax
	movq	%rax, -248(%rbp)        # 8-byte Spill
	movl	$130, %eax
	movq	%rax, -240(%rbp)        # 8-byte Spill
	movl	$132, %r9d
	xorl	%eax, %eax
	movq	%rax, -296(%rbp)        # 8-byte Spill
	movl	$75, %eax
	movq	%rax, -264(%rbp)        # 8-byte Spill
	movl	$142, -268(%rbp)        # 4-byte Folded Spill
	movl	$143, -256(%rbp)        # 4-byte Folded Spill
	movl	$0, %r11d
	movl	$0, %r10d
	movl	$0, %esi
	movl	$0, %eax
	movq	%rax, -304(%rbp)        # 8-byte Spill
	movl	$0, %edi
	movl	$0, %eax
	movl	$0, %r13d
	movl	$0, %ecx
	movq	%rcx, -288(%rbp)        # 8-byte Spill
	movl	$135, %ecx
	movq	%rcx, -280(%rbp)        # 8-byte Spill
	movl	$0, %r12d
	movl	$0, %r15d
	movl	$0, %r14d
	xorl	%ebx, %ebx
	jmp	.LBB0_29
.Ltmp76:
.LBB0_30:                               # %if.else41
	#DEBUG_VALUE: quicksort___ieee754_powf:y <- [RBP+-240]
	#DEBUG_VALUE: quicksort___ieee754_powf:hy <- [RBP+-248]
	#DEBUG_VALUE: quicksort___ieee754_powf:yisint <- 0
	movl	$12, (%rsp)
	movl	$79, %edi
	movl	$1, %esi
	movl	$10, %edx
	movl	$3, %ecx
	movl	$7, %r8d
	movl	$4, %r9d
	callq	_KTimestamp3
	callq	_KPopCDep
	xorps	%xmm0, %xmm0
	.loc	1 145 17                # quicksortlibm.c:145:17
.Ltmp77:
	cmpl	$0, -248(%rbp)          # 4-byte Folded Reload
	movl	$0, %ebx
	jns	.LBB0_32
# BB#31:                                # %cond.true43
	#DEBUG_VALUE: quicksort___ieee754_powf:y <- [RBP+-240]
	#DEBUG_VALUE: quicksort___ieee754_powf:yisint <- 0
	movl	$79, %edi
	callq	_KPushCDep
	movl	$2, %edi
	callq	_KWork
.Ltmp78:
	#DEBUG_VALUE: quicksort___ieee754_powf:y <- undef
	.loc	1 145 30 is_stmt 0      # quicksortlibm.c:145:30
	movss	-240(%rbp), %xmm0       # 4-byte Reload
	xorps	.LCPI0_2(%rip), %xmm0
	movss	%xmm0, -240(%rbp)       # 4-byte Spill
	movl	$14, 16(%rsp)
	movl	$4, 8(%rsp)
	movl	$9, (%rsp)
	movl	$77, %ebx
	movl	$77, %edi
	movl	$2, %esi
	movl	$2, %edx
	movl	$1, %ecx
	movl	$12, %r8d
	movl	$3, %r9d
	callq	_KTimestamp4
	callq	_KPopCDep
	.loc	1 145 17                # quicksortlibm.c:145:17
	movss	-240(%rbp), %xmm0       # 4-byte Reload
.LBB0_32:                               # %cond.end46
	#DEBUG_VALUE: quicksort___ieee754_powf:yisint <- 0
	movss	%xmm0, -228(%rbp)       # 4-byte Spill
	movl	$78, %r14d
	movl	$78, %edi
	callq	_KPushCDep
	movl	$76, %edi
	movl	$76, %esi
	xorl	%edx, %edx
	callq	_KTimestamp1
	movl	$76, %edi
	movl	$78, %edx
	movl	$79, %ecx
	movl	%ebx, %esi
	callq	_KPhi2To1
	callq	_KPopCDep
	movl	$76, %eax
	movq	%rax, -248(%rbp)        # 8-byte Spill
	movl	$131, %r12d
	movl	$132, %r9d
	movl	$75, %eax
	movq	%rax, -264(%rbp)        # 8-byte Spill
	movl	$142, -268(%rbp)        # 4-byte Folded Spill
	movl	$143, -256(%rbp)        # 4-byte Folded Spill
	movl	$0, %r11d
	movl	$0, %r10d
	movl	$0, %esi
	movl	$0, %eax
	movq	%rax, -304(%rbp)        # 8-byte Spill
	movl	$0, %edi
	movl	$0, %eax
	movl	$0, %r13d
	movl	$0, %ecx
	movq	%rcx, -280(%rbp)        # 8-byte Spill
	movl	$0, %ecx
	movq	%rcx, -288(%rbp)        # 8-byte Spill
	movl	$0, %r15d
	movl	$0, %ecx
	movq	%rcx, -240(%rbp)        # 8-byte Spill
	movl	$0, %ebx
	xorl	%r8d, %r8d
	xorl	%ecx, %ecx
	xorl	%edx, %edx
	.loc	1 145 9 discriminator 4 # quicksortlibm.c:145:9
.Ltmp79:
	movq	%rdx, -296(%rbp)        # 8-byte Spill
	jmp	.LBB0_105
.Ltmp80:
.LBB0_40:                               # %if.end57
	#DEBUG_VALUE: quicksort___ieee754_powf:x <- [RBP+-228]
	#DEBUG_VALUE: quicksort___ieee754_powf:y <- [RBP+-240]
	#DEBUG_VALUE: quicksort___ieee754_powf:hx <- [RBP+-264]
	#DEBUG_VALUE: quicksort___ieee754_powf:hy <- EBX
	#DEBUG_VALUE: quicksort___ieee754_powf:ix <- [RBP+-256]
	#DEBUG_VALUE: quicksort___ieee754_powf:yisint <- 0
	movl	$3, %edi
	callq	_KWork
	movl	$13, (%rsp)
	movl	$134, %edi
	movl	$1, %esi
	movl	$11, %edx
	movl	$3, %ecx
	movl	$8, %r8d
	movl	$4, %r9d
	callq	_KTimestamp3
	callq	_KPopCDep
	movl	$134, %edi
	callq	_KPushCDep
	movl	-264(%rbp), %r15d       # 4-byte Reload
.Ltmp81:
	#DEBUG_VALUE: quicksort___ieee754_powf:hx <- R15D
	.loc	1 155 8 is_stmt 1       # quicksortlibm.c:155:8
	testl	%r15d, %r15d
	js	.LBB0_43
.Ltmp82:
# BB#41:                                # %if.end57
	#DEBUG_VALUE: quicksort___ieee754_powf:x <- [RBP+-228]
	#DEBUG_VALUE: quicksort___ieee754_powf:y <- [RBP+-240]
	#DEBUG_VALUE: quicksort___ieee754_powf:hx <- R15D
	#DEBUG_VALUE: quicksort___ieee754_powf:hy <- EBX
	#DEBUG_VALUE: quicksort___ieee754_powf:ix <- [RBP+-256]
	#DEBUG_VALUE: quicksort___ieee754_powf:yisint <- 0
	cmpl	$1056964608, %ebx       # imm = 0x3F000000
	jne	.LBB0_43
.Ltmp83:
# BB#42:                                # %if.then61
	#DEBUG_VALUE: quicksort___ieee754_powf:x <- [RBP+-228]
	#DEBUG_VALUE: quicksort___ieee754_powf:yisint <- 0
	movabsq	$7984418816823092843, %rdi # imm = 0x6ECE5A9C52AF666B
	xorl	%esi, %esi
	callq	_KPrepCall
	movl	$1, %edi
	callq	_KEnqArg
	movl	$6, %edi
	callq	_KLinkReturn
	.loc	1 157 15                # quicksortlibm.c:157:15
.Ltmp84:
	movss	-228(%rbp), %xmm0       # 4-byte Reload
	callq	quicksort___ieee754_sqrtf
	movss	%xmm0, -228(%rbp)       # 4-byte Spill
	movl	$6, %edi
	movl	$6, %esi
	xorl	%edx, %edx
	callq	_KTimestamp1
	callq	_KPopCDep
	movl	$6, %eax
	movq	%rax, -248(%rbp)        # 8-byte Spill
	xorl	%eax, %eax
	movq	%rax, -296(%rbp)        # 8-byte Spill
	movl	$130, %eax
	movq	%rax, -240(%rbp)        # 8-byte Spill
	movl	$132, %r9d
	movl	$134, %eax
	movq	%rax, -288(%rbp)        # 8-byte Spill
	movl	$135, %eax
	movq	%rax, -280(%rbp)        # 8-byte Spill
	movl	$75, %eax
	movq	%rax, -264(%rbp)        # 8-byte Spill
	movl	$142, -268(%rbp)        # 4-byte Folded Spill
	movl	$143, -256(%rbp)        # 4-byte Folded Spill
	movl	$0, %r11d
	movl	$0, %r10d
	movl	$0, %esi
	movl	$0, %eax
	movq	%rax, -304(%rbp)        # 8-byte Spill
	movl	$0, %edi
	movl	$0, %eax
	movl	$0, %r13d
	movl	$0, %r12d
	movl	$0, %r15d
	movl	$0, %r14d
	jmp	.LBB0_28
.Ltmp85:
.LBB0_35:                               # %if.then52
	#DEBUG_VALUE: quicksort___ieee754_powf:x <- [RBP+-228]
	#DEBUG_VALUE: quicksort___ieee754_powf:yisint <- 0
	movl	$20, %edi
	callq	_KWork
	movss	.LCPI0_0(%rip), %xmm0
	.loc	1 149 15                # quicksortlibm.c:149:15
.Ltmp86:
	divss	-228(%rbp), %xmm0       # 4-byte Folded Reload
	movss	%xmm0, -228(%rbp)       # 4-byte Spill
	movl	$31, (%rsp)
	movl	$119, %edi
	movl	$1, %esi
	movl	$29, %edx
	movl	$3, %ecx
	movl	$26, %r8d
	movl	$4, %r9d
	callq	_KTimestamp3
	callq	_KPopCDep
	movl	$119, %eax
	movq	%rax, -248(%rbp)        # 8-byte Spill
	movl	$130, %eax
	movq	%rax, -240(%rbp)        # 8-byte Spill
	movl	$132, %r9d
	xorl	%eax, %eax
	movq	%rax, -296(%rbp)        # 8-byte Spill
	movl	$75, %eax
	movq	%rax, -264(%rbp)        # 8-byte Spill
	movl	$142, -268(%rbp)        # 4-byte Folded Spill
	movl	$143, -256(%rbp)        # 4-byte Folded Spill
	movl	$0, %r11d
	movl	$0, %r10d
	movl	$0, %esi
	movl	$0, %eax
	movq	%rax, -304(%rbp)        # 8-byte Spill
	movl	$0, %edi
	movl	$0, %eax
	movl	$0, %r13d
	movl	$0, %ecx
	movq	%rcx, -280(%rbp)        # 8-byte Spill
	movl	$0, %ecx
	movq	%rcx, -288(%rbp)        # 8-byte Spill
	movl	$0, %r12d
	movl	$0, %r15d
	movl	$0, %r14d
.Ltmp87:
.LBB0_29:                               # %return
	xorl	%r8d, %r8d
	xorl	%ecx, %ecx
.LBB0_105:                              # %return
	movl	-256(%rbp), %edx        # 4-byte Reload
	movl	%edx, 144(%rsp)
	movl	-268(%rbp), %edx        # 4-byte Reload
	movl	%edx, 136(%rsp)
	movq	-264(%rbp), %rdx        # 8-byte Reload
	movl	%edx, 128(%rsp)
	movq	-296(%rbp), %rdx        # 8-byte Reload
	movl	%edx, 120(%rsp)
	movl	%r11d, 112(%rsp)
	movl	%r10d, 104(%rsp)
	movl	%esi, 96(%rsp)
	movq	-304(%rbp), %rdx        # 8-byte Reload
	movl	%edx, 88(%rsp)
	movl	%r15d, 80(%rsp)
	movl	%edi, 72(%rsp)
	movl	%eax, 64(%rsp)
	movl	%r13d, 56(%rsp)
	movq	-280(%rbp), %rax        # 8-byte Reload
	movl	%eax, 48(%rsp)
	movq	-288(%rbp), %rax        # 8-byte Reload
	movl	%eax, 40(%rsp)
	movl	%r9d, 24(%rsp)
	movl	%r12d, 16(%rsp)
	movl	%r14d, 8(%rsp)
	movq	-240(%rbp), %rax        # 8-byte Reload
	movl	%eax, (%rsp)
	movl	$133, 32(%rsp)
	movl	$69, %edi
	movl	$22, %edx
	xorl	%eax, %eax
	movq	-248(%rbp), %rsi        # 8-byte Reload
                                        # kill: ESI<def> ESI<kill> RSI<kill>
                                        # kill: R8D<def> R8D<kill> R8<kill>
	movl	%ebx, %r9d
                                        # kill: ECX<def> ECX<kill> RCX<kill>
	callq	_KPhi
	movl	$69, %edi
	movl	$69, %esi
	xorl	%edx, %edx
	callq	_KTimestamp1
	movl	$69, %edi
	callq	_KReturn
	xorl	%esi, %esi
	movabsq	$-1090793993995395279, %rdi # imm = 0xF0DCB8A448C65F31
	callq	_KExitRegion
	.loc	1 338 1                 # quicksortlibm.c:338:1
	movss	-228(%rbp), %xmm0       # 4-byte Reload
	addq	$504, %rsp              # imm = 0x1F8
	popq	%rbx
	popq	%r12
	popq	%r13
	popq	%r14
	popq	%r15
	popq	%rbp
	retq
.LBB0_43:                               # %if.end64
	#DEBUG_VALUE: quicksort___ieee754_powf:x <- [RBP+-228]
	#DEBUG_VALUE: quicksort___ieee754_powf:y <- [RBP+-240]
.Ltmp88:
	#DEBUG_VALUE: quicksort___ieee754_powf:hx <- R15D
	#DEBUG_VALUE: quicksort___ieee754_powf:hy <- EBX
	#DEBUG_VALUE: quicksort___ieee754_powf:ix <- [RBP+-256]
	#DEBUG_VALUE: quicksort___ieee754_powf:yisint <- 0
	movabsq	$-3276319656046235850, %rdi # imm = 0xD2882CA1AABBEF36
	xorl	%esi, %esi
	callq	_KPrepCall
	movl	$1, %edi
	callq	_KEnqArg
	movl	$7, %edi
	callq	_KLinkReturn
	movl	$5, %edi
	callq	_KWork
	.loc	1 160 8                 # quicksortlibm.c:160:8
	movss	-228(%rbp), %xmm0       # 4-byte Reload
	callq	quicksort___fabsf
	movss	%xmm0, -280(%rbp)       # 4-byte Spill
.Ltmp89:
	#DEBUG_VALUE: quicksort___ieee754_powf:ax <- [RBP+-280]
	#DEBUG_VALUE: quicksort___ieee754_powf:z <- [RBP+-280]
	movl	$16, (%rsp)
	movl	$82, %edi
	movl	$1, %esi
	movl	$14, %edx
	movl	$3, %ecx
	movl	$11, %r8d
	movl	$4, %r9d
	callq	_KTimestamp3
	movl	$7, %edi
	movl	$7, %esi
	xorl	%edx, %edx
	callq	_KTimestamp1
	callq	_KPopCDep
	.loc	1 162 8                 # quicksortlibm.c:162:8
	cmpl	$2139095039, %r15d      # imm = 0x7F7FFFFF
	jg	.LBB0_53
.Ltmp90:
# BB#44:                                # %if.end64
	#DEBUG_VALUE: quicksort___ieee754_powf:x <- [RBP+-228]
	#DEBUG_VALUE: quicksort___ieee754_powf:y <- [RBP+-240]
	#DEBUG_VALUE: quicksort___ieee754_powf:hx <- R15D
	#DEBUG_VALUE: quicksort___ieee754_powf:hy <- EBX
	#DEBUG_VALUE: quicksort___ieee754_powf:ix <- [RBP+-256]
	#DEBUG_VALUE: quicksort___ieee754_powf:yisint <- 0
	#DEBUG_VALUE: quicksort___ieee754_powf:z <- [RBP+-280]
	#DEBUG_VALUE: quicksort___ieee754_powf:ax <- [RBP+-280]
	cmpl	$-1082130433, %r15d     # imm = 0xFFFFFFFFBF7FFFFF
	movq	-256(%rbp), %r12        # 8-byte Reload
.Ltmp91:
	#DEBUG_VALUE: quicksort___ieee754_powf:ix <- R12D
	jg	.LBB0_46
.Ltmp92:
# BB#45:                                # %if.end64
	#DEBUG_VALUE: quicksort___ieee754_powf:x <- [RBP+-228]
	#DEBUG_VALUE: quicksort___ieee754_powf:y <- [RBP+-240]
	#DEBUG_VALUE: quicksort___ieee754_powf:hx <- R15D
	#DEBUG_VALUE: quicksort___ieee754_powf:hy <- EBX
	#DEBUG_VALUE: quicksort___ieee754_powf:ix <- R12D
	#DEBUG_VALUE: quicksort___ieee754_powf:yisint <- 0
	#DEBUG_VALUE: quicksort___ieee754_powf:z <- [RBP+-280]
	#DEBUG_VALUE: quicksort___ieee754_powf:ax <- [RBP+-280]
	cmpl	$-2147483648, %r15d     # imm = 0xFFFFFFFF80000000
	jne	.LBB0_51
	jmp	.LBB0_54
.Ltmp93:
.LBB0_53:                               # %if.end64
	#DEBUG_VALUE: quicksort___ieee754_powf:x <- [RBP+-228]
	#DEBUG_VALUE: quicksort___ieee754_powf:y <- [RBP+-240]
	#DEBUG_VALUE: quicksort___ieee754_powf:hx <- R15D
	#DEBUG_VALUE: quicksort___ieee754_powf:hy <- EBX
	#DEBUG_VALUE: quicksort___ieee754_powf:ix <- [RBP+-256]
	#DEBUG_VALUE: quicksort___ieee754_powf:yisint <- 0
	#DEBUG_VALUE: quicksort___ieee754_powf:z <- [RBP+-280]
	#DEBUG_VALUE: quicksort___ieee754_powf:ax <- [RBP+-280]
	cmpl	$2139095040, %r15d      # imm = 0x7F800000
	movq	-256(%rbp), %r12        # 8-byte Reload
.Ltmp94:
	#DEBUG_VALUE: quicksort___ieee754_powf:ix <- R12D
	jne	.LBB0_51
	jmp	.LBB0_54
.Ltmp95:
.LBB0_46:                               # %if.end64
	#DEBUG_VALUE: quicksort___ieee754_powf:x <- [RBP+-228]
	#DEBUG_VALUE: quicksort___ieee754_powf:y <- [RBP+-240]
	#DEBUG_VALUE: quicksort___ieee754_powf:hx <- R15D
	#DEBUG_VALUE: quicksort___ieee754_powf:hy <- EBX
	#DEBUG_VALUE: quicksort___ieee754_powf:ix <- R12D
	#DEBUG_VALUE: quicksort___ieee754_powf:yisint <- 0
	#DEBUG_VALUE: quicksort___ieee754_powf:z <- [RBP+-280]
	#DEBUG_VALUE: quicksort___ieee754_powf:ax <- [RBP+-280]
	cmpl	$-8388609, %r15d        # imm = 0xFFFFFFFFFF7FFFFF
	jg	.LBB0_48
.Ltmp96:
# BB#47:                                # %if.end64
	#DEBUG_VALUE: quicksort___ieee754_powf:x <- [RBP+-228]
	#DEBUG_VALUE: quicksort___ieee754_powf:y <- [RBP+-240]
	#DEBUG_VALUE: quicksort___ieee754_powf:hx <- R15D
	#DEBUG_VALUE: quicksort___ieee754_powf:hy <- EBX
	#DEBUG_VALUE: quicksort___ieee754_powf:ix <- R12D
	#DEBUG_VALUE: quicksort___ieee754_powf:yisint <- 0
	#DEBUG_VALUE: quicksort___ieee754_powf:z <- [RBP+-280]
	#DEBUG_VALUE: quicksort___ieee754_powf:ax <- [RBP+-280]
	cmpl	$-1082130432, %r15d     # imm = 0xFFFFFFFFBF800000
	jne	.LBB0_51
	jmp	.LBB0_54
.Ltmp97:
.LBB0_48:                               # %if.end64
	#DEBUG_VALUE: quicksort___ieee754_powf:x <- [RBP+-228]
	#DEBUG_VALUE: quicksort___ieee754_powf:y <- [RBP+-240]
	#DEBUG_VALUE: quicksort___ieee754_powf:hx <- R15D
	#DEBUG_VALUE: quicksort___ieee754_powf:hy <- EBX
	#DEBUG_VALUE: quicksort___ieee754_powf:ix <- R12D
	#DEBUG_VALUE: quicksort___ieee754_powf:yisint <- 0
	#DEBUG_VALUE: quicksort___ieee754_powf:z <- [RBP+-280]
	#DEBUG_VALUE: quicksort___ieee754_powf:ax <- [RBP+-280]
	cmpl	$-8388608, %r15d        # imm = 0xFFFFFFFFFF800000
	je	.LBB0_54
.Ltmp98:
# BB#49:                                # %if.end64
	#DEBUG_VALUE: quicksort___ieee754_powf:x <- [RBP+-228]
	#DEBUG_VALUE: quicksort___ieee754_powf:y <- [RBP+-240]
	#DEBUG_VALUE: quicksort___ieee754_powf:hx <- R15D
	#DEBUG_VALUE: quicksort___ieee754_powf:hy <- EBX
	#DEBUG_VALUE: quicksort___ieee754_powf:ix <- R12D
	#DEBUG_VALUE: quicksort___ieee754_powf:yisint <- 0
	#DEBUG_VALUE: quicksort___ieee754_powf:z <- [RBP+-280]
	#DEBUG_VALUE: quicksort___ieee754_powf:ax <- [RBP+-280]
	testl	%r15d, %r15d
	je	.LBB0_54
.Ltmp99:
# BB#50:                                # %if.end64
	#DEBUG_VALUE: quicksort___ieee754_powf:x <- [RBP+-228]
	#DEBUG_VALUE: quicksort___ieee754_powf:y <- [RBP+-240]
	#DEBUG_VALUE: quicksort___ieee754_powf:hx <- R15D
	#DEBUG_VALUE: quicksort___ieee754_powf:hy <- EBX
	#DEBUG_VALUE: quicksort___ieee754_powf:ix <- R12D
	#DEBUG_VALUE: quicksort___ieee754_powf:yisint <- 0
	#DEBUG_VALUE: quicksort___ieee754_powf:z <- [RBP+-280]
	#DEBUG_VALUE: quicksort___ieee754_powf:ax <- [RBP+-280]
	cmpl	$1065353216, %r15d      # imm = 0x3F800000
	jne	.LBB0_51
.Ltmp100:
.LBB0_54:                               # %if.then71
	#DEBUG_VALUE: quicksort___ieee754_powf:hx <- R15D
	#DEBUG_VALUE: quicksort___ieee754_powf:hy <- EBX
	#DEBUG_VALUE: quicksort___ieee754_powf:ix <- R12D
	#DEBUG_VALUE: quicksort___ieee754_powf:yisint <- 0
	#DEBUG_VALUE: quicksort___ieee754_powf:z <- [RBP+-280]
	#DEBUG_VALUE: quicksort___ieee754_powf:ax <- [RBP+-280]
	movl	$82, %edi
	callq	_KPushCDep
	movl	$1, %edi
	callq	_KWork
	movl	$17, (%rsp)
	movl	$83, %edi
	movl	$1, %esi
	movl	$15, %edx
	movl	$3, %ecx
	movl	$12, %r8d
	movl	$4, %r9d
	callq	_KTimestamp3
	callq	_KPopCDep
	.loc	1 164 10                # quicksortlibm.c:164:10
.Ltmp101:
	testl	%ebx, %ebx
	js	.LBB0_56
.Ltmp102:
# BB#55:
	#DEBUG_VALUE: quicksort___ieee754_powf:hx <- R15D
	#DEBUG_VALUE: quicksort___ieee754_powf:ix <- R12D
	#DEBUG_VALUE: quicksort___ieee754_powf:yisint <- 0
	#DEBUG_VALUE: quicksort___ieee754_powf:z <- [RBP+-280]
	#DEBUG_VALUE: quicksort___ieee754_powf:ax <- [RBP+-280]
	movl	$7, %ebx
	movss	-280(%rbp), %xmm0       # 4-byte Reload
	movss	%xmm0, -228(%rbp)       # 4-byte Spill
.Ltmp103:
	#DEBUG_VALUE: quicksort___ieee754_powf:ax <- [RBP+-228]
	#DEBUG_VALUE: quicksort___ieee754_powf:z <- [RBP+-228]
	jmp	.LBB0_57
.Ltmp104:
.LBB0_51:                               # %if.end91
	#DEBUG_VALUE: quicksort___ieee754_powf:x <- [RBP+-228]
	#DEBUG_VALUE: quicksort___ieee754_powf:y <- [RBP+-240]
	#DEBUG_VALUE: quicksort___ieee754_powf:hx <- R15D
	#DEBUG_VALUE: quicksort___ieee754_powf:hy <- EBX
	#DEBUG_VALUE: quicksort___ieee754_powf:ix <- R12D
	#DEBUG_VALUE: quicksort___ieee754_powf:yisint <- 0
	#DEBUG_VALUE: quicksort___ieee754_powf:z <- [RBP+-280]
	#DEBUG_VALUE: quicksort___ieee754_powf:ax <- [RBP+-280]
	movl	$82, %edi
	callq	_KPushCDep
	movl	$4, %edi
	callq	_KWork
	.loc	1 179 14                # quicksortlibm.c:179:14
.Ltmp105:
	shrl	$31, %r15d
.Ltmp106:
	.loc	1 179 12 is_stmt 0      # quicksortlibm.c:179:12
	decl	%r15d
	movl	$2, 16(%rsp)
	movl	$9, 8(%rsp)
	movl	$20, (%rsp)
	movl	$104, %edi
	movl	$1, %esi
	movl	$18, %edx
	movl	$3, %ecx
	movl	$15, %r8d
	movl	$4, %r9d
	callq	_KTimestamp4
	callq	_KPopCDep
	movl	$104, %edi
	callq	_KPushCDep
.Ltmp107:
	.loc	1 179 8                 # quicksortlibm.c:179:8
	movl	-268(%rbp), %eax        # 4-byte Reload
	orl	%r15d, %eax
	je	.LBB0_52
.Ltmp108:
# BB#64:                                # %if.end100
	#DEBUG_VALUE: quicksort___ieee754_powf:x <- [RBP+-228]
	#DEBUG_VALUE: quicksort___ieee754_powf:y <- [RBP+-240]
	#DEBUG_VALUE: quicksort___ieee754_powf:hy <- EBX
	#DEBUG_VALUE: quicksort___ieee754_powf:ix <- R12D
	#DEBUG_VALUE: quicksort___ieee754_powf:yisint <- 0
	#DEBUG_VALUE: quicksort___ieee754_powf:z <- [RBP+-280]
	#DEBUG_VALUE: quicksort___ieee754_powf:ax <- [RBP+-280]
	movl	$1, %edi
	callq	_KWork
	movl	$3, 16(%rsp)
	movl	$9, 8(%rsp)
	movl	$21, (%rsp)
	movl	$92, %edi
	movl	$1, %esi
	movl	$19, %edx
	movl	$3, %ecx
	movl	$16, %r8d
	movl	$4, %r9d
	callq	_KTimestamp4
	callq	_KPopCDep
	movl	$92, %edi
	callq	_KPushCDep
	movl	$1, %edi
	callq	_KWork
	.loc	1 183 8 is_stmt 1       # quicksortlibm.c:183:8
	cmpl	$1291845633, %r14d      # imm = 0x4D000001
	jb	.LBB0_77
.Ltmp109:
# BB#65:                                # %if.then102
	#DEBUG_VALUE: quicksort___ieee754_powf:x <- [RBP+-228]
	#DEBUG_VALUE: quicksort___ieee754_powf:y <- [RBP+-240]
	#DEBUG_VALUE: quicksort___ieee754_powf:hy <- EBX
	#DEBUG_VALUE: quicksort___ieee754_powf:ix <- R12D
	#DEBUG_VALUE: quicksort___ieee754_powf:yisint <- 0
	movl	$4, 16(%rsp)
	movl	$9, 8(%rsp)
	movl	$22, (%rsp)
	movl	$105, %edi
	movl	$1, %esi
	movl	$20, %edx
	movl	$3, %ecx
	movl	$17, %r8d
	movl	$4, %r9d
	callq	_KTimestamp4
	callq	_KPopCDep
	movl	$105, %edi
	callq	_KPushCDep
	movl	$1, %edi
	callq	_KWork
	.loc	1 185 10                # quicksortlibm.c:185:10
.Ltmp110:
	cmpl	$1065353207, %r12d      # imm = 0x3F7FFFF7
	ja	.LBB0_71
.Ltmp111:
# BB#66:                                # %if.then104
	#DEBUG_VALUE: quicksort___ieee754_powf:hy <- EBX
	#DEBUG_VALUE: quicksort___ieee754_powf:yisint <- 0
	.loc	1 186 17                # quicksortlibm.c:186:17
	testl	%ebx, %ebx
	js	.LBB0_67
.Ltmp112:
# BB#68:                                # %if.then104
	#DEBUG_VALUE: quicksort___ieee754_powf:yisint <- 0
	xorps	%xmm0, %xmm0
	jmp	.LBB0_69
.LBB0_56:                               # %if.then73
.Ltmp113:
	#DEBUG_VALUE: quicksort___ieee754_powf:hx <- R15D
	#DEBUG_VALUE: quicksort___ieee754_powf:ix <- R12D
	#DEBUG_VALUE: quicksort___ieee754_powf:yisint <- 0
	#DEBUG_VALUE: quicksort___ieee754_powf:z <- [RBP+-280]
	#DEBUG_VALUE: quicksort___ieee754_powf:ax <- [RBP+-280]
	movl	$83, %edi
	callq	_KPushCDep
	movl	$20, %edi
	callq	_KWork
	movss	.LCPI0_0(%rip), %xmm0
	.loc	1 165 11                # quicksortlibm.c:165:11
.Ltmp114:
	divss	-280(%rbp), %xmm0       # 4-byte Folded Reload
.Ltmp115:
	#DEBUG_VALUE: quicksort___ieee754_powf:z <- XMM0
	movss	%xmm0, -228(%rbp)       # 4-byte Spill
.Ltmp116:
	#DEBUG_VALUE: quicksort___ieee754_powf:z <- [RBP+-228]
	movl	$20, 16(%rsp)
	movl	$7, 8(%rsp)
	movl	$37, (%rsp)
	movl	$81, %ebx
	movl	$81, %edi
	movl	$1, %esi
	movl	$35, %edx
	movl	$3, %ecx
	movl	$32, %r8d
	movl	$4, %r9d
	callq	_KTimestamp4
	callq	_KPopCDep
.Ltmp117:
.LBB0_57:                               # %if.end75
	#DEBUG_VALUE: quicksort___ieee754_powf:hx <- R15D
	#DEBUG_VALUE: quicksort___ieee754_powf:ix <- R12D
	#DEBUG_VALUE: quicksort___ieee754_powf:yisint <- 0
	movl	$82, %edi
	callq	_KPushCDep
	movl	$80, %r14d
	movl	$80, %edi
	movl	$82, %edx
	movl	$83, %ecx
	movl	%ebx, %esi
	callq	_KPhi2To1
	movl	$1, %edi
	callq	_KWork
	movl	$17, (%rsp)
	movl	$88, %edi
	movl	$1, %esi
	movl	$15, %edx
	movl	$3, %ecx
	movl	$12, %r8d
	movl	$4, %r9d
	callq	_KTimestamp3
	movl	$80, %edi
	movl	$80, %esi
	xorl	%edx, %edx
	callq	_KTimestamp1
	callq	_KPopCDep
	.loc	1 166 10                # quicksortlibm.c:166:10
	testl	%r15d, %r15d
	js	.LBB0_59
.Ltmp118:
# BB#58:
	#DEBUG_VALUE: quicksort___ieee754_powf:yisint <- 0
	xorl	%r15d, %r15d
	xorl	%r13d, %r13d
	jmp	.LBB0_63
.LBB0_59:                               # %if.then77
.Ltmp119:
	#DEBUG_VALUE: quicksort___ieee754_powf:ix <- R12D
	#DEBUG_VALUE: quicksort___ieee754_powf:yisint <- 0
	movl	$88, %edi
	callq	_KPushCDep
	movl	$3, %edi
	callq	_KWork
	.loc	1 167 16                # quicksortlibm.c:167:16
.Ltmp120:
	addl	$-1065353216, %r12d     # imm = 0xFFFFFFFFC0800000
.Ltmp121:
	movl	$2, 16(%rsp)
	movl	$9, 8(%rsp)
	movl	$20, (%rsp)
	movl	$89, %r15d
	movl	$89, %edi
	movl	$1, %esi
	movl	$18, %edx
	movl	$3, %ecx
	movl	$15, %r8d
	movl	$4, %r9d
	callq	_KTimestamp4
	callq	_KPopCDep
	movl	$89, %edi
	callq	_KPushCDep
	movl	-268(%rbp), %ebx        # 4-byte Reload
.Ltmp122:
	.loc	1 167 12 is_stmt 0      # quicksortlibm.c:167:12
	orl	%ebx, %r12d
	je	.LBB0_60
# BB#61:                                # %if.else84
	#DEBUG_VALUE: quicksort___ieee754_powf:yisint <- 0
	movl	$1, %edi
	callq	_KWork
	movl	$3, 16(%rsp)
	movl	$9, 8(%rsp)
	movl	$21, (%rsp)
	movl	$87, %r13d
	movl	$87, %edi
	movl	$1, %esi
	movl	$19, %edx
	movl	$3, %ecx
	movl	$16, %r8d
	movl	$4, %r9d
	callq	_KTimestamp4
	callq	_KPopCDep
	.loc	1 171 12 is_stmt 1      # quicksortlibm.c:171:12
.Ltmp123:
	cmpl	$1, %ebx
	jne	.LBB0_63
# BB#62:                                # %if.then86
	#DEBUG_VALUE: quicksort___ieee754_powf:yisint <- 0
	movl	$87, %r13d
	movl	$87, %edi
	callq	_KPushCDep
	movl	$2, %edi
	callq	_KWork
	.loc	1 172 13                # quicksortlibm.c:172:13
.Ltmp124:
	movss	-228(%rbp), %xmm0       # 4-byte Reload
	xorps	.LCPI0_2(%rip), %xmm0
	#DEBUG_VALUE: quicksort___ieee754_powf:z <- [RBP+-228]
	movss	%xmm0, -228(%rbp)       # 4-byte Spill
	movl	$5, 32(%rsp)
	movl	$9, 24(%rsp)
	movl	$2, 16(%rsp)
	movl	$80, 8(%rsp)
	movl	$23, (%rsp)
	movl	$86, %r14d
	movl	$86, %edi
	movl	$1, %esi
	movl	$21, %edx
	movl	$3, %ecx
	movl	$18, %r8d
	movl	$4, %r9d
	callq	_KTimestamp5
	callq	_KPopCDep
	jmp	.LBB0_63
.Ltmp125:
.LBB0_52:                               # %if.then96
	#DEBUG_VALUE: quicksort___ieee754_powf:x <- [RBP+-228]
	#DEBUG_VALUE: quicksort___ieee754_powf:yisint <- 0
	movl	$24, %edi
	callq	_KWork
	movss	-228(%rbp), %xmm0       # 4-byte Reload
.Ltmp126:
	#DEBUG_VALUE: quicksort___ieee754_powf:x <- XMM0
	.loc	1 180 15                # quicksortlibm.c:180:15
	subss	%xmm0, %xmm0
.Ltmp127:
	.loc	1 180 13 is_stmt 0      # quicksortlibm.c:180:13
	divss	%xmm0, %xmm0
	movss	%xmm0, -228(%rbp)       # 4-byte Spill
	movl	$24, 16(%rsp)
	movl	$9, 8(%rsp)
	movl	$42, (%rsp)
	movl	$121, %edi
	movl	$1, %esi
	movl	$40, %edx
	movl	$3, %ecx
	movl	$37, %r8d
	movl	$4, %r9d
	callq	_KTimestamp4
	callq	_KPopCDep
	movl	$121, %eax
	movq	%rax, -248(%rbp)        # 8-byte Spill
	movl	$130, %eax
	movq	%rax, -240(%rbp)        # 8-byte Spill
	movl	$132, %r9d
	movl	$134, %eax
	movq	%rax, -288(%rbp)        # 8-byte Spill
	movl	$135, %eax
	movq	%rax, -280(%rbp)        # 8-byte Spill
	xorl	%eax, %eax
	movq	%rax, -296(%rbp)        # 8-byte Spill
	movl	$75, %eax
	movq	%rax, -264(%rbp)        # 8-byte Spill
	movl	$142, -268(%rbp)        # 4-byte Folded Spill
	movl	$104, %ecx
	movl	$143, -256(%rbp)        # 4-byte Folded Spill
	movl	$0, %r11d
	movl	$0, %r10d
	movl	$0, %esi
	movl	$0, %eax
	movq	%rax, -304(%rbp)        # 8-byte Spill
	movl	$0, %edi
	movl	$0, %eax
	movl	$0, %r13d
	movl	$0, %r12d
	movl	$0, %r15d
	xorl	%r14d, %r14d
	xorl	%ebx, %ebx
	movl	$82, %r8d
	jmp	.LBB0_105
.Ltmp128:
.LBB0_77:                               # %if.else133
	#DEBUG_VALUE: quicksort___ieee754_powf:y <- [RBP+-240]
	#DEBUG_VALUE: quicksort___ieee754_powf:ix <- R12D
	#DEBUG_VALUE: quicksort___ieee754_powf:yisint <- 0
	#DEBUG_VALUE: quicksort___ieee754_powf:z <- [RBP+-280]
	#DEBUG_VALUE: quicksort___ieee754_powf:ax <- [RBP+-280]
	#DEBUG_VALUE: quicksort___ieee754_powf:n <- 0
	movl	%r15d, -264(%rbp)       # 4-byte Spill
	movl	$4, 16(%rsp)
	movl	$9, 8(%rsp)
	movl	$22, (%rsp)
	movl	$93, %edi
	movl	$1, %esi
	movl	$20, %edx
	movl	$3, %ecx
	movl	$17, %r8d
	movl	$4, %r9d
	callq	_KTimestamp4
	callq	_KPopCDep
	.loc	1 209 10 is_stmt 1      # quicksortlibm.c:209:10
.Ltmp129:
	cmpl	$8388607, %r12d         # imm = 0x7FFFFF
	ja	.LBB0_78
.Ltmp130:
# BB#79:                                # %if.then135
	#DEBUG_VALUE: quicksort___ieee754_powf:y <- [RBP+-240]
	#DEBUG_VALUE: quicksort___ieee754_powf:yisint <- 0
	#DEBUG_VALUE: quicksort___ieee754_powf:z <- [RBP+-280]
	#DEBUG_VALUE: quicksort___ieee754_powf:ax <- [RBP+-280]
	#DEBUG_VALUE: quicksort___ieee754_powf:n <- 0
	movl	$93, %edi
	callq	_KPushCDep
	movl	$10, %edi
	callq	_KWork
.Ltmp131:
	#DEBUG_VALUE: quicksort___ieee754_powf:ax <- undef
	#DEBUG_VALUE: quicksort___ieee754_powf:z <- undef
	.loc	1 210 7                 # quicksortlibm.c:210:7
	movss	-280(%rbp), %xmm0       # 4-byte Reload
	mulss	.LCPI0_3(%rip), %xmm0
.Ltmp132:
	#DEBUG_VALUE: quicksort___ieee754_powf:n <- -24
	movss	%xmm0, -280(%rbp)       # 4-byte Spill
.Ltmp133:
	#DEBUG_VALUE: quicksort___ieee754_powf:ax <- [RBP+-280]
	movl	$5, 32(%rsp)
	movl	$7, 24(%rsp)
	movl	$9, 16(%rsp)
	movl	$9, 8(%rsp)
	movl	$27, (%rsp)
	movl	$13, %edi
	movl	$1, %esi
	movl	$25, %edx
	movl	$3, %ecx
	movl	$22, %r8d
	movl	$4, %r9d
	callq	_KTimestamp5
	leaq	-80(%rbp), %rbx
	movl	$13, %edi
	movl	$4, %edx
	movq	%rbx, %rsi
	callq	_KStore
	.loc	1 212 7                 # quicksortlibm.c:212:7
.Ltmp134:
	movss	-280(%rbp), %xmm0       # 4-byte Reload
	movss	%xmm0, -80(%rbp)
	movl	$14, %r15d
	movl	$14, %esi
	movl	$4, %edx
	movq	%rbx, %rdi
	callq	_KLoad0
	movl	-80(%rbp), %r12d
.Ltmp135:
	#DEBUG_VALUE: quicksort___ieee754_powf:ix <- R12D
	movl	$14, %edi
	movl	$14, %esi
	xorl	%edx, %edx
	callq	_KTimestamp1
	movl	$4, 16(%rsp)
	movl	$9, 8(%rsp)
	movl	$22, (%rsp)
	movl	$91, %r14d
	movl	$91, %edi
	movl	$1, %esi
	movl	$20, %edx
	movl	$3, %ecx
	movl	$17, %r8d
	movl	$4, %r9d
	callq	_KTimestamp4
	callq	_KPopCDep
	movl	$-151, %ebx
	jmp	.LBB0_80
.Ltmp136:
.LBB0_60:                               # %if.then80
	#DEBUG_VALUE: quicksort___ieee754_powf:yisint <- 0
	movl	$24, %edi
	callq	_KWork
	movss	-228(%rbp), %xmm0       # 4-byte Reload
	.loc	1 168 15                # quicksortlibm.c:168:15
.Ltmp137:
	subss	%xmm0, %xmm0
	.loc	1 168 13 is_stmt 0      # quicksortlibm.c:168:13
	divss	%xmm0, %xmm0
.Ltmp138:
	#DEBUG_VALUE: quicksort___ieee754_powf:z <- XMM0
	movss	%xmm0, -228(%rbp)       # 4-byte Spill
.Ltmp139:
	#DEBUG_VALUE: quicksort___ieee754_powf:z <- [RBP+-228]
	movl	$24, 32(%rsp)
	movl	$9, 24(%rsp)
	movl	$22, 16(%rsp)
	movl	$80, 8(%rsp)
	movl	$42, (%rsp)
	movl	$85, %r14d
	movl	$85, %edi
	movl	$1, %esi
	movl	$40, %edx
	movl	$3, %ecx
	movl	$37, %r8d
	movl	$4, %r9d
	callq	_KTimestamp5
	callq	_KPopCDep
	xorl	%r13d, %r13d
.Ltmp140:
.LBB0_63:                               # %if.end90
	#DEBUG_VALUE: quicksort___ieee754_powf:yisint <- 0
	movl	$82, %edi
	callq	_KPushCDep
	movl	$84, %edi
	movl	$84, %esi
	xorl	%edx, %edx
	callq	_KTimestamp1
	movl	$84, %edi
	movl	$88, %ecx
	movl	$82, %r9d
	movl	%r14d, %esi
	movl	%r13d, %edx
	movl	%r15d, %r8d
	callq	_KPhi4To1
	callq	_KPopCDep
	movl	$84, %eax
	movq	%rax, -248(%rbp)        # 8-byte Spill
	movl	$130, %eax
	movq	%rax, -240(%rbp)        # 8-byte Spill
	movl	$132, %r9d
	movl	$134, %eax
	movq	%rax, -288(%rbp)        # 8-byte Spill
	movl	$135, %eax
	movq	%rax, -280(%rbp)        # 8-byte Spill
	movl	$75, %eax
	movq	%rax, -264(%rbp)        # 8-byte Spill
	movl	$142, -268(%rbp)        # 4-byte Folded Spill
	movl	$143, -256(%rbp)        # 4-byte Folded Spill
	movl	$0, %r11d
	movl	$0, %r10d
	movl	$0, %esi
	movl	$0, %eax
	movq	%rax, -304(%rbp)        # 8-byte Spill
	movl	$0, %edi
	movl	$0, %eax
	movl	$0, %r13d
	movl	$0, %r12d
	movl	$0, %r15d
	movl	$0, %r14d
	movl	$0, %ebx
	xorl	%ecx, %ecx
	xorl	%edx, %edx
	movq	%rdx, -296(%rbp)        # 8-byte Spill
	movl	$82, %r8d
	jmp	.LBB0_105
.LBB0_71:                               # %if.end107
.Ltmp141:
	#DEBUG_VALUE: quicksort___ieee754_powf:x <- [RBP+-228]
	#DEBUG_VALUE: quicksort___ieee754_powf:y <- [RBP+-240]
	#DEBUG_VALUE: quicksort___ieee754_powf:hy <- EBX
	#DEBUG_VALUE: quicksort___ieee754_powf:ix <- R12D
	#DEBUG_VALUE: quicksort___ieee754_powf:yisint <- 0
	movl	$5, 16(%rsp)
	movl	$9, 8(%rsp)
	movl	$23, (%rsp)
	movl	$106, %r13d
	movl	$106, %edi
	movl	$1, %esi
	movl	$21, %edx
	movl	$3, %ecx
	movl	$18, %r8d
	movl	$4, %r9d
	callq	_KTimestamp4
	callq	_KPopCDep
	movl	$106, %edi
	callq	_KPushCDep
	.loc	1 188 10 is_stmt 1      # quicksortlibm.c:188:10
.Ltmp142:
	cmpl	$1065353224, %r12d      # imm = 0x3F800008
	jb	.LBB0_76
.Ltmp143:
# BB#72:                                # %if.then109
	#DEBUG_VALUE: quicksort___ieee754_powf:hy <- EBX
	#DEBUG_VALUE: quicksort___ieee754_powf:yisint <- 0
	movl	$1, %edi
	callq	_KWork
	.loc	1 189 17                # quicksortlibm.c:189:17
.Ltmp144:
	testl	%ebx, %ebx
	jg	.LBB0_73
.Ltmp145:
# BB#74:                                # %if.then109
	#DEBUG_VALUE: quicksort___ieee754_powf:yisint <- 0
	xorps	%xmm0, %xmm0
	jmp	.LBB0_75
.LBB0_78:
	#DEBUG_VALUE: quicksort___ieee754_powf:y <- [RBP+-240]
.Ltmp146:
	#DEBUG_VALUE: quicksort___ieee754_powf:ix <- R12D
	#DEBUG_VALUE: quicksort___ieee754_powf:yisint <- 0
	#DEBUG_VALUE: quicksort___ieee754_powf:n <- 0
	movl	$95, %r15d
	movl	$-127, %ebx
	xorl	%r14d, %r14d
.Ltmp147:
.LBB0_80:                               # %if.end141
	#DEBUG_VALUE: quicksort___ieee754_powf:y <- [RBP+-240]
	#DEBUG_VALUE: quicksort___ieee754_powf:yisint <- 0
	#DEBUG_VALUE: quicksort___ieee754_powf:n <- 0
	movl	$92, %edi
	callq	_KPushCDep
	movl	$94, %edi
	movl	$92, %edx
	movl	$93, %ecx
	movl	%r15d, %esi
	callq	_KPhi2To1
	movl	$90, %edi
	movl	$92, %edx
	movl	$93, %ecx
	movl	%r14d, %esi
	callq	_KPhi2To1
	movl	$6, %edi
	callq	_KWork
	.loc	1 214 12                # quicksortlibm.c:214:12
.Ltmp148:
	movl	%r12d, %eax
	sarl	$23, %eax
	.loc	1 214 5 is_stmt 0       # quicksortlibm.c:214:5
	addl	%ebx, %eax
.Ltmp149:
	#DEBUG_VALUE: quicksort___ieee754_powf:n <- EAX
	movl	%eax, -304(%rbp)        # 4-byte Spill
.Ltmp150:
	#DEBUG_VALUE: quicksort___ieee754_powf:n <- [RBP+-304]
	.loc	1 215 9 is_stmt 1       # quicksortlibm.c:215:9
	andl	$8388607, %r12d         # imm = 0x7FFFFF
.Ltmp151:
	#DEBUG_VALUE: quicksort___ieee754_powf:j <- R12D
	movq	%r12, %rbx
.Ltmp152:
	#DEBUG_VALUE: quicksort___ieee754_powf:j <- EBX
	.loc	1 217 10                # quicksortlibm.c:217:10
	leal	1065353216(%rbx), %r13d
.Ltmp153:
	#DEBUG_VALUE: quicksort___ieee754_powf:ix <- R13D
	movl	$2, 32(%rsp)
	movl	$94, 24(%rsp)
	movl	$5, 16(%rsp)
	movl	$9, 8(%rsp)
	movl	$23, (%rsp)
	movl	$100, %edi
	movl	$1, %esi
	movl	$21, %edx
	movl	$3, %ecx
	movl	$18, %r8d
	movl	$4, %r9d
	callq	_KTimestamp5
	movl	$3, 48(%rsp)
	movl	$94, 40(%rsp)
	movl	$1, 32(%rsp)
	movl	$90, 24(%rsp)
	movl	$6, 16(%rsp)
	movl	$9, 8(%rsp)
	movl	$24, (%rsp)
	movl	$98, %r12d
	movl	$98, %edi
	movl	$1, %esi
	movl	$22, %edx
	movl	$3, %ecx
	movl	$19, %r8d
	movl	$4, %r9d
	callq	_KTimestamp6
	movl	$2, 32(%rsp)
	movl	$94, 24(%rsp)
	movl	$5, 16(%rsp)
	movl	$9, 8(%rsp)
	movl	$23, (%rsp)
	movl	$96, %edi
	movl	$1, %esi
	movl	$21, %edx
	movl	$3, %ecx
	movl	$18, %r8d
	movl	$4, %r9d
	callq	_KTimestamp5
	callq	_KPopCDep
	movl	$96, %edi
	callq	_KPushCDep
	.loc	1 218 10                # quicksortlibm.c:218:10
	cmpl	$1885297, %ebx          # imm = 0x1CC471
	ja	.LBB0_82
.Ltmp154:
# BB#81:                                # %if.then148
	#DEBUG_VALUE: quicksort___ieee754_powf:y <- [RBP+-240]
	#DEBUG_VALUE: quicksort___ieee754_powf:ix <- R13D
	#DEBUG_VALUE: quicksort___ieee754_powf:yisint <- 0
	#DEBUG_VALUE: quicksort___ieee754_powf:n <- [RBP+-304]
	#DEBUG_VALUE: quicksort___ieee754_powf:k <- 0
	callq	_KPopCDep
	xorl	%r14d, %r14d
	xorl	%r15d, %r15d
	movl	$100, %ebx
	jmp	.LBB0_85
.Ltmp155:
.LBB0_82:                               # %if.else149
	#DEBUG_VALUE: quicksort___ieee754_powf:y <- [RBP+-240]
	#DEBUG_VALUE: quicksort___ieee754_powf:ix <- R13D
	#DEBUG_VALUE: quicksort___ieee754_powf:yisint <- 0
	#DEBUG_VALUE: quicksort___ieee754_powf:j <- EBX
	#DEBUG_VALUE: quicksort___ieee754_powf:n <- [RBP+-304]
	movl	$1, %edi
	callq	_KWork
	movl	$3, 32(%rsp)
	movl	$94, 24(%rsp)
	movl	$6, 16(%rsp)
	movl	$9, 8(%rsp)
	movl	$24, (%rsp)
	movl	$97, %r14d
	movl	$97, %edi
	movl	$1, %esi
	movl	$22, %edx
	movl	$3, %ecx
	movl	$19, %r8d
	movl	$4, %r9d
	callq	_KTimestamp5
	callq	_KPopCDep
	movl	$97, %edi
	callq	_KPushCDep
	.loc	1 222 10                # quicksortlibm.c:222:10
.Ltmp156:
	cmpl	$6140886, %ebx          # imm = 0x5DB3D6
	ja	.LBB0_84
.Ltmp157:
# BB#83:                                # %if.then151
	#DEBUG_VALUE: quicksort___ieee754_powf:y <- [RBP+-240]
	#DEBUG_VALUE: quicksort___ieee754_powf:ix <- R13D
	#DEBUG_VALUE: quicksort___ieee754_powf:yisint <- 0
	#DEBUG_VALUE: quicksort___ieee754_powf:n <- [RBP+-304]
	#DEBUG_VALUE: quicksort___ieee754_powf:k <- 1
	callq	_KPopCDep
	movl	$1, %r15d
	movl	$100, %ebx
	movl	$98, %r12d
	jmp	.LBB0_85
.Ltmp158:
.LBB0_67:
	#DEBUG_VALUE: quicksort___ieee754_powf:yisint <- 0
	movss	.LCPI0_33(%rip), %xmm0
.LBB0_69:                               # %if.then104
	movss	%xmm0, -228(%rbp)       # 4-byte Spill
	#DEBUG_VALUE: quicksort___ieee754_powf:yisint <- 0
	movl	$5, 16(%rsp)
	movl	$9, 8(%rsp)
	movl	$23, (%rsp)
	movl	$122, %edi
	movl	$1, %esi
	movl	$21, %edx
	movl	$3, %ecx
	movl	$18, %r8d
	movl	$4, %r9d
	callq	_KTimestamp4
	callq	_KPopCDep
	movl	$122, %eax
	movq	%rax, -248(%rbp)        # 8-byte Spill
	movl	$104, %ecx
	movl	$82, %r8d
	movl	$130, %eax
	movq	%rax, -240(%rbp)        # 8-byte Spill
	movl	$132, %r9d
	movl	$134, %eax
	movq	%rax, -288(%rbp)        # 8-byte Spill
	movl	$135, %eax
	movq	%rax, -280(%rbp)        # 8-byte Spill
	movl	$92, %r13d
	movl	$105, %eax
	xorl	%edx, %edx
	movq	%rdx, -296(%rbp)        # 8-byte Spill
	movl	$75, %edx
	movq	%rdx, -264(%rbp)        # 8-byte Spill
	movl	$142, -268(%rbp)        # 4-byte Folded Spill
	movl	$143, -256(%rbp)        # 4-byte Folded Spill
	movl	$0, %r11d
	movl	$0, %r10d
	movl	$0, %esi
	movl	$0, %edx
	movq	%rdx, -304(%rbp)        # 8-byte Spill
	movl	$0, %edi
	jmp	.LBB0_70
.LBB0_76:                               # %if.end112
	#DEBUG_VALUE: quicksort___ieee754_powf:x <- [RBP+-228]
	#DEBUG_VALUE: quicksort___ieee754_powf:y <- [RBP+-240]
	#DEBUG_VALUE: quicksort___ieee754_powf:yisint <- 0
	movl	$60, %edi
	callq	_KWork
	movss	-228(%rbp), %xmm2       # 4-byte Reload
.Ltmp159:
	#DEBUG_VALUE: quicksort___ieee754_powf:x <- XMM2
	.loc	1 193 9                 # quicksortlibm.c:193:9
	addss	.LCPI0_1(%rip), %xmm2
.Ltmp160:
	#DEBUG_VALUE: quicksort___ieee754_powf:t <- XMM2
	.loc	1 195 9                 # quicksortlibm.c:195:9
	movaps	%xmm2, %xmm0
	mulss	%xmm0, %xmm0
	movss	.LCPI0_15(%rip), %xmm1
	.loc	1 197 43                # quicksortlibm.c:197:43
	mulss	%xmm2, %xmm1
	.loc	1 197 15 is_stmt 0      # quicksortlibm.c:197:15
	addss	.LCPI0_7(%rip), %xmm1
	.loc	1 197 9                 # quicksortlibm.c:197:9
	mulss	%xmm2, %xmm1
	movss	.LCPI0_16(%rip), %xmm3
	.loc	1 196 9 is_stmt 1       # quicksortlibm.c:196:9
	subss	%xmm1, %xmm3
	.loc	1 195 7                 # quicksortlibm.c:195:7
	mulss	%xmm0, %xmm3
.Ltmp161:
	#DEBUG_VALUE: quicksort___ieee754_powf:w <- XMM3
	movss	.LCPI0_17(%rip), %xmm0
	.loc	1 198 9                 # quicksortlibm.c:198:9
	mulss	%xmm2, %xmm0
.Ltmp162:
	#DEBUG_VALUE: quicksort___ieee754_powf:u <- XMM0
	.loc	1 199 9                 # quicksortlibm.c:199:9
	movss	%xmm0, -228(%rbp)       # 4-byte Spill
	mulss	.LCPI0_18(%rip), %xmm2
.Ltmp163:
	.loc	1 199 33 is_stmt 0      # quicksortlibm.c:199:33
	mulss	.LCPI0_19(%rip), %xmm3
.Ltmp164:
	.loc	1 199 9                 # quicksortlibm.c:199:9
	addss	%xmm2, %xmm3
.Ltmp165:
	#DEBUG_VALUE: quicksort___ieee754_powf:v <- XMM3
	.loc	1 200 10 is_stmt 1      # quicksortlibm.c:200:10
	movss	%xmm3, -248(%rbp)       # 4-byte Spill
.Ltmp166:
	#DEBUG_VALUE: quicksort___ieee754_powf:u <- [RBP+-228]
	addss	%xmm3, %xmm0
.Ltmp167:
	#DEBUG_VALUE: quicksort___ieee754_powf:t1 <- XMM0
	movss	%xmm0, -256(%rbp)       # 4-byte Spill
.Ltmp168:
	#DEBUG_VALUE: quicksort___ieee754_powf:t1 <- [RBP+-256]
	#DEBUG_VALUE: quicksort___ieee754_powf:v <- [RBP+-248]
	movl	$35, 16(%rsp)
	movl	$9, 8(%rsp)
	movl	$53, (%rsp)
	movl	$8, %edi
	movl	$1, %esi
	movl	$51, %edx
	movl	$3, %ecx
	movl	$48, %r8d
	movl	$4, %r9d
	callq	_KTimestamp4
	leaq	-64(%rbp), %rbx
	movl	$8, %edi
	movl	$4, %edx
	movq	%rbx, %rsi
	callq	_KStore
	.loc	1 201 5                 # quicksortlibm.c:201:5
.Ltmp169:
	movss	-256(%rbp), %xmm0       # 4-byte Reload
	movss	%xmm0, -64(%rbp)
	movl	$10, %esi
	movl	$4, %edx
	movq	%rbx, %rdi
	callq	_KLoad0
	movl	$-4096, %ebx            # imm = 0xFFFFFFFFFFFFF000
.Ltmp170:
	.loc	1 202 5                 # quicksortlibm.c:202:5
	andl	-64(%rbp), %ebx
	movl	$1, 32(%rsp)
	movl	$10, 24(%rsp)
	movl	$6, 16(%rsp)
	movl	$9, 8(%rsp)
	movl	$24, (%rsp)
	movl	$11, %edi
	movl	$1, %esi
	movl	$22, %edx
	movl	$3, %ecx
	movl	$19, %r8d
	movl	$4, %r9d
	callq	_KTimestamp5
	leaq	-72(%rbp), %r14
	movl	$11, %edi
	movl	$4, %edx
	movq	%r14, %rsi
	callq	_KStore
	movl	%ebx, -72(%rbp)
	movl	$12, -296(%rbp)         # 4-byte Folded Spill
	movl	$12, %esi
	movl	$4, %edx
	movq	%r14, %rdi
	callq	_KLoad0
	movss	-72(%rbp), %xmm0
.Ltmp171:
	#DEBUG_VALUE: quicksort___ieee754_powf:t1 <- XMM0
	.loc	1 203 16                # quicksortlibm.c:203:16
	movss	%xmm0, -256(%rbp)       # 4-byte Spill
.Ltmp172:
	#DEBUG_VALUE: quicksort___ieee754_powf:t1 <- [RBP+-256]
	subss	-228(%rbp), %xmm0       # 4-byte Folded Reload
.Ltmp173:
	#DEBUG_VALUE: quicksort___ieee754_powf:v <- undef
	.loc	1 203 10 is_stmt 0      # quicksortlibm.c:203:10
	movss	-248(%rbp), %xmm1       # 4-byte Reload
	subss	%xmm0, %xmm1
.Ltmp174:
	#DEBUG_VALUE: quicksort___ieee754_powf:t2 <- undef
	movss	%xmm1, -248(%rbp)       # 4-byte Spill
.Ltmp175:
	#DEBUG_VALUE: quicksort___ieee754_powf:t2 <- [RBP+-248]
	movl	$12, %edi
	movl	$12, %esi
	xorl	%edx, %edx
	callq	_KTimestamp1
	movl	$4, 32(%rsp)
	movl	$12, 24(%rsp)
	movl	$35, 16(%rsp)
	movl	$9, 8(%rsp)
	movl	$53, (%rsp)
	movl	$102, %ebx
	movl	$102, %edi
	movl	$1, %esi
	movl	$51, %edx
	movl	$3, %ecx
	movl	$48, %r8d
	movl	$4, %r9d
	callq	_KTimestamp5
	callq	_KPopCDep
	movl	$105, %r12d
	jmp	.LBB0_86
.Ltmp176:
.LBB0_84:                               # %if.else152
	#DEBUG_VALUE: quicksort___ieee754_powf:y <- [RBP+-240]
	#DEBUG_VALUE: quicksort___ieee754_powf:ix <- R13D
	#DEBUG_VALUE: quicksort___ieee754_powf:yisint <- 0
	#DEBUG_VALUE: quicksort___ieee754_powf:n <- [RBP+-304]
	movl	$2, %edi
	callq	_KWork
.Ltmp177:
	#DEBUG_VALUE: quicksort___ieee754_powf:k <- 0
	.loc	1 226 7 is_stmt 1       # quicksortlibm.c:226:7
	incl	-304(%rbp)              # 4-byte Folded Spill
	.loc	1 227 7                 # quicksortlibm.c:227:7
	addl	$-8388608, %r13d        # imm = 0xFFFFFFFFFF800000
.Ltmp178:
	movl	$4, 32(%rsp)
	movl	$94, 24(%rsp)
	movl	$7, 16(%rsp)
	movl	$9, 8(%rsp)
	movl	$25, (%rsp)
	movl	$101, %ebx
	movl	$101, %edi
	movl	$1, %esi
	movl	$23, %edx
	movl	$3, %ecx
	movl	$20, %r8d
	movl	$4, %r9d
	callq	_KTimestamp5
	movl	$4, 48(%rsp)
	movl	$94, 40(%rsp)
	movl	$2, 32(%rsp)
	movl	$90, 24(%rsp)
	movl	$7, 16(%rsp)
	movl	$9, 8(%rsp)
	movl	$25, (%rsp)
	movl	$99, %r12d
	movl	$99, %edi
	movl	$1, %esi
	movl	$23, %edx
	movl	$3, %ecx
	movl	$20, %r8d
	movl	$4, %r9d
	callq	_KTimestamp6
	callq	_KPopCDep
	xorl	%r15d, %r15d
.Ltmp179:
.LBB0_85:                               # %if.end156
	#DEBUG_VALUE: quicksort___ieee754_powf:y <- [RBP+-240]
	#DEBUG_VALUE: quicksort___ieee754_powf:yisint <- 0
	movl	$92, %edi
	callq	_KPushCDep
	movl	$15, %edi
	movl	$92, %edx
	movl	$96, %ecx
	movl	%ebx, %esi
	movl	%r14d, %r8d
	callq	_KPhi3To1
	movl	$43, %edi
	movl	$92, %edx
	movl	$96, %ecx
	movl	%r12d, %esi
	movl	%r14d, %r8d
	callq	_KPhi3To1
	movl	$26, %edi
	xorl	%esi, %esi
	movl	$92, %edx
	movl	$96, %ecx
	movl	%r14d, %r8d
	callq	_KPhi3To1
	movl	$265, %edi              # imm = 0x109
	callq	_KWork
	movl	$15, %edi
	movl	$15, %esi
	xorl	%edx, %edx
	callq	_KTimestamp1
	leaq	-88(%rbp), %rbx
	movl	$15, %edi
	movl	$4, %edx
	movq	%rbx, %rsi
	callq	_KStore
	.loc	1 229 5                 # quicksortlibm.c:229:5
.Ltmp180:
	movl	%r13d, -88(%rbp)
	movl	$16, %esi
	movl	$4, %edx
	movq	%rbx, %rdi
	callq	_KLoad0
	movss	-88(%rbp), %xmm0
.Ltmp181:
	#DEBUG_VALUE: quicksort___ieee754_powf:ax <- [RBP+-248]
	movss	%xmm0, -248(%rbp)       # 4-byte Spill
.Ltmp182:
	.loc	1 232 14                # quicksortlibm.c:232:14
	leaq	quicksort_bp(,%r15,4), %r12
	movl	$17, %esi
	movl	$18, %edx
	movl	$4, %ecx
	movq	%r12, %rdi
	callq	_KLoad1
	movss	quicksort_bp(,%r15,4), %xmm1
	.loc	1 232 9 is_stmt 0       # quicksortlibm.c:232:9
	movss	%xmm1, -288(%rbp)       # 4-byte Spill
	movss	-248(%rbp), %xmm0       # 4-byte Reload
	subss	%xmm1, %xmm0
.Ltmp183:
	#DEBUG_VALUE: quicksort___ieee754_powf:u <- XMM0
	movss	%xmm0, -228(%rbp)       # 4-byte Spill
.Ltmp184:
	#DEBUG_VALUE: quicksort___ieee754_powf:u <- [RBP+-228]
	movl	$19, %esi
	movl	$20, %edx
	movl	$4, %ecx
	movq	%r12, %rdi
	callq	_KLoad1
	.loc	1 233 27 is_stmt 1      # quicksortlibm.c:233:27
	movss	-248(%rbp), %xmm0       # 4-byte Reload
	addss	-288(%rbp), %xmm0       # 4-byte Folded Reload
	movss	.LCPI0_0(%rip), %xmm1
	.loc	1 233 9 is_stmt 0       # quicksortlibm.c:233:9
	divss	%xmm0, %xmm1
.Ltmp185:
	#DEBUG_VALUE: quicksort___ieee754_powf:v <- XMM1
	.loc	1 234 9 is_stmt 1       # quicksortlibm.c:234:9
	movss	%xmm1, -312(%rbp)       # 4-byte Spill
	movss	-228(%rbp), %xmm0       # 4-byte Reload
	mulss	%xmm1, %xmm0
.Ltmp186:
	#DEBUG_VALUE: s_h <- XMM0
	#DEBUG_VALUE: quicksort___ieee754_powf:s <- XMM0
	movss	%xmm0, -280(%rbp)       # 4-byte Spill
.Ltmp187:
	#DEBUG_VALUE: s_h <- [RBP+-280]
	#DEBUG_VALUE: quicksort___ieee754_powf:s <- [RBP+-280]
	#DEBUG_VALUE: quicksort___ieee754_powf:v <- [RBP+-312]
	movl	$27, 64(%rsp)
	movl	$19, 56(%rsp)
	movl	$7, 48(%rsp)
	movl	$17, 40(%rsp)
	movl	$27, 32(%rsp)
	movl	$16, 24(%rsp)
	movl	$30, 16(%rsp)
	movl	$9, 8(%rsp)
	movl	$48, (%rsp)
	movl	$46, -296(%rbp)         # 4-byte Folded Spill
	movl	$21, %edi
	movl	$1, %esi
	movl	$46, %edx
	movl	$3, %ecx
	movl	$43, %r8d
	movl	$4, %r9d
	callq	_KTimestamp7
	leaq	-96(%rbp), %rbx
	movl	$21, %edi
	movl	$4, %edx
	movq	%rbx, %rsi
	callq	_KStore
	.loc	1 236 5                 # quicksortlibm.c:236:5
.Ltmp188:
	movss	-280(%rbp), %xmm0       # 4-byte Reload
	movss	%xmm0, -96(%rbp)
	movl	$22, %esi
	movl	$4, %edx
	movq	%rbx, %rdi
	callq	_KLoad0
	movl	$-4096, %eax            # imm = 0xFFFFFFFFFFFFF000
	movl	-96(%rbp), %r14d
.Ltmp189:
	.loc	1 237 5                 # quicksortlibm.c:237:5
	andl	%eax, %r14d
	movl	$4, 32(%rsp)
	movl	$9, 24(%rsp)
	movl	$22, 16(%rsp)
	movl	$4, 8(%rsp)
	movl	$17, (%rsp)
	movl	$23, %edi
	movl	$22, %esi
	movl	$1, %edx
	movl	$1, %ecx
	movl	$20, %r8d
	movl	$3, %r9d
	callq	_KTimestamp5
	leaq	-104(%rbp), %rbx
	movl	$23, %edi
	movl	$4, %edx
	movq	%rbx, %rsi
	callq	_KStore
	movl	%r14d, -104(%rbp)
	movl	$24, %esi
	movl	$4, %edx
	movq	%rbx, %rdi
	callq	_KLoad0
	movss	-104(%rbp), %xmm0
.Ltmp190:
	#DEBUG_VALUE: s_h <- undef
	.loc	1 239 5                 # quicksortlibm.c:239:5
	movss	%xmm0, -256(%rbp)       # 4-byte Spill
.Ltmp191:
	#DEBUG_VALUE: s_h <- [RBP+-256]
	sarl	%r13d
	orl	$536870912, %r13d       # imm = 0x20000000
	movl	%r15d, %eax
	shll	$21, %eax
	leal	262144(%rax,%r13), %r14d
	xorl	%r13d, %r13d
	movl	$4, 48(%rsp)
	movl	$15, 40(%rsp)
	movl	$2, 32(%rsp)
	movl	$26, 24(%rsp)
	movl	$7, 16(%rsp)
	movl	$9, 8(%rsp)
	movl	$25, (%rsp)
	movl	$25, %edi
	movl	$1, %esi
	movl	$23, %edx
	movl	$3, %ecx
	movl	$20, %r8d
	movl	$4, %r9d
	callq	_KTimestamp6
	leaq	-112(%rbp), %rbx
	movl	$25, %edi
	movl	$4, %edx
	movq	%rbx, %rsi
	callq	_KStore
	movl	%r14d, -112(%rbp)
	movl	$27, %esi
	movl	$4, %edx
	movq	%rbx, %rdi
	callq	_KLoad0
	movss	-112(%rbp), %xmm0
.Ltmp192:
	#DEBUG_VALUE: t_h <- [RBP+-316]
	movss	%xmm0, -316(%rbp)       # 4-byte Spill
	movl	$28, %esi
	movl	$29, %edx
	movl	$4, %ecx
	movq	%r12, %rdi
	callq	_KLoad1
.Ltmp193:
	#DEBUG_VALUE: t_l <- [RBP+-248]
	movss	-256(%rbp), %xmm3       # 4-byte Reload
.Ltmp194:
	#DEBUG_VALUE: s_h <- XMM3
	.loc	1 242 23                # quicksortlibm.c:242:23
	movaps	%xmm3, %xmm0
	movss	-316(%rbp), %xmm1       # 4-byte Reload
.Ltmp195:
	#DEBUG_VALUE: t_h <- XMM1
	mulss	%xmm1, %xmm0
	.loc	1 241 18                # quicksortlibm.c:241:18
	subss	-288(%rbp), %xmm1       # 4-byte Folded Reload
.Ltmp196:
	movss	-248(%rbp), %xmm2       # 4-byte Reload
.Ltmp197:
	#DEBUG_VALUE: t_l <- XMM2
	#DEBUG_VALUE: quicksort___ieee754_powf:ax <- XMM2
	.loc	1 241 11 is_stmt 0      # quicksortlibm.c:241:11
	subss	%xmm1, %xmm2
.Ltmp198:
	movss	-228(%rbp), %xmm1       # 4-byte Reload
.Ltmp199:
	#DEBUG_VALUE: quicksort___ieee754_powf:u <- XMM1
	.loc	1 242 19 is_stmt 1      # quicksortlibm.c:242:19
	subss	%xmm0, %xmm1
.Ltmp200:
	.loc	1 242 37 is_stmt 0      # quicksortlibm.c:242:37
	mulss	%xmm3, %xmm2
	movaps	%xmm3, %xmm5
.Ltmp201:
	#DEBUG_VALUE: s_h <- XMM5
	.loc	1 242 17                # quicksortlibm.c:242:17
	subss	%xmm2, %xmm1
	.loc	1 242 11                # quicksortlibm.c:242:11
	mulss	-312(%rbp), %xmm1       # 4-byte Folded Reload
.Ltmp202:
	#DEBUG_VALUE: s_l <- XMM1
	movss	%xmm1, -228(%rbp)       # 4-byte Spill
	movaps	%xmm1, %xmm4
.Ltmp203:
	#DEBUG_VALUE: s_l <- XMM4
	movss	-280(%rbp), %xmm3       # 4-byte Reload
.Ltmp204:
	#DEBUG_VALUE: quicksort___ieee754_powf:s <- XMM3
	.loc	1 244 10 is_stmt 1      # quicksortlibm.c:244:10
	movaps	%xmm3, %xmm0
	mulss	%xmm0, %xmm0
.Ltmp205:
	#DEBUG_VALUE: s2 <- XMM0
	.loc	1 246 7                 # quicksortlibm.c:246:7
	movaps	%xmm0, %xmm1
	mulss	%xmm1, %xmm1
	movss	.LCPI0_4(%rip), %xmm2
	.loc	1 248 48                # quicksortlibm.c:248:48
	mulss	%xmm0, %xmm2
	.loc	1 248 33 is_stmt 0      # quicksortlibm.c:248:33
	addss	.LCPI0_5(%rip), %xmm2
	.loc	1 248 26                # quicksortlibm.c:248:26
	mulss	%xmm0, %xmm2
	.loc	1 248 11                # quicksortlibm.c:248:11
	addss	.LCPI0_6(%rip), %xmm2
	.loc	1 247 68 is_stmt 1      # quicksortlibm.c:247:68
	mulss	%xmm0, %xmm2
	.loc	1 247 53 is_stmt 0      # quicksortlibm.c:247:53
	addss	.LCPI0_7(%rip), %xmm2
	.loc	1 247 46                # quicksortlibm.c:247:46
	mulss	%xmm0, %xmm2
	.loc	1 247 31                # quicksortlibm.c:247:31
	addss	.LCPI0_8(%rip), %xmm2
	.loc	1 247 24                # quicksortlibm.c:247:24
	mulss	%xmm0, %xmm2
	.loc	1 247 9                 # quicksortlibm.c:247:9
	addss	.LCPI0_9(%rip), %xmm2
	.loc	1 246 7 is_stmt 1       # quicksortlibm.c:246:7
	mulss	%xmm1, %xmm2
.Ltmp206:
	#DEBUG_VALUE: quicksort___ieee754_powf:r <- XMM2
	#DEBUG_VALUE: quicksort___ieee754_powf:s <- [RBP+-280]
	movaps	%xmm5, %xmm0
.Ltmp207:
	#DEBUG_VALUE: s_h <- XMM0
	.loc	1 249 18                # quicksortlibm.c:249:18
	addss	%xmm0, %xmm3
	.loc	1 249 10 is_stmt 0      # quicksortlibm.c:249:10
	mulss	%xmm4, %xmm3
.Ltmp208:
	#DEBUG_VALUE: s_l <- [RBP+-228]
	.loc	1 249 5                 # quicksortlibm.c:249:5
	addss	%xmm2, %xmm3
.Ltmp209:
	#DEBUG_VALUE: quicksort___ieee754_powf:r <- XMM3
	movss	%xmm3, -248(%rbp)       # 4-byte Spill
.Ltmp210:
	#DEBUG_VALUE: s_h <- [RBP+-256]
	.loc	1 250 10 is_stmt 1      # quicksortlibm.c:250:10
	mulss	%xmm0, %xmm0
.Ltmp211:
	#DEBUG_VALUE: s2 <- XMM0
	movss	%xmm0, -288(%rbp)       # 4-byte Spill
	movss	.LCPI0_10(%rip), %xmm1
	.loc	1 251 11                # quicksortlibm.c:251:11
	addss	%xmm0, %xmm1
.Ltmp212:
	#DEBUG_VALUE: s2 <- [RBP+-288]
	addss	%xmm3, %xmm1
.Ltmp213:
	#DEBUG_VALUE: t_h <- XMM1
	movss	%xmm1, -312(%rbp)       # 4-byte Spill
.Ltmp214:
	#DEBUG_VALUE: quicksort___ieee754_powf:r <- [RBP+-248]
	#DEBUG_VALUE: t_h <- [RBP+-312]
	movl	$76, 120(%rsp)
	movl	$19, 112(%rsp)
	movl	$56, 104(%rsp)
	movl	$17, 96(%rsp)
	movl	$76, 88(%rsp)
	movl	$16, 80(%rsp)
	movl	$79, 72(%rsp)
	movl	$9, 64(%rsp)
	movl	$97, 56(%rsp)
	movl	$4, 48(%rsp)
	movl	$92, 40(%rsp)
	movl	$3, 32(%rsp)
	movl	$95, 24(%rsp)
	movl	$1, 16(%rsp)
	movl	$25, 8(%rsp)
	movl	$28, (%rsp)
	movl	$30, %edi
	movl	$10, %esi
	movl	$24, %edx
	movl	$23, %ecx
	movl	$27, %r8d
	movl	$25, %r9d
	xorl	%eax, %eax
	callq	_KTimestamp
	leaq	-120(%rbp), %rbx
	movl	$30, %edi
	movl	$4, %edx
	movq	%rbx, %rsi
	callq	_KStore
	.loc	1 252 5                 # quicksortlibm.c:252:5
.Ltmp215:
	movss	-312(%rbp), %xmm0       # 4-byte Reload
	movss	%xmm0, -120(%rbp)
	movl	$31, %esi
	movl	$4, %edx
	movq	%rbx, %rdi
	callq	_KLoad0
	movl	-120(%rbp), %ebx
	movl	$-4096, %r12d           # imm = 0xFFFFFFFFFFFFF000
.Ltmp216:
	.loc	1 253 5                 # quicksortlibm.c:253:5
	andl	%r12d, %ebx
	movl	$1, 32(%rsp)
	movl	$31, 24(%rsp)
	movl	$4, 16(%rsp)
	movl	$9, 8(%rsp)
	movl	$22, (%rsp)
	movl	$32, %edi
	movl	$1, %esi
	movl	$20, %edx
	movl	$3, %ecx
	movl	$17, %r8d
	movl	$4, %r9d
	callq	_KTimestamp5
	leaq	-128(%rbp), %r14
	movl	$32, %edi
	movl	$4, %edx
	movq	%r14, %rsi
	callq	_KStore
	movl	%ebx, -128(%rbp)
	movl	$33, %esi
	movl	$4, %edx
	movq	%r14, %rdi
	callq	_KLoad0
	movss	-128(%rbp), %xmm0
.Ltmp217:
	#DEBUG_VALUE: t_h <- XMM0
	movss	.LCPI0_11(%rip), %xmm1
.Ltmp218:
	.loc	1 254 19                # quicksortlibm.c:254:19
	addss	%xmm0, %xmm1
	.loc	1 254 17 is_stmt 0      # quicksortlibm.c:254:17
	subss	-288(%rbp), %xmm1       # 4-byte Folded Reload
	movss	-248(%rbp), %xmm2       # 4-byte Reload
.Ltmp219:
	#DEBUG_VALUE: quicksort___ieee754_powf:r <- XMM2
	.loc	1 254 11                # quicksortlibm.c:254:11
	subss	%xmm1, %xmm2
.Ltmp220:
	#DEBUG_VALUE: t_l <- XMM2
	movss	-256(%rbp), %xmm1       # 4-byte Reload
.Ltmp221:
	#DEBUG_VALUE: s_h <- XMM1
	.loc	1 256 9 is_stmt 1       # quicksortlibm.c:256:9
	mulss	%xmm0, %xmm1
.Ltmp222:
	#DEBUG_VALUE: quicksort___ieee754_powf:u <- XMM1
	movss	%xmm1, -256(%rbp)       # 4-byte Spill
	movss	-228(%rbp), %xmm3       # 4-byte Reload
.Ltmp223:
	#DEBUG_VALUE: s_l <- XMM3
	.loc	1 257 9                 # quicksortlibm.c:257:9
	mulss	%xmm0, %xmm3
.Ltmp224:
	.loc	1 257 21 is_stmt 0      # quicksortlibm.c:257:21
	mulss	-280(%rbp), %xmm2       # 4-byte Folded Reload
.Ltmp225:
	.loc	1 257 9                 # quicksortlibm.c:257:9
	addss	%xmm3, %xmm2
.Ltmp226:
	#DEBUG_VALUE: quicksort___ieee754_powf:v <- XMM2
	.loc	1 259 11 is_stmt 1      # quicksortlibm.c:259:11
	movss	%xmm2, -248(%rbp)       # 4-byte Spill
.Ltmp227:
	#DEBUG_VALUE: quicksort___ieee754_powf:u <- [RBP+-256]
	addss	%xmm2, %xmm1
.Ltmp228:
	#DEBUG_VALUE: quicksort___ieee754_powf:p_h <- XMM1
	movss	%xmm1, -228(%rbp)       # 4-byte Spill
.Ltmp229:
	#DEBUG_VALUE: quicksort___ieee754_powf:p_h <- [RBP+-228]
	#DEBUG_VALUE: quicksort___ieee754_powf:v <- [RBP+-248]
	movl	$85, 136(%rsp)
	movl	$19, 128(%rsp)
	movl	$65, 120(%rsp)
	movl	$17, 112(%rsp)
	movl	$85, 104(%rsp)
	movl	$16, 96(%rsp)
	movl	$15, 88(%rsp)
	movl	$33, 80(%rsp)
	movl	$88, 72(%rsp)
	movl	$9, 64(%rsp)
	movl	$106, 56(%rsp)
	movl	$4, 48(%rsp)
	movl	$101, 40(%rsp)
	movl	$3, 32(%rsp)
	movl	$104, 24(%rsp)
	movl	$1, 16(%rsp)
	movl	$34, 8(%rsp)
	movl	$28, (%rsp)
	movl	$34, %edi
	movl	$11, %esi
	movl	$24, %edx
	movl	$32, %ecx
	movl	$27, %r8d
	movl	$34, %r9d
	xorl	%eax, %eax
	callq	_KTimestamp
	leaq	-136(%rbp), %rbx
	movl	$34, %edi
	movl	$4, %edx
	movq	%rbx, %rsi
	callq	_KStore
	.loc	1 260 5                 # quicksortlibm.c:260:5
.Ltmp230:
	movss	-228(%rbp), %xmm0       # 4-byte Reload
.Ltmp231:
	movss	%xmm0, -136(%rbp)
	movl	$35, %esi
	movl	$4, %edx
	movq	%rbx, %rdi
	callq	_KLoad0
	movl	-136(%rbp), %ebx
.Ltmp232:
	.loc	1 261 5                 # quicksortlibm.c:261:5
	andl	%r12d, %ebx
	movl	$1, 32(%rsp)
	movl	$35, 24(%rsp)
	movl	$4, 16(%rsp)
	movl	$9, 8(%rsp)
	movl	$22, (%rsp)
	movl	$36, %edi
	movl	$1, %esi
	movl	$20, %edx
	movl	$3, %ecx
	movl	$17, %r8d
	movl	$4, %r9d
	callq	_KTimestamp5
	leaq	-144(%rbp), %r14
	movl	$36, %edi
	movl	$4, %edx
	movq	%r14, %rsi
	callq	_KStore
	movl	%ebx, -144(%rbp)
	movl	$37, %esi
	movl	$4, %edx
	movq	%r14, %rdi
	callq	_KLoad0
	movss	-144(%rbp), %xmm0
.Ltmp233:
	#DEBUG_VALUE: quicksort___ieee754_powf:p_h <- XMM0
	.loc	1 262 17                # quicksortlibm.c:262:17
	movaps	%xmm0, %xmm1
	subss	-256(%rbp), %xmm1       # 4-byte Folded Reload
	movss	-248(%rbp), %xmm2       # 4-byte Reload
.Ltmp234:
	#DEBUG_VALUE: quicksort___ieee754_powf:v <- XMM2
	.loc	1 262 11 is_stmt 0      # quicksortlibm.c:262:11
	subss	%xmm1, %xmm2
.Ltmp235:
	#DEBUG_VALUE: quicksort___ieee754_powf:p_l <- XMM2
	movss	.LCPI0_12(%rip), %xmm1
	.loc	1 263 11 is_stmt 1      # quicksortlibm.c:263:11
	mulss	%xmm0, %xmm1
.Ltmp236:
	#DEBUG_VALUE: quicksort___ieee754_powf:z_h <- XMM1
	movss	%xmm1, -280(%rbp)       # 4-byte Spill
.Ltmp237:
	#DEBUG_VALUE: quicksort___ieee754_powf:z_h <- [RBP+-280]
	.loc	1 264 11                # quicksortlibm.c:264:11
	mulss	.LCPI0_13(%rip), %xmm0
.Ltmp238:
	.loc	1 264 34 is_stmt 0      # quicksortlibm.c:264:34
	mulss	.LCPI0_14(%rip), %xmm2
.Ltmp239:
	.loc	1 264 11                # quicksortlibm.c:264:11
	addss	%xmm0, %xmm2
	movss	%xmm2, -248(%rbp)       # 4-byte Spill
	.loc	1 264 55                # quicksortlibm.c:264:55
	leaq	quicksort_dp_l(,%r15,4), %rdi
	movl	$38, %esi
	movl	$39, %edx
	movl	$4, %ecx
	callq	_KLoad1
	movss	-248(%rbp), %xmm0       # 4-byte Reload
	.loc	1 264 11                # quicksortlibm.c:264:11
	addss	quicksort_dp_l(,%r15,4), %xmm0
.Ltmp240:
	#DEBUG_VALUE: quicksort___ieee754_powf:z_l <- XMM0
	.loc	1 266 9 is_stmt 1       # quicksortlibm.c:266:9
	movss	%xmm0, -248(%rbp)       # 4-byte Spill
	movl	-304(%rbp), %eax        # 4-byte Reload
	xorps	%xmm1, %xmm1
	cvtsi2ssl	%eax, %xmm1
.Ltmp241:
	#DEBUG_VALUE: quicksort___ieee754_powf:t <- [RBP+-288]
	.loc	1 267 16                # quicksortlibm.c:267:16
	movss	%xmm1, -288(%rbp)       # 4-byte Spill
	movss	-280(%rbp), %xmm1       # 4-byte Reload
	addss	%xmm0, %xmm1
	movss	%xmm1, -228(%rbp)       # 4-byte Spill
.Ltmp242:
	#DEBUG_VALUE: quicksort___ieee754_powf:z_l <- [RBP+-248]
	.loc	1 267 30 is_stmt 0      # quicksortlibm.c:267:30
	leaq	quicksort_dp_h(,%r15,4), %r12
	movl	$40, %esi
	movl	$41, %edx
	movl	$4, %ecx
	movq	%r12, %rdi
	callq	_KLoad1
	movss	quicksort_dp_h(,%r15,4), %xmm0
	.loc	1 267 14                # quicksortlibm.c:267:14
	movss	%xmm0, -304(%rbp)       # 4-byte Spill
	movss	-228(%rbp), %xmm1       # 4-byte Reload
	addss	%xmm0, %xmm1
	.loc	1 267 12                # quicksortlibm.c:267:12
	addss	-288(%rbp), %xmm1       # 4-byte Folded Reload
.Ltmp243:
	#DEBUG_VALUE: quicksort___ieee754_powf:t1 <- XMM1
	movss	%xmm1, -228(%rbp)       # 4-byte Spill
.Ltmp244:
	#DEBUG_VALUE: quicksort___ieee754_powf:t1 <- [RBP+-228]
	movl	$4, 200(%rsp)
	movl	$40, 192(%rsp)
	movl	$8, 184(%rsp)
	movl	$38, 176(%rsp)
	movl	$19, 168(%rsp)
	movl	$37, 160(%rsp)
	movl	$100, 152(%rsp)
	movl	$19, 144(%rsp)
	movl	$80, 136(%rsp)
	movl	$17, 128(%rsp)
	movl	$100, 120(%rsp)
	movl	$16, 112(%rsp)
	movl	$2, 104(%rsp)
	movl	$43, 96(%rsp)
	movl	$30, 88(%rsp)
	movl	$33, 80(%rsp)
	movl	$103, 72(%rsp)
	movl	$9, 64(%rsp)
	movl	$121, 56(%rsp)
	movl	$4, 48(%rsp)
	movl	$116, 40(%rsp)
	movl	$3, 32(%rsp)
	movl	$119, 24(%rsp)
	movl	$1, 16(%rsp)
	movl	$49, 8(%rsp)
	movl	$28, (%rsp)
	movl	$42, %edi
	movl	$15, %esi
	movl	$24, %edx
	movl	$47, %ecx
	movl	$27, %r8d
	movl	$49, %r9d
	xorl	%eax, %eax
	callq	_KTimestamp
	leaq	-152(%rbp), %rbx
	movl	$42, %edi
	movl	$4, %edx
	movq	%rbx, %rsi
	callq	_KStore
	.loc	1 268 5 is_stmt 1       # quicksortlibm.c:268:5
.Ltmp245:
	movss	-228(%rbp), %xmm0       # 4-byte Reload
	movss	%xmm0, -152(%rbp)
	movl	$44, %esi
	movl	$4, %edx
	movq	%rbx, %rdi
	callq	_KLoad0
	movl	$-4096, %ebx            # imm = 0xFFFFFFFFFFFFF000
.Ltmp246:
	.loc	1 269 5                 # quicksortlibm.c:269:5
	andl	-152(%rbp), %ebx
	movl	$1, 32(%rsp)
	movl	$44, 24(%rsp)
	movl	$4, 16(%rsp)
	movl	$9, 8(%rsp)
	movl	$22, (%rsp)
	movl	$45, %edi
	movl	$1, %esi
	movl	$20, %edx
	movl	$3, %ecx
	movl	$17, %r8d
	movl	$4, %r9d
	callq	_KTimestamp5
	leaq	-160(%rbp), %r14
	movl	$45, %edi
	movl	$4, %edx
	movq	%r14, %rsi
	callq	_KStore
	movl	%ebx, -160(%rbp)
	movl	$46, %esi
	movl	$4, %edx
	movq	%r14, %rdi
	callq	_KLoad0
	movss	-160(%rbp), %xmm0
.Ltmp247:
	#DEBUG_VALUE: quicksort___ieee754_powf:t1 <- XMM0
	.loc	1 270 22                # quicksortlibm.c:270:22
	movss	%xmm0, -256(%rbp)       # 4-byte Spill
.Ltmp248:
	#DEBUG_VALUE: quicksort___ieee754_powf:t1 <- [RBP+-256]
	subss	-288(%rbp), %xmm0       # 4-byte Folded Reload
	movss	%xmm0, -228(%rbp)       # 4-byte Spill
	movl	$47, %esi
	movl	$48, %edx
	movl	$4, %ecx
	movq	%r12, %rdi
	callq	_KLoad1
	movss	-228(%rbp), %xmm0       # 4-byte Reload
	.loc	1 270 20 is_stmt 0      # quicksortlibm.c:270:20
	subss	-304(%rbp), %xmm0       # 4-byte Folded Reload
	.loc	1 270 18                # quicksortlibm.c:270:18
	subss	-280(%rbp), %xmm0       # 4-byte Folded Reload
	movaps	%xmm0, %xmm1
.Ltmp249:
	#DEBUG_VALUE: quicksort___ieee754_powf:z_l <- undef
	.loc	1 270 10                # quicksortlibm.c:270:10
	movss	-248(%rbp), %xmm0       # 4-byte Reload
	subss	%xmm1, %xmm0
.Ltmp250:
	#DEBUG_VALUE: quicksort___ieee754_powf:t2 <- undef
	movss	%xmm0, -248(%rbp)       # 4-byte Spill
.Ltmp251:
	#DEBUG_VALUE: quicksort___ieee754_powf:t2 <- [RBP+-248]
	movl	$46, %edi
	movl	$46, %esi
	xorl	%edx, %edx
	callq	_KTimestamp1
	movl	$6, 216(%rsp)
	movl	$47, 208(%rsp)
	movl	$8, 200(%rsp)
	movl	$46, 192(%rsp)
	movl	$4, 184(%rsp)
	movl	$38, 176(%rsp)
	movl	$15, 168(%rsp)
	movl	$37, 160(%rsp)
	movl	$96, 152(%rsp)
	movl	$19, 144(%rsp)
	movl	$76, 136(%rsp)
	movl	$17, 128(%rsp)
	movl	$96, 120(%rsp)
	movl	$16, 112(%rsp)
	movl	$8, 104(%rsp)
	movl	$43, 96(%rsp)
	movl	$26, 88(%rsp)
	movl	$33, 80(%rsp)
	movl	$99, 72(%rsp)
	movl	$9, 64(%rsp)
	movl	$117, 56(%rsp)
	movl	$4, 48(%rsp)
	movl	$112, 40(%rsp)
	movl	$3, 32(%rsp)
	movl	$115, 24(%rsp)
	movl	$1, 16(%rsp)
	movl	$45, 8(%rsp)
	movl	$28, (%rsp)
	movl	$103, %ebx
	movl	$103, %edi
	movl	$16, %esi
	movl	$24, %edx
	movl	$43, %ecx
	movl	$27, %r8d
	movl	$45, %r9d
	xorl	%eax, %eax
	callq	_KTimestamp
	callq	_KPopCDep
	xorl	%r12d, %r12d
	movl	-264(%rbp), %r15d       # 4-byte Reload
.Ltmp252:
.LBB0_86:                               # %if.end258
	#DEBUG_VALUE: quicksort___ieee754_powf:y <- [RBP+-240]
	#DEBUG_VALUE: quicksort___ieee754_powf:yisint <- 0
	movl	$92, %edi
	callq	_KPushCDep
	movl	$54, %edi
	movl	$104, %edx
	movl	$92, %ecx
	movl	-296(%rbp), %esi        # 4-byte Reload
	movl	%r12d, %r8d
	movl	%r13d, %r9d
	callq	_KPhi4To1
	movl	$53, %edi
	movl	$104, %edx
	movl	$92, %ecx
	movl	%ebx, %esi
	movl	%r12d, %r8d
	movl	%r13d, %r9d
	callq	_KPhi4To1
	movl	$43, %edi
	callq	_KWork
.Ltmp253:
	#DEBUG_VALUE: quicksort___ieee754_powf:s <- 1.000000e+00
	movl	-268(%rbp), %eax        # 4-byte Reload
	.loc	1 274 52 is_stmt 1      # quicksortlibm.c:274:52
.Ltmp254:
	decl	%eax
	.loc	1 274 10 is_stmt 0      # quicksortlibm.c:274:10
	orl	%r15d, %eax
	sete	%al
	movzbl	%al, %eax
.Ltmp255:
	.loc	1 274 8                 # quicksortlibm.c:274:8
	movss	.LCPI0_20(,%rax,4), %xmm0
.Ltmp256:
	#DEBUG_VALUE: quicksort___ieee754_powf:s <- [RBP+-228]
	movss	%xmm0, -228(%rbp)       # 4-byte Spill
	leaq	-168(%rbp), %rbx
	movl	$2, %edi
	movl	$4, %edx
	movq	%rbx, %rsi
	callq	_KStore
	.loc	1 278 3 is_stmt 1       # quicksortlibm.c:278:3
.Ltmp257:
	movss	-240(%rbp), %xmm0       # 4-byte Reload
.Ltmp258:
	#DEBUG_VALUE: quicksort___ieee754_powf:y <- undef
	movss	%xmm0, -168(%rbp)
.Ltmp259:
	#DEBUG_VALUE: quicksort___ieee754_powf:y <- [RBP+-240]
	movl	$49, %esi
	movl	$4, %edx
	movq	%rbx, %rdi
	callq	_KLoad0
	movl	$-4096, %ebx            # imm = 0xFFFFFFFFFFFFF000
.Ltmp260:
	.loc	1 279 3                 # quicksortlibm.c:279:3
	andl	-168(%rbp), %ebx
	movl	$1, 32(%rsp)
	movl	$49, 24(%rsp)
	movl	$4, 16(%rsp)
	movl	$9, 8(%rsp)
	movl	$22, (%rsp)
	movl	$50, %edi
	movl	$1, %esi
	movl	$20, %edx
	movl	$3, %ecx
	movl	$17, %r8d
	movl	$4, %r9d
	callq	_KTimestamp5
	leaq	-176(%rbp), %r14
	movl	$50, %edi
	movl	$4, %edx
	movq	%r14, %rsi
	callq	_KStore
	movl	%ebx, -176(%rbp)
	movl	$51, %esi
	movl	$4, %edx
	movq	%r14, %rdi
	callq	_KLoad0
	movss	-176(%rbp), %xmm0
	movss	-248(%rbp), %xmm1       # 4-byte Reload
	movss	-240(%rbp), %xmm3       # 4-byte Reload
.Ltmp261:
	#DEBUG_VALUE: quicksort___ieee754_powf:y <- XMM3
	.loc	1 280 27                # quicksortlibm.c:280:27
	mulss	%xmm3, %xmm1
.Ltmp262:
	#DEBUG_VALUE: quicksort___ieee754_powf:y1 <- XMM0
	.loc	1 280 11 is_stmt 0      # quicksortlibm.c:280:11
	subss	%xmm0, %xmm3
.Ltmp263:
	movss	-256(%rbp), %xmm2       # 4-byte Reload
	.loc	1 280 9                 # quicksortlibm.c:280:9
	mulss	%xmm2, %xmm3
	addss	%xmm1, %xmm3
.Ltmp264:
	#DEBUG_VALUE: quicksort___ieee754_powf:p_l <- XMM3
	.loc	1 281 9 is_stmt 1       # quicksortlibm.c:281:9
	movss	%xmm3, -240(%rbp)       # 4-byte Spill
	mulss	%xmm0, %xmm2
.Ltmp265:
	#DEBUG_VALUE: quicksort___ieee754_powf:p_h <- XMM2
	.loc	1 282 7                 # quicksortlibm.c:282:7
	movss	%xmm2, -256(%rbp)       # 4-byte Spill
.Ltmp266:
	#DEBUG_VALUE: quicksort___ieee754_powf:p_h <- [RBP+-256]
	addss	%xmm3, %xmm2
.Ltmp267:
	#DEBUG_VALUE: quicksort___ieee754_powf:z <- XMM2
	movss	%xmm2, -248(%rbp)       # 4-byte Spill
.Ltmp268:
	#DEBUG_VALUE: quicksort___ieee754_powf:p_l <- [RBP+-240]
	#DEBUG_VALUE: quicksort___ieee754_powf:z <- [RBP+-248]
	movl	$11, 88(%rsp)
	movl	$51, 80(%rsp)
	movl	$9, 72(%rsp)
	movl	$54, 64(%rsp)
	movl	$9, 56(%rsp)
	movl	$53, 48(%rsp)
	movl	$14, 40(%rsp)
	movl	$9, 32(%rsp)
	movl	$32, 24(%rsp)
	movl	$4, 16(%rsp)
	movl	$27, 8(%rsp)
	movl	$3, (%rsp)
	movl	$52, %edi
	movl	$8, %esi
	movl	$2, %edx
	movl	$11, %ecx
	movl	$1, %r8d
	movl	$30, %r9d
	xorl	%eax, %eax
	callq	_KTimestamp
	leaq	-184(%rbp), %rbx
	movl	$52, %edi
	movl	$4, %edx
	movq	%rbx, %rsi
	callq	_KStore
	.loc	1 283 3                 # quicksortlibm.c:283:3
.Ltmp269:
	movss	-248(%rbp), %xmm0       # 4-byte Reload
.Ltmp270:
	movss	%xmm0, -184(%rbp)
	#DEBUG_VALUE: quicksort___ieee754_powf:z <- [RBP+-248]
	movl	$55, %esi
	movl	$4, %edx
	movq	%rbx, %rdi
	callq	_KLoad0
	movl	-184(%rbp), %r12d
.Ltmp271:
	#DEBUG_VALUE: quicksort___ieee754_powf:j <- R12D
	movl	$1, 32(%rsp)
	movl	$55, 24(%rsp)
	movl	$4, 16(%rsp)
	movl	$9, 8(%rsp)
	movl	$22, (%rsp)
	movl	$136, %r15d
	movl	$136, %edi
	movl	$1, %esi
	movl	$20, %edx
	movl	$3, %ecx
	movl	$17, %r8d
	movl	$4, %r9d
	callq	_KTimestamp5
	movl	$5, 48(%rsp)
	movl	$51, 40(%rsp)
	movl	$5, 32(%rsp)
	movl	$54, 24(%rsp)
	movl	$8, 16(%rsp)
	movl	$9, 8(%rsp)
	movl	$26, (%rsp)
	movl	$113, %edi
	movl	$1, %esi
	movl	$24, %edx
	movl	$3, %ecx
	movl	$21, %r8d
	movl	$4, %r9d
	callq	_KTimestamp6
	callq	_KPopCDep
	movl	$136, %edi
	callq	_KPushCDep
.Ltmp272:
	.loc	1 284 8                 # quicksortlibm.c:284:8
	cmpl	$1124073473, %r12d      # imm = 0x43000001
	jl	.LBB0_88
.Ltmp273:
# BB#87:                                # %if.then285
	#DEBUG_VALUE: quicksort___ieee754_powf:yisint <- 0
	#DEBUG_VALUE: quicksort___ieee754_powf:s <- [RBP+-228]
	movl	$10, %edi
	callq	_KWork
	movss	.LCPI0_32(%rip), %xmm0
	movss	-228(%rbp), %xmm1       # 4-byte Reload
.Ltmp274:
	#DEBUG_VALUE: quicksort___ieee754_powf:s <- XMM1
	.loc	1 285 13                # quicksortlibm.c:285:13
	mulss	%xmm0, %xmm1
.Ltmp275:
	mulss	%xmm0, %xmm1
	movss	%xmm1, -228(%rbp)       # 4-byte Spill
	movl	$11, 32(%rsp)
	movl	$55, 24(%rsp)
	movl	$17, 16(%rsp)
	movl	$9, 8(%rsp)
	movl	$35, (%rsp)
	movl	$124, %edi
	movl	$1, %esi
	movl	$33, %edx
	movl	$3, %ecx
	movl	$30, %r8d
	movl	$4, %r9d
	callq	_KTimestamp5
	callq	_KPopCDep
	movl	$124, %eax
	movq	%rax, -248(%rbp)        # 8-byte Spill
	movl	$82, %r8d
	movl	$130, %eax
	movq	%rax, -240(%rbp)        # 8-byte Spill
	movl	$132, %r9d
	movl	$134, %eax
	movq	%rax, -288(%rbp)        # 8-byte Spill
	movl	$135, %eax
	movq	%rax, -280(%rbp)        # 8-byte Spill
	movl	$75, %eax
	movq	%rax, -264(%rbp)        # 8-byte Spill
	movl	$142, -268(%rbp)        # 4-byte Folded Spill
	movl	$143, -256(%rbp)        # 4-byte Folded Spill
	movl	$0, %r11d
	movl	$0, %r10d
	movl	$0, %esi
	movl	$0, %eax
	movq	%rax, -304(%rbp)        # 8-byte Spill
	movl	$0, %edi
	movl	$0, %eax
	movl	$0, %r12d
	movl	$0, %r14d
	movl	$0, %ebx
	xorl	%ecx, %ecx
	movq	%rcx, -296(%rbp)        # 8-byte Spill
	movl	$92, %r13d
	movl	$104, %ecx
	jmp	.LBB0_105
.LBB0_88:                               # %if.else288
	#DEBUG_VALUE: quicksort___ieee754_powf:yisint <- 0
.Ltmp276:
	#DEBUG_VALUE: quicksort___ieee754_powf:j <- R12D
	#DEBUG_VALUE: quicksort___ieee754_powf:z <- [RBP+-248]
	#DEBUG_VALUE: quicksort___ieee754_powf:s <- [RBP+-228]
	#DEBUG_VALUE: quicksort___ieee754_powf:p_h <- [RBP+-256]
	#DEBUG_VALUE: quicksort___ieee754_powf:p_l <- [RBP+-240]
	movl	$1, %edi
	callq	_KWork
	movl	$2, 32(%rsp)
	movl	$55, 24(%rsp)
	movl	$5, 16(%rsp)
	movl	$9, 8(%rsp)
	movl	$23, (%rsp)
	movl	$137, %edi
	movl	$1, %esi
	movl	$21, %edx
	movl	$3, %ecx
	movl	$18, %r8d
	movl	$4, %r9d
	callq	_KTimestamp5
	callq	_KPopCDep
	movl	$137, %edi
	callq	_KPushCDep
	.loc	1 288 8                 # quicksortlibm.c:288:8
	cmpl	$1124073472, %r12d      # imm = 0x43000000
	jne	.LBB0_91
.Ltmp277:
# BB#89:                                # %if.then291
	#DEBUG_VALUE: quicksort___ieee754_powf:yisint <- 0
	#DEBUG_VALUE: quicksort___ieee754_powf:j <- R12D
	#DEBUG_VALUE: quicksort___ieee754_powf:z <- [RBP+-248]
	#DEBUG_VALUE: quicksort___ieee754_powf:s <- [RBP+-228]
	#DEBUG_VALUE: quicksort___ieee754_powf:p_h <- [RBP+-256]
	#DEBUG_VALUE: quicksort___ieee754_powf:p_l <- [RBP+-240]
	movl	$6, %edi
	callq	_KWork
	movss	.LCPI0_22(%rip), %xmm0
	.loc	1 289 10                # quicksortlibm.c:289:10
.Ltmp278:
	addss	-240(%rbp), %xmm0       # 4-byte Folded Reload
	movss	%xmm0, -264(%rbp)       # 4-byte Spill
.Ltmp279:
	#DEBUG_VALUE: quicksort___ieee754_powf:z <- undef
	.loc	1 289 32 is_stmt 0      # quicksortlibm.c:289:32
	movss	-248(%rbp), %xmm0       # 4-byte Reload
	subss	-256(%rbp), %xmm0       # 4-byte Folded Reload
	movss	%xmm0, -248(%rbp)       # 4-byte Spill
	movl	$6, 104(%rsp)
	movl	$55, 96(%rsp)
	movl	$15, 88(%rsp)
	movl	$51, 80(%rsp)
	movl	$13, 72(%rsp)
	movl	$54, 64(%rsp)
	movl	$13, 56(%rsp)
	movl	$53, 48(%rsp)
	movl	$18, 40(%rsp)
	movl	$9, 32(%rsp)
	movl	$36, 24(%rsp)
	movl	$4, 16(%rsp)
	movl	$31, 8(%rsp)
	movl	$3, (%rsp)
	movl	$138, %edi
	movl	$9, %esi
	movl	$2, %edx
	movl	$15, %ecx
	movl	$1, %r8d
	movl	$34, %r9d
	xorl	%eax, %eax
	callq	_KTimestamp
	callq	_KPopCDep
	movl	$1124073472, %ebx       # imm = 0x43000000
.Ltmp280:
	.loc	1 289 10                # quicksortlibm.c:289:10
	movss	-264(%rbp), %xmm0       # 4-byte Reload
	ucomiss	-248(%rbp), %xmm0       # 4-byte Folded Reload
	jbe	.LBB0_96
.Ltmp281:
# BB#90:                                # %if.then296
	#DEBUG_VALUE: quicksort___ieee754_powf:yisint <- 0
	#DEBUG_VALUE: quicksort___ieee754_powf:s <- [RBP+-228]
	movl	$138, %edi
	callq	_KPushCDep
	movl	$10, %edi
	callq	_KWork
	movss	.LCPI0_32(%rip), %xmm0
	movss	-228(%rbp), %xmm1       # 4-byte Reload
.Ltmp282:
	#DEBUG_VALUE: quicksort___ieee754_powf:s <- XMM1
	.loc	1 290 15 is_stmt 1      # quicksortlibm.c:290:15
	mulss	%xmm0, %xmm1
.Ltmp283:
	mulss	%xmm0, %xmm1
	movss	%xmm1, -228(%rbp)       # 4-byte Spill
	movl	$16, 104(%rsp)
	movl	$55, 96(%rsp)
	movl	$25, 88(%rsp)
	movl	$51, 80(%rsp)
	movl	$23, 72(%rsp)
	movl	$54, 64(%rsp)
	movl	$23, 56(%rsp)
	movl	$53, 48(%rsp)
	movl	$28, 40(%rsp)
	movl	$9, 32(%rsp)
	movl	$46, 24(%rsp)
	movl	$4, 16(%rsp)
	movl	$41, 8(%rsp)
	movl	$3, (%rsp)
	movl	$125, %edi
	movl	$9, %esi
	movl	$2, %edx
	movl	$25, %ecx
	movl	$1, %r8d
	movl	$44, %r9d
	xorl	%eax, %eax
	callq	_KTimestamp
	callq	_KPopCDep
	movl	$125, %eax
	movq	%rax, -248(%rbp)        # 8-byte Spill
	movl	$104, %ecx
	movl	$82, %r8d
	movl	$130, %eax
	movq	%rax, -240(%rbp)        # 8-byte Spill
	movl	$136, %r15d
	movl	$132, %r9d
	movl	$134, %eax
	movq	%rax, -288(%rbp)        # 8-byte Spill
	movl	$135, %eax
	movq	%rax, -280(%rbp)        # 8-byte Spill
	movl	$92, %r13d
	movl	$137, %eax
	movq	%rax, -304(%rbp)        # 8-byte Spill
	movl	$75, %eax
	movq	%rax, -264(%rbp)        # 8-byte Spill
	movl	$142, -268(%rbp)        # 4-byte Folded Spill
	movl	$143, -256(%rbp)        # 4-byte Folded Spill
	movl	$0, %r11d
	movl	$0, %r10d
	movl	$0, %edi
	movl	$0, %eax
	movl	$0, %r12d
	movl	$0, %r14d
	movl	$0, %ebx
	xorl	%edx, %edx
	movq	%rdx, -296(%rbp)        # 8-byte Spill
	movl	$138, %esi
	jmp	.LBB0_105
.Ltmp284:
.LBB0_91:                               # %if.else300
	#DEBUG_VALUE: quicksort___ieee754_powf:yisint <- 0
	#DEBUG_VALUE: quicksort___ieee754_powf:j <- R12D
	#DEBUG_VALUE: quicksort___ieee754_powf:z <- [RBP+-248]
	#DEBUG_VALUE: quicksort___ieee754_powf:s <- [RBP+-228]
	#DEBUG_VALUE: quicksort___ieee754_powf:p_h <- [RBP+-256]
	#DEBUG_VALUE: quicksort___ieee754_powf:p_l <- [RBP+-240]
	movl	$2, %edi
	callq	_KWork
	.loc	1 293 10                # quicksortlibm.c:293:10
.Ltmp285:
	movl	%r12d, %ebx
	andl	$2147483647, %ebx       # imm = 0x7FFFFFFF
	movl	$4, 32(%rsp)
	movl	$55, 24(%rsp)
	movl	$7, 16(%rsp)
	movl	$9, 8(%rsp)
	movl	$25, (%rsp)
	movl	$139, %edi
	movl	$1, %esi
	movl	$23, %edx
	movl	$3, %ecx
	movl	$20, %r8d
	movl	$4, %r9d
	callq	_KTimestamp5
	callq	_KPopCDep
	movl	$139, %edi
	callq	_KPushCDep
.Ltmp286:
	.loc	1 293 8 is_stmt 0       # quicksortlibm.c:293:8
	cmpl	$1125515265, %ebx       # imm = 0x43160001
	jb	.LBB0_93
.Ltmp287:
# BB#92:                                # %if.then304
	#DEBUG_VALUE: quicksort___ieee754_powf:yisint <- 0
	#DEBUG_VALUE: quicksort___ieee754_powf:s <- [RBP+-228]
	movl	$10, %edi
	callq	_KWork
	movss	.LCPI0_21(%rip), %xmm0
	movss	-228(%rbp), %xmm1       # 4-byte Reload
.Ltmp288:
	#DEBUG_VALUE: quicksort___ieee754_powf:s <- XMM1
	.loc	1 294 13 is_stmt 1      # quicksortlibm.c:294:13
	mulss	%xmm0, %xmm1
.Ltmp289:
	mulss	%xmm0, %xmm1
	movss	%xmm1, -228(%rbp)       # 4-byte Spill
	movl	$14, 32(%rsp)
	movl	$55, 24(%rsp)
	movl	$17, 16(%rsp)
	movl	$9, 8(%rsp)
	movl	$35, (%rsp)
	movl	$127, %edi
	movl	$1, %esi
	movl	$33, %edx
	movl	$3, %ecx
	movl	$30, %r8d
	movl	$4, %r9d
	callq	_KTimestamp5
	callq	_KPopCDep
	movl	$127, %eax
	movq	%rax, -248(%rbp)        # 8-byte Spill
	movl	$104, %ecx
	movl	$82, %r8d
	movl	$130, %eax
	movq	%rax, -240(%rbp)        # 8-byte Spill
	movl	$136, %r15d
	movl	$132, %r9d
	movl	$134, %eax
	movq	%rax, -288(%rbp)        # 8-byte Spill
	movl	$135, %eax
	movq	%rax, -280(%rbp)        # 8-byte Spill
	movl	$92, %r13d
	movl	$137, %eax
	movq	%rax, -304(%rbp)        # 8-byte Spill
	xorl	%eax, %eax
	movq	%rax, -296(%rbp)        # 8-byte Spill
	movl	$75, %eax
	movq	%rax, -264(%rbp)        # 8-byte Spill
	movl	$142, -268(%rbp)        # 4-byte Folded Spill
	movl	$143, -256(%rbp)        # 4-byte Folded Spill
	movl	$0, %r11d
	movl	$0, %esi
	movl	$0, %edi
	movl	$0, %eax
	movl	$0, %r12d
	movl	$0, %r14d
	xorl	%ebx, %ebx
	movl	$139, %r10d
	jmp	.LBB0_105
.LBB0_93:                               # %if.else307
	#DEBUG_VALUE: quicksort___ieee754_powf:yisint <- 0
.Ltmp290:
	#DEBUG_VALUE: quicksort___ieee754_powf:j <- R12D
	#DEBUG_VALUE: quicksort___ieee754_powf:z <- [RBP+-248]
	#DEBUG_VALUE: quicksort___ieee754_powf:s <- [RBP+-228]
	#DEBUG_VALUE: quicksort___ieee754_powf:p_h <- [RBP+-256]
	#DEBUG_VALUE: quicksort___ieee754_powf:p_l <- [RBP+-240]
	movl	$1, %edi
	callq	_KWork
	movl	$5, 32(%rsp)
	movl	$55, 24(%rsp)
	movl	$8, 16(%rsp)
	movl	$9, 8(%rsp)
	movl	$26, (%rsp)
	movl	$140, %edi
	movl	$1, %esi
	movl	$24, %edx
	movl	$3, %ecx
	movl	$21, %r8d
	movl	$4, %r9d
	callq	_KTimestamp5
	callq	_KPopCDep
	.loc	1 297 8                 # quicksortlibm.c:297:8
	cmpl	$-1021968384, %r12d     # imm = 0xFFFFFFFFC3160000
	jne	.LBB0_96
.Ltmp291:
# BB#94:                                # %if.then310
	#DEBUG_VALUE: quicksort___ieee754_powf:yisint <- 0
	#DEBUG_VALUE: quicksort___ieee754_powf:j <- R12D
	#DEBUG_VALUE: quicksort___ieee754_powf:z <- [RBP+-248]
	#DEBUG_VALUE: quicksort___ieee754_powf:s <- [RBP+-228]
	#DEBUG_VALUE: quicksort___ieee754_powf:p_h <- [RBP+-256]
	#DEBUG_VALUE: quicksort___ieee754_powf:p_l <- [RBP+-240]
	movl	$140, %edi
	callq	_KPushCDep
	movl	$4, %edi
	callq	_KWork
.Ltmp292:
	#DEBUG_VALUE: quicksort___ieee754_powf:z <- undef
	.loc	1 298 17                # quicksortlibm.c:298:17
	movss	-248(%rbp), %xmm0       # 4-byte Reload
	subss	-256(%rbp), %xmm0       # 4-byte Folded Reload
	movss	%xmm0, -248(%rbp)       # 4-byte Spill
	movl	$9, 104(%rsp)
	movl	$55, 96(%rsp)
	movl	$15, 88(%rsp)
	movl	$51, 80(%rsp)
	movl	$13, 72(%rsp)
	movl	$54, 64(%rsp)
	movl	$13, 56(%rsp)
	movl	$53, 48(%rsp)
	movl	$18, 40(%rsp)
	movl	$9, 32(%rsp)
	movl	$36, 24(%rsp)
	movl	$4, 16(%rsp)
	movl	$31, 8(%rsp)
	movl	$3, (%rsp)
	movl	$141, %edi
	movl	$9, %esi
	movl	$2, %edx
	movl	$15, %ecx
	movl	$1, %r8d
	movl	$34, %r9d
	xorl	%eax, %eax
	callq	_KTimestamp
	callq	_KPopCDep
	.loc	1 298 10 is_stmt 0      # quicksortlibm.c:298:10
	movss	-248(%rbp), %xmm0       # 4-byte Reload
	ucomiss	-240(%rbp), %xmm0       # 4-byte Folded Reload
	jae	.LBB0_95
.Ltmp293:
.LBB0_96:                               # %if.end321
	#DEBUG_VALUE: quicksort___ieee754_powf:yisint <- 0
	#DEBUG_VALUE: quicksort___ieee754_powf:j <- R12D
	#DEBUG_VALUE: quicksort___ieee754_powf:s <- [RBP+-228]
	#DEBUG_VALUE: quicksort___ieee754_powf:p_h <- [RBP+-256]
	#DEBUG_VALUE: quicksort___ieee754_powf:p_l <- [RBP+-240]
	movl	$4, %edi
	callq	_KWork
.Ltmp294:
	#DEBUG_VALUE: quicksort___ieee754_powf:n <- 0
	movl	$110, %edi
	movl	$55, %esi
	movl	$2, %edx
	callq	_KTimestamp1
	.loc	1 308 8 is_stmt 1       # quicksortlibm.c:308:8
	cmpl	$1056964609, %ebx       # imm = 0x3F000001
.Ltmp295:
	#DEBUG_VALUE: quicksort___ieee754_powf:i <- EBX
	jb	.LBB0_97
.Ltmp296:
# BB#98:                                # %if.then327
	#DEBUG_VALUE: quicksort___ieee754_powf:yisint <- 0
	#DEBUG_VALUE: quicksort___ieee754_powf:j <- R12D
	#DEBUG_VALUE: quicksort___ieee754_powf:n <- 0
	#DEBUG_VALUE: quicksort___ieee754_powf:s <- [RBP+-228]
	#DEBUG_VALUE: quicksort___ieee754_powf:p_h <- [RBP+-256]
	#DEBUG_VALUE: quicksort___ieee754_powf:p_l <- [RBP+-240]
	#DEBUG_VALUE: quicksort___ieee754_powf:i <- EBX
	.loc	1 306 9                 # quicksortlibm.c:306:9
	shrl	$23, %ebx
.Ltmp297:
	movl	$110, %edi
	callq	_KPushCDep
	movl	$19, %edi
	callq	_KWork
	.loc	1 309 31                # quicksortlibm.c:309:31
.Ltmp298:
	addl	$-126, %ebx
	movl	$8388608, %r15d         # imm = 0x800000
	.loc	1 309 15 is_stmt 0      # quicksortlibm.c:309:15
	movb	%bl, %cl
	shrl	%cl, %r15d
	.loc	1 309 9                 # quicksortlibm.c:309:9
	addl	%r12d, %r15d
.Ltmp299:
	#DEBUG_VALUE: quicksort___ieee754_powf:n <- R15D
	.loc	1 310 11 is_stmt 1      # quicksortlibm.c:310:11
	movl	%r15d, %eax
	shrl	$23, %eax
	movzbl	%al, %r13d
	.loc	1 310 9 is_stmt 0       # quicksortlibm.c:310:9
	leal	-127(%r13), %ecx
.Ltmp300:
	#DEBUG_VALUE: quicksort___ieee754_powf:k <- ECX
	movl	$8388607, %ebx          # imm = 0x7FFFFF
	.loc	1 311 5 is_stmt 1       # quicksortlibm.c:311:5
.Ltmp301:
                                        # kill: CL<def> CL<kill> ECX<kill>
.Ltmp302:
	shrl	%cl, %ebx
	notl	%ebx
	andl	%r15d, %ebx
	movl	$56, %edi
	movl	$55, %esi
	movl	$12, %edx
	callq	_KTimestamp1
	leaq	-192(%rbp), %r14
	movl	$56, %edi
	movl	$4, %edx
	movq	%r14, %rsi
	callq	_KStore
	movl	%ebx, -192(%rbp)
	movl	$57, %esi
	movl	$4, %edx
	movq	%r14, %rdi
	callq	_KLoad0
	movss	-192(%rbp), %xmm0
.Ltmp303:
	#DEBUG_VALUE: quicksort___ieee754_powf:t <- [RBP+-248]
	.loc	1 312 13                # quicksortlibm.c:312:13
	movss	%xmm0, -248(%rbp)       # 4-byte Spill
	andl	$8388607, %r15d         # imm = 0x7FFFFF
.Ltmp304:
	.loc	1 312 11 is_stmt 0      # quicksortlibm.c:312:11
	orl	$8388608, %r15d         # imm = 0x800000
	movl	$150, %ecx
	.loc	1 312 50                # quicksortlibm.c:312:50
	subl	%r13d, %ecx
	.loc	1 312 9                 # quicksortlibm.c:312:9
                                        # kill: CL<def> CL<kill> ECX<kill>
	shrl	%cl, %r15d
.Ltmp305:
	#DEBUG_VALUE: quicksort___ieee754_powf:n <- R15D
	movl	$111, %edi
	movl	$55, %esi
	movl	$3, %edx
	callq	_KTimestamp1
	movl	$109, %ebx
	movl	$109, %edi
	movl	$55, %esi
	movl	$11, %edx
	callq	_KTimestamp1
	callq	_KPopCDep
	.loc	1 313 10 is_stmt 1      # quicksortlibm.c:313:10
	testl	%r12d, %r12d
	jns	.LBB0_100
.Ltmp306:
# BB#99:                                # %if.then345
	#DEBUG_VALUE: quicksort___ieee754_powf:yisint <- 0
	#DEBUG_VALUE: quicksort___ieee754_powf:t <- [RBP+-248]
	#DEBUG_VALUE: quicksort___ieee754_powf:n <- R15D
	#DEBUG_VALUE: quicksort___ieee754_powf:s <- [RBP+-228]
	#DEBUG_VALUE: quicksort___ieee754_powf:p_h <- [RBP+-256]
	#DEBUG_VALUE: quicksort___ieee754_powf:p_l <- [RBP+-240]
	movl	$111, %edi
	callq	_KPushCDep
	movl	$1, %edi
	callq	_KWork
	.loc	1 314 11                # quicksortlibm.c:314:11
.Ltmp307:
	negl	%r15d
.Ltmp308:
	movl	$108, %ebx
	movl	$108, %edi
	movl	$55, %esi
	movl	$12, %edx
	callq	_KTimestamp1
	callq	_KPopCDep
.Ltmp309:
.LBB0_100:                              # %if.end347
	#DEBUG_VALUE: quicksort___ieee754_powf:yisint <- 0
	#DEBUG_VALUE: quicksort___ieee754_powf:t <- [RBP+-248]
	#DEBUG_VALUE: quicksort___ieee754_powf:s <- [RBP+-228]
	#DEBUG_VALUE: quicksort___ieee754_powf:p_h <- [RBP+-256]
	#DEBUG_VALUE: quicksort___ieee754_powf:p_l <- [RBP+-240]
	movl	$110, %edi
	callq	_KPushCDep
	movl	$107, %r12d
	movl	$107, %edi
	movl	$110, %edx
	movl	$111, %ecx
	movl	%ebx, %esi
	callq	_KPhi2To1
	movl	$2, %edi
	callq	_KWork
	.loc	1 315 5                 # quicksortlibm.c:315:5
	movss	-256(%rbp), %xmm0       # 4-byte Reload
	subss	-248(%rbp), %xmm0       # 4-byte Folded Reload
	movss	%xmm0, -256(%rbp)       # 4-byte Spill
	movl	$107, %edi
	movl	$107, %esi
	xorl	%edx, %edx
	callq	_KTimestamp1
	movl	$2, 88(%rsp)
	movl	$57, 80(%rsp)
	movl	$4, 72(%rsp)
	movl	$55, 64(%rsp)
	movl	$7, 56(%rsp)
	movl	$51, 48(%rsp)
	movl	$7, 40(%rsp)
	movl	$54, 32(%rsp)
	movl	$10, 24(%rsp)
	movl	$9, 16(%rsp)
	movl	$28, 8(%rsp)
	movl	$4, (%rsp)
	movl	$112, %ebx
	movl	$112, %edi
	movl	$8, %esi
	movl	$1, %edx
	movl	$26, %ecx
	movl	$3, %r8d
	movl	$23, %r9d
	xorl	%eax, %eax
	callq	_KTimestamp
	callq	_KPopCDep
	jmp	.LBB0_101
.Ltmp310:
.LBB0_97:
	#DEBUG_VALUE: quicksort___ieee754_powf:yisint <- 0
	#DEBUG_VALUE: quicksort___ieee754_powf:n <- 0
	#DEBUG_VALUE: quicksort___ieee754_powf:s <- [RBP+-228]
	#DEBUG_VALUE: quicksort___ieee754_powf:p_h <- [RBP+-256]
	#DEBUG_VALUE: quicksort___ieee754_powf:p_l <- [RBP+-240]
	xorl	%r12d, %r12d
	movl	$113, %ebx
	xorl	%r15d, %r15d
.LBB0_101:                              # %if.end349
	#DEBUG_VALUE: quicksort___ieee754_powf:yisint <- 0
	#DEBUG_VALUE: quicksort___ieee754_powf:n <- 0
	#DEBUG_VALUE: quicksort___ieee754_powf:s <- [RBP+-228]
	#DEBUG_VALUE: quicksort___ieee754_powf:p_l <- [RBP+-240]
	movl	$66, %edi
	movl	$110, %edx
	movl	%r12d, %esi
	callq	_KPhi1To1
	movl	$59, %edi
	movl	$110, %edx
	movl	%ebx, %esi
	callq	_KPhi1To1
	movl	$129, %edi
	callq	_KWork
.Ltmp311:
	#DEBUG_VALUE: quicksort___ieee754_powf:p_l <- undef
	.loc	1 317 7                 # quicksortlibm.c:317:7
	movss	-240(%rbp), %xmm0       # 4-byte Reload
.Ltmp312:
	#DEBUG_VALUE: quicksort___ieee754_powf:p_l <- [RBP+-240]
	addss	-256(%rbp), %xmm0       # 4-byte Folded Reload
.Ltmp313:
	#DEBUG_VALUE: quicksort___ieee754_powf:t <- XMM0
	movss	%xmm0, -248(%rbp)       # 4-byte Spill
.Ltmp314:
	#DEBUG_VALUE: quicksort___ieee754_powf:t <- [RBP+-248]
	movl	$2, 104(%rsp)
	movl	$59, 96(%rsp)
	movl	$11, 88(%rsp)
	movl	$51, 80(%rsp)
	movl	$9, 72(%rsp)
	movl	$54, 64(%rsp)
	movl	$9, 56(%rsp)
	movl	$53, 48(%rsp)
	movl	$14, 40(%rsp)
	movl	$9, 32(%rsp)
	movl	$32, 24(%rsp)
	movl	$4, 16(%rsp)
	movl	$27, 8(%rsp)
	movl	$3, (%rsp)
	movl	$58, %edi
	movl	$9, %esi
	movl	$2, %edx
	movl	$11, %ecx
	movl	$1, %r8d
	movl	$30, %r9d
	xorl	%eax, %eax
	callq	_KTimestamp
	leaq	-200(%rbp), %rbx
	movl	$58, %edi
	movl	$4, %edx
	movq	%rbx, %rsi
	callq	_KStore
	.loc	1 318 3                 # quicksortlibm.c:318:3
.Ltmp315:
	movss	-248(%rbp), %xmm0       # 4-byte Reload
	movss	%xmm0, -200(%rbp)
	movl	$60, %esi
	movl	$4, %edx
	movq	%rbx, %rdi
	callq	_KLoad0
	movl	$-4096, %ebx            # imm = 0xFFFFFFFFFFFFF000
.Ltmp316:
	.loc	1 319 3                 # quicksortlibm.c:319:3
	andl	-200(%rbp), %ebx
	movl	$61, %edi
	movl	$60, %esi
	movl	$1, %edx
	callq	_KTimestamp1
	leaq	-208(%rbp), %r14
	movl	$61, %edi
	movl	$4, %edx
	movq	%r14, %rsi
	callq	_KStore
	movl	%ebx, -208(%rbp)
	movl	$62, %esi
	movl	$4, %edx
	movq	%r14, %rdi
	callq	_KLoad0
	movss	-208(%rbp), %xmm0
.Ltmp317:
	#DEBUG_VALUE: quicksort___ieee754_powf:t <- XMM0
	movss	.LCPI0_23(%rip), %xmm2
.Ltmp318:
	.loc	1 320 7                 # quicksortlibm.c:320:7
	mulss	%xmm0, %xmm2
.Ltmp319:
	#DEBUG_VALUE: quicksort___ieee754_powf:u <- XMM2
	.loc	1 321 17                # quicksortlibm.c:321:17
	movaps	%xmm0, %xmm1
	subss	-256(%rbp), %xmm1       # 4-byte Folded Reload
	movss	-240(%rbp), %xmm3       # 4-byte Reload
.Ltmp320:
	#DEBUG_VALUE: quicksort___ieee754_powf:p_l <- XMM3
	.loc	1 321 9 is_stmt 0       # quicksortlibm.c:321:9
	subss	%xmm1, %xmm3
.Ltmp321:
	.loc	1 321 7                 # quicksortlibm.c:321:7
	mulss	.LCPI0_24(%rip), %xmm3
	.loc	1 321 47                # quicksortlibm.c:321:47
	mulss	.LCPI0_25(%rip), %xmm0
.Ltmp322:
	.loc	1 321 7                 # quicksortlibm.c:321:7
	addss	%xmm3, %xmm0
.Ltmp323:
	#DEBUG_VALUE: quicksort___ieee754_powf:v <- XMM0
	.loc	1 322 7 is_stmt 1       # quicksortlibm.c:322:7
	movaps	%xmm2, %xmm1
	addss	%xmm0, %xmm1
.Ltmp324:
	#DEBUG_VALUE: quicksort___ieee754_powf:z <- XMM1
	.loc	1 323 13                # quicksortlibm.c:323:13
	movaps	%xmm1, %xmm3
	subss	%xmm2, %xmm3
	.loc	1 323 7 is_stmt 0       # quicksortlibm.c:323:7
	subss	%xmm3, %xmm0
.Ltmp325:
	#DEBUG_VALUE: quicksort___ieee754_powf:w <- XMM0
	.loc	1 324 7 is_stmt 1       # quicksortlibm.c:324:7
	movaps	%xmm1, %xmm2
.Ltmp326:
	mulss	%xmm2, %xmm2
.Ltmp327:
	#DEBUG_VALUE: quicksort___ieee754_powf:t <- XMM2
	movss	.LCPI0_26(%rip), %xmm3
	.loc	1 327 24                # quicksortlibm.c:327:24
	mulss	%xmm2, %xmm3
	.loc	1 327 9 is_stmt 0       # quicksortlibm.c:327:9
	addss	.LCPI0_27(%rip), %xmm3
	.loc	1 326 72 is_stmt 1      # quicksortlibm.c:326:72
	mulss	%xmm2, %xmm3
	.loc	1 326 57 is_stmt 0      # quicksortlibm.c:326:57
	addss	.LCPI0_28(%rip), %xmm3
	.loc	1 326 51                # quicksortlibm.c:326:51
	mulss	%xmm2, %xmm3
	.loc	1 326 36                # quicksortlibm.c:326:36
	addss	.LCPI0_29(%rip), %xmm3
	.loc	1 326 30                # quicksortlibm.c:326:30
	mulss	%xmm2, %xmm3
	.loc	1 326 15                # quicksortlibm.c:326:15
	addss	.LCPI0_30(%rip), %xmm3
	.loc	1 326 9                 # quicksortlibm.c:326:9
	mulss	%xmm2, %xmm3
	.loc	1 326 5                 # quicksortlibm.c:326:5
	movaps	%xmm1, %xmm2
.Ltmp328:
	subss	%xmm3, %xmm2
.Ltmp329:
	#DEBUG_VALUE: quicksort___ieee754_powf:t1 <- XMM2
	.loc	1 328 10 is_stmt 1      # quicksortlibm.c:328:10
	movaps	%xmm1, %xmm3
	mulss	%xmm2, %xmm3
	.loc	1 328 23 is_stmt 0      # quicksortlibm.c:328:23
	addss	.LCPI0_31(%rip), %xmm2
.Ltmp330:
	.loc	1 328 8                 # quicksortlibm.c:328:8
	divss	%xmm2, %xmm3
	.loc	1 328 52                # quicksortlibm.c:328:52
	movaps	%xmm1, %xmm2
	mulss	%xmm0, %xmm2
	.loc	1 328 48                # quicksortlibm.c:328:48
	addss	%xmm0, %xmm2
	.loc	1 328 8                 # quicksortlibm.c:328:8
	subss	%xmm2, %xmm3
.Ltmp331:
	#DEBUG_VALUE: quicksort___ieee754_powf:r <- XMM3
	.loc	1 329 26 is_stmt 1      # quicksortlibm.c:329:26
	subss	%xmm1, %xmm3
.Ltmp332:
	movss	.LCPI0_0(%rip), %xmm0
.Ltmp333:
	.loc	1 329 8 is_stmt 0       # quicksortlibm.c:329:8
	subss	%xmm3, %xmm0
.Ltmp334:
	#DEBUG_VALUE: quicksort___ieee754_powf:z <- XMM0
	movss	%xmm0, -240(%rbp)       # 4-byte Spill
.Ltmp335:
	#DEBUG_VALUE: quicksort___ieee754_powf:z <- [RBP+-240]
	movl	$84, 120(%rsp)
	movl	$59, 112(%rsp)
	movl	$91, 104(%rsp)
	movl	$51, 96(%rsp)
	movl	$89, 88(%rsp)
	movl	$54, 80(%rsp)
	movl	$89, 72(%rsp)
	movl	$53, 64(%rsp)
	movl	$84, 56(%rsp)
	movl	$62, 48(%rsp)
	movl	$94, 40(%rsp)
	movl	$9, 32(%rsp)
	movl	$112, 24(%rsp)
	movl	$4, 16(%rsp)
	movl	$107, 8(%rsp)
	movl	$3, (%rsp)
	movl	$63, %edi
	movl	$10, %esi
	movl	$2, %edx
	movl	$91, %ecx
	movl	$1, %r8d
	movl	$110, %r9d
	xorl	%eax, %eax
	callq	_KTimestamp
	leaq	-216(%rbp), %rbx
	movl	$63, %edi
	movl	$4, %edx
	movq	%rbx, %rsi
	callq	_KStore
	.loc	1 330 3 is_stmt 1       # quicksortlibm.c:330:3
.Ltmp336:
	movss	-240(%rbp), %xmm0       # 4-byte Reload
	movss	%xmm0, -216(%rbp)
	#DEBUG_VALUE: quicksort___ieee754_powf:z <- [RBP+-240]
	movl	$64, %esi
	movl	$4, %edx
	movq	%rbx, %rdi
	callq	_KLoad0
.Ltmp337:
	.loc	1 331 10                # quicksortlibm.c:331:10
	movl	%r15d, %ebx
	shll	$23, %ebx
	.loc	1 331 3 is_stmt 0       # quicksortlibm.c:331:3
	addl	-216(%rbp), %ebx
.Ltmp338:
	#DEBUG_VALUE: quicksort___ieee754_powf:j <- EBX
	.loc	1 332 10 is_stmt 1      # quicksortlibm.c:332:10
	movl	%ebx, %r14d
	sarl	$23, %r14d
	movl	$67, %edi
	movl	$64, %esi
	movl	$1, %edx
	movl	$66, %ecx
	movl	$2, %r8d
	callq	_KTimestamp2
	movl	$66, %edi
	movl	$66, %esi
	xorl	%edx, %edx
	callq	_KTimestamp1
	movl	$115, %edi
	movl	$64, %esi
	movl	$3, %edx
	movl	$66, %ecx
	movl	$4, %r8d
	callq	_KTimestamp2
	movl	$115, %edi
	callq	_KPushCDep
.Ltmp339:
	.loc	1 332 8 is_stmt 0       # quicksortlibm.c:332:8
	testl	%r14d, %r14d
	jle	.LBB0_102
.Ltmp340:
# BB#103:                               # %if.else396
	#DEBUG_VALUE: quicksort___ieee754_powf:yisint <- 0
	#DEBUG_VALUE: quicksort___ieee754_powf:j <- EBX
	#DEBUG_VALUE: quicksort___ieee754_powf:n <- 0
	#DEBUG_VALUE: quicksort___ieee754_powf:s <- [RBP+-228]
	movl	$5, %edi
	callq	_KWork
	leaq	-224(%rbp), %r15
	movl	$67, %edi
	movl	$4, %edx
	movq	%r15, %rsi
	callq	_KStore
	.loc	1 335 5 is_stmt 1       # quicksortlibm.c:335:5
.Ltmp341:
	movl	%ebx, -224(%rbp)
	movl	$68, %ebx
.Ltmp342:
	movl	$68, %esi
	movl	$4, %edx
	movq	%r15, %rdi
	callq	_KLoad0
	movss	-224(%rbp), %xmm0
	#DEBUG_VALUE: quicksort___ieee754_powf:z <- [RBP+-240]
	movss	%xmm0, -240(%rbp)       # 4-byte Spill
	movl	$68, %edi
	movl	$68, %esi
	jmp	.LBB0_104
.Ltmp343:
.LBB0_73:
	#DEBUG_VALUE: quicksort___ieee754_powf:yisint <- 0
	movss	.LCPI0_33(%rip), %xmm0
.LBB0_75:                               # %if.then109
	movss	%xmm0, -228(%rbp)       # 4-byte Spill
	#DEBUG_VALUE: quicksort___ieee754_powf:yisint <- 0
	movl	$6, 16(%rsp)
	movl	$9, 8(%rsp)
	movl	$24, (%rsp)
	movl	$123, %edi
	movl	$1, %esi
	movl	$22, %edx
	movl	$3, %ecx
	movl	$19, %r8d
	movl	$4, %r9d
	callq	_KTimestamp4
	callq	_KPopCDep
	movl	$123, %eax
	movq	%rax, -248(%rbp)        # 8-byte Spill
	movl	$104, %ecx
	movl	$82, %r8d
	movl	$130, %eax
	movq	%rax, -240(%rbp)        # 8-byte Spill
	movl	$132, %r9d
	movl	$134, %eax
	movq	%rax, -288(%rbp)        # 8-byte Spill
	movl	$135, %eax
	movq	%rax, -280(%rbp)        # 8-byte Spill
	movl	$92, %r13d
	movl	$105, %eax
	movl	$106, %edi
	xorl	%edx, %edx
	movq	%rdx, -296(%rbp)        # 8-byte Spill
	movl	$75, %edx
	movq	%rdx, -264(%rbp)        # 8-byte Spill
	movl	$142, -268(%rbp)        # 4-byte Folded Spill
	movl	$143, -256(%rbp)        # 4-byte Folded Spill
	movl	$0, %r11d
	movl	$0, %r10d
	movl	$0, %esi
	movl	$0, %edx
	movq	%rdx, -304(%rbp)        # 8-byte Spill
.LBB0_70:                               # %return
	movl	$0, %r12d
	movl	$0, %r15d
	movl	$0, %r14d
	movl	$0, %ebx
	jmp	.LBB0_105
.LBB0_102:                              # %if.then394
	#DEBUG_VALUE: quicksort___ieee754_powf:yisint <- 0
	#DEBUG_VALUE: quicksort___ieee754_powf:z <- [RBP+-240]
	#DEBUG_VALUE: quicksort___ieee754_powf:n <- 0
	#DEBUG_VALUE: quicksort___ieee754_powf:s <- [RBP+-228]
	movabsq	$9120099101840153020, %rdi # imm = 0x7E9119D0118A99BC
	xorl	%esi, %esi
	callq	_KPrepCall
	movl	$66, %edi
	callq	_KEnqArg
	movl	$63, %edi
	callq	_KEnqArg
	movl	$65, %ebx
	movl	$65, %edi
	callq	_KLinkReturn
	.loc	1 333 9                 # quicksortlibm.c:333:9
	movss	-240(%rbp), %xmm0       # 4-byte Reload
	movl	%r15d, %edi
	callq	quicksort___scalbnf
	movss	%xmm0, -240(%rbp)       # 4-byte Spill
	#DEBUG_VALUE: quicksort___ieee754_powf:z <- [RBP+-240]
	movl	$65, %edi
	movl	$65, %esi
.Ltmp344:
.LBB0_104:                              # %if.end400
	xorl	%edx, %edx
	callq	_KTimestamp1
	callq	_KPopCDep
	#DEBUG_VALUE: quicksort___ieee754_powf:yisint <- 0
	#DEBUG_VALUE: quicksort___ieee754_powf:n <- 0
	#DEBUG_VALUE: quicksort___ieee754_powf:s <- [RBP+-228]
	movl	$114, %edi
	movl	$115, %edx
	movl	%ebx, %esi
	callq	_KPhi1To1
	movl	$5, %edi
	callq	_KWork
.Ltmp345:
	#DEBUG_VALUE: quicksort___ieee754_powf:s <- undef
	.loc	1 337 11                # quicksortlibm.c:337:11
	movss	-228(%rbp), %xmm0       # 4-byte Reload
	mulss	-240(%rbp), %xmm0       # 4-byte Folded Reload
	movss	%xmm0, -228(%rbp)       # 4-byte Spill
	movl	$5, 32(%rsp)
	movl	$114, 24(%rsp)
	movl	$12, 16(%rsp)
	movl	$9, 8(%rsp)
	movl	$30, (%rsp)
	movl	$126, %edi
	movl	$1, %esi
	movl	$28, %edx
	movl	$3, %ecx
	movl	$25, %r8d
	movl	$4, %r9d
	callq	_KTimestamp5
	movl	$126, %eax
	movq	%rax, -248(%rbp)        # 8-byte Spill
	movl	$104, %ecx
	movl	$82, %r8d
	movl	$130, %eax
	movq	%rax, -240(%rbp)        # 8-byte Spill
	movl	$136, %r15d
	movl	$132, %r9d
	movl	$134, %eax
	movq	%rax, -288(%rbp)        # 8-byte Spill
	movl	$135, %eax
	movq	%rax, -280(%rbp)        # 8-byte Spill
	movl	$92, %r13d
	movl	$137, %eax
	movq	%rax, -304(%rbp)        # 8-byte Spill
	xorl	%eax, %eax
	movq	%rax, -296(%rbp)        # 8-byte Spill
	movl	$75, %eax
	movq	%rax, -264(%rbp)        # 8-byte Spill
	movl	$142, -268(%rbp)        # 4-byte Folded Spill
	movl	$143, -256(%rbp)        # 4-byte Folded Spill
	movl	$0, %r11d
	movl	$0, %r10d
	movl	$0, %esi
	movl	$0, %edi
	movl	$0, %eax
	movl	$0, %r12d
	movl	$0, %r14d
	xorl	%ebx, %ebx
	jmp	.LBB0_105
.LBB0_95:                               # %if.then314
	#DEBUG_VALUE: quicksort___ieee754_powf:yisint <- 0
.Ltmp346:
	#DEBUG_VALUE: quicksort___ieee754_powf:s <- [RBP+-228]
	movl	$141, %edi
	callq	_KPushCDep
	movl	$10, %edi
	callq	_KWork
	movss	.LCPI0_21(%rip), %xmm0
	movss	-228(%rbp), %xmm1       # 4-byte Reload
.Ltmp347:
	#DEBUG_VALUE: quicksort___ieee754_powf:s <- XMM1
	.loc	1 299 15                # quicksortlibm.c:299:15
	mulss	%xmm0, %xmm1
.Ltmp348:
	mulss	%xmm0, %xmm1
	movss	%xmm1, -228(%rbp)       # 4-byte Spill
	movl	$19, 104(%rsp)
	movl	$55, 96(%rsp)
	movl	$25, 88(%rsp)
	movl	$51, 80(%rsp)
	movl	$23, 72(%rsp)
	movl	$54, 64(%rsp)
	movl	$23, 56(%rsp)
	movl	$53, 48(%rsp)
	movl	$28, 40(%rsp)
	movl	$9, 32(%rsp)
	movl	$46, 24(%rsp)
	movl	$4, 16(%rsp)
	movl	$41, 8(%rsp)
	movl	$3, (%rsp)
	movl	$128, %edi
	movl	$9, %esi
	movl	$2, %edx
	movl	$25, %ecx
	movl	$1, %r8d
	movl	$44, %r9d
	xorl	%eax, %eax
	callq	_KTimestamp
	callq	_KPopCDep
	movl	$128, %eax
	movq	%rax, -248(%rbp)        # 8-byte Spill
	movl	$104, %ecx
	movl	$82, %r8d
	movl	$130, %eax
	movq	%rax, -240(%rbp)        # 8-byte Spill
	movl	$136, %r15d
	movl	$132, %r9d
	movl	$134, %eax
	movq	%rax, -288(%rbp)        # 8-byte Spill
	movl	$135, %eax
	movq	%rax, -280(%rbp)        # 8-byte Spill
	movl	$92, %r13d
	movl	$137, %eax
	movq	%rax, -304(%rbp)        # 8-byte Spill
	movl	$139, %r10d
	movl	$75, %eax
	movq	%rax, -264(%rbp)        # 8-byte Spill
	movl	$142, -268(%rbp)        # 4-byte Folded Spill
	movl	$143, -256(%rbp)        # 4-byte Folded Spill
	movl	$0, %edi
	movl	$0, %eax
	movl	$0, %r12d
	movl	$0, %r14d
	movl	$0, %ebx
	movl	$141, %edx
	movq	%rdx, -296(%rbp)        # 8-byte Spill
	xorl	%esi, %esi
	movl	$140, %r11d
	jmp	.LBB0_105
.Ltmp349:
.Ltmp350:
	.size	quicksort___ieee754_powf, .Ltmp350-quicksort___ieee754_powf
.Lfunc_end0:
	.cfi_endproc

	.globl	quicksort___isinff
	.align	16, 0x90
	.type	quicksort___isinff,@function
quicksort___isinff:                     # @quicksort___isinff
.Lfunc_begin1:
	.loc	1 1119 0                # quicksortlibm.c:1119:0
	.cfi_startproc
# BB#0:                                 # %entry
	pushq	%rbp
.Ltmp351:
	.cfi_def_cfa_offset 16
.Ltmp352:
	.cfi_offset %rbp, -16
	movq	%rsp, %rbp
.Ltmp353:
	.cfi_def_cfa_register %rbp
	pushq	%r14
	pushq	%rbx
	subq	$16, %rsp
.Ltmp354:
	.cfi_offset %rbx, -32
.Ltmp355:
	.cfi_offset %r14, -24
	#DEBUG_VALUE: quicksort___isinff:x <- XMM0
	movss	%xmm0, -28(%rbp)        # 4-byte Spill
.Ltmp356:
	#DEBUG_VALUE: quicksort___isinff:x <- [RBP+-28]
	movabsq	$2206518859589336894, %r14 # imm = 0x1E9F21365005BF3E
	xorl	%esi, %esi
	movq	%r14, %rdi
	callq	_KEnterRegion
	movl	$4, %edi
	xorl	%esi, %esi
	callq	_KPrepRTable
	movl	$13, %edi
	callq	_KWork
	movl	$1, %edi
	callq	_KDeqArg
	movl	$1, %edi
	movl	$1, %esi
	xorl	%edx, %edx
	callq	_KTimestamp1
	leaq	-24(%rbp), %rbx
	movl	$1, %edi
	movl	$4, %edx
	movq	%rbx, %rsi
	callq	_KStore
	.loc	1 1123 3 prologue_end   # quicksortlibm.c:1123:3
.Ltmp357:
	movss	-28(%rbp), %xmm0        # 4-byte Reload
	movss	%xmm0, -24(%rbp)
	movl	$2, %esi
	movl	$4, %edx
	movq	%rbx, %rdi
	callq	_KLoad0
	movl	-24(%rbp), %ebx
.Ltmp358:
	#DEBUG_VALUE: quicksort___isinff:ix <- EBX
	.loc	1 1124 7                # quicksortlibm.c:1124:7
	movl	%ebx, %eax
	andl	$2147483647, %eax       # imm = 0x7FFFFFFF
.Ltmp359:
	#DEBUG_VALUE: quicksort___isinff:t <- EAX
	.loc	1 1125 3                # quicksortlibm.c:1125:3
	xorl	$-2139095041, %eax      # imm = 0xFFFFFFFF807FFFFF
.Ltmp360:
	.loc	1 1126 8                # quicksortlibm.c:1126:8
	incl	%eax
	.loc	1 1127 14               # quicksortlibm.c:1127:14
	sarl	$31, %eax
	.loc	1 1127 11 is_stmt 0     # quicksortlibm.c:1127:11
	notl	%eax
	.loc	1 1127 28               # quicksortlibm.c:1127:28
	sarl	$30, %ebx
.Ltmp361:
	.loc	1 1127 11               # quicksortlibm.c:1127:11
	andl	%eax, %ebx
	movl	$3, %edi
	movl	$2, %esi
	movl	$7, %edx
	callq	_KTimestamp1
	movl	$3, %edi
	callq	_KReturn
	xorl	%esi, %esi
	movq	%r14, %rdi
	callq	_KExitRegion
	.loc	1 1127 3                # quicksortlibm.c:1127:3
	movl	%ebx, %eax
	addq	$16, %rsp
	popq	%rbx
	popq	%r14
	popq	%rbp
	retq
.Ltmp362:
.Ltmp363:
	.size	quicksort___isinff, .Ltmp363-quicksort___isinff
.Lfunc_end1:
	.cfi_endproc

	.globl	quicksort___ieee754_sqrtf
	.align	16, 0x90
	.type	quicksort___ieee754_sqrtf,@function
quicksort___ieee754_sqrtf:              # @quicksort___ieee754_sqrtf
.Lfunc_begin2:
	.loc	1 362 0 is_stmt 1       # quicksortlibm.c:362:0
	.cfi_startproc
# BB#0:                                 # %entry
	pushq	%rbp
.Ltmp364:
	.cfi_def_cfa_offset 16
.Ltmp365:
	.cfi_offset %rbp, -16
	movq	%rsp, %rbp
.Ltmp366:
	.cfi_def_cfa_register %rbp
	pushq	%r15
	pushq	%r14
	pushq	%r13
	pushq	%r12
	pushq	%rbx
	subq	$104, %rsp
.Ltmp367:
	.cfi_offset %rbx, -56
.Ltmp368:
	.cfi_offset %r12, -48
.Ltmp369:
	.cfi_offset %r13, -40
.Ltmp370:
	.cfi_offset %r14, -32
.Ltmp371:
	.cfi_offset %r15, -24
	#DEBUG_VALUE: quicksort___ieee754_sqrtf:x <- XMM0
	movss	%xmm0, -64(%rbp)        # 4-byte Spill
.Ltmp372:
	#DEBUG_VALUE: quicksort___ieee754_sqrtf:x <- [RBP+-64]
	#DEBUG_VALUE: quicksort___ieee754_sqrtf:x <- undef
	movabsq	$6462360663831658816, %r12 # imm = 0x59AEEAC8E224C140
	xorl	%r15d, %r15d
	xorl	%esi, %esi
	movq	%r12, %rdi
	callq	_KEnterRegion
	movl	$46, %edi
	movl	$2, %esi
	callq	_KPrepRTable
	movl	$7, %edi
	callq	_KWork
	movl	$1, %edi
	callq	_KDeqArg
.Ltmp373:
	#DEBUG_VALUE: quicksort___ieee754_sqrtf:sign <- -2147483648
	movl	$1, %edi
	movl	$1, %esi
	xorl	%edx, %edx
	callq	_KTimestamp1
	leaq	-48(%rbp), %rbx
	movl	$1, %edi
	movl	$4, %edx
	movq	%rbx, %rsi
	callq	_KStore
	.loc	1 369 3 prologue_end    # quicksortlibm.c:369:3
.Ltmp374:
	movss	-64(%rbp), %xmm0        # 4-byte Reload
	movss	%xmm0, -48(%rbp)
.Ltmp375:
	#DEBUG_VALUE: quicksort___ieee754_sqrtf:x <- [RBP+-64]
	movl	$2, %esi
	movl	$4, %edx
	movq	%rbx, %rdi
	callq	_KLoad0
	movl	-48(%rbp), %r13d
.Ltmp376:
	#DEBUG_VALUE: quicksort___ieee754_sqrtf:ix <- R13D
	.loc	1 372 10                # quicksortlibm.c:372:10
	movl	%r13d, %ebx
	andl	$2139095040, %ebx       # imm = 0x7F800000
	movl	$43, %edi
	movl	$2, %esi
	movl	$2, %edx
	callq	_KTimestamp1
	movl	$2, %edi
	movl	$2, %esi
	xorl	%edx, %edx
	callq	_KTimestamp1
	movl	$43, %edi
	callq	_KPushCDep
.Ltmp377:
	.loc	1 372 8 is_stmt 0       # quicksortlibm.c:372:8
	cmpl	$2139095040, %ebx       # imm = 0x7F800000
	jne	.LBB2_2
.Ltmp378:
# BB#1:                                 # %if.then
	#DEBUG_VALUE: quicksort___ieee754_sqrtf:x <- [RBP+-64]
	#DEBUG_VALUE: quicksort___ieee754_sqrtf:sign <- -2147483648
	movl	$7, %edi
	callq	_KWork
	movss	-64(%rbp), %xmm1        # 4-byte Reload
.Ltmp379:
	#DEBUG_VALUE: quicksort___ieee754_sqrtf:x <- XMM1
	.loc	1 373 13 is_stmt 1      # quicksortlibm.c:373:13
	movaps	%xmm1, %xmm0
	mulss	%xmm0, %xmm0
	addss	%xmm0, %xmm1
.Ltmp380:
	movss	%xmm1, -64(%rbp)        # 4-byte Spill
	movl	$41, %r14d
	movl	$41, %edi
	movl	$1, %esi
	movl	$7, %edx
	movl	$2, %ecx
	movl	$9, %r8d
	callq	_KTimestamp2
	callq	_KPopCDep
	xorl	%ebx, %ebx
	xorl	%r13d, %r13d
	jmp	.LBB2_25
.Ltmp381:
.LBB2_2:                                # %if.end
	#DEBUG_VALUE: quicksort___ieee754_sqrtf:x <- [RBP+-64]
	#DEBUG_VALUE: quicksort___ieee754_sqrtf:sign <- -2147483648
	#DEBUG_VALUE: quicksort___ieee754_sqrtf:ix <- R13D
	movl	$1, %edi
	callq	_KWork
	movl	$2, %r12d
	movl	$15, %edi
	movl	$2, %esi
	movl	$3, %edx
	callq	_KTimestamp1
	callq	_KPopCDep
	.loc	1 377 8                 # quicksortlibm.c:377:8
	testl	%r13d, %r13d
	jg	.LBB2_7
.Ltmp382:
# BB#3:                                 # %if.then2
	#DEBUG_VALUE: quicksort___ieee754_sqrtf:x <- [RBP+-64]
	#DEBUG_VALUE: quicksort___ieee754_sqrtf:sign <- -2147483648
	#DEBUG_VALUE: quicksort___ieee754_sqrtf:ix <- R13D
	movl	%r13d, %r14d
.Ltmp383:
	#DEBUG_VALUE: quicksort___ieee754_sqrtf:ix <- R14D
	movl	$15, %r13d
	movl	$15, %edi
	callq	_KPushCDep
	movl	$2, %edi
	callq	_KWork
	movl	$44, %ebx
	movl	$44, %edi
	movl	$2, %esi
	movl	$5, %edx
	callq	_KTimestamp1
	callq	_KPopCDep
	movl	$44, %edi
	callq	_KPushCDep
	.loc	1 378 10                # quicksortlibm.c:378:10
.Ltmp384:
	testl	$2147483647, %r14d      # imm = 0x7FFFFFFF
	je	.LBB2_4
.Ltmp385:
# BB#5:                                 # %if.else
	#DEBUG_VALUE: quicksort___ieee754_sqrtf:x <- [RBP+-64]
	#DEBUG_VALUE: quicksort___ieee754_sqrtf:sign <- -2147483648
	#DEBUG_VALUE: quicksort___ieee754_sqrtf:ix <- R14D
	movl	$1, %edi
	callq	_KWork
	movl	$45, %r15d
	movl	$45, %edi
	movl	$2, %esi
	movl	$6, %edx
	callq	_KTimestamp1
	callq	_KPopCDep
	.loc	1 382 10                # quicksortlibm.c:382:10
.Ltmp386:
	testl	%r14d, %r14d
	movl	%r14d, %r13d
.Ltmp387:
	#DEBUG_VALUE: quicksort___ieee754_sqrtf:ix <- R13D
	js	.LBB2_6
.Ltmp388:
.LBB2_7:                                # %if.end11
	#DEBUG_VALUE: quicksort___ieee754_sqrtf:sign <- -2147483648
	#DEBUG_VALUE: quicksort___ieee754_sqrtf:ix <- R13D
	movl	$15, %edi
	callq	_KPushCDep
	movl	$2, %edi
	callq	_KWork
	.loc	1 387 9                 # quicksortlibm.c:387:9
	movl	%r13d, %ebx
	sarl	$23, %ebx
.Ltmp389:
	#DEBUG_VALUE: quicksort___ieee754_sqrtf:m <- EBX
	movl	$10, %edi
	movl	$2, %esi
	movl	$5, %edx
	callq	_KTimestamp1
	movl	$14, %r14d
	movl	$14, %edi
	movl	$2, %esi
	movl	$4, %edx
	callq	_KTimestamp1
	callq	_KPopCDep
	.loc	1 388 8                 # quicksortlibm.c:388:8
	testl	%ebx, %ebx
	jne	.LBB2_12
.Ltmp390:
# BB#8:                                 # %if.then13
	#DEBUG_VALUE: quicksort___ieee754_sqrtf:sign <- -2147483648
	#DEBUG_VALUE: quicksort___ieee754_sqrtf:ix <- R13D
	movabsq	$7076553978141425427, %rbx # imm = 0x6234F85994FF3F13
	movl	$10, %edi
	callq	_KPushCDep
.Ltmp391:
	#DEBUG_VALUE: quicksort___ieee754_sqrtf:i <- 0
	movl	$12, %edi
	callq	_KInduction
	callq	_KPopCDep
	movl	$1, %esi
	movq	%rbx, %rdi
	callq	_KEnterRegion
	xorl	%r12d, %r12d
	movl	$2, %ebx
	movabsq	$-7875609702179397769, %r15 # imm = 0x92B436B3DFFA1F77
	xorl	%r14d, %r14d
	jmp	.LBB2_9
.Ltmp392:
	.align	16, 0x90
.LBB2_10:                               # %for.body
                                        #   in Loop: Header=BB2_9 Depth=1
	#DEBUG_VALUE: quicksort___ieee754_sqrtf:sign <- -2147483648
	#DEBUG_VALUE: quicksort___ieee754_sqrtf:i <- 0
	movl	$2, %esi
	movq	%r15, %rdi
	callq	_KEnterRegion
	movl	$11, %r12d
	movl	$11, %edi
	callq	_KPushCDep
	movl	$1, %edi
	callq	_KWork
	.loc	1 391 7                 # quicksortlibm.c:391:7
.Ltmp393:
	addl	%r13d, %r13d
.Ltmp394:
	#DEBUG_VALUE: quicksort___ieee754_sqrtf:ix <- R13D
	.loc	1 390 44                # quicksortlibm.c:390:44
	incl	%r14d
.Ltmp395:
	#DEBUG_VALUE: quicksort___ieee754_sqrtf:i <- R14D
	movl	$9, %ebx
	movl	$9, %edi
	movl	$8, %esi
	movl	$1, %edx
	movl	$11, %ecx
	movl	$1, %r8d
	callq	_KTimestamp2
	callq	_KPopCDep
	movl	$2, %esi
	movq	%r15, %rdi
	callq	_KExitRegion
.Ltmp396:
.LBB2_9:                                # %for.cond
                                        # =>This Inner Loop Header: Depth=1
	#DEBUG_VALUE: quicksort___ieee754_sqrtf:sign <- -2147483648
	#DEBUG_VALUE: quicksort___ieee754_sqrtf:i <- 0
	movl	$10, %edi
	callq	_KPushCDep
	movl	$8, %edi
	movl	$10, %edx
	movl	%ebx, %esi
	movl	%r12d, %ecx
	callq	_KPhi2To1
	movl	$2, %edi
	callq	_KWork
	movl	$8, %edi
	movl	$8, %esi
	xorl	%edx, %edx
	callq	_KTimestamp1
	movl	$11, %edi
	movl	$10, %esi
	movl	$2, %edx
	movl	$8, %ecx
	movl	$2, %r8d
	callq	_KTimestamp2
	movl	$8, %edi
	movl	$11, %esi
	callq	_KPhiAddCond
	callq	_KPopCDep
	.loc	1 390 5 is_stmt 0       # quicksortlibm.c:390:5
	testl	$8388608, %r13d         # imm = 0x800000
	je	.LBB2_10
.Ltmp397:
# BB#11:                                # %for.cond.pre_exit.for.end
	#DEBUG_VALUE: quicksort___ieee754_sqrtf:sign <- -2147483648
	#DEBUG_VALUE: quicksort___ieee754_sqrtf:i <- 0
	movl	$1, %esi
	movabsq	$7076553978141425427, %rdi # imm = 0x6234F85994FF3F13
	movl	$1, %ebx
	callq	_KExitRegion
	movl	$10, %edi
	callq	_KPushCDep
	movl	$2, %edi
	callq	_KWork
	.loc	1 392 5 is_stmt 1       # quicksortlibm.c:392:5
	subl	%r14d, %ebx
.Ltmp398:
	#DEBUG_VALUE: quicksort___ieee754_sqrtf:m <- EBX
	movl	$13, %r14d
	movl	$13, %edi
	movl	$12, %esi
	movl	$2, %edx
	movl	$2, %ecx
	movl	$7, %r8d
	callq	_KTimestamp2
	callq	_KPopCDep
	movl	$8, %r12d
.Ltmp399:
.LBB2_12:                               # %if.end18
	#DEBUG_VALUE: quicksort___ieee754_sqrtf:sign <- -2147483648
	movl	$15, %edi
	callq	_KPushCDep
	movl	$16, %edi
	movl	$15, %edx
	movl	$10, %ecx
	movl	%r12d, %esi
	callq	_KPhi2To1
	movl	$4, %edi
	movl	$15, %edx
	movl	$10, %ecx
	movl	%r14d, %esi
	callq	_KPhi2To1
	movl	$5, %edi
	callq	_KWork
	.loc	1 394 3                 # quicksortlibm.c:394:3
	addl	$-127, %ebx
.Ltmp400:
	#DEBUG_VALUE: quicksort___ieee754_sqrtf:m <- EBX
	.loc	1 395 10                # quicksortlibm.c:395:10
	andl	$8388607, %r13d         # imm = 0x7FFFFF
	.loc	1 395 8 is_stmt 0       # quicksortlibm.c:395:8
	orl	$8388608, %r13d         # imm = 0x800000
.Ltmp401:
	#DEBUG_VALUE: quicksort___ieee754_sqrtf:ix <- R13D
	movl	$19, %r14d
	movl	$19, %edi
	movl	$16, %esi
	movl	$2, %edx
	movl	$2, %ecx
	movl	$5, %r8d
	callq	_KTimestamp2
	movl	$20, %edi
	movl	$4, %esi
	movl	$3, %edx
	movl	$2, %ecx
	movl	$6, %r8d
	callq	_KTimestamp2
	callq	_KPopCDep
	.loc	1 396 8 is_stmt 1       # quicksortlibm.c:396:8
	testb	$1, %bl
	movabsq	$1686165705869508592, %r12 # imm = 0x176676C69ACC3FF0
	je	.LBB2_13
.Ltmp402:
# BB#14:                                # %if.then22
	#DEBUG_VALUE: quicksort___ieee754_sqrtf:sign <- -2147483648
	#DEBUG_VALUE: quicksort___ieee754_sqrtf:ix <- R13D
	#DEBUG_VALUE: quicksort___ieee754_sqrtf:m <- EBX
	movq	%rbx, -96(%rbp)         # 8-byte Spill
.Ltmp403:
	#DEBUG_VALUE: quicksort___ieee754_sqrtf:m <- [RBP+-96]
	movl	$20, %edi
	callq	_KPushCDep
	movl	$1, %edi
	callq	_KWork
	.loc	1 397 5                 # quicksortlibm.c:397:5
.Ltmp404:
	addl	%r13d, %r13d
.Ltmp405:
	movl	$7, (%rsp)
	movl	$18, %r14d
	movl	$18, %edi
	movl	$4, %esi
	movl	$4, %edx
	movl	$16, %ecx
	movl	$3, %r8d
	movl	$2, %r9d
	callq	_KTimestamp3
	callq	_KPopCDep
	jmp	.LBB2_15
.Ltmp406:
.LBB2_13:
	#DEBUG_VALUE: quicksort___ieee754_sqrtf:sign <- -2147483648
	#DEBUG_VALUE: quicksort___ieee754_sqrtf:ix <- R13D
	#DEBUG_VALUE: quicksort___ieee754_sqrtf:m <- EBX
	movq	%rbx, -96(%rbp)         # 8-byte Spill
.Ltmp407:
	#DEBUG_VALUE: quicksort___ieee754_sqrtf:m <- [RBP+-96]
.LBB2_15:                               # %if.end24
	#DEBUG_VALUE: quicksort___ieee754_sqrtf:sign <- -2147483648
	#DEBUG_VALUE: quicksort___ieee754_sqrtf:m <- [RBP+-96]
	movl	$15, %edi
	callq	_KPushCDep
	movl	$17, %edi
	movl	$15, %edx
	movl	$20, %ecx
	movl	%r14d, %esi
	callq	_KPhi2To1
	movl	$1, %edi
	callq	_KWork
.Ltmp408:
	#DEBUG_VALUE: quicksort___ieee754_sqrtf:r <- 16777216
	#DEBUG_VALUE: quicksort___ieee754_sqrtf:q <- 0
	#DEBUG_VALUE: quicksort___ieee754_sqrtf:s <- 0
	movl	$28, %r15d
	movl	$28, %edi
	movl	$17, %esi
	movl	$1, %edx
	movl	$2, %ecx
	movl	$4, %r8d
	callq	_KTimestamp2
	callq	_KPopCDep
	movl	$1, %esi
	movq	%r12, %rdi
	callq	_KEnterRegion
	movl	$16777216, %eax         # imm = 0x1000000
	movq	%rax, -64(%rbp)         # 8-byte Spill
	xorl	%ebx, %ebx
	xorl	%r14d, %r14d
	xorl	%eax, %eax
	movq	%rax, -88(%rbp)         # 8-byte Spill
	movl	$0, -68(%rbp)           # 4-byte Folded Spill
	xorl	%eax, %eax
	movq	%rax, -80(%rbp)         # 8-byte Spill
	xorl	%r12d, %r12d
	jmp	.LBB2_16
	.align	16, 0x90
.LBB2_20:                               # %if.end34
                                        #   in Loop: Header=BB2_16 Depth=1
	#DEBUG_VALUE: quicksort___ieee754_sqrtf:sign <- -2147483648
	#DEBUG_VALUE: quicksort___ieee754_sqrtf:m <- [RBP+-96]
	#DEBUG_VALUE: quicksort___ieee754_sqrtf:s <- 0
	#DEBUG_VALUE: quicksort___ieee754_sqrtf:q <- 0
	#DEBUG_VALUE: quicksort___ieee754_sqrtf:r <- 16777216
	movl	$23, %ebx
	movl	$23, %edi
	callq	_KPushCDep
	movl	$30, %edi
	movl	$23, %edx
	movl	$33, %ecx
	movl	%r14d, %esi
	callq	_KPhi2To1
	movl	$26, -68(%rbp)          # 4-byte Folded Spill
	movl	$26, %edi
	movl	$23, %edx
	movl	$33, %ecx
	movl	%r15d, %esi
	callq	_KPhi2To1
	movl	$22, %r14d
	movl	$22, %edi
	movl	$23, %edx
	movl	$33, %ecx
	movl	%r12d, %esi
	callq	_KPhi2To1
	movl	$2, %edi
	callq	_KWork
	.loc	1 414 5                 # quicksortlibm.c:414:5
.Ltmp409:
	movq	-64(%rbp), %rax         # 8-byte Reload
	shrl	%eax
.Ltmp410:
	#DEBUG_VALUE: quicksort___ieee754_sqrtf:r <- [RBP+-64]
	movq	%rax, -64(%rbp)         # 8-byte Spill
	movl	$26, %edi
	movl	$26, %esi
	xorl	%edx, %edx
	callq	_KTimestamp1
	movl	$22, %edi
	movl	$22, %esi
	xorl	%edx, %edx
	callq	_KTimestamp1
	movl	$31, %r12d
	movl	$31, %edi
	movl	$24, %esi
	movl	$1, %edx
	movl	$23, %ecx
	movl	$1, %r8d
	callq	_KTimestamp2
	movl	$29, %r15d
	movl	$29, %edi
	movl	$23, %esi
	movl	$1, %edx
	movl	$30, %ecx
	movl	$1, %r8d
	callq	_KTimestamp2
	callq	_KPopCDep
	movl	$2, %esi
	movabsq	$5034427988374457111, %rdi # imm = 0x45DDE194F6580B17
	callq	_KExitRegion
.Ltmp411:
.LBB2_16:                               # %while.cond
                                        # =>This Inner Loop Header: Depth=1
	#DEBUG_VALUE: quicksort___ieee754_sqrtf:sign <- -2147483648
	#DEBUG_VALUE: quicksort___ieee754_sqrtf:m <- [RBP+-96]
	#DEBUG_VALUE: quicksort___ieee754_sqrtf:s <- 0
	#DEBUG_VALUE: quicksort___ieee754_sqrtf:q <- 0
	#DEBUG_VALUE: quicksort___ieee754_sqrtf:r <- 16777216
	movl	$15, %edi
	callq	_KPushCDep
	movl	$27, %edi
	movl	$15, %edx
	movl	%r15d, %esi
	movl	%ebx, %ecx
	callq	_KPhi2To1
	movl	$21, %edi
	movl	$15, %edx
	movl	%r14d, %esi
	movl	%ebx, %ecx
	callq	_KPhi2To1
	movl	$25, %edi
	movl	$15, %edx
	movl	-68(%rbp), %esi         # 4-byte Reload
	movl	%ebx, %ecx
	callq	_KPhi2To1
	movl	$24, %edi
	movl	$15, %edx
	movl	%r12d, %esi
	movl	%ebx, %ecx
	callq	_KPhi2To1
	movl	$1, %edi
	callq	_KWork
	movl	$24, %edi
	movl	$24, %esi
	xorl	%edx, %edx
	callq	_KTimestamp1
	movl	$23, %edi
	movl	$15, %esi
	movl	$1, %edx
	movl	$24, %ecx
	movl	$1, %r8d
	callq	_KTimestamp2
	movl	$27, %edi
	movl	$23, %esi
	callq	_KPhiAddCond
	movl	$21, %edi
	movl	$23, %esi
	callq	_KPhiAddCond
	movl	$25, %edi
	movl	$25, %esi
	xorl	%edx, %edx
	callq	_KTimestamp1
	movl	$21, %edi
	movl	$21, %esi
	xorl	%edx, %edx
	callq	_KTimestamp1
	movl	$24, %edi
	movl	$23, %esi
	callq	_KPhiAddCond
	movl	$25, %edi
	movl	$23, %esi
	callq	_KPhiAddCond
	movl	$27, %edi
	movl	$27, %esi
	xorl	%edx, %edx
	callq	_KTimestamp1
	callq	_KPopCDep
	movq	-64(%rbp), %rax         # 8-byte Reload
	.loc	1 406 11 discriminator 2 # quicksortlibm.c:406:11
.Ltmp412:
	testl	%eax, %eax
	movq	%rax, %rbx
.Ltmp413:
	.loc	1 406 3 is_stmt 0       # quicksortlibm.c:406:3
	je	.LBB2_21
# BB#17:                                # %while.body
                                        #   in Loop: Header=BB2_16 Depth=1
	#DEBUG_VALUE: quicksort___ieee754_sqrtf:sign <- -2147483648
	#DEBUG_VALUE: quicksort___ieee754_sqrtf:m <- [RBP+-96]
	#DEBUG_VALUE: quicksort___ieee754_sqrtf:s <- 0
	#DEBUG_VALUE: quicksort___ieee754_sqrtf:q <- 0
	#DEBUG_VALUE: quicksort___ieee754_sqrtf:r <- 16777216
	.loc	1 401 3 is_stmt 1       # quicksortlibm.c:401:3
	addl	%r13d, %r13d
	movl	$2, %esi
	movabsq	$5034427988374457111, %rdi # imm = 0x45DDE194F6580B17
	callq	_KEnterRegion
	movl	$23, %edi
	callq	_KPushCDep
	movl	$2, %edi
	callq	_KWork
	.loc	1 407 9                 # quicksortlibm.c:407:9
.Ltmp414:
	movq	-80(%rbp), %rax         # 8-byte Reload
	leal	(%rbx,%rax), %ebx
.Ltmp415:
	#DEBUG_VALUE: quicksort___ieee754_sqrtf:t <- EBX
	movl	$2, 16(%rsp)
	movl	$23, 8(%rsp)
	movl	$2, (%rsp)
	movl	$25, %r15d
	movl	$27, %r14d
	movl	$33, %edi
	movl	$25, %esi
	movl	$2, %edx
	movl	$27, %ecx
	movl	$1, %r8d
	movl	$24, %r9d
	callq	_KTimestamp4
	callq	_KPopCDep
	movl	%r13d, %eax
	.loc	1 408 10                # quicksortlibm.c:408:10
.Ltmp416:
                                        # kill: R13D<def> EAX<kill>
	subl	%ebx, %r13d
	movl	$21, %r12d
	jge	.LBB2_19
.Ltmp417:
# BB#18:                                #   in Loop: Header=BB2_16 Depth=1
	#DEBUG_VALUE: quicksort___ieee754_sqrtf:sign <- -2147483648
	#DEBUG_VALUE: quicksort___ieee754_sqrtf:m <- [RBP+-96]
	#DEBUG_VALUE: quicksort___ieee754_sqrtf:s <- 0
	#DEBUG_VALUE: quicksort___ieee754_sqrtf:q <- 0
	#DEBUG_VALUE: quicksort___ieee754_sqrtf:r <- 16777216
	movl	%eax, %r13d
	jmp	.LBB2_20
	.align	16, 0x90
.LBB2_19:                               # %if.then30
                                        #   in Loop: Header=BB2_16 Depth=1
	#DEBUG_VALUE: quicksort___ieee754_sqrtf:sign <- -2147483648
	#DEBUG_VALUE: quicksort___ieee754_sqrtf:m <- [RBP+-96]
	#DEBUG_VALUE: quicksort___ieee754_sqrtf:s <- 0
	#DEBUG_VALUE: quicksort___ieee754_sqrtf:q <- 0
	#DEBUG_VALUE: quicksort___ieee754_sqrtf:r <- 16777216
.Ltmp418:
	#DEBUG_VALUE: quicksort___ieee754_sqrtf:t <- EBX
	movl	$33, %edi
	callq	_KPushCDep
	movl	$3, %edi
	callq	_KWork
	movq	-64(%rbp), %rcx         # 8-byte Reload
	.loc	1 409 11                # quicksortlibm.c:409:11
.Ltmp419:
	addl	%ecx, %ebx
.Ltmp420:
	#DEBUG_VALUE: quicksort___ieee754_sqrtf:s <- EBX
	#DEBUG_VALUE: quicksort___ieee754_sqrtf:ix <- R13D
	.loc	1 411 7                 # quicksortlibm.c:411:7
	movq	-88(%rbp), %rax         # 8-byte Reload
	addl	%ecx, %eax
.Ltmp421:
	#DEBUG_VALUE: quicksort___ieee754_sqrtf:q <- [RBP+-88]
	movq	%rax, -88(%rbp)         # 8-byte Spill
	movl	$3, 16(%rsp)
	movl	$23, 8(%rsp)
	movl	$3, (%rsp)
	movl	$35, %r14d
	movl	$35, %edi
	movl	$25, %esi
	movl	$3, %edx
	movl	$27, %ecx
	movl	$2, %r8d
	movl	$24, %r9d
	callq	_KTimestamp4
	movl	$3, 16(%rsp)
	movl	$23, 8(%rsp)
	movl	$3, (%rsp)
	movl	$34, %r15d
	movl	$34, %edi
	movl	$25, %esi
	movl	$3, %edx
	movl	$27, %ecx
	movl	$2, %r8d
	movl	$24, %r9d
	callq	_KTimestamp4
	movl	$3, 32(%rsp)
	movl	$23, 24(%rsp)
	movl	$3, 16(%rsp)
	movl	$24, 8(%rsp)
	movl	$2, (%rsp)
	movl	$32, %r12d
	movl	$32, %edi
	movl	$21, %esi
	movl	$1, %edx
	movl	$25, %ecx
	movl	$3, %r8d
	movl	$27, %r9d
	callq	_KTimestamp5
	callq	_KPopCDep
	movl	%ebx, %eax
.Ltmp422:
	#DEBUG_VALUE: quicksort___ieee754_sqrtf:s <- [RBP+-80]
	movq	%rax, -80(%rbp)         # 8-byte Spill
	jmp	.LBB2_20
.Ltmp423:
.LBB2_21:                               # %while.cond.pre_exit.while.end
	#DEBUG_VALUE: quicksort___ieee754_sqrtf:sign <- -2147483648
	#DEBUG_VALUE: quicksort___ieee754_sqrtf:m <- [RBP+-96]
	#DEBUG_VALUE: quicksort___ieee754_sqrtf:s <- 0
	#DEBUG_VALUE: quicksort___ieee754_sqrtf:q <- 0
	#DEBUG_VALUE: quicksort___ieee754_sqrtf:r <- 16777216
	movl	$1, %esi
	movabsq	$1686165705869508592, %rdi # imm = 0x176676C69ACC3FF0
	callq	_KExitRegion
	movl	%r13d, %r14d
	movl	$15, %r13d
	movl	$15, %edi
	callq	_KPushCDep
	movl	$2, %edi
	callq	_KWork
	movq	-96(%rbp), %rbx         # 8-byte Reload
.Ltmp424:
	#DEBUG_VALUE: quicksort___ieee754_sqrtf:m <- EBX
	.loc	1 398 3                 # quicksortlibm.c:398:3
	shrl	%ebx
.Ltmp425:
	movl	$38, %edi
	movl	$2, %esi
	movl	$4, %edx
	movl	$27, %ecx
	movl	$1, %r8d
	callq	_KTimestamp2
	callq	_KPopCDep
	.loc	1 418 8                 # quicksortlibm.c:418:8
.Ltmp426:
	testl	%r14d, %r14d
	movl	$21, %r15d
	je	.LBB2_22
# BB#23:                                # %if.then38
	#DEBUG_VALUE: quicksort___ieee754_sqrtf:sign <- -2147483648
	#DEBUG_VALUE: quicksort___ieee754_sqrtf:s <- 0
	#DEBUG_VALUE: quicksort___ieee754_sqrtf:q <- 0
	#DEBUG_VALUE: quicksort___ieee754_sqrtf:r <- 16777216
	movl	$38, %edi
	callq	_KPushCDep
	movl	$2, %edi
	callq	_KWork
.Ltmp427:
	#DEBUG_VALUE: quicksort___ieee754_sqrtf:z <- 1.000000e+00
	movl	$39, -64(%rbp)          # 4-byte Folded Spill
	movl	$39, %edi
	movl	$2, %esi
	movl	$6, %edx
	movl	$27, %ecx
	movl	$3, %r8d
	callq	_KTimestamp2
	callq	_KPopCDep
	movl	$39, %edi
	callq	_KPushCDep
	movl	$2, %edi
	callq	_KWork
	movl	$40, %r12d
	movl	$40, %edi
	movl	$2, %esi
	movl	$8, %edx
	movl	$27, %ecx
	movl	$5, %r8d
	callq	_KTimestamp2
	callq	_KPopCDep
	movl	$40, %edi
	callq	_KPushCDep
	movl	$2, %edi
	callq	_KWork
	movq	-88(%rbp), %rax         # 8-byte Reload
	.loc	1 425 16                # quicksortlibm.c:425:16
.Ltmp428:
	movl	%eax, %r14d
	andl	$1, %r14d
	.loc	1 425 9 is_stmt 0       # quicksortlibm.c:425:9
	addl	%eax, %r14d
.Ltmp429:
	#DEBUG_VALUE: quicksort___ieee754_sqrtf:q <- R14D
	movl	$7, (%rsp)
	movl	$37, %r15d
	movl	$37, %edi
	movl	$2, %esi
	movl	$10, %edx
	movl	$21, %ecx
	movl	$2, %r8d
	movl	$27, %r9d
	callq	_KTimestamp3
	callq	_KPopCDep
                                        # kill: R14D<def> R14D<kill> R14<def>
.Ltmp430:
	jmp	.LBB2_24
.Ltmp431:
.LBB2_22:
	#DEBUG_VALUE: quicksort___ieee754_sqrtf:sign <- -2147483648
	#DEBUG_VALUE: quicksort___ieee754_sqrtf:s <- 0
	#DEBUG_VALUE: quicksort___ieee754_sqrtf:q <- 0
	#DEBUG_VALUE: quicksort___ieee754_sqrtf:r <- 16777216
	xorl	%r12d, %r12d
	movl	$0, -64(%rbp)           # 4-byte Folded Spill
	movq	-88(%rbp), %r14         # 8-byte Reload
.LBB2_24:                               # %if.end49
	#DEBUG_VALUE: quicksort___ieee754_sqrtf:sign <- -2147483648
	#DEBUG_VALUE: quicksort___ieee754_sqrtf:s <- 0
	#DEBUG_VALUE: quicksort___ieee754_sqrtf:q <- 0
	#DEBUG_VALUE: quicksort___ieee754_sqrtf:r <- 16777216
	movl	$15, %edi
	callq	_KPushCDep
	movl	$5, %edi
	movl	$15, %edx
	movl	$38, %ecx
	movl	%r15d, %esi
	movl	-64(%rbp), %r8d         # 4-byte Reload
	movl	%r12d, %r9d
	callq	_KPhi4To1
	movl	$9, %edi
	callq	_KWork
	.loc	1 428 10 is_stmt 1      # quicksortlibm.c:428:10
	sarl	%r14d
	.loc	1 429 11                # quicksortlibm.c:429:11
	shll	$23, %ebx
	.loc	1 429 3 is_stmt 0       # quicksortlibm.c:429:3
	leal	1056964608(%rbx,%r14), %ebx
.Ltmp432:
	#DEBUG_VALUE: quicksort___ieee754_sqrtf:ix <- EBX
	movl	$3, (%rsp)
	movl	$3, %edi
	movl	$4, %esi
	movl	$4, %edx
	movl	$2, %ecx
	movl	$7, %r8d
	movl	$5, %r9d
	callq	_KTimestamp3
	leaq	-56(%rbp), %r12
	movl	$3, %edi
	movl	$4, %edx
	movq	%r12, %rsi
	callq	_KStore
	.loc	1 430 3 is_stmt 1       # quicksortlibm.c:430:3
.Ltmp433:
	movl	%ebx, -56(%rbp)
	movl	$6, %r14d
	movl	$6, %esi
	movl	$4, %edx
	movq	%r12, %rdi
	callq	_KLoad0
	movss	-56(%rbp), %xmm0
.Ltmp434:
	#DEBUG_VALUE: quicksort___ieee754_sqrtf:z <- [RBP+-64]
	movss	%xmm0, -64(%rbp)        # 4-byte Spill
	movl	$6, %edi
	movl	$6, %esi
	xorl	%edx, %edx
	callq	_KTimestamp1
	callq	_KPopCDep
	xorl	%ebx, %ebx
.Ltmp435:
	movabsq	$6462360663831658816, %r12 # imm = 0x59AEEAC8E224C140
	xorl	%r15d, %r15d
.Ltmp436:
.LBB2_25:                               # %return
	#DEBUG_VALUE: quicksort___ieee754_sqrtf:sign <- -2147483648
	movl	$7, %edi
	movl	$43, %edx
	movl	%r14d, %esi
	movl	%r13d, %ecx
	movl	%ebx, %r8d
	movl	%r15d, %r9d
	callq	_KPhi4To1
	movl	$7, %edi
	movl	$7, %esi
	xorl	%edx, %edx
	callq	_KTimestamp1
	movl	$7, %edi
	callq	_KReturn
	xorl	%esi, %esi
	movq	%r12, %rdi
	callq	_KExitRegion
	.loc	1 433 1                 # quicksortlibm.c:433:1
	movss	-64(%rbp), %xmm0        # 4-byte Reload
	addq	$104, %rsp
	popq	%rbx
	popq	%r12
	popq	%r13
	popq	%r14
	popq	%r15
	popq	%rbp
	retq
.LBB2_4:                                # %if.then5
	#DEBUG_VALUE: quicksort___ieee754_sqrtf:x <- [RBP+-64]
	#DEBUG_VALUE: quicksort___ieee754_sqrtf:sign <- -2147483648
	callq	_KPopCDep
	movl	$1, %r14d
	xorl	%r15d, %r15d
	movabsq	$6462360663831658816, %r12 # imm = 0x59AEEAC8E224C140
	jmp	.LBB2_25
.LBB2_6:                                # %if.then7
	#DEBUG_VALUE: quicksort___ieee754_sqrtf:x <- [RBP+-64]
	#DEBUG_VALUE: quicksort___ieee754_sqrtf:sign <- -2147483648
	movl	$45, %edi
	callq	_KPushCDep
	movl	$24, %edi
	callq	_KWork
	movss	-64(%rbp), %xmm0        # 4-byte Reload
.Ltmp437:
	#DEBUG_VALUE: quicksort___ieee754_sqrtf:x <- XMM0
	.loc	1 383 17                # quicksortlibm.c:383:17
	subss	%xmm0, %xmm0
.Ltmp438:
	.loc	1 383 15 is_stmt 0      # quicksortlibm.c:383:15
	divss	%xmm0, %xmm0
	movss	%xmm0, -64(%rbp)        # 4-byte Spill
	movl	$42, %r14d
	movl	$42, %edi
	movl	$1, %esi
	movl	$22, %edx
	movl	$2, %ecx
	movl	$28, %r8d
	callq	_KTimestamp2
	callq	_KPopCDep
	movl	$15, %r13d
	movl	$44, %ebx
	movabsq	$6462360663831658816, %r12 # imm = 0x59AEEAC8E224C140
	jmp	.LBB2_25
.Ltmp439:
.Ltmp440:
	.size	quicksort___ieee754_sqrtf, .Ltmp440-quicksort___ieee754_sqrtf
.Lfunc_end2:
	.cfi_endproc

	.globl	quicksort___fabsf
	.align	16, 0x90
	.type	quicksort___fabsf,@function
quicksort___fabsf:                      # @quicksort___fabsf
.Lfunc_begin3:
	.loc	1 1032 0 is_stmt 1      # quicksortlibm.c:1032:0
	.cfi_startproc
# BB#0:                                 # %entry
	pushq	%rbp
.Ltmp441:
	.cfi_def_cfa_offset 16
.Ltmp442:
	.cfi_offset %rbp, -16
	movq	%rsp, %rbp
.Ltmp443:
	.cfi_def_cfa_register %rbp
	pushq	%r15
	pushq	%r14
	pushq	%rbx
	subq	$24, %rsp
.Ltmp444:
	.cfi_offset %rbx, -40
.Ltmp445:
	.cfi_offset %r14, -32
.Ltmp446:
	.cfi_offset %r15, -24
	#DEBUG_VALUE: quicksort___fabsf:x <- XMM0
	movss	%xmm0, -44(%rbp)        # 4-byte Spill
.Ltmp447:
	#DEBUG_VALUE: quicksort___fabsf:x <- [RBP+-44]
	movabsq	$-6256381176192026222, %r14 # imm = 0xA92CDE77CDA23992
	xorl	%esi, %esi
	movq	%r14, %rdi
	callq	_KEnterRegion
	movl	$5, %edi
	xorl	%esi, %esi
	callq	_KPrepRTable
	movl	$1, %edi
	callq	_KDeqArg
	movl	$11, %edi
	callq	_KWork
	movl	$1, %edi
	movl	$1, %esi
	xorl	%edx, %edx
	callq	_KTimestamp1
	leaq	-32(%rbp), %rbx
	movl	$1, %edi
	movl	$4, %edx
	movq	%rbx, %rsi
	callq	_KStore
	.loc	1 1036 3 prologue_end   # quicksortlibm.c:1036:3
.Ltmp448:
	movss	-44(%rbp), %xmm0        # 4-byte Reload
	movss	%xmm0, -32(%rbp)
	movl	$2, %esi
	movl	$4, %edx
	movq	%rbx, %rdi
	callq	_KLoad0
	movl	$2147483647, %ebx       # imm = 0x7FFFFFFF
.Ltmp449:
	.loc	1 1037 3                # quicksortlibm.c:1037:3
	andl	-32(%rbp), %ebx
	movl	$3, %edi
	movl	$2, %esi
	movl	$1, %edx
	callq	_KTimestamp1
	leaq	-40(%rbp), %r15
	movl	$3, %edi
	movl	$4, %edx
	movq	%r15, %rsi
	callq	_KStore
	movl	%ebx, -40(%rbp)
	movl	$4, %esi
	movl	$4, %edx
	movq	%r15, %rdi
	callq	_KLoad0
	movss	-40(%rbp), %xmm0
	#DEBUG_VALUE: quicksort___fabsf:x <- [RBP+-44]
	movss	%xmm0, -44(%rbp)        # 4-byte Spill
	movl	$4, %edi
	movl	$4, %esi
	xorl	%edx, %edx
	callq	_KTimestamp1
	movl	$4, %edi
	callq	_KReturn
	xorl	%esi, %esi
	movq	%r14, %rdi
	callq	_KExitRegion
.Ltmp450:
	.loc	1 1038 3                # quicksortlibm.c:1038:3
	movss	-44(%rbp), %xmm0        # 4-byte Reload
	addq	$24, %rsp
	popq	%rbx
	popq	%r14
	popq	%r15
	popq	%rbp
	retq
.Ltmp451:
.Ltmp452:
	.size	quicksort___fabsf, .Ltmp452-quicksort___fabsf
.Lfunc_end3:
	.cfi_endproc

	.section	.rodata.cst4,"aM",@progbits,4
	.align	4
.LCPI4_0:
	.long	1275068416              # float 33554432
.LCPI4_1:
	.long	855638016               # float 2.98023224E-8
.LCPI4_2:
	.long	228737632               # float 1.0E-30
.LCPI4_3:
	.long	1900671690              # float 1.00000002E+30
	.text
	.globl	quicksort___scalbnf
	.align	16, 0x90
	.type	quicksort___scalbnf,@function
quicksort___scalbnf:                    # @quicksort___scalbnf
.Lfunc_begin4:
	.loc	1 1072 0                # quicksortlibm.c:1072:0
	.cfi_startproc
# BB#0:                                 # %entry
	pushq	%rbp
.Ltmp453:
	.cfi_def_cfa_offset 16
.Ltmp454:
	.cfi_offset %rbp, -16
	movq	%rsp, %rbp
.Ltmp455:
	.cfi_def_cfa_register %rbp
	pushq	%r15
	pushq	%r14
	pushq	%r13
	pushq	%r12
	pushq	%rbx
	subq	$88, %rsp
.Ltmp456:
	.cfi_offset %rbx, -56
.Ltmp457:
	.cfi_offset %r12, -48
.Ltmp458:
	.cfi_offset %r13, -40
.Ltmp459:
	.cfi_offset %r14, -32
.Ltmp460:
	.cfi_offset %r15, -24
	#DEBUG_VALUE: quicksort___scalbnf:x <- XMM0
	#DEBUG_VALUE: quicksort___scalbnf:n <- EDI
	movl	%edi, -84(%rbp)         # 4-byte Spill
.Ltmp461:
	#DEBUG_VALUE: quicksort___scalbnf:n <- [RBP+-84]
	movss	%xmm0, -76(%rbp)        # 4-byte Spill
.Ltmp462:
	#DEBUG_VALUE: quicksort___scalbnf:x <- [RBP+-76]
	#DEBUG_VALUE: quicksort___scalbnf:x <- undef
	movabsq	$-6404681155388652466, %rdi # imm = 0xA71E006C316BC44E
	xorl	%r15d, %r15d
	xorl	%esi, %esi
	callq	_KEnterRegion
	movl	$31, %edi
	xorl	%esi, %esi
	callq	_KPrepRTable
	movl	$8, %edi
	callq	_KWork
	movl	$2, %edi
	callq	_KDeqArg
	movl	$1, -80(%rbp)           # 4-byte Folded Spill
	movl	$1, %edi
	callq	_KDeqArg
	movl	$1, %edi
	movl	$1, %esi
	xorl	%edx, %edx
	callq	_KTimestamp1
	leaq	-48(%rbp), %rbx
	movl	$1, %edi
	movl	$4, %edx
	movq	%rbx, %rsi
	callq	_KStore
	.loc	1 1076 3 prologue_end   # quicksortlibm.c:1076:3
.Ltmp463:
	movss	-76(%rbp), %xmm0        # 4-byte Reload
	movss	%xmm0, -48(%rbp)
.Ltmp464:
	#DEBUG_VALUE: quicksort___scalbnf:x <- [RBP+-76]
	movl	$3, %r13d
	movl	$3, %esi
	movl	$4, %edx
	movq	%rbx, %rdi
	callq	_KLoad0
	movl	-48(%rbp), %ebx
.Ltmp465:
	#DEBUG_VALUE: quicksort___scalbnf:ix <- EBX
	.loc	1 1077 7                # quicksortlibm.c:1077:7
	movl	%ebx, %r12d
	shrl	$23, %r12d
	movl	$18, %r14d
	movl	$18, %edi
	movl	$3, %esi
	movl	$2, %edx
	callq	_KTimestamp1
	movl	$19, %edi
	movl	$3, %esi
	movl	$3, %edx
	callq	_KTimestamp1
	movl	$3, %edi
	movl	$3, %esi
	xorl	%edx, %edx
	callq	_KTimestamp1
	.loc	1 1078 8                # quicksortlibm.c:1078:8
	andl	$255, %r12d
	je	.LBB4_2
.Ltmp466:
# BB#1:
	#DEBUG_VALUE: quicksort___scalbnf:x <- [RBP+-76]
	#DEBUG_VALUE: quicksort___scalbnf:n <- [RBP+-84]
	#DEBUG_VALUE: quicksort___scalbnf:ix <- EBX
	movl	%ebx, -88(%rbp)         # 4-byte Spill
.Ltmp467:
	#DEBUG_VALUE: quicksort___scalbnf:ix <- [RBP+-88]
	jmp	.LBB4_6
.LBB4_2:                                # %if.then
	#DEBUG_VALUE: quicksort___scalbnf:x <- [RBP+-76]
	#DEBUG_VALUE: quicksort___scalbnf:n <- [RBP+-84]
.Ltmp468:
	#DEBUG_VALUE: quicksort___scalbnf:ix <- EBX
	movl	$19, %edi
	callq	_KPushCDep
	movl	$2, %edi
	callq	_KWork
	movl	$20, %r15d
	movl	$5, %r13d
	movl	$20, %edi
	movl	$3, %esi
	movl	$5, %edx
	callq	_KTimestamp1
	callq	_KPopCDep
	movl	$20, %edi
	callq	_KPushCDep
	.loc	1 1079 10               # quicksortlibm.c:1079:10
.Ltmp469:
	testl	$2147483647, %ebx       # imm = 0x7FFFFFFF
	je	.LBB4_3
.Ltmp470:
# BB#5:                                 # %if.end
	#DEBUG_VALUE: quicksort___scalbnf:x <- [RBP+-76]
	#DEBUG_VALUE: quicksort___scalbnf:n <- [RBP+-84]
	movl	$13, %edi
	callq	_KWork
.Ltmp471:
	#DEBUG_VALUE: quicksort___scalbnf:x <- undef
	.loc	1 1081 5                # quicksortlibm.c:1081:5
	movss	-76(%rbp), %xmm0        # 4-byte Reload
	mulss	.LCPI4_0(%rip), %xmm0
	movss	%xmm0, -76(%rbp)        # 4-byte Spill
.Ltmp472:
	#DEBUG_VALUE: quicksort___scalbnf:x <- [RBP+-76]
	movl	$4, -80(%rbp)           # 4-byte Folded Spill
	movl	$4, %edi
	movl	$1, %esi
	movl	$5, %edx
	movl	$3, %ecx
	movl	$10, %r8d
	callq	_KTimestamp2
	leaq	-56(%rbp), %rbx
	movl	$4, %edi
	movl	$4, %edx
	movq	%rbx, %rsi
	callq	_KStore
	.loc	1 1082 5                # quicksortlibm.c:1082:5
.Ltmp473:
	movss	-76(%rbp), %xmm0        # 4-byte Reload
	movss	%xmm0, -56(%rbp)
	#DEBUG_VALUE: quicksort___scalbnf:x <- [RBP+-76]
	movl	$5, %esi
	movl	$4, %edx
	movq	%rbx, %rdi
	callq	_KLoad0
	movl	-56(%rbp), %eax
.Ltmp474:
	#DEBUG_VALUE: quicksort___scalbnf:ix <- EAX
	.loc	1 1083 11               # quicksortlibm.c:1083:11
	movl	%eax, -88(%rbp)         # 4-byte Spill
.Ltmp475:
	#DEBUG_VALUE: quicksort___scalbnf:ix <- [RBP+-88]
	shrl	$23, %eax
	movzbl	%al, %r12d
	.loc	1 1083 9 is_stmt 0      # quicksortlibm.c:1083:9
	addl	$-25, %r12d
.Ltmp476:
	#DEBUG_VALUE: quicksort___scalbnf:k <- R12D
	movl	$5, %edi
	movl	$5, %esi
	xorl	%edx, %edx
	callq	_KTimestamp1
	movl	$17, %r14d
	movl	$17, %edi
	movl	$3, %esi
	movl	$8, %edx
	movl	$5, %ecx
	movl	$3, %r8d
	callq	_KTimestamp2
	callq	_KPopCDep
.Ltmp477:
.LBB4_6:                                # %if.end9
	#DEBUG_VALUE: quicksort___scalbnf:n <- [RBP+-84]
	movl	$19, %edi
	callq	_KPushCDep
	movl	$10, %edi
	movl	$19, %edx
	movl	%r14d, %esi
	movl	%r15d, %ecx
	callq	_KPhi2To1
	movl	$11, %edi
	movl	$19, %edx
	movl	%r13d, %esi
	movl	%r15d, %ecx
	callq	_KPhi2To1
	movl	$7, %edi
	movl	$19, %edx
	movl	-80(%rbp), %esi         # 4-byte Reload
	movl	%r15d, %ecx
	callq	_KPhi2To1
	movl	$1, %edi
	callq	_KWork
	xorl	%r14d, %r14d
	movl	$7, %edi
	movl	$7, %esi
	xorl	%edx, %edx
	callq	_KTimestamp1
	movl	$26, %ebx
	movl	$26, %edi
	movl	$3, %esi
	movl	$4, %edx
	movl	$10, %ecx
	movl	$1, %r8d
	callq	_KTimestamp2
	callq	_KPopCDep
	movl	$26, %edi
	callq	_KPushCDep
	.loc	1 1086 8 is_stmt 1      # quicksortlibm.c:1086:8
	cmpl	$255, %r12d
	jne	.LBB4_8
# BB#7:                                 # %if.then11
	movl	$2, %edi
	callq	_KWork
	.loc	1 1087 13               # quicksortlibm.c:1087:13
.Ltmp478:
	movss	-76(%rbp), %xmm0        # 4-byte Reload
	addss	%xmm0, %xmm0
	movss	%xmm0, -76(%rbp)        # 4-byte Spill
	movl	$2, (%rsp)
	movl	$21, %r12d
	movl	$21, %edi
	movl	$3, %esi
	movl	$6, %edx
	movl	$10, %ecx
	movl	$3, %r8d
	movl	$7, %r9d
	callq	_KTimestamp3
	callq	_KPopCDep
	xorl	%r8d, %r8d
	jmp	.LBB4_4
.Ltmp479:
.LBB4_8:                                # %if.end12
	#DEBUG_VALUE: quicksort___scalbnf:n <- [RBP+-84]
	movl	$4, %edi
	callq	_KWork
	movl	$4, (%rsp)
	movl	$27, %r13d
	movl	$27, %edi
	movl	$2, %esi
	movl	$3, %edx
	movl	$3, %ecx
	movl	$7, %r8d
	movl	$10, %r9d
	callq	_KTimestamp3
	callq	_KPopCDep
	movl	$27, %edi
	callq	_KPushCDep
	movl	-84(%rbp), %ebx         # 4-byte Reload
.Ltmp480:
	#DEBUG_VALUE: quicksort___scalbnf:n <- EBX
	.loc	1 1089 10               # quicksortlibm.c:1089:10
	cmpl	$50000, %ebx            # imm = 0xC350
	movl	-88(%rbp), %r15d        # 4-byte Reload
	jg	.LBB4_10
.Ltmp481:
# BB#9:                                 # %if.end12
	#DEBUG_VALUE: quicksort___scalbnf:n <- EBX
	.loc	1 1088 7                # quicksortlibm.c:1088:7
	addl	%ebx, %r12d
.Ltmp482:
	#DEBUG_VALUE: quicksort___scalbnf:k <- R12D
	cmpl	$255, %r12d
	jge	.LBB4_10
.Ltmp483:
# BB#12:                                # %if.end18
	#DEBUG_VALUE: quicksort___scalbnf:n <- EBX
	#DEBUG_VALUE: quicksort___scalbnf:k <- R12D
	movl	$1, %edi
	callq	_KWork
	movl	$5, (%rsp)
	movl	$28, %r14d
	movl	$28, %edi
	movl	$2, %esi
	movl	$4, %edx
	movl	$3, %ecx
	movl	$8, %r8d
	movl	$10, %r9d
	callq	_KTimestamp3
	callq	_KPopCDep
	movl	$28, %edi
	callq	_KPushCDep
	.loc	1 1092 8                # quicksortlibm.c:1092:8
	cmpl	$-50001, %ebx           # imm = 0xFFFFFFFFFFFF3CAF
	jg	.LBB4_14
.Ltmp484:
# BB#13:                                # %if.then20
	movabsq	$-1361283590384235758, %rdi # imm = 0xED1BBFC974944B12
	xorl	%esi, %esi
	callq	_KPrepCall
	movl	$7, %edi
	callq	_KEnqArg
	callq	_KEnqArgConst
	movl	$8, %edi
	callq	_KLinkReturn
	movl	$5, %edi
	callq	_KWork
	movss	.LCPI4_2(%rip), %xmm0
	.loc	1 1094 30               # quicksortlibm.c:1094:30
.Ltmp485:
	movss	-76(%rbp), %xmm1        # 4-byte Reload
	callq	quicksort___copysignf
	.loc	1 1094 13 is_stmt 0     # quicksortlibm.c:1094:13
	mulss	.LCPI4_2(%rip), %xmm0
	movss	%xmm0, -76(%rbp)        # 4-byte Spill
	movl	$5, 16(%rsp)
	movl	$8, 8(%rsp)
	movl	$10, (%rsp)
	movl	$23, %r12d
	movl	$23, %edi
	movl	$2, %esi
	movl	$9, %edx
	movl	$3, %ecx
	movl	$13, %r8d
	movl	$10, %r9d
	callq	_KTimestamp4
	callq	_KPopCDep
	xorl	%r8d, %r8d
	movl	$27, %r13d
	movl	$26, %ebx
	jmp	.LBB4_11
.Ltmp486:
.LBB4_10:                               # %if.then16
	xorl	%r14d, %r14d
	movabsq	$-2164200231342928601, %rdi # imm = 0xE1F7375B23FC8D27
	xorl	%esi, %esi
	callq	_KPrepCall
	movl	$7, %edi
	callq	_KEnqArg
	callq	_KEnqArgConst
	movl	$6, %edi
	callq	_KLinkReturn
	movl	$5, %edi
	callq	_KWork
	movss	.LCPI4_3(%rip), %xmm0
	.loc	1 1091 30 is_stmt 1     # quicksortlibm.c:1091:30
.Ltmp487:
	movss	-76(%rbp), %xmm1        # 4-byte Reload
	callq	quicksort___copysignf
	.loc	1 1091 13 is_stmt 0     # quicksortlibm.c:1091:13
	mulss	.LCPI4_3(%rip), %xmm0
	movss	%xmm0, -76(%rbp)        # 4-byte Spill
	movl	$5, 16(%rsp)
	movl	$6, 8(%rsp)
	movl	$9, (%rsp)
	movl	$22, %r12d
	movl	$22, %edi
	movl	$2, %esi
	movl	$8, %edx
	movl	$3, %ecx
	movl	$12, %r8d
	movl	$10, %r9d
	callq	_KTimestamp4
	callq	_KPopCDep
	movl	$26, %ebx
	xorl	%r8d, %r8d
.Ltmp488:
.LBB4_11:                               # %return
	xorl	%eax, %eax
	xorl	%r15d, %r15d
	jmp	.LBB4_20
.LBB4_3:                                # %if.then3
	#DEBUG_VALUE: quicksort___scalbnf:x <- [RBP+-76]
	callq	_KPopCDep
	movl	$1, %r12d
	movl	$20, %r8d
	xorl	%r14d, %r14d
	xorl	%ebx, %ebx
.LBB4_4:                                # %return
	xorl	%eax, %eax
	xorl	%r15d, %r15d
	xorl	%r13d, %r13d
.LBB4_20:                               # %return
	movl	%eax, 24(%rsp)
	movl	%r15d, 16(%rsp)
	movl	%r14d, 8(%rsp)
	movl	%r13d, (%rsp)
	movl	$16, %edi
	movl	$7, %edx
	movl	$19, %ecx
	xorl	%eax, %eax
	movl	%r12d, %esi
                                        # kill: R8D<def> R8D<kill> R8<kill>
	movl	%ebx, %r9d
	callq	_KPhi
	movl	$16, %edi
	movl	$16, %esi
	xorl	%edx, %edx
	callq	_KTimestamp1
	movl	$16, %edi
	callq	_KReturn
	xorl	%esi, %esi
	movabsq	$-6404681155388652466, %rdi # imm = 0xA71E006C316BC44E
	callq	_KExitRegion
	.loc	1 1106 1 is_stmt 1      # quicksortlibm.c:1106:1
	movss	-76(%rbp), %xmm0        # 4-byte Reload
	addq	$88, %rsp
	popq	%rbx
	popq	%r12
	popq	%r13
	popq	%r14
	popq	%r15
	popq	%rbp
	retq
.LBB4_14:                               # %if.end23
.Ltmp489:
	#DEBUG_VALUE: quicksort___scalbnf:k <- R12D
	movl	%r15d, %ebx
	movl	$1, %edi
	callq	_KWork
	movl	$6, (%rsp)
	movl	$29, %r15d
	movl	$29, %edi
	movl	$2, %esi
	movl	$5, %edx
	movl	$3, %ecx
	movl	$9, %r8d
	movl	$10, %r9d
	callq	_KTimestamp3
	callq	_KPopCDep
	movl	$29, %edi
	callq	_KPushCDep
	.loc	1 1095 8                # quicksortlibm.c:1095:8
	testl	%r12d, %r12d
	jle	.LBB4_16
.Ltmp490:
# BB#15:                                # %if.then25
	#DEBUG_VALUE: quicksort___scalbnf:k <- R12D
	movl	$8, %edi
	callq	_KWork
	.loc	1 1096 5                # quicksortlibm.c:1096:5
.Ltmp491:
	andl	$-2139095041, %ebx      # imm = 0xFFFFFFFF807FFFFF
	shll	$23, %r12d
.Ltmp492:
	orl	%ebx, %r12d
	movl	$2, 16(%rsp)
	movl	$11, 8(%rsp)
	movl	$8, (%rsp)
	movl	$9, %edi
	movl	$2, %esi
	movl	$7, %edx
	movl	$3, %ecx
	movl	$11, %r8d
	movl	$10, %r9d
	callq	_KTimestamp4
	leaq	-64(%rbp), %rbx
	movl	$9, %edi
	movl	$4, %edx
	movq	%rbx, %rsi
	callq	_KStore
	movl	%r12d, -64(%rbp)
	movl	$12, %r12d
	movl	$12, %esi
	movl	$4, %edx
	movq	%rbx, %rdi
	callq	_KLoad0
	movss	-64(%rbp), %xmm0
	#DEBUG_VALUE: quicksort___scalbnf:x <- [RBP+-76]
	movss	%xmm0, -76(%rbp)        # 4-byte Spill
	movl	$12, %edi
	movl	$12, %esi
	xorl	%edx, %edx
	callq	_KTimestamp1
	callq	_KPopCDep
	xorl	%r8d, %r8d
	movl	$27, %r13d
	movl	$26, %ebx
	movl	$28, %r14d
	xorl	%eax, %eax
	jmp	.LBB4_20
.Ltmp493:
.LBB4_16:                               # %if.end29
	#DEBUG_VALUE: quicksort___scalbnf:k <- R12D
	movl	$1, %edi
	callq	_KWork
	movl	$7, (%rsp)
	movl	$30, %edi
	movl	$2, %esi
	movl	$6, %edx
	movl	$3, %ecx
	movl	$10, %r8d
	movl	$10, %r9d
	callq	_KTimestamp3
	callq	_KPopCDep
	movl	$30, %edi
	callq	_KPushCDep
	.loc	1 1100 8                # quicksortlibm.c:1100:8
	cmpl	$-25, %r12d
	jg	.LBB4_18
.Ltmp494:
# BB#17:                                # %if.then31
	movl	$5, %edi
	callq	_KWork
	movabsq	$-2370703510466262169, %rdi # imm = 0xDF1991B7BEE30B67
	xorl	%esi, %esi
	callq	_KPrepCall
	movl	$7, %edi
	callq	_KEnqArg
	callq	_KEnqArgConst
	movl	$13, %edi
	callq	_KLinkReturn
	movss	.LCPI4_2(%rip), %xmm0
	.loc	1 1102 30               # quicksortlibm.c:1102:30
.Ltmp495:
	movss	-76(%rbp), %xmm1        # 4-byte Reload
	callq	quicksort___copysignf
	.loc	1 1102 13 is_stmt 0     # quicksortlibm.c:1102:13
	mulss	.LCPI4_2(%rip), %xmm0
	movss	%xmm0, -76(%rbp)        # 4-byte Spill
	movl	$5, 16(%rsp)
	movl	$13, 8(%rsp)
	movl	$12, (%rsp)
	movl	$24, %r12d
	movl	$24, %edi
	movl	$2, %esi
	movl	$11, %edx
	movl	$3, %ecx
	movl	$15, %r8d
	movl	$10, %r9d
	callq	_KTimestamp4
	callq	_KPopCDep
	xorl	%r8d, %r8d
	movl	$27, %r13d
	movl	$29, %r15d
	jmp	.LBB4_19
.Ltmp496:
.LBB4_18:                               # %if.end34
	#DEBUG_VALUE: quicksort___scalbnf:k <- R12D
	movl	$14, %edi
	callq	_KWork
	.loc	1 1104 3 is_stmt 1      # quicksortlibm.c:1104:3
.Ltmp497:
	andl	$-2139095041, %ebx      # imm = 0xFFFFFFFF807FFFFF
	shll	$23, %r12d
.Ltmp498:
	addl	$209715200, %r12d       # imm = 0xC800000
	orl	%ebx, %r12d
	movl	$2, 16(%rsp)
	movl	$11, 8(%rsp)
	movl	$10, (%rsp)
	movl	$14, %edi
	movl	$2, %esi
	movl	$9, %edx
	movl	$3, %ecx
	movl	$13, %r8d
	movl	$10, %r9d
	callq	_KTimestamp4
	leaq	-72(%rbp), %rbx
	movl	$14, %edi
	movl	$4, %edx
	movq	%rbx, %rsi
	callq	_KStore
	movl	%r12d, -72(%rbp)
	movl	$15, %esi
	movl	$4, %edx
	movq	%rbx, %rdi
	callq	_KLoad0
	movss	-72(%rbp), %xmm0
.Ltmp499:
	#DEBUG_VALUE: quicksort___scalbnf:x <- XMM0
	.loc	1 1105 11               # quicksortlibm.c:1105:11
	mulss	.LCPI4_1(%rip), %xmm0
.Ltmp500:
	movss	%xmm0, -76(%rbp)        # 4-byte Spill
	movl	$5, 16(%rsp)
	movl	$15, 8(%rsp)
	movl	$12, (%rsp)
	movl	$25, %r12d
	movl	$25, %edi
	movl	$2, %esi
	movl	$11, %edx
	movl	$3, %ecx
	movl	$15, %r8d
	movl	$10, %r9d
	callq	_KTimestamp4
	callq	_KPopCDep
	movl	$27, %r13d
	movl	$29, %r15d
	xorl	%r8d, %r8d
.Ltmp501:
.LBB4_19:                               # %return
	movl	$26, %ebx
	movl	$28, %r14d
	movl	$30, %eax
	jmp	.LBB4_20
.Ltmp502:
	.size	quicksort___scalbnf, .Ltmp502-quicksort___scalbnf
.Lfunc_end4:
	.cfi_endproc

	.globl	quicksort___copysignf
	.align	16, 0x90
	.type	quicksort___copysignf,@function
quicksort___copysignf:                  # @quicksort___copysignf
.Lfunc_begin5:
	.loc	1 463 0                 # quicksortlibm.c:463:0
	.cfi_startproc
# BB#0:                                 # %entry
	pushq	%rbp
.Ltmp503:
	.cfi_def_cfa_offset 16
.Ltmp504:
	.cfi_offset %rbp, -16
	movq	%rsp, %rbp
.Ltmp505:
	.cfi_def_cfa_register %rbp
	pushq	%r15
	pushq	%r14
	pushq	%r12
	pushq	%rbx
	subq	$32, %rsp
.Ltmp506:
	.cfi_offset %rbx, -48
.Ltmp507:
	.cfi_offset %r12, -40
.Ltmp508:
	.cfi_offset %r14, -32
.Ltmp509:
	.cfi_offset %r15, -24
	#DEBUG_VALUE: quicksort___copysignf:x <- XMM0
	#DEBUG_VALUE: quicksort___copysignf:y <- XMM1
	movss	%xmm1, -60(%rbp)        # 4-byte Spill
.Ltmp510:
	#DEBUG_VALUE: quicksort___copysignf:y <- [RBP+-60]
	movss	%xmm0, -64(%rbp)        # 4-byte Spill
.Ltmp511:
	#DEBUG_VALUE: quicksort___copysignf:x <- [RBP+-64]
	movabsq	$-2226363244859131576, %r14 # imm = 0xE11A5E6CB12F7948
	xorl	%esi, %esi
	movq	%r14, %rdi
	callq	_KEnterRegion
	movl	$7, %edi
	xorl	%esi, %esi
	callq	_KPrepRTable
	movl	$18, %edi
	callq	_KWork
	movl	$2, %edi
	callq	_KDeqArg
	movl	$1, %edi
	callq	_KDeqArg
	movl	$1, %edi
	movl	$1, %esi
	xorl	%edx, %edx
	callq	_KTimestamp1
	leaq	-40(%rbp), %rbx
	movl	$1, %edi
	movl	$4, %edx
	movq	%rbx, %rsi
	callq	_KStore
	.loc	1 467 3 prologue_end    # quicksortlibm.c:467:3
.Ltmp512:
	movss	-64(%rbp), %xmm0        # 4-byte Reload
	movss	%xmm0, -40(%rbp)
	movl	$3, %esi
	movl	$4, %edx
	movq	%rbx, %rdi
	callq	_KLoad0
	movl	-40(%rbp), %r12d
.Ltmp513:
	#DEBUG_VALUE: quicksort___copysignf:ix <- R12D
	movl	$2, %edi
	movl	$2, %esi
	xorl	%edx, %edx
	callq	_KTimestamp1
	leaq	-48(%rbp), %r15
	movl	$2, %edi
	movl	$4, %edx
	movq	%r15, %rsi
	callq	_KStore
.Ltmp514:
	.loc	1 468 3                 # quicksortlibm.c:468:3
	movss	-60(%rbp), %xmm0        # 4-byte Reload
	movss	%xmm0, -48(%rbp)
	movl	$4, %esi
	movl	$4, %edx
	movq	%r15, %rdi
	callq	_KLoad0
.Ltmp515:
	.loc	1 469 3                 # quicksortlibm.c:469:3
	andl	$2147483647, %r12d      # imm = 0x7FFFFFFF
.Ltmp516:
	movl	$-2147483648, %ebx      # imm = 0xFFFFFFFF80000000
	andl	-48(%rbp), %ebx
	orl	%r12d, %ebx
	movl	$5, %edi
	movl	$3, %esi
	movl	$2, %edx
	movl	$4, %ecx
	movl	$2, %r8d
	callq	_KTimestamp2
	leaq	-56(%rbp), %r15
	movl	$5, %edi
	movl	$4, %edx
	movq	%r15, %rsi
	callq	_KStore
	movl	%ebx, -56(%rbp)
	movl	$6, %esi
	movl	$4, %edx
	movq	%r15, %rdi
	callq	_KLoad0
	movss	-56(%rbp), %xmm0
.Ltmp517:
	#DEBUG_VALUE: quicksort___copysignf:x <- [RBP+-60]
	movss	%xmm0, -60(%rbp)        # 4-byte Spill
	movl	$6, %edi
	movl	$6, %esi
	xorl	%edx, %edx
	callq	_KTimestamp1
	movl	$6, %edi
	callq	_KReturn
	xorl	%esi, %esi
	movq	%r14, %rdi
	callq	_KExitRegion
.Ltmp518:
	.loc	1 471 3                 # quicksortlibm.c:471:3
	movss	-60(%rbp), %xmm0        # 4-byte Reload
	addq	$32, %rsp
	popq	%rbx
	popq	%r12
	popq	%r14
	popq	%r15
	popq	%rbp
	retq
.Ltmp519:
.Ltmp520:
	.size	quicksort___copysignf, .Ltmp520-quicksort___copysignf
.Lfunc_end5:
	.cfi_endproc

	.section	.rodata.cst4,"aM",@progbits,4
	.align	4
.LCPI6_0:
	.long	1059256708              # float 0.636619806
.LCPI6_1:
	.long	1056964608              # float 0.5
.LCPI6_2:
	.long	3217624960              # float -1.57078552
.LCPI6_3:
	.long	926237763               # float 1.08043341E-5
.LCPI6_4:
	.long	926237696               # float 1.08042732E-5
.LCPI6_5:
	.long	780509960               # float 6.07709993E-11
.LCPI6_6:
	.long	780509952               # float 6.07709438E-11
.LCPI6_7:
	.long	613232946               # float 6.12323426E-17
.LCPI6_9:
	.long	1070141312              # float 1.57078552
.LCPI6_10:
	.long	3073721411              # float -1.08043341E-5
.LCPI6_11:
	.long	3073721344              # float -1.08042732E-5
.LCPI6_12:
	.long	2927993608              # float -6.07709993E-11
	.section	.rodata.cst16,"aM",@progbits,16
	.align	16
.LCPI6_8:
	.long	2147483648              # 0x80000000
	.long	2147483648              # 0x80000000
	.long	2147483648              # 0x80000000
	.long	2147483648              # 0x80000000
	.text
	.globl	quicksort___ieee754_rem_pio2f
	.align	16, 0x90
	.type	quicksort___ieee754_rem_pio2f,@function
quicksort___ieee754_rem_pio2f:          # @quicksort___ieee754_rem_pio2f
.Lfunc_begin6:
	.loc	1 543 0                 # quicksortlibm.c:543:0
	.cfi_startproc
# BB#0:                                 # %entry
	pushq	%rbp
.Ltmp521:
	.cfi_def_cfa_offset 16
.Ltmp522:
	.cfi_offset %rbp, -16
	movq	%rsp, %rbp
.Ltmp523:
	.cfi_def_cfa_register %rbp
	pushq	%r15
	pushq	%r14
	pushq	%r13
	pushq	%r12
	pushq	%rbx
	subq	$72, %rsp
.Ltmp524:
	.cfi_offset %rbx, -56
.Ltmp525:
	.cfi_offset %r12, -48
.Ltmp526:
	.cfi_offset %r13, -40
.Ltmp527:
	.cfi_offset %r14, -32
.Ltmp528:
	.cfi_offset %r15, -24
	#DEBUG_VALUE: quicksort___ieee754_rem_pio2f:x <- XMM0
	#DEBUG_VALUE: quicksort___ieee754_rem_pio2f:y <- RDI
	movq	%rdi, %r14
.Ltmp529:
	#DEBUG_VALUE: quicksort___ieee754_rem_pio2f:y <- R14
	movss	%xmm0, -68(%rbp)        # 4-byte Spill
.Ltmp530:
	#DEBUG_VALUE: quicksort___ieee754_rem_pio2f:x <- [RBP+-68]
	#DEBUG_VALUE: quicksort___ieee754_rem_pio2f:x <- undef
	movabsq	$4662427859289503493, %rdi # imm = 0x40B4456F77D5F705
	xorl	%r15d, %r15d
	xorl	%esi, %esi
	callq	_KEnterRegion
	movl	$56, %edi
	xorl	%esi, %esi
	callq	_KPrepRTable
	movl	$1, %edi
	callq	_KDeqArg
	movl	$7, %edi
	callq	_KWork
	movl	$1, %edi
	movl	$1, %esi
	xorl	%edx, %edx
	callq	_KTimestamp1
	leaq	-48(%rbp), %rbx
	movl	$1, %edi
	movl	$4, %edx
	movq	%rbx, %rsi
	callq	_KStore
	.loc	1 548 3 prologue_end    # quicksortlibm.c:548:3
.Ltmp531:
	movss	-68(%rbp), %xmm0        # 4-byte Reload
	movss	%xmm0, -48(%rbp)
.Ltmp532:
	#DEBUG_VALUE: quicksort___ieee754_rem_pio2f:x <- [RBP+-68]
	movl	$2, %esi
	movl	$4, %edx
	movq	%rbx, %rdi
	callq	_KLoad0
	movl	-48(%rbp), %r12d
.Ltmp533:
	#DEBUG_VALUE: quicksort___ieee754_rem_pio2f:hx <- R12D
	.loc	1 549 8                 # quicksortlibm.c:549:8
	movl	%r12d, %r13d
	andl	$2147483647, %r13d      # imm = 0x7FFFFFFF
.Ltmp534:
	#DEBUG_VALUE: quicksort___ieee754_rem_pio2f:ix <- R13D
	movl	$48, %edi
	movl	$2, %esi
	movl	$2, %edx
	callq	_KTimestamp1
	movl	$48, %edi
	callq	_KPushCDep
	.loc	1 550 8                 # quicksortlibm.c:550:8
	cmpl	$1061752792, %r13d      # imm = 0x3F490FD8
	ja	.LBB6_2
.Ltmp535:
# BB#1:                                 # %if.then
	#DEBUG_VALUE: quicksort___ieee754_rem_pio2f:x <- [RBP+-68]
	#DEBUG_VALUE: quicksort___ieee754_rem_pio2f:y <- R14
	movl	$2, %edi
	callq	_KWork
	movl	$1, %edi
	movl	$4, %edx
	movq	%r14, %rsi
	callq	_KStore
	.loc	1 551 5                 # quicksortlibm.c:551:5
.Ltmp536:
	movss	-68(%rbp), %xmm0        # 4-byte Reload
	movss	%xmm0, (%r14)
	.loc	1 552 5                 # quicksortlibm.c:552:5
	leaq	4(%r14), %rdi
	movl	$4, %esi
	callq	_KStoreConst
	movl	$0, 4(%r14)
	callq	_KPopCDep
	xorl	%eax, %eax
	xorl	%ebx, %ebx
	xorl	%r12d, %r12d
	xorl	%r8d, %r8d
	jmp	.LBB6_29
.Ltmp537:
.LBB6_2:                                # %if.end
	#DEBUG_VALUE: quicksort___ieee754_rem_pio2f:x <- [RBP+-68]
	#DEBUG_VALUE: quicksort___ieee754_rem_pio2f:y <- R14
	#DEBUG_VALUE: quicksort___ieee754_rem_pio2f:hx <- R12D
	#DEBUG_VALUE: quicksort___ieee754_rem_pio2f:ix <- R13D
	movl	$1, %edi
	callq	_KWork
	movl	$49, %edi
	movl	$2, %esi
	movl	$3, %edx
	callq	_KTimestamp1
	callq	_KPopCDep
	movl	$49, %edi
	callq	_KPushCDep
	movl	$1, %edi
	callq	_KWork
	.loc	1 557 8                 # quicksortlibm.c:557:8
	cmpl	$1075235811, %r13d      # imm = 0x4016CBE3
	ja	.LBB6_13
.Ltmp538:
# BB#3:                                 # %if.then3
	#DEBUG_VALUE: quicksort___ieee754_rem_pio2f:x <- [RBP+-68]
	#DEBUG_VALUE: quicksort___ieee754_rem_pio2f:y <- R14
	#DEBUG_VALUE: quicksort___ieee754_rem_pio2f:hx <- R12D
	movl	$50, %edi
	movl	$2, %esi
	movl	$4, %edx
	callq	_KTimestamp1
	callq	_KPopCDep
	movl	$50, %edi
	callq	_KPushCDep
	movl	$4, %edi
	callq	_KWork
	.loc	1 558 10                # quicksortlibm.c:558:10
.Ltmp539:
	testl	%r12d, %r12d
	jle	.LBB6_9
.Ltmp540:
# BB#4:                                 # %if.then5
	#DEBUG_VALUE: quicksort___ieee754_rem_pio2f:x <- [RBP+-68]
	#DEBUG_VALUE: quicksort___ieee754_rem_pio2f:x <- undef
	#DEBUG_VALUE: quicksort___ieee754_rem_pio2f:y <- R14
	#DEBUG_VALUE: quicksort___ieee754_rem_pio2f:hx <- R12D
	.loc	1 559 11                # quicksortlibm.c:559:11
	movss	-68(%rbp), %xmm0        # 4-byte Reload
	addss	.LCPI6_2(%rip), %xmm0
.Ltmp541:
	#DEBUG_VALUE: quicksort___ieee754_rem_pio2f:z <- undef
	movss	%xmm0, -68(%rbp)        # 4-byte Spill
.Ltmp542:
	#DEBUG_VALUE: quicksort___ieee754_rem_pio2f:z <- [RBP+-68]
	.loc	1 560 14                # quicksortlibm.c:560:14
	andl	$2147483632, %r12d      # imm = 0x7FFFFFF0
.Ltmp543:
	callq	_KPopCDep
	movl	$52, %edi
	movl	$2, %esi
	movl	$6, %edx
	callq	_KTimestamp1
	movl	$52, %edi
	callq	_KPushCDep
	.loc	1 560 12 is_stmt 0      # quicksortlibm.c:560:12
	cmpl	$1070141392, %r12d      # imm = 0x3FC90FD0
	jne	.LBB6_5
.Ltmp544:
# BB#6:                                 # %if.else
	#DEBUG_VALUE: quicksort___ieee754_rem_pio2f:y <- R14
	#DEBUG_VALUE: quicksort___ieee754_rem_pio2f:z <- [RBP+-68]
	movl	$14, %edi
	callq	_KWork
	movss	-68(%rbp), %xmm0        # 4-byte Reload
.Ltmp545:
	#DEBUG_VALUE: quicksort___ieee754_rem_pio2f:z <- XMM0
	.loc	1 564 9 is_stmt 1       # quicksortlibm.c:564:9
	addss	.LCPI6_11(%rip), %xmm0
.Ltmp546:
	.loc	1 565 18                # quicksortlibm.c:565:18
	movss	%xmm0, -68(%rbp)        # 4-byte Spill
.Ltmp547:
	#DEBUG_VALUE: quicksort___ieee754_rem_pio2f:z <- [RBP+-68]
	addss	.LCPI6_12(%rip), %xmm0
	movss	%xmm0, -72(%rbp)        # 4-byte Spill
	movl	$6, %edi
	movl	$1, %esi
	movl	$6, %edx
	movl	$2, %ecx
	movl	$10, %r8d
	callq	_KTimestamp2
	movl	$6, %edi
	movl	$4, %edx
	movq	%r14, %rsi
	callq	_KStore
	.loc	1 565 9 is_stmt 0       # quicksortlibm.c:565:9
	movss	-72(%rbp), %xmm0        # 4-byte Reload
	movss	%xmm0, (%r14)
	movl	$7, %esi
	movl	$4, %edx
	movq	%r14, %rdi
	callq	_KLoad0
	movss	-68(%rbp), %xmm0        # 4-byte Reload
.Ltmp548:
	#DEBUG_VALUE: quicksort___ieee754_rem_pio2f:z <- XMM0
	.loc	1 566 20 is_stmt 1      # quicksortlibm.c:566:20
	subss	(%r14), %xmm0
.Ltmp549:
	.loc	1 566 18 is_stmt 0      # quicksortlibm.c:566:18
	addss	.LCPI6_12(%rip), %xmm0
	movss	%xmm0, -68(%rbp)        # 4-byte Spill
	.loc	1 566 9                 # quicksortlibm.c:566:9
	leaq	4(%r14), %rbx
	movl	$4, (%rsp)
	movl	$8, %edi
	movl	$1, %esi
	movl	$8, %edx
	movl	$2, %ecx
	movl	$12, %r8d
	movl	$7, %r9d
	callq	_KTimestamp3
	movl	$8, %edi
	jmp	.LBB6_7
.Ltmp550:
.LBB6_13:                               # %if.end42
	#DEBUG_VALUE: quicksort___ieee754_rem_pio2f:x <- [RBP+-68]
	#DEBUG_VALUE: quicksort___ieee754_rem_pio2f:y <- R14
	#DEBUG_VALUE: quicksort___ieee754_rem_pio2f:hx <- R12D
	#DEBUG_VALUE: quicksort___ieee754_rem_pio2f:ix <- R13D
	movl	$39, %edi
	movl	$2, %esi
	movl	$4, %edx
	callq	_KTimestamp1
	callq	_KPopCDep
	movl	$39, %edi
	callq	_KPushCDep
	.loc	1 583 8 is_stmt 1       # quicksortlibm.c:583:8
	cmpl	$1128861568, %r13d      # imm = 0x43490F80
	ja	.LBB6_26
.Ltmp551:
# BB#14:                                # %if.then44
	#DEBUG_VALUE: quicksort___ieee754_rem_pio2f:x <- [RBP+-68]
	#DEBUG_VALUE: quicksort___ieee754_rem_pio2f:y <- R14
	#DEBUG_VALUE: quicksort___ieee754_rem_pio2f:hx <- R12D
	#DEBUG_VALUE: quicksort___ieee754_rem_pio2f:ix <- R13D
	movl	$20, %edi
	callq	_KWork
	movabsq	$9082859216982442291, %rdi # imm = 0x7E0CCC55B51F0133
	xorl	%esi, %esi
	callq	_KPrepCall
	movl	$1, %edi
	callq	_KEnqArg
	movl	$15, %edi
	callq	_KLinkReturn
	.loc	1 584 9                 # quicksortlibm.c:584:9
.Ltmp552:
	movss	-68(%rbp), %xmm0        # 4-byte Reload
	callq	quicksort___fabsf
.Ltmp553:
	#DEBUG_VALUE: quicksort___ieee754_rem_pio2f:t <- XMM0
	movss	.LCPI6_0(%rip), %xmm1
	.loc	1 585 19                # quicksortlibm.c:585:19
	mulss	%xmm0, %xmm1
	addss	.LCPI6_1(%rip), %xmm1
	.loc	1 585 9 is_stmt 0       # quicksortlibm.c:585:9
	cvttss2si	%xmm1, %r15d
.Ltmp554:
	#DEBUG_VALUE: quicksort___ieee754_rem_pio2f:n <- R15D
	.loc	1 586 10 is_stmt 1      # quicksortlibm.c:586:10
	cvtsi2ssl	%r15d, %xmm2
.Ltmp555:
	#DEBUG_VALUE: quicksort___ieee754_rem_pio2f:fn <- XMM2
	movss	%xmm2, -88(%rbp)        # 4-byte Spill
	movss	.LCPI6_2(%rip), %xmm1
	.loc	1 587 13                # quicksortlibm.c:587:13
	mulss	%xmm2, %xmm1
	.loc	1 587 9 is_stmt 0       # quicksortlibm.c:587:9
	addss	%xmm0, %xmm1
.Ltmp556:
	#DEBUG_VALUE: quicksort___ieee754_rem_pio2f:r <- XMM1
	#DEBUG_VALUE: quicksort___ieee754_rem_pio2f:t <- XMM1
	movss	%xmm1, -68(%rbp)        # 4-byte Spill
.Ltmp557:
	#DEBUG_VALUE: quicksort___ieee754_rem_pio2f:r <- [RBP+-68]
	#DEBUG_VALUE: quicksort___ieee754_rem_pio2f:t <- [RBP+-68]
	movss	.LCPI6_3(%rip), %xmm0
	.loc	1 588 9 is_stmt 1       # quicksortlibm.c:588:9
	mulss	%xmm2, %xmm0
.Ltmp558:
	#DEBUG_VALUE: quicksort___ieee754_rem_pio2f:w <- XMM0
	movss	%xmm0, -72(%rbp)        # 4-byte Spill
.Ltmp559:
	#DEBUG_VALUE: quicksort___ieee754_rem_pio2f:w <- [RBP+-72]
	#DEBUG_VALUE: quicksort___ieee754_rem_pio2f:fn <- [RBP+-88]
	movl	$36, %edi
	movl	$2, %esi
	movl	$18, %edx
	movl	$15, %ecx
	movl	$14, %r8d
	callq	_KTimestamp2
	movl	$47, %edi
	movl	$2, %esi
	movl	$11, %edx
	movl	$15, %ecx
	movl	$7, %r8d
	callq	_KTimestamp2
	movl	$43, %edi
	movl	$2, %esi
	movl	$16, %edx
	movl	$15, %ecx
	movl	$12, %r8d
	callq	_KTimestamp2
	movl	$40, %edi
	movl	$2, %esi
	movl	$12, %edx
	movl	$15, %ecx
	movl	$8, %r8d
	callq	_KTimestamp2
	callq	_KPopCDep
	.loc	1 590 10                # quicksortlibm.c:590:10
	cmpl	$31, %r15d
	jg	.LBB6_17
.Ltmp560:
# BB#15:                                # %land.lhs.true
	#DEBUG_VALUE: quicksort___ieee754_rem_pio2f:y <- R14
	#DEBUG_VALUE: quicksort___ieee754_rem_pio2f:hx <- R12D
	#DEBUG_VALUE: quicksort___ieee754_rem_pio2f:ix <- R13D
	#DEBUG_VALUE: quicksort___ieee754_rem_pio2f:t <- [RBP+-68]
	#DEBUG_VALUE: quicksort___ieee754_rem_pio2f:n <- R15D
	#DEBUG_VALUE: quicksort___ieee754_rem_pio2f:fn <- [RBP+-88]
	#DEBUG_VALUE: quicksort___ieee754_rem_pio2f:r <- [RBP+-68]
	#DEBUG_VALUE: quicksort___ieee754_rem_pio2f:w <- [RBP+-72]
	movl	$40, %edi
	callq	_KPushCDep
	movl	$7, %edi
	callq	_KWork
	.loc	1 590 36 is_stmt 0 discriminator 1 # quicksortlibm.c:590:36
.Ltmp561:
	movl	%r12d, %ebx
	andl	$2147483392, %ebx       # imm = 0x7FFFFF00
	.loc	1 591 32 is_stmt 1      # quicksortlibm.c:591:32
	leal	-1(%r15), %eax
	movq	%r15, -80(%rbp)         # 8-byte Spill
.Ltmp562:
	#DEBUG_VALUE: quicksort___ieee754_rem_pio2f:n <- [RBP+-80]
	.loc	1 591 12 is_stmt 0      # quicksortlibm.c:591:12
	movslq	%eax, %r15
	leaq	quicksort_npio2_hw(,%r15,4), %rdi
	movl	$16, %esi
	movl	$17, %edx
	movl	$4, %ecx
	callq	_KLoad1
	movl	$1, (%rsp)
	movl	$54, %edi
	movl	$2, %esi
	movl	$14, %edx
	movl	$15, %ecx
	movl	$10, %r8d
	movl	$16, %r9d
	callq	_KTimestamp3
	callq	_KPopCDep
	.loc	1 590 26 is_stmt 1      # quicksortlibm.c:590:26
	cmpl	quicksort_npio2_hw(,%r15,4), %ebx
	movq	-80(%rbp), %r15         # 8-byte Reload
.Ltmp563:
	#DEBUG_VALUE: quicksort___ieee754_rem_pio2f:n <- R15D
	jne	.LBB6_16
.Ltmp564:
.LBB6_17:                               # %if.else60
	#DEBUG_VALUE: quicksort___ieee754_rem_pio2f:y <- R14
	#DEBUG_VALUE: quicksort___ieee754_rem_pio2f:hx <- R12D
	#DEBUG_VALUE: quicksort___ieee754_rem_pio2f:ix <- R13D
	#DEBUG_VALUE: quicksort___ieee754_rem_pio2f:t <- [RBP+-68]
	#DEBUG_VALUE: quicksort___ieee754_rem_pio2f:n <- R15D
	#DEBUG_VALUE: quicksort___ieee754_rem_pio2f:fn <- [RBP+-88]
	#DEBUG_VALUE: quicksort___ieee754_rem_pio2f:r <- [RBP+-68]
	#DEBUG_VALUE: quicksort___ieee754_rem_pio2f:w <- [RBP+-72]
	movl	$40, %edi
	callq	_KPushCDep
	movl	$17, %edi
	callq	_KWork
	.loc	1 596 12                # quicksortlibm.c:596:12
.Ltmp565:
	shrl	$23, %r13d
.Ltmp566:
	#DEBUG_VALUE: quicksort___ieee754_rem_pio2f:j <- R13D
	#DEBUG_VALUE: quicksort___ieee754_rem_pio2f:r <- undef
	#DEBUG_VALUE: quicksort___ieee754_rem_pio2f:t <- undef
	.loc	1 597 16                # quicksortlibm.c:597:16
	movss	-68(%rbp), %xmm0        # 4-byte Reload
.Ltmp567:
	#DEBUG_VALUE: quicksort___ieee754_rem_pio2f:w <- undef
	#DEBUG_VALUE: quicksort___ieee754_rem_pio2f:r <- [RBP+-68]
	#DEBUG_VALUE: quicksort___ieee754_rem_pio2f:t <- [RBP+-68]
	subss	-72(%rbp), %xmm0        # 4-byte Folded Reload
	movss	%xmm0, -80(%rbp)        # 4-byte Spill
.Ltmp568:
	#DEBUG_VALUE: quicksort___ieee754_rem_pio2f:w <- [RBP+-72]
	movl	$19, %edi
	movl	$2, %esi
	movl	$20, %edx
	movl	$15, %ecx
	movl	$16, %r8d
	callq	_KTimestamp2
	movl	$19, %edi
	movl	$4, %edx
	movq	%r14, %rsi
	callq	_KStore
	.loc	1 597 7 is_stmt 0       # quicksortlibm.c:597:7
	movss	-80(%rbp), %xmm0        # 4-byte Reload
	movss	%xmm0, (%r14)
	movl	$20, %esi
	movl	$4, %edx
	movq	%r14, %rdi
	callq	_KLoad0
	.loc	1 598 7 is_stmt 1       # quicksortlibm.c:598:7
.Ltmp569:
	movss	(%r14), %xmm0
	movss	%xmm0, -80(%rbp)        # 4-byte Spill
	movl	$20, %edi
	movl	$20, %esi
	xorl	%edx, %edx
	callq	_KTimestamp1
	leaq	-56(%rbp), %rbx
	movl	$20, %edi
	movl	$4, %edx
	movq	%rbx, %rsi
	callq	_KStore
	movss	-80(%rbp), %xmm0        # 4-byte Reload
	movss	%xmm0, -56(%rbp)
	movl	$21, %esi
	movl	$4, %edx
	movq	%rbx, %rdi
	callq	_KLoad0
	movl	-56(%rbp), %eax
.Ltmp570:
	#DEBUG_VALUE: high <- EAX
	.loc	1 599 19                # quicksortlibm.c:599:19
	shrl	$23, %eax
.Ltmp571:
	.loc	1 599 17 is_stmt 0      # quicksortlibm.c:599:17
	movzbl	%al, %eax
	.loc	1 599 11                # quicksortlibm.c:599:11
	movl	%r13d, %ebx
	subl	%eax, %ebx
.Ltmp572:
	#DEBUG_VALUE: quicksort___ieee754_rem_pio2f:i <- EBX
	movl	$4, (%rsp)
	movl	$41, %edi
	movl	$2, %esi
	movl	$16, %edx
	movl	$15, %ecx
	movl	$12, %r8d
	movl	$21, %r9d
	callq	_KTimestamp3
	callq	_KPopCDep
	.loc	1 600 12 is_stmt 1      # quicksortlibm.c:600:12
	cmpl	$9, %ebx
	jl	.LBB6_18
.Ltmp573:
# BB#19:                                # %if.then72
	#DEBUG_VALUE: quicksort___ieee754_rem_pio2f:y <- R14
	#DEBUG_VALUE: quicksort___ieee754_rem_pio2f:hx <- R12D
	#DEBUG_VALUE: quicksort___ieee754_rem_pio2f:t <- [RBP+-68]
	#DEBUG_VALUE: quicksort___ieee754_rem_pio2f:n <- R15D
	#DEBUG_VALUE: quicksort___ieee754_rem_pio2f:fn <- [RBP+-88]
	#DEBUG_VALUE: quicksort___ieee754_rem_pio2f:r <- [RBP+-68]
	#DEBUG_VALUE: quicksort___ieee754_rem_pio2f:j <- R13D
	movq	%r15, -80(%rbp)         # 8-byte Spill
.Ltmp574:
	#DEBUG_VALUE: quicksort___ieee754_rem_pio2f:n <- [RBP+-80]
	movl	$41, %edi
	callq	_KPushCDep
	movl	$34, %edi
	callq	_KWork
	movss	.LCPI6_4(%rip), %xmm0
	movss	-88(%rbp), %xmm3        # 4-byte Reload
.Ltmp575:
	#DEBUG_VALUE: quicksort___ieee754_rem_pio2f:fn <- XMM3
	.loc	1 602 13                # quicksortlibm.c:602:13
	mulss	%xmm3, %xmm0
.Ltmp576:
	#DEBUG_VALUE: quicksort___ieee754_rem_pio2f:w <- XMM0
	movss	-68(%rbp), %xmm2        # 4-byte Reload
.Ltmp577:
	#DEBUG_VALUE: quicksort___ieee754_rem_pio2f:r <- XMM2
	#DEBUG_VALUE: quicksort___ieee754_rem_pio2f:t <- XMM2
	.loc	1 603 13                # quicksortlibm.c:603:13
	movaps	%xmm2, %xmm4
	subss	%xmm0, %xmm4
.Ltmp578:
	#DEBUG_VALUE: quicksort___ieee754_rem_pio2f:r <- XMM4
	#DEBUG_VALUE: quicksort___ieee754_rem_pio2f:t <- XMM4
	movss	%xmm4, -84(%rbp)        # 4-byte Spill
	movss	.LCPI6_5(%rip), %xmm1
	.loc	1 604 13                # quicksortlibm.c:604:13
	mulss	%xmm3, %xmm1
.Ltmp579:
	#DEBUG_VALUE: quicksort___ieee754_rem_pio2f:fn <- [RBP+-88]
	.loc	1 604 42 is_stmt 0      # quicksortlibm.c:604:42
	subss	%xmm4, %xmm2
	.loc	1 604 40                # quicksortlibm.c:604:40
	subss	%xmm0, %xmm2
	.loc	1 604 13                # quicksortlibm.c:604:13
	subss	%xmm2, %xmm1
.Ltmp580:
	#DEBUG_VALUE: quicksort___ieee754_rem_pio2f:w <- XMM1
	.loc	1 605 18 is_stmt 1      # quicksortlibm.c:605:18
	movss	%xmm1, -72(%rbp)        # 4-byte Spill
.Ltmp581:
	#DEBUG_VALUE: quicksort___ieee754_rem_pio2f:r <- [RBP+-84]
	#DEBUG_VALUE: quicksort___ieee754_rem_pio2f:t <- [RBP+-84]
	subss	%xmm1, %xmm4
	movss	%xmm4, -68(%rbp)        # 4-byte Spill
.Ltmp582:
	#DEBUG_VALUE: quicksort___ieee754_rem_pio2f:w <- [RBP+-72]
	movl	$19, (%rsp)
	movl	$22, %edi
	movl	$2, %esi
	movl	$31, %edx
	movl	$15, %ecx
	movl	$27, %r8d
	movl	$21, %r9d
	callq	_KTimestamp3
	movl	$22, %edi
	movl	$4, %edx
	movq	%r14, %rsi
	callq	_KStore
	.loc	1 605 9 is_stmt 0       # quicksortlibm.c:605:9
	movss	-68(%rbp), %xmm0        # 4-byte Reload
	movss	%xmm0, (%r14)
	movl	$23, %esi
	movl	$4, %edx
	movq	%r14, %rdi
	callq	_KLoad0
	.loc	1 606 9 is_stmt 1       # quicksortlibm.c:606:9
.Ltmp583:
	movss	(%r14), %xmm0
	movss	%xmm0, -68(%rbp)        # 4-byte Spill
	movl	$23, %edi
	movl	$23, %esi
	xorl	%edx, %edx
	callq	_KTimestamp1
	leaq	-64(%rbp), %rbx
	movl	$23, %edi
	movl	$4, %edx
	movq	%rbx, %rsi
	callq	_KStore
	movss	-68(%rbp), %xmm0        # 4-byte Reload
	movss	%xmm0, -64(%rbp)
	movl	$24, %esi
	movl	$4, %edx
	movq	%rbx, %rdi
	callq	_KLoad0
	movl	-64(%rbp), %eax
.Ltmp584:
	#DEBUG_VALUE: high <- EAX
	.loc	1 607 21                # quicksortlibm.c:607:21
	shrl	$23, %eax
.Ltmp585:
	.loc	1 607 19 is_stmt 0      # quicksortlibm.c:607:19
	movzbl	%al, %eax
	.loc	1 607 13                # quicksortlibm.c:607:13
	subl	%eax, %r13d
.Ltmp586:
	#DEBUG_VALUE: quicksort___ieee754_rem_pio2f:i <- R13D
	movl	$4, 16(%rsp)
	movl	$24, 8(%rsp)
	movl	$8, (%rsp)
	movl	$42, %edi
	movl	$2, %esi
	movl	$20, %edx
	movl	$15, %ecx
	movl	$16, %r8d
	movl	$21, %r9d
	callq	_KTimestamp4
	movl	$17, (%rsp)
	movl	$45, %edi
	movl	$2, %esi
	movl	$29, %edx
	movl	$15, %ecx
	movl	$25, %r8d
	movl	$21, %r9d
	callq	_KTimestamp3
	movl	$11, (%rsp)
	movl	$38, %edi
	movl	$2, %esi
	movl	$23, %edx
	movl	$15, %ecx
	movl	$19, %r8d
	movl	$21, %r9d
	callq	_KTimestamp3
	callq	_KPopCDep
	.loc	1 608 14 is_stmt 1      # quicksortlibm.c:608:14
	cmpl	$26, %r13d
	jl	.LBB6_20
.Ltmp587:
# BB#21:                                # %if.then90
	#DEBUG_VALUE: quicksort___ieee754_rem_pio2f:y <- R14
	#DEBUG_VALUE: quicksort___ieee754_rem_pio2f:hx <- R12D
	#DEBUG_VALUE: quicksort___ieee754_rem_pio2f:t <- [RBP+-84]
	#DEBUG_VALUE: quicksort___ieee754_rem_pio2f:n <- [RBP+-80]
	#DEBUG_VALUE: quicksort___ieee754_rem_pio2f:fn <- [RBP+-88]
	#DEBUG_VALUE: quicksort___ieee754_rem_pio2f:r <- [RBP+-84]
	movl	$42, %ebx
	movl	$42, %edi
	callq	_KPushCDep
	movl	$21, %edi
	callq	_KWork
	movss	.LCPI6_6(%rip), %xmm0
	movss	-88(%rbp), %xmm3        # 4-byte Reload
.Ltmp588:
	#DEBUG_VALUE: quicksort___ieee754_rem_pio2f:fn <- XMM3
	.loc	1 610 15                # quicksortlibm.c:610:15
	mulss	%xmm3, %xmm0
.Ltmp589:
	#DEBUG_VALUE: quicksort___ieee754_rem_pio2f:w <- XMM0
	movss	-84(%rbp), %xmm2        # 4-byte Reload
.Ltmp590:
	#DEBUG_VALUE: quicksort___ieee754_rem_pio2f:r <- XMM2
	#DEBUG_VALUE: quicksort___ieee754_rem_pio2f:t <- XMM2
	.loc	1 611 15                # quicksortlibm.c:611:15
	movaps	%xmm2, %xmm1
	subss	%xmm0, %xmm1
.Ltmp591:
	#DEBUG_VALUE: quicksort___ieee754_rem_pio2f:r <- XMM1
	.loc	1 612 15                # quicksortlibm.c:612:15
	movss	%xmm1, -68(%rbp)        # 4-byte Spill
	mulss	.LCPI6_7(%rip), %xmm3
.Ltmp592:
	.loc	1 612 44 is_stmt 0      # quicksortlibm.c:612:44
	subss	%xmm1, %xmm2
.Ltmp593:
	.loc	1 612 42                # quicksortlibm.c:612:42
	subss	%xmm0, %xmm2
	.loc	1 612 15                # quicksortlibm.c:612:15
	subss	%xmm2, %xmm3
.Ltmp594:
	#DEBUG_VALUE: quicksort___ieee754_rem_pio2f:w <- XMM3
	.loc	1 613 20 is_stmt 1      # quicksortlibm.c:613:20
	movss	%xmm3, -88(%rbp)        # 4-byte Spill
.Ltmp595:
	#DEBUG_VALUE: quicksort___ieee754_rem_pio2f:r <- [RBP+-68]
	subss	%xmm3, %xmm1
	movss	%xmm1, -72(%rbp)        # 4-byte Spill
.Ltmp596:
	#DEBUG_VALUE: quicksort___ieee754_rem_pio2f:w <- [RBP+-88]
	movl	$19, 16(%rsp)
	movl	$24, 8(%rsp)
	movl	$23, (%rsp)
	movl	$25, %edi
	movl	$2, %esi
	movl	$35, %edx
	movl	$15, %ecx
	movl	$31, %r8d
	movl	$21, %r9d
	callq	_KTimestamp4
	movl	$25, %edi
	movl	$4, %edx
	movq	%r14, %rsi
	callq	_KStore
	.loc	1 613 11 is_stmt 0      # quicksortlibm.c:613:11
	movss	-72(%rbp), %xmm0        # 4-byte Reload
	movss	%xmm0, (%r14)
	movl	$11, 16(%rsp)
	movl	$24, 8(%rsp)
	movl	$15, (%rsp)
	movl	$37, -84(%rbp)          # 4-byte Folded Spill
	movl	$37, %edi
	movl	$2, %esi
	movl	$27, %edx
	movl	$15, %ecx
	movl	$23, %r8d
	movl	$21, %r9d
	callq	_KTimestamp4
	movl	$17, 16(%rsp)
	movl	$24, 8(%rsp)
	movl	$21, (%rsp)
	movl	$44, %r13d
	movl	$44, %edi
	movl	$2, %esi
	movl	$33, %edx
	movl	$15, %ecx
	movl	$29, %r8d
	movl	$21, %r9d
	callq	_KTimestamp4
	callq	_KPopCDep
	movss	-88(%rbp), %xmm0        # 4-byte Reload
	movss	%xmm0, -72(%rbp)        # 4-byte Spill
	jmp	.LBB6_22
.Ltmp597:
.LBB6_26:                               # %if.end117
	#DEBUG_VALUE: quicksort___ieee754_rem_pio2f:x <- [RBP+-68]
	#DEBUG_VALUE: quicksort___ieee754_rem_pio2f:y <- R14
	#DEBUG_VALUE: quicksort___ieee754_rem_pio2f:ix <- R13D
	movl	$1, %edi
	callq	_KWork
	callq	_KPopCDep
	movl	$55, %edi
	movl	$2, %esi
	movl	$5, %edx
	callq	_KTimestamp1
	movl	$55, %edi
	callq	_KPushCDep
	.loc	1 630 8 is_stmt 1       # quicksortlibm.c:630:8
	cmpl	$2139095040, %r13d      # imm = 0x7F800000
	jb	.LBB6_28
.Ltmp598:
# BB#27:                                # %if.then120
	#DEBUG_VALUE: quicksort___ieee754_rem_pio2f:x <- [RBP+-68]
	#DEBUG_VALUE: quicksort___ieee754_rem_pio2f:y <- R14
	movl	$4, %edi
	callq	_KWork
.Ltmp599:
	#DEBUG_VALUE: quicksort___ieee754_rem_pio2f:x <- undef
	.loc	1 631 23                # quicksortlibm.c:631:23
	movss	-68(%rbp), %xmm0        # 4-byte Reload
	subss	%xmm0, %xmm0
	movss	%xmm0, -68(%rbp)        # 4-byte Spill
	.loc	1 631 14 is_stmt 0      # quicksortlibm.c:631:14
	leaq	4(%r14), %rbx
	movl	$34, %edi
	movl	$1, %esi
	movl	$2, %edx
	movl	$2, %ecx
	movl	$7, %r8d
	callq	_KTimestamp2
	movl	$34, %edi
	movl	$4, %edx
	movq	%rbx, %rsi
	callq	_KStore
	movss	-68(%rbp), %xmm0        # 4-byte Reload
	movss	%xmm0, 4(%r14)
	movl	$34, %edi
	movl	$4, %edx
	movq	%r14, %rsi
	callq	_KStore
	.loc	1 631 5                 # quicksortlibm.c:631:5
	movss	-68(%rbp), %xmm0        # 4-byte Reload
	movss	%xmm0, (%r14)
.Ltmp600:
.LBB6_28:                               # %if.end124
	callq	_KPopCDep
	movl	$49, %r8d
	movl	$39, %eax
	xorl	%r15d, %r15d
	xorl	%ebx, %ebx
	xorl	%r12d, %r12d
.LBB6_29:                               # %return
	xorl	%r13d, %r13d
	movabsq	$4662427859289503493, %r14 # imm = 0x40B4456F77D5F705
	jmp	.LBB6_30
.LBB6_9:                                # %if.else23
.Ltmp601:
	#DEBUG_VALUE: quicksort___ieee754_rem_pio2f:x <- [RBP+-68]
	#DEBUG_VALUE: quicksort___ieee754_rem_pio2f:x <- undef
	#DEBUG_VALUE: quicksort___ieee754_rem_pio2f:y <- R14
	#DEBUG_VALUE: quicksort___ieee754_rem_pio2f:hx <- R12D
	.loc	1 570 11 is_stmt 1      # quicksortlibm.c:570:11
	movss	-68(%rbp), %xmm0        # 4-byte Reload
	addss	.LCPI6_9(%rip), %xmm0
.Ltmp602:
	#DEBUG_VALUE: quicksort___ieee754_rem_pio2f:z <- undef
	movss	%xmm0, -68(%rbp)        # 4-byte Spill
.Ltmp603:
	#DEBUG_VALUE: quicksort___ieee754_rem_pio2f:z <- [RBP+-68]
	.loc	1 571 14                # quicksortlibm.c:571:14
	andl	$2147483632, %r12d      # imm = 0x7FFFFFF0
.Ltmp604:
	callq	_KPopCDep
	movl	$53, %edi
	movl	$2, %esi
	movl	$6, %edx
	callq	_KTimestamp1
	movl	$53, %edi
	callq	_KPushCDep
	.loc	1 571 12 is_stmt 0      # quicksortlibm.c:571:12
	cmpl	$1070141392, %r12d      # imm = 0x3FC90FD0
	jne	.LBB6_10
.Ltmp605:
# BB#11:                                # %if.else33
	#DEBUG_VALUE: quicksort___ieee754_rem_pio2f:y <- R14
	#DEBUG_VALUE: quicksort___ieee754_rem_pio2f:z <- [RBP+-68]
	movl	$14, %edi
	callq	_KWork
	movss	-68(%rbp), %xmm0        # 4-byte Reload
.Ltmp606:
	#DEBUG_VALUE: quicksort___ieee754_rem_pio2f:z <- XMM0
	.loc	1 575 9 is_stmt 1       # quicksortlibm.c:575:9
	addss	.LCPI6_4(%rip), %xmm0
.Ltmp607:
	.loc	1 576 18                # quicksortlibm.c:576:18
	movss	%xmm0, -68(%rbp)        # 4-byte Spill
.Ltmp608:
	#DEBUG_VALUE: quicksort___ieee754_rem_pio2f:z <- [RBP+-68]
	addss	.LCPI6_5(%rip), %xmm0
	movss	%xmm0, -72(%rbp)        # 4-byte Spill
	movl	$12, %edi
	movl	$1, %esi
	movl	$6, %edx
	movl	$2, %ecx
	movl	$10, %r8d
	callq	_KTimestamp2
	movl	$12, %edi
	movl	$4, %edx
	movq	%r14, %rsi
	callq	_KStore
	.loc	1 576 9 is_stmt 0       # quicksortlibm.c:576:9
	movss	-72(%rbp), %xmm0        # 4-byte Reload
	movss	%xmm0, (%r14)
	movl	$13, %esi
	movl	$4, %edx
	movq	%r14, %rdi
	callq	_KLoad0
	movss	-68(%rbp), %xmm0        # 4-byte Reload
.Ltmp609:
	#DEBUG_VALUE: quicksort___ieee754_rem_pio2f:z <- XMM0
	.loc	1 577 20 is_stmt 1      # quicksortlibm.c:577:20
	subss	(%r14), %xmm0
.Ltmp610:
	.loc	1 577 18 is_stmt 0      # quicksortlibm.c:577:18
	addss	.LCPI6_5(%rip), %xmm0
	movss	%xmm0, -68(%rbp)        # 4-byte Spill
	.loc	1 577 9                 # quicksortlibm.c:577:9
	leaq	4(%r14), %rbx
	movl	$4, (%rsp)
	movl	$14, %edi
	movl	$1, %esi
	movl	$8, %edx
	movl	$2, %ecx
	movl	$12, %r8d
	movl	$13, %r9d
	callq	_KTimestamp3
	movl	$14, %edi
	jmp	.LBB6_12
.Ltmp611:
.LBB6_5:                                # %if.then8
	#DEBUG_VALUE: quicksort___ieee754_rem_pio2f:y <- R14
	#DEBUG_VALUE: quicksort___ieee754_rem_pio2f:z <- [RBP+-68]
	movl	$12, %edi
	callq	_KWork
.Ltmp612:
	#DEBUG_VALUE: quicksort___ieee754_rem_pio2f:z <- undef
	.loc	1 561 18 is_stmt 1      # quicksortlibm.c:561:18
	movss	-68(%rbp), %xmm0        # 4-byte Reload
.Ltmp613:
	#DEBUG_VALUE: quicksort___ieee754_rem_pio2f:z <- [RBP+-68]
	addss	.LCPI6_10(%rip), %xmm0
	movss	%xmm0, -72(%rbp)        # 4-byte Spill
	movl	$3, %edi
	movl	$1, %esi
	movl	$4, %edx
	movl	$2, %ecx
	movl	$8, %r8d
	callq	_KTimestamp2
	movl	$3, %edi
	movl	$4, %edx
	movq	%r14, %rsi
	callq	_KStore
	.loc	1 561 9 is_stmt 0       # quicksortlibm.c:561:9
	movss	-72(%rbp), %xmm0        # 4-byte Reload
	movss	%xmm0, (%r14)
	movl	$4, %esi
	movl	$4, %edx
	movq	%r14, %rdi
	callq	_KLoad0
	movss	-68(%rbp), %xmm0        # 4-byte Reload
.Ltmp614:
	#DEBUG_VALUE: quicksort___ieee754_rem_pio2f:z <- XMM0
	.loc	1 562 20 is_stmt 1      # quicksortlibm.c:562:20
	subss	(%r14), %xmm0
.Ltmp615:
	.loc	1 562 18 is_stmt 0      # quicksortlibm.c:562:18
	addss	.LCPI6_10(%rip), %xmm0
	movss	%xmm0, -68(%rbp)        # 4-byte Spill
	.loc	1 562 9                 # quicksortlibm.c:562:9
	leaq	4(%r14), %rbx
	movl	$4, (%rsp)
	movl	$5, %edi
	movl	$1, %esi
	movl	$6, %edx
	movl	$2, %ecx
	movl	$10, %r8d
	movl	$4, %r9d
	callq	_KTimestamp3
	movl	$5, %edi
.Ltmp616:
.LBB6_7:                                # %if.end22
	movl	$4, %edx
	movq	%rbx, %rsi
	callq	_KStore
	.loc	1 566 9 is_stmt 1       # quicksortlibm.c:566:9
.Ltmp617:
	movss	-68(%rbp), %xmm0        # 4-byte Reload
	movss	%xmm0, 4(%r14)
	callq	_KPopCDep
	movabsq	$4662427859289503493, %r14 # imm = 0x40B4456F77D5F705
	movl	$50, %r12d
	movl	$50, %edi
	callq	_KPushCDep
	callq	_KPopCDep
	movl	$1, %r13d
	jmp	.LBB6_8
.Ltmp618:
.LBB6_18:
	#DEBUG_VALUE: quicksort___ieee754_rem_pio2f:y <- R14
	#DEBUG_VALUE: quicksort___ieee754_rem_pio2f:hx <- R12D
	#DEBUG_VALUE: quicksort___ieee754_rem_pio2f:t <- [RBP+-68]
	#DEBUG_VALUE: quicksort___ieee754_rem_pio2f:n <- R15D
	#DEBUG_VALUE: quicksort___ieee754_rem_pio2f:r <- [RBP+-68]
	#DEBUG_VALUE: quicksort___ieee754_rem_pio2f:w <- [RBP+-72]
	movq	%r15, -80(%rbp)         # 8-byte Spill
.Ltmp619:
	#DEBUG_VALUE: quicksort___ieee754_rem_pio2f:n <- [RBP+-80]
	xorl	%ebx, %ebx
	movl	$36, -84(%rbp)          # 4-byte Folded Spill
	movl	$43, %r13d
	jmp	.LBB6_22
.Ltmp620:
.LBB6_10:                               # %if.then26
	#DEBUG_VALUE: quicksort___ieee754_rem_pio2f:y <- R14
	#DEBUG_VALUE: quicksort___ieee754_rem_pio2f:z <- [RBP+-68]
	movl	$12, %edi
	callq	_KWork
.Ltmp621:
	#DEBUG_VALUE: quicksort___ieee754_rem_pio2f:z <- undef
	.loc	1 572 18                # quicksortlibm.c:572:18
	movss	-68(%rbp), %xmm0        # 4-byte Reload
.Ltmp622:
	#DEBUG_VALUE: quicksort___ieee754_rem_pio2f:z <- [RBP+-68]
	addss	.LCPI6_3(%rip), %xmm0
	movss	%xmm0, -72(%rbp)        # 4-byte Spill
	movl	$9, %edi
	movl	$1, %esi
	movl	$4, %edx
	movl	$2, %ecx
	movl	$8, %r8d
	callq	_KTimestamp2
	movl	$9, %edi
	movl	$4, %edx
	movq	%r14, %rsi
	callq	_KStore
	.loc	1 572 9 is_stmt 0       # quicksortlibm.c:572:9
	movss	-72(%rbp), %xmm0        # 4-byte Reload
	movss	%xmm0, (%r14)
	movl	$10, %esi
	movl	$4, %edx
	movq	%r14, %rdi
	callq	_KLoad0
	movss	-68(%rbp), %xmm0        # 4-byte Reload
.Ltmp623:
	#DEBUG_VALUE: quicksort___ieee754_rem_pio2f:z <- XMM0
	.loc	1 573 20 is_stmt 1      # quicksortlibm.c:573:20
	subss	(%r14), %xmm0
.Ltmp624:
	.loc	1 573 18 is_stmt 0      # quicksortlibm.c:573:18
	addss	.LCPI6_3(%rip), %xmm0
	movss	%xmm0, -68(%rbp)        # 4-byte Spill
	.loc	1 573 9                 # quicksortlibm.c:573:9
	leaq	4(%r14), %rbx
	movl	$4, (%rsp)
	movl	$11, %edi
	movl	$1, %esi
	movl	$6, %edx
	movl	$2, %ecx
	movl	$10, %r8d
	movl	$10, %r9d
	callq	_KTimestamp3
	movl	$11, %edi
.Ltmp625:
.LBB6_12:                               # %if.end41
	movl	$4, %edx
	movq	%rbx, %rsi
	callq	_KStore
	.loc	1 577 9 is_stmt 1       # quicksortlibm.c:577:9
.Ltmp626:
	movss	-68(%rbp), %xmm0        # 4-byte Reload
	movss	%xmm0, 4(%r14)
	callq	_KPopCDep
	movabsq	$4662427859289503493, %r14 # imm = 0x40B4456F77D5F705
	movl	$50, %r12d
	movl	$50, %edi
	callq	_KPushCDep
	callq	_KPopCDep
	movl	$-1, %r13d
.Ltmp627:
.LBB6_8:                                # %return
	movl	$49, %r8d
	xorl	%r15d, %r15d
	xorl	%eax, %eax
	xorl	%ebx, %ebx
	jmp	.LBB6_30
.LBB6_16:                               # %if.then57
.Ltmp628:
	#DEBUG_VALUE: quicksort___ieee754_rem_pio2f:y <- R14
	#DEBUG_VALUE: quicksort___ieee754_rem_pio2f:hx <- R12D
	#DEBUG_VALUE: quicksort___ieee754_rem_pio2f:t <- [RBP+-68]
	#DEBUG_VALUE: quicksort___ieee754_rem_pio2f:n <- R15D
	#DEBUG_VALUE: quicksort___ieee754_rem_pio2f:n <- [RBP+-80]
	#DEBUG_VALUE: quicksort___ieee754_rem_pio2f:r <- [RBP+-68]
	#DEBUG_VALUE: quicksort___ieee754_rem_pio2f:w <- [RBP+-72]
	movl	$54, %edi
	callq	_KPushCDep
	movl	$3, %edi
	callq	_KWork
.Ltmp629:
	#DEBUG_VALUE: quicksort___ieee754_rem_pio2f:r <- undef
	#DEBUG_VALUE: quicksort___ieee754_rem_pio2f:t <- undef
	.loc	1 592 16                # quicksortlibm.c:592:16
	movss	-68(%rbp), %xmm0        # 4-byte Reload
.Ltmp630:
	#DEBUG_VALUE: quicksort___ieee754_rem_pio2f:w <- undef
	#DEBUG_VALUE: quicksort___ieee754_rem_pio2f:r <- [RBP+-68]
	#DEBUG_VALUE: quicksort___ieee754_rem_pio2f:t <- [RBP+-68]
	subss	-72(%rbp), %xmm0        # 4-byte Folded Reload
	movss	%xmm0, -84(%rbp)        # 4-byte Spill
.Ltmp631:
	#DEBUG_VALUE: quicksort___ieee754_rem_pio2f:w <- [RBP+-72]
	movl	$3, (%rsp)
	movl	$18, %edi
	movl	$2, %esi
	movl	$20, %edx
	movl	$15, %ecx
	movl	$16, %r8d
	movl	$16, %r9d
	callq	_KTimestamp3
	movl	$18, %edi
	movl	$4, %edx
	movq	%r14, %rsi
	callq	_KStore
	.loc	1 592 7 is_stmt 0       # quicksortlibm.c:592:7
	movss	-84(%rbp), %xmm0        # 4-byte Reload
	movss	%xmm0, (%r14)
	callq	_KPopCDep
	xorl	%ebx, %ebx
	xorl	%r15d, %r15d
	movl	$36, -84(%rbp)          # 4-byte Folded Spill
	movl	$43, %r13d
	jmp	.LBB6_23
.Ltmp632:
.LBB6_20:
	#DEBUG_VALUE: quicksort___ieee754_rem_pio2f:y <- R14
	#DEBUG_VALUE: quicksort___ieee754_rem_pio2f:hx <- R12D
	#DEBUG_VALUE: quicksort___ieee754_rem_pio2f:t <- [RBP+-84]
	#DEBUG_VALUE: quicksort___ieee754_rem_pio2f:n <- [RBP+-80]
	#DEBUG_VALUE: quicksort___ieee754_rem_pio2f:r <- [RBP+-84]
	#DEBUG_VALUE: quicksort___ieee754_rem_pio2f:w <- [RBP+-72]
	movss	-84(%rbp), %xmm0        # 4-byte Reload
	movss	%xmm0, -68(%rbp)        # 4-byte Spill
.Ltmp633:
	#DEBUG_VALUE: quicksort___ieee754_rem_pio2f:r <- [RBP+-68]
	#DEBUG_VALUE: quicksort___ieee754_rem_pio2f:t <- [RBP+-68]
	movl	$45, %r13d
	movl	$42, %ebx
	movl	$38, -84(%rbp)          # 4-byte Folded Spill
.Ltmp634:
.LBB6_22:                               # %if.end101
	#DEBUG_VALUE: quicksort___ieee754_rem_pio2f:w <- [RBP+-72]
	movl	$41, %r15d
.LBB6_23:                               # %if.end101
.Ltmp635:
	#DEBUG_VALUE: quicksort___ieee754_rem_pio2f:y <- R14
	#DEBUG_VALUE: quicksort___ieee754_rem_pio2f:hx <- R12D
	#DEBUG_VALUE: quicksort___ieee754_rem_pio2f:n <- [RBP+-80]
	movl	$39, %edi
	callq	_KPushCDep
	movl	$29, %edi
	movl	$39, %edx
	movl	$40, %ecx
	movl	%r13d, %esi
	movl	%r15d, %r8d
	movl	%ebx, %r9d
	callq	_KPhi4To1
	movl	$28, %edi
	movl	$39, %edx
	movl	$40, %ecx
	movl	-84(%rbp), %esi         # 4-byte Reload
	movl	%r15d, %r8d
	movl	%ebx, %r9d
	callq	_KPhi4To1
	movl	$10, %edi
	callq	_KWork
	movl	$26, %esi
	movl	$4, %edx
	movq	%r14, %rdi
	callq	_KLoad0
	movss	-68(%rbp), %xmm0        # 4-byte Reload
	.loc	1 618 16 is_stmt 1      # quicksortlibm.c:618:16
	subss	(%r14), %xmm0
	.loc	1 618 14 is_stmt 0      # quicksortlibm.c:618:14
	subss	-72(%rbp), %xmm0        # 4-byte Folded Reload
	movss	%xmm0, -68(%rbp)        # 4-byte Spill
	.loc	1 618 5                 # quicksortlibm.c:618:5
	leaq	4(%r14), %rbx
	movl	$4, 16(%rsp)
	movl	$26, 8(%rsp)
	movl	$2, (%rsp)
	movl	$27, %edi
	movl	$2, %esi
	movl	$8, %edx
	movl	$28, %ecx
	movl	$4, %r8d
	movl	$29, %r9d
	callq	_KTimestamp4
	movl	$27, %edi
	movl	$4, %edx
	movq	%rbx, %rsi
	callq	_KStore
	movss	-68(%rbp), %xmm0        # 4-byte Reload
	movss	%xmm0, 4(%r14)
	movl	$51, %r15d
	movl	$51, %edi
	movl	$2, %esi
	movl	$5, %edx
	callq	_KTimestamp1
	callq	_KPopCDep
	movl	$51, %edi
	callq	_KPushCDep
	.loc	1 619 10 is_stmt 1      # quicksortlibm.c:619:10
	testl	%r12d, %r12d
	js	.LBB6_24
.Ltmp636:
# BB#25:                                # %if.else116
	#DEBUG_VALUE: quicksort___ieee754_rem_pio2f:n <- [RBP+-80]
	callq	_KPopCDep
	movl	$49, %r8d
	xorl	%r12d, %r12d
	movl	$47, %ebx
	movabsq	$4662427859289503493, %r14 # imm = 0x40B4456F77D5F705
	movq	-80(%rbp), %r13         # 8-byte Reload
.Ltmp637:
	#DEBUG_VALUE: quicksort___ieee754_rem_pio2f:n <- R13D
	movl	$39, %eax
	jmp	.LBB6_30
.Ltmp638:
.LBB6_24:                               # %if.then108
	#DEBUG_VALUE: quicksort___ieee754_rem_pio2f:y <- R14
	#DEBUG_VALUE: quicksort___ieee754_rem_pio2f:n <- [RBP+-80]
	movl	$15, %edi
	callq	_KWork
	movl	$30, %esi
	movl	$4, %edx
	movq	%r14, %rdi
	callq	_KLoad0
	.loc	1 620 17                # quicksortlibm.c:620:17
.Ltmp639:
	movss	(%r14), %xmm0
	.loc	1 620 16 is_stmt 0      # quicksortlibm.c:620:16
	xorps	.LCPI6_8(%rip), %xmm0
	movss	%xmm0, -68(%rbp)        # 4-byte Spill
	movl	$31, %edi
	movl	$2, %esi
	movl	$7, %edx
	movl	$30, %ecx
	movl	$2, %r8d
	callq	_KTimestamp2
	movl	$31, %edi
	movl	$4, %edx
	movq	%r14, %rsi
	callq	_KStore
	.loc	1 620 7                 # quicksortlibm.c:620:7
	movss	-68(%rbp), %xmm0        # 4-byte Reload
	movss	%xmm0, (%r14)
	movl	$32, %esi
	movl	$4, %edx
	movq	%rbx, %rdi
	callq	_KLoad0
	.loc	1 621 17 is_stmt 1      # quicksortlibm.c:621:17
	movss	4(%r14), %xmm0
	.loc	1 621 16 is_stmt 0      # quicksortlibm.c:621:16
	xorps	.LCPI6_8(%rip), %xmm0
	movss	%xmm0, -68(%rbp)        # 4-byte Spill
	movl	$33, %edi
	movl	$2, %esi
	movl	$7, %edx
	movl	$32, %ecx
	movl	$2, %r8d
	callq	_KTimestamp2
	movl	$33, %edi
	movl	$4, %edx
	movq	%rbx, %rsi
	callq	_KStore
	.loc	1 621 7                 # quicksortlibm.c:621:7
	movss	-68(%rbp), %xmm0        # 4-byte Reload
	movss	%xmm0, 4(%r14)
	movq	-80(%rbp), %r13         # 8-byte Reload
.Ltmp640:
	#DEBUG_VALUE: quicksort___ieee754_rem_pio2f:n <- R13D
	.loc	1 622 15 is_stmt 1      # quicksortlibm.c:622:15
	negl	%r13d
.Ltmp641:
	movl	$46, %ebx
	movl	$46, %edi
	movl	$2, %esi
	movl	$12, %edx
	movl	$15, %ecx
	movl	$8, %r8d
	callq	_KTimestamp2
	callq	_KPopCDep
	movl	$49, %r8d
	xorl	%r12d, %r12d
	movabsq	$4662427859289503493, %r14 # imm = 0x40B4456F77D5F705
.Ltmp642:
	movl	$39, %eax
.Ltmp643:
.LBB6_30:                               # %return
	movl	%r15d, 8(%rsp)
	movl	%eax, (%rsp)
	movl	$35, %edi
	movl	$5, %edx
	movl	$48, %ecx
	xorl	%eax, %eax
	movl	%ebx, %esi
	movl	%r12d, %r9d
	callq	_KPhi
	movl	$35, %edi
	movl	$35, %esi
	xorl	%edx, %edx
	callq	_KTimestamp1
	movl	$35, %edi
	callq	_KReturn
	xorl	%esi, %esi
	movq	%r14, %rdi
	callq	_KExitRegion
	.loc	1 636 1                 # quicksortlibm.c:636:1
	movl	%r13d, %eax
	addq	$72, %rsp
	popq	%rbx
	popq	%r12
	popq	%r13
	popq	%r14
	popq	%r15
	popq	%rbp
	retq
.Ltmp644:
.Ltmp645:
	.size	quicksort___ieee754_rem_pio2f, .Ltmp645-quicksort___ieee754_rem_pio2f
.Lfunc_end6:
	.cfi_endproc

	.section	.rodata.cst4,"aM",@progbits,4
	.align	4
.LCPI7_0:
	.long	2907166542              # float -1.13596476E-11
.LCPI7_1:
	.long	823096566               # float 2.08757234E-9
.LCPI7_2:
	.long	3029594748              # float -2.75573143E-7
.LCPI7_3:
	.long	936381697               # float 2.48015876E-5
.LCPI7_4:
	.long	3132492641              # float -0.00138888892
.LCPI7_5:
	.long	1026206379              # float 0.0416666679
.LCPI7_6:
	.long	1049624576              # float 0.28125
.LCPI7_7:
	.long	1056964608              # float 0.5
.LCPI7_8:
	.long	1065353216              # float 1
	.text
	.globl	quicksort___kernel_cosf
	.align	16, 0x90
	.type	quicksort___kernel_cosf,@function
quicksort___kernel_cosf:                # @quicksort___kernel_cosf
.Lfunc_begin7:
	.loc	1 672 0                 # quicksortlibm.c:672:0
	.cfi_startproc
# BB#0:                                 # %entry
	pushq	%rbp
.Ltmp646:
	.cfi_def_cfa_offset 16
.Ltmp647:
	.cfi_offset %rbp, -16
	movq	%rsp, %rbp
.Ltmp648:
	.cfi_def_cfa_register %rbp
	pushq	%r15
	pushq	%r14
	pushq	%r13
	pushq	%r12
	pushq	%rbx
	subq	$72, %rsp
.Ltmp649:
	.cfi_offset %rbx, -56
.Ltmp650:
	.cfi_offset %r12, -48
.Ltmp651:
	.cfi_offset %r13, -40
.Ltmp652:
	.cfi_offset %r14, -32
.Ltmp653:
	.cfi_offset %r15, -24
	#DEBUG_VALUE: quicksort___kernel_cosf:x <- XMM0
	#DEBUG_VALUE: quicksort___kernel_cosf:y <- XMM1
	movss	%xmm1, -64(%rbp)        # 4-byte Spill
.Ltmp654:
	#DEBUG_VALUE: quicksort___kernel_cosf:y <- [RBP+-64]
	movss	%xmm0, -60(%rbp)        # 4-byte Spill
.Ltmp655:
	#DEBUG_VALUE: quicksort___kernel_cosf:x <- [RBP+-60]
	#DEBUG_VALUE: quicksort___kernel_cosf:x <- undef
	movabsq	$7035557481555283282, %r14 # imm = 0x61A35240E4F1CD52
	xorl	%esi, %esi
	movq	%r14, %rdi
	callq	_KEnterRegion
	movl	$14, %edi
	xorl	%esi, %esi
	callq	_KPrepRTable
	movl	$7, %edi
	callq	_KWork
	movl	$2, %edi
	callq	_KDeqArg
	movl	$1, %edi
	callq	_KDeqArg
	movl	$1, %edi
	movl	$1, %esi
	xorl	%edx, %edx
	callq	_KTimestamp1
	leaq	-48(%rbp), %rbx
	movl	$1, %edi
	movl	$4, %edx
	movq	%rbx, %rsi
	callq	_KStore
	.loc	1 677 3 prologue_end    # quicksortlibm.c:677:3
.Ltmp656:
	movss	-60(%rbp), %xmm0        # 4-byte Reload
	movss	%xmm0, -48(%rbp)
.Ltmp657:
	#DEBUG_VALUE: quicksort___kernel_cosf:x <- [RBP+-60]
	movl	$3, %esi
	movl	$4, %edx
	movq	%rbx, %rdi
	callq	_KLoad0
	movl	$2147483647, %ebx       # imm = 0x7FFFFFFF
.Ltmp658:
	.loc	1 678 3                 # quicksortlibm.c:678:3
	andl	-48(%rbp), %ebx
.Ltmp659:
	#DEBUG_VALUE: quicksort___kernel_cosf:ix <- EBX
	movl	$12, %edi
	movl	$3, %esi
	movl	$2, %edx
	callq	_KTimestamp1
	.loc	1 679 8                 # quicksortlibm.c:679:8
	cmpl	$838860799, %ebx        # imm = 0x31FFFFFF
	ja	.LBB7_3
.Ltmp660:
# BB#1:                                 # %if.then
	#DEBUG_VALUE: quicksort___kernel_cosf:x <- [RBP+-60]
	#DEBUG_VALUE: quicksort___kernel_cosf:y <- [RBP+-64]
	#DEBUG_VALUE: quicksort___kernel_cosf:ix <- EBX
	movl	$12, %edi
	callq	_KPushCDep
	movl	$1, %edi
	callq	_KWork
	.loc	1 680 12                # quicksortlibm.c:680:12
.Ltmp661:
	cvttss2si	-60(%rbp), %r15d # 4-byte Folded Reload
	movl	$13, %r13d
	movl	$13, %edi
	movl	$1, %esi
	movl	$1, %edx
	movl	$3, %ecx
	movl	$3, %r8d
	callq	_KTimestamp2
	callq	_KPopCDep
.Ltmp662:
	.loc	1 680 10 is_stmt 0      # quicksortlibm.c:680:10
	testl	%r15d, %r15d
	je	.LBB7_2
.Ltmp663:
.LBB7_3:                                # %if.end4
	#DEBUG_VALUE: quicksort___kernel_cosf:x <- [RBP+-60]
	#DEBUG_VALUE: quicksort___kernel_cosf:y <- [RBP+-64]
	#DEBUG_VALUE: quicksort___kernel_cosf:ix <- EBX
	movl	$12, %edi
	callq	_KPushCDep
	movl	$46, %edi
	callq	_KWork
	.loc	1 684 7 is_stmt 1       # quicksortlibm.c:684:7
	movss	-60(%rbp), %xmm1        # 4-byte Reload
	mulss	%xmm1, %xmm1
.Ltmp664:
	#DEBUG_VALUE: quicksort___kernel_cosf:z <- XMM1
	movss	%xmm1, -72(%rbp)        # 4-byte Spill
	movss	.LCPI7_0(%rip), %xmm0
	.loc	1 686 47                # quicksortlibm.c:686:47
	mulss	%xmm1, %xmm0
	addss	.LCPI7_1(%rip), %xmm0
	.loc	1 686 26 is_stmt 0      # quicksortlibm.c:686:26
	mulss	%xmm1, %xmm0
	.loc	1 686 11                # quicksortlibm.c:686:11
	addss	.LCPI7_2(%rip), %xmm0
	.loc	1 685 70 is_stmt 1      # quicksortlibm.c:685:70
	mulss	%xmm1, %xmm0
	.loc	1 685 55 is_stmt 0      # quicksortlibm.c:685:55
	addss	.LCPI7_3(%rip), %xmm0
	.loc	1 685 49                # quicksortlibm.c:685:49
	mulss	%xmm1, %xmm0
	.loc	1 685 34                # quicksortlibm.c:685:34
	addss	.LCPI7_4(%rip), %xmm0
	.loc	1 685 28                # quicksortlibm.c:685:28
	mulss	%xmm1, %xmm0
	.loc	1 685 13                # quicksortlibm.c:685:13
	addss	.LCPI7_5(%rip), %xmm0
	.loc	1 685 7                 # quicksortlibm.c:685:7
	mulss	%xmm1, %xmm0
.Ltmp665:
	#DEBUG_VALUE: quicksort___kernel_cosf:r <- XMM0
	#DEBUG_VALUE: quicksort___kernel_cosf:z <- [RBP+-72]
	movss	%xmm0, -68(%rbp)        # 4-byte Spill
.Ltmp666:
	#DEBUG_VALUE: quicksort___kernel_cosf:r <- [RBP+-68]
	movl	$8, %r15d
	movl	$8, %edi
	movl	$3, %esi
	movl	$3, %edx
	callq	_KTimestamp1
	callq	_KPopCDep
	movl	$8, %edi
	callq	_KPushCDep
	.loc	1 687 8 is_stmt 1       # quicksortlibm.c:687:8
	cmpl	$1050253721, %ebx       # imm = 0x3E999999
	ja	.LBB7_5
.Ltmp667:
# BB#4:                                 # %if.then17
	#DEBUG_VALUE: quicksort___kernel_cosf:x <- [RBP+-60]
	#DEBUG_VALUE: quicksort___kernel_cosf:y <- [RBP+-64]
	#DEBUG_VALUE: quicksort___kernel_cosf:z <- [RBP+-72]
	#DEBUG_VALUE: quicksort___kernel_cosf:r <- [RBP+-68]
	movl	$21, %edi
	callq	_KWork
	movss	.LCPI7_7(%rip), %xmm0
	movss	-72(%rbp), %xmm1        # 4-byte Reload
.Ltmp668:
	#DEBUG_VALUE: quicksort___kernel_cosf:z <- XMM1
	.loc	1 688 31                # quicksortlibm.c:688:31
	mulss	%xmm1, %xmm0
	movss	-68(%rbp), %xmm2        # 4-byte Reload
.Ltmp669:
	#DEBUG_VALUE: quicksort___kernel_cosf:r <- XMM2
	.loc	1 688 54 is_stmt 0      # quicksortlibm.c:688:54
	mulss	%xmm1, %xmm2
.Ltmp670:
	movss	-60(%rbp), %xmm1        # 4-byte Reload
.Ltmp671:
	#DEBUG_VALUE: quicksort___kernel_cosf:x <- XMM1
	.loc	1 688 62                # quicksortlibm.c:688:62
	mulss	-64(%rbp), %xmm1        # 4-byte Folded Reload
.Ltmp672:
	.loc	1 688 54                # quicksortlibm.c:688:54
	subss	%xmm1, %xmm2
	.loc	1 688 31                # quicksortlibm.c:688:31
	subss	%xmm2, %xmm0
	movss	.LCPI7_8(%rip), %xmm1
	.loc	1 688 13                # quicksortlibm.c:688:13
	subss	%xmm0, %xmm1
	movss	%xmm1, -60(%rbp)        # 4-byte Spill
	movl	$58, (%rsp)
	movl	$10, %r12d
	movl	$10, %edi
	movl	$1, %esi
	movl	$56, %edx
	movl	$2, %ecx
	movl	$11, %r8d
	movl	$3, %r9d
	callq	_KTimestamp3
	jmp	.LBB7_9
.LBB7_5:                                # %if.else
.Ltmp673:
	#DEBUG_VALUE: quicksort___kernel_cosf:x <- [RBP+-60]
	#DEBUG_VALUE: quicksort___kernel_cosf:y <- [RBP+-64]
	#DEBUG_VALUE: quicksort___kernel_cosf:ix <- EBX
	#DEBUG_VALUE: quicksort___kernel_cosf:z <- [RBP+-72]
	#DEBUG_VALUE: quicksort___kernel_cosf:r <- [RBP+-68]
	movl	$1, %edi
	callq	_KWork
	movl	$9, %edi
	movl	$3, %esi
	movl	$4, %edx
	callq	_KTimestamp1
	callq	_KPopCDep
	movl	$9, %edi
	callq	_KPushCDep
	.loc	1 690 10 is_stmt 1      # quicksortlibm.c:690:10
.Ltmp674:
	cmpl	$1061683201, %ebx       # imm = 0x3F480001
	jb	.LBB7_7
.Ltmp675:
# BB#6:                                 # %if.then25
	#DEBUG_VALUE: quicksort___kernel_cosf:x <- [RBP+-60]
	#DEBUG_VALUE: quicksort___kernel_cosf:y <- [RBP+-64]
	#DEBUG_VALUE: quicksort___kernel_cosf:z <- [RBP+-72]
	#DEBUG_VALUE: quicksort___kernel_cosf:r <- [RBP+-68]
	#DEBUG_VALUE: quicksort___kernel_cosf:qx <- 2.812500e-01
	callq	_KPopCDep
	movss	.LCPI7_6(%rip), %xmm0
	movss	%xmm0, -76(%rbp)        # 4-byte Spill
	xorl	%r12d, %r12d
	jmp	.LBB7_8
.LBB7_2:                                # %if.then3
	movl	$13, %edi
	callq	_KPushCDep
	callq	_KPopCDep
	movss	.LCPI7_8(%rip), %xmm0
	movss	%xmm0, -60(%rbp)        # 4-byte Spill
	xorl	%r15d, %r15d
	xorl	%r12d, %r12d
	jmp	.LBB7_10
.LBB7_7:                                # %if.else26
	#DEBUG_VALUE: quicksort___kernel_cosf:x <- [RBP+-60]
	#DEBUG_VALUE: quicksort___kernel_cosf:y <- [RBP+-64]
.Ltmp676:
	#DEBUG_VALUE: quicksort___kernel_cosf:ix <- EBX
	#DEBUG_VALUE: quicksort___kernel_cosf:z <- [RBP+-72]
	#DEBUG_VALUE: quicksort___kernel_cosf:r <- [RBP+-68]
	movl	$6, %edi
	callq	_KWork
	.loc	1 693 7                 # quicksortlibm.c:693:7
.Ltmp677:
	addl	$-16777216, %ebx        # imm = 0xFFFFFFFFFF000000
.Ltmp678:
	movl	$5, %r12d
	movl	$4, %edi
	movl	$3, %esi
	movl	$5, %edx
	callq	_KTimestamp1
	leaq	-56(%rbp), %r15
	movl	$4, %edi
	movl	$4, %edx
	movq	%r15, %rsi
	callq	_KStore
	movl	%ebx, -56(%rbp)
	movl	$5, %esi
	movl	$4, %edx
	movq	%r15, %rdi
	callq	_KLoad0
	movss	-56(%rbp), %xmm0
.Ltmp679:
	#DEBUG_VALUE: quicksort___kernel_cosf:qx <- [RBP+-76]
	movss	%xmm0, -76(%rbp)        # 4-byte Spill
	movl	$5, %edi
	movl	$5, %esi
	xorl	%edx, %edx
	callq	_KTimestamp1
	callq	_KPopCDep
.Ltmp680:
.LBB7_8:                                # %if.end30
	#DEBUG_VALUE: quicksort___kernel_cosf:x <- [RBP+-60]
	#DEBUG_VALUE: quicksort___kernel_cosf:y <- [RBP+-64]
	#DEBUG_VALUE: quicksort___kernel_cosf:z <- [RBP+-72]
	#DEBUG_VALUE: quicksort___kernel_cosf:r <- [RBP+-68]
	movl	$8, %r15d
	movl	$8, %edi
	callq	_KPushCDep
	movl	$7, %edi
	movl	$8, %edx
	movl	$9, %ecx
	movl	%r12d, %esi
	callq	_KPhi2To1
	movl	$25, %edi
	callq	_KWork
	movss	.LCPI7_7(%rip), %xmm0
	movss	-72(%rbp), %xmm1        # 4-byte Reload
.Ltmp681:
	#DEBUG_VALUE: quicksort___kernel_cosf:z <- XMM1
	.loc	1 695 10                # quicksortlibm.c:695:10
	mulss	%xmm1, %xmm0
	movss	-76(%rbp), %xmm2        # 4-byte Reload
	subss	%xmm2, %xmm0
.Ltmp682:
	#DEBUG_VALUE: quicksort___kernel_cosf:hz <- XMM0
	movss	.LCPI7_8(%rip), %xmm3
	.loc	1 696 9                 # quicksortlibm.c:696:9
	subss	%xmm2, %xmm3
.Ltmp683:
	#DEBUG_VALUE: quicksort___kernel_cosf:a <- XMM3
	movss	-68(%rbp), %xmm2        # 4-byte Reload
.Ltmp684:
	#DEBUG_VALUE: quicksort___kernel_cosf:r <- XMM2
	.loc	1 697 26                # quicksortlibm.c:697:26
	mulss	%xmm1, %xmm2
.Ltmp685:
	movss	-60(%rbp), %xmm1        # 4-byte Reload
.Ltmp686:
	#DEBUG_VALUE: quicksort___kernel_cosf:x <- XMM1
	.loc	1 697 34 is_stmt 0      # quicksortlibm.c:697:34
	mulss	-64(%rbp), %xmm1        # 4-byte Folded Reload
.Ltmp687:
	.loc	1 697 26                # quicksortlibm.c:697:26
	subss	%xmm1, %xmm2
	.loc	1 697 19                # quicksortlibm.c:697:19
	subss	%xmm2, %xmm0
.Ltmp688:
	.loc	1 697 13                # quicksortlibm.c:697:13
	subss	%xmm0, %xmm3
.Ltmp689:
	movss	%xmm3, -60(%rbp)        # 4-byte Spill
	movl	$6, 16(%rsp)
	movl	$7, 8(%rsp)
	movl	$58, (%rsp)
	movl	$11, %r12d
	movl	$11, %edi
	movl	$1, %esi
	movl	$56, %edx
	movl	$2, %ecx
	movl	$11, %r8d
	movl	$3, %r9d
	callq	_KTimestamp4
.Ltmp690:
.LBB7_9:                                # %return
	callq	_KPopCDep
	xorl	%r13d, %r13d
.LBB7_10:                               # %return
	movl	$6, %edi
	movl	$12, %edx
	movl	%r12d, %esi
	movl	%r13d, %ecx
	movl	%r15d, %r8d
	callq	_KPhi3To1
	movl	$6, %edi
	movl	$6, %esi
	xorl	%edx, %edx
	callq	_KTimestamp1
	movl	$6, %edi
	callq	_KReturn
	xorl	%esi, %esi
	movq	%r14, %rdi
	callq	_KExitRegion
	.loc	1 699 1 is_stmt 1       # quicksortlibm.c:699:1
	movss	-60(%rbp), %xmm0        # 4-byte Reload
	addq	$72, %rsp
	popq	%rbx
	popq	%r12
	popq	%r13
	popq	%r14
	popq	%r15
	popq	%rbp
	retq
.Ltmp691:
.Ltmp692:
	.size	quicksort___kernel_cosf, .Ltmp692-quicksort___kernel_cosf
.Lfunc_end7:
	.cfi_endproc

	.section	.rodata.cst4,"aM",@progbits,4
	.align	4
.LCPI8_0:
	.long	791595475               # float 1.58969102E-10
.LCPI8_1:
	.long	3000446772              # float -2.50507597E-8
.LCPI8_2:
	.long	909700891               # float 2.75573143E-6
.LCPI8_3:
	.long	3109031169              # float -1.98412701E-4
.LCPI8_4:
	.long	1007192201              # float 0.00833333377
.LCPI8_5:
	.long	1056964608              # float 0.5
.LCPI8_6:
	.long	1042983595              # float 0.166666672
.LCPI8_7:
	.long	3190467243              # float -0.166666672
	.text
	.globl	quicksort___kernel_sinf
	.align	16, 0x90
	.type	quicksort___kernel_sinf,@function
quicksort___kernel_sinf:                # @quicksort___kernel_sinf
.Lfunc_begin8:
	.loc	1 737 0                 # quicksortlibm.c:737:0
	.cfi_startproc
# BB#0:                                 # %entry
	pushq	%rbp
.Ltmp693:
	.cfi_def_cfa_offset 16
.Ltmp694:
	.cfi_offset %rbp, -16
	movq	%rsp, %rbp
.Ltmp695:
	.cfi_def_cfa_register %rbp
	pushq	%r15
	pushq	%r14
	pushq	%r13
	pushq	%r12
	pushq	%rbx
	subq	$56, %rsp
.Ltmp696:
	.cfi_offset %rbx, -56
.Ltmp697:
	.cfi_offset %r12, -48
.Ltmp698:
	.cfi_offset %r13, -40
.Ltmp699:
	.cfi_offset %r14, -32
.Ltmp700:
	.cfi_offset %r15, -24
	#DEBUG_VALUE: quicksort___kernel_sinf:x <- XMM0
	#DEBUG_VALUE: quicksort___kernel_sinf:y <- XMM1
	#DEBUG_VALUE: quicksort___kernel_sinf:iy <- EDI
	movl	%edi, %r15d
.Ltmp701:
	#DEBUG_VALUE: quicksort___kernel_sinf:iy <- R15D
	movss	%xmm1, -68(%rbp)        # 4-byte Spill
.Ltmp702:
	#DEBUG_VALUE: quicksort___kernel_sinf:y <- [RBP+-68]
	movss	%xmm0, -52(%rbp)        # 4-byte Spill
.Ltmp703:
	#DEBUG_VALUE: quicksort___kernel_sinf:x <- [RBP+-52]
	#DEBUG_VALUE: quicksort___kernel_sinf:x <- undef
	movabsq	$5493277559176314220, %r14 # imm = 0x4C3C0AD5DF543D6C
	xorl	%esi, %esi
	movq	%r14, %rdi
	callq	_KEnterRegion
	movl	$11, %edi
	xorl	%esi, %esi
	callq	_KPrepRTable
	movl	$7, %edi
	callq	_KWork
	movl	$3, %edi
	callq	_KDeqArg
	movl	$2, %edi
	callq	_KDeqArg
	movl	$1, %edi
	callq	_KDeqArg
	movl	$1, %edi
	movl	$1, %esi
	xorl	%edx, %edx
	callq	_KTimestamp1
	leaq	-48(%rbp), %rbx
	movl	$1, %edi
	movl	$4, %edx
	movq	%rbx, %rsi
	callq	_KStore
	.loc	1 742 3 prologue_end    # quicksortlibm.c:742:3
.Ltmp704:
	movss	-52(%rbp), %xmm0        # 4-byte Reload
	movss	%xmm0, -48(%rbp)
.Ltmp705:
	#DEBUG_VALUE: quicksort___kernel_sinf:x <- [RBP+-52]
	movl	$4, %esi
	movl	$4, %edx
	movq	%rbx, %rdi
	callq	_KLoad0
	movl	$2113929216, %ebx       # imm = 0x7E000000
.Ltmp706:
	.loc	1 743 3                 # quicksortlibm.c:743:3
	andl	-48(%rbp), %ebx
.Ltmp707:
	#DEBUG_VALUE: quicksort___kernel_sinf:ix <- EBX
	movl	$8, %edi
	movl	$4, %esi
	movl	$2, %edx
	callq	_KTimestamp1
	.loc	1 744 8                 # quicksortlibm.c:744:8
	cmpl	$838860799, %ebx        # imm = 0x31FFFFFF
	ja	.LBB8_3
.Ltmp708:
# BB#1:                                 # %if.then
	#DEBUG_VALUE: quicksort___kernel_sinf:x <- [RBP+-52]
	#DEBUG_VALUE: quicksort___kernel_sinf:y <- [RBP+-68]
	#DEBUG_VALUE: quicksort___kernel_sinf:iy <- R15D
	movl	$8, %edi
	callq	_KPushCDep
	movl	$1, %r13d
	movl	$1, %edi
	callq	_KWork
	.loc	1 745 10                # quicksortlibm.c:745:10
.Ltmp709:
	cvttss2si	-52(%rbp), %r12d # 4-byte Folded Reload
	movl	$9, %ebx
	movl	$9, %edi
	movl	$1, %esi
	movl	$1, %edx
	movl	$4, %ecx
	movl	$3, %r8d
	callq	_KTimestamp2
	callq	_KPopCDep
.Ltmp710:
	.loc	1 745 10 is_stmt 0      # quicksortlibm.c:745:10
	testl	%r12d, %r12d
	je	.LBB8_2
.Ltmp711:
.LBB8_3:                                # %if.end4
	#DEBUG_VALUE: quicksort___kernel_sinf:x <- [RBP+-52]
	#DEBUG_VALUE: quicksort___kernel_sinf:y <- [RBP+-68]
	#DEBUG_VALUE: quicksort___kernel_sinf:iy <- R15D
	movl	$8, %edi
	callq	_KPushCDep
	movl	$39, %edi
	callq	_KWork
	movss	-52(%rbp), %xmm0        # 4-byte Reload
.Ltmp712:
	#DEBUG_VALUE: quicksort___kernel_sinf:x <- XMM0
	.loc	1 749 7 is_stmt 1       # quicksortlibm.c:749:7
	movaps	%xmm0, %xmm2
	mulss	%xmm2, %xmm2
.Ltmp713:
	#DEBUG_VALUE: quicksort___kernel_sinf:z <- XMM2
	.loc	1 750 7                 # quicksortlibm.c:750:7
	movss	%xmm2, -60(%rbp)        # 4-byte Spill
	movaps	%xmm2, %xmm1
	mulss	%xmm0, %xmm1
.Ltmp714:
	#DEBUG_VALUE: quicksort___kernel_sinf:v <- XMM0
	movss	%xmm1, -56(%rbp)        # 4-byte Spill
.Ltmp715:
	#DEBUG_VALUE: quicksort___kernel_sinf:v <- [RBP+-52]
	#DEBUG_VALUE: quicksort___kernel_sinf:x <- [RBP+-52]
	movss	.LCPI8_0(%rip), %xmm0
	.loc	1 752 26                # quicksortlibm.c:752:26
	mulss	%xmm2, %xmm0
	.loc	1 752 11 is_stmt 0      # quicksortlibm.c:752:11
	addss	.LCPI8_1(%rip), %xmm0
	.loc	1 751 64 is_stmt 1      # quicksortlibm.c:751:64
	mulss	%xmm2, %xmm0
	.loc	1 751 49 is_stmt 0      # quicksortlibm.c:751:49
	addss	.LCPI8_2(%rip), %xmm0
	.loc	1 751 43                # quicksortlibm.c:751:43
	mulss	%xmm2, %xmm0
	.loc	1 751 28                # quicksortlibm.c:751:28
	addss	.LCPI8_3(%rip), %xmm0
	.loc	1 751 22                # quicksortlibm.c:751:22
	mulss	%xmm2, %xmm0
.Ltmp716:
	#DEBUG_VALUE: quicksort___kernel_sinf:z <- [RBP+-60]
	.loc	1 751 7                 # quicksortlibm.c:751:7
	addss	.LCPI8_4(%rip), %xmm0
.Ltmp717:
	#DEBUG_VALUE: quicksort___kernel_sinf:r <- XMM0
	movss	%xmm0, -64(%rbp)        # 4-byte Spill
.Ltmp718:
	#DEBUG_VALUE: quicksort___kernel_sinf:r <- [RBP+-64]
	movl	$10, %r12d
	movl	$10, %edi
	movl	$3, %esi
	movl	$1, %edx
	movl	$4, %ecx
	movl	$3, %r8d
	callq	_KTimestamp2
	callq	_KPopCDep
	movl	$10, %edi
	callq	_KPushCDep
	.loc	1 754 8 is_stmt 1       # quicksortlibm.c:754:8
	testl	%r15d, %r15d
	je	.LBB8_4
.Ltmp719:
# BB#5:                                 # %if.else
	#DEBUG_VALUE: quicksort___kernel_sinf:x <- [RBP+-52]
	#DEBUG_VALUE: quicksort___kernel_sinf:y <- [RBP+-68]
	#DEBUG_VALUE: quicksort___kernel_sinf:z <- [RBP+-60]
	#DEBUG_VALUE: quicksort___kernel_sinf:v <- [RBP+-52]
	#DEBUG_VALUE: quicksort___kernel_sinf:r <- [RBP+-64]
	movl	$28, %edi
	callq	_KWork
	movss	.LCPI8_5(%rip), %xmm0
	movss	-68(%rbp), %xmm1        # 4-byte Reload
.Ltmp720:
	#DEBUG_VALUE: quicksort___kernel_sinf:y <- XMM1
	.loc	1 758 23                # quicksortlibm.c:758:23
	mulss	%xmm1, %xmm0
	movss	-56(%rbp), %xmm2        # 4-byte Reload
	movss	-64(%rbp), %xmm3        # 4-byte Reload
.Ltmp721:
	#DEBUG_VALUE: quicksort___kernel_sinf:r <- XMM3
	.loc	1 758 44 is_stmt 0      # quicksortlibm.c:758:44
	mulss	%xmm2, %xmm3
.Ltmp722:
	.loc	1 758 23                # quicksortlibm.c:758:23
	subss	%xmm3, %xmm0
	movss	-60(%rbp), %xmm3        # 4-byte Reload
.Ltmp723:
	#DEBUG_VALUE: quicksort___kernel_sinf:z <- XMM3
	.loc	1 758 17                # quicksortlibm.c:758:17
	mulss	%xmm0, %xmm3
.Ltmp724:
	subss	%xmm1, %xmm3
	.loc	1 758 60                # quicksortlibm.c:758:60
	mulss	.LCPI8_6(%rip), %xmm2
	addss	%xmm3, %xmm2
	.loc	1 758 9                 # quicksortlibm.c:758:9
	movss	-52(%rbp), %xmm0        # 4-byte Reload
	subss	%xmm2, %xmm0
	movss	%xmm0, -52(%rbp)        # 4-byte Spill
	movl	$53, 16(%rsp)
	movl	$4, 8(%rsp)
	movl	$51, (%rsp)
	movl	$7, %r13d
	movl	$7, %edi
	movl	$3, %esi
	movl	$19, %edx
	movl	$2, %ecx
	movl	$18, %r8d
	movl	$1, %r9d
	callq	_KTimestamp4
	jmp	.LBB8_6
.Ltmp725:
.LBB8_4:                                # %if.then15
	#DEBUG_VALUE: quicksort___kernel_sinf:x <- [RBP+-52]
	#DEBUG_VALUE: quicksort___kernel_sinf:z <- [RBP+-60]
	#DEBUG_VALUE: quicksort___kernel_sinf:v <- [RBP+-52]
	#DEBUG_VALUE: quicksort___kernel_sinf:r <- [RBP+-64]
	movl	$14, %edi
	callq	_KWork
	movss	-60(%rbp), %xmm0        # 4-byte Reload
.Ltmp726:
	#DEBUG_VALUE: quicksort___kernel_sinf:z <- XMM0
	.loc	1 755 38 is_stmt 1      # quicksortlibm.c:755:38
	mulss	-64(%rbp), %xmm0        # 4-byte Folded Reload
.Ltmp727:
	.loc	1 755 23 is_stmt 0      # quicksortlibm.c:755:23
	addss	.LCPI8_7(%rip), %xmm0
	movss	-56(%rbp), %xmm1        # 4-byte Reload
	.loc	1 755 17                # quicksortlibm.c:755:17
	mulss	%xmm0, %xmm1
	.loc	1 755 13                # quicksortlibm.c:755:13
	movss	-52(%rbp), %xmm0        # 4-byte Reload
	addss	%xmm1, %xmm0
	movss	%xmm0, -52(%rbp)        # 4-byte Spill
	movl	$49, (%rsp)
	movl	$6, %r13d
	movl	$6, %edi
	movl	$3, %esi
	movl	$15, %edx
	movl	$1, %ecx
	movl	$47, %r8d
	movl	$4, %r9d
	callq	_KTimestamp3
.Ltmp728:
.LBB8_6:                                # %return
	callq	_KPopCDep
	xorl	%ebx, %ebx
	jmp	.LBB8_7
.LBB8_2:                                # %if.then3
	#DEBUG_VALUE: quicksort___kernel_sinf:x <- [RBP+-52]
	movl	$9, %edi
	callq	_KPushCDep
	callq	_KPopCDep
	xorl	%r12d, %r12d
.LBB8_7:                                # %return
	movl	$5, %edi
	movl	$8, %edx
	movl	%r13d, %esi
	movl	%ebx, %ecx
	movl	%r12d, %r8d
	callq	_KPhi3To1
	movl	$5, %edi
	movl	$5, %esi
	xorl	%edx, %edx
	callq	_KTimestamp1
	movl	$5, %edi
	callq	_KReturn
	xorl	%esi, %esi
	movq	%r14, %rdi
	callq	_KExitRegion
	.loc	1 759 1 is_stmt 1       # quicksortlibm.c:759:1
	movss	-52(%rbp), %xmm0        # 4-byte Reload
	addq	$56, %rsp
	popq	%rbx
	popq	%r12
	popq	%r13
	popq	%r14
	popq	%r15
	popq	%rbp
	retq
.Ltmp729:
.Ltmp730:
	.size	quicksort___kernel_sinf, .Ltmp730-quicksort___kernel_sinf
.Lfunc_end8:
	.cfi_endproc

	.section	.rodata.cst4,"aM",@progbits,4
	.align	4
.LCPI9_0:
	.long	3212836864              # float -1
.LCPI9_1:
	.long	3217031168              # float -1.5
.LCPI9_2:
	.long	1069547520              # float 1.5
.LCPI9_3:
	.long	1065353216              # float 1
.LCPI9_4:
	.long	1073741824              # float 2
.LCPI9_5:
	.long	1900671690              # float 1.00000002E+30
.LCPI9_6:
	.long	1015376343              # float 0.0162858199
.LCPI9_7:
	.long	1028381273              # float 0.0497687794
.LCPI9_8:
	.long	1032350517              # float 0.0666107312
.LCPI9_9:
	.long	1035611758              # float 0.0909088701
.LCPI9_10:
	.long	1041385765              # float 0.142857149
.LCPI9_11:
	.long	1051372203              # float 0.333333343
.LCPI9_12:
	.long	3172311585              # float -0.0365315713
.LCPI9_13:
	.long	3178164587              # float -0.0583357029
.LCPI9_14:
	.long	3181217685              # float -0.0769187585
.LCPI9_15:
	.long	3185806904              # float -0.111111104
.LCPI9_16:
	.long	3192704205              # float -0.200000003
.LCPI9_18:
	.long	3217625051              # float -1.57079637
.LCPI9_19:
	.long	1070141403              # float 1.57079637
	.section	.rodata.cst16,"aM",@progbits,16
	.align	16
.LCPI9_17:
	.long	2147483648              # 0x80000000
	.long	2147483648              # 0x80000000
	.long	2147483648              # 0x80000000
	.long	2147483648              # 0x80000000
	.text
	.globl	quicksort___atanf
	.align	16, 0x90
	.type	quicksort___atanf,@function
quicksort___atanf:                      # @quicksort___atanf
.Lfunc_begin9:
	.loc	1 826 0                 # quicksortlibm.c:826:0
	.cfi_startproc
# BB#0:                                 # %entry
	pushq	%rbp
.Ltmp731:
	.cfi_def_cfa_offset 16
.Ltmp732:
	.cfi_offset %rbp, -16
	movq	%rsp, %rbp
.Ltmp733:
	.cfi_def_cfa_register %rbp
	pushq	%r15
	pushq	%r14
	pushq	%r13
	pushq	%r12
	pushq	%rbx
	subq	$264, %rsp              # imm = 0x108
.Ltmp734:
	.cfi_offset %rbx, -56
.Ltmp735:
	.cfi_offset %r12, -48
.Ltmp736:
	.cfi_offset %r13, -40
.Ltmp737:
	.cfi_offset %r14, -32
.Ltmp738:
	.cfi_offset %r15, -24
	#DEBUG_VALUE: quicksort___atanf:x <- XMM0
	movss	%xmm0, -52(%rbp)        # 4-byte Spill
.Ltmp739:
	#DEBUG_VALUE: quicksort___atanf:x <- [RBP+-52]
	#DEBUG_VALUE: quicksort___atanf:x <- undef
	movabsq	$1449162316741551713, %rdi # imm = 0x141C7572F7432661
	xorl	%esi, %esi
	callq	_KEnterRegion
	movl	$47, %edi
	xorl	%esi, %esi
	callq	_KPrepRTable
	movl	$1, %edi
	callq	_KDeqArg
	movl	$7, %edi
	callq	_KWork
	movl	$1, %edi
	movl	$1, %esi
	xorl	%edx, %edx
	callq	_KTimestamp1
	leaq	-48(%rbp), %rbx
	movl	$1, %edi
	movl	$4, %edx
	movq	%rbx, %rsi
	callq	_KStore
	.loc	1 831 3 prologue_end    # quicksortlibm.c:831:3
.Ltmp740:
	movss	-52(%rbp), %xmm0        # 4-byte Reload
	movss	%xmm0, -48(%rbp)
.Ltmp741:
	#DEBUG_VALUE: quicksort___atanf:x <- [RBP+-52]
	movl	$2, %esi
	movl	$4, %edx
	movq	%rbx, %rdi
	callq	_KLoad0
	movl	-48(%rbp), %r13d
.Ltmp742:
	#DEBUG_VALUE: quicksort___atanf:hx <- R13D
	.loc	1 832 8                 # quicksortlibm.c:832:8
	movl	%r13d, %ebx
	andl	$2147483647, %ebx       # imm = 0x7FFFFFFF
.Ltmp743:
	#DEBUG_VALUE: quicksort___atanf:ix <- EBX
	movl	$24, %edi
	movl	$2, %esi
	movl	$2, %edx
	callq	_KTimestamp1
	movl	$24, %edi
	callq	_KPushCDep
	movl	$1, %edi
	callq	_KWork
	.loc	1 833 8                 # quicksortlibm.c:833:8
	cmpl	$1350565888, %ebx       # imm = 0x50800000
	jb	.LBB9_8
.Ltmp744:
# BB#1:                                 # %if.then
	#DEBUG_VALUE: quicksort___atanf:x <- [RBP+-52]
	#DEBUG_VALUE: quicksort___atanf:hx <- R13D
	#DEBUG_VALUE: quicksort___atanf:ix <- EBX
	movl	$44, %r14d
	movl	$44, %edi
	movl	$2, %esi
	movl	$3, %edx
	callq	_KTimestamp1
	callq	_KPopCDep
	movl	$44, %edi
	callq	_KPushCDep
	.loc	1 834 10                # quicksortlibm.c:834:10
.Ltmp745:
	cmpl	$2139095041, %ebx       # imm = 0x7F800001
	jb	.LBB9_3
.Ltmp746:
# BB#2:                                 # %if.then2
	#DEBUG_VALUE: quicksort___atanf:x <- [RBP+-52]
	movl	$2, %edi
	callq	_KWork
.Ltmp747:
	#DEBUG_VALUE: quicksort___atanf:x <- undef
	.loc	1 835 15                # quicksortlibm.c:835:15
	movss	-52(%rbp), %xmm0        # 4-byte Reload
	addss	%xmm0, %xmm0
	movss	%xmm0, -52(%rbp)        # 4-byte Spill
	movl	$40, %r12d
	movl	$40, %edi
	movl	$1, %esi
	movl	$2, %edx
	movl	$2, %ecx
	movl	$5, %r8d
	callq	_KTimestamp2
	callq	_KPopCDep
	xorl	%eax, %eax
	xorl	%ecx, %ecx
	xorl	%r15d, %r15d
	jmp	.LBB9_6
.Ltmp748:
.LBB9_8:                                # %if.end7
	#DEBUG_VALUE: quicksort___atanf:x <- [RBP+-52]
	#DEBUG_VALUE: quicksort___atanf:hx <- R13D
	#DEBUG_VALUE: quicksort___atanf:ix <- EBX
	movl	$25, %edi
	movl	$2, %esi
	movl	$3, %edx
	callq	_KTimestamp1
	callq	_KPopCDep
	movl	$25, %edi
	callq	_KPushCDep
	.loc	1 841 8                 # quicksortlibm.c:841:8
	cmpl	$1054867455, %ebx       # imm = 0x3EDFFFFF
	ja	.LBB9_13
.Ltmp749:
# BB#9:                                 # %if.then9
	#DEBUG_VALUE: quicksort___atanf:x <- [RBP+-52]
	#DEBUG_VALUE: quicksort___atanf:hx <- R13D
	#DEBUG_VALUE: quicksort___atanf:ix <- EBX
	movl	$1, %edi
	callq	_KWork
	movl	$26, %r15d
	movl	$26, %edi
	movl	$2, %esi
	movl	$4, %edx
	callq	_KTimestamp1
	callq	_KPopCDep
	.loc	1 842 10                # quicksortlibm.c:842:10
.Ltmp750:
	cmpl	$822083583, %ebx        # imm = 0x30FFFFFF
	ja	.LBB9_12
.Ltmp751:
# BB#10:                                # %if.then11
	#DEBUG_VALUE: quicksort___atanf:x <- [RBP+-52]
	#DEBUG_VALUE: quicksort___atanf:hx <- R13D
	movl	$26, %edi
	callq	_KPushCDep
	movl	$4, %edi
	callq	_KWork
	movss	.LCPI9_5(%rip), %xmm0
	.loc	1 843 12                # quicksortlibm.c:843:12
.Ltmp752:
	addss	-52(%rbp), %xmm0        # 4-byte Folded Reload
	movss	%xmm0, -56(%rbp)        # 4-byte Spill
	movl	$46, %ebx
	movl	$1, %r12d
	movl	$46, %edi
	movl	$1, %esi
	movl	$4, %edx
	movl	$2, %ecx
	movl	$8, %r8d
	callq	_KTimestamp2
	callq	_KPopCDep
.Ltmp753:
	.loc	1 843 12 is_stmt 0      # quicksortlibm.c:843:12
	movss	-56(%rbp), %xmm0        # 4-byte Reload
	ucomiss	.LCPI9_3(%rip), %xmm0
	jbe	.LBB9_12
.Ltmp754:
# BB#11:                                # %if.then14
	#DEBUG_VALUE: quicksort___atanf:x <- [RBP+-52]
	movl	$46, %edi
	callq	_KPushCDep
	callq	_KPopCDep
	xorl	%r15d, %r15d
	movl	$25, %ecx
	xorl	%r14d, %r14d
	xorl	%r13d, %r13d
	movl	$26, %eax
	jmp	.LBB9_27
.LBB9_3:                                # %if.end
.Ltmp755:
	#DEBUG_VALUE: quicksort___atanf:hx <- R13D
	movl	$5, %edi
	callq	_KWork
	movl	$quicksort_atanhi+12, %edi
	movl	$3, %esi
	movl	$4, %edx
	callq	_KLoad0
	movl	$45, %r15d
	movl	$45, %edi
	movl	$2, %esi
	movl	$4, %edx
	callq	_KTimestamp1
	callq	_KPopCDep
	movl	$45, %edi
	callq	_KPushCDep
	.loc	1 836 10 is_stmt 1      # quicksortlibm.c:836:10
.Ltmp756:
	testl	%r13d, %r13d
	jle	.LBB9_7
.Ltmp757:
# BB#4:                                 # %if.then4
	movl	$6, %edi
	callq	_KWork
	movl	$quicksort_atanlo+12, %edi
	movl	$4, %esi
	movl	$4, %edx
	callq	_KLoad0
	movl	$2, (%rsp)
	movl	$41, %r12d
	movl	$41, %edi
	movl	$2, %esi
	movl	$6, %edx
	movl	$3, %ecx
	movl	$2, %r8d
	movl	$4, %r9d
	callq	_KTimestamp3
	callq	_KPopCDep
	movss	.LCPI9_19(%rip), %xmm0
	jmp	.LBB9_5
.LBB9_13:                               # %if.else17
	#DEBUG_VALUE: quicksort___atanf:x <- [RBP+-52]
.Ltmp758:
	#DEBUG_VALUE: quicksort___atanf:hx <- R13D
	#DEBUG_VALUE: quicksort___atanf:ix <- EBX
	movabsq	$5238403243391000084, %rdi # imm = 0x48B28BFEE0931E14
	xorl	%esi, %esi
	callq	_KPrepCall
	movl	$1, %edi
	callq	_KEnqArg
	movl	$6, %edi
	callq	_KLinkReturn
	movl	$1, %edi
	callq	_KWork
	.loc	1 848 9                 # quicksortlibm.c:848:9
.Ltmp759:
	movss	-52(%rbp), %xmm0        # 4-byte Reload
	callq	quicksort___fabsf
	movss	%xmm0, -52(%rbp)        # 4-byte Spill
	#DEBUG_VALUE: quicksort___atanf:x <- [RBP+-52]
	movl	$27, %edi
	movl	$2, %esi
	movl	$4, %edx
	callq	_KTimestamp1
	callq	_KPopCDep
	movl	$27, %edi
	callq	_KPushCDep
	movl	$1, %edi
	callq	_KWork
	.loc	1 849 10                # quicksortlibm.c:849:10
	cmpl	$1066926079, %ebx       # imm = 0x3F97FFFF
	ja	.LBB9_17
.Ltmp760:
# BB#14:                                # %if.then19
	#DEBUG_VALUE: quicksort___atanf:x <- [RBP+-52]
	#DEBUG_VALUE: quicksort___atanf:hx <- R13D
	#DEBUG_VALUE: quicksort___atanf:ix <- EBX
	movl	$28, %r14d
	movl	$28, %edi
	movl	$2, %esi
	movl	$5, %edx
	callq	_KTimestamp1
	callq	_KPopCDep
	movl	$28, %edi
	callq	_KPushCDep
	.loc	1 850 12                # quicksortlibm.c:850:12
.Ltmp761:
	cmpl	$1060110335, %ebx       # imm = 0x3F2FFFFF
	ja	.LBB9_16
.Ltmp762:
# BB#15:                                # %if.then21
	#DEBUG_VALUE: quicksort___atanf:x <- [RBP+-52]
	#DEBUG_VALUE: quicksort___atanf:hx <- R13D
	movl	%r13d, -68(%rbp)        # 4-byte Spill
.Ltmp763:
	#DEBUG_VALUE: quicksort___atanf:hx <- [RBP+-68]
	movl	$29, %edi
	callq	_KWork
.Ltmp764:
	#DEBUG_VALUE: quicksort___atanf:id <- 0
	movss	-52(%rbp), %xmm1        # 4-byte Reload
.Ltmp765:
	#DEBUG_VALUE: quicksort___atanf:x <- XMM1
	.loc	1 852 15                # quicksortlibm.c:852:15
	movaps	%xmm1, %xmm0
	addss	%xmm0, %xmm0
	addss	.LCPI9_0(%rip), %xmm0
	.loc	1 852 56 is_stmt 0      # quicksortlibm.c:852:56
	addss	.LCPI9_4(%rip), %xmm1
.Ltmp766:
	.loc	1 852 13                # quicksortlibm.c:852:13
	divss	%xmm1, %xmm0
.Ltmp767:
	#DEBUG_VALUE: quicksort___atanf:x <- XMM0
	movss	%xmm0, -52(%rbp)        # 4-byte Spill
.Ltmp768:
	#DEBUG_VALUE: quicksort___atanf:x <- [RBP+-52]
	movl	$31, %r13d
	movl	$27, %ebx
	movl	$31, %edi
	movl	$2, %esi
	movl	$32, %edx
	movl	$6, %ecx
	movl	$27, %r8d
	callq	_KTimestamp2
	callq	_KPopCDep
	xorl	%r12d, %r12d
	xorl	%r15d, %r15d
	movl	$0, -60(%rbp)           # 4-byte Folded Spill
	jmp	.LBB9_22
.Ltmp769:
.LBB9_12:                               # %if.end16
	#DEBUG_VALUE: quicksort___atanf:x <- [RBP+-52]
	#DEBUG_VALUE: quicksort___atanf:hx <- R13D
	movl	%r13d, -68(%rbp)        # 4-byte Spill
.Ltmp770:
	#DEBUG_VALUE: quicksort___atanf:hx <- [RBP+-68]
	movl	$26, %edi
	callq	_KPushCDep
.Ltmp771:
	#DEBUG_VALUE: quicksort___atanf:id <- -1
	callq	_KPopCDep
	movl	$-1, -60(%rbp)          # 4-byte Folded Spill
	xorl	%r12d, %r12d
	xorl	%r14d, %r14d
	xorl	%ebx, %ebx
	movl	$1, %r13d
	jmp	.LBB9_22
.LBB9_17:                               # %if.else29
	#DEBUG_VALUE: quicksort___atanf:x <- [RBP+-52]
.Ltmp772:
	#DEBUG_VALUE: quicksort___atanf:hx <- R13D
	#DEBUG_VALUE: quicksort___atanf:ix <- EBX
	movl	$29, %r12d
	movl	$29, %edi
	movl	$2, %esi
	movl	$5, %edx
	callq	_KTimestamp1
	callq	_KPopCDep
	movl	$29, %edi
	callq	_KPushCDep
	.loc	1 858 12 is_stmt 1      # quicksortlibm.c:858:12
.Ltmp773:
	cmpl	$1075576831, %ebx       # imm = 0x401BFFFF
	ja	.LBB9_19
.Ltmp774:
# BB#18:                                # %if.then31
	#DEBUG_VALUE: quicksort___atanf:x <- [RBP+-52]
	#DEBUG_VALUE: quicksort___atanf:hx <- R13D
	movl	%r13d, -68(%rbp)        # 4-byte Spill
.Ltmp775:
	#DEBUG_VALUE: quicksort___atanf:hx <- [RBP+-68]
	movl	$29, %r12d
	movl	$29, %edi
	callq	_KWork
.Ltmp776:
	#DEBUG_VALUE: quicksort___atanf:id <- 2
	movss	.LCPI9_1(%rip), %xmm0
	movss	-52(%rbp), %xmm1        # 4-byte Reload
.Ltmp777:
	#DEBUG_VALUE: quicksort___atanf:x <- XMM1
	.loc	1 860 15                # quicksortlibm.c:860:15
	addss	%xmm1, %xmm0
	.loc	1 860 56 is_stmt 0      # quicksortlibm.c:860:56
	mulss	.LCPI9_2(%rip), %xmm1
.Ltmp778:
	.loc	1 860 40                # quicksortlibm.c:860:40
	addss	.LCPI9_3(%rip), %xmm1
	.loc	1 860 13                # quicksortlibm.c:860:13
	divss	%xmm1, %xmm0
.Ltmp779:
	#DEBUG_VALUE: quicksort___atanf:x <- XMM0
	movss	%xmm0, -52(%rbp)        # 4-byte Spill
.Ltmp780:
	#DEBUG_VALUE: quicksort___atanf:x <- [RBP+-52]
	movl	$33, %r13d
	movl	$27, %ebx
	movl	$33, %edi
	movl	$2, %esi
	movl	$32, %edx
	movl	$6, %ecx
	movl	$27, %r8d
	callq	_KTimestamp2
	callq	_KPopCDep
	movl	$2, -60(%rbp)           # 4-byte Folded Spill
	jmp	.LBB9_20
.Ltmp781:
.LBB9_7:                                # %if.else
	movl	$8, %edi
	callq	_KWork
	movl	$quicksort_atanlo+12, %edi
	movl	$5, %esi
	movl	$4, %edx
	callq	_KLoad0
	movl	$2, (%rsp)
	movl	$42, %r12d
	movl	$42, %edi
	movl	$2, %esi
	movl	$8, %edx
	movl	$3, %ecx
	movl	$4, %r8d
	movl	$5, %r9d
	callq	_KTimestamp3
	callq	_KPopCDep
	movss	.LCPI9_18(%rip), %xmm0
.LBB9_5:                                # %return
	movss	%xmm0, -52(%rbp)        # 4-byte Spill
	movl	$44, %r14d
	xorl	%eax, %eax
	xorl	%ecx, %ecx
.LBB9_6:                                # %return
	xorl	%r13d, %r13d
	xorl	%ebx, %ebx
	jmp	.LBB9_27
.LBB9_16:                               # %if.else24
	#DEBUG_VALUE: quicksort___atanf:x <- [RBP+-52]
.Ltmp782:
	#DEBUG_VALUE: quicksort___atanf:hx <- R13D
	movl	%r13d, -68(%rbp)        # 4-byte Spill
.Ltmp783:
	#DEBUG_VALUE: quicksort___atanf:hx <- [RBP+-68]
	movl	$24, %edi
	callq	_KWork
.Ltmp784:
	#DEBUG_VALUE: quicksort___atanf:id <- 1
	movss	.LCPI9_0(%rip), %xmm0
	movss	-52(%rbp), %xmm1        # 4-byte Reload
.Ltmp785:
	#DEBUG_VALUE: quicksort___atanf:x <- XMM1
	.loc	1 855 15 is_stmt 1      # quicksortlibm.c:855:15
	addss	%xmm1, %xmm0
	.loc	1 855 39 is_stmt 0      # quicksortlibm.c:855:39
	addss	.LCPI9_3(%rip), %xmm1
.Ltmp786:
	.loc	1 855 13                # quicksortlibm.c:855:13
	divss	%xmm1, %xmm0
.Ltmp787:
	#DEBUG_VALUE: quicksort___atanf:x <- XMM0
	movss	%xmm0, -52(%rbp)        # 4-byte Spill
.Ltmp788:
	#DEBUG_VALUE: quicksort___atanf:x <- [RBP+-52]
	movl	$32, %r13d
	movl	$27, %ebx
	movl	$32, %edi
	movl	$2, %esi
	movl	$27, %edx
	movl	$6, %ecx
	movl	$22, %r8d
	callq	_KTimestamp2
	callq	_KPopCDep
	movl	$1, -60(%rbp)           # 4-byte Folded Spill
	xorl	%r12d, %r12d
	jmp	.LBB9_21
.Ltmp789:
.LBB9_19:                               # %if.else36
	#DEBUG_VALUE: quicksort___atanf:x <- [RBP+-52]
	#DEBUG_VALUE: quicksort___atanf:hx <- R13D
	movl	%r13d, -68(%rbp)        # 4-byte Spill
.Ltmp790:
	#DEBUG_VALUE: quicksort___atanf:hx <- [RBP+-68]
	movl	$20, %edi
	callq	_KWork
.Ltmp791:
	#DEBUG_VALUE: quicksort___atanf:id <- 3
	movss	.LCPI9_0(%rip), %xmm0
	.loc	1 863 14 is_stmt 1      # quicksortlibm.c:863:14
.Ltmp792:
	divss	-52(%rbp), %xmm0        # 4-byte Folded Reload
.Ltmp793:
	#DEBUG_VALUE: quicksort___atanf:x <- XMM0
	movss	%xmm0, -52(%rbp)        # 4-byte Spill
.Ltmp794:
	#DEBUG_VALUE: quicksort___atanf:x <- [RBP+-52]
	movl	$34, %r13d
	movl	$34, %edi
	movl	$2, %esi
	movl	$25, %edx
	movl	$6, %ecx
	movl	$20, %r8d
	callq	_KTimestamp2
	callq	_KPopCDep
	movl	$3, -60(%rbp)           # 4-byte Folded Spill
	movl	$27, %ebx
.Ltmp795:
.LBB9_20:                               # %if.end40
	xorl	%r14d, %r14d
.LBB9_21:                               # %if.end40
	xorl	%r15d, %r15d
.LBB9_22:                               # %if.end40
	#DEBUG_VALUE: quicksort___atanf:hx <- [RBP+-68]
	movl	$25, %edi
	callq	_KPushCDep
	movl	%r12d, 16(%rsp)
	movl	%r14d, 8(%rsp)
	movl	%ebx, (%rsp)
	movl	$23, %edi
	movl	$0, %esi
	movl	$6, %edx
	movl	$24, %ecx
	movl	$25, %r8d
	xorl	%eax, %eax
	movl	%r15d, %r9d
	callq	_KPhi
	movl	%r12d, 16(%rsp)
	movl	%r14d, 8(%rsp)
	movl	%ebx, (%rsp)
	movl	$30, %edi
	movl	$6, %edx
	movl	$24, %ecx
	movl	$25, %r8d
	xorl	%eax, %eax
	movl	%r13d, %esi
	movl	%r15d, %r9d
	callq	_KPhi
	movl	$128, %edi
	callq	_KWork
	.loc	1 868 7                 # quicksortlibm.c:868:7
	movss	-52(%rbp), %xmm0        # 4-byte Reload
	mulss	%xmm0, %xmm0
.Ltmp796:
	#DEBUG_VALUE: quicksort___atanf:z <- XMM0
	.loc	1 869 7                 # quicksortlibm.c:869:7
	movss	%xmm0, -64(%rbp)        # 4-byte Spill
.Ltmp797:
	#DEBUG_VALUE: quicksort___atanf:z <- [RBP+-64]
	mulss	%xmm0, %xmm0
.Ltmp798:
	#DEBUG_VALUE: quicksort___atanf:w <- XMM0
	movss	%xmm0, -56(%rbp)        # 4-byte Spill
.Ltmp799:
	#DEBUG_VALUE: quicksort___atanf:w <- [RBP+-56]
	movl	$quicksort_aT, %edi
	movl	$7, %esi
	movl	$4, %edx
	callq	_KLoad0
	movl	$quicksort_aT+8, %edi
	movl	$8, %esi
	movl	$4, %edx
	callq	_KLoad0
	movl	$quicksort_aT+16, %edi
	movl	$9, %esi
	movl	$4, %edx
	callq	_KLoad0
	movl	$quicksort_aT+24, %edi
	movl	$10, %esi
	movl	$4, %edx
	callq	_KLoad0
	movl	$quicksort_aT+32, %edi
	movl	$11, %esi
	movl	$4, %edx
	callq	_KLoad0
	movl	$quicksort_aT+40, %edi
	movl	$12, %esi
	movl	$4, %edx
	callq	_KLoad0
	movss	.LCPI9_6(%rip), %xmm1
	movss	-56(%rbp), %xmm0        # 4-byte Reload
.Ltmp800:
	#DEBUG_VALUE: quicksort___atanf:w <- XMM0
	.loc	1 877 15                # quicksortlibm.c:877:15
	mulss	%xmm0, %xmm1
	.loc	1 876 19                # quicksortlibm.c:876:19
	addss	.LCPI9_7(%rip), %xmm1
	.loc	1 876 13 is_stmt 0      # quicksortlibm.c:876:13
	mulss	%xmm0, %xmm1
	.loc	1 875 17 is_stmt 1      # quicksortlibm.c:875:17
	addss	.LCPI9_8(%rip), %xmm1
	.loc	1 875 11 is_stmt 0      # quicksortlibm.c:875:11
	mulss	%xmm0, %xmm1
	.loc	1 874 15 is_stmt 1      # quicksortlibm.c:874:15
	addss	.LCPI9_9(%rip), %xmm1
	.loc	1 874 9 is_stmt 0       # quicksortlibm.c:874:9
	mulss	%xmm0, %xmm1
	.loc	1 873 13 is_stmt 1      # quicksortlibm.c:873:13
	addss	.LCPI9_10(%rip), %xmm1
	.loc	1 873 7 is_stmt 0       # quicksortlibm.c:873:7
	mulss	%xmm0, %xmm1
.Ltmp801:
	#DEBUG_VALUE: quicksort___atanf:w <- [RBP+-56]
	.loc	1 872 11 is_stmt 1      # quicksortlibm.c:872:11
	addss	.LCPI9_11(%rip), %xmm1
	.loc	1 872 5 is_stmt 0       # quicksortlibm.c:872:5
	mulss	-64(%rbp), %xmm1        # 4-byte Folded Reload
.Ltmp802:
	#DEBUG_VALUE: quicksort___atanf:s1 <- XMM1
	movss	%xmm1, -64(%rbp)        # 4-byte Spill
.Ltmp803:
	#DEBUG_VALUE: quicksort___atanf:s1 <- [RBP+-64]
	movl	$quicksort_aT+4, %edi
	movl	$13, %esi
	movl	$4, %edx
	callq	_KLoad0
	movl	$quicksort_aT+12, %edi
	movl	$14, %esi
	movl	$4, %edx
	callq	_KLoad0
	movl	$quicksort_aT+20, %edi
	movl	$15, %esi
	movl	$4, %edx
	callq	_KLoad0
	movl	$quicksort_aT+28, %edi
	movl	$16, %esi
	movl	$4, %edx
	callq	_KLoad0
	movl	$quicksort_aT+36, %edi
	movl	$17, %esi
	movl	$4, %edx
	callq	_KLoad0
	movss	.LCPI9_12(%rip), %xmm0
	movss	-56(%rbp), %xmm1        # 4-byte Reload
.Ltmp804:
	#DEBUG_VALUE: quicksort___atanf:w <- XMM1
	.loc	1 883 13 is_stmt 1      # quicksortlibm.c:883:13
	mulss	%xmm1, %xmm0
	addss	.LCPI9_13(%rip), %xmm0
	.loc	1 882 11                # quicksortlibm.c:882:11
	mulss	%xmm1, %xmm0
	.loc	1 881 15                # quicksortlibm.c:881:15
	addss	.LCPI9_14(%rip), %xmm0
	.loc	1 881 9 is_stmt 0       # quicksortlibm.c:881:9
	mulss	%xmm1, %xmm0
	.loc	1 880 13 is_stmt 1      # quicksortlibm.c:880:13
	addss	.LCPI9_15(%rip), %xmm0
	.loc	1 880 7 is_stmt 0       # quicksortlibm.c:880:7
	mulss	%xmm1, %xmm0
	.loc	1 879 11 is_stmt 1      # quicksortlibm.c:879:11
	addss	.LCPI9_16(%rip), %xmm0
	.loc	1 879 5 is_stmt 0       # quicksortlibm.c:879:5
	mulss	%xmm1, %xmm0
.Ltmp805:
	#DEBUG_VALUE: quicksort___atanf:s2 <- XMM0
	movss	%xmm0, -56(%rbp)        # 4-byte Spill
.Ltmp806:
	#DEBUG_VALUE: quicksort___atanf:s2 <- [RBP+-56]
	movl	$38, %r13d
	movl	$38, %edi
	movl	$2, %esi
	movl	$4, %edx
	movl	$23, %ecx
	movl	$1, %r8d
	callq	_KTimestamp2
	callq	_KPopCDep
	movl	$38, %edi
	callq	_KPushCDep
	movl	-60(%rbp), %eax         # 4-byte Reload
	.loc	1 885 8 is_stmt 1       # quicksortlibm.c:885:8
	testl	%eax, %eax
	movl	%eax, %ebx
	js	.LBB9_23
.Ltmp807:
# BB#24:                                # %if.else68
	#DEBUG_VALUE: quicksort___atanf:hx <- [RBP+-68]
	#DEBUG_VALUE: quicksort___atanf:s1 <- [RBP+-64]
	#DEBUG_VALUE: quicksort___atanf:s2 <- [RBP+-56]
	movl	$22, %edi
	callq	_KWork
	.loc	1 888 9                 # quicksortlibm.c:888:9
.Ltmp808:
	movslq	%ebx, %rbx
	leaq	quicksort_atanhi(,%rbx,4), %rdi
	movl	$18, %esi
	movl	$19, %edx
	movl	$4, %ecx
	callq	_KLoad1
	movss	quicksort_atanhi(,%rbx,4), %xmm0
	movss	%xmm0, -60(%rbp)        # 4-byte Spill
	movss	-56(%rbp), %xmm0        # 4-byte Reload
.Ltmp809:
	#DEBUG_VALUE: quicksort___atanf:s2 <- XMM0
	.loc	1 889 21                # quicksortlibm.c:889:21
	addss	-64(%rbp), %xmm0        # 4-byte Folded Reload
.Ltmp810:
	.loc	1 889 15 is_stmt 0      # quicksortlibm.c:889:15
	mulss	-52(%rbp), %xmm0        # 4-byte Folded Reload
	movss	%xmm0, -56(%rbp)        # 4-byte Spill
	.loc	1 889 33                # quicksortlibm.c:889:33
	leaq	quicksort_atanlo(,%rbx,4), %rdi
	movl	$20, %esi
	movl	$21, %edx
	movl	$4, %ecx
	callq	_KLoad1
	movss	-56(%rbp), %xmm0        # 4-byte Reload
	.loc	1 889 15                # quicksortlibm.c:889:15
	subss	quicksort_atanlo(,%rbx,4), %xmm0
	.loc	1 889 13                # quicksortlibm.c:889:13
	subss	-52(%rbp), %xmm0        # 4-byte Folded Reload
	movaps	%xmm0, %xmm1
	.loc	1 888 9 is_stmt 1       # quicksortlibm.c:888:9
	movss	-60(%rbp), %xmm0        # 4-byte Reload
	subss	%xmm1, %xmm0
.Ltmp811:
	#DEBUG_VALUE: quicksort___atanf:z <- undef
	movss	%xmm0, -60(%rbp)        # 4-byte Spill
.Ltmp812:
	#DEBUG_VALUE: quicksort___atanf:z <- [RBP+-60]
	movl	$34, 216(%rsp)
	movl	$9, 208(%rsp)
	movl	$27, 200(%rsp)
	movl	$8, 192(%rsp)
	movl	$20, 184(%rsp)
	movl	$7, 176(%rsp)
	movl	$63, 168(%rsp)
	movl	$30, 160(%rsp)
	movl	$14, 152(%rsp)
	movl	$23, 144(%rsp)
	movl	$66, 136(%rsp)
	movl	$2, 128(%rsp)
	movl	$6, 120(%rsp)
	movl	$20, 112(%rsp)
	movl	$2, 104(%rsp)
	movl	$18, 96(%rsp)
	movl	$46, 88(%rsp)
	movl	$17, 80(%rsp)
	movl	$41, 72(%rsp)
	movl	$16, 64(%rsp)
	movl	$34, 56(%rsp)
	movl	$15, 48(%rsp)
	movl	$27, 40(%rsp)
	movl	$14, 32(%rsp)
	movl	$20, 24(%rsp)
	movl	$13, 16(%rsp)
	movl	$53, 8(%rsp)
	movl	$12, (%rsp)
	movl	$37, %ebx
	movl	$37, %edi
	movl	$16, %esi
	movl	$10, %edx
	movl	$41, %ecx
	movl	$11, %r8d
	movl	$48, %r9d
	xorl	%eax, %eax
	callq	_KTimestamp
	movl	$39, %edi
	movl	$2, %esi
	movl	$5, %edx
	movl	$23, %ecx
	movl	$2, %r8d
	callq	_KTimestamp2
	callq	_KPopCDep
	.loc	1 890 13                # quicksortlibm.c:890:13
	cmpl	$0, -68(%rbp)           # 4-byte Folded Reload
	jns	.LBB9_26
# BB#25:                                # %cond.true
	#DEBUG_VALUE: quicksort___atanf:z <- [RBP+-60]
	movl	$39, %edi
	callq	_KPushCDep
	movl	$2, %edi
	callq	_KWork
	.loc	1 890 26 is_stmt 0      # quicksortlibm.c:890:26
	movss	-60(%rbp), %xmm0        # 4-byte Reload
	xorps	.LCPI9_17(%rip), %xmm0
	movss	%xmm0, -60(%rbp)        # 4-byte Spill
	movl	$36, 216(%rsp)
	movl	$9, 208(%rsp)
	movl	$29, 200(%rsp)
	movl	$8, 192(%rsp)
	movl	$22, 184(%rsp)
	movl	$7, 176(%rsp)
	movl	$65, 168(%rsp)
	movl	$30, 160(%rsp)
	movl	$16, 152(%rsp)
	movl	$23, 144(%rsp)
	movl	$68, 136(%rsp)
	movl	$2, 128(%rsp)
	movl	$8, 120(%rsp)
	movl	$20, 112(%rsp)
	movl	$4, 104(%rsp)
	movl	$18, 96(%rsp)
	movl	$48, 88(%rsp)
	movl	$17, 80(%rsp)
	movl	$43, 72(%rsp)
	movl	$16, 64(%rsp)
	movl	$36, 56(%rsp)
	movl	$15, 48(%rsp)
	movl	$29, 40(%rsp)
	movl	$14, 32(%rsp)
	movl	$22, 24(%rsp)
	movl	$13, 16(%rsp)
	movl	$55, 8(%rsp)
	movl	$12, (%rsp)
	movl	$36, %ebx
	movl	$36, %edi
	movl	$16, %esi
	movl	$10, %edx
	movl	$43, %ecx
	movl	$11, %r8d
	movl	$50, %r9d
	xorl	%eax, %eax
	callq	_KTimestamp
	callq	_KPopCDep
.Ltmp813:
.LBB9_26:                               # %cond.end
	movl	$38, %r13d
	movl	$38, %edi
	callq	_KPushCDep
	movl	$35, %r12d
	movl	$35, %edi
	movl	$38, %edx
	movl	$39, %ecx
	movl	%ebx, %esi
	callq	_KPhi2To1
	movl	$35, %edi
	movl	$35, %esi
	xorl	%edx, %edx
	callq	_KTimestamp1
	callq	_KPopCDep
	movl	$25, %ecx
	xorl	%r15d, %r15d
	xorl	%r14d, %r14d
	xorl	%ebx, %ebx
	movss	-60(%rbp), %xmm0        # 4-byte Reload
	movss	%xmm0, -52(%rbp)        # 4-byte Spill
	xorl	%eax, %eax
	jmp	.LBB9_27
.LBB9_23:                               # %if.then64
	#DEBUG_VALUE: quicksort___atanf:s1 <- [RBP+-64]
.Ltmp814:
	#DEBUG_VALUE: quicksort___atanf:s2 <- [RBP+-56]
	movl	$9, %edi
	callq	_KWork
	movss	-56(%rbp), %xmm1        # 4-byte Reload
.Ltmp815:
	#DEBUG_VALUE: quicksort___atanf:s2 <- XMM1
	.loc	1 886 23 is_stmt 1      # quicksortlibm.c:886:23
	addss	-64(%rbp), %xmm1        # 4-byte Folded Reload
.Ltmp816:
	movss	-52(%rbp), %xmm0        # 4-byte Reload
	.loc	1 886 17 is_stmt 0      # quicksortlibm.c:886:17
	mulss	%xmm0, %xmm1
	.loc	1 886 13                # quicksortlibm.c:886:13
	subss	%xmm1, %xmm0
	movss	%xmm0, -52(%rbp)        # 4-byte Spill
	movl	$30, 184(%rsp)
	movl	$9, 176(%rsp)
	movl	$23, 168(%rsp)
	movl	$8, 160(%rsp)
	movl	$16, 152(%rsp)
	movl	$7, 144(%rsp)
	movl	$59, 136(%rsp)
	movl	$30, 128(%rsp)
	movl	$10, 120(%rsp)
	movl	$23, 112(%rsp)
	movl	$62, 104(%rsp)
	movl	$2, 96(%rsp)
	movl	$42, 88(%rsp)
	movl	$17, 80(%rsp)
	movl	$37, 72(%rsp)
	movl	$16, 64(%rsp)
	movl	$30, 56(%rsp)
	movl	$15, 48(%rsp)
	movl	$23, 40(%rsp)
	movl	$14, 32(%rsp)
	movl	$16, 24(%rsp)
	movl	$13, 16(%rsp)
	movl	$49, 8(%rsp)
	movl	$12, (%rsp)
	movl	$43, %r12d
	movl	$43, %edi
	movl	$14, %esi
	movl	$10, %edx
	movl	$37, %ecx
	movl	$11, %r8d
	movl	$44, %r9d
	xorl	%eax, %eax
	callq	_KTimestamp
	callq	_KPopCDep
	xorl	%r15d, %r15d
	xorl	%r14d, %r14d
	xorl	%ebx, %ebx
	xorl	%eax, %eax
	movl	$25, %ecx
.Ltmp817:
.LBB9_27:                               # %return
	movl	%r13d, 24(%rsp)
	movl	%ebx, 16(%rsp)
	movl	%eax, 8(%rsp)
	movl	%ecx, (%rsp)
	movl	$22, %edi
	movl	$7, %edx
	movl	$24, %ecx
	xorl	%eax, %eax
	movl	%r12d, %esi
	movl	%r14d, %r8d
	movl	%r15d, %r9d
	callq	_KPhi
	movl	$22, %edi
	movl	$22, %esi
	xorl	%edx, %edx
	callq	_KTimestamp1
	movl	$22, %edi
	callq	_KReturn
	xorl	%esi, %esi
	movabsq	$1449162316741551713, %rdi # imm = 0x141C7572F7432661
	callq	_KExitRegion
	.loc	1 892 1 is_stmt 1       # quicksortlibm.c:892:1
	movss	-52(%rbp), %xmm0        # 4-byte Reload
	addq	$264, %rsp              # imm = 0x108
	popq	%rbx
	popq	%r12
	popq	%r13
	popq	%r14
	popq	%r15
	popq	%rbp
	retq
.Ltmp818:
.Ltmp819:
	.size	quicksort___atanf, .Ltmp819-quicksort___atanf
.Lfunc_end9:
	.cfi_endproc

	.section	.rodata.cst16,"aM",@progbits,16
	.align	16
.LCPI10_0:
	.long	2147483648              # 0x80000000
	.long	2147483648              # 0x80000000
	.long	2147483648              # 0x80000000
	.long	2147483648              # 0x80000000
	.text
	.globl	quicksort___cosf
	.align	16, 0x90
	.type	quicksort___cosf,@function
quicksort___cosf:                       # @quicksort___cosf
.Lfunc_begin10:
	.loc	1 916 0                 # quicksortlibm.c:916:0
	.cfi_startproc
# BB#0:                                 # %entry
	pushq	%rbp
.Ltmp820:
	.cfi_def_cfa_offset 16
.Ltmp821:
	.cfi_offset %rbp, -16
	movq	%rsp, %rbp
.Ltmp822:
	.cfi_def_cfa_register %rbp
	pushq	%r15
	pushq	%r14
	pushq	%r13
	pushq	%r12
	pushq	%rbx
	subq	$40, %rsp
.Ltmp823:
	.cfi_offset %rbx, -56
.Ltmp824:
	.cfi_offset %r12, -48
.Ltmp825:
	.cfi_offset %r13, -40
.Ltmp826:
	.cfi_offset %r14, -32
.Ltmp827:
	.cfi_offset %r15, -24
	#DEBUG_VALUE: quicksort___cosf:x <- XMM0
	movss	%xmm0, -60(%rbp)        # 4-byte Spill
.Ltmp828:
	#DEBUG_VALUE: quicksort___cosf:x <- [RBP+-60]
	#DEBUG_VALUE: quicksort___cosf:x <- undef
	movabsq	$-8932225244363819856, %r14 # imm = 0x840A5C7717EAF4B0
	xorl	%r15d, %r15d
	xorl	%esi, %esi
	movq	%r14, %rdi
	callq	_KEnterRegion
	movl	$24, %edi
	xorl	%esi, %esi
	callq	_KPrepRTable
	movl	$1, %edi
	callq	_KDeqArg
	movl	$7, %edi
	callq	_KWork
.Ltmp829:
	#DEBUG_VALUE: quicksort___cosf:z <- 0.000000e+00
	movl	$1, %edi
	movl	$1, %esi
	xorl	%edx, %edx
	callq	_KTimestamp1
	leaq	-56(%rbp), %rbx
	movl	$1, %edi
	movl	$4, %edx
	movq	%rbx, %rsi
	callq	_KStore
	.loc	1 921 3 prologue_end    # quicksortlibm.c:921:3
.Ltmp830:
	movss	-60(%rbp), %xmm0        # 4-byte Reload
	movss	%xmm0, -56(%rbp)
.Ltmp831:
	#DEBUG_VALUE: quicksort___cosf:x <- [RBP+-60]
	movl	$2, %esi
	movl	$4, %edx
	movq	%rbx, %rdi
	callq	_KLoad0
	movl	$2147483647, %ebx       # imm = 0x7FFFFFFF
.Ltmp832:
	.loc	1 924 3                 # quicksortlibm.c:924:3
	andl	-56(%rbp), %ebx
.Ltmp833:
	#DEBUG_VALUE: quicksort___cosf:ix <- EBX
	movl	$21, %edi
	movl	$2, %esi
	movl	$2, %edx
	callq	_KTimestamp1
	movl	$21, %edi
	callq	_KPushCDep
	.loc	1 925 8                 # quicksortlibm.c:925:8
	cmpl	$1061752792, %ebx       # imm = 0x3F490FD8
	ja	.LBB10_2
.Ltmp834:
# BB#1:                                 # %if.then
	#DEBUG_VALUE: quicksort___cosf:x <- [RBP+-60]
	#DEBUG_VALUE: quicksort___cosf:z <- 0.000000e+00
	movabsq	$-1010574207141134042, %rdi # imm = 0xF1F9B81CE42E4126
	xorl	%esi, %esi
	callq	_KPrepCall
	callq	_KEnqArgConst
	movl	$1, %edi
	callq	_KEnqArg
	movl	$3, %r12d
	movl	$3, %edi
	callq	_KLinkReturn
	xorps	%xmm1, %xmm1
	.loc	1 926 13                # quicksortlibm.c:926:13
.Ltmp835:
	movss	-60(%rbp), %xmm0        # 4-byte Reload
	callq	quicksort___kernel_cosf
	movss	%xmm0, -60(%rbp)        # 4-byte Spill
	movl	$3, %edi
	movl	$3, %esi
