	.text
	.file	"memcpy.simplifycfg.mem2reg.indvars.elimsinglephis.criticalpath.regioninstrument.renamemain.O3.bc"
	.text
	.globl	sha_glibc_memcpy
	.align	16, 0x90
	.type	sha_glibc_memcpy,@function
sha_glibc_memcpy:                       # @sha_glibc_memcpy
.Lfunc_begin0:
	.file	2 "memcpy.c"
	.loc	2 25 0                  # memcpy.c:25:0
	.cfi_startproc
# BB#0:                                 # %entry
	pushq	%rbp
.Ltmp0:
	.cfi_def_cfa_offset 16
.Ltmp1:
	.cfi_offset %rbp, -16
	movq	%rsp, %rbp
.Ltmp2:
	.cfi_def_cfa_register %rbp
	pushq	%r15
	pushq	%r14
	pushq	%r13
	pushq	%r12
	pushq	%rbx
	subq	$72, %rsp
.Ltmp3:
	.cfi_offset %rbx, -56
.Ltmp4:
	.cfi_offset %r12, -48
.Ltmp5:
	.cfi_offset %r13, -40
.Ltmp6:
	.cfi_offset %r14, -32
.Ltmp7:
	.cfi_offset %r15, -24
	#DEBUG_VALUE: sha_glibc_memcpy:dstpp <- RDI
	#DEBUG_VALUE: sha_glibc_memcpy:srcpp <- RSI
	#DEBUG_VALUE: sha_glibc_memcpy:len <- EDX
	movl	%edx, %r13d
.Ltmp8:
	#DEBUG_VALUE: sha_glibc_memcpy:len <- R13D
	movq	%rsi, %r14
.Ltmp9:
	#DEBUG_VALUE: sha_glibc_memcpy:srcpp <- R14
	movq	%rdi, %r15
.Ltmp10:
	#DEBUG_VALUE: sha_glibc_memcpy:srcp <- R14
	#DEBUG_VALUE: sha_glibc_memcpy:dstpp <- R15
	movabsq	$7558876376309884053, %rdi # imm = 0x68E68603FF0AE495
	xorl	%esi, %esi
	callq	_KEnterRegion
	movl	$35, %edi
	movl	$2, %esi
	callq	_KPrepRTable
	movl	$1, %edi
	callq	_KWork
	movl	$1, %edi
	callq	_KDeqArg
.Ltmp11:
	#DEBUG_VALUE: sha_glibc_memcpy:dstp <- R15
	movl	$1, %edi
	movl	$1, %esi
	xorl	%edx, %edx
	callq	_KTimestamp1
	movl	$16, %ebx
	movl	$16, %edi
	movl	$6, %esi
	xorl	%edx, %edx
	callq	_KTimestamp1
	movl	$12, %edi
	movl	$1, %esi
	movl	$1, %edx
	callq	_KTimestamp1
	movl	$10, %edi
	movl	$4, %esi
	xorl	%edx, %edx
	callq	_KTimestamp1
	.loc	2 33 8 prologue_end     # memcpy.c:33:8
.Ltmp12:
	cmpl	$16, %r13d
	jb	.LBB0_1
.Ltmp13:
# BB#2:                                 # %if.then
	#DEBUG_VALUE: sha_glibc_memcpy:dstpp <- R15
	#DEBUG_VALUE: sha_glibc_memcpy:srcpp <- R14
	#DEBUG_VALUE: sha_glibc_memcpy:len <- R13D
	#DEBUG_VALUE: sha_glibc_memcpy:srcp <- R14
	#DEBUG_VALUE: sha_glibc_memcpy:dstp <- R15
	movabsq	$-1140525947450087513, %r12 # imm = 0xF02C09B18D1F27A7
	movl	$12, %edi
	callq	_KPushCDep
	movl	$24, %edi
	callq	_KWork
	.loc	2 35 14                 # memcpy.c:35:14
.Ltmp14:
	movq	%r15, %rbx
	negq	%rbx
	.loc	2 35 12 is_stmt 0       # memcpy.c:35:12
	movq	%rbx, %rax
	andq	$7, %rax
	movq	%rax, -88(%rbp)         # 8-byte Spill
	.loc	2 35 5                  # memcpy.c:35:5
	movl	%r13d, %r13d
.Ltmp15:
	movq	%r13, -72(%rbp)         # 8-byte Spill
	movl	$13, (%rsp)
	movl	$5, %edi
	movl	$4, %esi
	movl	$12, %edx
	movl	$6, %ecx
	movl	$1, %r8d
	movl	$1, %r9d
	callq	_KTimestamp3
	movl	$18, -56(%rbp)          # 4-byte Folded Spill
	movl	$18, %edi
	movl	$4, %esi
	movl	$11, %edx
	movl	$1, %ecx
	movl	$12, %r8d
	callq	_KTimestamp2
	callq	_KPopCDep
	movl	$1, %esi
	movq	%r12, %rdi
	callq	_KEnterRegion
	andl	$7, %ebx
	negl	%ebx
	movq	%rbx, -48(%rbp)         # 8-byte Spill
	movl	$16, %ebx
	movl	$10, %r13d
	movq	%r14, %rax
.Ltmp16:
	#DEBUG_VALUE: sha_glibc_memcpy:srcp <- RAX
	#DEBUG_VALUE: sha_glibc_memcpy:srcpp <- RAX
	movq	%rax, -96(%rbp)         # 8-byte Spill
	xorl	%r14d, %r14d
	movabsq	$4083118842629320640, %r12 # imm = 0x38AA26F43E9FEFC0
	movq	%r15, -64(%rbp)         # 8-byte Spill
	movq	%r15, -80(%rbp)         # 8-byte Spill
.Ltmp17:
	#DEBUG_VALUE: sha_glibc_memcpy:dstp <- [RBP+-80]
	#DEBUG_VALUE: sha_glibc_memcpy:dstpp <- [RBP+-80]
	movq	%rax, %r15
.Ltmp18:
	#DEBUG_VALUE: sha_glibc_memcpy:srcp <- [RBP+-96]
	#DEBUG_VALUE: sha_glibc_memcpy:srcpp <- [RBP+-96]
	jmp	.LBB0_3
	.align	16, 0x90
.LBB0_4:                                # %while.body
                                        #   in Loop: Header=BB0_3 Depth=1
	#DEBUG_VALUE: sha_glibc_memcpy:dstpp <- [RBP+-80]
	#DEBUG_VALUE: sha_glibc_memcpy:srcpp <- [RBP+-96]
	#DEBUG_VALUE: sha_glibc_memcpy:srcp <- [RBP+-96]
	#DEBUG_VALUE: sha_glibc_memcpy:dstp <- [RBP+-80]
	movl	$2, %esi
	movq	%r12, %rdi
	callq	_KEnterRegion
	movl	$13, %r14d
	movl	$13, %edi
	callq	_KPushCDep
	movl	$8, %edi
	callq	_KWork
	movl	$2, %esi
	movl	$1, %edx
	movq	%r15, %rdi
	callq	_KLoad0
	.loc	2 40 18 is_stmt 1       # memcpy.c:40:18
.Ltmp19:
	movb	(%r15), %r13b
.Ltmp20:
	#DEBUG_VALUE: __x <- R13B
	.loc	2 41 7                  # memcpy.c:41:7
	incq	%r15
.Ltmp21:
	#DEBUG_VALUE: sha_glibc_memcpy:srcp <- R15
	movl	$2, %edi
	movl	$2, %esi
	xorl	%edx, %edx
	callq	_KTimestamp1
	movl	$2, %edi
	movl	$1, %edx
	movq	-64(%rbp), %rbx         # 8-byte Reload
	movq	%rbx, %rsi
	callq	_KStore
	.loc	2 43 7                  # memcpy.c:43:7
	movb	%r13b, (%rbx)
	.loc	2 44 7                  # memcpy.c:44:7
	incq	%rbx
.Ltmp22:
	#DEBUG_VALUE: sha_glibc_memcpy:dstp <- RBX
	movq	%rbx, -64(%rbp)         # 8-byte Spill
.Ltmp23:
	#DEBUG_VALUE: sha_glibc_memcpy:dstp <- [RBP+-64]
	movl	$19, -56(%rbp)          # 4-byte Folded Spill
	movl	$19, %edi
	movl	$14, %esi
	movl	$1, %edx
	movl	$13, %ecx
	movl	$1, %r8d
	callq	_KTimestamp2
	movl	$17, %ebx
	movl	$17, %edi
	movl	$15, %esi
	movl	$1, %edx
	movl	$13, %ecx
	movl	$1, %r8d
	callq	_KTimestamp2
	movl	$11, %r13d
.Ltmp24:
	movl	$11, %edi
	movl	$9, %esi
	movl	$1, %edx
	movl	$13, %ecx
	movl	$1, %r8d
	callq	_KTimestamp2
	callq	_KPopCDep
	movl	$2, %esi
	movq	%r12, %rdi
	callq	_KExitRegion
	movq	-48(%rbp), %rax         # 8-byte Reload
	incl	%eax
	movq	%rax, -48(%rbp)         # 8-byte Spill
.Ltmp25:
.LBB0_3:                                # %while.cond
                                        # =>This Inner Loop Header: Depth=1
	#DEBUG_VALUE: sha_glibc_memcpy:dstpp <- [RBP+-80]
	#DEBUG_VALUE: sha_glibc_memcpy:srcpp <- [RBP+-96]
	#DEBUG_VALUE: sha_glibc_memcpy:srcp <- [RBP+-96]
	#DEBUG_VALUE: sha_glibc_memcpy:dstp <- [RBP+-80]
	movl	$12, %edi
	callq	_KPushCDep
	movl	$14, %edi
	movl	$12, %edx
	movl	-56(%rbp), %esi         # 4-byte Reload
	movl	%r14d, %ecx
	callq	_KPhi2To1
	movl	$15, %edi
	movl	$12, %edx
	movl	%ebx, %esi
	movl	%r14d, %ecx
	callq	_KPhi2To1
	movl	$9, %edi
	movl	$12, %edx
	movl	%r13d, %esi
	movl	%r14d, %ecx
	callq	_KPhi2To1
	movl	$1, %edi
	callq	_KWork
	movl	$13, %edi
	movl	$12, %esi
	movl	$1, %edx
	movl	$14, %ecx
	movl	$1, %r8d
	callq	_KTimestamp2
	movl	$14, %edi
	movl	$13, %esi
	callq	_KPhiAddCond
	movl	$14, %edi
	movl	$14, %esi
	xorl	%edx, %edx
	callq	_KTimestamp1
	movl	$15, %edi
	movl	$13, %esi
	callq	_KPhiAddCond
	movl	$15, %edi
	movl	$15, %esi
	xorl	%edx, %edx
	callq	_KTimestamp1
	movl	$9, %edi
	movl	$13, %esi
	callq	_KPhiAddCond
	movl	$9, %edi
	movl	$9, %esi
	xorl	%edx, %edx
	callq	_KTimestamp1
	callq	_KPopCDep
	.loc	2 39 13 discriminator 2 # memcpy.c:39:13
.Ltmp26:
	movq	-48(%rbp), %rax         # 8-byte Reload
	testl	%eax, %eax
	jne	.LBB0_4
.Ltmp27:
# BB#5:                                 # %while.cond.pre_exit.while.end
	#DEBUG_VALUE: sha_glibc_memcpy:dstpp <- [RBP+-80]
	#DEBUG_VALUE: sha_glibc_memcpy:srcpp <- [RBP+-96]
	#DEBUG_VALUE: sha_glibc_memcpy:srcp <- [RBP+-96]
	#DEBUG_VALUE: sha_glibc_memcpy:dstp <- [RBP+-80]
	movl	$4294967288, %r14d      # imm = 0xFFFFFFF8
	movq	-72(%rbp), %r13         # 8-byte Reload
	movq	-88(%rbp), %r15         # 8-byte Reload
	.loc	2 35 5                  # memcpy.c:35:5
	subq	%r15, %r13
	movq	-96(%rbp), %rbx         # 8-byte Reload
.Ltmp28:
	#DEBUG_VALUE: sha_glibc_memcpy:srcp <- RBX
	#DEBUG_VALUE: sha_glibc_memcpy:srcpp <- RBX
	.loc	2 39 5                  # memcpy.c:39:5
	leaq	(%rbx,%r15), %r12
	movl	$1, %esi
	movabsq	$-1140525947450087513, %rdi # imm = 0xF02C09B18D1F27A7
	callq	_KExitRegion
	movl	$12, %edi
	callq	_KPushCDep
	movl	$12, %edi
	callq	_KWork
	movq	-80(%rbp), %rax         # 8-byte Reload
.Ltmp29:
	#DEBUG_VALUE: sha_glibc_memcpy:dstp <- RAX
	#DEBUG_VALUE: sha_glibc_memcpy:dstpp <- RAX
	addq	%rax, %r15
	.loc	2 56 5                  # memcpy.c:56:5
.Ltmp30:
	subl	%eax, %ebx
.Ltmp31:
	#DEBUG_VALUE: sha_glibc_memcpy:dstp <- [RBP+-80]
	#DEBUG_VALUE: sha_glibc_memcpy:dstpp <- [RBP+-80]
	movl	$3, %edi
	movl	$4, %esi
	movl	$12, %edx
	movl	$1, %ecx
	movl	$13, %r8d
	callq	_KTimestamp2
	movl	$24, (%rsp)
	movl	$22, %edi
	movl	$4, %esi
	movl	$23, %edx
	movl	$6, %ecx
	movl	$12, %r8d
	movl	$1, %r9d
	callq	_KTimestamp3
	callq	_KPopCDep
	movl	$22, %edi
	callq	_KPushCDep
.Ltmp32:
	.loc	2 56 5 is_stmt 0        # memcpy.c:56:5
	testb	$7, %bl
	je	.LBB0_6
# BB#7:                                 # %if.else
	#DEBUG_VALUE: sha_glibc_memcpy:dstpp <- [RBP+-80]
	#DEBUG_VALUE: sha_glibc_memcpy:dstp <- [RBP+-80]
	movl	$2, %edi
	callq	_KWork
	.loc	2 56 5 discriminator 2  # memcpy.c:56:5
.Ltmp33:
	andq	%r13, %r14
	addq	%r14, %r12
.Ltmp34:
	#DEBUG_VALUE: sha_glibc_memcpy:srcp <- R12
	movl	$26, (%rsp)
	movl	$21, %ebx
	movl	$21, %edi
	movl	$4, %esi
	movl	$25, %edx
	movl	$6, %ecx
	movl	$14, %r8d
	movl	$1, %r9d
	callq	_KTimestamp3
	callq	_KPopCDep
	jmp	.LBB0_8
.Ltmp35:
.LBB0_1:
	#DEBUG_VALUE: sha_glibc_memcpy:dstpp <- R15
	#DEBUG_VALUE: sha_glibc_memcpy:srcpp <- R14
	#DEBUG_VALUE: sha_glibc_memcpy:len <- R13D
	#DEBUG_VALUE: sha_glibc_memcpy:srcp <- R14
	#DEBUG_VALUE: sha_glibc_memcpy:dstp <- R15
	movq	%r13, -72(%rbp)         # 8-byte Spill
.Ltmp36:
	#DEBUG_VALUE: sha_glibc_memcpy:len <- [RBP+-72]
	movq	%r15, -48(%rbp)         # 8-byte Spill
	movq	%r15, -80(%rbp)         # 8-byte Spill
.Ltmp37:
	#DEBUG_VALUE: sha_glibc_memcpy:dstp <- [RBP+-80]
	#DEBUG_VALUE: sha_glibc_memcpy:dstpp <- [RBP+-80]
	movq	%r14, -56(%rbp)         # 8-byte Spill
.Ltmp38:
	#DEBUG_VALUE: sha_glibc_memcpy:srcp <- [RBP+-56]
	#DEBUG_VALUE: sha_glibc_memcpy:srcpp <- [RBP+-56]
	movl	$1, %r14d
	movl	$10, %r12d
	jmp	.LBB0_9
.LBB0_6:                                # %if.then14
	#DEBUG_VALUE: sha_glibc_memcpy:dstpp <- [RBP+-80]
	#DEBUG_VALUE: sha_glibc_memcpy:dstp <- [RBP+-80]
	movl	$10, %edi
	callq	_KWork
	movq	%r15, -88(%rbp)         # 8-byte Spill
	.loc	2 56 5 discriminator 1  # memcpy.c:56:5
	movl	%r13d, %r15d
	shrl	$3, %r15d
	movabsq	$5878440496665508275, %rdi # imm = 0x51946A7C8504B9B3
	xorl	%esi, %esi
	callq	_KPrepCall
	movl	$34, (%rsp)
	movl	$7, %edi
	movl	$4, %esi
	movl	$33, %edx
	movl	$6, %ecx
	movl	$22, %r8d
	movl	$1, %r9d
	callq	_KTimestamp3
	movl	$7, %edi
	callq	_KEnqArg
	movl	$5, %ebx
	movl	$5, %edi
	callq	_KEnqArg
	movl	$3, %edi
	callq	_KEnqArg
	movq	-88(%rbp), %rdi         # 8-byte Reload
	movq	%r12, %rsi
	movl	%r15d, %edx
	movq	-88(%rbp), %r15         # 8-byte Reload
	callq	sha_wordcopy_fwd_aligned
	callq	_KPopCDep
.Ltmp39:
	.loc	2 56 5 discriminator 3  # memcpy.c:56:5
	andq	%r13, %r14
.LBB0_8:                                # %if.end
	#DEBUG_VALUE: sha_glibc_memcpy:dstpp <- [RBP+-80]
	#DEBUG_VALUE: sha_glibc_memcpy:dstp <- [RBP+-80]
	movq	%r12, -56(%rbp)         # 8-byte Spill
	movl	$12, %edi
	callq	_KPushCDep
	movl	$20, %edi
	movl	$12, %edx
	movl	$22, %ecx
	movl	%ebx, %esi
	movl	$20, %ebx
	callq	_KPhi2To1
	movl	$12, %edi
	callq	_KWork
	addq	%r15, %r14
.Ltmp40:
	#DEBUG_VALUE: sha_glibc_memcpy:dstp <- R14
	movq	%r14, -48(%rbp)         # 8-byte Spill
.Ltmp41:
	#DEBUG_VALUE: sha_glibc_memcpy:dstp <- [RBP+-48]
	andl	$7, %r13d
.Ltmp42:
	#DEBUG_VALUE: sha_glibc_memcpy:len <- R13D
	movq	%r13, -72(%rbp)         # 8-byte Spill
.Ltmp43:
	#DEBUG_VALUE: sha_glibc_memcpy:len <- [RBP+-72]
	movl	$20, %edi
	movl	$20, %esi
	xorl	%edx, %edx
	callq	_KTimestamp1
	movl	$26, %r14d
	movl	$26, %edi
	movl	$4, %esi
	movl	$22, %edx
	movl	$1, %ecx
	movl	$23, %r8d
	callq	_KTimestamp2
	movl	$24, %r12d
	movl	$24, %edi
	movl	$4, %esi
	movl	$14, %edx
	movl	$1, %ecx
	movl	$15, %r8d
	callq	_KTimestamp2
	callq	_KPopCDep
.Ltmp44:
.LBB0_9:                                # %if.end25
	#DEBUG_VALUE: sha_glibc_memcpy:dstpp <- [RBP+-80]
	#DEBUG_VALUE: sha_glibc_memcpy:dstp <- [RBP+-80]
	movl	$27, %r13d
	movl	$27, %edi
	movl	$12, %edx
	movl	%ebx, %esi
	callq	_KPhi1To1
	movl	$25, %ebx
	movl	$25, %edi
	movl	$12, %edx
	movl	%r14d, %esi
	callq	_KPhi1To1
	movl	$23, %r15d
	movl	$23, %edi
	movl	$12, %edx
	movl	%r12d, %esi
	callq	_KPhi1To1
	movl	$25, %edi
	movl	$25, %esi
	xorl	%edx, %edx
	callq	_KTimestamp1
	movl	$27, %edi
	movl	$27, %esi
	xorl	%edx, %edx
	callq	_KTimestamp1
	movl	$23, %edi
	movl	$23, %esi
	xorl	%edx, %edx
	callq	_KTimestamp1
	movl	$1, %esi
	movabsq	$-8940680904077819787, %rdi # imm = 0x83EC52166652C075
	callq	_KEnterRegion
	movabsq	$-6884099910392460149, %r12 # imm = 0xA076C39AE2C24C8B
	movq	-72(%rbp), %r14         # 8-byte Reload
	xorl	%eax, %eax
	jmp	.LBB0_10
	.align	16, 0x90
.LBB0_11:                               # %while.body29
                                        #   in Loop: Header=BB0_10 Depth=1
	#DEBUG_VALUE: sha_glibc_memcpy:dstpp <- [RBP+-80]
	#DEBUG_VALUE: sha_glibc_memcpy:dstp <- [RBP+-80]
	movl	$2, %esi
	movq	%r12, %rdi
	callq	_KEnterRegion
	movl	$30, %edi
	callq	_KPushCDep
	movl	$8, %edi
	callq	_KWork
	movl	$8, %esi
	movl	$1, %edx
	movq	-56(%rbp), %rbx         # 8-byte Reload
	movq	%rbx, %rdi
	callq	_KLoad0
	.loc	2 65 16 is_stmt 1       # memcpy.c:65:16
.Ltmp45:
	movb	(%rbx), %r15b
.Ltmp46:
	#DEBUG_VALUE: __x <- R15B
	.loc	2 66 5                  # memcpy.c:66:5
	incq	%rbx
.Ltmp47:
	#DEBUG_VALUE: sha_glibc_memcpy:srcp <- RBX
	movq	%rbx, -56(%rbp)         # 8-byte Spill
.Ltmp48:
	#DEBUG_VALUE: sha_glibc_memcpy:srcp <- [RBP+-56]
	.loc	2 67 5                  # memcpy.c:67:5
	decl	%r14d
.Ltmp49:
	#DEBUG_VALUE: sha_glibc_memcpy:__nbytes <- R14D
	movl	$8, %edi
	movl	$8, %esi
	xorl	%edx, %edx
	callq	_KTimestamp1
	movl	$8, %edi
	movl	$1, %edx
	movq	-48(%rbp), %rbx         # 8-byte Reload
	movq	%rbx, %rsi
	callq	_KStore
	.loc	2 68 5                  # memcpy.c:68:5
	movb	%r15b, (%rbx)
	.loc	2 69 5                  # memcpy.c:69:5
	incq	%rbx
.Ltmp50:
	#DEBUG_VALUE: sha_glibc_memcpy:dstp <- RBX
	movq	%rbx, -48(%rbp)         # 8-byte Spill
.Ltmp51:
	#DEBUG_VALUE: sha_glibc_memcpy:dstp <- [RBP+-48]
	movl	$34, %ebx
	movl	$34, %edi
	movl	$31, %esi
	movl	$1, %edx
	movl	$30, %ecx
	movl	$1, %r8d
	callq	_KTimestamp2
	movl	$33, %r13d
	movl	$33, %edi
	movl	$32, %esi
	movl	$1, %edx
	movl	$30, %ecx
	movl	$1, %r8d
	callq	_KTimestamp2
	movl	$29, %r15d
.Ltmp52:
	movl	$29, %edi
	movl	$28, %esi
	movl	$1, %edx
	movl	$30, %ecx
	movl	$1, %r8d
	callq	_KTimestamp2
	callq	_KPopCDep
	movl	$2, %esi
	movq	%r12, %rdi
	callq	_KExitRegion
	movl	$30, %eax
.Ltmp53:
.LBB0_10:                               # %while.cond26
                                        # =>This Inner Loop Header: Depth=1
	#DEBUG_VALUE: sha_glibc_memcpy:dstpp <- [RBP+-80]
	#DEBUG_VALUE: sha_glibc_memcpy:dstp <- [RBP+-80]
	movl	$31, %edi
	movl	%ebx, %esi
	movl	%eax, %ebx
	movl	%ebx, %edx
	callq	_KPhi1To1
	movl	$32, %edi
	movl	%r13d, %esi
	movl	%ebx, %edx
	callq	_KPhi1To1
	movl	$28, %edi
	movl	%r15d, %esi
	movl	%ebx, %edx
	callq	_KPhi1To1
	movl	$1, %edi
	callq	_KWork
	movl	$30, %edi
	movl	$31, %esi
	movl	$1, %edx
	callq	_KTimestamp1
	movl	$31, %edi
	movl	$30, %esi
	callq	_KPhiAddCond
	movl	$31, %edi
	movl	$31, %esi
	xorl	%edx, %edx
	callq	_KTimestamp1
	movl	$32, %edi
	movl	$30, %esi
	callq	_KPhiAddCond
	movl	$32, %edi
	movl	$32, %esi
	xorl	%edx, %edx
	callq	_KTimestamp1
	movl	$28, %edi
	movl	$30, %esi
	callq	_KPhiAddCond
	movl	$28, %edi
	movl	$28, %esi
	xorl	%edx, %edx
	callq	_KTimestamp1
	.loc	2 64 11 discriminator 2 # memcpy.c:64:11
.Ltmp54:
	testl	%r14d, %r14d
	jne	.LBB0_11
.Ltmp55:
# BB#12:                                # %while.cond26.pre_exit.while.end36
	#DEBUG_VALUE: sha_glibc_memcpy:dstpp <- [RBP+-80]
	#DEBUG_VALUE: sha_glibc_memcpy:dstp <- [RBP+-80]
	movl	$1, %esi
	movabsq	$-8940680904077819787, %rdi # imm = 0x83EC52166652C075
	callq	_KExitRegion
	xorl	%esi, %esi
	movabsq	$7558876376309884053, %rdi # imm = 0x68E68603FF0AE495
	callq	_KExitRegion
	.loc	2 72 3                  # memcpy.c:72:3
	movq	-80(%rbp), %rax         # 8-byte Reload
	addq	$72, %rsp
	popq	%rbx
	popq	%r12
	popq	%r13
	popq	%r14
	popq	%r15
	popq	%rbp
	retq
.Ltmp56:
.Ltmp57:
	.size	sha_glibc_memcpy, .Ltmp57-sha_glibc_memcpy
.Lfunc_end0:
	.cfi_endproc

	.type	krem_prefix51946a7c8504b9b3_krem_callsiteId_krem_memcpy.c_krem_sha_glibc_memcpy_krem_56_krem_56_krem_,@object # @krem_prefix51946a7c8504b9b3_krem_callsiteId_krem_memcpy.c_krem_sha_glibc_memcpy_krem_56_krem_56_krem_
	.bss
	.globl	krem_prefix51946a7c8504b9b3_krem_callsiteId_krem_memcpy.c_krem_sha_glibc_memcpy_krem_56_krem_56_krem_
krem_prefix51946a7c8504b9b3_krem_callsiteId_krem_memcpy.c_krem_sha_glibc_memcpy_krem_56_krem_56_krem_:
	.byte	0                       # 0x0
	.size	krem_prefix51946a7c8504b9b3_krem_callsiteId_krem_memcpy.c_krem_sha_glibc_memcpy_krem_56_krem_56_krem_, 1

	.type	krem_prefix38aa26f43e9fefc0_krem_loop_body_krem_memcpy.c_krem_sha_glibc_memcpy_krem_26_krem_44_krem_,@object # @krem_prefix38aa26f43e9fefc0_krem_loop_body_krem_memcpy.c_krem_sha_glibc_memcpy_krem_26_krem_44_krem_
	.globl	krem_prefix38aa26f43e9fefc0_krem_loop_body_krem_memcpy.c_krem_sha_glibc_memcpy_krem_26_krem_44_krem_
krem_prefix38aa26f43e9fefc0_krem_loop_body_krem_memcpy.c_krem_sha_glibc_memcpy_krem_26_krem_44_krem_:
	.byte	0                       # 0x0
	.size	krem_prefix38aa26f43e9fefc0_krem_loop_body_krem_memcpy.c_krem_sha_glibc_memcpy_krem_26_krem_44_krem_, 1

	.type	krem_prefix68e68603ff0ae495_krem_func_krem_memcpy.c_krem_sha_glibc_memcpy_krem_24_krem_24_krem_,@object # @krem_prefix68e68603ff0ae495_krem_func_krem_memcpy.c_krem_sha_glibc_memcpy_krem_24_krem_24_krem_
	.globl	krem_prefix68e68603ff0ae495_krem_func_krem_memcpy.c_krem_sha_glibc_memcpy_krem_24_krem_24_krem_
krem_prefix68e68603ff0ae495_krem_func_krem_memcpy.c_krem_sha_glibc_memcpy_krem_24_krem_24_krem_:
	.byte	0                       # 0x0
	.size	krem_prefix68e68603ff0ae495_krem_func_krem_memcpy.c_krem_sha_glibc_memcpy_krem_24_krem_24_krem_, 1

	.type	krem_prefix83ec52166652c075_krem_loop_krem_memcpy.c_krem_sha_glibc_memcpy_krem_26_krem_69_krem_,@object # @krem_prefix83ec52166652c075_krem_loop_krem_memcpy.c_krem_sha_glibc_memcpy_krem_26_krem_69_krem_
	.globl	krem_prefix83ec52166652c075_krem_loop_krem_memcpy.c_krem_sha_glibc_memcpy_krem_26_krem_69_krem_
krem_prefix83ec52166652c075_krem_loop_krem_memcpy.c_krem_sha_glibc_memcpy_krem_26_krem_69_krem_:
	.byte	0                       # 0x0
	.size	krem_prefix83ec52166652c075_krem_loop_krem_memcpy.c_krem_sha_glibc_memcpy_krem_26_krem_69_krem_, 1

	.type	krem_prefixa076c39ae2c24c8b_krem_loop_body_krem_memcpy.c_krem_sha_glibc_memcpy_krem_26_krem_69_krem_,@object # @krem_prefixa076c39ae2c24c8b_krem_loop_body_krem_memcpy.c_krem_sha_glibc_memcpy_krem_26_krem_69_krem_
	.globl	krem_prefixa076c39ae2c24c8b_krem_loop_body_krem_memcpy.c_krem_sha_glibc_memcpy_krem_26_krem_69_krem_
krem_prefixa076c39ae2c24c8b_krem_loop_body_krem_memcpy.c_krem_sha_glibc_memcpy_krem_26_krem_69_krem_:
	.byte	0                       # 0x0
	.size	krem_prefixa076c39ae2c24c8b_krem_loop_body_krem_memcpy.c_krem_sha_glibc_memcpy_krem_26_krem_69_krem_, 1

	.type	krem_prefixf02c09b18d1f27a7_krem_loop_krem_memcpy.c_krem_sha_glibc_memcpy_krem_26_krem_44_krem_,@object # @krem_prefixf02c09b18d1f27a7_krem_loop_krem_memcpy.c_krem_sha_glibc_memcpy_krem_26_krem_44_krem_
	.globl	krem_prefixf02c09b18d1f27a7_krem_loop_krem_memcpy.c_krem_sha_glibc_memcpy_krem_26_krem_44_krem_
krem_prefixf02c09b18d1f27a7_krem_loop_krem_memcpy.c_krem_sha_glibc_memcpy_krem_26_krem_44_krem_:
	.byte	0                       # 0x0
	.size	krem_prefixf02c09b18d1f27a7_krem_loop_krem_memcpy.c_krem_sha_glibc_memcpy_krem_26_krem_44_krem_, 1

	.text
.Ldebug_end0:
	.section	".note.GNU-stack","",@progbits