	.text
	.file	"aes.simplifycfg.mem2reg.indvars.elimsinglephis.criticalpath.regioninstrument.renamemain.O3.bc"
	.text
	.globl	rijndael_enc_set_key
	.align	16, 0x90
	.type	rijndael_enc_set_key,@function
rijndael_enc_set_key:                   # @rijndael_enc_set_key
.Lfunc_begin0:
	.file	3 "aes.c"
	.loc	3 68 0                  # aes.c:68:0
	.cfi_startproc
# BB#0:                                 # %entry
	pushq	%rbp
.Ltmp0:
	.cfi_def_cfa_offset 16
.Ltmp1:
	.cfi_offset %rbp, -16
	movq	%rsp, %rbp
.Ltmp2:
	.cfi_def_cfa_register %rbp
	pushq	%r15
	pushq	%r14
	pushq	%r13
	pushq	%r12
	pushq	%rbx
	subq	$184, %rsp
.Ltmp3:
	.cfi_offset %rbx, -56
.Ltmp4:
	.cfi_offset %r12, -48
.Ltmp5:
	.cfi_offset %r13, -40
.Ltmp6:
	.cfi_offset %r14, -32
.Ltmp7:
	.cfi_offset %r15, -24
	#DEBUG_VALUE: rijndael_enc_set_key:in_key <- RDI
	#DEBUG_VALUE: rijndael_enc_set_key:n_bytes <- RSI
	#DEBUG_VALUE: rijndael_enc_set_key:f <- EDX
	#DEBUG_VALUE: rijndael_enc_set_key:cx <- RCX
	movq	%rcx, %r13
.Ltmp8:
	#DEBUG_VALUE: rijndael_enc_set_key:cx <- R13
	movl	%edx, %r12d
.Ltmp9:
	#DEBUG_VALUE: rijndael_enc_set_key:f <- R12D
	movq	%rsi, %r15
.Ltmp10:
	#DEBUG_VALUE: rijndael_enc_set_key:n_bytes <- R15
	movq	%rdi, %r14
.Ltmp11:
	#DEBUG_VALUE: rijndael_enc_set_key:in_key <- R14
	movabsq	$-8927125141221685978, %rdi # imm = 0x841C7AFB6405C526
	xorl	%esi, %esi
	callq	_KEnterRegion
	movl	$224, %edi
	movl	$2, %esi
	callq	_KPrepRTable
	movl	$6, %edi
	callq	_KWork
	movl	$2, %edi
	callq	_KDeqArg
	movl	$1, %edi
	callq	_KDeqArg
	.loc	3 71 8 prologue_end     # aes.c:71:8
.Ltmp12:
	leaq	-16(%r15), %rbx
	movl	$196, %edi
	movl	$1, %esi
	movl	$4, %edx
	callq	_KTimestamp1
	cmpq	$16, %rbx
	ja	.LBB0_4
.Ltmp13:
# BB#1:                                 # %entry
	#DEBUG_VALUE: rijndael_enc_set_key:in_key <- R14
	#DEBUG_VALUE: rijndael_enc_set_key:n_bytes <- R15
	#DEBUG_VALUE: rijndael_enc_set_key:f <- R12D
	#DEBUG_VALUE: rijndael_enc_set_key:cx <- R13
	.loc	3 71 10 is_stmt 0       # aes.c:71:10
	movq	%r15, %rax
	andq	$7, %rax
	jne	.LBB0_4
.Ltmp14:
# BB#2:                                 # %lor.lhs.false3
	#DEBUG_VALUE: rijndael_enc_set_key:in_key <- R14
	#DEBUG_VALUE: rijndael_enc_set_key:n_bytes <- R15
	#DEBUG_VALUE: rijndael_enc_set_key:f <- R12D
	#DEBUG_VALUE: rijndael_enc_set_key:cx <- R13
	movl	$196, %edi
	callq	_KPushCDep
	movl	$2, %edi
	callq	_KWork
	movl	$199, %edi
	movl	$2, %esi
	movl	$2, %edx
	movl	$1, %ecx
	movl	$6, %r8d
	callq	_KTimestamp2
	callq	_KPopCDep
	.loc	3 71 8                  # aes.c:71:8
	testb	$1, %r12b
	jne	.LBB0_8
.Ltmp15:
# BB#3:                                 # %land.lhs.true
	#DEBUG_VALUE: rijndael_enc_set_key:in_key <- R14
	#DEBUG_VALUE: rijndael_enc_set_key:n_bytes <- R15
	#DEBUG_VALUE: rijndael_enc_set_key:f <- R12D
	#DEBUG_VALUE: rijndael_enc_set_key:cx <- R13
	movl	$199, %edi
	callq	_KPushCDep
	movl	$2, %edi
	callq	_KWork
	movl	$223, %edi
	movl	$2, %esi
	movl	$4, %edx
	movl	$1, %ecx
	movl	$8, %r8d
	callq	_KTimestamp2
	callq	_KPopCDep
	testb	$2, %r12b
	je	.LBB0_4
.Ltmp16:
.LBB0_8:                                # %if.end
	#DEBUG_VALUE: rijndael_enc_set_key:in_key <- R14
	#DEBUG_VALUE: rijndael_enc_set_key:n_bytes <- R15
	#DEBUG_VALUE: rijndael_enc_set_key:f <- R12D
	#DEBUG_VALUE: rijndael_enc_set_key:cx <- R13
	movl	$199, %edi
	callq	_KPushCDep
	movl	$15, %edi
	callq	_KWork
	.loc	3 75 16 is_stmt 1       # aes.c:75:16
	leaq	1040(%r13), %rbx
	movq	%rbx, -112(%rbp)        # 8-byte Spill
	movl	$6, %esi
	movl	$1, %edx
	movq	%rbx, %rdi
	callq	_KLoad0
	movzbl	1040(%r13), %eax
	andl	$252, %eax
	.loc	3 75 39 is_stmt 0       # aes.c:75:39
	andl	$3, %r12d
.Ltmp17:
	.loc	3 75 14                 # aes.c:75:14
	orl	%eax, %r12d
	movl	$2, (%rsp)
	movl	$7, %edi
	movl	$2, %esi
	movl	$4, %edx
	movl	$1, %ecx
	movl	$8, %r8d
	movl	$6, %r9d
	callq	_KTimestamp3
	movl	$7, %edi
	movl	$1, %edx
	movq	%rbx, %rsi
	callq	_KStore
	.loc	3 75 3                  # aes.c:75:3
	movb	%r12b, 1040(%r13)
	.loc	3 76 14 is_stmt 1       # aes.c:76:14
	shrq	$2, %r15
.Ltmp18:
	movl	$8, %edi
	movl	$2, %esi
	movl	$3, %edx
	movl	$1, %ecx
	movl	$7, %r8d
	callq	_KTimestamp2
	movl	$8, %edi
	movl	$8, %edx
	movq	%r13, %rsi
	callq	_KStore
	.loc	3 76 3 is_stmt 0        # aes.c:76:3
	movq	%r15, (%r13)
	movl	$9, %esi
	movl	$8, %edx
	movq	%r13, %rdi
	callq	_KLoad0
	.loc	3 77 14 is_stmt 1       # aes.c:77:14
	movq	(%r13), %rbx
	movl	$7, (%rsp)
	movl	$198, %edi
	movl	$2, %esi
	movl	$3, %edx
	movl	$9, %ecx
	movl	$1, %r8d
	movl	$1, %r9d
	callq	_KTimestamp3
	callq	_KPopCDep
	xorl	%r15d, %r15d
	movl	$10, %r12d
	cmpq	$5, %rbx
	jb	.LBB0_10
.Ltmp19:
# BB#9:                                 # %cond.true26
	#DEBUG_VALUE: rijndael_enc_set_key:in_key <- R14
	#DEBUG_VALUE: rijndael_enc_set_key:cx <- R13
	movl	$198, %edi
	callq	_KPushCDep
	movl	$4, %edi
	callq	_KWork
	movl	$10, %r15d
	movl	$10, %esi
	movl	$8, %edx
	movq	%r13, %rdi
	callq	_KLoad0
	.loc	3 77 14 is_stmt 0 discriminator 1 # aes.c:77:14
	movq	(%r13), %r12
	movl	$10, %edi
	movl	$10, %esi
	xorl	%edx, %edx
	callq	_KTimestamp1
	callq	_KPopCDep
	addq	$6, %r12
.Ltmp20:
.LBB0_10:                               # %cond.end29
	#DEBUG_VALUE: rijndael_enc_set_key:in_key <- R14
	#DEBUG_VALUE: rijndael_enc_set_key:cx <- R13
	movl	$199, %edi
	callq	_KPushCDep
	movl	$12, %edi
	movl	$198, %edx
	movl	$199, %ecx
	movl	%r15d, %esi
	callq	_KPhi2To1
	movl	$38, %edi
	callq	_KWork
	.loc	3 77 3                  # aes.c:77:3
	leaq	8(%r13), %r15
	movq	%r15, -104(%rbp)        # 8-byte Spill
	movl	$1, (%rsp)
	movl	$11, %edi
	movl	$2, %esi
	movl	$3, %edx
	movl	$1, %ecx
	movl	$7, %r8d
	movl	$12, %r9d
	callq	_KTimestamp3
	movl	$11, %edi
	movl	$8, %edx
	movq	%r15, %rsi
	callq	_KStore
	movq	%r12, 8(%r13)
	movl	$13, %esi
	movl	$8, %edx
	movq	%r14, %rdi
	callq	_KLoad0
	.loc	3 79 18 is_stmt 1       # aes.c:79:18
	movq	(%r14), %r12
	.loc	3 79 3 is_stmt 0        # aes.c:79:3
	leaq	16(%r13), %rbx
.Ltmp21:
	#DEBUG_VALUE: rijndael_enc_set_key:kf <- RBX
	movq	%rbx, -96(%rbp)         # 8-byte Spill
	movl	$13, %edi
	movl	$13, %esi
	xorl	%edx, %edx
	callq	_KTimestamp1
	movl	$13, %edi
	movl	$8, %edx
	movq	%rbx, %rsi
.Ltmp22:
	#DEBUG_VALUE: rijndael_enc_set_key:kf <- [RBP+-96]
	callq	_KStore
	movq	%r12, 16(%r13)
	.loc	3 80 18 is_stmt 1       # aes.c:80:18
	leaq	4(%r14), %rdi
	movl	$14, %esi
	movl	$8, %edx
	callq	_KLoad0
	movq	4(%r14), %r12
	.loc	3 80 3 is_stmt 0        # aes.c:80:3
	leaq	24(%r13), %rbx
.Ltmp23:
	#DEBUG_VALUE: rijndael_enc_set_key:kf <- RBX
	movq	%rbx, -128(%rbp)        # 8-byte Spill
	movl	$14, %edi
	movl	$14, %esi
	xorl	%edx, %edx
	callq	_KTimestamp1
	movl	$14, %edi
	movl	$8, %edx
	movq	%rbx, %rsi
.Ltmp24:
	#DEBUG_VALUE: rijndael_enc_set_key:kf <- [RBP+-128]
	callq	_KStore
	movq	%r12, 24(%r13)
	.loc	3 81 18 is_stmt 1       # aes.c:81:18
	leaq	8(%r14), %rdi
	movl	$15, %esi
	movl	$8, %edx
	callq	_KLoad0
	movq	8(%r14), %r12
	.loc	3 81 3 is_stmt 0        # aes.c:81:3
	leaq	32(%r13), %rbx
.Ltmp25:
	#DEBUG_VALUE: rijndael_enc_set_key:kf <- RBX
	movq	%rbx, -136(%rbp)        # 8-byte Spill
	movl	$15, %edi
	movl	$15, %esi
	xorl	%edx, %edx
	callq	_KTimestamp1
	movl	$15, %edi
	movl	$8, %edx
	movq	%rbx, %rsi
.Ltmp26:
	#DEBUG_VALUE: rijndael_enc_set_key:kf <- [RBP+-136]
	callq	_KStore
	movq	%r12, 32(%r13)
	.loc	3 82 18 is_stmt 1       # aes.c:82:18
	leaq	12(%r14), %rdi
	movl	$16, %esi
	movl	$8, %edx
	callq	_KLoad0
	movq	12(%r14), %r12
	.loc	3 82 3 is_stmt 0        # aes.c:82:3
	leaq	40(%r13), %rbx
.Ltmp27:
	#DEBUG_VALUE: rijndael_enc_set_key:kf <- RBX
	movq	%rbx, -144(%rbp)        # 8-byte Spill
	movl	$16, %edi
	movl	$16, %esi
	xorl	%edx, %edx
	callq	_KTimestamp1
	movl	$16, %edi
	movl	$8, %edx
	movq	%rbx, %rsi
.Ltmp28:
	#DEBUG_VALUE: rijndael_enc_set_key:kf <- [RBP+-144]
	callq	_KStore
	movq	%r12, 40(%r13)
	movl	$17, %esi
	movl	$8, %edx
	movq	%r15, %rdi
	callq	_KLoad0
	.loc	3 85 20 is_stmt 1       # aes.c:85:20
	movq	8(%r13), %rax
	.loc	3 85 13 is_stmt 0       # aes.c:85:13
	leaq	4(,%rax,4), %rbx
	movl	$18, %esi
	movl	$8, %edx
	movq	%r13, %rdi
	callq	_KLoad0
	.loc	3 85 8                  # aes.c:85:8
	subq	(%r13), %rbx
	leaq	16(%r13,%rbx,8), %rax
.Ltmp29:
	#DEBUG_VALUE: rijndael_enc_set_key:rci <- 0
	#DEBUG_VALUE: rijndael_enc_set_key:kt <- [RBP+-48]
	movq	%rax, -48(%rbp)         # 8-byte Spill
	movl	$19, %esi
	movl	$8, %edx
	movq	%r13, %rdi
	callq	_KLoad0
	.loc	3 88 12 is_stmt 1       # aes.c:88:12
	movq	(%r13), %r15
	movl	$19, %edi
	movl	$19, %esi
	xorl	%edx, %edx
	callq	_KTimestamp1
	movl	$9, 32(%rsp)
	movl	$1, 24(%rsp)
	movl	$1, 16(%rsp)
	movl	$18, 8(%rsp)
	movl	$3, (%rsp)
	movl	$205, %edi
	movl	$2, %esi
	movl	$5, %edx
	movl	$203, %ecx
	xorl	%r8d, %r8d
	movl	$17, %r9d
	callq	_KTimestamp5
	movl	$6, (%rsp)
	movq	%r14, %rbx
.Ltmp30:
	#DEBUG_VALUE: rijndael_enc_set_key:in_key <- RBX
	movl	$202, %r14d
	movl	$202, %edi
	movl	$2, %esi
	movl	$2, %edx
	movl	$203, %ecx
	xorl	%r8d, %r8d
	movl	$1, %r9d
	callq	_KTimestamp3
	callq	_KPopCDep
	.loc	3 88 3 is_stmt 0        # aes.c:88:3
	cmpq	$8, %r15
	je	.LBB0_19
.Ltmp31:
# BB#11:                                # %cond.end29
	#DEBUG_VALUE: rijndael_enc_set_key:in_key <- RBX
	#DEBUG_VALUE: rijndael_enc_set_key:cx <- R13
	#DEBUG_VALUE: rijndael_enc_set_key:kf <- [RBP+-144]
	#DEBUG_VALUE: rijndael_enc_set_key:kt <- [RBP+-48]
	#DEBUG_VALUE: rijndael_enc_set_key:rci <- 0
	movq	%r13, %r14
.Ltmp32:
	#DEBUG_VALUE: rijndael_enc_set_key:cx <- R14
	cmpq	$6, %r15
	jne	.LBB0_12
.Ltmp33:
# BB#16:                                # %sw.bb87
	#DEBUG_VALUE: rijndael_enc_set_key:in_key <- RBX
	#DEBUG_VALUE: rijndael_enc_set_key:cx <- R14
	#DEBUG_VALUE: rijndael_enc_set_key:kf <- [RBP+-144]
	#DEBUG_VALUE: rijndael_enc_set_key:kt <- [RBP+-48]
	#DEBUG_VALUE: rijndael_enc_set_key:rci <- 0
	movabsq	$-3180599755105944445, %r13 # imm = 0xD3DC3D5FD0373C83
	movl	$19, %edi
	callq	_KPushCDep
	movl	$10, %edi
	callq	_KWork
	.loc	3 101 22 is_stmt 1      # aes.c:101:22
.Ltmp34:
	leaq	16(%rbx), %rdi
	movl	$44, %esi
	movl	$8, %edx
	callq	_KLoad0
	movq	16(%rbx), %r15
	movq	%r14, %r12
.Ltmp35:
	#DEBUG_VALUE: rijndael_enc_set_key:cx <- R12
	.loc	3 101 7 is_stmt 0       # aes.c:101:7
	leaq	48(%r12), %r14
	movl	$44, %edi
	movl	$44, %esi
	xorl	%edx, %edx
	callq	_KTimestamp1
	movl	$44, %edi
	movl	$8, %edx
	movq	%r14, %rsi
	callq	_KStore
	movq	%r15, 48(%r12)
	.loc	3 102 22 is_stmt 1      # aes.c:102:22
	leaq	20(%rbx), %rdi
	movl	$45, %esi
	movl	$8, %edx
	callq	_KLoad0
	movq	20(%rbx), %r14
	.loc	3 102 7 is_stmt 0       # aes.c:102:7
	leaq	56(%r12), %rbx
.Ltmp36:
	movl	$45, %edi
	movl	$45, %esi
	xorl	%edx, %edx
	callq	_KTimestamp1
	movl	$45, %edi
	movl	$8, %edx
	movq	%rbx, %rsi
	callq	_KStore
	movq	%r14, 56(%r12)
	movq	%r12, -120(%rbp)        # 8-byte Spill
.Ltmp37:
	#DEBUG_VALUE: rijndael_enc_set_key:cx <- [RBP+-120]
	movl	$210, %edi
	callq	_KInduction
	callq	_KPopCDep
	movl	$1, %esi
	movq	%r13, %rdi
	callq	_KEnterRegion
	movl	$rijndael_enc_rcon_tab, %eax
	movq	%rax, -56(%rbp)         # 8-byte Spill
	movl	$202, %r15d
	movabsq	$-303181523279607591, %r12 # imm = 0xFBCAE202CA7508D9
	movq	-96(%rbp), %rbx         # 8-byte Reload
	.align	16, 0x90
.LBB0_17:                               # %do.body94
                                        # =>This Inner Loop Header: Depth=1
	#DEBUG_VALUE: rijndael_enc_set_key:cx <- [RBP+-120]
	#DEBUG_VALUE: rijndael_enc_set_key:kf <- [RBP+-144]
	#DEBUG_VALUE: rijndael_enc_set_key:kt <- [RBP+-48]
	#DEBUG_VALUE: rijndael_enc_set_key:rci <- 0
	movl	$2, %esi
	movq	%r12, %rdi
	callq	_KEnterRegion
	movl	$19, %edi
	callq	_KPushCDep
	movl	$207, %edi
	movl	$19, %edx
	movl	%r15d, %esi
	callq	_KPhi1To1
	movl	$46, %esi
	movl	$8, %edx
	movq	%rbx, %rdi
	callq	_KLoad0
	movl	$101, %edi
	callq	_KWork
	.loc	3 105 18 is_stmt 1      # aes.c:105:18
.Ltmp38:
	movq	(%rbx), %r13
	leaq	40(%rbx), %rdi
	movq	%rdi, -64(%rbp)         # 8-byte Spill
	movl	$47, %esi
	movl	$8, %edx
	movq	%rdi, %r14
	callq	_KLoad0
	.loc	3 105 26 is_stmt 0      # aes.c:105:26
	movq	40(%rbx), %rax
	movzbl	%ah, %eax  # NOREX
	movq	%rax, -72(%rbp)         # 8-byte Spill
	leaq	rijndael_enc_fl_tab(,%rax,8), %rdi
	movl	$48, %esi
	movl	$49, %edx
	movl	$8, %ecx
	callq	_KLoad1
	movl	$50, %esi
	movl	$8, %edx
	movq	%r14, %rdi
	movq	%r14, %r15
	callq	_KLoad0
	movq	40(%rbx), %r14
	shrq	$13, %r14
	andq	$2040, %r14             # imm = 0x7F8
	leaq	rijndael_enc_fl_tab+2048(%r14), %rdi
	movl	$51, %esi
	movl	$52, %edx
	movl	$8, %ecx
	callq	_KLoad1
	movl	$53, %esi
	movl	$8, %edx
	movq	%r15, %rdi
	callq	_KLoad0
	movq	40(%rbx), %r12
	shrq	$21, %r12
	andq	$2040, %r12             # imm = 0x7F8
	leaq	rijndael_enc_fl_tab+4096(%r12), %rdi
	movl	$54, %esi
	movl	$55, %edx
	movl	$8, %ecx
	callq	_KLoad1
	movl	$56, %esi
	movl	$8, %edx
	movq	%r15, %rdi
	callq	_KLoad0
	movzbl	40(%rbx), %eax
	movq	%rax, -80(%rbp)         # 8-byte Spill
	leaq	rijndael_enc_fl_tab+6144(,%rax,8), %rdi
	movl	$57, %esi
	movl	$58, %edx
	movl	$8, %ecx
	callq	_KLoad1
	movl	$59, %esi
	movl	$8, %edx
	movq	-56(%rbp), %r15         # 8-byte Reload
	movq	%r15, %rdi
	callq	_KLoad0
	movq	-72(%rbp), %rax         # 8-byte Reload
	xorq	rijndael_enc_fl_tab(,%rax,8), %r13
	xorq	rijndael_enc_fl_tab+2048(%r14), %r13
	xorq	rijndael_enc_fl_tab+4096(%r12), %r13
	.loc	3 105 18                # aes.c:105:18
	movq	-80(%rbp), %rax         # 8-byte Reload
	xorq	rijndael_enc_fl_tab+6144(,%rax,8), %r13
	xorq	(%r15), %r13
	movl	$1, 64(%rsp)
	movl	$59, 56(%rsp)
	movl	$3, 48(%rsp)
	movl	$57, 40(%rsp)
	movl	$4, 32(%rsp)
	movl	$54, 24(%rsp)
	movl	$5, 16(%rsp)
	movl	$51, 8(%rsp)
	movl	$5, (%rsp)
	movl	$60, %edi
	movl	$19, %esi
	movl	$5, %edx
	movl	$46, %ecx
	movl	$2, %r8d
	movl	$48, %r9d
	callq	_KTimestamp7
	leaq	48(%rbx), %r14
	movl	$60, %edi
	movl	$8, %edx
	movq	%r14, %rsi
	callq	_KStore
	.loc	3 105 9                 # aes.c:105:9
	movq	%r13, 48(%rbx)
	leaq	8(%rbx), %rdi
	movl	$61, %esi
	movl	$8, %edx
	callq	_KLoad0
	.loc	3 106 18 is_stmt 1      # aes.c:106:18
	movq	8(%rbx), %r15
	movl	$62, %esi
	movl	$8, %edx
	movq	%r14, %rdi
	callq	_KLoad0
	xorq	48(%rbx), %r15
	movl	$1, (%rsp)
	movl	$63, %edi
	movl	$19, %esi
	movl	$1, %edx
	movl	$61, %ecx
	movl	$1, %r8d
	movl	$62, %r9d
	callq	_KTimestamp3
	leaq	56(%rbx), %r13
	movl	$63, %edi
	movl	$8, %edx
	movq	%r13, %rsi
	callq	_KStore
	.loc	3 106 9 is_stmt 0       # aes.c:106:9
	movq	%r15, 56(%rbx)
	leaq	16(%rbx), %rdi
	movl	$64, %esi
	movl	$8, %edx
	callq	_KLoad0
	.loc	3 107 18 is_stmt 1      # aes.c:107:18
	movq	16(%rbx), %r15
	movl	$65, %esi
	movl	$8, %edx
	movq	%r13, %rdi
	callq	_KLoad0
	xorq	56(%rbx), %r15
	movl	$1, (%rsp)
	movl	$66, %edi
	movl	$19, %esi
	movl	$1, %edx
	movl	$64, %ecx
	movl	$1, %r8d
	movl	$65, %r9d
	callq	_KTimestamp3
	leaq	64(%rbx), %r13
	movl	$66, %edi
	movl	$8, %edx
	movq	%r13, %rsi
	callq	_KStore
	.loc	3 107 9 is_stmt 0       # aes.c:107:9
	movq	%r15, 64(%rbx)
	leaq	24(%rbx), %rdi
	movl	$67, %esi
	movl	$8, %edx
	callq	_KLoad0
	.loc	3 108 18 is_stmt 1      # aes.c:108:18
	movq	24(%rbx), %r15
	movl	$68, %esi
	movl	$8, %edx
	movq	%r13, %rdi
	callq	_KLoad0
	xorq	64(%rbx), %r15
	movl	$1, (%rsp)
	movl	$69, %edi
	movl	$19, %esi
	movl	$1, %edx
	movl	$67, %ecx
	movl	$1, %r8d
	movl	$68, %r9d
	callq	_KTimestamp3
	leaq	72(%rbx), %r13
	movl	$69, %edi
	movl	$8, %edx
	movq	%r13, %rsi
	callq	_KStore
	.loc	3 108 9 is_stmt 0       # aes.c:108:9
	movq	%r15, 72(%rbx)
	leaq	32(%rbx), %rdi
	movl	$70, %esi
	movl	$8, %edx
	callq	_KLoad0
	.loc	3 109 18 is_stmt 1      # aes.c:109:18
	movq	32(%rbx), %r15
	movl	$71, %esi
	movl	$8, %edx
	movq	%r13, %rdi
	callq	_KLoad0
	xorq	72(%rbx), %r15
	movl	$1, (%rsp)
	movl	$72, %edi
	movl	$19, %esi
	movl	$1, %edx
	movl	$70, %ecx
	movl	$1, %r8d
	movl	$71, %r9d
	callq	_KTimestamp3
	leaq	80(%rbx), %r13
	movl	$72, %edi
	movl	$8, %edx
	movq	%r13, %rsi
	callq	_KStore
	.loc	3 109 9 is_stmt 0       # aes.c:109:9
	movq	%r15, 80(%rbx)
	movl	$73, %esi
	movl	$8, %edx
	movq	-64(%rbp), %rdi         # 8-byte Reload
	callq	_KLoad0
	.loc	3 110 18 is_stmt 1      # aes.c:110:18
	movq	40(%rbx), %r15
	movl	$74, %esi
	movl	$8, %edx
	movq	%r13, %rdi
	callq	_KLoad0
	xorq	80(%rbx), %r15
	movl	$1, (%rsp)
	movl	$75, %edi
	movl	$19, %esi
	movl	$1, %edx
	movl	$73, %ecx
	movl	$1, %r8d
	movl	$74, %r9d
	callq	_KTimestamp3
	leaq	88(%rbx), %rsi
	movl	$75, %edi
	movl	$8, %edx
	callq	_KStore
	.loc	3 110 9 is_stmt 0       # aes.c:110:9
	movq	%r15, 88(%rbx)
	movl	$1, (%rsp)
	movl	$209, %edi
	movl	$205, %esi
	movl	$1, %edx
	movl	$19, %ecx
	movl	$1, %r8d
	movl	$207, %r9d
	callq	_KTimestamp3
	movl	$207, %edi
	movl	$209, %esi
	callq	_KPhiAddCond
	movl	$208, %r15d
	movl	$208, %edi
	movl	$19, %esi
	xorl	%edx, %edx
	movl	$207, %ecx
	xorl	%r8d, %r8d
	callq	_KTimestamp2
	callq	_KPopCDep
	movl	$2, %esi
	movabsq	$-303181523279607591, %rdi # imm = 0xFBCAE202CA7508D9
	movq	%rdi, %r12
	callq	_KExitRegion
.Ltmp39:
	.loc	3 112 17 is_stmt 1      # aes.c:112:17
	addq	$8, -56(%rbp)           # 8-byte Folded Spill
	cmpq	-48(%rbp), %r14         # 8-byte Folded Reload
	movq	%r14, %rbx
	.loc	3 112 7 is_stmt 0       # aes.c:112:7
.Ltmp40:
	jb	.LBB0_17
.Ltmp41:
# BB#18:                                # %do.body94.pre_exit.sw.epilog.loopexit1
	#DEBUG_VALUE: rijndael_enc_set_key:cx <- [RBP+-120]
	#DEBUG_VALUE: rijndael_enc_set_key:kf <- [RBP+-144]
	#DEBUG_VALUE: rijndael_enc_set_key:rci <- 0
	movl	$1, %esi
	movabsq	$-3180599755105944445, %rdi # imm = 0xD3DC3D5FD0373C83
	jmp	.LBB0_22
.LBB0_4:                                # %if.then
.Ltmp42:
	#DEBUG_VALUE: rijndael_enc_set_key:n_bytes <- R15
	#DEBUG_VALUE: rijndael_enc_set_key:cx <- R13
	movl	$196, %edi
	callq	_KPushCDep
	movl	$1, %edi
	callq	_KWork
	movl	$197, %edi
	movl	$1, %esi
	movl	$5, %edx
	callq	_KTimestamp1
	callq	_KPopCDep
	movl	$197, %edi
	callq	_KPushCDep
	.loc	3 73 14 is_stmt 1       # aes.c:73:14
.Ltmp43:
	testq	%r15, %r15
	je	.LBB0_6
.Ltmp44:
# BB#5:                                 # %cond.true
	#DEBUG_VALUE: rijndael_enc_set_key:cx <- R13
	movl	$6, %edi
	callq	_KWork
	.loc	3 73 24 is_stmt 0 discriminator 1 # aes.c:73:24
	leaq	1040(%r13), %r14
	movl	$3, %esi
	movl	$1, %edx
	movq	%r14, %rdi
	callq	_KLoad0
	movb	1040(%r13), %bl
	andb	$-4, %bl
	movl	$4, %edi
	movl	$1, %esi
	movl	$6, %edx
	movl	$3, %ecx
	movl	$1, %r8d
	callq	_KTimestamp2
	movl	$4, %edi
	movl	$1, %edx
	movq	%r14, %rsi
	callq	_KStore
	movb	%bl, 1040(%r13)
	callq	_KPopCDep
	xorl	%ebx, %ebx
	xorl	%r14d, %r14d
	jmp	.LBB0_7
.Ltmp45:
.LBB0_6:                                # %cond.false
	#DEBUG_VALUE: rijndael_enc_set_key:cx <- R13
	movl	$5, %edi
	callq	_KWork
	movl	$5, %esi
	movl	$8, %edx
	movq	%r13, %rdi
	callq	_KLoad0
	.loc	3 73 66 discriminator 2 # aes.c:73:66
	movzwl	(%r13), %r14d
	shll	$2, %r14d
	movl	$195, %ebx
	movl	$195, %edi
	movl	$1, %esi
	movl	$6, %edx
	movl	$5, %ecx
	movl	$1, %r8d
	callq	_KTimestamp2
	callq	_KPopCDep
.Ltmp46:
.LBB0_7:                                # %cond.end
	movabsq	$-8927125141221685978, %r12 # imm = 0x841C7AFB6405C526
	movl	$196, %edi
	callq	_KPushCDep
	movl	$194, %edi
	movl	$196, %edx
	movl	$197, %ecx
	movl	%ebx, %esi
	callq	_KPhi2To1
	movl	$222, %ebx
	xorl	%r15d, %r15d
	movl	$222, %edi
	movl	$1, %esi
	movl	$4, %edx
	movl	$194, %ecx
	xorl	%r8d, %r8d
	callq	_KTimestamp2
	callq	_KPopCDep
	jmp	.LBB0_29
.LBB0_19:                               # %sw.bb149
.Ltmp47:
	#DEBUG_VALUE: rijndael_enc_set_key:in_key <- RBX
	#DEBUG_VALUE: rijndael_enc_set_key:cx <- R13
	#DEBUG_VALUE: rijndael_enc_set_key:kf <- [RBP+-144]
	#DEBUG_VALUE: rijndael_enc_set_key:kt <- [RBP+-48]
	#DEBUG_VALUE: rijndael_enc_set_key:rci <- 0
	movl	$19, %edi
	callq	_KPushCDep
	movl	$20, %edi
	callq	_KWork
	.loc	3 116 22 is_stmt 1      # aes.c:116:22
.Ltmp48:
	leaq	16(%rbx), %rdi
	movl	$76, %esi
	movl	$8, %edx
	callq	_KLoad0
	movq	%r13, -120(%rbp)        # 8-byte Spill
	movq	16(%rbx), %r12
	.loc	3 116 7 is_stmt 0       # aes.c:116:7
	leaq	48(%r13), %r15
	movl	$76, %edi
	movl	$76, %esi
	xorl	%edx, %edx
	callq	_KTimestamp1
	movl	$76, %edi
	movl	$8, %edx
	movq	%r15, %rsi
	callq	_KStore
	movq	%r12, 48(%r13)
	.loc	3 117 22 is_stmt 1      # aes.c:117:22
	leaq	20(%rbx), %rdi
	movl	$77, %esi
	movl	$8, %edx
	callq	_KLoad0
	movq	20(%rbx), %r12
	.loc	3 117 7 is_stmt 0       # aes.c:117:7
	leaq	56(%r13), %r15
	movl	$77, %edi
	movl	$77, %esi
	xorl	%edx, %edx
	callq	_KTimestamp1
	movl	$77, %edi
	movl	$8, %edx
	movq	%r15, %rsi
	callq	_KStore
	movq	%r12, 56(%r13)
	.loc	3 118 22 is_stmt 1      # aes.c:118:22
	leaq	24(%rbx), %rdi
	movl	$78, %esi
	movl	$8, %edx
	callq	_KLoad0
	movq	24(%rbx), %r12
	.loc	3 118 7 is_stmt 0       # aes.c:118:7
	leaq	64(%r13), %r15
	movl	$78, %edi
	movl	$78, %esi
	xorl	%edx, %edx
	callq	_KTimestamp1
	movl	$78, %edi
	movl	$8, %edx
	movq	%r15, %rsi
	callq	_KStore
	movq	%r12, 64(%r13)
	.loc	3 119 22 is_stmt 1      # aes.c:119:22
	leaq	28(%rbx), %rdi
	movl	$79, %esi
	movl	$8, %edx
	callq	_KLoad0
	movq	28(%rbx), %r15
	.loc	3 119 7 is_stmt 0       # aes.c:119:7
	leaq	72(%r13), %rbx
.Ltmp49:
	movl	$79, %edi
	movl	$79, %esi
	xorl	%edx, %edx
	callq	_KTimestamp1
	movl	$79, %edi
	movl	$8, %edx
	movq	%rbx, %rsi
	callq	_KStore
	movq	%r15, 72(%r13)
.Ltmp50:
	#DEBUG_VALUE: rijndael_enc_set_key:cx <- [RBP+-120]
	movl	$214, %edi
	callq	_KInduction
	callq	_KPopCDep
	movl	$1, %esi
	movabsq	$-1589256187517027446, %rdi # imm = 0xE9F1D3EAEDF4BB8A
	callq	_KEnterRegion
	movl	$rijndael_enc_rcon_tab, %eax
	movq	%rax, -56(%rbp)         # 8-byte Spill
	movabsq	$-8708625986013619868, %rbx # imm = 0x8724BECE55EC1964
	movq	-96(%rbp), %r12         # 8-byte Reload
	.align	16, 0x90
.LBB0_20:                               # %do.body162
                                        # =>This Inner Loop Header: Depth=1
	#DEBUG_VALUE: rijndael_enc_set_key:cx <- [RBP+-120]
	#DEBUG_VALUE: rijndael_enc_set_key:kf <- [RBP+-144]
	#DEBUG_VALUE: rijndael_enc_set_key:kt <- [RBP+-48]
	#DEBUG_VALUE: rijndael_enc_set_key:rci <- 0
	movl	$2, %esi
	movq	%rbx, %rdi
	callq	_KEnterRegion
	movl	$19, %edi
	callq	_KPushCDep
	movl	$211, %edi
	movl	$19, %edx
	movl	%r14d, %esi
	callq	_KPhi1To1
	movl	$80, %esi
	movl	$8, %edx
	movq	%r12, %rdi
	callq	_KLoad0
	movl	$156, %edi
	callq	_KWork
	.loc	3 122 18 is_stmt 1      # aes.c:122:18
.Ltmp51:
	movq	(%r12), %r14
	leaq	56(%r12), %rdi
	movq	%rdi, -64(%rbp)         # 8-byte Spill
	movl	$81, %esi
	movl	$8, %edx
	movq	%rdi, %rbx
	callq	_KLoad0
	.loc	3 122 26 is_stmt 0      # aes.c:122:26
	movq	56(%r12), %rax
	movzbl	%ah, %eax  # NOREX
	movq	%rax, -72(%rbp)         # 8-byte Spill
	leaq	rijndael_enc_fl_tab(,%rax,8), %rdi
	movl	$82, %esi
	movl	$83, %edx
	movl	$8, %ecx
	callq	_KLoad1
	movl	$84, %esi
	movl	$8, %edx
	movq	%rbx, %rdi
	callq	_KLoad0
	movq	56(%r12), %r13
	shrq	$13, %r13
	andq	$2040, %r13             # imm = 0x7F8
	leaq	rijndael_enc_fl_tab+2048(%r13), %rdi
	movl	$85, %esi
	movl	$86, %edx
	movl	$8, %ecx
	callq	_KLoad1
	movl	$87, %esi
	movl	$8, %edx
	movq	%rbx, %rdi
	movq	%rbx, %r15
	callq	_KLoad0
	movq	56(%r12), %rbx
	shrq	$21, %rbx
	andq	$2040, %rbx             # imm = 0x7F8
	leaq	rijndael_enc_fl_tab+4096(%rbx), %rdi
	movl	$88, %esi
	movl	$89, %edx
	movl	$8, %ecx
	callq	_KLoad1
	movl	$90, %esi
	movl	$8, %edx
	movq	%r15, %rdi
	callq	_KLoad0
	movzbl	56(%r12), %eax
	movq	%rax, -80(%rbp)         # 8-byte Spill
	leaq	rijndael_enc_fl_tab+6144(,%rax,8), %rdi
	movl	$91, %esi
	movl	$92, %edx
	movl	$8, %ecx
	callq	_KLoad1
	movl	$93, %esi
	movl	$8, %edx
	movq	-56(%rbp), %r15         # 8-byte Reload
	movq	%r15, %rdi
	callq	_KLoad0
	movq	-72(%rbp), %rax         # 8-byte Reload
	xorq	rijndael_enc_fl_tab(,%rax,8), %r14
	xorq	rijndael_enc_fl_tab+2048(%r13), %r14
	xorq	rijndael_enc_fl_tab+4096(%rbx), %r14
	.loc	3 122 18                # aes.c:122:18
	movq	-80(%rbp), %rax         # 8-byte Reload
	xorq	rijndael_enc_fl_tab+6144(,%rax,8), %r14
	xorq	(%r15), %r14
	movl	$1, 64(%rsp)
	movl	$93, 56(%rsp)
	movl	$3, 48(%rsp)
	movl	$91, 40(%rsp)
	movl	$4, 32(%rsp)
	movl	$88, 24(%rsp)
	movl	$5, 16(%rsp)
	movl	$85, 8(%rsp)
	movl	$5, (%rsp)
	movl	$94, %edi
	movl	$19, %esi
	movl	$5, %edx
	movl	$80, %ecx
	movl	$2, %r8d
	movl	$82, %r9d
	callq	_KTimestamp7
	leaq	64(%r12), %rsi
	movq	%rsi, -72(%rbp)         # 8-byte Spill
	movl	$94, %edi
	movl	$8, %edx
	movq	%rsi, %r15
	callq	_KStore
	.loc	3 122 9                 # aes.c:122:9
	movq	%r14, 64(%r12)
	leaq	8(%r12), %rdi
	movl	$95, %esi
	movl	$8, %edx
	callq	_KLoad0
	.loc	3 123 18 is_stmt 1      # aes.c:123:18
	movq	8(%r12), %rbx
	movl	$96, %esi
	movl	$8, %edx
	movq	%r15, %rdi
	callq	_KLoad0
	xorq	64(%r12), %rbx
	movl	$1, (%rsp)
	movl	$97, %edi
	movl	$19, %esi
	movl	$1, %edx
	movl	$95, %ecx
	movl	$1, %r8d
	movl	$96, %r9d
	callq	_KTimestamp3
	leaq	72(%r12), %r14
	movl	$97, %edi
	movl	$8, %edx
	movq	%r14, %rsi
	callq	_KStore
	.loc	3 123 9 is_stmt 0       # aes.c:123:9
	movq	%rbx, 72(%r12)
	leaq	16(%r12), %rdi
	movl	$98, %esi
	movl	$8, %edx
	callq	_KLoad0
	.loc	3 124 18 is_stmt 1      # aes.c:124:18
	movq	16(%r12), %rbx
	movl	$99, %esi
	movl	$8, %edx
	movq	%r14, %rdi
	callq	_KLoad0
	xorq	72(%r12), %rbx
	movl	$1, (%rsp)
	movl	$100, %edi
	movl	$19, %esi
	movl	$1, %edx
	movl	$98, %ecx
	movl	$1, %r8d
	movl	$99, %r9d
	callq	_KTimestamp3
	leaq	80(%r12), %r14
	movl	$100, %edi
	movl	$8, %edx
	movq	%r14, %rsi
	callq	_KStore
	.loc	3 124 9 is_stmt 0       # aes.c:124:9
	movq	%rbx, 80(%r12)
	leaq	24(%r12), %rdi
	movl	$101, %esi
	movl	$8, %edx
	callq	_KLoad0
	.loc	3 125 18 is_stmt 1      # aes.c:125:18
	movq	24(%r12), %rbx
	movl	$102, %esi
	movl	$8, %edx
	movq	%r14, %rdi
	callq	_KLoad0
	xorq	80(%r12), %rbx
	movl	$1, (%rsp)
	movl	$103, %edi
	movl	$19, %esi
	movl	$1, %edx
	movl	$101, %ecx
	movl	$1, %r8d
	movl	$102, %r9d
	callq	_KTimestamp3
	leaq	88(%r12), %r13
	movl	$103, %edi
	movl	$8, %edx
	movq	%r13, %rsi
	callq	_KStore
	.loc	3 125 9 is_stmt 0       # aes.c:125:9
	movq	%rbx, 88(%r12)
	leaq	32(%r12), %rdi
	movl	$104, %esi
	movl	$8, %edx
	callq	_KLoad0
	.loc	3 126 18 is_stmt 1      # aes.c:126:18
	movq	32(%r12), %r14
	movl	$105, %esi
	movl	$8, %edx
	movq	%r13, %rdi
	callq	_KLoad0
	.loc	3 126 26 is_stmt 0      # aes.c:126:26
	movzbl	88(%r12), %eax
	movq	%rax, -80(%rbp)         # 8-byte Spill
	leaq	rijndael_enc_fl_tab(,%rax,8), %rdi
	movl	$106, %esi
	movl	$107, %edx
	movl	$8, %ecx
	callq	_KLoad1
	movl	$108, %esi
	movl	$8, %edx
	movq	%r13, %rdi
	callq	_KLoad0
	movq	88(%r12), %rax
	movzbl	%ah, %eax  # NOREX
	movq	%rax, -88(%rbp)         # 8-byte Spill
	leaq	rijndael_enc_fl_tab+2048(,%rax,8), %rdi
	movl	$109, %esi
	movl	$110, %edx
	movl	$8, %ecx
	callq	_KLoad1
	movl	$111, %esi
	movl	$8, %edx
	movq	%r13, %rdi
	callq	_KLoad0
	movq	88(%r12), %r15
	shrq	$13, %r15
	andq	$2040, %r15             # imm = 0x7F8
	leaq	rijndael_enc_fl_tab+4096(%r15), %rdi
	movl	$112, %esi
	movl	$113, %edx
	movl	$8, %ecx
	callq	_KLoad1
	movl	$114, %esi
	movl	$8, %edx
	movq	%r13, %rdi
	callq	_KLoad0
	movq	88(%r12), %rbx
	shrq	$21, %rbx
	andq	$2040, %rbx             # imm = 0x7F8
	leaq	rijndael_enc_fl_tab+6144(%rbx), %rdi
	movl	$115, %esi
	movl	$116, %edx
	movl	$8, %ecx
	callq	_KLoad1
	movq	-80(%rbp), %rax         # 8-byte Reload
	xorq	rijndael_enc_fl_tab(,%rax,8), %r14
	movq	-88(%rbp), %rax         # 8-byte Reload
	xorq	rijndael_enc_fl_tab+2048(,%rax,8), %r14
	xorq	rijndael_enc_fl_tab+4096(%r15), %r14
	.loc	3 126 18                # aes.c:126:18
	xorq	rijndael_enc_fl_tab+6144(%rbx), %r14
	movl	$2, 48(%rsp)
	movl	$115, 40(%rsp)
	movl	$3, 32(%rsp)
	movl	$112, 24(%rsp)
	movl	$4, 16(%rsp)
	movl	$109, 8(%rsp)
	movl	$4, (%rsp)
	movl	$117, %edi
	movl	$19, %esi
	movl	$4, %edx
	movl	$104, %ecx
	movl	$1, %r8d
	movl	$106, %r9d
	callq	_KTimestamp6
	leaq	96(%r12), %r13
	movl	$117, %edi
	movl	$8, %edx
	movq	%r13, %rsi
	callq	_KStore
	.loc	3 126 9                 # aes.c:126:9
	movq	%r14, 96(%r12)
	leaq	40(%r12), %rdi
	movl	$118, %esi
	movl	$8, %edx
	callq	_KLoad0
	.loc	3 127 18 is_stmt 1      # aes.c:127:18
	movq	40(%r12), %rbx
	movl	$119, %esi
	movl	$8, %edx
	movq	%r13, %rdi
	callq	_KLoad0
	xorq	96(%r12), %rbx
	movl	$1, (%rsp)
	movl	$120, %edi
	movl	$19, %esi
	movl	$1, %edx
	movl	$118, %ecx
	movl	$1, %r8d
	movl	$119, %r9d
	callq	_KTimestamp3
	leaq	104(%r12), %r14
	movl	$120, %edi
	movl	$8, %edx
	movq	%r14, %rsi
	callq	_KStore
	.loc	3 127 9 is_stmt 0       # aes.c:127:9
	movq	%rbx, 104(%r12)
	leaq	48(%r12), %rdi
	movl	$121, %esi
	movl	$8, %edx
	callq	_KLoad0
	.loc	3 128 18 is_stmt 1      # aes.c:128:18
	movq	48(%r12), %rbx
	movl	$122, %esi
	movl	$8, %edx
	movq	%r14, %rdi
	callq	_KLoad0
	xorq	104(%r12), %rbx
	movl	$1, (%rsp)
	movl	$123, %edi
	movl	$19, %esi
	movl	$1, %edx
	movl	$121, %ecx
	movl	$1, %r8d
	movl	$122, %r9d
	callq	_KTimestamp3
	leaq	112(%r12), %r14
	movl	$123, %edi
	movl	$8, %edx
	movq	%r14, %rsi
	callq	_KStore
	.loc	3 128 9 is_stmt 0       # aes.c:128:9
	movq	%rbx, 112(%r12)
	movl	$124, %esi
	movl	$8, %edx
	movq	-64(%rbp), %rdi         # 8-byte Reload
	callq	_KLoad0
	.loc	3 129 18 is_stmt 1      # aes.c:129:18
	movq	56(%r12), %rbx
	movl	$125, %esi
	movl	$8, %edx
	movq	%r14, %rdi
	callq	_KLoad0
	xorq	112(%r12), %rbx
	movl	$1, (%rsp)
	movl	$126, %edi
	movl	$19, %esi
	movl	$1, %edx
	movl	$124, %ecx
	movl	$1, %r8d
	movl	$125, %r9d
	callq	_KTimestamp3
	leaq	120(%r12), %rsi
	movl	$126, %edi
	movl	$8, %edx
	callq	_KStore
	.loc	3 129 9 is_stmt 0       # aes.c:129:9
	movq	%rbx, 120(%r12)
	movl	$1, (%rsp)
	movl	$213, %edi
	movl	$205, %esi
	movl	$1, %edx
	movl	$19, %ecx
	movl	$1, %r8d
	movl	$211, %r9d
	callq	_KTimestamp3
	movl	$211, %edi
	movl	$213, %esi
	callq	_KPhiAddCond
	movl	$212, %r14d
	movl	$212, %edi
	movl	$19, %esi
	xorl	%edx, %edx
	movl	$211, %ecx
	xorl	%r8d, %r8d
	callq	_KTimestamp2
	callq	_KPopCDep
	movl	$2, %esi
	movabsq	$-8708625986013619868, %rdi # imm = 0x8724BECE55EC1964
	movq	%rdi, %rbx
	callq	_KExitRegion
.Ltmp52:
	.loc	3 131 17 is_stmt 1      # aes.c:131:17
	addq	$8, -56(%rbp)           # 8-byte Folded Spill
	movq	-72(%rbp), %r12         # 8-byte Reload
	cmpq	-48(%rbp), %r12         # 8-byte Folded Reload
	.loc	3 131 7 is_stmt 0       # aes.c:131:7
.Ltmp53:
	jb	.LBB0_20
.Ltmp54:
# BB#21:                                # %do.body162.pre_exit.sw.epilog.loopexit2
	#DEBUG_VALUE: rijndael_enc_set_key:cx <- [RBP+-120]
	#DEBUG_VALUE: rijndael_enc_set_key:kf <- [RBP+-144]
	#DEBUG_VALUE: rijndael_enc_set_key:rci <- 0
	movl	$1, %esi
	movabsq	$-1589256187517027446, %rdi # imm = 0xE9F1D3EAEDF4BB8A
	jmp	.LBB0_22
.LBB0_12:                               # %cond.end29
.Ltmp55:
	#DEBUG_VALUE: rijndael_enc_set_key:cx <- R14
	#DEBUG_VALUE: rijndael_enc_set_key:kf <- [RBP+-144]
	#DEBUG_VALUE: rijndael_enc_set_key:kt <- [RBP+-48]
	#DEBUG_VALUE: rijndael_enc_set_key:rci <- 0
	cmpq	$4, %r15
	movq	-96(%rbp), %r13         # 8-byte Reload
	movabsq	$-8927125141221685978, %r12 # imm = 0x841C7AFB6405C526
	jne	.LBB0_23
.Ltmp56:
# BB#13:                                # %do.body.preheader
	#DEBUG_VALUE: rijndael_enc_set_key:cx <- R14
	#DEBUG_VALUE: rijndael_enc_set_key:kf <- [RBP+-144]
	#DEBUG_VALUE: rijndael_enc_set_key:kt <- [RBP+-48]
	#DEBUG_VALUE: rijndael_enc_set_key:rci <- 0
	movq	%r14, -120(%rbp)        # 8-byte Spill
.Ltmp57:
	#DEBUG_VALUE: rijndael_enc_set_key:cx <- [RBP+-120]
	movabsq	$3764943216989272483, %rbx # imm = 0x343FC3E8882979A3
	movl	$19, %edi
	callq	_KPushCDep
	movl	$206, %edi
	callq	_KInduction
	callq	_KPopCDep
	movl	$1, %esi
	movq	%rbx, %rdi
	callq	_KEnterRegion
	movl	$rijndael_enc_rcon_tab, %eax
	movq	%rax, -56(%rbp)         # 8-byte Spill
	movl	$202, %r14d
	movabsq	$4461480076046024029, %rbx # imm = 0x3DEA5C7DC134BD5D
	.align	16, 0x90
.LBB0_14:                               # %do.body
                                        # =>This Inner Loop Header: Depth=1
	#DEBUG_VALUE: rijndael_enc_set_key:cx <- [RBP+-120]
	#DEBUG_VALUE: rijndael_enc_set_key:kf <- [RBP+-144]
	#DEBUG_VALUE: rijndael_enc_set_key:kt <- [RBP+-48]
	#DEBUG_VALUE: rijndael_enc_set_key:rci <- 0
	movl	$2, %esi
	movq	%rbx, %rdi
	callq	_KEnterRegion
	movl	$19, %edi
	callq	_KPushCDep
	movl	$200, %edi
	movl	$19, %edx
	movl	%r14d, %esi
	callq	_KPhi1To1
	movl	$20, %esi
	movl	$8, %edx
	movq	%r13, %rdi
	callq	_KLoad0
	movl	$81, %edi
	callq	_KWork
	.loc	3 92 17 is_stmt 1       # aes.c:92:17
.Ltmp58:
	movq	(%r13), %r12
	leaq	24(%r13), %rdi
	movq	%rdi, -64(%rbp)         # 8-byte Spill
	movl	$21, %esi
	movl	$8, %edx
	movq	%rdi, %rbx
	callq	_KLoad0
	.loc	3 92 25 is_stmt 0       # aes.c:92:25
	movq	24(%r13), %rax
	movzbl	%ah, %eax  # NOREX
	movq	%rax, -72(%rbp)         # 8-byte Spill
	leaq	rijndael_enc_fl_tab(,%rax,8), %rdi
	movl	$22, %esi
	movl	$23, %edx
	movl	$8, %ecx
	callq	_KLoad1
	movl	$24, %esi
	movl	$8, %edx
	movq	%rbx, %rdi
	callq	_KLoad0
	movq	24(%r13), %r15
	shrq	$13, %r15
	andq	$2040, %r15             # imm = 0x7F8
	leaq	rijndael_enc_fl_tab+2048(%r15), %rdi
	movl	$25, %esi
	movl	$26, %edx
	movl	$8, %ecx
	callq	_KLoad1
	movl	$27, %esi
	movl	$8, %edx
	movq	%rbx, %rdi
	movq	%rbx, %r14
	callq	_KLoad0
	movq	24(%r13), %rbx
	shrq	$21, %rbx
	andq	$2040, %rbx             # imm = 0x7F8
	leaq	rijndael_enc_fl_tab+4096(%rbx), %rdi
	movl	$28, %esi
	movl	$29, %edx
	movl	$8, %ecx
	callq	_KLoad1
	movl	$30, %esi
	movl	$8, %edx
	movq	%r14, %rdi
	callq	_KLoad0
	movzbl	24(%r13), %eax
	movq	%rax, -80(%rbp)         # 8-byte Spill
	leaq	rijndael_enc_fl_tab+6144(,%rax,8), %rdi
	movl	$31, %esi
	movl	$32, %edx
	movl	$8, %ecx
	callq	_KLoad1
	movl	$33, %esi
	movl	$8, %edx
	movq	-56(%rbp), %r14         # 8-byte Reload
	movq	%r14, %rdi
	callq	_KLoad0
	movq	-72(%rbp), %rax         # 8-byte Reload
	xorq	rijndael_enc_fl_tab(,%rax,8), %r12
	xorq	rijndael_enc_fl_tab+2048(%r15), %r12
	xorq	rijndael_enc_fl_tab+4096(%rbx), %r12
	.loc	3 92 17                 # aes.c:92:17
	movq	-80(%rbp), %rax         # 8-byte Reload
	xorq	rijndael_enc_fl_tab+6144(,%rax,8), %r12
	xorq	(%r14), %r12
	movl	$1, 64(%rsp)
	movl	$33, 56(%rsp)
	movl	$4, 48(%rsp)
	movl	$28, 40(%rsp)
	movl	$5, 32(%rsp)
	movl	$25, 24(%rsp)
	movl	$5, 16(%rsp)
	movl	$22, 8(%rsp)
	movl	$2, (%rsp)
	movl	$34, %edi
	movl	$31, %esi
	movl	$3, %edx
	movl	$19, %ecx
	movl	$5, %r8d
	movl	$20, %r9d
	callq	_KTimestamp7
	leaq	32(%r13), %r15
	movl	$34, %edi
	movl	$8, %edx
	movq	%r15, %rsi
	callq	_KStore
	.loc	3 92 9                  # aes.c:92:9
	movq	%r12, 32(%r13)
	leaq	8(%r13), %rdi
	movl	$35, %esi
	movl	$8, %edx
	callq	_KLoad0
	.loc	3 93 17 is_stmt 1       # aes.c:93:17
	movq	8(%r13), %rbx
	movl	$36, %esi
	movl	$8, %edx
	movq	%r15, %rdi
	callq	_KLoad0
	xorq	32(%r13), %rbx
	movl	$1, (%rsp)
	movl	$37, %edi
	movl	$19, %esi
	movl	$1, %edx
	movl	$35, %ecx
	movl	$1, %r8d
	movl	$36, %r9d
	callq	_KTimestamp3
	leaq	40(%r13), %r12
	movl	$37, %edi
	movl	$8, %edx
	movq	%r12, %rsi
	callq	_KStore
	.loc	3 93 9 is_stmt 0        # aes.c:93:9
	movq	%rbx, 40(%r13)
	leaq	16(%r13), %rdi
	movl	$38, %esi
	movl	$8, %edx
	callq	_KLoad0
	.loc	3 94 17 is_stmt 1       # aes.c:94:17
	movq	16(%r13), %rbx
	movl	$39, %esi
	movl	$8, %edx
	movq	%r12, %rdi
	callq	_KLoad0
	xorq	40(%r13), %rbx
	movl	$1, (%rsp)
	movl	$40, %edi
	movl	$19, %esi
	movl	$1, %edx
	movl	$38, %ecx
	movl	$1, %r8d
	movl	$39, %r9d
	callq	_KTimestamp3
	leaq	48(%r13), %r12
	movl	$40, %edi
	movl	$8, %edx
	movq	%r12, %rsi
	callq	_KStore
	.loc	3 94 9 is_stmt 0        # aes.c:94:9
	movq	%rbx, 48(%r13)
	movl	$41, %esi
	movl	$8, %edx
	movq	-64(%rbp), %rdi         # 8-byte Reload
	callq	_KLoad0
	.loc	3 95 17 is_stmt 1       # aes.c:95:17
	movq	24(%r13), %rbx
	movl	$42, %esi
	movl	$8, %edx
	movq	%r12, %rdi
	callq	_KLoad0
	xorq	48(%r13), %rbx
	movl	$1, (%rsp)
	movl	$43, %edi
	movl	$19, %esi
	movl	$1, %edx
	movl	$41, %ecx
	movl	$1, %r8d
	movl	$42, %r9d
	callq	_KTimestamp3
	leaq	56(%r13), %rsi
	movl	$43, %edi
	movl	$8, %edx
	callq	_KStore
	.loc	3 95 9 is_stmt 0        # aes.c:95:9
	movq	%rbx, 56(%r13)
	movl	$1, (%rsp)
	movl	$204, %edi
	movl	$205, %esi
	movl	$1, %edx
	movl	$19, %ecx
	movl	$1, %r8d
	movl	$200, %r9d
	callq	_KTimestamp3
	movl	$200, %edi
	movl	$204, %esi
	callq	_KPhiAddCond
	movl	$201, %r14d
	movl	$201, %edi
	movl	$19, %esi
	xorl	%edx, %edx
	movl	$200, %ecx
	xorl	%r8d, %r8d
	callq	_KTimestamp2
	callq	_KPopCDep
	movl	$2, %esi
	movabsq	$4461480076046024029, %rdi # imm = 0x3DEA5C7DC134BD5D
	movq	%rdi, %rbx
	callq	_KExitRegion
.Ltmp59:
	.loc	3 97 17 is_stmt 1       # aes.c:97:17
	addq	$8, -56(%rbp)           # 8-byte Folded Spill
	cmpq	-48(%rbp), %r15         # 8-byte Folded Reload
	movq	%r15, %r13
	.loc	3 97 7 is_stmt 0        # aes.c:97:7
.Ltmp60:
	jb	.LBB0_14
.Ltmp61:
# BB#15:                                # %do.body.pre_exit.sw.epilog.loopexit
	#DEBUG_VALUE: rijndael_enc_set_key:cx <- [RBP+-120]
	#DEBUG_VALUE: rijndael_enc_set_key:kf <- [RBP+-144]
	#DEBUG_VALUE: rijndael_enc_set_key:rci <- 0
	movl	$1, %esi
	movabsq	$3764943216989272483, %rdi # imm = 0x343FC3E8882979A3
.LBB0_22:                               # %sw.epilog
	callq	_KExitRegion
	movl	$19, %edi
	callq	_KPushCDep
	callq	_KPopCDep
	movabsq	$-8927125141221685978, %r13 # imm = 0x841C7AFB6405C526
	movq	%r13, %r12
	movq	-120(%rbp), %r14        # 8-byte Reload
.Ltmp62:
	#DEBUG_VALUE: rijndael_enc_set_key:cx <- R14
	movq	-96(%rbp), %r13         # 8-byte Reload
.Ltmp63:
.LBB0_23:                               # %sw.epilog
	#DEBUG_VALUE: rijndael_enc_set_key:cx <- R14
	#DEBUG_VALUE: rijndael_enc_set_key:kf <- [RBP+-144]
	#DEBUG_VALUE: rijndael_enc_set_key:rci <- 0
	movl	$199, %r15d
	movl	$199, %edi
	callq	_KPushCDep
	movl	$6, %edi
	callq	_KWork
	movl	$127, %esi
	movl	$1, %edx
	movq	-112(%rbp), %rbx        # 8-byte Reload
	movq	%rbx, %rdi
	callq	_KLoad0
	.loc	3 135 10 is_stmt 1      # aes.c:135:10
.Ltmp64:
	movb	(%rbx), %al
	.loc	3 135 8 is_stmt 0       # aes.c:135:8
	andb	$3, %al
	movzbl	%al, %ebx
	movl	$2, (%rsp)
	movl	$147, %edi
	movl	$2, %esi
	movl	$4, %edx
	movl	$1, %ecx
	movl	$8, %r8d
	movl	$127, %r9d
	callq	_KTimestamp3
	callq	_KPopCDep
	cmpl	$1, %ebx
	je	.LBB0_28
.Ltmp65:
# BB#24:                                # %if.then252
	#DEBUG_VALUE: rijndael_enc_set_key:cx <- R14
	#DEBUG_VALUE: rijndael_enc_set_key:kf <- [RBP+-144]
	#DEBUG_VALUE: rijndael_enc_set_key:rci <- 0
	movl	$147, %edi
	callq	_KPushCDep
	movl	$26, %edi
	callq	_KWork
	movl	$128, %esi
	movl	$8, %edx
	movq	-104(%rbp), %rdi        # 8-byte Reload
	callq	_KLoad0
	movq	%r14, %r12
.Ltmp66:
	#DEBUG_VALUE: rijndael_enc_set_key:cx <- R12
	.loc	3 138 27 is_stmt 1      # aes.c:138:27
	movq	8(%r12), %r14
	shlq	$5, %r14
	.loc	3 138 10 is_stmt 0      # aes.c:138:10
	movq	%r14, -48(%rbp)         # 8-byte Spill
	leaq	528(%r12,%r14), %r15
.Ltmp67:
	#DEBUG_VALUE: rijndael_enc_set_key:kt <- R15
	movl	$129, %esi
	movl	$8, %edx
	movq	%r13, %rdi
	callq	_KLoad0
	.loc	3 141 5 is_stmt 1 discriminator 1 # aes.c:141:5
.Ltmp68:
	movq	16(%r12), %rbx
	leaq	536(%r12,%r14), %rax
.Ltmp69:
	#DEBUG_VALUE: rijndael_enc_set_key:kt <- [RBP+-56]
	movq	%rax, -56(%rbp)         # 8-byte Spill
	xorl	%r13d, %r13d
	movl	$129, %edi
	movl	$129, %esi
	xorl	%edx, %edx
	callq	_KTimestamp1
	movl	$129, %edi
	movl	$8, %edx
	movq	%r15, %rsi
	callq	_KStore
	movq	%rbx, 528(%r12,%r14)
	movl	$130, %esi
	movl	$8, %edx
	movq	-128(%rbp), %rdi        # 8-byte Reload
	callq	_KLoad0
	movq	24(%r12), %rbx
	leaq	544(%r12,%r14), %rax
.Ltmp70:
	#DEBUG_VALUE: rijndael_enc_set_key:kt <- [RBP+-64]
	movq	%rax, -64(%rbp)         # 8-byte Spill
	movl	$130, %edi
	movl	$130, %esi
	xorl	%edx, %edx
	callq	_KTimestamp1
	movl	$130, %edi
	movl	$8, %edx
	movq	-56(%rbp), %rsi         # 8-byte Reload
	callq	_KStore
	movq	%rbx, 536(%r12,%r14)
	movl	$131, %esi
	movl	$8, %edx
	movq	-136(%rbp), %rdi        # 8-byte Reload
	callq	_KLoad0
	movq	32(%r12), %rbx
	leaq	552(%r12,%r14), %r15
.Ltmp71:
	#DEBUG_VALUE: rijndael_enc_set_key:kt <- R15
	movl	$131, %edi
	movl	$131, %esi
	xorl	%edx, %edx
	callq	_KTimestamp1
	movl	$131, %edi
	movl	$8, %edx
	movq	-64(%rbp), %rsi         # 8-byte Reload
	callq	_KStore
	movq	%rbx, 544(%r12,%r14)
	movl	$132, %esi
	movl	$8, %edx
	movq	-144(%rbp), %rdi        # 8-byte Reload
	callq	_KLoad0
	movq	40(%r12), %rbx
	movl	$132, %edi
	movl	$132, %esi
	xorl	%edx, %edx
	callq	_KTimestamp1
	movl	$132, %edi
	movl	$8, %edx
	movq	%r15, %rsi
	callq	_KStore
	movq	%rbx, 552(%r12,%r14)
.Ltmp72:
	#DEBUG_VALUE: i <- 1
	movl	$2, 32(%rsp)
	movl	$128, 24(%rsp)
	movl	$4, 16(%rsp)
	movl	$127, 8(%rsp)
	movl	$10, (%rsp)
	movl	$219, -72(%rbp)         # 4-byte Folded Spill
	movl	$219, %edi
	movl	$2, %esi
	movl	$6, %edx
	movl	$203, %ecx
	xorl	%r8d, %r8d
	movl	$1, %r9d
	callq	_KTimestamp5
	movl	$2, 16(%rsp)
	movl	$127, 8(%rsp)
	movl	$8, (%rsp)
	movl	$216, %r14d
	movl	$216, %edi
	movl	$2, %esi
	movl	$4, %edx
	movl	$203, %ecx
	xorl	%r8d, %r8d
	movl	$1, %r9d
	callq	_KTimestamp4
	callq	_KPopCDep
	movl	$1, %esi
	movabsq	$4826250905647104773, %rdi # imm = 0x42FA49A0CC00C305
	callq	_KEnterRegion
	xorl	%eax, %eax
	movq	%rax, -56(%rbp)         # 8-byte Spill
	xorl	%eax, %eax
	movq	%rax, -64(%rbp)         # 8-byte Spill
	xorl	%r15d, %r15d
.Ltmp73:
	jmp	.LBB0_25
.Ltmp74:
	.align	16, 0x90
.LBB0_26:                               # %do.body273
                                        #   in Loop: Header=BB0_25 Depth=1
	#DEBUG_VALUE: rijndael_enc_set_key:cx <- R12
	#DEBUG_VALUE: rijndael_enc_set_key:rci <- 0
	#DEBUG_VALUE: i <- 1
	movq	-56(%rbp), %rdx         # 8-byte Reload
	.loc	3 145 18                # aes.c:145:18
.Ltmp75:
	leaq	32(%rdx), %rax
	movq	%rdx, %r14
	movq	%rax, -88(%rbp)         # 8-byte Spill
	movq	-48(%rbp), %rax         # 8-byte Reload
	leaq	-32(%rax), %rax
	movq	%rax, -96(%rbp)         # 8-byte Spill
	movq	%r15, -72(%rbp)         # 8-byte Spill
	movl	$2, %esi
	movabsq	$-3484009351659753843, %rax # imm = 0xCFA64FF4282E6E8D
	movq	%rax, %rdi
	callq	_KEnterRegion
	movl	$148, %eax
	movq	%rax, -64(%rbp)         # 8-byte Spill
	movl	$148, %edi
	callq	_KPushCDep
	movl	$134, %esi
	movl	$8, %edx
	movq	%rbx, %rdi
	callq	_KLoad0
	movl	$161, %edi
	callq	_KWork
	movq	%r13, -80(%rbp)         # 8-byte Spill
	movq	%r12, %r13
.Ltmp76:
	#DEBUG_VALUE: rijndael_enc_set_key:cx <- R13
	.loc	3 146 7 discriminator 1 # aes.c:146:7
	movzbl	48(%r13,%r14), %r12d
	leaq	rijndael_enc_im_tab(,%r12,8), %rdi
	movl	$135, %esi
	movl	$136, %edx
	movl	$8, %ecx
	callq	_KLoad1
	movl	$137, %esi
	movl	$8, %edx
	movq	%rbx, %rdi
	callq	_KLoad0
	movq	48(%r13,%r14), %rax
	movq	%rbx, %r14
	movzbl	%ah, %ebx  # NOREX
	leaq	rijndael_enc_im_tab+2048(,%rbx,8), %rdi
	movl	$138, %esi
	movl	$139, %edx
	movl	$8, %ecx
	callq	_KLoad1
	movq	rijndael_enc_im_tab+2048(,%rbx,8), %r15
	xorq	rijndael_enc_im_tab(,%r12,8), %r15
	movl	$140, %esi
	movl	$8, %edx
	movq	%r14, %rdi
	callq	_KLoad0
	movq	-56(%rbp), %r12         # 8-byte Reload
	movq	48(%r13,%r12), %rbx
	shrq	$13, %rbx
	andq	$2040, %rbx             # imm = 0x7F8
	leaq	rijndael_enc_im_tab+4096(%rbx), %rdi
	movl	$141, %esi
	movl	$142, %edx
	movl	$8, %ecx
	callq	_KLoad1
	xorq	rijndael_enc_im_tab+4096(%rbx), %r15
	movl	$143, %esi
	movl	$8, %edx
	movq	%r14, %rdi
	callq	_KLoad0
	movq	48(%r13,%r12), %rbx
	movq	%r12, %r14
	shrq	$21, %rbx
	andq	$2040, %rbx             # imm = 0x7F8
	leaq	rijndael_enc_im_tab+6144(%rbx), %rdi
	movl	$144, %esi
	movl	$145, %edx
	movl	$8, %ecx
	callq	_KLoad1
	xorq	rijndael_enc_im_tab+6144(%rbx), %r15
	movl	$1, 32(%rsp)
	movl	$144, 24(%rsp)
	movl	$2, 16(%rsp)
	movl	$141, 8(%rsp)
	movl	$3, (%rsp)
	movl	$146, %edi
	movl	$148, %esi
	movl	$3, %edx
	movl	$135, %ecx
	movl	$3, %r8d
	movl	$138, %r9d
	callq	_KTimestamp5
	movl	$146, %edi
	movl	$8, %edx
	movq	-72(%rbp), %rsi         # 8-byte Reload
	callq	_KStore
	movq	-48(%rbp), %rax         # 8-byte Reload
	movq	%r15, 496(%r13,%rax)
	movq	%r14, %rbx
	leaq	56(%r13,%rbx), %r14
	movl	$150, %esi
	movl	$8, %edx
	movq	%r14, %rdi
	callq	_KLoad0
	movzbl	56(%r13,%rbx), %r15d
	leaq	rijndael_enc_im_tab(,%r15,8), %rdi
	movl	$151, %esi
	movl	$152, %edx
	movl	$8, %ecx
	callq	_KLoad1
	movl	$153, %esi
	movl	$8, %edx
	movq	%r14, %rdi
	callq	_KLoad0
	movq	56(%r13,%rbx), %rax
	movzbl	%ah, %ebx  # NOREX
	leaq	rijndael_enc_im_tab+2048(,%rbx,8), %rdi
	movl	$154, %esi
	movl	$155, %edx
	movl	$8, %ecx
	callq	_KLoad1
	movq	rijndael_enc_im_tab+2048(,%rbx,8), %r12
	xorq	rijndael_enc_im_tab(,%r15,8), %r12
	movl	$156, %esi
	movl	$8, %edx
	movq	%r14, %rdi
	callq	_KLoad0
	movq	-56(%rbp), %r15         # 8-byte Reload
	movq	56(%r13,%r15), %rbx
	shrq	$13, %rbx
	andq	$2040, %rbx             # imm = 0x7F8
	leaq	rijndael_enc_im_tab+4096(%rbx), %rdi
	movl	$157, %esi
	movl	$158, %edx
	movl	$8, %ecx
	callq	_KLoad1
	xorq	rijndael_enc_im_tab+4096(%rbx), %r12
	movl	$159, %esi
	movl	$8, %edx
	movq	%r14, %rdi
	callq	_KLoad0
	movq	56(%r13,%r15), %rbx
	movq	%r15, %r14
	shrq	$21, %rbx
	andq	$2040, %rbx             # imm = 0x7F8
	leaq	rijndael_enc_im_tab+6144(%rbx), %rdi
	movl	$160, %esi
	movl	$161, %edx
	movl	$8, %ecx
	callq	_KLoad1
	xorq	rijndael_enc_im_tab+6144(%rbx), %r12
	movl	$2, 32(%rsp)
	movl	$157, 24(%rsp)
	movl	$3, 16(%rsp)
	movl	$154, 8(%rsp)
	movl	$3, (%rsp)
	movl	$162, %edi
	movl	$160, %esi
	movl	$1, %edx
	movl	$148, %ecx
	movl	$3, %r8d
	movl	$151, %r9d
	callq	_KTimestamp5
	movq	-48(%rbp), %rbx         # 8-byte Reload
	leaq	504(%r13,%rbx), %rsi
	movl	$162, %edi
	movl	$8, %edx
	callq	_KStore
	movq	%r12, 504(%r13,%rbx)
	movq	%r14, %rbx
	leaq	64(%r13,%rbx), %r14
	movl	$163, %esi
	movl	$8, %edx
	movq	%r14, %rdi
	callq	_KLoad0
	movzbl	64(%r13,%rbx), %r15d
	leaq	rijndael_enc_im_tab(,%r15,8), %rdi
	movl	$164, %esi
	movl	$165, %edx
	movl	$8, %ecx
	callq	_KLoad1
	movl	$166, %esi
	movl	$8, %edx
	movq	%r14, %rdi
	callq	_KLoad0
	movq	64(%r13,%rbx), %rax
	movzbl	%ah, %ebx  # NOREX
	leaq	rijndael_enc_im_tab+2048(,%rbx,8), %rdi
	movl	$167, %esi
	movl	$168, %edx
	movl	$8, %ecx
	callq	_KLoad1
	movq	rijndael_enc_im_tab+2048(,%rbx,8), %r12
	xorq	rijndael_enc_im_tab(,%r15,8), %r12
	movl	$169, %esi
	movl	$8, %edx
	movq	%r14, %rdi
	callq	_KLoad0
	movq	-56(%rbp), %r15         # 8-byte Reload
	movq	64(%r13,%r15), %rbx
	shrq	$13, %rbx
	andq	$2040, %rbx             # imm = 0x7F8
	leaq	rijndael_enc_im_tab+4096(%rbx), %rdi
	movl	$170, %esi
	movl	$171, %edx
	movl	$8, %ecx
	callq	_KLoad1
	xorq	rijndael_enc_im_tab+4096(%rbx), %r12
	movl	$172, %esi
	movl	$8, %edx
	movq	%r14, %rdi
	callq	_KLoad0
	movq	64(%r13,%r15), %rbx
	shrq	$21, %rbx
	andq	$2040, %rbx             # imm = 0x7F8
	leaq	rijndael_enc_im_tab+6144(%rbx), %rdi
	movl	$173, %esi
	movl	$174, %edx
	movl	$8, %ecx
	callq	_KLoad1
	xorq	rijndael_enc_im_tab+6144(%rbx), %r12
	movl	$1, 32(%rsp)
	movl	$173, 24(%rsp)
	movl	$3, 16(%rsp)
	movl	$148, 8(%rsp)
	movl	$2, (%rsp)
	movl	$175, %edi
	movl	$164, %esi
	movl	$3, %edx
	movl	$167, %ecx
	movl	$3, %r8d
	movl	$170, %r9d
	callq	_KTimestamp5
	movq	-48(%rbp), %rbx         # 8-byte Reload
	leaq	512(%r13,%rbx), %rsi
	movl	$175, %edi
	movl	$8, %edx
	callq	_KStore
	movq	%r12, 512(%r13,%rbx)
	leaq	72(%r13,%r15), %r14
	movl	$176, %esi
	movl	$8, %edx
	movq	%r14, %rdi
	callq	_KLoad0
	movzbl	72(%r13,%r15), %eax
	movq	%rax, -72(%rbp)         # 8-byte Spill
	leaq	rijndael_enc_im_tab(,%rax,8), %rdi
	movl	$177, %esi
	movl	$178, %edx
	movl	$8, %ecx
	callq	_KLoad1
	movl	$179, %esi
	movl	$8, %edx
	movq	%r14, %rdi
	callq	_KLoad0
	movq	72(%r13,%r15), %rax
	movzbl	%ah, %ebx  # NOREX
	leaq	rijndael_enc_im_tab+2048(,%rbx,8), %rdi
	movl	$180, %esi
	movl	$181, %edx
	movl	$8, %ecx
	callq	_KLoad1
	movq	rijndael_enc_im_tab+2048(,%rbx,8), %r12
	movq	-72(%rbp), %rax         # 8-byte Reload
	xorq	rijndael_enc_im_tab(,%rax,8), %r12
	movl	$182, %esi
	movl	$8, %edx
	movq	%r14, %rdi
	callq	_KLoad0
	movq	72(%r13,%r15), %rbx
	shrq	$13, %rbx
	andq	$2040, %rbx             # imm = 0x7F8
	leaq	rijndael_enc_im_tab+4096(%rbx), %rdi
	movl	$183, %esi
	movl	$184, %edx
	movl	$8, %ecx
	callq	_KLoad1
	xorq	rijndael_enc_im_tab+4096(%rbx), %r12
	movl	$185, %esi
	movl	$8, %edx
	movq	%r14, %rdi
	callq	_KLoad0
	movq	72(%r13,%r15), %rbx
	shrq	$21, %rbx
	andq	$2040, %rbx             # imm = 0x7F8
	leaq	rijndael_enc_im_tab+6144(%rbx), %rdi
	movl	$186, %esi
	movl	$187, %edx
	movl	$8, %ecx
	callq	_KLoad1
	xorq	rijndael_enc_im_tab+6144(%rbx), %r12
	movl	$1, 32(%rsp)
	movl	$186, 24(%rsp)
	movl	$2, 16(%rsp)
	movl	$183, 8(%rsp)
	movl	$3, (%rsp)
	movl	$188, %edi
	movl	$148, %esi
	movl	$3, %edx
	movl	$177, %ecx
	movl	$3, %r8d
	movl	$180, %r9d
	callq	_KTimestamp5
	movq	-48(%rbp), %rbx         # 8-byte Reload
	leaq	520(%r13,%rbx), %rsi
	movl	$188, %edi
	movl	$8, %edx
	callq	_KStore
	movq	%r12, 520(%r13,%rbx)
	movq	%r13, %r12
.Ltmp77:
	#DEBUG_VALUE: rijndael_enc_set_key:cx <- R12
	movq	-80(%rbp), %r13         # 8-byte Reload
	movl	$221, %r15d
	movl	$221, %edi
	movl	$149, %esi
	movl	$1, %edx
	movl	$148, %ecx
	movl	$1, %r8d
	callq	_KTimestamp2
	movl	$220, -72(%rbp)         # 4-byte Folded Spill
	movl	$220, %edi
	movl	$218, %esi
	xorl	%edx, %edx
	movl	$148, %ecx
	xorl	%r8d, %r8d
	callq	_KTimestamp2
	movl	$217, %r14d
	movl	$217, %edi
	movl	$215, %esi
	xorl	%edx, %edx
	movl	$148, %ecx
	xorl	%r8d, %r8d
	callq	_KTimestamp2
	callq	_KPopCDep
	movl	$2, %esi
	movabsq	$-3484009351659753843, %rdi # imm = 0xCFA64FF4282E6E8D
	callq	_KExitRegion
	movq	-96(%rbp), %rax         # 8-byte Reload
	movq	%rax, -48(%rbp)         # 8-byte Spill
	movq	-88(%rbp), %rax         # 8-byte Reload
	movq	%rax, -56(%rbp)         # 8-byte Spill
.Ltmp78:
.LBB0_25:                               # %for.cond
                                        # =>This Inner Loop Header: Depth=1
	#DEBUG_VALUE: rijndael_enc_set_key:cx <- R12
	#DEBUG_VALUE: rijndael_enc_set_key:rci <- 0
	#DEBUG_VALUE: i <- 1
	movl	$147, %edi
	callq	_KPushCDep
	movl	$149, %edi
	movl	$147, %edx
	movl	%r15d, %esi
	movq	-64(%rbp), %rbx         # 8-byte Reload
	movl	%ebx, %ecx
	callq	_KPhi2To1
	movl	$218, %edi
	movl	$147, %edx
	movl	-72(%rbp), %esi         # 4-byte Reload
	movl	%ebx, %ecx
	callq	_KPhi2To1
	movl	$215, %edi
	movl	$147, %edx
	movl	%r14d, %esi
	movl	%ebx, %ecx
	callq	_KPhi2To1
	movl	$5, %edi
	callq	_KWork
	movl	$133, %esi
	movl	$8, %edx
	movq	-104(%rbp), %rdi        # 8-byte Reload
	callq	_KLoad0
	.loc	3 145 5                 # aes.c:145:5
	movq	8(%r12), %rbx
	movl	$1, (%rsp)
	movl	$148, %edi
	movl	$147, %esi
	movl	$1, %edx
	movl	$149, %ecx
	movl	$1, %r8d
	movl	$133, %r9d
	callq	_KTimestamp3
	movl	$149, %edi
	movl	$148, %esi
	callq	_KPhiAddCond
	movl	$149, %edi
	movl	$149, %esi
	xorl	%edx, %edx
	callq	_KTimestamp1
	movl	$218, %edi
	movl	$148, %esi
	callq	_KPhiAddCond
	movl	$218, %edi
	movl	$218, %esi
	xorl	%edx, %edx
	callq	_KTimestamp1
	movl	$215, %edi
	movl	$148, %esi
	callq	_KPhiAddCond
	movl	$215, %edi
	movl	$215, %esi
	xorl	%edx, %edx
	callq	_KTimestamp1
	callq	_KPopCDep
	.loc	3 145 18 is_stmt 0      # aes.c:145:18
.Ltmp79:
	incq	%r13
.Ltmp80:
	.loc	3 145 5                 # aes.c:145:5
	cmpq	%rbx, %r13
	movq	-56(%rbp), %rax         # 8-byte Reload
	leaq	48(%r12,%rax), %rbx
	movq	-48(%rbp), %rax         # 8-byte Reload
	leaq	496(%r12,%rax), %r15
	jb	.LBB0_26
.Ltmp81:
# BB#27:                                # %for.cond.pre_exit.do.body362
	#DEBUG_VALUE: rijndael_enc_set_key:rci <- 0
	#DEBUG_VALUE: i <- 1
	movl	$1, %esi
	movabsq	$4826250905647104773, %rdi # imm = 0x42FA49A0CC00C305
	callq	_KExitRegion
	movl	$147, %edi
	callq	_KPushCDep
	movl	$20, %edi
	callq	_KWork
	.loc	3 150 5 is_stmt 1 discriminator 1 # aes.c:150:5
.Ltmp82:
	leaq	8(%rbx), %r12
.Ltmp83:
	#DEBUG_VALUE: rijndael_enc_set_key:kf <- R12
	movl	$189, %esi
	movl	$8, %edx
	movq	%rbx, %rdi
	callq	_KLoad0
	movq	(%rbx), %r14
	leaq	8(%r15), %rax
.Ltmp84:
	#DEBUG_VALUE: rijndael_enc_set_key:kt <- [RBP+-48]
	movq	%rax, -48(%rbp)         # 8-byte Spill
	movl	$189, %edi
	movl	$189, %esi
	xorl	%edx, %edx
	callq	_KTimestamp1
	movl	$189, %edi
	movl	$8, %edx
	movq	%r15, %rsi
	callq	_KStore
	movq	%r14, (%r15)
	leaq	16(%rbx), %r13
.Ltmp85:
	#DEBUG_VALUE: rijndael_enc_set_key:kf <- R13
	movl	$190, %esi
	movl	$8, %edx
	movq	%r12, %rdi
	callq	_KLoad0
	movq	8(%rbx), %r14
	leaq	16(%r15), %rax
.Ltmp86:
	#DEBUG_VALUE: rijndael_enc_set_key:kt <- [RBP+-56]
	movq	%rax, -56(%rbp)         # 8-byte Spill
	movl	$190, %edi
	movl	$190, %esi
	xorl	%edx, %edx
	callq	_KTimestamp1
	movl	$190, %edi
	movl	$8, %edx
	movq	-48(%rbp), %rsi         # 8-byte Reload
	callq	_KStore
	movq	%r14, 8(%r15)
	leaq	24(%rbx), %r12
.Ltmp87:
	#DEBUG_VALUE: rijndael_enc_set_key:kf <- R12
	movl	$191, %esi
	movl	$8, %edx
	movq	%r13, %rdi
	callq	_KLoad0
	movq	16(%rbx), %r14
	leaq	24(%r15), %r13
.Ltmp88:
	#DEBUG_VALUE: rijndael_enc_set_key:kt <- R13
	movl	$191, %edi
	movl	$191, %esi
	xorl	%edx, %edx
	callq	_KTimestamp1
	movl	$191, %edi
	movl	$8, %edx
	movq	-56(%rbp), %rsi         # 8-byte Reload
	callq	_KStore
	movq	%r14, 16(%r15)
	movl	$192, %esi
	movl	$8, %edx
	movq	%r12, %rdi
	callq	_KLoad0
	movq	24(%rbx), %rbx
	movl	$192, %edi
	movl	$192, %esi
	xorl	%edx, %edx
	callq	_KTimestamp1
	movl	$192, %edi
	movl	$8, %edx
	movq	%r13, %rsi
	callq	_KStore
	movq	%rbx, 24(%r15)
	callq	_KPopCDep
	movabsq	$-8927125141221685978, %r13 # imm = 0x841C7AFB6405C526
.Ltmp89:
	movq	%r13, %r12
.Ltmp90:
	movl	$199, %r15d
.Ltmp91:
.LBB0_28:                               # %if.end373
	#DEBUG_VALUE: rijndael_enc_set_key:rci <- 0
	movl	$199, %edi
	callq	_KPushCDep
	callq	_KPopCDep
	movw	$1, %r14w
	xorl	%ebx, %ebx
.LBB0_29:                               # %return
	movl	$193, %edi
	movl	$196, %edx
	movl	%ebx, %esi
	movl	%r15d, %ecx
	callq	_KPhi2To1
	movl	$193, %edi
	movl	$193, %esi
	xorl	%edx, %edx
	callq	_KTimestamp1
	movl	$193, %edi
	callq	_KReturn
	xorl	%esi, %esi
	movq	%r12, %rdi
	callq	_KExitRegion
	.loc	3 154 1                 # aes.c:154:1
	movswl	%r14w, %eax
	addq	$184, %rsp
	popq	%rbx
	popq	%r12
	popq	%r13
	popq	%r14
	popq	%r15
	popq	%rbp
	retq
.Ltmp92:
.Ltmp93:
	.size	rijndael_enc_set_key, .Ltmp93-rijndael_enc_set_key
.Lfunc_end0:
	.cfi_endproc

	.globl	rijndael_enc_encrypt
	.align	16, 0x90
	.type	rijndael_enc_encrypt,@function
rijndael_enc_encrypt:                   # @rijndael_enc_encrypt
.Lfunc_begin1:
	.loc	3 158 0                 # aes.c:158:0
	.cfi_startproc
# BB#0:                                 # %entry
	pushq	%rbp
.Ltmp94:
	.cfi_def_cfa_offset 16
.Ltmp95:
	.cfi_offset %rbp, -16
	movq	%rsp, %rbp
.Ltmp96:
	.cfi_def_cfa_register %rbp
	pushq	%r15
	pushq	%r14
	pushq	%r13
	pushq	%r12
	pushq	%rbx
	subq	$264, %rsp              # imm = 0x108
.Ltmp97:
	.cfi_offset %rbx, -56
.Ltmp98:
	.cfi_offset %r12, -48
.Ltmp99:
	.cfi_offset %r13, -40
.Ltmp100:
	.cfi_offset %r14, -32
.Ltmp101:
	.cfi_offset %r15, -24
	#DEBUG_VALUE: rijndael_enc_encrypt:in_blk <- RDI
	#DEBUG_VALUE: rijndael_enc_encrypt:out_blk <- RSI
	#DEBUG_VALUE: rijndael_enc_encrypt:cx <- RDX
	movq	%rdx, %rbx
.Ltmp102:
	#DEBUG_VALUE: rijndael_enc_encrypt:cx <- RBX
	movq	%rsi, %r15
.Ltmp103:
	#DEBUG_VALUE: rijndael_enc_encrypt:out_blk <- R15
	movq	%rdi, %r12
.Ltmp104:
	#DEBUG_VALUE: rijndael_enc_encrypt:in_blk <- R12
	movabsq	$4580984437354237923, %r13 # imm = 0x3F92ED131E178FE3
	xorl	%esi, %esi
	movq	%r13, %rdi
	callq	_KEnterRegion
	movl	$811, %edi              # imm = 0x32B
	xorl	%esi, %esi
	callq	_KPrepRTable
	movl	$6, %edi
	callq	_KWork
	.loc	3 160 11 prologue_end   # aes.c:160:11
.Ltmp105:
	leaq	1040(%rbx), %rdi
	movl	$1, %esi
	movl	$1, %edx
	callq	_KLoad0
	movb	1040(%rbx), %r14b
	movl	$808, %edi              # imm = 0x328
	movl	$1, %esi
	movl	$2, %edx
	callq	_KTimestamp1
	movl	$808, %edi              # imm = 0x328
	callq	_KPushCDep
.Ltmp106:
	.loc	3 160 8 is_stmt 0       # aes.c:160:8
	testb	$1, %r14b
	je	.LBB1_1
.Ltmp107:
# BB#2:                                 # %if.end
	#DEBUG_VALUE: rijndael_enc_encrypt:in_blk <- R12
	#DEBUG_VALUE: rijndael_enc_encrypt:out_blk <- R15
	#DEBUG_VALUE: rijndael_enc_encrypt:cx <- RBX
	movq	%r15, -168(%rbp)        # 8-byte Spill
.Ltmp108:
	#DEBUG_VALUE: rijndael_enc_encrypt:out_blk <- [RBP+-168]
	movq	%rbx, %r14
.Ltmp109:
	#DEBUG_VALUE: rijndael_enc_encrypt:cx <- R14
	.loc	3 159 29 is_stmt 1      # aes.c:159:29
	movq	%r14, -120(%rbp)        # 8-byte Spill
	leaq	16(%r14), %r15
.Ltmp110:
	#DEBUG_VALUE: rijndael_enc_encrypt:kp <- R15
	movl	$44, %edi
	callq	_KWork
.Ltmp111:
	#DEBUG_VALUE: rijndael_enc_encrypt:b0 <- [RBP+-80]
	movl	$2, %esi
	movl	$8, %edx
	movq	%r12, %rdi
	callq	_KLoad0
	.loc	3 163 11                # aes.c:163:11
	movq	(%r12), %rbx
	movl	$3, %esi
	movl	$8, %edx
	movq	%r15, %rdi
	callq	_KLoad0
	xorq	16(%r14), %rbx
	movl	$1, (%rsp)
	movl	$4, %edi
	movl	$1, %esi
	movl	$3, %edx
	movl	$2, %ecx
	movl	$1, %r8d
	movl	$3, %r9d
	callq	_KTimestamp3
	leaq	-80(%rbp), %rsi
	movl	$4, %edi
	movl	$8, %edx
	callq	_KStore
	.loc	3 163 3 is_stmt 0       # aes.c:163:3
	movq	%rbx, -80(%rbp)
	.loc	3 164 33 is_stmt 1      # aes.c:164:33
	leaq	4(%r12), %rdi
	movl	$5, %esi
	movl	$8, %edx
	callq	_KLoad0
	.loc	3 164 11 is_stmt 0      # aes.c:164:11
	movq	4(%r12), %rbx
	.loc	3 164 46                # aes.c:164:46
	leaq	24(%r14), %rdi
	movl	$6, %esi
	movl	$8, %edx
	callq	_KLoad0
	.loc	3 164 11                # aes.c:164:11
	xorq	24(%r14), %rbx
	.loc	3 164 3                 # aes.c:164:3
	leaq	-72(%rbp), %r15
.Ltmp112:
	movl	$1, (%rsp)
	movl	$7, %edi
	movl	$1, %esi
	movl	$3, %edx
	movl	$5, %ecx
	movl	$1, %r8d
	movl	$6, %r9d
	callq	_KTimestamp3
	movl	$7, %edi
	movl	$8, %edx
	movq	%r15, %rsi
	callq	_KStore
	movq	%rbx, -72(%rbp)
	.loc	3 165 33 is_stmt 1      # aes.c:165:33
	leaq	8(%r12), %rdi
	movl	$8, %esi
	movl	$8, %edx
	callq	_KLoad0
	.loc	3 165 11 is_stmt 0      # aes.c:165:11
	movq	8(%r12), %rbx
	.loc	3 165 46                # aes.c:165:46
	leaq	32(%r14), %rdi
	movl	$9, %esi
	movl	$8, %edx
	callq	_KLoad0
	.loc	3 165 11                # aes.c:165:11
	xorq	32(%r14), %rbx
	.loc	3 165 3                 # aes.c:165:3
	leaq	-64(%rbp), %r15
	movl	$1, (%rsp)
	movl	$10, %edi
	movl	$1, %esi
	movl	$3, %edx
	movl	$8, %ecx
	movl	$1, %r8d
	movl	$9, %r9d
	callq	_KTimestamp3
	movl	$10, %edi
	movl	$8, %edx
	movq	%r15, %rsi
	callq	_KStore
	movq	%rbx, -64(%rbp)
	.loc	3 166 33 is_stmt 1      # aes.c:166:33
	leaq	12(%r12), %rdi
	movl	$11, %esi
	movl	$8, %edx
	callq	_KLoad0
	.loc	3 166 11 is_stmt 0      # aes.c:166:11
	movq	12(%r12), %rbx
	.loc	3 166 47                # aes.c:166:47
	leaq	40(%r14), %rdi
	movl	$12, %esi
	movl	$8, %edx
	callq	_KLoad0
	.loc	3 166 11                # aes.c:166:11
	xorq	40(%r14), %rbx
	.loc	3 166 3                 # aes.c:166:3
	leaq	-56(%rbp), %r15
	movl	$1, (%rsp)
	movl	$13, %edi
	movl	$1, %esi
	movl	$3, %edx
	movl	$11, %ecx
	movl	$1, %r8d
	movl	$12, %r9d
	callq	_KTimestamp3
	movl	$13, %edi
	movl	$8, %edx
	movq	%r15, %rsi
	callq	_KStore
	movq	%rbx, -56(%rbp)
	.loc	3 167 3 is_stmt 1       # aes.c:167:3
	leaq	48(%r14), %r15
.Ltmp113:
	#DEBUG_VALUE: rijndael_enc_encrypt:b1 <- [RBP+-112]
	#DEBUG_VALUE: rijndael_enc_encrypt:kp <- R15
	.loc	3 169 12                # aes.c:169:12
	leaq	8(%r14), %rdi
	movl	$14, %esi
	movl	$8, %edx
	callq	_KLoad0
	movq	8(%r14), %rbx
.Ltmp114:
	#DEBUG_VALUE: rijndael_enc_encrypt:cx <- [RBP+-120]
	movl	$14, %edi
	movl	$14, %esi
	xorl	%edx, %edx
	callq	_KTimestamp1
	movl	$805, %r12d             # imm = 0x325
.Ltmp115:
	movl	$805, %edi              # imm = 0x325
	movl	$806, %esi              # imm = 0x326
	xorl	%edx, %edx
	movl	$1, %ecx
	movl	$2, %r8d
	callq	_KTimestamp2
	callq	_KPopCDep
	.loc	3 169 3 is_stmt 0       # aes.c:169:3
	cmpq	$10, %rbx
	je	.LBB1_6
.Ltmp116:
# BB#3:                                 # %if.end
	#DEBUG_VALUE: rijndael_enc_encrypt:out_blk <- [RBP+-168]
	#DEBUG_VALUE: rijndael_enc_encrypt:cx <- [RBP+-120]
	#DEBUG_VALUE: rijndael_enc_encrypt:kp <- R15
	#DEBUG_VALUE: rijndael_enc_encrypt:b0 <- [RBP+-80]
	#DEBUG_VALUE: rijndael_enc_encrypt:b1 <- [RBP+-112]
	cmpq	$14, %rbx
	jne	.LBB1_4
.Ltmp117:
# BB#7:                                 # %sw.bb
	#DEBUG_VALUE: rijndael_enc_encrypt:out_blk <- [RBP+-168]
	#DEBUG_VALUE: rijndael_enc_encrypt:cx <- [RBP+-120]
	#DEBUG_VALUE: rijndael_enc_encrypt:kp <- R15
	#DEBUG_VALUE: rijndael_enc_encrypt:b0 <- [RBP+-80]
	#DEBUG_VALUE: rijndael_enc_encrypt:b1 <- [RBP+-112]
	movl	$14, %edi
	callq	_KPushCDep
	movl	$352, %edi              # imm = 0x160
	callq	_KWork
	movl	$15, %esi
	movl	$8, %edx
	movq	%r15, %rdi
	callq	_KLoad0
	.loc	3 171 15 is_stmt 1      # aes.c:171:15
.Ltmp118:
	movq	-120(%rbp), %rax        # 8-byte Reload
.Ltmp119:
	#DEBUG_VALUE: rijndael_enc_encrypt:cx <- undef
	movq	48(%rax), %r12
.Ltmp120:
	#DEBUG_VALUE: rijndael_enc_encrypt:cx <- [RBP+-120]
	leaq	-80(%rbp), %rdi
	movl	$16, %esi
	movl	$8, %edx
	callq	_KLoad0
	.loc	3 171 67 is_stmt 0      # aes.c:171:67
	movzbl	-80(%rbp), %r15d
.Ltmp121:
	.loc	3 171 25                # aes.c:171:25
	leaq	rijndael_enc_ft_tab(,%r15,8), %rdi
	movl	$17, %esi
	movl	$18, %edx
	movl	$8, %ecx
	callq	_KLoad1
	movl	$19, %esi
	movl	$8, %edx
.Ltmp122:
	.loc	3 164 3 is_stmt 1       # aes.c:164:3
	leaq	-72(%rbp), %rax
	movq	%rax, %rdi
	callq	_KLoad0
	.loc	3 172 69                # aes.c:172:69
.Ltmp123:
	movq	-72(%rbp), %rax
	.loc	3 172 25 is_stmt 0      # aes.c:172:25
	movzbl	%ah, %eax  # NOREX
	leaq	rijndael_enc_ft_tab+2048(,%rax,8), %rdi
	movq	%rax, %r14
	movl	$20, %esi
	movl	$21, %edx
	movl	$8, %ecx
	callq	_KLoad1
	movl	$22, %esi
	movl	$8, %edx
.Ltmp124:
	.loc	3 165 3 is_stmt 1       # aes.c:165:3
	leaq	-64(%rbp), %rax
	movq	%rax, %rdi
	callq	_KLoad0
	.loc	3 173 69                # aes.c:173:69
.Ltmp125:
	movq	-64(%rbp), %r13
	shrq	$13, %r13
	.loc	3 173 25 is_stmt 0      # aes.c:173:25
	andq	$2040, %r13             # imm = 0x7F8
	leaq	rijndael_enc_ft_tab+4096(%r13), %rdi
	movl	$23, %esi
	movl	$24, %edx
	movl	$8, %ecx
	callq	_KLoad1
	movl	$25, %esi
	movl	$8, %edx
.Ltmp126:
	.loc	3 166 3 is_stmt 1       # aes.c:166:3
	leaq	-56(%rbp), %rax
	movq	%rax, %rdi
	callq	_KLoad0
	.loc	3 174 69                # aes.c:174:69
.Ltmp127:
	movq	-56(%rbp), %rbx
	shrq	$21, %rbx
	.loc	3 174 25 is_stmt 0      # aes.c:174:25
	andq	$2040, %rbx             # imm = 0x7F8
	leaq	rijndael_enc_ft_tab+6144(%rbx), %rdi
	movl	$26, %esi
	movl	$27, %edx
	movl	$8, %ecx
	callq	_KLoad1
	.loc	3 171 25 is_stmt 1      # aes.c:171:25
	xorq	rijndael_enc_ft_tab(,%r15,8), %r12
	xorq	rijndael_enc_ft_tab+2048(,%r14,8), %r12
	xorq	rijndael_enc_ft_tab+4096(%r13), %r12
	.loc	3 171 15 is_stmt 0      # aes.c:171:15
	xorq	rijndael_enc_ft_tab+6144(%rbx), %r12
	movl	$3, 48(%rsp)
	movl	$23, 40(%rsp)
	movl	$4, 32(%rsp)
	movl	$20, 24(%rsp)
	movl	$4, 16(%rsp)
	movl	$17, 8(%rsp)
	movl	$1, (%rsp)
	movl	$28, %edi
	movl	$26, %esi
	movl	$2, %edx
	movl	$14, %ecx
	movl	$4, %r8d
	movl	$15, %r9d
	callq	_KTimestamp6
	leaq	-112(%rbp), %rsi
	movq	%rsi, -136(%rbp)        # 8-byte Spill
	movl	$28, %edi
	movl	$8, %edx
	callq	_KStore
	.loc	3 171 7                 # aes.c:171:7
	movq	%r12, -112(%rbp)
	movq	-120(%rbp), %rbx        # 8-byte Reload
.Ltmp128:
	#DEBUG_VALUE: rijndael_enc_encrypt:cx <- RBX
	.loc	3 175 15 is_stmt 1      # aes.c:175:15
	leaq	56(%rbx), %rdi
	movl	$29, %esi
	movl	$8, %edx
	callq	_KLoad0
	movq	56(%rbx), %r12
.Ltmp129:
	#DEBUG_VALUE: rijndael_enc_encrypt:cx <- [RBP+-120]
	movl	$30, %esi
	movl	$8, %edx
.Ltmp130:
	.loc	3 164 3                 # aes.c:164:3
	leaq	-72(%rbp), %rdi
	callq	_KLoad0
	.loc	3 175 67                # aes.c:175:67
.Ltmp131:
	movzbl	-72(%rbp), %eax
	.loc	3 175 25 is_stmt 0      # aes.c:175:25
	movq	%rax, -128(%rbp)        # 8-byte Spill
	leaq	rijndael_enc_ft_tab(,%rax,8), %rdi
	movl	$31, %esi
	movl	$32, %edx
	movl	$8, %ecx
	callq	_KLoad1
	movl	$33, %esi
	movl	$8, %edx
.Ltmp132:
	.loc	3 165 3 is_stmt 1       # aes.c:165:3
	leaq	-64(%rbp), %r14
	movq	%r14, %rdi
	callq	_KLoad0
	.loc	3 176 69                # aes.c:176:69
.Ltmp133:
	movq	-64(%rbp), %rax
	.loc	3 176 25 is_stmt 0      # aes.c:176:25
	movzbl	%ah, %eax  # NOREX
	movq	%rax, -144(%rbp)        # 8-byte Spill
	leaq	rijndael_enc_ft_tab+2048(,%rax,8), %rdi
	movl	$34, %esi
	movl	$35, %edx
	movl	$8, %ecx
	callq	_KLoad1
	movl	$36, %esi
	movl	$8, %edx
.Ltmp134:
	.loc	3 166 3 is_stmt 1       # aes.c:166:3
	leaq	-56(%rbp), %r15
	movq	%r15, %rdi
	callq	_KLoad0
	.loc	3 177 69                # aes.c:177:69
.Ltmp135:
	movq	-56(%rbp), %r13
	shrq	$13, %r13
	.loc	3 177 25 is_stmt 0      # aes.c:177:25
	andq	$2040, %r13             # imm = 0x7F8
	leaq	rijndael_enc_ft_tab+4096(%r13), %rdi
	movl	$37, %esi
	movl	$38, %edx
	movl	$8, %ecx
	callq	_KLoad1
	movl	$39, %esi
	movl	$8, %edx
	leaq	-80(%rbp), %rdi
	callq	_KLoad0
	.loc	3 178 69 is_stmt 1      # aes.c:178:69
	movq	-80(%rbp), %rbx
	shrq	$21, %rbx
	.loc	3 178 25 is_stmt 0      # aes.c:178:25
	andq	$2040, %rbx             # imm = 0x7F8
	leaq	rijndael_enc_ft_tab+6144(%rbx), %rdi
	movl	$40, %esi
	movl	$41, %edx
	movl	$8, %ecx
	callq	_KLoad1
	.loc	3 175 25 is_stmt 1      # aes.c:175:25
	movq	-128(%rbp), %rax        # 8-byte Reload
	xorq	rijndael_enc_ft_tab(,%rax,8), %r12
	movq	-144(%rbp), %rax        # 8-byte Reload
	xorq	rijndael_enc_ft_tab+2048(,%rax,8), %r12
	xorq	rijndael_enc_ft_tab+4096(%r13), %r12
	.loc	3 175 15 is_stmt 0      # aes.c:175:15
	xorq	rijndael_enc_ft_tab+6144(%rbx), %r12
	.loc	3 175 7                 # aes.c:175:7
	leaq	-104(%rbp), %rax
	movq	%rax, -160(%rbp)        # 8-byte Spill
	movq	%rax, %rbx
	movl	$2, 48(%rsp)
	movl	$40, 40(%rsp)
	movl	$3, 32(%rsp)
	movl	$37, 24(%rsp)
	movl	$4, 16(%rsp)
	movl	$34, 8(%rsp)
	movl	$4, (%rsp)
	movl	$42, %edi
	movl	$29, %esi
	movl	$1, %edx
	movl	$14, %ecx
	movl	$4, %r8d
	movl	$31, %r9d
	callq	_KTimestamp6
	movl	$42, %edi
	movl	$8, %edx
	movq	%rbx, %rsi
	callq	_KStore
	movq	%r12, -104(%rbp)
	movq	-120(%rbp), %rbx        # 8-byte Reload
.Ltmp136:
	#DEBUG_VALUE: rijndael_enc_encrypt:cx <- RBX
	.loc	3 179 15 is_stmt 1      # aes.c:179:15
	leaq	64(%rbx), %rdi
	movl	$43, %esi
	movl	$8, %edx
	callq	_KLoad0
	movq	64(%rbx), %r12
.Ltmp137:
	#DEBUG_VALUE: rijndael_enc_encrypt:cx <- [RBP+-120]
	movl	$44, %esi
	movl	$8, %edx
	movq	%r14, %rdi
	callq	_KLoad0
	.loc	3 179 67 is_stmt 0      # aes.c:179:67
	movzbl	-64(%rbp), %eax
	.loc	3 179 25                # aes.c:179:25
	movq	%rax, -128(%rbp)        # 8-byte Spill
	leaq	rijndael_enc_ft_tab(,%rax,8), %rdi
	movl	$45, %esi
	movl	$46, %edx
	movl	$8, %ecx
	callq	_KLoad1
	movl	$47, %esi
	movl	$8, %edx
	movq	%r15, %rdi
	callq	_KLoad0
	.loc	3 180 69 is_stmt 1      # aes.c:180:69
	movq	-56(%rbp), %rax
	.loc	3 180 25 is_stmt 0      # aes.c:180:25
	movzbl	%ah, %eax  # NOREX
	movq	%rax, -144(%rbp)        # 8-byte Spill
	leaq	rijndael_enc_ft_tab+2048(,%rax,8), %rdi
	movl	$48, %esi
	movl	$49, %edx
	movl	$8, %ecx
	callq	_KLoad1
	movl	$50, %esi
	movl	$8, %edx
	leaq	-80(%rbp), %r15
	movq	%r15, %rdi
	callq	_KLoad0
	.loc	3 181 69 is_stmt 1      # aes.c:181:69
	movq	-80(%rbp), %r13
	shrq	$13, %r13
	.loc	3 181 25 is_stmt 0      # aes.c:181:25
	andq	$2040, %r13             # imm = 0x7F8
	leaq	rijndael_enc_ft_tab+4096(%r13), %rdi
	movl	$51, %esi
	movl	$52, %edx
	movl	$8, %ecx
	callq	_KLoad1
	movl	$53, %esi
	movl	$8, %edx
.Ltmp138:
	.loc	3 164 3 is_stmt 1       # aes.c:164:3
	leaq	-72(%rbp), %r14
	movq	%r14, %rdi
	callq	_KLoad0
	.loc	3 182 69                # aes.c:182:69
.Ltmp139:
	movq	-72(%rbp), %rbx
	shrq	$21, %rbx
	.loc	3 182 25 is_stmt 0      # aes.c:182:25
	andq	$2040, %rbx             # imm = 0x7F8
	leaq	rijndael_enc_ft_tab+6144(%rbx), %rdi
	movl	$54, %esi
	movl	$55, %edx
	movl	$8, %ecx
	callq	_KLoad1
	.loc	3 179 25 is_stmt 1      # aes.c:179:25
	movq	-128(%rbp), %rax        # 8-byte Reload
	xorq	rijndael_enc_ft_tab(,%rax,8), %r12
	movq	-144(%rbp), %rax        # 8-byte Reload
	xorq	rijndael_enc_ft_tab+2048(,%rax,8), %r12
	xorq	rijndael_enc_ft_tab+4096(%r13), %r12
	.loc	3 179 15 is_stmt 0      # aes.c:179:15
	xorq	rijndael_enc_ft_tab+6144(%rbx), %r12
	.loc	3 179 7                 # aes.c:179:7
	leaq	-96(%rbp), %rax
	movq	%rax, -144(%rbp)        # 8-byte Spill
	movq	%rax, %rbx
	movl	$2, 48(%rsp)
	movl	$54, 40(%rsp)
	movl	$3, 32(%rsp)
	movl	$51, 24(%rsp)
	movl	$4, 16(%rsp)
	movl	$48, 8(%rsp)
	movl	$4, (%rsp)
	movl	$56, %edi
	movl	$14, %esi
	movl	$4, %edx
	movl	$43, %ecx
	movl	$1, %r8d
	movl	$45, %r9d
	callq	_KTimestamp6
	movl	$56, %edi
	movl	$8, %edx
	movq	%rbx, %rsi
	callq	_KStore
	movq	%r12, -96(%rbp)
	movq	-120(%rbp), %rbx        # 8-byte Reload
.Ltmp140:
	#DEBUG_VALUE: rijndael_enc_encrypt:cx <- RBX
	.loc	3 183 15 is_stmt 1      # aes.c:183:15
	leaq	72(%rbx), %rdi
	movl	$57, %esi
	movl	$8, %edx
	callq	_KLoad0
	movq	72(%rbx), %r12
.Ltmp141:
	#DEBUG_VALUE: rijndael_enc_encrypt:cx <- [RBP+-120]
	movl	$58, %esi
	movl	$8, %edx
.Ltmp142:
	.loc	3 166 3                 # aes.c:166:3
	leaq	-56(%rbp), %rdi
	callq	_KLoad0
	.loc	3 183 67                # aes.c:183:67
.Ltmp143:
	movzbl	-56(%rbp), %eax
	.loc	3 183 25 is_stmt 0      # aes.c:183:25
	movq	%rax, -128(%rbp)        # 8-byte Spill
	leaq	rijndael_enc_ft_tab(,%rax,8), %rdi
	movl	$59, %esi
	movl	$60, %edx
	movl	$8, %ecx
	callq	_KLoad1
	movl	$61, %esi
	movl	$8, %edx
	movq	%r15, %rdi
	callq	_KLoad0
	.loc	3 184 69 is_stmt 1      # aes.c:184:69
	movq	-80(%rbp), %rax
	.loc	3 184 25 is_stmt 0      # aes.c:184:25
	movzbl	%ah, %eax  # NOREX
	leaq	rijndael_enc_ft_tab+2048(,%rax,8), %rdi
	movq	%rax, %r15
	movl	$62, %esi
	movl	$63, %edx
	movl	$8, %ecx
	callq	_KLoad1
	movl	$64, %esi
	movl	$8, %edx
	movq	%r14, %rdi
	callq	_KLoad0
	.loc	3 185 69 is_stmt 1      # aes.c:185:69
	movq	-72(%rbp), %r13
	shrq	$13, %r13
	.loc	3 185 25 is_stmt 0      # aes.c:185:25
	andq	$2040, %r13             # imm = 0x7F8
	leaq	rijndael_enc_ft_tab+4096(%r13), %rdi
	movl	$65, %esi
	movl	$66, %edx
	movl	$8, %ecx
	callq	_KLoad1
	movl	$67, %esi
	movl	$8, %edx
.Ltmp144:
	.loc	3 165 3 is_stmt 1       # aes.c:165:3
	leaq	-64(%rbp), %rdi
	callq	_KLoad0
	.loc	3 186 69                # aes.c:186:69
.Ltmp145:
	movq	-64(%rbp), %rbx
	shrq	$21, %rbx
	.loc	3 186 25 is_stmt 0      # aes.c:186:25
	andq	$2040, %rbx             # imm = 0x7F8
	leaq	rijndael_enc_ft_tab+6144(%rbx), %rdi
	movl	$68, %esi
	movl	$69, %edx
	movl	$8, %ecx
	callq	_KLoad1
	.loc	3 183 25 is_stmt 1      # aes.c:183:25
	movq	-128(%rbp), %rax        # 8-byte Reload
	xorq	rijndael_enc_ft_tab(,%rax,8), %r12
	xorq	rijndael_enc_ft_tab+2048(,%r15,8), %r12
	xorq	rijndael_enc_ft_tab+4096(%r13), %r12
	.loc	3 183 15 is_stmt 0      # aes.c:183:15
	xorq	rijndael_enc_ft_tab+6144(%rbx), %r12
	.loc	3 183 7                 # aes.c:183:7
	leaq	-88(%rbp), %rax
	movq	%rax, -152(%rbp)        # 8-byte Spill
	movq	%rax, %rbx
	movl	$2, 48(%rsp)
	movl	$68, 40(%rsp)
	movl	$3, 32(%rsp)
	movl	$65, 24(%rsp)
	movl	$4, 16(%rsp)
	movl	$62, 8(%rsp)
	movl	$4, (%rsp)
	movl	$70, %edi
	movl	$14, %esi
	movl	$4, %edx
	movl	$57, %ecx
	movl	$1, %r8d
	movl	$59, %r9d
	callq	_KTimestamp6
	movl	$70, %edi
	movl	$8, %edx
	movq	%rbx, %rsi
	callq	_KStore
	movq	%r12, -88(%rbp)
	movq	-120(%rbp), %rbx        # 8-byte Reload
.Ltmp146:
	#DEBUG_VALUE: rijndael_enc_encrypt:cx <- RBX
	.loc	3 187 17 is_stmt 1      # aes.c:187:17
	leaq	80(%rbx), %rdi
	movl	$71, %esi
	movl	$8, %edx
	callq	_KLoad0
	.loc	3 187 15 is_stmt 0      # aes.c:187:15
	movq	80(%rbx), %r12
.Ltmp147:
	#DEBUG_VALUE: rijndael_enc_encrypt:cx <- [RBP+-120]
	movl	$72, %esi
	movl	$8, %edx
	leaq	-112(%rbp), %rax
	movq	%rax, %rdi
	callq	_KLoad0
	.loc	3 187 75                # aes.c:187:75
	movzbl	-112(%rbp), %r15d
	.loc	3 187 33                # aes.c:187:33
	leaq	rijndael_enc_ft_tab(,%r15,8), %rdi
	movl	$73, %esi
	movl	$74, %edx
	movl	$8, %ecx
	callq	_KLoad1
	movl	$75, %esi
	movl	$8, %edx
	.loc	3 175 7 is_stmt 1       # aes.c:175:7
	leaq	-104(%rbp), %r14
	movq	%r14, %rdi
	callq	_KLoad0
	.loc	3 188 77                # aes.c:188:77
	movq	-104(%rbp), %rax
	.loc	3 188 33 is_stmt 0      # aes.c:188:33
	movzbl	%ah, %eax  # NOREX
	movq	%rax, -128(%rbp)        # 8-byte Spill
	leaq	rijndael_enc_ft_tab+2048(,%rax,8), %rdi
	movl	$76, %esi
	movl	$77, %edx
	movl	$8, %ecx
	callq	_KLoad1
	movl	$78, %esi
	movl	$8, %edx
	.loc	3 179 7 is_stmt 1       # aes.c:179:7
	leaq	-96(%rbp), %rdi
	callq	_KLoad0
	.loc	3 189 77                # aes.c:189:77
	movq	-96(%rbp), %r13
	shrq	$13, %r13
	.loc	3 189 33 is_stmt 0      # aes.c:189:33
	andq	$2040, %r13             # imm = 0x7F8
	leaq	rijndael_enc_ft_tab+4096(%r13), %rdi
	movl	$79, %esi
	movl	$80, %edx
	movl	$8, %ecx
	callq	_KLoad1
	movl	$81, %esi
	movl	$8, %edx
	.loc	3 183 7 is_stmt 1       # aes.c:183:7
	leaq	-88(%rbp), %rdi
	callq	_KLoad0
	.loc	3 190 77                # aes.c:190:77
	movq	-88(%rbp), %rbx
	shrq	$21, %rbx
	.loc	3 190 33 is_stmt 0      # aes.c:190:33
	andq	$2040, %rbx             # imm = 0x7F8
	leaq	rijndael_enc_ft_tab+6144(%rbx), %rdi
	movl	$82, %esi
	movl	$83, %edx
	movl	$8, %ecx
	callq	_KLoad1
	.loc	3 187 33 is_stmt 1      # aes.c:187:33
	xorq	rijndael_enc_ft_tab(,%r15,8), %r12
	movq	-128(%rbp), %rax        # 8-byte Reload
	xorq	rijndael_enc_ft_tab+2048(,%rax,8), %r12
	xorq	rijndael_enc_ft_tab+4096(%r13), %r12
	.loc	3 187 15 is_stmt 0      # aes.c:187:15
	xorq	rijndael_enc_ft_tab+6144(%rbx), %r12
	movl	$2, 48(%rsp)
	movl	$82, 40(%rsp)
	movl	$3, 32(%rsp)
	movl	$79, 24(%rsp)
	movl	$4, 16(%rsp)
	movl	$76, 8(%rsp)
	movl	$4, (%rsp)
	movl	$84, %edi
	movl	$14, %esi
	movl	$4, %edx
	movl	$71, %ecx
	movl	$1, %r8d
	movl	$73, %r9d
	callq	_KTimestamp6
	movl	$84, %edi
	movl	$8, %edx
	leaq	-80(%rbp), %rsi
	callq	_KStore
	.loc	3 187 7                 # aes.c:187:7
	movq	%r12, -80(%rbp)
	movq	-120(%rbp), %rbx        # 8-byte Reload
.Ltmp148:
	#DEBUG_VALUE: rijndael_enc_encrypt:cx <- RBX
	.loc	3 191 15 is_stmt 1      # aes.c:191:15
	leaq	88(%rbx), %rdi
	movl	$85, %esi
	movl	$8, %edx
	callq	_KLoad0
	movq	88(%rbx), %r12
.Ltmp149:
	#DEBUG_VALUE: rijndael_enc_encrypt:cx <- [RBP+-120]
	movl	$86, %esi
	movl	$8, %edx
	movq	%r14, %rdi
	callq	_KLoad0
	.loc	3 191 75 is_stmt 0      # aes.c:191:75
	movzbl	-104(%rbp), %eax
	.loc	3 191 33                # aes.c:191:33
	movq	%rax, -128(%rbp)        # 8-byte Spill
	leaq	rijndael_enc_ft_tab(,%rax,8), %rdi
	movl	$87, %esi
	movl	$88, %edx
	movl	$8, %ecx
	callq	_KLoad1
	movl	$89, %esi
	movl	$8, %edx
	.loc	3 179 7 is_stmt 1       # aes.c:179:7
	leaq	-96(%rbp), %r14
	movq	%r14, %rdi
	callq	_KLoad0
	.loc	3 192 77                # aes.c:192:77
	movq	-96(%rbp), %rax
	.loc	3 192 33 is_stmt 0      # aes.c:192:33
	movzbl	%ah, %eax  # NOREX
	movq	%rax, -176(%rbp)        # 8-byte Spill
	leaq	rijndael_enc_ft_tab+2048(,%rax,8), %rdi
	movl	$90, %esi
	movl	$91, %edx
	movl	$8, %ecx
	callq	_KLoad1
	movl	$92, %esi
	movl	$8, %edx
	.loc	3 183 7 is_stmt 1       # aes.c:183:7
	leaq	-88(%rbp), %r15
	movq	%r15, %rdi
	callq	_KLoad0
	.loc	3 193 77                # aes.c:193:77
	movq	-88(%rbp), %r13
	shrq	$13, %r13
	.loc	3 193 33 is_stmt 0      # aes.c:193:33
	andq	$2040, %r13             # imm = 0x7F8
	leaq	rijndael_enc_ft_tab+4096(%r13), %rdi
	movl	$93, %esi
	movl	$94, %edx
	movl	$8, %ecx
	callq	_KLoad1
	movl	$95, %esi
	movl	$8, %edx
	leaq	-112(%rbp), %rdi
	callq	_KLoad0
	.loc	3 194 77 is_stmt 1      # aes.c:194:77
	movq	-112(%rbp), %rbx
	shrq	$21, %rbx
	.loc	3 194 33 is_stmt 0      # aes.c:194:33
	andq	$2040, %rbx             # imm = 0x7F8
	leaq	rijndael_enc_ft_tab+6144(%rbx), %rdi
	movl	$96, %esi
	movl	$97, %edx
	movl	$8, %ecx
	callq	_KLoad1
	.loc	3 191 33 is_stmt 1      # aes.c:191:33
	movq	-128(%rbp), %rax        # 8-byte Reload
	xorq	rijndael_enc_ft_tab(,%rax,8), %r12
	movq	-176(%rbp), %rax        # 8-byte Reload
	xorq	rijndael_enc_ft_tab+2048(,%rax,8), %r12
	xorq	rijndael_enc_ft_tab+4096(%r13), %r12
	.loc	3 191 15 is_stmt 0      # aes.c:191:15
	xorq	rijndael_enc_ft_tab+6144(%rbx), %r12
	movl	$2, 48(%rsp)
	movl	$96, 40(%rsp)
	movl	$3, 32(%rsp)
	movl	$93, 24(%rsp)
	movl	$4, 16(%rsp)
	movl	$90, 8(%rsp)
	movl	$4, (%rsp)
	movl	$98, %edi
	movl	$14, %esi
	movl	$4, %edx
	movl	$85, %ecx
	movl	$1, %r8d
	movl	$87, %r9d
	callq	_KTimestamp6
	movl	$98, %edi
	movl	$8, %edx
.Ltmp150:
	.loc	3 164 3 is_stmt 1       # aes.c:164:3
	leaq	-72(%rbp), %rsi
	callq	_KStore
	.loc	3 191 7                 # aes.c:191:7
.Ltmp151:
	movq	%r12, -72(%rbp)
	movq	-120(%rbp), %rbx        # 8-byte Reload
.Ltmp152:
	#DEBUG_VALUE: rijndael_enc_encrypt:cx <- RBX
	.loc	3 195 15                # aes.c:195:15
	leaq	96(%rbx), %rdi
	movl	$99, %esi
	movl	$8, %edx
	callq	_KLoad0
	movq	96(%rbx), %r12
.Ltmp153:
	#DEBUG_VALUE: rijndael_enc_encrypt:cx <- [RBP+-120]
	movl	$100, %esi
	movl	$8, %edx
	movq	%r14, %rdi
	callq	_KLoad0
	.loc	3 195 75 is_stmt 0      # aes.c:195:75
	movzbl	-96(%rbp), %r14d
	.loc	3 195 33                # aes.c:195:33
	leaq	rijndael_enc_ft_tab(,%r14,8), %rdi
	movl	$101, %esi
	movl	$102, %edx
	movl	$8, %ecx
	callq	_KLoad1
	movl	$103, %esi
	movl	$8, %edx
	movq	%r15, %rdi
	callq	_KLoad0
	.loc	3 196 77 is_stmt 1      # aes.c:196:77
	movq	-88(%rbp), %rax
	.loc	3 196 33 is_stmt 0      # aes.c:196:33
	movzbl	%ah, %eax  # NOREX
	leaq	rijndael_enc_ft_tab+2048(,%rax,8), %rdi
	movq	%rax, %r15
	movl	$104, %esi
	movl	$105, %edx
	movl	$8, %ecx
	callq	_KLoad1
	movl	$106, %esi
	movl	$8, %edx
	leaq	-112(%rbp), %rdi
	callq	_KLoad0
	.loc	3 197 77 is_stmt 1      # aes.c:197:77
	movq	-112(%rbp), %r13
	shrq	$13, %r13
	.loc	3 197 33 is_stmt 0      # aes.c:197:33
	andq	$2040, %r13             # imm = 0x7F8
	leaq	rijndael_enc_ft_tab+4096(%r13), %rdi
	movl	$107, %esi
	movl	$108, %edx
	movl	$8, %ecx
	callq	_KLoad1
	movl	$109, %esi
	movl	$8, %edx
	.loc	3 175 7 is_stmt 1       # aes.c:175:7
	leaq	-104(%rbp), %rdi
	callq	_KLoad0
	.loc	3 198 77                # aes.c:198:77
	movq	-104(%rbp), %rbx
	shrq	$21, %rbx
	.loc	3 198 33 is_stmt 0      # aes.c:198:33
	andq	$2040, %rbx             # imm = 0x7F8
	leaq	rijndael_enc_ft_tab+6144(%rbx), %rdi
	movl	$110, %esi
	movl	$111, %edx
	movl	$8, %ecx
	callq	_KLoad1
	.loc	3 195 33 is_stmt 1      # aes.c:195:33
	xorq	rijndael_enc_ft_tab(,%r14,8), %r12
	xorq	rijndael_enc_ft_tab+2048(,%r15,8), %r12
	xorq	rijndael_enc_ft_tab+4096(%r13), %r12
	.loc	3 195 15 is_stmt 0      # aes.c:195:15
	xorq	rijndael_enc_ft_tab+6144(%rbx), %r12
	movl	$2, 48(%rsp)
	movl	$110, 40(%rsp)
	movl	$3, 32(%rsp)
	movl	$107, 24(%rsp)
	movl	$4, 16(%rsp)
	movl	$104, 8(%rsp)
	movl	$4, (%rsp)
	movl	$112, %edi
	movl	$14, %esi
	movl	$4, %edx
	movl	$99, %ecx
	movl	$1, %r8d
	movl	$101, %r9d
	callq	_KTimestamp6
	movl	$112, %edi
	movl	$8, %edx
.Ltmp154:
	.loc	3 165 3 is_stmt 1       # aes.c:165:3
	leaq	-64(%rbp), %rsi
	callq	_KStore
	.loc	3 195 7                 # aes.c:195:7
.Ltmp155:
	movq	%r12, -64(%rbp)
	movq	-120(%rbp), %rbx        # 8-byte Reload
.Ltmp156:
	#DEBUG_VALUE: rijndael_enc_encrypt:cx <- RBX
	.loc	3 199 15                # aes.c:199:15
	leaq	104(%rbx), %rdi
	movl	$113, %esi
	movl	$8, %edx
	callq	_KLoad0
	movq	104(%rbx), %r12
.Ltmp157:
	#DEBUG_VALUE: rijndael_enc_encrypt:cx <- [RBP+-120]
	movl	$114, %esi
	movl	$8, %edx
	.loc	3 183 7                 # aes.c:183:7
	leaq	-88(%rbp), %rdi
	callq	_KLoad0
	.loc	3 199 75                # aes.c:199:75
	movzbl	-88(%rbp), %r15d
	.loc	3 199 33 is_stmt 0      # aes.c:199:33
	leaq	rijndael_enc_ft_tab(,%r15,8), %rdi
	movl	$115, %esi
	movl	$116, %edx
	movl	$8, %ecx
	callq	_KLoad1
	movl	$117, %esi
	movl	$8, %edx
	leaq	-112(%rbp), %rdi
	callq	_KLoad0
	.loc	3 200 77 is_stmt 1      # aes.c:200:77
	movq	-112(%rbp), %rax
	.loc	3 200 33 is_stmt 0      # aes.c:200:33
	movzbl	%ah, %eax  # NOREX
	leaq	rijndael_enc_ft_tab+2048(,%rax,8), %rdi
	movq	%rax, %r14
	movl	$118, %esi
	movl	$119, %edx
	movl	$8, %ecx
	callq	_KLoad1
	movl	$120, %esi
	movl	$8, %edx
	.loc	3 175 7 is_stmt 1       # aes.c:175:7
	leaq	-104(%rbp), %rdi
	callq	_KLoad0
	.loc	3 201 77                # aes.c:201:77
	movq	-104(%rbp), %r13
	shrq	$13, %r13
	.loc	3 201 33 is_stmt 0      # aes.c:201:33
	andq	$2040, %r13             # imm = 0x7F8
	leaq	rijndael_enc_ft_tab+4096(%r13), %rdi
	movl	$121, %esi
	movl	$122, %edx
	movl	$8, %ecx
	callq	_KLoad1
	movl	$123, %esi
	movl	$8, %edx
	.loc	3 179 7 is_stmt 1       # aes.c:179:7
	leaq	-96(%rbp), %rdi
	callq	_KLoad0
	.loc	3 202 77                # aes.c:202:77
	movq	-96(%rbp), %rbx
	shrq	$21, %rbx
	.loc	3 202 33 is_stmt 0      # aes.c:202:33
	andq	$2040, %rbx             # imm = 0x7F8
	leaq	rijndael_enc_ft_tab+6144(%rbx), %rdi
	movl	$124, %esi
	movl	$125, %edx
	movl	$8, %ecx
	callq	_KLoad1
	.loc	3 199 33 is_stmt 1      # aes.c:199:33
	xorq	rijndael_enc_ft_tab(,%r15,8), %r12
	xorq	rijndael_enc_ft_tab+2048(,%r14,8), %r12
	xorq	rijndael_enc_ft_tab+4096(%r13), %r12
	.loc	3 199 15 is_stmt 0      # aes.c:199:15
	xorq	rijndael_enc_ft_tab+6144(%rbx), %r12
	movl	$2, 48(%rsp)
	movl	$124, 40(%rsp)
	movl	$3, 32(%rsp)
	movl	$121, 24(%rsp)
	movl	$4, 16(%rsp)
	movl	$118, 8(%rsp)
	movl	$4, (%rsp)
	movl	$126, %edi
	movl	$14, %esi
	movl	$4, %edx
	movl	$113, %ecx
	movl	$1, %r8d
	movl	$115, %r9d
	callq	_KTimestamp6
	movl	$126, %edi
	movl	$8, %edx
.Ltmp158:
	.loc	3 166 3 is_stmt 1       # aes.c:166:3
	leaq	-56(%rbp), %rsi
	movq	%rsi, %r13
	callq	_KStore
	.loc	3 199 7                 # aes.c:199:7
.Ltmp159:
	movq	%r12, -56(%rbp)
	.loc	3 203 7                 # aes.c:203:7
	movq	-120(%rbp), %rax        # 8-byte Reload
	leaq	112(%rax), %r15
.Ltmp160:
	#DEBUG_VALUE: rijndael_enc_encrypt:kp <- R15
	movl	$0, (%rsp)
	movl	$807, %r12d             # imm = 0x327
	movl	$807, %edi              # imm = 0x327
	movl	$806, %esi              # imm = 0x326
	xorl	%edx, %edx
	movl	$1, %ecx
	movl	$2, %r8d
	movl	$14, %r9d
	callq	_KTimestamp3
	callq	_KPopCDep
	movl	$20, %eax
	movq	%rax, -128(%rbp)        # 8-byte Spill
	movl	$19, %r8d
	movl	$18, %ecx
	movl	$17, %edx
	movl	$16, %esi
	movl	$15, %edi
	movl	$14, %ebx
	movl	$13, %eax
	jmp	.LBB1_8
.Ltmp161:
.LBB1_1:                                # %if.then
	callq	_KPopCDep
	xorl	%ebx, %ebx
	jmp	.LBB1_11
.LBB1_6:                                # %if.end.sw.bb423_crit_edge
	#DEBUG_VALUE: rijndael_enc_encrypt:out_blk <- [RBP+-168]
	#DEBUG_VALUE: rijndael_enc_encrypt:cx <- [RBP+-120]
.Ltmp162:
	#DEBUG_VALUE: rijndael_enc_encrypt:kp <- R15
	#DEBUG_VALUE: rijndael_enc_encrypt:b0 <- [RBP+-80]
	#DEBUG_VALUE: rijndael_enc_encrypt:b1 <- [RBP+-112]
	leaq	-112(%rbp), %rax
	.loc	3 243 7                 # aes.c:243:7
	movq	%rax, -136(%rbp)        # 8-byte Spill
	leaq	-104(%rbp), %rax
	.loc	3 247 7                 # aes.c:247:7
	movq	%rax, -160(%rbp)        # 8-byte Spill
	leaq	-96(%rbp), %rax
	.loc	3 251 7                 # aes.c:251:7
	movq	%rax, -144(%rbp)        # 8-byte Spill
	leaq	-88(%rbp), %rax
	movq	%rax, -152(%rbp)        # 8-byte Spill
	movl	$4, %eax
.Ltmp163:
	.loc	3 164 3                 # aes.c:164:3
	movq	%rax, -128(%rbp)        # 8-byte Spill
	leaq	-72(%rbp), %r14
	.loc	3 165 3                 # aes.c:165:3
	leaq	-64(%rbp), %rax
	movq	%rax, %rbx
	jmp	.LBB1_9
.Ltmp164:
.LBB1_4:                                # %if.end
	#DEBUG_VALUE: rijndael_enc_encrypt:out_blk <- [RBP+-168]
	#DEBUG_VALUE: rijndael_enc_encrypt:cx <- [RBP+-120]
	#DEBUG_VALUE: rijndael_enc_encrypt:kp <- R15
	#DEBUG_VALUE: rijndael_enc_encrypt:b0 <- [RBP+-80]
	#DEBUG_VALUE: rijndael_enc_encrypt:b1 <- [RBP+-112]
	cmpq	$12, %rbx
	.loc	3 166 3                 # aes.c:166:3
	leaq	-56(%rbp), %r12
	jne	.LBB1_10
.Ltmp165:
# BB#5:                                 # %if.end.sw.bb217_crit_edge
	#DEBUG_VALUE: rijndael_enc_encrypt:out_blk <- [RBP+-168]
	#DEBUG_VALUE: rijndael_enc_encrypt:cx <- [RBP+-120]
	#DEBUG_VALUE: rijndael_enc_encrypt:kp <- R15
	#DEBUG_VALUE: rijndael_enc_encrypt:b0 <- [RBP+-80]
	#DEBUG_VALUE: rijndael_enc_encrypt:b1 <- [RBP+-112]
	leaq	-112(%rbp), %rax
	.loc	3 209 7                 # aes.c:209:7
.Ltmp166:
	movq	%rax, -136(%rbp)        # 8-byte Spill
	leaq	-104(%rbp), %rax
	.loc	3 213 7                 # aes.c:213:7
	movq	%rax, -160(%rbp)        # 8-byte Spill
	leaq	-96(%rbp), %rax
	.loc	3 217 7                 # aes.c:217:7
	movq	%rax, -144(%rbp)        # 8-byte Spill
	leaq	-88(%rbp), %rax
	movq	%rax, -152(%rbp)        # 8-byte Spill
	movq	%r12, %r13
	movl	$805, %r12d             # imm = 0x325
	movl	$12, %eax
	movq	%rax, -128(%rbp)        # 8-byte Spill
	movl	$11, %r8d
	movl	$10, %ecx
	movl	$9, %edx
	movl	$8, %esi
	movl	$7, %edi
	movl	$6, %ebx
	movl	$5, %eax
.Ltmp167:
.LBB1_8:                                # %sw.bb217
	#DEBUG_VALUE: rijndael_enc_encrypt:out_blk <- [RBP+-168]
	#DEBUG_VALUE: rijndael_enc_encrypt:cx <- [RBP+-120]
	#DEBUG_VALUE: rijndael_enc_encrypt:b0 <- [RBP+-80]
	#DEBUG_VALUE: rijndael_enc_encrypt:b1 <- [RBP+-112]
	movq	%rax, -224(%rbp)        # 8-byte Spill
	movq	%rbx, -216(%rbp)        # 8-byte Spill
	movq	%rdi, -208(%rbp)        # 8-byte Spill
	movq	%rsi, -200(%rbp)        # 8-byte Spill
	movq	%rdx, -192(%rbp)        # 8-byte Spill
	movq	%rcx, -184(%rbp)        # 8-byte Spill
	movq	%r8, -176(%rbp)         # 8-byte Spill
	movl	$14, %edi
	callq	_KPushCDep
	movl	$804, %edi              # imm = 0x324
	movl	$808, %edx              # imm = 0x328
	movl	$14, %ecx
	movl	%r12d, %esi
	callq	_KPhi2To1
	movl	$352, %edi              # imm = 0x160
	callq	_KWork
	movl	$127, %esi
	movl	$8, %edx
	movq	%r15, %rdi
	callq	_KLoad0
	.loc	3 205 15                # aes.c:205:15
	movq	(%r15), %r12
	leaq	-80(%rbp), %rdi
	movl	$128, %esi
	movl	$8, %edx
	callq	_KLoad0
	.loc	3 205 67 is_stmt 0      # aes.c:205:67
	movzbl	-80(%rbp), %r15d
	.loc	3 205 25                # aes.c:205:25
	leaq	rijndael_enc_ft_tab(,%r15,8), %rdi
	movl	$129, %esi
	movl	$130, %edx
	movl	$8, %ecx
	callq	_KLoad1
	movl	$131, %esi
	movl	$8, %edx
.Ltmp168:
	.loc	3 164 3 is_stmt 1       # aes.c:164:3
	leaq	-72(%rbp), %rax
	movq	%rax, %rdi
	callq	_KLoad0
	.loc	3 206 69                # aes.c:206:69
.Ltmp169:
	movq	-72(%rbp), %rax
	.loc	3 206 25 is_stmt 0      # aes.c:206:25
	movzbl	%ah, %eax  # NOREX
	leaq	rijndael_enc_ft_tab+2048(,%rax,8), %rdi
	movq	%rax, %r14
	movl	$132, %esi
	movl	$133, %edx
	movl	$8, %ecx
	callq	_KLoad1
	movl	$134, %esi
	movl	$8, %edx
.Ltmp170:
	.loc	3 165 3 is_stmt 1       # aes.c:165:3
	leaq	-64(%rbp), %rax
	movq	%rax, %rdi
	callq	_KLoad0
	.loc	3 207 69                # aes.c:207:69
.Ltmp171:
	movq	-64(%rbp), %rbx
	shrq	$13, %rbx
	.loc	3 207 25 is_stmt 0      # aes.c:207:25
	andq	$2040, %rbx             # imm = 0x7F8
	leaq	rijndael_enc_ft_tab+4096(%rbx), %rdi
	movl	$135, %esi
	movl	$136, %edx
	movl	$8, %ecx
	callq	_KLoad1
	movl	$137, %esi
	movl	$8, %edx
	movq	%r13, %rdi
	callq	_KLoad0
	.loc	3 208 69 is_stmt 1      # aes.c:208:69
	movq	-56(%rbp), %r13
	shrq	$21, %r13
	.loc	3 208 25 is_stmt 0      # aes.c:208:25
	andq	$2040, %r13             # imm = 0x7F8
	leaq	rijndael_enc_ft_tab+6144(%r13), %rdi
	movl	$138, %esi
	movl	$139, %edx
	movl	$8, %ecx
	callq	_KLoad1
	.loc	3 205 25 is_stmt 1      # aes.c:205:25
	xorq	rijndael_enc_ft_tab(,%r15,8), %r12
	xorq	rijndael_enc_ft_tab+2048(,%r14,8), %r12
	xorq	rijndael_enc_ft_tab+4096(%rbx), %r12
	.loc	3 205 15 is_stmt 0      # aes.c:205:15
	xorq	rijndael_enc_ft_tab+6144(%r13), %r12
	movl	$2, 48(%rsp)
	movl	$138, 40(%rsp)
	movl	$3, 32(%rsp)
	movl	$135, 24(%rsp)
	movl	$4, 16(%rsp)
	movl	$132, 8(%rsp)
	movl	$4, (%rsp)
	movl	$140, %edi
	movl	$14, %esi
	movl	$4, %edx
	movl	$127, %ecx
	movl	$1, %r8d
	movl	$129, %r9d
	callq	_KTimestamp6
	movl	$140, %edi
	movl	$8, %edx
	movq	-136(%rbp), %rsi        # 8-byte Reload
	callq	_KStore
	.loc	3 205 7                 # aes.c:205:7
	movq	%r12, -112(%rbp)
	movq	-120(%rbp), %rbx        # 8-byte Reload
.Ltmp172:
	#DEBUG_VALUE: rijndael_enc_encrypt:cx <- RBX
	movq	-224(%rbp), %r15        # 8-byte Reload
	.loc	3 209 15 is_stmt 1      # aes.c:209:15
	leaq	16(%rbx,%r15,8), %rdi
	movl	$141, %esi
	movl	$8, %edx
	callq	_KLoad0
	movq	16(%rbx,%r15,8), %r12
.Ltmp173:
	#DEBUG_VALUE: rijndael_enc_encrypt:cx <- [RBP+-120]
	movl	$142, %esi
	movl	$8, %edx
.Ltmp174:
	.loc	3 164 3                 # aes.c:164:3
	leaq	-72(%rbp), %rdi
	callq	_KLoad0
	.loc	3 209 67                # aes.c:209:67
.Ltmp175:
	movzbl	-72(%rbp), %r15d
	.loc	3 209 25 is_stmt 0      # aes.c:209:25
	leaq	rijndael_enc_ft_tab(,%r15,8), %rdi
	movl	$143, %esi
	movl	$144, %edx
	movl	$8, %ecx
	callq	_KLoad1
	movl	$145, %esi
	movl	$8, %edx
.Ltmp176:
	.loc	3 165 3 is_stmt 1       # aes.c:165:3
	leaq	-64(%rbp), %rdi
	callq	_KLoad0
	.loc	3 210 69                # aes.c:210:69
.Ltmp177:
	movq	-64(%rbp), %rax
	.loc	3 210 25 is_stmt 0      # aes.c:210:25
	movzbl	%ah, %eax  # NOREX
	movq	%rax, -224(%rbp)        # 8-byte Spill
	leaq	rijndael_enc_ft_tab+2048(,%rax,8), %rdi
	movl	$146, %esi
	movl	$147, %edx
	movl	$8, %ecx
	callq	_KLoad1
	movl	$148, %esi
	movl	$8, %edx
.Ltmp178:
	.loc	3 166 3 is_stmt 1       # aes.c:166:3
	leaq	-56(%rbp), %r14
	movq	%r14, %rdi
	callq	_KLoad0
	.loc	3 211 69                # aes.c:211:69
.Ltmp179:
	movq	-56(%rbp), %r13
	shrq	$13, %r13
	.loc	3 211 25 is_stmt 0      # aes.c:211:25
	andq	$2040, %r13             # imm = 0x7F8
	leaq	rijndael_enc_ft_tab+4096(%r13), %rdi
	movl	$149, %esi
	movl	$150, %edx
	movl	$8, %ecx
	callq	_KLoad1
	movl	$151, %esi
	movl	$8, %edx
	leaq	-80(%rbp), %rdi
	callq	_KLoad0
	.loc	3 212 69 is_stmt 1      # aes.c:212:69
	movq	-80(%rbp), %rbx
	shrq	$21, %rbx
	.loc	3 212 25 is_stmt 0      # aes.c:212:25
	andq	$2040, %rbx             # imm = 0x7F8
	leaq	rijndael_enc_ft_tab+6144(%rbx), %rdi
	movl	$152, %esi
	movl	$153, %edx
	movl	$8, %ecx
	callq	_KLoad1
	.loc	3 209 25 is_stmt 1      # aes.c:209:25
	xorq	rijndael_enc_ft_tab(,%r15,8), %r12
	movq	-224(%rbp), %rax        # 8-byte Reload
	xorq	rijndael_enc_ft_tab+2048(,%rax,8), %r12
	xorq	rijndael_enc_ft_tab+4096(%r13), %r12
	.loc	3 209 15 is_stmt 0      # aes.c:209:15
	xorq	rijndael_enc_ft_tab+6144(%rbx), %r12
	movl	$2, 48(%rsp)
	movl	$152, 40(%rsp)
	movl	$3, 32(%rsp)
	movl	$149, 24(%rsp)
	movl	$4, 16(%rsp)
	movl	$146, 8(%rsp)
	movl	$4, (%rsp)
	movl	$154, %edi
	movl	$14, %esi
	movl	$4, %edx
	movl	$141, %ecx
	movl	$1, %r8d
	movl	$143, %r9d
	callq	_KTimestamp6
	movl	$154, %edi
	movl	$8, %edx
	movq	-160(%rbp), %rsi        # 8-byte Reload
	callq	_KStore
	.loc	3 209 7                 # aes.c:209:7
	movq	%r12, -104(%rbp)
	movq	-216(%rbp), %r15        # 8-byte Reload
	movq	-120(%rbp), %rbx        # 8-byte Reload
.Ltmp180:
	#DEBUG_VALUE: rijndael_enc_encrypt:cx <- RBX
	.loc	3 213 15 is_stmt 1      # aes.c:213:15
	leaq	16(%rbx,%r15,8), %rdi
	movl	$155, %esi
	movl	$8, %edx
	callq	_KLoad0
	movq	16(%rbx,%r15,8), %r12
.Ltmp181:
	#DEBUG_VALUE: rijndael_enc_encrypt:cx <- undef
	movl	$156, %esi
	movl	$8, %edx
.Ltmp182:
	.loc	3 165 3                 # aes.c:165:3
	leaq	-64(%rbp), %rdi
	callq	_KLoad0
	.loc	3 213 67                # aes.c:213:67
.Ltmp183:
	movzbl	-64(%rbp), %eax
	.loc	3 213 25 is_stmt 0      # aes.c:213:25
	movq	%rax, -216(%rbp)        # 8-byte Spill
	leaq	rijndael_enc_ft_tab(,%rax,8), %rdi
	movl	$157, %esi
	movl	$158, %edx
	movl	$8, %ecx
	callq	_KLoad1
	movl	$159, %esi
	movl	$8, %edx
	movq	%r14, %rdi
	callq	_KLoad0
	.loc	3 214 69 is_stmt 1      # aes.c:214:69
	movq	-56(%rbp), %rax
	.loc	3 214 25 is_stmt 0      # aes.c:214:25
	movzbl	%ah, %eax  # NOREX
	movq	%rax, -224(%rbp)        # 8-byte Spill
	leaq	rijndael_enc_ft_tab+2048(,%rax,8), %rdi
	movl	$160, %esi
	movl	$161, %edx
	movl	$8, %ecx
	callq	_KLoad1
	movl	$162, %esi
	movl	$8, %edx
	leaq	-80(%rbp), %r15
	movq	%r15, %rdi
	callq	_KLoad0
	.loc	3 215 69 is_stmt 1      # aes.c:215:69
	movq	-80(%rbp), %r13
	shrq	$13, %r13
	.loc	3 215 25 is_stmt 0      # aes.c:215:25
	andq	$2040, %r13             # imm = 0x7F8
	leaq	rijndael_enc_ft_tab+4096(%r13), %rdi
	movl	$163, %esi
	movl	$164, %edx
	movl	$8, %ecx
	callq	_KLoad1
	movl	$165, %esi
	movl	$8, %edx
.Ltmp184:
	#DEBUG_VALUE: rijndael_enc_encrypt:cx <- [RBP+-120]
	.loc	3 164 3 is_stmt 1       # aes.c:164:3
	leaq	-72(%rbp), %r14
	movq	%r14, %rdi
	callq	_KLoad0
	.loc	3 216 69                # aes.c:216:69
.Ltmp185:
	movq	-72(%rbp), %rbx
	shrq	$21, %rbx
	.loc	3 216 25 is_stmt 0      # aes.c:216:25
	andq	$2040, %rbx             # imm = 0x7F8
	leaq	rijndael_enc_ft_tab+6144(%rbx), %rdi
	movl	$166, %esi
	movl	$167, %edx
	movl	$8, %ecx
	callq	_KLoad1
	.loc	3 213 25 is_stmt 1      # aes.c:213:25
	movq	-216(%rbp), %rax        # 8-byte Reload
	xorq	rijndael_enc_ft_tab(,%rax,8), %r12
	movq	-224(%rbp), %rax        # 8-byte Reload
	xorq	rijndael_enc_ft_tab+2048(,%rax,8), %r12
	xorq	rijndael_enc_ft_tab+4096(%r13), %r12
	.loc	3 213 15 is_stmt 0      # aes.c:213:15
	xorq	rijndael_enc_ft_tab+6144(%rbx), %r12
	movl	$2, 48(%rsp)
	movl	$166, 40(%rsp)
	movl	$3, 32(%rsp)
	movl	$163, 24(%rsp)
	movl	$4, 16(%rsp)
	movl	$160, 8(%rsp)
	movl	$4, (%rsp)
	movl	$168, %edi
	movl	$14, %esi
	movl	$4, %edx
	movl	$155, %ecx
	movl	$1, %r8d
	movl	$157, %r9d
	callq	_KTimestamp6
	movl	$168, %edi
	movl	$8, %edx
	movq	-144(%rbp), %rsi        # 8-byte Reload
	callq	_KStore
	.loc	3 213 7                 # aes.c:213:7
	movq	%r12, -96(%rbp)
	movq	-208(%rbp), %r12        # 8-byte Reload
	movq	-120(%rbp), %rbx        # 8-byte Reload
.Ltmp186:
	#DEBUG_VALUE: rijndael_enc_encrypt:cx <- RBX
	.loc	3 217 15 is_stmt 1      # aes.c:217:15
	leaq	16(%rbx,%r12,8), %rdi
	movl	$169, %esi
	movl	$8, %edx
	callq	_KLoad0
	movq	16(%rbx,%r12,8), %r12
.Ltmp187:
	#DEBUG_VALUE: rijndael_enc_encrypt:cx <- [RBP+-120]
	movl	$170, %esi
	movl	$8, %edx
.Ltmp188:
	.loc	3 166 3                 # aes.c:166:3
	leaq	-56(%rbp), %rdi
	callq	_KLoad0
	.loc	3 217 67                # aes.c:217:67
.Ltmp189:
	movzbl	-56(%rbp), %eax
	.loc	3 217 25 is_stmt 0      # aes.c:217:25
	movq	%rax, -208(%rbp)        # 8-byte Spill
	leaq	rijndael_enc_ft_tab(,%rax,8), %rdi
	movl	$171, %esi
	movl	$172, %edx
	movl	$8, %ecx
	callq	_KLoad1
	movl	$173, %esi
	movl	$8, %edx
	movq	%r15, %rdi
	callq	_KLoad0
	.loc	3 218 69 is_stmt 1      # aes.c:218:69
	movq	-80(%rbp), %rax
	.loc	3 218 25 is_stmt 0      # aes.c:218:25
	movzbl	%ah, %eax  # NOREX
	leaq	rijndael_enc_ft_tab+2048(,%rax,8), %rdi
	movq	%rax, %r15
	movl	$174, %esi
	movl	$175, %edx
	movl	$8, %ecx
	callq	_KLoad1
	movl	$176, %esi
	movl	$8, %edx
	movq	%r14, %rdi
	callq	_KLoad0
	.loc	3 219 69 is_stmt 1      # aes.c:219:69
	movq	-72(%rbp), %r13
	shrq	$13, %r13
	.loc	3 219 25 is_stmt 0      # aes.c:219:25
	andq	$2040, %r13             # imm = 0x7F8
	leaq	rijndael_enc_ft_tab+4096(%r13), %rdi
	movl	$177, %esi
	movl	$178, %edx
	movl	$8, %ecx
	callq	_KLoad1
	movl	$179, %esi
	movl	$8, %edx
.Ltmp190:
	.loc	3 165 3 is_stmt 1       # aes.c:165:3
	leaq	-64(%rbp), %rdi
	callq	_KLoad0
	.loc	3 220 69                # aes.c:220:69
.Ltmp191:
	movq	-64(%rbp), %rbx
	shrq	$21, %rbx
	.loc	3 220 25 is_stmt 0      # aes.c:220:25
	andq	$2040, %rbx             # imm = 0x7F8
	leaq	rijndael_enc_ft_tab+6144(%rbx), %rdi
	movl	$180, %esi
	movl	$181, %edx
	movl	$8, %ecx
	callq	_KLoad1
	.loc	3 217 25 is_stmt 1      # aes.c:217:25
	movq	-208(%rbp), %rax        # 8-byte Reload
	xorq	rijndael_enc_ft_tab(,%rax,8), %r12
	xorq	rijndael_enc_ft_tab+2048(,%r15,8), %r12
	xorq	rijndael_enc_ft_tab+4096(%r13), %r12
	.loc	3 217 15 is_stmt 0      # aes.c:217:15
	xorq	rijndael_enc_ft_tab+6144(%rbx), %r12
	movl	$2, 48(%rsp)
	movl	$180, 40(%rsp)
	movl	$3, 32(%rsp)
	movl	$177, 24(%rsp)
	movl	$4, 16(%rsp)
	movl	$174, 8(%rsp)
	movl	$4, (%rsp)
	movl	$182, %edi
	movl	$14, %esi
	movl	$4, %edx
	movl	$169, %ecx
	movl	$1, %r8d
	movl	$171, %r9d
	callq	_KTimestamp6
	movl	$182, %edi
	movl	$8, %edx
	movq	-152(%rbp), %rsi        # 8-byte Reload
	callq	_KStore
	.loc	3 217 7                 # aes.c:217:7
	movq	%r12, -88(%rbp)
	movq	-200(%rbp), %r14        # 8-byte Reload
	movq	-120(%rbp), %rbx        # 8-byte Reload
.Ltmp192:
	#DEBUG_VALUE: rijndael_enc_encrypt:cx <- RBX
	.loc	3 221 17 is_stmt 1      # aes.c:221:17
	leaq	16(%rbx,%r14,8), %rdi
	movl	$183, %esi
	movl	$8, %edx
	callq	_KLoad0
	.loc	3 221 15 is_stmt 0      # aes.c:221:15
	movq	16(%rbx,%r14,8), %r12
.Ltmp193:
	#DEBUG_VALUE: rijndael_enc_encrypt:cx <- [RBP+-120]
	movl	$184, %esi
	movl	$8, %edx
	movq	-136(%rbp), %rdi        # 8-byte Reload
	callq	_KLoad0
	.loc	3 221 75                # aes.c:221:75
	movzbl	-112(%rbp), %r15d
	.loc	3 221 33                # aes.c:221:33
	leaq	rijndael_enc_ft_tab(,%r15,8), %rdi
	movl	$185, %esi
	movl	$186, %edx
	movl	$8, %ecx
	callq	_KLoad1
	movl	$187, %esi
	movl	$8, %edx
	movq	-160(%rbp), %r14        # 8-byte Reload
	movq	%r14, %rdi
	callq	_KLoad0
	.loc	3 222 77 is_stmt 1      # aes.c:222:77
	movq	-104(%rbp), %rax
	.loc	3 222 33 is_stmt 0      # aes.c:222:33
	movzbl	%ah, %eax  # NOREX
	movq	%rax, -200(%rbp)        # 8-byte Spill
	leaq	rijndael_enc_ft_tab+2048(,%rax,8), %rdi
	movl	$188, %esi
	movl	$189, %edx
	movl	$8, %ecx
	callq	_KLoad1
	movl	$190, %esi
	movl	$8, %edx
	movq	-144(%rbp), %rdi        # 8-byte Reload
	callq	_KLoad0
	.loc	3 223 77 is_stmt 1      # aes.c:223:77
	movq	-96(%rbp), %r13
	shrq	$13, %r13
	.loc	3 223 33 is_stmt 0      # aes.c:223:33
	andq	$2040, %r13             # imm = 0x7F8
	leaq	rijndael_enc_ft_tab+4096(%r13), %rdi
	movl	$191, %esi
	movl	$192, %edx
	movl	$8, %ecx
	callq	_KLoad1
	movl	$193, %esi
	movl	$8, %edx
	movq	-152(%rbp), %rdi        # 8-byte Reload
	callq	_KLoad0
	.loc	3 224 77 is_stmt 1      # aes.c:224:77
	movq	-88(%rbp), %rbx
	shrq	$21, %rbx
	.loc	3 224 33 is_stmt 0      # aes.c:224:33
	andq	$2040, %rbx             # imm = 0x7F8
	leaq	rijndael_enc_ft_tab+6144(%rbx), %rdi
	movl	$194, %esi
	movl	$195, %edx
	movl	$8, %ecx
	callq	_KLoad1
	.loc	3 221 33 is_stmt 1      # aes.c:221:33
	xorq	rijndael_enc_ft_tab(,%r15,8), %r12
	movq	-200(%rbp), %rax        # 8-byte Reload
	xorq	rijndael_enc_ft_tab+2048(,%rax,8), %r12
	xorq	rijndael_enc_ft_tab+4096(%r13), %r12
	.loc	3 221 15 is_stmt 0      # aes.c:221:15
	xorq	rijndael_enc_ft_tab+6144(%rbx), %r12
	movl	$2, 48(%rsp)
	movl	$194, 40(%rsp)
	movl	$3, 32(%rsp)
	movl	$191, 24(%rsp)
	movl	$4, 16(%rsp)
	movl	$188, 8(%rsp)
	movl	$4, (%rsp)
	movl	$196, %edi
	movl	$14, %esi
	movl	$4, %edx
	movl	$183, %ecx
	movl	$1, %r8d
	movl	$185, %r9d
	callq	_KTimestamp6
	movl	$196, %edi
	movl	$8, %edx
	leaq	-80(%rbp), %rsi
	callq	_KStore
	.loc	3 221 7                 # aes.c:221:7
	movq	%r12, -80(%rbp)
	movq	-192(%rbp), %r15        # 8-byte Reload
	movq	-120(%rbp), %rbx        # 8-byte Reload
.Ltmp194:
	#DEBUG_VALUE: rijndael_enc_encrypt:cx <- RBX
	.loc	3 225 15 is_stmt 1      # aes.c:225:15
	leaq	16(%rbx,%r15,8), %rdi
	movl	$197, %esi
	movl	$8, %edx
	callq	_KLoad0
	movq	16(%rbx,%r15,8), %r12
.Ltmp195:
	#DEBUG_VALUE: rijndael_enc_encrypt:cx <- [RBP+-120]
	movl	$198, %esi
	movl	$8, %edx
	movq	%r14, %rdi
	callq	_KLoad0
	.loc	3 225 75 is_stmt 0      # aes.c:225:75
	movzbl	-104(%rbp), %r15d
	.loc	3 225 33                # aes.c:225:33
	leaq	rijndael_enc_ft_tab(,%r15,8), %rdi
	movl	$199, %esi
	movl	$200, %edx
	movl	$8, %ecx
	callq	_KLoad1
	movl	$201, %esi
	movl	$8, %edx
	movq	-144(%rbp), %r14        # 8-byte Reload
	movq	%r14, %rdi
	callq	_KLoad0
	.loc	3 226 77 is_stmt 1      # aes.c:226:77
	movq	-96(%rbp), %rax
	.loc	3 226 33 is_stmt 0      # aes.c:226:33
	movzbl	%ah, %eax  # NOREX
	movq	%rax, -192(%rbp)        # 8-byte Spill
	leaq	rijndael_enc_ft_tab+2048(,%rax,8), %rdi
	movl	$202, %esi
	movl	$203, %edx
	movl	$8, %ecx
	callq	_KLoad1
	movl	$204, %esi
	movl	$8, %edx
	movq	-152(%rbp), %rdi        # 8-byte Reload
	callq	_KLoad0
	.loc	3 227 77 is_stmt 1      # aes.c:227:77
	movq	-88(%rbp), %r13
	shrq	$13, %r13
	.loc	3 227 33 is_stmt 0      # aes.c:227:33
	andq	$2040, %r13             # imm = 0x7F8
	leaq	rijndael_enc_ft_tab+4096(%r13), %rdi
	movl	$205, %esi
	movl	$206, %edx
	movl	$8, %ecx
	callq	_KLoad1
	movl	$207, %esi
	movl	$8, %edx
	movq	-136(%rbp), %rdi        # 8-byte Reload
	callq	_KLoad0
	.loc	3 228 77 is_stmt 1      # aes.c:228:77
	movq	-112(%rbp), %rbx
	shrq	$21, %rbx
	.loc	3 228 33 is_stmt 0      # aes.c:228:33
	andq	$2040, %rbx             # imm = 0x7F8
	leaq	rijndael_enc_ft_tab+6144(%rbx), %rdi
	movl	$208, %esi
	movl	$209, %edx
	movl	$8, %ecx
	callq	_KLoad1
	.loc	3 225 33 is_stmt 1      # aes.c:225:33
	xorq	rijndael_enc_ft_tab(,%r15,8), %r12
	movq	-192(%rbp), %rax        # 8-byte Reload
	xorq	rijndael_enc_ft_tab+2048(,%rax,8), %r12
	xorq	rijndael_enc_ft_tab+4096(%r13), %r12
	.loc	3 225 15 is_stmt 0      # aes.c:225:15
	xorq	rijndael_enc_ft_tab+6144(%rbx), %r12
	movl	$2, 48(%rsp)
	movl	$208, 40(%rsp)
	movl	$3, 32(%rsp)
	movl	$205, 24(%rsp)
	movl	$4, 16(%rsp)
	movl	$202, 8(%rsp)
	movl	$4, (%rsp)
	movl	$210, %edi
	movl	$14, %esi
	movl	$4, %edx
	movl	$197, %ecx
	movl	$1, %r8d
	movl	$199, %r9d
	callq	_KTimestamp6
	movl	$210, %edi
	movl	$8, %edx
.Ltmp196:
	.loc	3 164 3 is_stmt 1       # aes.c:164:3
	leaq	-72(%rbp), %rsi
	callq	_KStore
	.loc	3 225 7                 # aes.c:225:7
.Ltmp197:
	movq	%r12, -72(%rbp)
	movq	-184(%rbp), %r15        # 8-byte Reload
	movq	-120(%rbp), %rbx        # 8-byte Reload
.Ltmp198:
	#DEBUG_VALUE: rijndael_enc_encrypt:cx <- RBX
	.loc	3 229 15                # aes.c:229:15
	leaq	16(%rbx,%r15,8), %rdi
	movl	$211, %esi
	movl	$8, %edx
	callq	_KLoad0
	movq	16(%rbx,%r15,8), %r12
.Ltmp199:
	#DEBUG_VALUE: rijndael_enc_encrypt:cx <- [RBP+-120]
	movl	$212, %esi
	movl	$8, %edx
	movq	%r14, %rdi
	callq	_KLoad0
	.loc	3 229 75 is_stmt 0      # aes.c:229:75
	movzbl	-96(%rbp), %r15d
	.loc	3 229 33                # aes.c:229:33
	leaq	rijndael_enc_ft_tab(,%r15,8), %rdi
	movl	$213, %esi
	movl	$214, %edx
	movl	$8, %ecx
	callq	_KLoad1
	movl	$215, %esi
	movl	$8, %edx
	movq	-152(%rbp), %rdi        # 8-byte Reload
	callq	_KLoad0
	.loc	3 230 77 is_stmt 1      # aes.c:230:77
	movq	-88(%rbp), %rax
	.loc	3 230 33 is_stmt 0      # aes.c:230:33
	movzbl	%ah, %eax  # NOREX
	leaq	rijndael_enc_ft_tab+2048(,%rax,8), %rdi
	movq	%rax, %r14
	movl	$216, %esi
	movl	$217, %edx
	movl	$8, %ecx
	callq	_KLoad1
	movl	$218, %esi
	movl	$8, %edx
	movq	-136(%rbp), %rdi        # 8-byte Reload
	callq	_KLoad0
	.loc	3 231 77 is_stmt 1      # aes.c:231:77
	movq	-112(%rbp), %r13
	shrq	$13, %r13
	.loc	3 231 33 is_stmt 0      # aes.c:231:33
	andq	$2040, %r13             # imm = 0x7F8
	leaq	rijndael_enc_ft_tab+4096(%r13), %rdi
	movl	$219, %esi
	movl	$220, %edx
	movl	$8, %ecx
	callq	_KLoad1
	movl	$221, %esi
	movl	$8, %edx
	movq	-160(%rbp), %rdi        # 8-byte Reload
	callq	_KLoad0
	.loc	3 232 77 is_stmt 1      # aes.c:232:77
	movq	-104(%rbp), %rbx
	shrq	$21, %rbx
	.loc	3 232 33 is_stmt 0      # aes.c:232:33
	andq	$2040, %rbx             # imm = 0x7F8
	leaq	rijndael_enc_ft_tab+6144(%rbx), %rdi
	movl	$222, %esi
	movl	$223, %edx
	movl	$8, %ecx
	callq	_KLoad1
	.loc	3 229 33 is_stmt 1      # aes.c:229:33
	xorq	rijndael_enc_ft_tab(,%r15,8), %r12
	xorq	rijndael_enc_ft_tab+2048(,%r14,8), %r12
	xorq	rijndael_enc_ft_tab+4096(%r13), %r12
	.loc	3 229 15 is_stmt 0      # aes.c:229:15
	xorq	rijndael_enc_ft_tab+6144(%rbx), %r12
	movl	$2, 48(%rsp)
	movl	$222, 40(%rsp)
	movl	$3, 32(%rsp)
	movl	$219, 24(%rsp)
	movl	$4, 16(%rsp)
	movl	$216, 8(%rsp)
	movl	$4, (%rsp)
	movl	$224, %edi
	movl	$14, %esi
	movl	$4, %edx
	movl	$211, %ecx
	movl	$1, %r8d
	movl	$213, %r9d
	callq	_KTimestamp6
	movl	$224, %edi
	movl	$8, %edx
.Ltmp200:
	.loc	3 165 3 is_stmt 1       # aes.c:165:3
	leaq	-64(%rbp), %rsi
	callq	_KStore
	.loc	3 229 7                 # aes.c:229:7
.Ltmp201:
	movq	%r12, -64(%rbp)
	movq	-176(%rbp), %r14        # 8-byte Reload
	movq	-120(%rbp), %rbx        # 8-byte Reload
.Ltmp202:
	#DEBUG_VALUE: rijndael_enc_encrypt:cx <- RBX
	.loc	3 233 15                # aes.c:233:15
	leaq	16(%rbx,%r14,8), %rdi
	movl	$225, %esi
	movl	$8, %edx
	callq	_KLoad0
	movq	16(%rbx,%r14,8), %r12
.Ltmp203:
	#DEBUG_VALUE: rijndael_enc_encrypt:cx <- [RBP+-120]
	movl	$226, %esi
	movl	$8, %edx
	movq	-152(%rbp), %rdi        # 8-byte Reload
	callq	_KLoad0
	.loc	3 233 75 is_stmt 0      # aes.c:233:75
	movzbl	-88(%rbp), %r15d
	.loc	3 233 33                # aes.c:233:33
	leaq	rijndael_enc_ft_tab(,%r15,8), %rdi
	movl	$227, %esi
	movl	$228, %edx
	movl	$8, %ecx
	callq	_KLoad1
	movl	$229, %esi
	movl	$8, %edx
	movq	-136(%rbp), %rdi        # 8-byte Reload
	callq	_KLoad0
	.loc	3 234 77 is_stmt 1      # aes.c:234:77
	movq	-112(%rbp), %rax
	.loc	3 234 33 is_stmt 0      # aes.c:234:33
	movzbl	%ah, %eax  # NOREX
	leaq	rijndael_enc_ft_tab+2048(,%rax,8), %rdi
	movq	%rax, %r14
	movl	$230, %esi
	movl	$231, %edx
	movl	$8, %ecx
	callq	_KLoad1
	movl	$232, %esi
	movl	$8, %edx
	movq	-160(%rbp), %rdi        # 8-byte Reload
	callq	_KLoad0
	.loc	3 235 77 is_stmt 1      # aes.c:235:77
	movq	-104(%rbp), %r13
	shrq	$13, %r13
	.loc	3 235 33 is_stmt 0      # aes.c:235:33
	andq	$2040, %r13             # imm = 0x7F8
	leaq	rijndael_enc_ft_tab+4096(%r13), %rdi
	movl	$233, %esi
	movl	$234, %edx
	movl	$8, %ecx
	callq	_KLoad1
	movl	$235, %esi
	movl	$8, %edx
	movq	-144(%rbp), %rdi        # 8-byte Reload
	callq	_KLoad0
	.loc	3 236 77 is_stmt 1      # aes.c:236:77
	movq	-96(%rbp), %rbx
	shrq	$21, %rbx
	.loc	3 236 33 is_stmt 0      # aes.c:236:33
	andq	$2040, %rbx             # imm = 0x7F8
	leaq	rijndael_enc_ft_tab+6144(%rbx), %rdi
	movl	$236, %esi
	movl	$237, %edx
	movl	$8, %ecx
	callq	_KLoad1
	.loc	3 233 33 is_stmt 1      # aes.c:233:33
	xorq	rijndael_enc_ft_tab(,%r15,8), %r12
	xorq	rijndael_enc_ft_tab+2048(,%r14,8), %r12
	xorq	rijndael_enc_ft_tab+4096(%r13), %r12
	.loc	3 233 15 is_stmt 0      # aes.c:233:15
	xorq	rijndael_enc_ft_tab+6144(%rbx), %r12
	movl	$2, 48(%rsp)
	movl	$236, 40(%rsp)
	movl	$3, 32(%rsp)
	movl	$233, 24(%rsp)
	movl	$4, 16(%rsp)
	movl	$230, 8(%rsp)
	movl	$4, (%rsp)
	movl	$238, %edi
	movl	$14, %esi
	movl	$4, %edx
	movl	$225, %ecx
	movl	$1, %r8d
	movl	$227, %r9d
	callq	_KTimestamp6
	movl	$238, %edi
	movl	$8, %edx
.Ltmp204:
	.loc	3 166 3 is_stmt 1       # aes.c:166:3
	leaq	-56(%rbp), %rsi
	callq	_KStore
	.loc	3 233 7                 # aes.c:233:7
.Ltmp205:
	movq	%r12, -56(%rbp)
	.loc	3 237 7                 # aes.c:237:7
	movq	-128(%rbp), %rax        # 8-byte Reload
	movq	-120(%rbp), %rcx        # 8-byte Reload
	leaq	16(%rcx,%rax,8), %r15
.Ltmp206:
	#DEBUG_VALUE: rijndael_enc_encrypt:kp <- R15
	movl	$810, %r12d             # imm = 0x32A
	movl	$810, %edi              # imm = 0x32A
	movl	$14, %esi
	xorl	%edx, %edx
	movl	$804, %ecx              # imm = 0x324
	xorl	%r8d, %r8d
	callq	_KTimestamp2
	callq	_KPopCDep
.Ltmp207:
	.loc	3 164 3                 # aes.c:164:3
	leaq	-72(%rbp), %r14
	.loc	3 165 3                 # aes.c:165:3
	leaq	-64(%rbp), %rbx
.Ltmp208:
.LBB1_9:                                # %sw.bb423
	#DEBUG_VALUE: rijndael_enc_encrypt:out_blk <- [RBP+-168]
	#DEBUG_VALUE: rijndael_enc_encrypt:cx <- [RBP+-120]
	#DEBUG_VALUE: rijndael_enc_encrypt:b0 <- [RBP+-80]
	#DEBUG_VALUE: rijndael_enc_encrypt:b1 <- [RBP+-112]
	movl	$14, %edi
	callq	_KPushCDep
	movl	$809, %edi              # imm = 0x329
	movl	$808, %edx              # imm = 0x328
	movl	$14, %ecx
	movl	%r12d, %esi
	callq	_KPhi2To1
	movl	$1760, %edi             # imm = 0x6E0
	callq	_KWork
	movl	$239, %esi
	movl	$8, %edx
	movq	%r15, %rdi
	callq	_KLoad0
	.loc	3 239 15                # aes.c:239:15
.Ltmp209:
	movq	(%r15), %r12
	leaq	-80(%rbp), %rdi
	movl	$240, %esi
	movl	$8, %edx
	callq	_KLoad0
	.loc	3 239 67 is_stmt 0      # aes.c:239:67
	movzbl	-80(%rbp), %r15d
	.loc	3 239 25                # aes.c:239:25
	leaq	rijndael_enc_ft_tab(,%r15,8), %rdi
	movl	$241, %esi
	movl	$242, %edx
	movl	$8, %ecx
	callq	_KLoad1
	movl	$243, %esi
	movl	$8, %edx
	movq	%r14, %rdi
	callq	_KLoad0
	.loc	3 240 69 is_stmt 1      # aes.c:240:69
	movq	-72(%rbp), %rax
	.loc	3 240 25 is_stmt 0      # aes.c:240:25
	movzbl	%ah, %eax  # NOREX
	movq	%rax, -176(%rbp)        # 8-byte Spill
	leaq	rijndael_enc_ft_tab+2048(,%rax,8), %rdi
	movl	$244, %esi
	movl	$245, %edx
	movl	$8, %ecx
	callq	_KLoad1
	movl	$246, %esi
	movl	$8, %edx
	movq	%rbx, %rdi
	callq	_KLoad0
	.loc	3 241 69 is_stmt 1      # aes.c:241:69
	movq	-64(%rbp), %r13
	shrq	$13, %r13
	.loc	3 241 25 is_stmt 0      # aes.c:241:25
	andq	$2040, %r13             # imm = 0x7F8
	leaq	rijndael_enc_ft_tab+4096(%r13), %rdi
	movl	$247, %esi
	movl	$248, %edx
	movl	$8, %ecx
	callq	_KLoad1
	movl	$249, %esi
	movl	$8, %edx
.Ltmp210:
	.loc	3 166 3 is_stmt 1       # aes.c:166:3
	leaq	-56(%rbp), %rax
	movq	%rax, %rdi
	callq	_KLoad0
	.loc	3 242 69                # aes.c:242:69
.Ltmp211:
	movq	-56(%rbp), %rbx
	shrq	$21, %rbx
	.loc	3 242 25 is_stmt 0      # aes.c:242:25
	andq	$2040, %rbx             # imm = 0x7F8
	leaq	rijndael_enc_ft_tab+6144(%rbx), %rdi
	movl	$250, %esi
	movl	$251, %edx
	movl	$8, %ecx
	callq	_KLoad1
	.loc	3 239 25 is_stmt 1      # aes.c:239:25
	xorq	rijndael_enc_ft_tab(,%r15,8), %r12
	movq	-176(%rbp), %rax        # 8-byte Reload
	xorq	rijndael_enc_ft_tab+2048(,%rax,8), %r12
	xorq	rijndael_enc_ft_tab+4096(%r13), %r12
	.loc	3 239 15 is_stmt 0      # aes.c:239:15
	xorq	rijndael_enc_ft_tab+6144(%rbx), %r12
	movl	$2, 48(%rsp)
	movl	$250, 40(%rsp)
	movl	$3, 32(%rsp)
	movl	$247, 24(%rsp)
	movl	$4, 16(%rsp)
	movl	$244, 8(%rsp)
	movl	$4, (%rsp)
	movl	$252, %edi
	movl	$14, %esi
	movl	$4, %edx
	movl	$239, %ecx
	movl	$1, %r8d
	movl	$241, %r9d
	callq	_KTimestamp6
	movl	$252, %edi
	movl	$8, %edx
	movq	-136(%rbp), %rsi        # 8-byte Reload
	callq	_KStore
	.loc	3 239 7                 # aes.c:239:7
	movq	%r12, -112(%rbp)
	movq	-128(%rbp), %r15        # 8-byte Reload
	movq	-120(%rbp), %rbx        # 8-byte Reload
.Ltmp212:
	#DEBUG_VALUE: rijndael_enc_encrypt:cx <- RBX
	.loc	3 243 15 is_stmt 1      # aes.c:243:15
	leaq	24(%rbx,%r15,8), %rdi
	movl	$253, %esi
	movl	$8, %edx
	callq	_KLoad0
	movq	24(%rbx,%r15,8), %r12
.Ltmp213:
	#DEBUG_VALUE: rijndael_enc_encrypt:cx <- [RBP+-120]
	movl	$254, %esi
	movl	$8, %edx
	movq	%r14, %rdi
	callq	_KLoad0
	.loc	3 243 67 is_stmt 0      # aes.c:243:67
	movzbl	-72(%rbp), %eax
	.loc	3 243 25                # aes.c:243:25
	movq	%rax, -176(%rbp)        # 8-byte Spill
	leaq	rijndael_enc_ft_tab(,%rax,8), %rdi
	movl	$255, %esi
	movl	$256, %edx              # imm = 0x100
	movl	$8, %ecx
	callq	_KLoad1
	movl	$257, %esi              # imm = 0x101
	movl	$8, %edx
.Ltmp214:
	.loc	3 165 3 is_stmt 1       # aes.c:165:3
	leaq	-64(%rbp), %r15
	movq	%r15, %rdi
	callq	_KLoad0
	.loc	3 244 69                # aes.c:244:69
.Ltmp215:
	movq	-64(%rbp), %rax
	.loc	3 244 25 is_stmt 0      # aes.c:244:25
	movzbl	%ah, %eax  # NOREX
	movq	%rax, -184(%rbp)        # 8-byte Spill
	leaq	rijndael_enc_ft_tab+2048(,%rax,8), %rdi
	movl	$258, %esi              # imm = 0x102
	movl	$259, %edx              # imm = 0x103
	movl	$8, %ecx
	callq	_KLoad1
	movl	$260, %esi              # imm = 0x104
	movl	$8, %edx
.Ltmp216:
	.loc	3 166 3 is_stmt 1       # aes.c:166:3
	leaq	-56(%rbp), %rdi
	callq	_KLoad0
	.loc	3 245 69                # aes.c:245:69
.Ltmp217:
	movq	-56(%rbp), %r13
	shrq	$13, %r13
	.loc	3 245 25 is_stmt 0      # aes.c:245:25
	andq	$2040, %r13             # imm = 0x7F8
	leaq	rijndael_enc_ft_tab+4096(%r13), %rdi
	movl	$261, %esi              # imm = 0x105
	movl	$262, %edx              # imm = 0x106
	movl	$8, %ecx
	callq	_KLoad1
	movl	$263, %esi              # imm = 0x107
	movl	$8, %edx
	leaq	-80(%rbp), %r14
	movq	%r14, %rdi
	callq	_KLoad0
	.loc	3 246 69 is_stmt 1      # aes.c:246:69
	movq	-80(%rbp), %rbx
	shrq	$21, %rbx
	.loc	3 246 25 is_stmt 0      # aes.c:246:25
	andq	$2040, %rbx             # imm = 0x7F8
	leaq	rijndael_enc_ft_tab+6144(%rbx), %rdi
	movl	$264, %esi              # imm = 0x108
	movl	$265, %edx              # imm = 0x109
	movl	$8, %ecx
	callq	_KLoad1
	.loc	3 243 25 is_stmt 1      # aes.c:243:25
	movq	-176(%rbp), %rax        # 8-byte Reload
	xorq	rijndael_enc_ft_tab(,%rax,8), %r12
	movq	-184(%rbp), %rax        # 8-byte Reload
	xorq	rijndael_enc_ft_tab+2048(,%rax,8), %r12
	xorq	rijndael_enc_ft_tab+4096(%r13), %r12
	.loc	3 243 15 is_stmt 0      # aes.c:243:15
	xorq	rijndael_enc_ft_tab+6144(%rbx), %r12
	movl	$1, 48(%rsp)
	movl	$253, 40(%rsp)
	movl	$4, 32(%rsp)
	movl	$14, 24(%rsp)
	movl	$2, 16(%rsp)
	movl	$264, 8(%rsp)           # imm = 0x108
	movl	$3, (%rsp)
	movl	$266, %edi              # imm = 0x10A
	movl	$255, %esi
	movl	$4, %edx
	movl	$258, %ecx              # imm = 0x102
	movl	$4, %r8d
	movl	$261, %r9d              # imm = 0x105
	callq	_KTimestamp6
	movl	$266, %edi              # imm = 0x10A
	movl	$8, %edx
	movq	-160(%rbp), %rsi        # 8-byte Reload
	callq	_KStore
	.loc	3 243 7                 # aes.c:243:7
	movq	%r12, -104(%rbp)
	movq	-128(%rbp), %r12        # 8-byte Reload
	movq	-120(%rbp), %rbx        # 8-byte Reload
.Ltmp218:
	#DEBUG_VALUE: rijndael_enc_encrypt:cx <- RBX
	.loc	3 247 15 is_stmt 1      # aes.c:247:15
	leaq	32(%rbx,%r12,8), %rdi
	movl	$267, %esi              # imm = 0x10B
	movl	$8, %edx
	callq	_KLoad0
	movq	32(%rbx,%r12,8), %r12
.Ltmp219:
	#DEBUG_VALUE: rijndael_enc_encrypt:cx <- [RBP+-120]
	movl	$268, %esi              # imm = 0x10C
	movl	$8, %edx
	movq	%r15, %rdi
	callq	_KLoad0
	.loc	3 247 67 is_stmt 0      # aes.c:247:67
	movzbl	-64(%rbp), %eax
	.loc	3 247 25                # aes.c:247:25
	movq	%rax, -176(%rbp)        # 8-byte Spill
	leaq	rijndael_enc_ft_tab(,%rax,8), %rdi
	movl	$269, %esi              # imm = 0x10D
	movl	$270, %edx              # imm = 0x10E
	movl	$8, %ecx
	callq	_KLoad1
	movl	$271, %esi              # imm = 0x10F
	movl	$8, %edx
.Ltmp220:
	.loc	3 166 3 is_stmt 1       # aes.c:166:3
	leaq	-56(%rbp), %r15
	movq	%r15, %rdi
	callq	_KLoad0
	.loc	3 248 69                # aes.c:248:69
.Ltmp221:
	movq	-56(%rbp), %rax
	.loc	3 248 25 is_stmt 0      # aes.c:248:25
	movzbl	%ah, %eax  # NOREX
	movq	%rax, -184(%rbp)        # 8-byte Spill
	leaq	rijndael_enc_ft_tab+2048(,%rax,8), %rdi
	movl	$272, %esi              # imm = 0x110
	movl	$273, %edx              # imm = 0x111
	movl	$8, %ecx
	callq	_KLoad1
	movl	$274, %esi              # imm = 0x112
	movl	$8, %edx
	movq	%r14, %rdi
	callq	_KLoad0
	.loc	3 249 69 is_stmt 1      # aes.c:249:69
	movq	-80(%rbp), %r13
	shrq	$13, %r13
	.loc	3 249 25 is_stmt 0      # aes.c:249:25
	andq	$2040, %r13             # imm = 0x7F8
	leaq	rijndael_enc_ft_tab+4096(%r13), %rdi
	movl	$275, %esi              # imm = 0x113
	movl	$276, %edx              # imm = 0x114
	movl	$8, %ecx
	callq	_KLoad1
	movl	$277, %esi              # imm = 0x115
	movl	$8, %edx
.Ltmp222:
	.loc	3 164 3 is_stmt 1       # aes.c:164:3
	leaq	-72(%rbp), %r14
	movq	%r14, %rdi
	callq	_KLoad0
	.loc	3 250 69                # aes.c:250:69
.Ltmp223:
	movq	-72(%rbp), %rbx
	shrq	$21, %rbx
	.loc	3 250 25 is_stmt 0      # aes.c:250:25
	andq	$2040, %rbx             # imm = 0x7F8
	leaq	rijndael_enc_ft_tab+6144(%rbx), %rdi
	movl	$278, %esi              # imm = 0x116
	movl	$279, %edx              # imm = 0x117
	movl	$8, %ecx
	callq	_KLoad1
	.loc	3 247 25 is_stmt 1      # aes.c:247:25
	movq	-176(%rbp), %rax        # 8-byte Reload
	xorq	rijndael_enc_ft_tab(,%rax,8), %r12
	movq	-184(%rbp), %rax        # 8-byte Reload
	xorq	rijndael_enc_ft_tab+2048(,%rax,8), %r12
	xorq	rijndael_enc_ft_tab+4096(%r13), %r12
	.loc	3 247 15 is_stmt 0      # aes.c:247:15
	xorq	rijndael_enc_ft_tab+6144(%rbx), %r12
	movl	$4, 48(%rsp)
	movl	$14, 40(%rsp)
	movl	$2, 32(%rsp)
	movl	$278, 24(%rsp)          # imm = 0x116
	movl	$3, 16(%rsp)
	movl	$275, 8(%rsp)           # imm = 0x113
	movl	$4, (%rsp)
	movl	$280, %edi              # imm = 0x118
	movl	$267, %esi              # imm = 0x10B
	movl	$1, %edx
	movl	$269, %ecx              # imm = 0x10D
	movl	$4, %r8d
	movl	$272, %r9d              # imm = 0x110
	callq	_KTimestamp6
	movl	$280, %edi              # imm = 0x118
	movl	$8, %edx
	movq	-144(%rbp), %rsi        # 8-byte Reload
	callq	_KStore
	.loc	3 247 7                 # aes.c:247:7
	movq	%r12, -96(%rbp)
	movq	-128(%rbp), %r12        # 8-byte Reload
	movq	-120(%rbp), %rbx        # 8-byte Reload
.Ltmp224:
	#DEBUG_VALUE: rijndael_enc_encrypt:cx <- RBX
	.loc	3 251 15 is_stmt 1      # aes.c:251:15
	leaq	40(%rbx,%r12,8), %rdi
	movl	$281, %esi              # imm = 0x119
	movl	$8, %edx
	callq	_KLoad0
	movq	40(%rbx,%r12,8), %r12
.Ltmp225:
	#DEBUG_VALUE: rijndael_enc_encrypt:cx <- [RBP+-120]
	movl	$282, %esi              # imm = 0x11A
	movl	$8, %edx
	movq	%r15, %rdi
	callq	_KLoad0
	.loc	3 251 67 is_stmt 0      # aes.c:251:67
	movzbl	-56(%rbp), %r15d
	.loc	3 251 25                # aes.c:251:25
	leaq	rijndael_enc_ft_tab(,%r15,8), %rdi
	movl	$283, %esi              # imm = 0x11B
	movl	$284, %edx              # imm = 0x11C
	movl	$8, %ecx
	callq	_KLoad1
	movl	$285, %esi              # imm = 0x11D
	movl	$8, %edx
	leaq	-80(%rbp), %rdi
	callq	_KLoad0
	.loc	3 252 69 is_stmt 1      # aes.c:252:69
	movq	-80(%rbp), %rax
	.loc	3 252 25 is_stmt 0      # aes.c:252:25
	movzbl	%ah, %eax  # NOREX
	movq	%rax, -176(%rbp)        # 8-byte Spill
	leaq	rijndael_enc_ft_tab+2048(,%rax,8), %rdi
	movl	$286, %esi              # imm = 0x11E
	movl	$287, %edx              # imm = 0x11F
	movl	$8, %ecx
	callq	_KLoad1
	movl	$288, %esi              # imm = 0x120
	movl	$8, %edx
	movq	%r14, %rdi
	callq	_KLoad0
	.loc	3 253 69 is_stmt 1      # aes.c:253:69
	movq	-72(%rbp), %r13
	shrq	$13, %r13
	.loc	3 253 25 is_stmt 0      # aes.c:253:25
	andq	$2040, %r13             # imm = 0x7F8
	leaq	rijndael_enc_ft_tab+4096(%r13), %rdi
	movl	$289, %esi              # imm = 0x121
	movl	$290, %edx              # imm = 0x122
	movl	$8, %ecx
	callq	_KLoad1
	movl	$291, %esi              # imm = 0x123
	movl	$8, %edx
.Ltmp226:
	.loc	3 165 3 is_stmt 1       # aes.c:165:3
	leaq	-64(%rbp), %rdi
	callq	_KLoad0
	.loc	3 254 69                # aes.c:254:69
.Ltmp227:
	movq	-64(%rbp), %rbx
	shrq	$21, %rbx
	.loc	3 254 25 is_stmt 0      # aes.c:254:25
	andq	$2040, %rbx             # imm = 0x7F8
	leaq	rijndael_enc_ft_tab+6144(%rbx), %rdi
	movl	$292, %esi              # imm = 0x124
	movl	$293, %edx              # imm = 0x125
	movl	$8, %ecx
	callq	_KLoad1
	.loc	3 251 25 is_stmt 1      # aes.c:251:25
	xorq	rijndael_enc_ft_tab(,%r15,8), %r12
	movq	-176(%rbp), %rax        # 8-byte Reload
	xorq	rijndael_enc_ft_tab+2048(,%rax,8), %r12
	xorq	rijndael_enc_ft_tab+4096(%r13), %r12
	.loc	3 251 15 is_stmt 0      # aes.c:251:15
	xorq	rijndael_enc_ft_tab+6144(%rbx), %r12
	movl	$4, 48(%rsp)
	movl	$14, 40(%rsp)
	movl	$2, 32(%rsp)
	movl	$292, 24(%rsp)          # imm = 0x124
	movl	$3, 16(%rsp)
	movl	$289, 8(%rsp)           # imm = 0x121
	movl	$4, (%rsp)
	movl	$294, %edi              # imm = 0x126
	movl	$281, %esi              # imm = 0x119
	movl	$1, %edx
	movl	$283, %ecx              # imm = 0x11B
	movl	$4, %r8d
	movl	$286, %r9d              # imm = 0x11E
	callq	_KTimestamp6
	movl	$294, %edi              # imm = 0x126
	movl	$8, %edx
	movq	-152(%rbp), %r15        # 8-byte Reload
	movq	%r15, %rsi
	callq	_KStore
	.loc	3 251 7                 # aes.c:251:7
	movq	%r12, -88(%rbp)
	movq	-128(%rbp), %r14        # 8-byte Reload
	movq	-120(%rbp), %rbx        # 8-byte Reload
.Ltmp228:
	#DEBUG_VALUE: rijndael_enc_encrypt:cx <- RBX
	.loc	3 255 17 is_stmt 1      # aes.c:255:17
	leaq	48(%rbx,%r14,8), %rdi
	movl	$295, %esi              # imm = 0x127
	movl	$8, %edx
	callq	_KLoad0
	.loc	3 255 15 is_stmt 0      # aes.c:255:15
	movq	48(%rbx,%r14,8), %r12
.Ltmp229:
	#DEBUG_VALUE: rijndael_enc_encrypt:cx <- [RBP+-120]
	movl	$296, %esi              # imm = 0x128
	movl	$8, %edx
	movq	-136(%rbp), %rdi        # 8-byte Reload
	callq	_KLoad0
	.loc	3 255 75                # aes.c:255:75
	movzbl	-112(%rbp), %eax
	.loc	3 255 33                # aes.c:255:33
	movq	%rax, -176(%rbp)        # 8-byte Spill
	leaq	rijndael_enc_ft_tab(,%rax,8), %rdi
	movl	$297, %esi              # imm = 0x129
	movl	$298, %edx              # imm = 0x12A
	movl	$8, %ecx
	callq	_KLoad1
	movl	$299, %esi              # imm = 0x12B
	movl	$8, %edx
	movq	-160(%rbp), %r14        # 8-byte Reload
	movq	%r14, %rdi
	callq	_KLoad0
	.loc	3 256 77 is_stmt 1      # aes.c:256:77
	movq	-104(%rbp), %rax
	.loc	3 256 33 is_stmt 0      # aes.c:256:33
	movzbl	%ah, %eax  # NOREX
	movq	%rax, -184(%rbp)        # 8-byte Spill
	leaq	rijndael_enc_ft_tab+2048(,%rax,8), %rdi
	movl	$300, %esi              # imm = 0x12C
	movl	$301, %edx              # imm = 0x12D
	movl	$8, %ecx
	callq	_KLoad1
	movl	$302, %esi              # imm = 0x12E
	movl	$8, %edx
	movq	-144(%rbp), %rdi        # 8-byte Reload
	callq	_KLoad0
	.loc	3 257 77 is_stmt 1      # aes.c:257:77
	movq	-96(%rbp), %r13
	shrq	$13, %r13
	.loc	3 257 33 is_stmt 0      # aes.c:257:33
	andq	$2040, %r13             # imm = 0x7F8
	leaq	rijndael_enc_ft_tab+4096(%r13), %rdi
	movl	$303, %esi              # imm = 0x12F
	movl	$304, %edx              # imm = 0x130
	movl	$8, %ecx
	callq	_KLoad1
	movl	$305, %esi              # imm = 0x131
	movl	$8, %edx
	movq	%r15, %rdi
	callq	_KLoad0
	.loc	3 258 77 is_stmt 1      # aes.c:258:77
	movq	-88(%rbp), %rbx
	shrq	$21, %rbx
	.loc	3 258 33 is_stmt 0      # aes.c:258:33
	andq	$2040, %rbx             # imm = 0x7F8
	leaq	rijndael_enc_ft_tab+6144(%rbx), %rdi
	movl	$306, %esi              # imm = 0x132
	movl	$307, %edx              # imm = 0x133
	movl	$8, %ecx
	callq	_KLoad1
	.loc	3 255 33 is_stmt 1      # aes.c:255:33
	movq	-176(%rbp), %rax        # 8-byte Reload
	xorq	rijndael_enc_ft_tab(,%rax,8), %r12
	movq	-184(%rbp), %rax        # 8-byte Reload
	xorq	rijndael_enc_ft_tab+2048(,%rax,8), %r12
	xorq	rijndael_enc_ft_tab+4096(%r13), %r12
	.loc	3 255 15 is_stmt 0      # aes.c:255:15
	xorq	rijndael_enc_ft_tab+6144(%rbx), %r12
	movl	$2, 48(%rsp)
	movl	$306, 40(%rsp)          # imm = 0x132
	movl	$3, 32(%rsp)
	movl	$303, 24(%rsp)          # imm = 0x12F
	movl	$4, 16(%rsp)
	movl	$300, 8(%rsp)           # imm = 0x12C
	movl	$4, (%rsp)
	movl	$308, %edi              # imm = 0x134
	movl	$295, %esi              # imm = 0x127
	movl	$1, %edx
	movl	$14, %ecx
	movl	$4, %r8d
	movl	$297, %r9d              # imm = 0x129
	callq	_KTimestamp6
	movl	$308, %edi              # imm = 0x134
	movl	$8, %edx
	leaq	-80(%rbp), %rsi
	callq	_KStore
	.loc	3 255 7                 # aes.c:255:7
	movq	%r12, -80(%rbp)
	movq	-128(%rbp), %r15        # 8-byte Reload
	movq	-120(%rbp), %rbx        # 8-byte Reload
.Ltmp230:
	#DEBUG_VALUE: rijndael_enc_encrypt:cx <- RBX
	.loc	3 259 15 is_stmt 1      # aes.c:259:15
	leaq	56(%rbx,%r15,8), %rdi
	movl	$309, %esi              # imm = 0x135
	movl	$8, %edx
	callq	_KLoad0
	movq	56(%rbx,%r15,8), %r12
.Ltmp231:
	#DEBUG_VALUE: rijndael_enc_encrypt:cx <- [RBP+-120]
	movl	$310, %esi              # imm = 0x136
	movl	$8, %edx
	movq	%r14, %rdi
	callq	_KLoad0
	.loc	3 259 75 is_stmt 0      # aes.c:259:75
	movzbl	-104(%rbp), %eax
	.loc	3 259 33                # aes.c:259:33
	movq	%rax, -176(%rbp)        # 8-byte Spill
	leaq	rijndael_enc_ft_tab(,%rax,8), %rdi
	movl	$311, %esi              # imm = 0x137
	movl	$312, %edx              # imm = 0x138
	movl	$8, %ecx
	callq	_KLoad1
	movl	$313, %esi              # imm = 0x139
	movl	$8, %edx
	movq	-144(%rbp), %rdi        # 8-byte Reload
	callq	_KLoad0
	.loc	3 260 77 is_stmt 1      # aes.c:260:77
	movq	-96(%rbp), %rax
	.loc	3 260 33 is_stmt 0      # aes.c:260:33
	movzbl	%ah, %eax  # NOREX
	movq	%rax, -184(%rbp)        # 8-byte Spill
	leaq	rijndael_enc_ft_tab+2048(,%rax,8), %rdi
	movl	$314, %esi              # imm = 0x13A
	movl	$315, %edx              # imm = 0x13B
	movl	$8, %ecx
	callq	_KLoad1
	movl	$316, %esi              # imm = 0x13C
	movl	$8, %edx
	movq	-152(%rbp), %r15        # 8-byte Reload
	movq	%r15, %rdi
	callq	_KLoad0
	.loc	3 261 77 is_stmt 1      # aes.c:261:77
	movq	-88(%rbp), %r13
	shrq	$13, %r13
	.loc	3 261 33 is_stmt 0      # aes.c:261:33
	andq	$2040, %r13             # imm = 0x7F8
	leaq	rijndael_enc_ft_tab+4096(%r13), %rdi
	movl	$317, %esi              # imm = 0x13D
	movl	$318, %edx              # imm = 0x13E
	movl	$8, %ecx
	callq	_KLoad1
	movl	$319, %esi              # imm = 0x13F
	movl	$8, %edx
	movq	-136(%rbp), %r14        # 8-byte Reload
	movq	%r14, %rdi
	callq	_KLoad0
	.loc	3 262 77 is_stmt 1      # aes.c:262:77
	movq	-112(%rbp), %rbx
	shrq	$21, %rbx
	.loc	3 262 33 is_stmt 0      # aes.c:262:33
	andq	$2040, %rbx             # imm = 0x7F8
	leaq	rijndael_enc_ft_tab+6144(%rbx), %rdi
	movl	$320, %esi              # imm = 0x140
	movl	$321, %edx              # imm = 0x141
	movl	$8, %ecx
	callq	_KLoad1
	.loc	3 259 33 is_stmt 1      # aes.c:259:33
	movq	-176(%rbp), %rax        # 8-byte Reload
	xorq	rijndael_enc_ft_tab(,%rax,8), %r12
	movq	-184(%rbp), %rax        # 8-byte Reload
	xorq	rijndael_enc_ft_tab+2048(,%rax,8), %r12
	xorq	rijndael_enc_ft_tab+4096(%r13), %r12
	.loc	3 259 15 is_stmt 0      # aes.c:259:15
	xorq	rijndael_enc_ft_tab+6144(%rbx), %r12
	movl	$2, 48(%rsp)
	movl	$320, 40(%rsp)          # imm = 0x140
	movl	$3, 32(%rsp)
	movl	$317, 24(%rsp)          # imm = 0x13D
	movl	$4, 16(%rsp)
	movl	$314, 8(%rsp)           # imm = 0x13A
	movl	$4, (%rsp)
	movl	$322, %edi              # imm = 0x142
	movl	$14, %esi
	movl	$4, %edx
	movl	$309, %ecx              # imm = 0x135
	movl	$1, %r8d
	movl	$311, %r9d              # imm = 0x137
	callq	_KTimestamp6
	movl	$322, %edi              # imm = 0x142
	movl	$8, %edx
.Ltmp232:
	.loc	3 164 3 is_stmt 1       # aes.c:164:3
	leaq	-72(%rbp), %rsi
	callq	_KStore
	.loc	3 259 7                 # aes.c:259:7
.Ltmp233:
	movq	%r12, -72(%rbp)
	movq	-128(%rbp), %r12        # 8-byte Reload
	movq	-120(%rbp), %rbx        # 8-byte Reload
.Ltmp234:
	#DEBUG_VALUE: rijndael_enc_encrypt:cx <- RBX
	.loc	3 263 15                # aes.c:263:15
	leaq	64(%rbx,%r12,8), %rdi
	movl	$323, %esi              # imm = 0x143
	movl	$8, %edx
	callq	_KLoad0
	movq	64(%rbx,%r12,8), %r12
.Ltmp235:
	#DEBUG_VALUE: rijndael_enc_encrypt:cx <- [RBP+-120]
	movl	$324, %esi              # imm = 0x144
	movl	$8, %edx
	movq	-144(%rbp), %rdi        # 8-byte Reload
	callq	_KLoad0
	.loc	3 263 75 is_stmt 0      # aes.c:263:75
	movzbl	-96(%rbp), %eax
	.loc	3 263 33                # aes.c:263:33
	movq	%rax, -176(%rbp)        # 8-byte Spill
	leaq	rijndael_enc_ft_tab(,%rax,8), %rdi
	movl	$325, %esi              # imm = 0x145
	movl	$326, %edx              # imm = 0x146
	movl	$8, %ecx
	callq	_KLoad1
	movl	$327, %esi              # imm = 0x147
	movl	$8, %edx
	movq	%r15, %rdi
	callq	_KLoad0
	.loc	3 264 77 is_stmt 1      # aes.c:264:77
	movq	-88(%rbp), %rax
	.loc	3 264 33 is_stmt 0      # aes.c:264:33
	movzbl	%ah, %eax  # NOREX
	leaq	rijndael_enc_ft_tab+2048(,%rax,8), %rdi
	movq	%rax, %r15
	movl	$328, %esi              # imm = 0x148
	movl	$329, %edx              # imm = 0x149
	movl	$8, %ecx
	callq	_KLoad1
	movl	$330, %esi              # imm = 0x14A
	movl	$8, %edx
	movq	%r14, %rdi
	callq	_KLoad0
	.loc	3 265 77 is_stmt 1      # aes.c:265:77
	movq	-112(%rbp), %r13
	shrq	$13, %r13
	.loc	3 265 33 is_stmt 0      # aes.c:265:33
	andq	$2040, %r13             # imm = 0x7F8
	leaq	rijndael_enc_ft_tab+4096(%r13), %rdi
	movl	$331, %esi              # imm = 0x14B
	movl	$332, %edx              # imm = 0x14C
	movl	$8, %ecx
	callq	_KLoad1
	movl	$333, %esi              # imm = 0x14D
	movl	$8, %edx
	movq	-160(%rbp), %r14        # 8-byte Reload
	movq	%r14, %rdi
	callq	_KLoad0
	.loc	3 266 77 is_stmt 1      # aes.c:266:77
	movq	-104(%rbp), %rbx
	shrq	$21, %rbx
	.loc	3 266 33 is_stmt 0      # aes.c:266:33
	andq	$2040, %rbx             # imm = 0x7F8
	leaq	rijndael_enc_ft_tab+6144(%rbx), %rdi
	movl	$334, %esi              # imm = 0x14E
	movl	$335, %edx              # imm = 0x14F
	movl	$8, %ecx
	callq	_KLoad1
	.loc	3 263 33 is_stmt 1      # aes.c:263:33
	movq	-176(%rbp), %rax        # 8-byte Reload
	xorq	rijndael_enc_ft_tab(,%rax,8), %r12
	xorq	rijndael_enc_ft_tab+2048(,%r15,8), %r12
	xorq	rijndael_enc_ft_tab+4096(%r13), %r12
	.loc	3 263 15 is_stmt 0      # aes.c:263:15
	xorq	rijndael_enc_ft_tab+6144(%rbx), %r12
	movl	$2, 48(%rsp)
	movl	$334, 40(%rsp)          # imm = 0x14E
	movl	$3, 32(%rsp)
	movl	$331, 24(%rsp)          # imm = 0x14B
	movl	$4, 16(%rsp)
	movl	$328, 8(%rsp)           # imm = 0x148
	movl	$4, (%rsp)
	movl	$336, %edi              # imm = 0x150
	movl	$14, %esi
	movl	$4, %edx
	movl	$323, %ecx              # imm = 0x143
	movl	$1, %r8d
	movl	$325, %r9d              # imm = 0x145
	callq	_KTimestamp6
	movl	$336, %edi              # imm = 0x150
	movl	$8, %edx
.Ltmp236:
	.loc	3 165 3 is_stmt 1       # aes.c:165:3
	leaq	-64(%rbp), %rsi
	callq	_KStore
	.loc	3 263 7                 # aes.c:263:7
.Ltmp237:
	movq	%r12, -64(%rbp)
	movq	-128(%rbp), %r15        # 8-byte Reload
	movq	-120(%rbp), %rbx        # 8-byte Reload
.Ltmp238:
	#DEBUG_VALUE: rijndael_enc_encrypt:cx <- RBX
	.loc	3 267 15                # aes.c:267:15
	leaq	72(%rbx,%r15,8), %rdi
	movl	$337, %esi              # imm = 0x151
	movl	$8, %edx
	callq	_KLoad0
	movq	72(%rbx,%r15,8), %r12
.Ltmp239:
	#DEBUG_VALUE: rijndael_enc_encrypt:cx <- [RBP+-120]
	movl	$338, %esi              # imm = 0x152
	movl	$8, %edx
	movq	-152(%rbp), %rdi        # 8-byte Reload
	callq	_KLoad0
	.loc	3 267 75 is_stmt 0      # aes.c:267:75
	movzbl	-88(%rbp), %r15d
	.loc	3 267 33                # aes.c:267:33
	leaq	rijndael_enc_ft_tab(,%r15,8), %rdi
	movl	$339, %esi              # imm = 0x153
	movl	$340, %edx              # imm = 0x154
	movl	$8, %ecx
	callq	_KLoad1
	movl	$341, %esi              # imm = 0x155
	movl	$8, %edx
	movq	-136(%rbp), %rdi        # 8-byte Reload
	callq	_KLoad0
	.loc	3 268 77 is_stmt 1      # aes.c:268:77
	movq	-112(%rbp), %rax
	.loc	3 268 33 is_stmt 0      # aes.c:268:33
	movzbl	%ah, %eax  # NOREX
	movq	%rax, -176(%rbp)        # 8-byte Spill
	leaq	rijndael_enc_ft_tab+2048(,%rax,8), %rdi
	movl	$342, %esi              # imm = 0x156
	movl	$343, %edx              # imm = 0x157
	movl	$8, %ecx
	callq	_KLoad1
	movl	$344, %esi              # imm = 0x158
	movl	$8, %edx
	movq	%r14, %rdi
	callq	_KLoad0
	.loc	3 269 77 is_stmt 1      # aes.c:269:77
	movq	-104(%rbp), %r13
	shrq	$13, %r13
	.loc	3 269 33 is_stmt 0      # aes.c:269:33
	andq	$2040, %r13             # imm = 0x7F8
	leaq	rijndael_enc_ft_tab+4096(%r13), %rdi
	movl	$345, %esi              # imm = 0x159
	movl	$346, %edx              # imm = 0x15A
	movl	$8, %ecx
	callq	_KLoad1
	movl	$347, %esi              # imm = 0x15B
	movl	$8, %edx
	movq	-144(%rbp), %rdi        # 8-byte Reload
	callq	_KLoad0
	.loc	3 270 77 is_stmt 1      # aes.c:270:77
	movq	-96(%rbp), %rbx
	shrq	$21, %rbx
	.loc	3 270 33 is_stmt 0      # aes.c:270:33
	andq	$2040, %rbx             # imm = 0x7F8
	leaq	rijndael_enc_ft_tab+6144(%rbx), %rdi
	movl	$348, %esi              # imm = 0x15C
	movl	$349, %edx              # imm = 0x15D
	movl	$8, %ecx
	callq	_KLoad1
	.loc	3 267 33 is_stmt 1      # aes.c:267:33
	xorq	rijndael_enc_ft_tab(,%r15,8), %r12
	movq	-176(%rbp), %rax        # 8-byte Reload
	xorq	rijndael_enc_ft_tab+2048(,%rax,8), %r12
	xorq	rijndael_enc_ft_tab+4096(%r13), %r12
	.loc	3 267 15 is_stmt 0      # aes.c:267:15
	xorq	rijndael_enc_ft_tab+6144(%rbx), %r12
	movl	$2, 48(%rsp)
	movl	$348, 40(%rsp)          # imm = 0x15C
	movl	$3, 32(%rsp)
	movl	$345, 24(%rsp)          # imm = 0x159
	movl	$4, 16(%rsp)
	movl	$342, 8(%rsp)           # imm = 0x156
	movl	$4, (%rsp)
	movl	$350, %edi              # imm = 0x15E
	movl	$14, %esi
	movl	$4, %edx
	movl	$337, %ecx              # imm = 0x151
	movl	$1, %r8d
	movl	$339, %r9d              # imm = 0x153
	callq	_KTimestamp6
	movl	$350, %edi              # imm = 0x15E
	movl	$8, %edx
.Ltmp240:
	.loc	3 166 3 is_stmt 1       # aes.c:166:3
	leaq	-56(%rbp), %r15
	movq	%r15, %rsi
	callq	_KStore
	.loc	3 267 7                 # aes.c:267:7
.Ltmp241:
	movq	%r12, -56(%rbp)
	movq	-128(%rbp), %r14        # 8-byte Reload
	movq	-120(%rbp), %rbx        # 8-byte Reload
.Ltmp242:
	#DEBUG_VALUE: rijndael_enc_encrypt:cx <- RBX
	.loc	3 271 17                # aes.c:271:17
	leaq	80(%rbx,%r14,8), %rdi
	movl	$351, %esi              # imm = 0x15F
	movl	$8, %edx
	callq	_KLoad0
	.loc	3 271 15 is_stmt 0      # aes.c:271:15
	movq	80(%rbx,%r14,8), %r12
.Ltmp243:
	#DEBUG_VALUE: rijndael_enc_encrypt:cx <- [RBP+-120]
	movl	$352, %esi              # imm = 0x160
	movl	$8, %edx
	leaq	-80(%rbp), %rdi
	callq	_KLoad0
	.loc	3 271 75                # aes.c:271:75
	movzbl	-80(%rbp), %eax
	.loc	3 271 33                # aes.c:271:33
	movq	%rax, -176(%rbp)        # 8-byte Spill
	leaq	rijndael_enc_ft_tab(,%rax,8), %rdi
	movl	$353, %esi              # imm = 0x161
	movl	$354, %edx              # imm = 0x162
	movl	$8, %ecx
	callq	_KLoad1
	movl	$355, %esi              # imm = 0x163
	movl	$8, %edx
.Ltmp244:
	.loc	3 164 3 is_stmt 1       # aes.c:164:3
	leaq	-72(%rbp), %r14
	movq	%r14, %rdi
	callq	_KLoad0
	.loc	3 272 77                # aes.c:272:77
.Ltmp245:
	movq	-72(%rbp), %rax
	.loc	3 272 33 is_stmt 0      # aes.c:272:33
	movzbl	%ah, %eax  # NOREX
	movq	%rax, -184(%rbp)        # 8-byte Spill
	leaq	rijndael_enc_ft_tab+2048(,%rax,8), %rdi
	movl	$356, %esi              # imm = 0x164
	movl	$357, %edx              # imm = 0x165
	movl	$8, %ecx
	callq	_KLoad1
	movl	$358, %esi              # imm = 0x166
	movl	$8, %edx
.Ltmp246:
	.loc	3 165 3 is_stmt 1       # aes.c:165:3
	leaq	-64(%rbp), %rdi
	callq	_KLoad0
	.loc	3 273 77                # aes.c:273:77
.Ltmp247:
	movq	-64(%rbp), %r13
	shrq	$13, %r13
	.loc	3 273 33 is_stmt 0      # aes.c:273:33
	andq	$2040, %r13             # imm = 0x7F8
	leaq	rijndael_enc_ft_tab+4096(%r13), %rdi
	movl	$359, %esi              # imm = 0x167
	movl	$360, %edx              # imm = 0x168
	movl	$8, %ecx
	callq	_KLoad1
	movl	$361, %esi              # imm = 0x169
	movl	$8, %edx
	movq	%r15, %rdi
	callq	_KLoad0
	.loc	3 274 77 is_stmt 1      # aes.c:274:77
	movq	-56(%rbp), %rbx
	shrq	$21, %rbx
	.loc	3 274 33 is_stmt 0      # aes.c:274:33
	andq	$2040, %rbx             # imm = 0x7F8
	leaq	rijndael_enc_ft_tab+6144(%rbx), %rdi
	movl	$362, %esi              # imm = 0x16A
	movl	$363, %edx              # imm = 0x16B
	movl	$8, %ecx
	callq	_KLoad1
	.loc	3 271 33 is_stmt 1      # aes.c:271:33
	movq	-176(%rbp), %rax        # 8-byte Reload
	xorq	rijndael_enc_ft_tab(,%rax,8), %r12
	movq	-184(%rbp), %rax        # 8-byte Reload
	xorq	rijndael_enc_ft_tab+2048(,%rax,8), %r12
	xorq	rijndael_enc_ft_tab+4096(%r13), %r12
	.loc	3 271 15 is_stmt 0      # aes.c:271:15
	xorq	rijndael_enc_ft_tab+6144(%rbx), %r12
	movl	$3, 48(%rsp)
	movl	$359, 40(%rsp)          # imm = 0x167
	movl	$4, 32(%rsp)
	movl	$356, 24(%rsp)          # imm = 0x164
	movl	$4, 16(%rsp)
	movl	$353, 8(%rsp)           # imm = 0x161
	movl	$1, (%rsp)
	movl	$364, %edi              # imm = 0x16C
	movl	$362, %esi              # imm = 0x16A
	movl	$2, %edx
	movl	$14, %ecx
	movl	$4, %r8d
	movl	$351, %r9d              # imm = 0x15F
	callq	_KTimestamp6
	movl	$364, %edi              # imm = 0x16C
	movl	$8, %edx
	movq	-136(%rbp), %rsi        # 8-byte Reload
	callq	_KStore
	.loc	3 271 7                 # aes.c:271:7
	movq	%r12, -112(%rbp)
	movq	-128(%rbp), %r15        # 8-byte Reload
	movq	-120(%rbp), %rbx        # 8-byte Reload
.Ltmp248:
	#DEBUG_VALUE: rijndael_enc_encrypt:cx <- RBX
	.loc	3 275 15 is_stmt 1      # aes.c:275:15
	leaq	88(%rbx,%r15,8), %rdi
	movl	$365, %esi              # imm = 0x16D
	movl	$8, %edx
	callq	_KLoad0
	movq	88(%rbx,%r15,8), %r12
.Ltmp249:
	#DEBUG_VALUE: rijndael_enc_encrypt:cx <- [RBP+-120]
	movl	$366, %esi              # imm = 0x16E
	movl	$8, %edx
	movq	%r14, %rdi
	callq	_KLoad0
	.loc	3 275 75 is_stmt 0      # aes.c:275:75
	movzbl	-72(%rbp), %r15d
	.loc	3 275 33                # aes.c:275:33
	leaq	rijndael_enc_ft_tab(,%r15,8), %rdi
	movl	$367, %esi              # imm = 0x16F
	movl	$368, %edx              # imm = 0x170
	movl	$8, %ecx
	callq	_KLoad1
	movl	$369, %esi              # imm = 0x171
	movl	$8, %edx
.Ltmp250:
	.loc	3 165 3 is_stmt 1       # aes.c:165:3
	leaq	-64(%rbp), %r14
	movq	%r14, %rdi
	callq	_KLoad0
	.loc	3 276 77                # aes.c:276:77
.Ltmp251:
	movq	-64(%rbp), %rax
	.loc	3 276 33 is_stmt 0      # aes.c:276:33
	movzbl	%ah, %eax  # NOREX
	movq	%rax, -176(%rbp)        # 8-byte Spill
	leaq	rijndael_enc_ft_tab+2048(,%rax,8), %rdi
	movl	$370, %esi              # imm = 0x172
	movl	$371, %edx              # imm = 0x173
	movl	$8, %ecx
	callq	_KLoad1
	movl	$372, %esi              # imm = 0x174
	movl	$8, %edx
.Ltmp252:
	.loc	3 166 3 is_stmt 1       # aes.c:166:3
	leaq	-56(%rbp), %rdi
	callq	_KLoad0
	.loc	3 277 77                # aes.c:277:77
.Ltmp253:
	movq	-56(%rbp), %r13
	shrq	$13, %r13
	.loc	3 277 33 is_stmt 0      # aes.c:277:33
	andq	$2040, %r13             # imm = 0x7F8
	leaq	rijndael_enc_ft_tab+4096(%r13), %rdi
	movl	$373, %esi              # imm = 0x175
	movl	$374, %edx              # imm = 0x176
	movl	$8, %ecx
	callq	_KLoad1
	movl	$375, %esi              # imm = 0x177
	movl	$8, %edx
	leaq	-80(%rbp), %rdi
	callq	_KLoad0
	.loc	3 278 77 is_stmt 1      # aes.c:278:77
	movq	-80(%rbp), %rbx
	shrq	$21, %rbx
	.loc	3 278 33 is_stmt 0      # aes.c:278:33
	andq	$2040, %rbx             # imm = 0x7F8
	leaq	rijndael_enc_ft_tab+6144(%rbx), %rdi
	movl	$376, %esi              # imm = 0x178
	movl	$377, %edx              # imm = 0x179
	movl	$8, %ecx
	callq	_KLoad1
	.loc	3 275 33 is_stmt 1      # aes.c:275:33
	xorq	rijndael_enc_ft_tab(,%r15,8), %r12
	movq	-176(%rbp), %rax        # 8-byte Reload
	xorq	rijndael_enc_ft_tab+2048(,%rax,8), %r12
	xorq	rijndael_enc_ft_tab+4096(%r13), %r12
	.loc	3 275 15 is_stmt 0      # aes.c:275:15
	xorq	rijndael_enc_ft_tab+6144(%rbx), %r12
	movl	$4, 48(%rsp)
	movl	$14, 40(%rsp)
	movl	$2, 32(%rsp)
	movl	$376, 24(%rsp)          # imm = 0x178
	movl	$3, 16(%rsp)
	movl	$373, 8(%rsp)           # imm = 0x175
	movl	$4, (%rsp)
	movl	$378, %edi              # imm = 0x17A
	movl	$365, %esi              # imm = 0x16D
	movl	$1, %edx
	movl	$367, %ecx              # imm = 0x16F
	movl	$4, %r8d
	movl	$370, %r9d              # imm = 0x172
	callq	_KTimestamp6
	movl	$378, %edi              # imm = 0x17A
	movl	$8, %edx
	movq	-160(%rbp), %rsi        # 8-byte Reload
	callq	_KStore
	.loc	3 275 7                 # aes.c:275:7
	movq	%r12, -104(%rbp)
	movq	-128(%rbp), %r15        # 8-byte Reload
	movq	-120(%rbp), %rbx        # 8-byte Reload
.Ltmp254:
	#DEBUG_VALUE: rijndael_enc_encrypt:cx <- RBX
	.loc	3 279 15 is_stmt 1      # aes.c:279:15
	leaq	96(%rbx,%r15,8), %rdi
	movl	$379, %esi              # imm = 0x17B
	movl	$8, %edx
	callq	_KLoad0
	movq	96(%rbx,%r15,8), %r12
.Ltmp255:
	#DEBUG_VALUE: rijndael_enc_encrypt:cx <- [RBP+-120]
	movl	$380, %esi              # imm = 0x17C
	movl	$8, %edx
	movq	%r14, %rdi
	callq	_KLoad0
	.loc	3 279 75 is_stmt 0      # aes.c:279:75
	movzbl	-64(%rbp), %r15d
	.loc	3 279 33                # aes.c:279:33
	leaq	rijndael_enc_ft_tab(,%r15,8), %rdi
	movl	$381, %esi              # imm = 0x17D
	movl	$382, %edx              # imm = 0x17E
	movl	$8, %ecx
	callq	_KLoad1
	movl	$383, %esi              # imm = 0x17F
	movl	$8, %edx
.Ltmp256:
	.loc	3 166 3 is_stmt 1       # aes.c:166:3
	leaq	-56(%rbp), %rdi
	callq	_KLoad0
	.loc	3 280 77                # aes.c:280:77
.Ltmp257:
	movq	-56(%rbp), %rax
	.loc	3 280 33 is_stmt 0      # aes.c:280:33
	movzbl	%ah, %eax  # NOREX
	movq	%rax, -176(%rbp)        # 8-byte Spill
	leaq	rijndael_enc_ft_tab+2048(,%rax,8), %rdi
	movl	$384, %esi              # imm = 0x180
	movl	$385, %edx              # imm = 0x181
	movl	$8, %ecx
	callq	_KLoad1
	movl	$386, %esi              # imm = 0x182
	movl	$8, %edx
	leaq	-80(%rbp), %r14
	movq	%r14, %rdi
	callq	_KLoad0
	.loc	3 281 77 is_stmt 1      # aes.c:281:77
	movq	-80(%rbp), %r13
	shrq	$13, %r13
	.loc	3 281 33 is_stmt 0      # aes.c:281:33
	andq	$2040, %r13             # imm = 0x7F8
	leaq	rijndael_enc_ft_tab+4096(%r13), %rdi
	movl	$387, %esi              # imm = 0x183
	movl	$388, %edx              # imm = 0x184
	movl	$8, %ecx
	callq	_KLoad1
	movl	$389, %esi              # imm = 0x185
	movl	$8, %edx
.Ltmp258:
	.loc	3 164 3 is_stmt 1       # aes.c:164:3
	leaq	-72(%rbp), %rdi
	callq	_KLoad0
	.loc	3 282 77                # aes.c:282:77
.Ltmp259:
	movq	-72(%rbp), %rbx
	shrq	$21, %rbx
	.loc	3 282 33 is_stmt 0      # aes.c:282:33
	andq	$2040, %rbx             # imm = 0x7F8
	leaq	rijndael_enc_ft_tab+6144(%rbx), %rdi
	movl	$390, %esi              # imm = 0x186
	movl	$391, %edx              # imm = 0x187
	movl	$8, %ecx
	callq	_KLoad1
	.loc	3 279 33 is_stmt 1      # aes.c:279:33
	xorq	rijndael_enc_ft_tab(,%r15,8), %r12
	movq	-176(%rbp), %rax        # 8-byte Reload
	xorq	rijndael_enc_ft_tab+2048(,%rax,8), %r12
	xorq	rijndael_enc_ft_tab+4096(%r13), %r12
	.loc	3 279 15 is_stmt 0      # aes.c:279:15
	xorq	rijndael_enc_ft_tab+6144(%rbx), %r12
	movl	$4, 48(%rsp)
	movl	$14, 40(%rsp)
	movl	$2, 32(%rsp)
	movl	$390, 24(%rsp)          # imm = 0x186
	movl	$3, 16(%rsp)
	movl	$387, 8(%rsp)           # imm = 0x183
	movl	$4, (%rsp)
	movl	$392, %edi              # imm = 0x188
	movl	$379, %esi              # imm = 0x17B
	movl	$1, %edx
	movl	$381, %ecx              # imm = 0x17D
	movl	$4, %r8d
	movl	$384, %r9d              # imm = 0x180
	callq	_KTimestamp6
	movl	$392, %edi              # imm = 0x188
	movl	$8, %edx
	movq	-144(%rbp), %rsi        # 8-byte Reload
	callq	_KStore
	.loc	3 279 7                 # aes.c:279:7
	movq	%r12, -96(%rbp)
	movq	-128(%rbp), %r15        # 8-byte Reload
	movq	-120(%rbp), %rbx        # 8-byte Reload
.Ltmp260:
	#DEBUG_VALUE: rijndael_enc_encrypt:cx <- RBX
	.loc	3 283 15 is_stmt 1      # aes.c:283:15
	leaq	104(%rbx,%r15,8), %rdi
	movl	$393, %esi              # imm = 0x189
	movl	$8, %edx
	callq	_KLoad0
	movq	104(%rbx,%r15,8), %r12
.Ltmp261:
	#DEBUG_VALUE: rijndael_enc_encrypt:cx <- [RBP+-120]
	movl	$394, %esi              # imm = 0x18A
	movl	$8, %edx
.Ltmp262:
	.loc	3 166 3                 # aes.c:166:3
	leaq	-56(%rbp), %rdi
	callq	_KLoad0
	.loc	3 283 75                # aes.c:283:75
.Ltmp263:
	movzbl	-56(%rbp), %r15d
	.loc	3 283 33 is_stmt 0      # aes.c:283:33
	leaq	rijndael_enc_ft_tab(,%r15,8), %rdi
	movl	$395, %esi              # imm = 0x18B
	movl	$396, %edx              # imm = 0x18C
	movl	$8, %ecx
	callq	_KLoad1
	movl	$397, %esi              # imm = 0x18D
	movl	$8, %edx
	movq	%r14, %rdi
	callq	_KLoad0
	.loc	3 284 77 is_stmt 1      # aes.c:284:77
	movq	-80(%rbp), %rax
	.loc	3 284 33 is_stmt 0      # aes.c:284:33
	movzbl	%ah, %eax  # NOREX
	leaq	rijndael_enc_ft_tab+2048(,%rax,8), %rdi
	movq	%rax, %r14
	movl	$398, %esi              # imm = 0x18E
	movl	$399, %edx              # imm = 0x18F
	movl	$8, %ecx
	callq	_KLoad1
	movl	$400, %esi              # imm = 0x190
	movl	$8, %edx
.Ltmp264:
	.loc	3 164 3 is_stmt 1       # aes.c:164:3
	leaq	-72(%rbp), %rdi
	callq	_KLoad0
	.loc	3 285 77                # aes.c:285:77
.Ltmp265:
	movq	-72(%rbp), %r13
	shrq	$13, %r13
	.loc	3 285 33 is_stmt 0      # aes.c:285:33
	andq	$2040, %r13             # imm = 0x7F8
	leaq	rijndael_enc_ft_tab+4096(%r13), %rdi
	movl	$401, %esi              # imm = 0x191
	movl	$402, %edx              # imm = 0x192
	movl	$8, %ecx
	callq	_KLoad1
	movl	$403, %esi              # imm = 0x193
	movl	$8, %edx
.Ltmp266:
	.loc	3 165 3 is_stmt 1       # aes.c:165:3
	leaq	-64(%rbp), %rdi
	callq	_KLoad0
	.loc	3 286 77                # aes.c:286:77
.Ltmp267:
	movq	-64(%rbp), %rbx
	shrq	$21, %rbx
	.loc	3 286 33 is_stmt 0      # aes.c:286:33
	andq	$2040, %rbx             # imm = 0x7F8
	leaq	rijndael_enc_ft_tab+6144(%rbx), %rdi
	movl	$404, %esi              # imm = 0x194
	movl	$405, %edx              # imm = 0x195
	movl	$8, %ecx
	callq	_KLoad1
	.loc	3 283 33 is_stmt 1      # aes.c:283:33
	xorq	rijndael_enc_ft_tab(,%r15,8), %r12
	xorq	rijndael_enc_ft_tab+2048(,%r14,8), %r12
	xorq	rijndael_enc_ft_tab+4096(%r13), %r12
	.loc	3 283 15 is_stmt 0      # aes.c:283:15
	xorq	rijndael_enc_ft_tab+6144(%rbx), %r12
	movl	$4, 48(%rsp)
	movl	$14, 40(%rsp)
	movl	$2, 32(%rsp)
	movl	$404, 24(%rsp)          # imm = 0x194
	movl	$3, 16(%rsp)
	movl	$401, 8(%rsp)           # imm = 0x191
	movl	$4, (%rsp)
	movl	$406, %edi              # imm = 0x196
	movl	$393, %esi              # imm = 0x189
	movl	$1, %edx
	movl	$395, %ecx              # imm = 0x18B
	movl	$4, %r8d
	movl	$398, %r9d              # imm = 0x18E
	callq	_KTimestamp6
	movl	$406, %edi              # imm = 0x196
	movl	$8, %edx
	movq	-152(%rbp), %r15        # 8-byte Reload
	movq	%r15, %rsi
	callq	_KStore
	.loc	3 283 7                 # aes.c:283:7
	movq	%r12, -88(%rbp)
	movq	-128(%rbp), %r14        # 8-byte Reload
	movq	-120(%rbp), %rbx        # 8-byte Reload
.Ltmp268:
	#DEBUG_VALUE: rijndael_enc_encrypt:cx <- RBX
	.loc	3 287 17 is_stmt 1      # aes.c:287:17
	leaq	112(%rbx,%r14,8), %rdi
	movl	$407, %esi              # imm = 0x197
	movl	$8, %edx
	callq	_KLoad0
	.loc	3 287 15 is_stmt 0      # aes.c:287:15
	movq	112(%rbx,%r14,8), %r12
.Ltmp269:
	#DEBUG_VALUE: rijndael_enc_encrypt:cx <- [RBP+-120]
	movl	$408, %esi              # imm = 0x198
	movl	$8, %edx
	movq	-136(%rbp), %rdi        # 8-byte Reload
	callq	_KLoad0
	.loc	3 287 76                # aes.c:287:76
	movzbl	-112(%rbp), %eax
	.loc	3 287 34                # aes.c:287:34
	movq	%rax, -176(%rbp)        # 8-byte Spill
	leaq	rijndael_enc_ft_tab(,%rax,8), %rdi
	movl	$409, %esi              # imm = 0x199
	movl	$410, %edx              # imm = 0x19A
	movl	$8, %ecx
	callq	_KLoad1
	movl	$411, %esi              # imm = 0x19B
	movl	$8, %edx
	movq	-160(%rbp), %rdi        # 8-byte Reload
	callq	_KLoad0
	.loc	3 288 78 is_stmt 1      # aes.c:288:78
	movq	-104(%rbp), %rax
	.loc	3 288 34 is_stmt 0      # aes.c:288:34
	movzbl	%ah, %eax  # NOREX
	movq	%rax, -184(%rbp)        # 8-byte Spill
	leaq	rijndael_enc_ft_tab+2048(,%rax,8), %rdi
	movl	$412, %esi              # imm = 0x19C
	movl	$413, %edx              # imm = 0x19D
	movl	$8, %ecx
	callq	_KLoad1
	movl	$414, %esi              # imm = 0x19E
	movl	$8, %edx
	movq	-144(%rbp), %r14        # 8-byte Reload
	movq	%r14, %rdi
	callq	_KLoad0
	.loc	3 289 78 is_stmt 1      # aes.c:289:78
	movq	-96(%rbp), %r13
	shrq	$13, %r13
	.loc	3 289 34 is_stmt 0      # aes.c:289:34
	andq	$2040, %r13             # imm = 0x7F8
	leaq	rijndael_enc_ft_tab+4096(%r13), %rdi
	movl	$415, %esi              # imm = 0x19F
	movl	$416, %edx              # imm = 0x1A0
	movl	$8, %ecx
	callq	_KLoad1
	movl	$417, %esi              # imm = 0x1A1
	movl	$8, %edx
	movq	%r15, %rdi
	callq	_KLoad0
	.loc	3 290 78 is_stmt 1      # aes.c:290:78
	movq	-88(%rbp), %rbx
	shrq	$21, %rbx
	.loc	3 290 34 is_stmt 0      # aes.c:290:34
	andq	$2040, %rbx             # imm = 0x7F8
	leaq	rijndael_enc_ft_tab+6144(%rbx), %rdi
	movl	$418, %esi              # imm = 0x1A2
	movl	$419, %edx              # imm = 0x1A3
	movl	$8, %ecx
	callq	_KLoad1
	.loc	3 287 34 is_stmt 1      # aes.c:287:34
	movq	-176(%rbp), %rax        # 8-byte Reload
	xorq	rijndael_enc_ft_tab(,%rax,8), %r12
	movq	-184(%rbp), %rax        # 8-byte Reload
	xorq	rijndael_enc_ft_tab+2048(,%rax,8), %r12
	xorq	rijndael_enc_ft_tab+4096(%r13), %r12
	.loc	3 287 15 is_stmt 0      # aes.c:287:15
	xorq	rijndael_enc_ft_tab+6144(%rbx), %r12
	movl	$4, 48(%rsp)
	movl	$14, 40(%rsp)
	movl	$2, 32(%rsp)
	movl	$418, 24(%rsp)          # imm = 0x1A2
	movl	$3, 16(%rsp)
	movl	$415, 8(%rsp)           # imm = 0x19F
	movl	$4, (%rsp)
	movl	$420, %edi              # imm = 0x1A4
	movl	$407, %esi              # imm = 0x197
	movl	$1, %edx
	movl	$409, %ecx              # imm = 0x199
	movl	$4, %r8d
	movl	$412, %r9d              # imm = 0x19C
	callq	_KTimestamp6
	movl	$420, %edi              # imm = 0x1A4
	movl	$8, %edx
	leaq	-80(%rbp), %rsi
	callq	_KStore
	.loc	3 287 7                 # aes.c:287:7
	movq	%r12, -80(%rbp)
	movq	-128(%rbp), %r15        # 8-byte Reload
	movq	-120(%rbp), %rbx        # 8-byte Reload
.Ltmp270:
	#DEBUG_VALUE: rijndael_enc_encrypt:cx <- RBX
	.loc	3 291 15 is_stmt 1      # aes.c:291:15
	leaq	120(%rbx,%r15,8), %rdi
	movl	$421, %esi              # imm = 0x1A5
	movl	$8, %edx
	callq	_KLoad0
	movq	120(%rbx,%r15,8), %r12
.Ltmp271:
	#DEBUG_VALUE: rijndael_enc_encrypt:cx <- [RBP+-120]
	movl	$422, %esi              # imm = 0x1A6
	movl	$8, %edx
	movq	-160(%rbp), %rdi        # 8-byte Reload
	callq	_KLoad0
	.loc	3 291 76 is_stmt 0      # aes.c:291:76
	movzbl	-104(%rbp), %r15d
	.loc	3 291 34                # aes.c:291:34
	leaq	rijndael_enc_ft_tab(,%r15,8), %rdi
	movl	$423, %esi              # imm = 0x1A7
	movl	$424, %edx              # imm = 0x1A8
	movl	$8, %ecx
	callq	_KLoad1
	movl	$425, %esi              # imm = 0x1A9
	movl	$8, %edx
	movq	%r14, %rdi
	callq	_KLoad0
	.loc	3 292 78 is_stmt 1      # aes.c:292:78
	movq	-96(%rbp), %rax
	.loc	3 292 34 is_stmt 0      # aes.c:292:34
	movzbl	%ah, %eax  # NOREX
	movq	%rax, -176(%rbp)        # 8-byte Spill
	leaq	rijndael_enc_ft_tab+2048(,%rax,8), %rdi
	movl	$426, %esi              # imm = 0x1AA
	movl	$427, %edx              # imm = 0x1AB
	movl	$8, %ecx
	callq	_KLoad1
	movl	$428, %esi              # imm = 0x1AC
	movl	$8, %edx
	movq	-152(%rbp), %r14        # 8-byte Reload
	movq	%r14, %rdi
	callq	_KLoad0
	.loc	3 293 78 is_stmt 1      # aes.c:293:78
	movq	-88(%rbp), %r13
	shrq	$13, %r13
	.loc	3 293 34 is_stmt 0      # aes.c:293:34
	andq	$2040, %r13             # imm = 0x7F8
	leaq	rijndael_enc_ft_tab+4096(%r13), %rdi
	movl	$429, %esi              # imm = 0x1AD
	movl	$430, %edx              # imm = 0x1AE
	movl	$8, %ecx
	callq	_KLoad1
	movl	$431, %esi              # imm = 0x1AF
	movl	$8, %edx
	movq	-136(%rbp), %rdi        # 8-byte Reload
	callq	_KLoad0
	.loc	3 294 78 is_stmt 1      # aes.c:294:78
	movq	-112(%rbp), %rbx
	shrq	$21, %rbx
	.loc	3 294 34 is_stmt 0      # aes.c:294:34
	andq	$2040, %rbx             # imm = 0x7F8
	leaq	rijndael_enc_ft_tab+6144(%rbx), %rdi
	movl	$432, %esi              # imm = 0x1B0
	movl	$433, %edx              # imm = 0x1B1
	movl	$8, %ecx
	callq	_KLoad1
	.loc	3 291 34 is_stmt 1      # aes.c:291:34
	xorq	rijndael_enc_ft_tab(,%r15,8), %r12
	movq	-176(%rbp), %rax        # 8-byte Reload
	xorq	rijndael_enc_ft_tab+2048(,%rax,8), %r12
	xorq	rijndael_enc_ft_tab+4096(%r13), %r12
	.loc	3 291 15 is_stmt 0      # aes.c:291:15
	xorq	rijndael_enc_ft_tab+6144(%rbx), %r12
	movl	$4, 48(%rsp)
	movl	$14, 40(%rsp)
	movl	$2, 32(%rsp)
	movl	$432, 24(%rsp)          # imm = 0x1B0
	movl	$3, 16(%rsp)
	movl	$429, 8(%rsp)           # imm = 0x1AD
	movl	$4, (%rsp)
	movl	$434, %edi              # imm = 0x1B2
	movl	$421, %esi              # imm = 0x1A5
	movl	$1, %edx
	movl	$423, %ecx              # imm = 0x1A7
	movl	$4, %r8d
	movl	$426, %r9d              # imm = 0x1AA
	callq	_KTimestamp6
	movl	$434, %edi              # imm = 0x1B2
	movl	$8, %edx
.Ltmp272:
	.loc	3 164 3 is_stmt 1       # aes.c:164:3
	leaq	-72(%rbp), %rsi
	callq	_KStore
	.loc	3 291 7                 # aes.c:291:7
.Ltmp273:
	movq	%r12, -72(%rbp)
	movq	-128(%rbp), %r15        # 8-byte Reload
	movq	-120(%rbp), %rbx        # 8-byte Reload
.Ltmp274:
	#DEBUG_VALUE: rijndael_enc_encrypt:cx <- RBX
	.loc	3 295 15                # aes.c:295:15
	leaq	128(%rbx,%r15,8), %rdi
	movl	$435, %esi              # imm = 0x1B3
	movl	$8, %edx
	callq	_KLoad0
	movq	128(%rbx,%r15,8), %r12
.Ltmp275:
	#DEBUG_VALUE: rijndael_enc_encrypt:cx <- [RBP+-120]
	movl	$436, %esi              # imm = 0x1B4
	movl	$8, %edx
	movq	-144(%rbp), %rdi        # 8-byte Reload
	callq	_KLoad0
	.loc	3 295 76 is_stmt 0      # aes.c:295:76
	movzbl	-96(%rbp), %r15d
	.loc	3 295 34                # aes.c:295:34
	leaq	rijndael_enc_ft_tab(,%r15,8), %rdi
	movl	$437, %esi              # imm = 0x1B5
	movl	$438, %edx              # imm = 0x1B6
	movl	$8, %ecx
	callq	_KLoad1
	movl	$439, %esi              # imm = 0x1B7
	movl	$8, %edx
	movq	%r14, %rdi
	callq	_KLoad0
	.loc	3 296 78 is_stmt 1      # aes.c:296:78
	movq	-88(%rbp), %rax
	.loc	3 296 34 is_stmt 0      # aes.c:296:34
	movzbl	%ah, %eax  # NOREX
	movq	%rax, -176(%rbp)        # 8-byte Spill
	leaq	rijndael_enc_ft_tab+2048(,%rax,8), %rdi
	movl	$440, %esi              # imm = 0x1B8
	movl	$441, %edx              # imm = 0x1B9
	movl	$8, %ecx
	callq	_KLoad1
	movl	$442, %esi              # imm = 0x1BA
	movl	$8, %edx
	movq	-136(%rbp), %rdi        # 8-byte Reload
	callq	_KLoad0
	.loc	3 297 78 is_stmt 1      # aes.c:297:78
	movq	-112(%rbp), %r13
	shrq	$13, %r13
	.loc	3 297 34 is_stmt 0      # aes.c:297:34
	andq	$2040, %r13             # imm = 0x7F8
	leaq	rijndael_enc_ft_tab+4096(%r13), %rdi
	movl	$443, %esi              # imm = 0x1BB
	movl	$444, %edx              # imm = 0x1BC
	movl	$8, %ecx
	callq	_KLoad1
	movl	$445, %esi              # imm = 0x1BD
	movl	$8, %edx
	movq	-160(%rbp), %r14        # 8-byte Reload
	movq	%r14, %rdi
	callq	_KLoad0
	.loc	3 298 78 is_stmt 1      # aes.c:298:78
	movq	-104(%rbp), %rbx
	shrq	$21, %rbx
	.loc	3 298 34 is_stmt 0      # aes.c:298:34
	andq	$2040, %rbx             # imm = 0x7F8
	leaq	rijndael_enc_ft_tab+6144(%rbx), %rdi
	movl	$446, %esi              # imm = 0x1BE
	movl	$447, %edx              # imm = 0x1BF
	movl	$8, %ecx
	callq	_KLoad1
	.loc	3 295 34 is_stmt 1      # aes.c:295:34
	xorq	rijndael_enc_ft_tab(,%r15,8), %r12
	movq	-176(%rbp), %rax        # 8-byte Reload
	xorq	rijndael_enc_ft_tab+2048(,%rax,8), %r12
	xorq	rijndael_enc_ft_tab+4096(%r13), %r12
	.loc	3 295 15 is_stmt 0      # aes.c:295:15
	xorq	rijndael_enc_ft_tab+6144(%rbx), %r12
	movl	$2, 48(%rsp)
	movl	$446, 40(%rsp)          # imm = 0x1BE
	movl	$3, 32(%rsp)
	movl	$443, 24(%rsp)          # imm = 0x1BB
	movl	$4, 16(%rsp)
	movl	$440, 8(%rsp)           # imm = 0x1B8
	movl	$4, (%rsp)
	movl	$448, %edi              # imm = 0x1C0
	movl	$435, %esi              # imm = 0x1B3
	movl	$1, %edx
	movl	$437, %ecx              # imm = 0x1B5
	movl	$4, %r8d
	movl	$14, %r9d
	callq	_KTimestamp6
	movl	$448, %edi              # imm = 0x1C0
	movl	$8, %edx
.Ltmp276:
	.loc	3 165 3 is_stmt 1       # aes.c:165:3
	leaq	-64(%rbp), %rsi
	callq	_KStore
	.loc	3 295 7                 # aes.c:295:7
.Ltmp277:
	movq	%r12, -64(%rbp)
	movq	-128(%rbp), %r15        # 8-byte Reload
	movq	-120(%rbp), %rbx        # 8-byte Reload
.Ltmp278:
	#DEBUG_VALUE: rijndael_enc_encrypt:cx <- RBX
	.loc	3 299 15                # aes.c:299:15
	leaq	136(%rbx,%r15,8), %rdi
	movl	$449, %esi              # imm = 0x1C1
	movl	$8, %edx
	callq	_KLoad0
	movq	136(%rbx,%r15,8), %r12
.Ltmp279:
	#DEBUG_VALUE: rijndael_enc_encrypt:cx <- [RBP+-120]
	movl	$450, %esi              # imm = 0x1C2
	movl	$8, %edx
	movq	-152(%rbp), %rdi        # 8-byte Reload
	callq	_KLoad0
	.loc	3 299 76 is_stmt 0      # aes.c:299:76
	movzbl	-88(%rbp), %r15d
	.loc	3 299 34                # aes.c:299:34
	leaq	rijndael_enc_ft_tab(,%r15,8), %rdi
	movl	$451, %esi              # imm = 0x1C3
	movl	$452, %edx              # imm = 0x1C4
	movl	$8, %ecx
	callq	_KLoad1
	movl	$453, %esi              # imm = 0x1C5
	movl	$8, %edx
	movq	-136(%rbp), %rdi        # 8-byte Reload
	callq	_KLoad0
	.loc	3 300 78 is_stmt 1      # aes.c:300:78
	movq	-112(%rbp), %rax
	.loc	3 300 34 is_stmt 0      # aes.c:300:34
	movzbl	%ah, %eax  # NOREX
	movq	%rax, -176(%rbp)        # 8-byte Spill
	leaq	rijndael_enc_ft_tab+2048(,%rax,8), %rdi
	movl	$454, %esi              # imm = 0x1C6
	movl	$455, %edx              # imm = 0x1C7
	movl	$8, %ecx
	callq	_KLoad1
	movl	$456, %esi              # imm = 0x1C8
	movl	$8, %edx
	movq	%r14, %rdi
	callq	_KLoad0
	.loc	3 301 78 is_stmt 1      # aes.c:301:78
	movq	-104(%rbp), %r13
	shrq	$13, %r13
	.loc	3 301 34 is_stmt 0      # aes.c:301:34
	andq	$2040, %r13             # imm = 0x7F8
	leaq	rijndael_enc_ft_tab+4096(%r13), %rdi
	movl	$457, %esi              # imm = 0x1C9
	movl	$458, %edx              # imm = 0x1CA
	movl	$8, %ecx
	callq	_KLoad1
	movl	$459, %esi              # imm = 0x1CB
	movl	$8, %edx
	movq	-144(%rbp), %rdi        # 8-byte Reload
	callq	_KLoad0
	.loc	3 302 78 is_stmt 1      # aes.c:302:78
	movq	-96(%rbp), %rbx
	shrq	$21, %rbx
	.loc	3 302 34 is_stmt 0      # aes.c:302:34
	andq	$2040, %rbx             # imm = 0x7F8
	leaq	rijndael_enc_ft_tab+6144(%rbx), %rdi
	movl	$460, %esi              # imm = 0x1CC
	movl	$461, %edx              # imm = 0x1CD
	movl	$8, %ecx
	callq	_KLoad1
	.loc	3 299 34 is_stmt 1      # aes.c:299:34
	xorq	rijndael_enc_ft_tab(,%r15,8), %r12
	movq	-176(%rbp), %rax        # 8-byte Reload
	xorq	rijndael_enc_ft_tab+2048(,%rax,8), %r12
	xorq	rijndael_enc_ft_tab+4096(%r13), %r12
	.loc	3 299 15 is_stmt 0      # aes.c:299:15
	xorq	rijndael_enc_ft_tab+6144(%rbx), %r12
	movl	$2, 48(%rsp)
	movl	$460, 40(%rsp)          # imm = 0x1CC
	movl	$3, 32(%rsp)
	movl	$457, 24(%rsp)          # imm = 0x1C9
	movl	$4, 16(%rsp)
	movl	$454, 8(%rsp)           # imm = 0x1C6
	movl	$4, (%rsp)
	movl	$462, %edi              # imm = 0x1CE
	movl	$14, %esi
	movl	$4, %edx
	movl	$449, %ecx              # imm = 0x1C1
	movl	$1, %r8d
	movl	$451, %r9d              # imm = 0x1C3
	callq	_KTimestamp6
	movl	$462, %edi              # imm = 0x1CE
	movl	$8, %edx
.Ltmp280:
	.loc	3 166 3 is_stmt 1       # aes.c:166:3
	leaq	-56(%rbp), %r15
	movq	%r15, %rsi
	callq	_KStore
	.loc	3 299 7                 # aes.c:299:7
.Ltmp281:
	movq	%r12, -56(%rbp)
	movq	-128(%rbp), %r14        # 8-byte Reload
	movq	-120(%rbp), %rbx        # 8-byte Reload
.Ltmp282:
	#DEBUG_VALUE: rijndael_enc_encrypt:cx <- RBX
	.loc	3 303 17                # aes.c:303:17
	leaq	144(%rbx,%r14,8), %rdi
	movl	$463, %esi              # imm = 0x1CF
	movl	$8, %edx
	callq	_KLoad0
	.loc	3 303 15 is_stmt 0      # aes.c:303:15
	movq	144(%rbx,%r14,8), %r12
.Ltmp283:
	#DEBUG_VALUE: rijndael_enc_encrypt:cx <- [RBP+-120]
	movl	$464, %esi              # imm = 0x1D0
	movl	$8, %edx
	leaq	-80(%rbp), %rdi
	callq	_KLoad0
	.loc	3 303 76                # aes.c:303:76
	movzbl	-80(%rbp), %eax
	.loc	3 303 34                # aes.c:303:34
	movq	%rax, -176(%rbp)        # 8-byte Spill
	leaq	rijndael_enc_ft_tab(,%rax,8), %rdi
	movl	$465, %esi              # imm = 0x1D1
	movl	$466, %edx              # imm = 0x1D2
	movl	$8, %ecx
	callq	_KLoad1
	movl	$467, %esi              # imm = 0x1D3
	movl	$8, %edx
.Ltmp284:
	.loc	3 164 3 is_stmt 1       # aes.c:164:3
	leaq	-72(%rbp), %r14
	movq	%r14, %rdi
	callq	_KLoad0
	.loc	3 304 78                # aes.c:304:78
.Ltmp285:
	movq	-72(%rbp), %rax
	.loc	3 304 34 is_stmt 0      # aes.c:304:34
	movzbl	%ah, %eax  # NOREX
	movq	%rax, -184(%rbp)        # 8-byte Spill
	leaq	rijndael_enc_ft_tab+2048(,%rax,8), %rdi
	movl	$468, %esi              # imm = 0x1D4
	movl	$469, %edx              # imm = 0x1D5
	movl	$8, %ecx
	callq	_KLoad1
	movl	$470, %esi              # imm = 0x1D6
	movl	$8, %edx
.Ltmp286:
	.loc	3 165 3 is_stmt 1       # aes.c:165:3
	leaq	-64(%rbp), %rdi
	callq	_KLoad0
	.loc	3 305 78                # aes.c:305:78
.Ltmp287:
	movq	-64(%rbp), %r13
	shrq	$13, %r13
	.loc	3 305 34 is_stmt 0      # aes.c:305:34
	andq	$2040, %r13             # imm = 0x7F8
	leaq	rijndael_enc_ft_tab+4096(%r13), %rdi
	movl	$471, %esi              # imm = 0x1D7
	movl	$472, %edx              # imm = 0x1D8
	movl	$8, %ecx
	callq	_KLoad1
	movl	$473, %esi              # imm = 0x1D9
	movl	$8, %edx
	movq	%r15, %rdi
	callq	_KLoad0
	.loc	3 306 78 is_stmt 1      # aes.c:306:78
	movq	-56(%rbp), %rbx
	shrq	$21, %rbx
	.loc	3 306 34 is_stmt 0      # aes.c:306:34
	andq	$2040, %rbx             # imm = 0x7F8
	leaq	rijndael_enc_ft_tab+6144(%rbx), %rdi
	movl	$474, %esi              # imm = 0x1DA
	movl	$475, %edx              # imm = 0x1DB
	movl	$8, %ecx
	callq	_KLoad1
	.loc	3 303 34 is_stmt 1      # aes.c:303:34
	movq	-176(%rbp), %rax        # 8-byte Reload
	xorq	rijndael_enc_ft_tab(,%rax,8), %r12
	movq	-184(%rbp), %rax        # 8-byte Reload
	xorq	rijndael_enc_ft_tab+2048(,%rax,8), %r12
	xorq	rijndael_enc_ft_tab+4096(%r13), %r12
	.loc	3 303 15 is_stmt 0      # aes.c:303:15
	xorq	rijndael_enc_ft_tab+6144(%rbx), %r12
	movl	$2, 48(%rsp)
	movl	$474, 40(%rsp)          # imm = 0x1DA
	movl	$3, 32(%rsp)
	movl	$471, 24(%rsp)          # imm = 0x1D7
	movl	$4, 16(%rsp)
	movl	$468, 8(%rsp)           # imm = 0x1D4
	movl	$4, (%rsp)
	movl	$476, %edi              # imm = 0x1DC
	movl	$14, %esi
	movl	$4, %edx
	movl	$463, %ecx              # imm = 0x1CF
	movl	$1, %r8d
	movl	$465, %r9d              # imm = 0x1D1
	callq	_KTimestamp6
	movl	$476, %edi              # imm = 0x1DC
	movl	$8, %edx
	movq	-136(%rbp), %rsi        # 8-byte Reload
	callq	_KStore
	.loc	3 303 7                 # aes.c:303:7
	movq	%r12, -112(%rbp)
	movq	-128(%rbp), %r15        # 8-byte Reload
	movq	-120(%rbp), %rbx        # 8-byte Reload
.Ltmp288:
	#DEBUG_VALUE: rijndael_enc_encrypt:cx <- RBX
	.loc	3 307 15 is_stmt 1      # aes.c:307:15
	leaq	152(%rbx,%r15,8), %rdi
	movl	$477, %esi              # imm = 0x1DD
	movl	$8, %edx
	callq	_KLoad0
	movq	152(%rbx,%r15,8), %r12
.Ltmp289:
	#DEBUG_VALUE: rijndael_enc_encrypt:cx <- [RBP+-120]
	movl	$478, %esi              # imm = 0x1DE
	movl	$8, %edx
	movq	%r14, %rdi
	callq	_KLoad0
	.loc	3 307 76 is_stmt 0      # aes.c:307:76
	movzbl	-72(%rbp), %r15d
	.loc	3 307 34                # aes.c:307:34
	leaq	rijndael_enc_ft_tab(,%r15,8), %rdi
	movl	$479, %esi              # imm = 0x1DF
	movl	$480, %edx              # imm = 0x1E0
	movl	$8, %ecx
	callq	_KLoad1
	movl	$481, %esi              # imm = 0x1E1
	movl	$8, %edx
.Ltmp290:
	.loc	3 165 3 is_stmt 1       # aes.c:165:3
	leaq	-64(%rbp), %rdi
	callq	_KLoad0
	.loc	3 308 78                # aes.c:308:78
.Ltmp291:
	movq	-64(%rbp), %rax
	.loc	3 308 34 is_stmt 0      # aes.c:308:34
	movzbl	%ah, %eax  # NOREX
	movq	%rax, -176(%rbp)        # 8-byte Spill
	leaq	rijndael_enc_ft_tab+2048(,%rax,8), %rdi
	movl	$482, %esi              # imm = 0x1E2
	movl	$483, %edx              # imm = 0x1E3
	movl	$8, %ecx
	callq	_KLoad1
	movl	$484, %esi              # imm = 0x1E4
	movl	$8, %edx
.Ltmp292:
	.loc	3 166 3 is_stmt 1       # aes.c:166:3
	leaq	-56(%rbp), %rdi
	callq	_KLoad0
	.loc	3 309 78                # aes.c:309:78
.Ltmp293:
	movq	-56(%rbp), %r13
	shrq	$13, %r13
	.loc	3 309 34 is_stmt 0      # aes.c:309:34
	andq	$2040, %r13             # imm = 0x7F8
	leaq	rijndael_enc_ft_tab+4096(%r13), %rdi
	movl	$485, %esi              # imm = 0x1E5
	movl	$486, %edx              # imm = 0x1E6
	movl	$8, %ecx
	callq	_KLoad1
	movl	$487, %esi              # imm = 0x1E7
	movl	$8, %edx
	leaq	-80(%rbp), %r14
	movq	%r14, %rdi
	callq	_KLoad0
	.loc	3 310 78 is_stmt 1      # aes.c:310:78
	movq	-80(%rbp), %rbx
	shrq	$21, %rbx
	.loc	3 310 34 is_stmt 0      # aes.c:310:34
	andq	$2040, %rbx             # imm = 0x7F8
	leaq	rijndael_enc_ft_tab+6144(%rbx), %rdi
	movl	$488, %esi              # imm = 0x1E8
	movl	$489, %edx              # imm = 0x1E9
	movl	$8, %ecx
	callq	_KLoad1
	.loc	3 307 34 is_stmt 1      # aes.c:307:34
	xorq	rijndael_enc_ft_tab(,%r15,8), %r12
	movq	-176(%rbp), %rax        # 8-byte Reload
	xorq	rijndael_enc_ft_tab+2048(,%rax,8), %r12
	xorq	rijndael_enc_ft_tab+4096(%r13), %r12
	.loc	3 307 15 is_stmt 0      # aes.c:307:15
	xorq	rijndael_enc_ft_tab+6144(%rbx), %r12
	movl	$2, 48(%rsp)
	movl	$488, 40(%rsp)          # imm = 0x1E8
	movl	$3, 32(%rsp)
	movl	$485, 24(%rsp)          # imm = 0x1E5
	movl	$4, 16(%rsp)
	movl	$482, 8(%rsp)           # imm = 0x1E2
	movl	$4, (%rsp)
	movl	$490, %edi              # imm = 0x1EA
	movl	$14, %esi
	movl	$4, %edx
	movl	$477, %ecx              # imm = 0x1DD
	movl	$1, %r8d
	movl	$479, %r9d              # imm = 0x1DF
	callq	_KTimestamp6
	movl	$490, %edi              # imm = 0x1EA
	movl	$8, %edx
	movq	-160(%rbp), %rsi        # 8-byte Reload
	callq	_KStore
	.loc	3 307 7                 # aes.c:307:7
	movq	%r12, -104(%rbp)
	movq	-128(%rbp), %r15        # 8-byte Reload
	movq	-120(%rbp), %rbx        # 8-byte Reload
.Ltmp294:
	#DEBUG_VALUE: rijndael_enc_encrypt:cx <- RBX
	.loc	3 311 15 is_stmt 1      # aes.c:311:15
	leaq	160(%rbx,%r15,8), %rdi
	movl	$491, %esi              # imm = 0x1EB
	movl	$8, %edx
	callq	_KLoad0
	movq	160(%rbx,%r15,8), %r12
.Ltmp295:
	#DEBUG_VALUE: rijndael_enc_encrypt:cx <- [RBP+-120]
	movl	$492, %esi              # imm = 0x1EC
	movl	$8, %edx
.Ltmp296:
	.loc	3 165 3                 # aes.c:165:3
	leaq	-64(%rbp), %rdi
	callq	_KLoad0
	.loc	3 311 76                # aes.c:311:76
.Ltmp297:
	movzbl	-64(%rbp), %eax
	.loc	3 311 34 is_stmt 0      # aes.c:311:34
	movq	%rax, -176(%rbp)        # 8-byte Spill
	leaq	rijndael_enc_ft_tab(,%rax,8), %rdi
	movl	$493, %esi              # imm = 0x1ED
	movl	$494, %edx              # imm = 0x1EE
	movl	$8, %ecx
	callq	_KLoad1
	movl	$495, %esi              # imm = 0x1EF
	movl	$8, %edx
.Ltmp298:
	.loc	3 166 3 is_stmt 1       # aes.c:166:3
	leaq	-56(%rbp), %rdi
	callq	_KLoad0
	.loc	3 312 78                # aes.c:312:78
.Ltmp299:
	movq	-56(%rbp), %rax
	.loc	3 312 34 is_stmt 0      # aes.c:312:34
	movzbl	%ah, %eax  # NOREX
	movq	%rax, -184(%rbp)        # 8-byte Spill
	leaq	rijndael_enc_ft_tab+2048(,%rax,8), %rdi
	movl	$496, %esi              # imm = 0x1F0
	movl	$497, %edx              # imm = 0x1F1
	movl	$8, %ecx
	callq	_KLoad1
	movl	$498, %esi              # imm = 0x1F2
	movl	$8, %edx
	movq	%r14, %rdi
	callq	_KLoad0
	.loc	3 313 78 is_stmt 1      # aes.c:313:78
	movq	-80(%rbp), %r13
	shrq	$13, %r13
	.loc	3 313 34 is_stmt 0      # aes.c:313:34
	andq	$2040, %r13             # imm = 0x7F8
	leaq	rijndael_enc_ft_tab+4096(%r13), %rdi
	movl	$499, %esi              # imm = 0x1F3
	movl	$500, %edx              # imm = 0x1F4
	movl	$8, %ecx
	callq	_KLoad1
	movl	$501, %esi              # imm = 0x1F5
	movl	$8, %edx
.Ltmp300:
	.loc	3 164 3 is_stmt 1       # aes.c:164:3
	leaq	-72(%rbp), %r15
	movq	%r15, %rdi
	callq	_KLoad0
	.loc	3 314 78                # aes.c:314:78
.Ltmp301:
	movq	-72(%rbp), %rbx
	shrq	$21, %rbx
	.loc	3 314 34 is_stmt 0      # aes.c:314:34
	andq	$2040, %rbx             # imm = 0x7F8
	leaq	rijndael_enc_ft_tab+6144(%rbx), %rdi
	movl	$502, %esi              # imm = 0x1F6
	movl	$503, %edx              # imm = 0x1F7
	movl	$8, %ecx
	callq	_KLoad1
	.loc	3 311 34 is_stmt 1      # aes.c:311:34
	movq	-176(%rbp), %rax        # 8-byte Reload
	xorq	rijndael_enc_ft_tab(,%rax,8), %r12
	movq	-184(%rbp), %rax        # 8-byte Reload
	xorq	rijndael_enc_ft_tab+2048(,%rax,8), %r12
	xorq	rijndael_enc_ft_tab+4096(%r13), %r12
	.loc	3 311 15 is_stmt 0      # aes.c:311:15
	xorq	rijndael_enc_ft_tab+6144(%rbx), %r12
	movl	$2, 48(%rsp)
	movl	$502, 40(%rsp)          # imm = 0x1F6
	movl	$3, 32(%rsp)
	movl	$499, 24(%rsp)          # imm = 0x1F3
	movl	$4, 16(%rsp)
	movl	$496, 8(%rsp)           # imm = 0x1F0
	movl	$4, (%rsp)
	movl	$504, %edi              # imm = 0x1F8
	movl	$14, %esi
	movl	$4, %edx
	movl	$491, %ecx              # imm = 0x1EB
	movl	$1, %r8d
	movl	$493, %r9d              # imm = 0x1ED
	callq	_KTimestamp6
	movl	$504, %edi              # imm = 0x1F8
	movl	$8, %edx
	movq	-144(%rbp), %rsi        # 8-byte Reload
	callq	_KStore
	.loc	3 311 7                 # aes.c:311:7
	movq	%r12, -96(%rbp)
	movq	-128(%rbp), %r14        # 8-byte Reload
	movq	-120(%rbp), %rbx        # 8-byte Reload
.Ltmp302:
	#DEBUG_VALUE: rijndael_enc_encrypt:cx <- RBX
	.loc	3 315 15 is_stmt 1      # aes.c:315:15
	leaq	168(%rbx,%r14,8), %rdi
	movl	$505, %esi              # imm = 0x1F9
	movl	$8, %edx
	callq	_KLoad0
	movq	168(%rbx,%r14,8), %r12
.Ltmp303:
	#DEBUG_VALUE: rijndael_enc_encrypt:cx <- [RBP+-120]
	movl	$506, %esi              # imm = 0x1FA
	movl	$8, %edx
.Ltmp304:
	.loc	3 166 3                 # aes.c:166:3
	leaq	-56(%rbp), %rdi
	callq	_KLoad0
	.loc	3 315 76                # aes.c:315:76
.Ltmp305:
	movzbl	-56(%rbp), %r14d
	.loc	3 315 34 is_stmt 0      # aes.c:315:34
	leaq	rijndael_enc_ft_tab(,%r14,8), %rdi
	movl	$507, %esi              # imm = 0x1FB
	movl	$508, %edx              # imm = 0x1FC
	movl	$8, %ecx
	callq	_KLoad1
	movl	$509, %esi              # imm = 0x1FD
	movl	$8, %edx
	leaq	-80(%rbp), %rdi
	callq	_KLoad0
	.loc	3 316 78 is_stmt 1      # aes.c:316:78
	movq	-80(%rbp), %rax
	.loc	3 316 34 is_stmt 0      # aes.c:316:34
	movzbl	%ah, %eax  # NOREX
	movq	%rax, -176(%rbp)        # 8-byte Spill
	leaq	rijndael_enc_ft_tab+2048(,%rax,8), %rdi
	movl	$510, %esi              # imm = 0x1FE
	movl	$511, %edx              # imm = 0x1FF
	movl	$8, %ecx
	callq	_KLoad1
	movl	$512, %esi              # imm = 0x200
	movl	$8, %edx
	movq	%r15, %rdi
	callq	_KLoad0
	.loc	3 317 78 is_stmt 1      # aes.c:317:78
	movq	-72(%rbp), %r13
	shrq	$13, %r13
	.loc	3 317 34 is_stmt 0      # aes.c:317:34
	andq	$2040, %r13             # imm = 0x7F8
	leaq	rijndael_enc_ft_tab+4096(%r13), %rdi
	movl	$513, %esi              # imm = 0x201
	movl	$514, %edx              # imm = 0x202
	movl	$8, %ecx
	callq	_KLoad1
	movl	$515, %esi              # imm = 0x203
	movl	$8, %edx
.Ltmp306:
	.loc	3 165 3 is_stmt 1       # aes.c:165:3
	leaq	-64(%rbp), %rax
	movq	%rax, %rdi
	callq	_KLoad0
	.loc	3 318 78                # aes.c:318:78
.Ltmp307:
	movq	-64(%rbp), %rbx
	shrq	$21, %rbx
	.loc	3 318 34 is_stmt 0      # aes.c:318:34
	andq	$2040, %rbx             # imm = 0x7F8
	leaq	rijndael_enc_ft_tab+6144(%rbx), %rdi
	movl	$516, %esi              # imm = 0x204
	movl	$517, %edx              # imm = 0x205
	movl	$8, %ecx
	callq	_KLoad1
	.loc	3 315 34 is_stmt 1      # aes.c:315:34
	xorq	rijndael_enc_ft_tab(,%r14,8), %r12
	movq	-176(%rbp), %rax        # 8-byte Reload
	xorq	rijndael_enc_ft_tab+2048(,%rax,8), %r12
	xorq	rijndael_enc_ft_tab+4096(%r13), %r12
	.loc	3 315 15 is_stmt 0      # aes.c:315:15
	xorq	rijndael_enc_ft_tab+6144(%rbx), %r12
	movl	$2, 48(%rsp)
	movl	$516, 40(%rsp)          # imm = 0x204
	movl	$3, 32(%rsp)
	movl	$513, 24(%rsp)          # imm = 0x201
	movl	$4, 16(%rsp)
	movl	$510, 8(%rsp)           # imm = 0x1FE
	movl	$4, (%rsp)
	movl	$518, %edi              # imm = 0x206
	movl	$14, %esi
	movl	$4, %edx
	movl	$505, %ecx              # imm = 0x1F9
	movl	$1, %r8d
	movl	$507, %r9d              # imm = 0x1FB
	callq	_KTimestamp6
	movl	$518, %edi              # imm = 0x206
	movl	$8, %edx
	movq	-152(%rbp), %r15        # 8-byte Reload
	movq	%r15, %rsi
	callq	_KStore
	.loc	3 315 7                 # aes.c:315:7
	movq	%r12, -88(%rbp)
	movq	-128(%rbp), %r14        # 8-byte Reload
	movq	-120(%rbp), %rbx        # 8-byte Reload
.Ltmp308:
	#DEBUG_VALUE: rijndael_enc_encrypt:cx <- RBX
	.loc	3 319 17 is_stmt 1      # aes.c:319:17
	leaq	176(%rbx,%r14,8), %rdi
	movl	$519, %esi              # imm = 0x207
	movl	$8, %edx
	callq	_KLoad0
	.loc	3 319 15 is_stmt 0      # aes.c:319:15
	movq	176(%rbx,%r14,8), %r12
.Ltmp309:
	#DEBUG_VALUE: rijndael_enc_encrypt:cx <- [RBP+-120]
	movl	$520, %esi              # imm = 0x208
	movl	$8, %edx
	movq	-136(%rbp), %rdi        # 8-byte Reload
	callq	_KLoad0
	.loc	3 319 76                # aes.c:319:76
	movzbl	-112(%rbp), %eax
	.loc	3 319 34                # aes.c:319:34
	movq	%rax, -176(%rbp)        # 8-byte Spill
	leaq	rijndael_enc_ft_tab(,%rax,8), %rdi
	movl	$521, %esi              # imm = 0x209
	movl	$522, %edx              # imm = 0x20A
	movl	$8, %ecx
	callq	_KLoad1
	movl	$523, %esi              # imm = 0x20B
	movl	$8, %edx
	movq	-160(%rbp), %r14        # 8-byte Reload
	movq	%r14, %rdi
	callq	_KLoad0
	.loc	3 320 78 is_stmt 1      # aes.c:320:78
	movq	-104(%rbp), %rax
	.loc	3 320 34 is_stmt 0      # aes.c:320:34
	movzbl	%ah, %eax  # NOREX
	movq	%rax, -184(%rbp)        # 8-byte Spill
	leaq	rijndael_enc_ft_tab+2048(,%rax,8), %rdi
	movl	$524, %esi              # imm = 0x20C
	movl	$525, %edx              # imm = 0x20D
	movl	$8, %ecx
	callq	_KLoad1
	movl	$526, %esi              # imm = 0x20E
	movl	$8, %edx
	movq	-144(%rbp), %rdi        # 8-byte Reload
	callq	_KLoad0
	.loc	3 321 78 is_stmt 1      # aes.c:321:78
	movq	-96(%rbp), %r13
	shrq	$13, %r13
	.loc	3 321 34 is_stmt 0      # aes.c:321:34
	andq	$2040, %r13             # imm = 0x7F8
	leaq	rijndael_enc_ft_tab+4096(%r13), %rdi
	movl	$527, %esi              # imm = 0x20F
	movl	$528, %edx              # imm = 0x210
	movl	$8, %ecx
	callq	_KLoad1
	movl	$529, %esi              # imm = 0x211
	movl	$8, %edx
	movq	%r15, %rdi
	callq	_KLoad0
	.loc	3 322 78 is_stmt 1      # aes.c:322:78
	movq	-88(%rbp), %rbx
	shrq	$21, %rbx
	.loc	3 322 34 is_stmt 0      # aes.c:322:34
	andq	$2040, %rbx             # imm = 0x7F8
	leaq	rijndael_enc_ft_tab+6144(%rbx), %rdi
	movl	$530, %esi              # imm = 0x212
	movl	$531, %edx              # imm = 0x213
	movl	$8, %ecx
	callq	_KLoad1
	.loc	3 319 34 is_stmt 1      # aes.c:319:34
	movq	-176(%rbp), %rax        # 8-byte Reload
	xorq	rijndael_enc_ft_tab(,%rax,8), %r12
	movq	-184(%rbp), %rax        # 8-byte Reload
	xorq	rijndael_enc_ft_tab+2048(,%rax,8), %r12
	xorq	rijndael_enc_ft_tab+4096(%r13), %r12
	.loc	3 319 15 is_stmt 0      # aes.c:319:15
	xorq	rijndael_enc_ft_tab+6144(%rbx), %r12
	movl	$2, 48(%rsp)
	movl	$530, 40(%rsp)          # imm = 0x212
	movl	$3, 32(%rsp)
	movl	$527, 24(%rsp)          # imm = 0x20F
	movl	$4, 16(%rsp)
	movl	$524, 8(%rsp)           # imm = 0x20C
	movl	$4, (%rsp)
	movl	$532, %edi              # imm = 0x214
	movl	$14, %esi
	movl	$4, %edx
	movl	$519, %ecx              # imm = 0x207
	movl	$1, %r8d
	movl	$521, %r9d              # imm = 0x209
	callq	_KTimestamp6
	movl	$532, %edi              # imm = 0x214
	movl	$8, %edx
	leaq	-80(%rbp), %rsi
	callq	_KStore
	.loc	3 319 7                 # aes.c:319:7
	movq	%r12, -80(%rbp)
	movq	-128(%rbp), %r15        # 8-byte Reload
	movq	-120(%rbp), %rbx        # 8-byte Reload
.Ltmp310:
	#DEBUG_VALUE: rijndael_enc_encrypt:cx <- RBX
	.loc	3 323 15 is_stmt 1      # aes.c:323:15
	leaq	184(%rbx,%r15,8), %rdi
	movl	$533, %esi              # imm = 0x215
	movl	$8, %edx
	callq	_KLoad0
	movq	184(%rbx,%r15,8), %r12
.Ltmp311:
	#DEBUG_VALUE: rijndael_enc_encrypt:cx <- [RBP+-120]
	movl	$534, %esi              # imm = 0x216
	movl	$8, %edx
	movq	%r14, %rdi
	callq	_KLoad0
	.loc	3 323 76 is_stmt 0      # aes.c:323:76
	movzbl	-104(%rbp), %r14d
	.loc	3 323 34                # aes.c:323:34
	leaq	rijndael_enc_ft_tab(,%r14,8), %rdi
	movl	$535, %esi              # imm = 0x217
	movl	$536, %edx              # imm = 0x218
	movl	$8, %ecx
	callq	_KLoad1
	movl	$537, %esi              # imm = 0x219
	movl	$8, %edx
	movq	-144(%rbp), %r15        # 8-byte Reload
	movq	%r15, %rdi
	callq	_KLoad0
	.loc	3 324 78 is_stmt 1      # aes.c:324:78
	movq	-96(%rbp), %rax
	.loc	3 324 34 is_stmt 0      # aes.c:324:34
	movzbl	%ah, %eax  # NOREX
	movq	%rax, -176(%rbp)        # 8-byte Spill
	leaq	rijndael_enc_ft_tab+2048(,%rax,8), %rdi
	movl	$538, %esi              # imm = 0x21A
	movl	$539, %edx              # imm = 0x21B
	movl	$8, %ecx
	callq	_KLoad1
	movl	$540, %esi              # imm = 0x21C
	movl	$8, %edx
	movq	-152(%rbp), %rdi        # 8-byte Reload
	callq	_KLoad0
	.loc	3 325 78 is_stmt 1      # aes.c:325:78
	movq	-88(%rbp), %r13
	shrq	$13, %r13
	.loc	3 325 34 is_stmt 0      # aes.c:325:34
	andq	$2040, %r13             # imm = 0x7F8
	leaq	rijndael_enc_ft_tab+4096(%r13), %rdi
	movl	$541, %esi              # imm = 0x21D
	movl	$542, %edx              # imm = 0x21E
	movl	$8, %ecx
	callq	_KLoad1
	movl	$543, %esi              # imm = 0x21F
	movl	$8, %edx
	movq	-136(%rbp), %rdi        # 8-byte Reload
	callq	_KLoad0
	.loc	3 326 78 is_stmt 1      # aes.c:326:78
	movq	-112(%rbp), %rbx
	shrq	$21, %rbx
	.loc	3 326 34 is_stmt 0      # aes.c:326:34
	andq	$2040, %rbx             # imm = 0x7F8
	leaq	rijndael_enc_ft_tab+6144(%rbx), %rdi
	movl	$544, %esi              # imm = 0x220
	movl	$545, %edx              # imm = 0x221
	movl	$8, %ecx
	callq	_KLoad1
	.loc	3 323 34 is_stmt 1      # aes.c:323:34
	xorq	rijndael_enc_ft_tab(,%r14,8), %r12
	movq	-176(%rbp), %rax        # 8-byte Reload
	xorq	rijndael_enc_ft_tab+2048(,%rax,8), %r12
	xorq	rijndael_enc_ft_tab+4096(%r13), %r12
	.loc	3 323 15 is_stmt 0      # aes.c:323:15
	xorq	rijndael_enc_ft_tab+6144(%rbx), %r12
	movl	$2, 48(%rsp)
	movl	$544, 40(%rsp)          # imm = 0x220
	movl	$3, 32(%rsp)
	movl	$541, 24(%rsp)          # imm = 0x21D
	movl	$4, 16(%rsp)
	movl	$538, 8(%rsp)           # imm = 0x21A
	movl	$4, (%rsp)
	movl	$546, %edi              # imm = 0x222
	movl	$14, %esi
	movl	$4, %edx
	movl	$533, %ecx              # imm = 0x215
	movl	$1, %r8d
	movl	$535, %r9d              # imm = 0x217
	callq	_KTimestamp6
	movl	$546, %edi              # imm = 0x222
	movl	$8, %edx
.Ltmp312:
	.loc	3 164 3 is_stmt 1       # aes.c:164:3
	leaq	-72(%rbp), %rsi
	callq	_KStore
	.loc	3 323 7                 # aes.c:323:7
.Ltmp313:
	movq	%r12, -72(%rbp)
	movq	-128(%rbp), %r14        # 8-byte Reload
	movq	-120(%rbp), %rbx        # 8-byte Reload
.Ltmp314:
	#DEBUG_VALUE: rijndael_enc_encrypt:cx <- RBX
	.loc	3 327 15                # aes.c:327:15
	leaq	192(%rbx,%r14,8), %rdi
	movl	$547, %esi              # imm = 0x223
	movl	$8, %edx
	callq	_KLoad0
	movq	192(%rbx,%r14,8), %r12
.Ltmp315:
	#DEBUG_VALUE: rijndael_enc_encrypt:cx <- [RBP+-120]
	movl	$548, %esi              # imm = 0x224
	movl	$8, %edx
	movq	%r15, %rdi
	callq	_KLoad0
	.loc	3 327 76 is_stmt 0      # aes.c:327:76
	movzbl	-96(%rbp), %r14d
	.loc	3 327 34                # aes.c:327:34
	leaq	rijndael_enc_ft_tab(,%r14,8), %rdi
	movl	$549, %esi              # imm = 0x225
	movl	$550, %edx              # imm = 0x226
	movl	$8, %ecx
	callq	_KLoad1
	movl	$551, %esi              # imm = 0x227
	movl	$8, %edx
	movq	-152(%rbp), %rdi        # 8-byte Reload
	callq	_KLoad0
	.loc	3 328 78 is_stmt 1      # aes.c:328:78
	movq	-88(%rbp), %rax
	.loc	3 328 34 is_stmt 0      # aes.c:328:34
	movzbl	%ah, %eax  # NOREX
	movq	%rax, -176(%rbp)        # 8-byte Spill
	leaq	rijndael_enc_ft_tab+2048(,%rax,8), %rdi
	movl	$552, %esi              # imm = 0x228
	movl	$553, %edx              # imm = 0x229
	movl	$8, %ecx
	callq	_KLoad1
	movl	$554, %esi              # imm = 0x22A
	movl	$8, %edx
	movq	-136(%rbp), %r15        # 8-byte Reload
	movq	%r15, %rdi
	callq	_KLoad0
	.loc	3 329 78 is_stmt 1      # aes.c:329:78
	movq	-112(%rbp), %r13
	shrq	$13, %r13
	.loc	3 329 34 is_stmt 0      # aes.c:329:34
	andq	$2040, %r13             # imm = 0x7F8
	leaq	rijndael_enc_ft_tab+4096(%r13), %rdi
	movl	$555, %esi              # imm = 0x22B
	movl	$556, %edx              # imm = 0x22C
	movl	$8, %ecx
	callq	_KLoad1
	movl	$557, %esi              # imm = 0x22D
	movl	$8, %edx
	movq	-160(%rbp), %rdi        # 8-byte Reload
	callq	_KLoad0
	.loc	3 330 78 is_stmt 1      # aes.c:330:78
	movq	-104(%rbp), %rbx
	shrq	$21, %rbx
	.loc	3 330 34 is_stmt 0      # aes.c:330:34
	andq	$2040, %rbx             # imm = 0x7F8
	leaq	rijndael_enc_ft_tab+6144(%rbx), %rdi
	movl	$558, %esi              # imm = 0x22E
	movl	$559, %edx              # imm = 0x22F
	movl	$8, %ecx
	callq	_KLoad1
	.loc	3 327 34 is_stmt 1      # aes.c:327:34
	xorq	rijndael_enc_ft_tab(,%r14,8), %r12
	movq	-176(%rbp), %rax        # 8-byte Reload
	xorq	rijndael_enc_ft_tab+2048(,%rax,8), %r12
	xorq	rijndael_enc_ft_tab+4096(%r13), %r12
	.loc	3 327 15 is_stmt 0      # aes.c:327:15
	xorq	rijndael_enc_ft_tab+6144(%rbx), %r12
	movl	$2, 48(%rsp)
	movl	$558, 40(%rsp)          # imm = 0x22E
	movl	$3, 32(%rsp)
	movl	$555, 24(%rsp)          # imm = 0x22B
	movl	$4, 16(%rsp)
	movl	$552, 8(%rsp)           # imm = 0x228
	movl	$4, (%rsp)
	movl	$560, %edi              # imm = 0x230
	movl	$14, %esi
	movl	$4, %edx
	movl	$547, %ecx              # imm = 0x223
	movl	$1, %r8d
	movl	$549, %r9d              # imm = 0x225
	callq	_KTimestamp6
	movl	$560, %edi              # imm = 0x230
	movl	$8, %edx
.Ltmp316:
	.loc	3 165 3 is_stmt 1       # aes.c:165:3
	leaq	-64(%rbp), %rsi
	callq	_KStore
	.loc	3 327 7                 # aes.c:327:7
.Ltmp317:
	movq	%r12, -64(%rbp)
	movq	-128(%rbp), %r14        # 8-byte Reload
	movq	-120(%rbp), %rbx        # 8-byte Reload
.Ltmp318:
	#DEBUG_VALUE: rijndael_enc_encrypt:cx <- RBX
	.loc	3 331 15                # aes.c:331:15
	leaq	200(%rbx,%r14,8), %rdi
	movl	$561, %esi              # imm = 0x231
	movl	$8, %edx
	callq	_KLoad0
	movq	200(%rbx,%r14,8), %r12
.Ltmp319:
	#DEBUG_VALUE: rijndael_enc_encrypt:cx <- [RBP+-120]
	movl	$562, %esi              # imm = 0x232
	movl	$8, %edx
	movq	-152(%rbp), %rdi        # 8-byte Reload
	callq	_KLoad0
	.loc	3 331 76 is_stmt 0      # aes.c:331:76
	movzbl	-88(%rbp), %r14d
	.loc	3 331 34                # aes.c:331:34
	leaq	rijndael_enc_ft_tab(,%r14,8), %rdi
	movl	$563, %esi              # imm = 0x233
	movl	$564, %edx              # imm = 0x234
	movl	$8, %ecx
	callq	_KLoad1
	movl	$565, %esi              # imm = 0x235
	movl	$8, %edx
	movq	%r15, %rdi
	callq	_KLoad0
	.loc	3 332 78 is_stmt 1      # aes.c:332:78
	movq	-112(%rbp), %rax
	.loc	3 332 34 is_stmt 0      # aes.c:332:34
	movzbl	%ah, %eax  # NOREX
	leaq	rijndael_enc_ft_tab+2048(,%rax,8), %rdi
	movq	%rax, %r15
	movl	$566, %esi              # imm = 0x236
	movl	$567, %edx              # imm = 0x237
	movl	$8, %ecx
	callq	_KLoad1
	movl	$568, %esi              # imm = 0x238
	movl	$8, %edx
	movq	-160(%rbp), %rdi        # 8-byte Reload
	callq	_KLoad0
	.loc	3 333 78 is_stmt 1      # aes.c:333:78
	movq	-104(%rbp), %r13
	shrq	$13, %r13
	.loc	3 333 34 is_stmt 0      # aes.c:333:34
	andq	$2040, %r13             # imm = 0x7F8
	leaq	rijndael_enc_ft_tab+4096(%r13), %rdi
	movl	$569, %esi              # imm = 0x239
	movl	$570, %edx              # imm = 0x23A
	movl	$8, %ecx
	callq	_KLoad1
	movl	$571, %esi              # imm = 0x23B
	movl	$8, %edx
	movq	-144(%rbp), %rdi        # 8-byte Reload
	callq	_KLoad0
	.loc	3 334 78 is_stmt 1      # aes.c:334:78
	movq	-96(%rbp), %rbx
	shrq	$21, %rbx
	.loc	3 334 34 is_stmt 0      # aes.c:334:34
	andq	$2040, %rbx             # imm = 0x7F8
	leaq	rijndael_enc_ft_tab+6144(%rbx), %rdi
	movl	$572, %esi              # imm = 0x23C
	movl	$573, %edx              # imm = 0x23D
	movl	$8, %ecx
	callq	_KLoad1
	.loc	3 331 34 is_stmt 1      # aes.c:331:34
	xorq	rijndael_enc_ft_tab(,%r14,8), %r12
	xorq	rijndael_enc_ft_tab+2048(,%r15,8), %r12
	xorq	rijndael_enc_ft_tab+4096(%r13), %r12
	.loc	3 331 15 is_stmt 0      # aes.c:331:15
	xorq	rijndael_enc_ft_tab+6144(%rbx), %r12
	movl	$3, 48(%rsp)
	movl	$569, 40(%rsp)          # imm = 0x239
	movl	$4, 32(%rsp)
	movl	$566, 24(%rsp)          # imm = 0x236
	movl	$4, 16(%rsp)
	movl	$563, 8(%rsp)           # imm = 0x233
	movl	$1, (%rsp)
	movl	$574, %edi              # imm = 0x23E
	movl	$14, %esi
	movl	$4, %edx
	movl	$572, %ecx              # imm = 0x23C
	movl	$2, %r8d
	movl	$561, %r9d              # imm = 0x231
	callq	_KTimestamp6
	movl	$574, %edi              # imm = 0x23E
	movl	$8, %edx
.Ltmp320:
	.loc	3 166 3 is_stmt 1       # aes.c:166:3
	leaq	-56(%rbp), %r14
	movq	%r14, %rsi
	callq	_KStore
	.loc	3 331 7                 # aes.c:331:7
.Ltmp321:
	movq	%r12, -56(%rbp)
	movq	-128(%rbp), %r15        # 8-byte Reload
	movq	-120(%rbp), %rbx        # 8-byte Reload
.Ltmp322:
	#DEBUG_VALUE: rijndael_enc_encrypt:cx <- RBX
	.loc	3 335 17                # aes.c:335:17
	leaq	208(%rbx,%r15,8), %rdi
	movl	$575, %esi              # imm = 0x23F
	movl	$8, %edx
	callq	_KLoad0
	.loc	3 335 15 is_stmt 0      # aes.c:335:15
	movq	208(%rbx,%r15,8), %r12
.Ltmp323:
	#DEBUG_VALUE: rijndael_enc_encrypt:cx <- [RBP+-120]
	movl	$576, %esi              # imm = 0x240
	movl	$8, %edx
	leaq	-80(%rbp), %rdi
	callq	_KLoad0
	.loc	3 335 76                # aes.c:335:76
	movzbl	-80(%rbp), %eax
	.loc	3 335 34                # aes.c:335:34
	movq	%rax, -176(%rbp)        # 8-byte Spill
	leaq	rijndael_enc_ft_tab(,%rax,8), %rdi
	movl	$577, %esi              # imm = 0x241
	movl	$578, %edx              # imm = 0x242
	movl	$8, %ecx
	callq	_KLoad1
	movl	$579, %esi              # imm = 0x243
	movl	$8, %edx
.Ltmp324:
	.loc	3 164 3 is_stmt 1       # aes.c:164:3
	leaq	-72(%rbp), %rdi
	callq	_KLoad0
	.loc	3 336 78                # aes.c:336:78
.Ltmp325:
	movq	-72(%rbp), %rax
	.loc	3 336 34 is_stmt 0      # aes.c:336:34
	movzbl	%ah, %eax  # NOREX
	movq	%rax, -184(%rbp)        # 8-byte Spill
	leaq	rijndael_enc_ft_tab+2048(,%rax,8), %rdi
	movl	$580, %esi              # imm = 0x244
	movl	$581, %edx              # imm = 0x245
	movl	$8, %ecx
	callq	_KLoad1
	movl	$582, %esi              # imm = 0x246
	movl	$8, %edx
.Ltmp326:
	.loc	3 165 3 is_stmt 1       # aes.c:165:3
	leaq	-64(%rbp), %r15
	movq	%r15, %rdi
	callq	_KLoad0
	.loc	3 337 78                # aes.c:337:78
.Ltmp327:
	movq	-64(%rbp), %r13
	shrq	$13, %r13
	.loc	3 337 34 is_stmt 0      # aes.c:337:34
	andq	$2040, %r13             # imm = 0x7F8
	leaq	rijndael_enc_ft_tab+4096(%r13), %rdi
	movl	$583, %esi              # imm = 0x247
	movl	$584, %edx              # imm = 0x248
	movl	$8, %ecx
	callq	_KLoad1
	movl	$585, %esi              # imm = 0x249
	movl	$8, %edx
	movq	%r14, %rdi
	callq	_KLoad0
	.loc	3 338 78 is_stmt 1      # aes.c:338:78
	movq	-56(%rbp), %rbx
	shrq	$21, %rbx
	.loc	3 338 34 is_stmt 0      # aes.c:338:34
	andq	$2040, %rbx             # imm = 0x7F8
	leaq	rijndael_enc_ft_tab+6144(%rbx), %rdi
	movl	$586, %esi              # imm = 0x24A
	movl	$587, %edx              # imm = 0x24B
	movl	$8, %ecx
	callq	_KLoad1
	.loc	3 335 34 is_stmt 1      # aes.c:335:34
	movq	-176(%rbp), %rax        # 8-byte Reload
	xorq	rijndael_enc_ft_tab(,%rax,8), %r12
	movq	-184(%rbp), %rax        # 8-byte Reload
	xorq	rijndael_enc_ft_tab+2048(,%rax,8), %r12
	xorq	rijndael_enc_ft_tab+4096(%r13), %r12
	.loc	3 335 15 is_stmt 0      # aes.c:335:15
	xorq	rijndael_enc_ft_tab+6144(%rbx), %r12
	movl	$2, 48(%rsp)
	movl	$586, 40(%rsp)          # imm = 0x24A
	movl	$3, 32(%rsp)
	movl	$583, 24(%rsp)          # imm = 0x247
	movl	$4, 16(%rsp)
	movl	$580, 8(%rsp)           # imm = 0x244
	movl	$4, (%rsp)
	movl	$588, %edi              # imm = 0x24C
	movl	$14, %esi
	movl	$4, %edx
	movl	$575, %ecx              # imm = 0x23F
	movl	$1, %r8d
	movl	$577, %r9d              # imm = 0x241
	callq	_KTimestamp6
	movl	$588, %edi              # imm = 0x24C
	movl	$8, %edx
	movq	-136(%rbp), %rsi        # 8-byte Reload
	callq	_KStore
	.loc	3 335 7                 # aes.c:335:7
	movq	%r12, -112(%rbp)
	movq	-128(%rbp), %r14        # 8-byte Reload
	movq	-120(%rbp), %rbx        # 8-byte Reload
.Ltmp328:
	#DEBUG_VALUE: rijndael_enc_encrypt:cx <- RBX
	.loc	3 339 15 is_stmt 1      # aes.c:339:15
	leaq	216(%rbx,%r14,8), %rdi
	movl	$589, %esi              # imm = 0x24D
	movl	$8, %edx
	callq	_KLoad0
	movq	216(%rbx,%r14,8), %r12
.Ltmp329:
	#DEBUG_VALUE: rijndael_enc_encrypt:cx <- [RBP+-120]
	movl	$590, %esi              # imm = 0x24E
	movl	$8, %edx
.Ltmp330:
	.loc	3 164 3                 # aes.c:164:3
	leaq	-72(%rbp), %rdi
	callq	_KLoad0
	.loc	3 339 76                # aes.c:339:76
.Ltmp331:
	movzbl	-72(%rbp), %r14d
	.loc	3 339 34 is_stmt 0      # aes.c:339:34
	leaq	rijndael_enc_ft_tab(,%r14,8), %rdi
	movl	$591, %esi              # imm = 0x24F
	movl	$592, %edx              # imm = 0x250
	movl	$8, %ecx
	callq	_KLoad1
	movl	$593, %esi              # imm = 0x251
	movl	$8, %edx
	movq	%r15, %rdi
	callq	_KLoad0
	.loc	3 340 78 is_stmt 1      # aes.c:340:78
	movq	-64(%rbp), %rax
	.loc	3 340 34 is_stmt 0      # aes.c:340:34
	movzbl	%ah, %eax  # NOREX
	movq	%rax, -176(%rbp)        # 8-byte Spill
	leaq	rijndael_enc_ft_tab+2048(,%rax,8), %rdi
	movl	$594, %esi              # imm = 0x252
	movl	$595, %edx              # imm = 0x253
	movl	$8, %ecx
	callq	_KLoad1
	movl	$596, %esi              # imm = 0x254
	movl	$8, %edx
.Ltmp332:
	.loc	3 166 3 is_stmt 1       # aes.c:166:3
	leaq	-56(%rbp), %rdi
	callq	_KLoad0
	.loc	3 341 78                # aes.c:341:78
.Ltmp333:
	movq	-56(%rbp), %r13
	shrq	$13, %r13
	.loc	3 341 34 is_stmt 0      # aes.c:341:34
	andq	$2040, %r13             # imm = 0x7F8
	leaq	rijndael_enc_ft_tab+4096(%r13), %rdi
	movl	$597, %esi              # imm = 0x255
	movl	$598, %edx              # imm = 0x256
	movl	$8, %ecx
	callq	_KLoad1
	movl	$599, %esi              # imm = 0x257
	movl	$8, %edx
	leaq	-80(%rbp), %r15
	movq	%r15, %rdi
	callq	_KLoad0
	.loc	3 342 78 is_stmt 1      # aes.c:342:78
	movq	-80(%rbp), %rbx
	shrq	$21, %rbx
	.loc	3 342 34 is_stmt 0      # aes.c:342:34
	andq	$2040, %rbx             # imm = 0x7F8
	leaq	rijndael_enc_ft_tab+6144(%rbx), %rdi
	movl	$600, %esi              # imm = 0x258
	movl	$601, %edx              # imm = 0x259
	movl	$8, %ecx
	callq	_KLoad1
	.loc	3 339 34 is_stmt 1      # aes.c:339:34
	xorq	rijndael_enc_ft_tab(,%r14,8), %r12
	movq	-176(%rbp), %rax        # 8-byte Reload
	xorq	rijndael_enc_ft_tab+2048(,%rax,8), %r12
	xorq	rijndael_enc_ft_tab+4096(%r13), %r12
	.loc	3 339 15 is_stmt 0      # aes.c:339:15
	xorq	rijndael_enc_ft_tab+6144(%rbx), %r12
	movl	$4, 48(%rsp)
	movl	$591, 40(%rsp)          # imm = 0x24F
	movl	$2, 32(%rsp)
	movl	$600, 24(%rsp)          # imm = 0x258
	movl	$3, 16(%rsp)
	movl	$597, 8(%rsp)           # imm = 0x255
	movl	$4, (%rsp)
	movl	$602, %edi              # imm = 0x25A
	movl	$14, %esi
	movl	$4, %edx
	movl	$589, %ecx              # imm = 0x24D
	movl	$1, %r8d
	movl	$594, %r9d              # imm = 0x252
	callq	_KTimestamp6
	movl	$602, %edi              # imm = 0x25A
	movl	$8, %edx
	movq	-160(%rbp), %rsi        # 8-byte Reload
	callq	_KStore
	.loc	3 339 7                 # aes.c:339:7
	movq	%r12, -104(%rbp)
	movq	-128(%rbp), %r14        # 8-byte Reload
	movq	-120(%rbp), %rbx        # 8-byte Reload
.Ltmp334:
	#DEBUG_VALUE: rijndael_enc_encrypt:cx <- RBX
	.loc	3 343 15 is_stmt 1      # aes.c:343:15
	leaq	224(%rbx,%r14,8), %rdi
	movl	$603, %esi              # imm = 0x25B
	movl	$8, %edx
	callq	_KLoad0
	movq	224(%rbx,%r14,8), %r12
.Ltmp335:
	#DEBUG_VALUE: rijndael_enc_encrypt:cx <- [RBP+-120]
	movl	$604, %esi              # imm = 0x25C
	movl	$8, %edx
.Ltmp336:
	.loc	3 165 3                 # aes.c:165:3
	leaq	-64(%rbp), %rdi
	callq	_KLoad0
	.loc	3 343 76                # aes.c:343:76
.Ltmp337:
	movzbl	-64(%rbp), %r14d
	.loc	3 343 34 is_stmt 0      # aes.c:343:34
	leaq	rijndael_enc_ft_tab(,%r14,8), %rdi
	movl	$605, %esi              # imm = 0x25D
	movl	$606, %edx              # imm = 0x25E
	movl	$8, %ecx
	callq	_KLoad1
	movl	$607, %esi              # imm = 0x25F
	movl	$8, %edx
.Ltmp338:
	.loc	3 166 3 is_stmt 1       # aes.c:166:3
	leaq	-56(%rbp), %rdi
	callq	_KLoad0
	.loc	3 344 78                # aes.c:344:78
.Ltmp339:
	movq	-56(%rbp), %rax
	.loc	3 344 34 is_stmt 0      # aes.c:344:34
	movzbl	%ah, %eax  # NOREX
	movq	%rax, -176(%rbp)        # 8-byte Spill
	leaq	rijndael_enc_ft_tab+2048(,%rax,8), %rdi
	movl	$608, %esi              # imm = 0x260
	movl	$609, %edx              # imm = 0x261
	movl	$8, %ecx
	callq	_KLoad1
	movl	$610, %esi              # imm = 0x262
	movl	$8, %edx
	movq	%r15, %rdi
	callq	_KLoad0
	.loc	3 345 78 is_stmt 1      # aes.c:345:78
	movq	-80(%rbp), %r13
	shrq	$13, %r13
	.loc	3 345 34 is_stmt 0      # aes.c:345:34
	andq	$2040, %r13             # imm = 0x7F8
	leaq	rijndael_enc_ft_tab+4096(%r13), %rdi
	movl	$611, %esi              # imm = 0x263
	movl	$612, %edx              # imm = 0x264
	movl	$8, %ecx
	callq	_KLoad1
	movl	$613, %esi              # imm = 0x265
	movl	$8, %edx
.Ltmp340:
	.loc	3 164 3 is_stmt 1       # aes.c:164:3
	leaq	-72(%rbp), %r15
	movq	%r15, %rdi
	callq	_KLoad0
	.loc	3 346 78                # aes.c:346:78
.Ltmp341:
	movq	-72(%rbp), %rbx
	shrq	$21, %rbx
	.loc	3 346 34 is_stmt 0      # aes.c:346:34
	andq	$2040, %rbx             # imm = 0x7F8
	leaq	rijndael_enc_ft_tab+6144(%rbx), %rdi
	movl	$614, %esi              # imm = 0x266
	movl	$615, %edx              # imm = 0x267
	movl	$8, %ecx
	callq	_KLoad1
	.loc	3 343 34 is_stmt 1      # aes.c:343:34
	xorq	rijndael_enc_ft_tab(,%r14,8), %r12
	movq	-176(%rbp), %rax        # 8-byte Reload
	xorq	rijndael_enc_ft_tab+2048(,%rax,8), %r12
	xorq	rijndael_enc_ft_tab+4096(%r13), %r12
	.loc	3 343 15 is_stmt 0      # aes.c:343:15
	xorq	rijndael_enc_ft_tab+6144(%rbx), %r12
	movl	$2, 48(%rsp)
	movl	$614, 40(%rsp)          # imm = 0x266
	movl	$3, 32(%rsp)
	movl	$611, 24(%rsp)          # imm = 0x263
	movl	$4, 16(%rsp)
	movl	$608, 8(%rsp)           # imm = 0x260
	movl	$4, (%rsp)
	movl	$616, %edi              # imm = 0x268
	movl	$14, %esi
	movl	$4, %edx
	movl	$603, %ecx              # imm = 0x25B
	movl	$1, %r8d
	movl	$605, %r9d              # imm = 0x25D
	callq	_KTimestamp6
	movl	$616, %edi              # imm = 0x268
	movl	$8, %edx
	movq	-144(%rbp), %rsi        # 8-byte Reload
	callq	_KStore
	.loc	3 343 7                 # aes.c:343:7
	movq	%r12, -96(%rbp)
	movq	-128(%rbp), %r14        # 8-byte Reload
	movq	-120(%rbp), %rbx        # 8-byte Reload
.Ltmp342:
	#DEBUG_VALUE: rijndael_enc_encrypt:cx <- RBX
	.loc	3 347 15 is_stmt 1      # aes.c:347:15
	leaq	232(%rbx,%r14,8), %rdi
	movl	$617, %esi              # imm = 0x269
	movl	$8, %edx
	callq	_KLoad0
	movq	232(%rbx,%r14,8), %r12
.Ltmp343:
	#DEBUG_VALUE: rijndael_enc_encrypt:cx <- [RBP+-120]
	movl	$618, %esi              # imm = 0x26A
	movl	$8, %edx
.Ltmp344:
	.loc	3 166 3                 # aes.c:166:3
	leaq	-56(%rbp), %rdi
	callq	_KLoad0
	.loc	3 347 76                # aes.c:347:76
.Ltmp345:
	movzbl	-56(%rbp), %r14d
	.loc	3 347 34 is_stmt 0      # aes.c:347:34
	leaq	rijndael_enc_ft_tab(,%r14,8), %rdi
	movl	$619, %esi              # imm = 0x26B
	movl	$620, %edx              # imm = 0x26C
	movl	$8, %ecx
	callq	_KLoad1
	movl	$621, %esi              # imm = 0x26D
	movl	$8, %edx
	leaq	-80(%rbp), %rdi
	callq	_KLoad0
	.loc	3 348 78 is_stmt 1      # aes.c:348:78
	movq	-80(%rbp), %rax
	.loc	3 348 34 is_stmt 0      # aes.c:348:34
	movzbl	%ah, %eax  # NOREX
	movq	%rax, -176(%rbp)        # 8-byte Spill
	leaq	rijndael_enc_ft_tab+2048(,%rax,8), %rdi
	movl	$622, %esi              # imm = 0x26E
	movl	$623, %edx              # imm = 0x26F
	movl	$8, %ecx
	callq	_KLoad1
	movl	$624, %esi              # imm = 0x270
	movl	$8, %edx
	movq	%r15, %rdi
	callq	_KLoad0
	.loc	3 349 78 is_stmt 1      # aes.c:349:78
	movq	-72(%rbp), %r13
	shrq	$13, %r13
	.loc	3 349 34 is_stmt 0      # aes.c:349:34
	andq	$2040, %r13             # imm = 0x7F8
	leaq	rijndael_enc_ft_tab+4096(%r13), %rdi
	movl	$625, %esi              # imm = 0x271
	movl	$626, %edx              # imm = 0x272
	movl	$8, %ecx
	callq	_KLoad1
	movl	$627, %esi              # imm = 0x273
	movl	$8, %edx
.Ltmp346:
	.loc	3 165 3 is_stmt 1       # aes.c:165:3
	leaq	-64(%rbp), %rdi
	callq	_KLoad0
	.loc	3 350 78                # aes.c:350:78
.Ltmp347:
	movq	-64(%rbp), %rbx
	shrq	$21, %rbx
	.loc	3 350 34 is_stmt 0      # aes.c:350:34
	andq	$2040, %rbx             # imm = 0x7F8
	leaq	rijndael_enc_ft_tab+6144(%rbx), %rdi
	movl	$628, %esi              # imm = 0x274
	movl	$629, %edx              # imm = 0x275
	movl	$8, %ecx
	callq	_KLoad1
	.loc	3 347 34 is_stmt 1      # aes.c:347:34
	xorq	rijndael_enc_ft_tab(,%r14,8), %r12
	movq	-176(%rbp), %rax        # 8-byte Reload
	xorq	rijndael_enc_ft_tab+2048(,%rax,8), %r12
	xorq	rijndael_enc_ft_tab+4096(%r13), %r12
	.loc	3 347 15 is_stmt 0      # aes.c:347:15
	xorq	rijndael_enc_ft_tab+6144(%rbx), %r12
	movl	$2, 48(%rsp)
	movl	$628, 40(%rsp)          # imm = 0x274
	movl	$3, 32(%rsp)
	movl	$625, 24(%rsp)          # imm = 0x271
	movl	$4, 16(%rsp)
	movl	$622, 8(%rsp)           # imm = 0x26E
	movl	$4, (%rsp)
	movl	$630, %edi              # imm = 0x276
	movl	$14, %esi
	movl	$4, %edx
	movl	$617, %ecx              # imm = 0x269
	movl	$1, %r8d
	movl	$619, %r9d              # imm = 0x26B
	callq	_KTimestamp6
	movl	$630, %edi              # imm = 0x276
	movl	$8, %edx
	movq	-152(%rbp), %r14        # 8-byte Reload
	movq	%r14, %rsi
	callq	_KStore
	.loc	3 347 7                 # aes.c:347:7
	movq	%r12, -88(%rbp)
	movq	-128(%rbp), %r15        # 8-byte Reload
	movq	-120(%rbp), %rbx        # 8-byte Reload
.Ltmp348:
	#DEBUG_VALUE: rijndael_enc_encrypt:cx <- RBX
	.loc	3 351 17 is_stmt 1      # aes.c:351:17
	leaq	240(%rbx,%r15,8), %rdi
	movl	$631, %esi              # imm = 0x277
	movl	$8, %edx
	callq	_KLoad0
	.loc	3 351 15 is_stmt 0      # aes.c:351:15
	movq	240(%rbx,%r15,8), %r12
.Ltmp349:
	#DEBUG_VALUE: rijndael_enc_encrypt:cx <- [RBP+-120]
	movl	$632, %esi              # imm = 0x278
	movl	$8, %edx
	movq	-136(%rbp), %rdi        # 8-byte Reload
	callq	_KLoad0
	.loc	3 351 76                # aes.c:351:76
	movzbl	-112(%rbp), %eax
	.loc	3 351 34                # aes.c:351:34
	movq	%rax, -176(%rbp)        # 8-byte Spill
	leaq	rijndael_enc_ft_tab(,%rax,8), %rdi
	movl	$633, %esi              # imm = 0x279
	movl	$634, %edx              # imm = 0x27A
	movl	$8, %ecx
	callq	_KLoad1
	movl	$635, %esi              # imm = 0x27B
	movl	$8, %edx
	movq	-160(%rbp), %r15        # 8-byte Reload
	movq	%r15, %rdi
	callq	_KLoad0
	.loc	3 352 78 is_stmt 1      # aes.c:352:78
	movq	-104(%rbp), %rax
	.loc	3 352 34 is_stmt 0      # aes.c:352:34
	movzbl	%ah, %eax  # NOREX
	movq	%rax, -184(%rbp)        # 8-byte Spill
	leaq	rijndael_enc_ft_tab+2048(,%rax,8), %rdi
	movl	$636, %esi              # imm = 0x27C
	movl	$637, %edx              # imm = 0x27D
	movl	$8, %ecx
	callq	_KLoad1
	movl	$638, %esi              # imm = 0x27E
	movl	$8, %edx
	movq	-144(%rbp), %rdi        # 8-byte Reload
	callq	_KLoad0
	.loc	3 353 78 is_stmt 1      # aes.c:353:78
	movq	-96(%rbp), %r13
	shrq	$13, %r13
	.loc	3 353 34 is_stmt 0      # aes.c:353:34
	andq	$2040, %r13             # imm = 0x7F8
	leaq	rijndael_enc_ft_tab+4096(%r13), %rdi
	movl	$639, %esi              # imm = 0x27F
	movl	$640, %edx              # imm = 0x280
	movl	$8, %ecx
	callq	_KLoad1
	movl	$641, %esi              # imm = 0x281
	movl	$8, %edx
	movq	%r14, %rdi
	callq	_KLoad0
	.loc	3 354 78 is_stmt 1      # aes.c:354:78
	movq	-88(%rbp), %rbx
	shrq	$21, %rbx
	.loc	3 354 34 is_stmt 0      # aes.c:354:34
	andq	$2040, %rbx             # imm = 0x7F8
	leaq	rijndael_enc_ft_tab+6144(%rbx), %rdi
	movl	$642, %esi              # imm = 0x282
	movl	$643, %edx              # imm = 0x283
	movl	$8, %ecx
	callq	_KLoad1
	.loc	3 351 34 is_stmt 1      # aes.c:351:34
	movq	-176(%rbp), %rax        # 8-byte Reload
	xorq	rijndael_enc_ft_tab(,%rax,8), %r12
	movq	-184(%rbp), %rax        # 8-byte Reload
	xorq	rijndael_enc_ft_tab+2048(,%rax,8), %r12
	xorq	rijndael_enc_ft_tab+4096(%r13), %r12
	.loc	3 351 15 is_stmt 0      # aes.c:351:15
	xorq	rijndael_enc_ft_tab+6144(%rbx), %r12
	movl	$2, 48(%rsp)
	movl	$642, 40(%rsp)          # imm = 0x282
	movl	$3, 32(%rsp)
	movl	$639, 24(%rsp)          # imm = 0x27F
	movl	$4, 16(%rsp)
	movl	$636, 8(%rsp)           # imm = 0x27C
	movl	$4, (%rsp)
	movl	$644, %edi              # imm = 0x284
	movl	$14, %esi
	movl	$4, %edx
	movl	$631, %ecx              # imm = 0x277
	movl	$1, %r8d
	movl	$633, %r9d              # imm = 0x279
	callq	_KTimestamp6
	movl	$644, %edi              # imm = 0x284
	movl	$8, %edx
	leaq	-80(%rbp), %rsi
	callq	_KStore
	.loc	3 351 7                 # aes.c:351:7
	movq	%r12, -80(%rbp)
	movq	-128(%rbp), %r14        # 8-byte Reload
	movq	-120(%rbp), %rbx        # 8-byte Reload
.Ltmp350:
	#DEBUG_VALUE: rijndael_enc_encrypt:cx <- RBX
	.loc	3 355 15 is_stmt 1      # aes.c:355:15
	leaq	248(%rbx,%r14,8), %rdi
	movl	$645, %esi              # imm = 0x285
	movl	$8, %edx
	callq	_KLoad0
	movq	248(%rbx,%r14,8), %r12
.Ltmp351:
	#DEBUG_VALUE: rijndael_enc_encrypt:cx <- [RBP+-120]
	movl	$646, %esi              # imm = 0x286
	movl	$8, %edx
	movq	%r15, %rdi
	callq	_KLoad0
	.loc	3 355 76 is_stmt 0      # aes.c:355:76
	movzbl	-104(%rbp), %r15d
	.loc	3 355 34                # aes.c:355:34
	leaq	rijndael_enc_ft_tab(,%r15,8), %rdi
	movl	$647, %esi              # imm = 0x287
	movl	$648, %edx              # imm = 0x288
	movl	$8, %ecx
	callq	_KLoad1
	movl	$649, %esi              # imm = 0x289
	movl	$8, %edx
	movq	-144(%rbp), %r14        # 8-byte Reload
	movq	%r14, %rdi
	callq	_KLoad0
	.loc	3 356 78 is_stmt 1      # aes.c:356:78
	movq	-96(%rbp), %rax
	.loc	3 356 34 is_stmt 0      # aes.c:356:34
	movzbl	%ah, %eax  # NOREX
	movq	%rax, -176(%rbp)        # 8-byte Spill
	leaq	rijndael_enc_ft_tab+2048(,%rax,8), %rdi
	movl	$650, %esi              # imm = 0x28A
	movl	$651, %edx              # imm = 0x28B
	movl	$8, %ecx
	callq	_KLoad1
	movl	$652, %esi              # imm = 0x28C
	movl	$8, %edx
	movq	-152(%rbp), %rdi        # 8-byte Reload
	callq	_KLoad0
	.loc	3 357 78 is_stmt 1      # aes.c:357:78
	movq	-88(%rbp), %r13
	shrq	$13, %r13
	.loc	3 357 34 is_stmt 0      # aes.c:357:34
	andq	$2040, %r13             # imm = 0x7F8
	leaq	rijndael_enc_ft_tab+4096(%r13), %rdi
	movl	$653, %esi              # imm = 0x28D
	movl	$654, %edx              # imm = 0x28E
	movl	$8, %ecx
	callq	_KLoad1
	movl	$655, %esi              # imm = 0x28F
	movl	$8, %edx
	movq	-136(%rbp), %rdi        # 8-byte Reload
	callq	_KLoad0
	.loc	3 358 78 is_stmt 1      # aes.c:358:78
	movq	-112(%rbp), %rbx
	shrq	$21, %rbx
	.loc	3 358 34 is_stmt 0      # aes.c:358:34
	andq	$2040, %rbx             # imm = 0x7F8
	leaq	rijndael_enc_ft_tab+6144(%rbx), %rdi
	movl	$656, %esi              # imm = 0x290
	movl	$657, %edx              # imm = 0x291
	movl	$8, %ecx
	callq	_KLoad1
	.loc	3 355 34 is_stmt 1      # aes.c:355:34
	xorq	rijndael_enc_ft_tab(,%r15,8), %r12
	movq	-176(%rbp), %rax        # 8-byte Reload
	xorq	rijndael_enc_ft_tab+2048(,%rax,8), %r12
	xorq	rijndael_enc_ft_tab+4096(%r13), %r12
	.loc	3 355 15 is_stmt 0      # aes.c:355:15
	xorq	rijndael_enc_ft_tab+6144(%rbx), %r12
	movl	$2, 48(%rsp)
	movl	$656, 40(%rsp)          # imm = 0x290
	movl	$3, 32(%rsp)
	movl	$653, 24(%rsp)          # imm = 0x28D
	movl	$4, 16(%rsp)
	movl	$650, 8(%rsp)           # imm = 0x28A
	movl	$4, (%rsp)
	movl	$658, %edi              # imm = 0x292
	movl	$14, %esi
	movl	$4, %edx
	movl	$645, %ecx              # imm = 0x285
	movl	$1, %r8d
	movl	$647, %r9d              # imm = 0x287
	callq	_KTimestamp6
	movl	$658, %edi              # imm = 0x292
	movl	$8, %edx
.Ltmp352:
	.loc	3 164 3 is_stmt 1       # aes.c:164:3
	leaq	-72(%rbp), %rsi
	callq	_KStore
	.loc	3 355 7                 # aes.c:355:7
.Ltmp353:
	movq	%r12, -72(%rbp)
	movq	-128(%rbp), %r15        # 8-byte Reload
	movq	-120(%rbp), %rbx        # 8-byte Reload
.Ltmp354:
	#DEBUG_VALUE: rijndael_enc_encrypt:cx <- RBX
	.loc	3 359 15                # aes.c:359:15
	leaq	256(%rbx,%r15,8), %rdi
	movl	$659, %esi              # imm = 0x293
	movl	$8, %edx
	callq	_KLoad0
	movq	256(%rbx,%r15,8), %r12
.Ltmp355:
	#DEBUG_VALUE: rijndael_enc_encrypt:cx <- [RBP+-120]
	movl	$660, %esi              # imm = 0x294
	movl	$8, %edx
	movq	%r14, %rdi
	callq	_KLoad0
	.loc	3 359 76 is_stmt 0      # aes.c:359:76
	movzbl	-96(%rbp), %r14d
	.loc	3 359 34                # aes.c:359:34
	leaq	rijndael_enc_ft_tab(,%r14,8), %rdi
	movl	$661, %esi              # imm = 0x295
	movl	$662, %edx              # imm = 0x296
	movl	$8, %ecx
	callq	_KLoad1
	movl	$663, %esi              # imm = 0x297
	movl	$8, %edx
	movq	-152(%rbp), %rdi        # 8-byte Reload
	callq	_KLoad0
	.loc	3 360 78 is_stmt 1      # aes.c:360:78
	movq	-88(%rbp), %rax
	.loc	3 360 34 is_stmt 0      # aes.c:360:34
	movzbl	%ah, %eax  # NOREX
	movq	%rax, -176(%rbp)        # 8-byte Spill
	leaq	rijndael_enc_ft_tab+2048(,%rax,8), %rdi
	movl	$664, %esi              # imm = 0x298
	movl	$665, %edx              # imm = 0x299
	movl	$8, %ecx
	callq	_KLoad1
	movl	$666, %esi              # imm = 0x29A
	movl	$8, %edx
	movq	-136(%rbp), %rdi        # 8-byte Reload
	callq	_KLoad0
	.loc	3 361 78 is_stmt 1      # aes.c:361:78
	movq	-112(%rbp), %r13
	shrq	$13, %r13
	.loc	3 361 34 is_stmt 0      # aes.c:361:34
	andq	$2040, %r13             # imm = 0x7F8
	leaq	rijndael_enc_ft_tab+4096(%r13), %rdi
	movl	$667, %esi              # imm = 0x29B
	movl	$668, %edx              # imm = 0x29C
	movl	$8, %ecx
	callq	_KLoad1
	movl	$669, %esi              # imm = 0x29D
	movl	$8, %edx
	movq	-160(%rbp), %r15        # 8-byte Reload
	movq	%r15, %rdi
	callq	_KLoad0
	.loc	3 362 78 is_stmt 1      # aes.c:362:78
	movq	-104(%rbp), %rbx
	shrq	$21, %rbx
	.loc	3 362 34 is_stmt 0      # aes.c:362:34
	andq	$2040, %rbx             # imm = 0x7F8
	leaq	rijndael_enc_ft_tab+6144(%rbx), %rdi
	movl	$670, %esi              # imm = 0x29E
	movl	$671, %edx              # imm = 0x29F
	movl	$8, %ecx
	callq	_KLoad1
	.loc	3 359 34 is_stmt 1      # aes.c:359:34
	xorq	rijndael_enc_ft_tab(,%r14,8), %r12
	movq	-176(%rbp), %rax        # 8-byte Reload
	xorq	rijndael_enc_ft_tab+2048(,%rax,8), %r12
	xorq	rijndael_enc_ft_tab+4096(%r13), %r12
	.loc	3 359 15 is_stmt 0      # aes.c:359:15
	xorq	rijndael_enc_ft_tab+6144(%rbx), %r12
	movl	$2, 48(%rsp)
	movl	$670, 40(%rsp)          # imm = 0x29E
	movl	$3, 32(%rsp)
	movl	$667, 24(%rsp)          # imm = 0x29B
	movl	$4, 16(%rsp)
	movl	$664, 8(%rsp)           # imm = 0x298
	movl	$4, (%rsp)
	movl	$672, %edi              # imm = 0x2A0
	movl	$14, %esi
	movl	$4, %edx
	movl	$659, %ecx              # imm = 0x293
	movl	$1, %r8d
	movl	$661, %r9d              # imm = 0x295
	callq	_KTimestamp6
	movl	$672, %edi              # imm = 0x2A0
	movl	$8, %edx
.Ltmp356:
	.loc	3 165 3 is_stmt 1       # aes.c:165:3
	leaq	-64(%rbp), %rsi
	callq	_KStore
	.loc	3 359 7                 # aes.c:359:7
.Ltmp357:
	movq	%r12, -64(%rbp)
	movq	-120(%rbp), %r14        # 8-byte Reload
.Ltmp358:
	#DEBUG_VALUE: rijndael_enc_encrypt:cx <- R14
	movq	-128(%rbp), %rbx        # 8-byte Reload
	.loc	3 363 15                # aes.c:363:15
	leaq	264(%r14,%rbx,8), %rdi
	movl	$673, %esi              # imm = 0x2A1
	movl	$8, %edx
	callq	_KLoad0
	movq	264(%r14,%rbx,8), %r12
.Ltmp359:
	#DEBUG_VALUE: rijndael_enc_encrypt:cx <- [RBP+-120]
	movl	$674, %esi              # imm = 0x2A2
	movl	$8, %edx
	movq	-152(%rbp), %rdi        # 8-byte Reload
	callq	_KLoad0
	.loc	3 363 76 is_stmt 0      # aes.c:363:76
	movzbl	-88(%rbp), %r14d
	.loc	3 363 34                # aes.c:363:34
	leaq	rijndael_enc_ft_tab(,%r14,8), %rdi
	movl	$675, %esi              # imm = 0x2A3
	movl	$676, %edx              # imm = 0x2A4
	movl	$8, %ecx
	callq	_KLoad1
	movl	$677, %esi              # imm = 0x2A5
	movl	$8, %edx
	movq	-136(%rbp), %rdi        # 8-byte Reload
	callq	_KLoad0
	.loc	3 364 78 is_stmt 1      # aes.c:364:78
	movq	-112(%rbp), %rax
	.loc	3 364 34 is_stmt 0      # aes.c:364:34
	movzbl	%ah, %eax  # NOREX
	movq	%rax, -176(%rbp)        # 8-byte Spill
	leaq	rijndael_enc_ft_tab+2048(,%rax,8), %rdi
	movl	$678, %esi              # imm = 0x2A6
	movl	$679, %edx              # imm = 0x2A7
	movl	$8, %ecx
	callq	_KLoad1
	movl	$680, %esi              # imm = 0x2A8
	movl	$8, %edx
	movq	%r15, %rdi
	callq	_KLoad0
	.loc	3 365 78 is_stmt 1      # aes.c:365:78
	movq	-104(%rbp), %r13
	shrq	$13, %r13
	.loc	3 365 34 is_stmt 0      # aes.c:365:34
	andq	$2040, %r13             # imm = 0x7F8
	leaq	rijndael_enc_ft_tab+4096(%r13), %rdi
	movl	$681, %esi              # imm = 0x2A9
	movl	$682, %edx              # imm = 0x2AA
	movl	$8, %ecx
	callq	_KLoad1
	movl	$683, %esi              # imm = 0x2AB
	movl	$8, %edx
	movq	-144(%rbp), %rdi        # 8-byte Reload
	callq	_KLoad0
	.loc	3 366 78 is_stmt 1      # aes.c:366:78
	movq	-96(%rbp), %rbx
	shrq	$21, %rbx
	.loc	3 366 34 is_stmt 0      # aes.c:366:34
	andq	$2040, %rbx             # imm = 0x7F8
	leaq	rijndael_enc_ft_tab+6144(%rbx), %rdi
	movl	$684, %esi              # imm = 0x2AC
	movl	$685, %edx              # imm = 0x2AD
	movl	$8, %ecx
	callq	_KLoad1
	.loc	3 363 34 is_stmt 1      # aes.c:363:34
	xorq	rijndael_enc_ft_tab(,%r14,8), %r12
	movq	-176(%rbp), %rax        # 8-byte Reload
	xorq	rijndael_enc_ft_tab+2048(,%rax,8), %r12
	xorq	rijndael_enc_ft_tab+4096(%r13), %r12
	.loc	3 363 15 is_stmt 0      # aes.c:363:15
	xorq	rijndael_enc_ft_tab+6144(%rbx), %r12
	movl	$2, 48(%rsp)
	movl	$684, 40(%rsp)          # imm = 0x2AC
	movl	$3, 32(%rsp)
	movl	$681, 24(%rsp)          # imm = 0x2A9
	movl	$4, 16(%rsp)
	movl	$678, 8(%rsp)           # imm = 0x2A6
	movl	$4, (%rsp)
	movl	$686, %edi              # imm = 0x2AE
	movl	$14, %esi
	movl	$4, %edx
	movl	$673, %ecx              # imm = 0x2A1
	movl	$1, %r8d
	movl	$675, %r9d              # imm = 0x2A3
	callq	_KTimestamp6
	movl	$686, %edi              # imm = 0x2AE
	movl	$8, %edx
.Ltmp360:
	.loc	3 166 3 is_stmt 1       # aes.c:166:3
	leaq	-56(%rbp), %r15
	movq	%r15, %rsi
	callq	_KStore
	.loc	3 363 7                 # aes.c:363:7
.Ltmp361:
	movq	%r12, -56(%rbp)
	movq	-128(%rbp), %r14        # 8-byte Reload
	movq	-120(%rbp), %rbx        # 8-byte Reload
.Ltmp362:
	#DEBUG_VALUE: rijndael_enc_encrypt:cx <- RBX
	.loc	3 367 17                # aes.c:367:17
	leaq	272(%rbx,%r14,8), %rdi
	movl	$687, %esi              # imm = 0x2AF
	movl	$8, %edx
	callq	_KLoad0
	.loc	3 367 15 is_stmt 0      # aes.c:367:15
	movq	272(%rbx,%r14,8), %r12
.Ltmp363:
	#DEBUG_VALUE: rijndael_enc_encrypt:cx <- [RBP+-120]
	movl	$688, %esi              # imm = 0x2B0
	movl	$8, %edx
	leaq	-80(%rbp), %rdi
	callq	_KLoad0
	.loc	3 367 76                # aes.c:367:76
	movzbl	-80(%rbp), %eax
	.loc	3 367 34                # aes.c:367:34
	movq	%rax, -176(%rbp)        # 8-byte Spill
	leaq	rijndael_enc_ft_tab(,%rax,8), %rdi
	movl	$689, %esi              # imm = 0x2B1
	movl	$690, %edx              # imm = 0x2B2
	movl	$8, %ecx
	callq	_KLoad1
	movl	$691, %esi              # imm = 0x2B3
	movl	$8, %edx
.Ltmp364:
	.loc	3 164 3 is_stmt 1       # aes.c:164:3
	leaq	-72(%rbp), %rdi
	callq	_KLoad0
	.loc	3 368 78                # aes.c:368:78
.Ltmp365:
	movq	-72(%rbp), %rax
	.loc	3 368 34 is_stmt 0      # aes.c:368:34
	movzbl	%ah, %eax  # NOREX
	movq	%rax, -184(%rbp)        # 8-byte Spill
	leaq	rijndael_enc_ft_tab+2048(,%rax,8), %rdi
	movl	$692, %esi              # imm = 0x2B4
	movl	$693, %edx              # imm = 0x2B5
	movl	$8, %ecx
	callq	_KLoad1
	movl	$694, %esi              # imm = 0x2B6
	movl	$8, %edx
.Ltmp366:
	.loc	3 165 3 is_stmt 1       # aes.c:165:3
	leaq	-64(%rbp), %r14
	movq	%r14, %rdi
	callq	_KLoad0
	.loc	3 369 78                # aes.c:369:78
.Ltmp367:
	movq	-64(%rbp), %r13
	shrq	$13, %r13
	.loc	3 369 34 is_stmt 0      # aes.c:369:34
	andq	$2040, %r13             # imm = 0x7F8
	leaq	rijndael_enc_ft_tab+4096(%r13), %rdi
	movl	$695, %esi              # imm = 0x2B7
	movl	$696, %edx              # imm = 0x2B8
	movl	$8, %ecx
	callq	_KLoad1
	movl	$697, %esi              # imm = 0x2B9
	movl	$8, %edx
	movq	%r15, %rdi
	callq	_KLoad0
	.loc	3 370 78 is_stmt 1      # aes.c:370:78
	movq	-56(%rbp), %rbx
	shrq	$21, %rbx
	.loc	3 370 34 is_stmt 0      # aes.c:370:34
	andq	$2040, %rbx             # imm = 0x7F8
	leaq	rijndael_enc_ft_tab+6144(%rbx), %rdi
	movl	$698, %esi              # imm = 0x2BA
	movl	$699, %edx              # imm = 0x2BB
	movl	$8, %ecx
	callq	_KLoad1
	.loc	3 367 34 is_stmt 1      # aes.c:367:34
	movq	-176(%rbp), %rax        # 8-byte Reload
	xorq	rijndael_enc_ft_tab(,%rax,8), %r12
	movq	-184(%rbp), %rax        # 8-byte Reload
	xorq	rijndael_enc_ft_tab+2048(,%rax,8), %r12
	xorq	rijndael_enc_ft_tab+4096(%r13), %r12
	.loc	3 367 15 is_stmt 0      # aes.c:367:15
	xorq	rijndael_enc_ft_tab+6144(%rbx), %r12
	movl	$2, 48(%rsp)
	movl	$698, 40(%rsp)          # imm = 0x2BA
	movl	$3, 32(%rsp)
	movl	$695, 24(%rsp)          # imm = 0x2B7
	movl	$4, 16(%rsp)
	movl	$692, 8(%rsp)           # imm = 0x2B4
	movl	$4, (%rsp)
	movl	$700, %edi              # imm = 0x2BC
	movl	$14, %esi
	movl	$4, %edx
	movl	$687, %ecx              # imm = 0x2AF
	movl	$1, %r8d
	movl	$689, %r9d              # imm = 0x2B1
	callq	_KTimestamp6
	movl	$700, %edi              # imm = 0x2BC
	movl	$8, %edx
	movq	-136(%rbp), %rsi        # 8-byte Reload
	callq	_KStore
	.loc	3 367 7                 # aes.c:367:7
	movq	%r12, -112(%rbp)
	movq	-128(%rbp), %r15        # 8-byte Reload
	movq	-120(%rbp), %rbx        # 8-byte Reload
.Ltmp368:
	#DEBUG_VALUE: rijndael_enc_encrypt:cx <- RBX
	.loc	3 371 15 is_stmt 1      # aes.c:371:15
	leaq	280(%rbx,%r15,8), %rdi
	movl	$701, %esi              # imm = 0x2BD
	movl	$8, %edx
	callq	_KLoad0
	movq	280(%rbx,%r15,8), %r12
.Ltmp369:
	#DEBUG_VALUE: rijndael_enc_encrypt:cx <- [RBP+-120]
	movl	$702, %esi              # imm = 0x2BE
	movl	$8, %edx
.Ltmp370:
	.loc	3 164 3                 # aes.c:164:3
	leaq	-72(%rbp), %rdi
	callq	_KLoad0
	.loc	3 371 76                # aes.c:371:76
.Ltmp371:
	movzbl	-72(%rbp), %r15d
	.loc	3 371 34 is_stmt 0      # aes.c:371:34
	leaq	rijndael_enc_ft_tab(,%r15,8), %rdi
	movl	$703, %esi              # imm = 0x2BF
	movl	$704, %edx              # imm = 0x2C0
	movl	$8, %ecx
	callq	_KLoad1
	movl	$705, %esi              # imm = 0x2C1
	movl	$8, %edx
	movq	%r14, %rdi
	callq	_KLoad0
	.loc	3 372 78 is_stmt 1      # aes.c:372:78
	movq	-64(%rbp), %rax
	.loc	3 372 34 is_stmt 0      # aes.c:372:34
	movzbl	%ah, %eax  # NOREX
	movq	%rax, -176(%rbp)        # 8-byte Spill
	leaq	rijndael_enc_ft_tab+2048(,%rax,8), %rdi
	movl	$706, %esi              # imm = 0x2C2
	movl	$707, %edx              # imm = 0x2C3
	movl	$8, %ecx
	callq	_KLoad1
	movl	$708, %esi              # imm = 0x2C4
	movl	$8, %edx
.Ltmp372:
	.loc	3 166 3 is_stmt 1       # aes.c:166:3
	leaq	-56(%rbp), %rdi
	callq	_KLoad0
	.loc	3 373 78                # aes.c:373:78
.Ltmp373:
	movq	-56(%rbp), %r13
	shrq	$13, %r13
	.loc	3 373 34 is_stmt 0      # aes.c:373:34
	andq	$2040, %r13             # imm = 0x7F8
	leaq	rijndael_enc_ft_tab+4096(%r13), %rdi
	movl	$709, %esi              # imm = 0x2C5
	movl	$710, %edx              # imm = 0x2C6
	movl	$8, %ecx
	callq	_KLoad1
	movl	$711, %esi              # imm = 0x2C7
	movl	$8, %edx
	leaq	-80(%rbp), %r14
	movq	%r14, %rdi
	callq	_KLoad0
	.loc	3 374 78 is_stmt 1      # aes.c:374:78
	movq	-80(%rbp), %rbx
	shrq	$21, %rbx
	.loc	3 374 34 is_stmt 0      # aes.c:374:34
	andq	$2040, %rbx             # imm = 0x7F8
	leaq	rijndael_enc_ft_tab+6144(%rbx), %rdi
	movl	$712, %esi              # imm = 0x2C8
	movl	$713, %edx              # imm = 0x2C9
	movl	$8, %ecx
	callq	_KLoad1
	.loc	3 371 34 is_stmt 1      # aes.c:371:34
	xorq	rijndael_enc_ft_tab(,%r15,8), %r12
	movq	-176(%rbp), %rax        # 8-byte Reload
	xorq	rijndael_enc_ft_tab+2048(,%rax,8), %r12
	xorq	rijndael_enc_ft_tab+4096(%r13), %r12
	.loc	3 371 15 is_stmt 0      # aes.c:371:15
	xorq	rijndael_enc_ft_tab+6144(%rbx), %r12
	movl	$2, 48(%rsp)
	movl	$712, 40(%rsp)          # imm = 0x2C8
	movl	$3, 32(%rsp)
	movl	$709, 24(%rsp)          # imm = 0x2C5
	movl	$4, 16(%rsp)
	movl	$706, 8(%rsp)           # imm = 0x2C2
	movl	$4, (%rsp)
	movl	$714, %edi              # imm = 0x2CA
	movl	$14, %esi
	movl	$4, %edx
	movl	$701, %ecx              # imm = 0x2BD
	movl	$1, %r8d
	movl	$703, %r9d              # imm = 0x2BF
	callq	_KTimestamp6
	movl	$714, %edi              # imm = 0x2CA
	movl	$8, %edx
	movq	-160(%rbp), %rsi        # 8-byte Reload
	callq	_KStore
	.loc	3 371 7                 # aes.c:371:7
	movq	%r12, -104(%rbp)
	movq	-128(%rbp), %r15        # 8-byte Reload
	movq	-120(%rbp), %rbx        # 8-byte Reload
.Ltmp374:
	#DEBUG_VALUE: rijndael_enc_encrypt:cx <- RBX
	.loc	3 375 15 is_stmt 1      # aes.c:375:15
	leaq	288(%rbx,%r15,8), %rdi
	movl	$715, %esi              # imm = 0x2CB
	movl	$8, %edx
	callq	_KLoad0
	movq	288(%rbx,%r15,8), %r12
.Ltmp375:
	#DEBUG_VALUE: rijndael_enc_encrypt:cx <- [RBP+-120]
	movl	$716, %esi              # imm = 0x2CC
	movl	$8, %edx
.Ltmp376:
	.loc	3 165 3                 # aes.c:165:3
	leaq	-64(%rbp), %rdi
	callq	_KLoad0
	.loc	3 375 76                # aes.c:375:76
.Ltmp377:
	movzbl	-64(%rbp), %r15d
	.loc	3 375 34 is_stmt 0      # aes.c:375:34
	leaq	rijndael_enc_ft_tab(,%r15,8), %rdi
	movl	$717, %esi              # imm = 0x2CD
	movl	$718, %edx              # imm = 0x2CE
	movl	$8, %ecx
	callq	_KLoad1
	movl	$719, %esi              # imm = 0x2CF
	movl	$8, %edx
.Ltmp378:
	.loc	3 166 3 is_stmt 1       # aes.c:166:3
	leaq	-56(%rbp), %rdi
	callq	_KLoad0
	.loc	3 376 78                # aes.c:376:78
.Ltmp379:
	movq	-56(%rbp), %rax
	.loc	3 376 34 is_stmt 0      # aes.c:376:34
	movzbl	%ah, %eax  # NOREX
	movq	%rax, -176(%rbp)        # 8-byte Spill
	leaq	rijndael_enc_ft_tab+2048(,%rax,8), %rdi
	movl	$720, %esi              # imm = 0x2D0
	movl	$721, %edx              # imm = 0x2D1
	movl	$8, %ecx
	callq	_KLoad1
	movl	$722, %esi              # imm = 0x2D2
	movl	$8, %edx
	movq	%r14, %rdi
	callq	_KLoad0
	.loc	3 377 78 is_stmt 1      # aes.c:377:78
	movq	-80(%rbp), %r13
	shrq	$13, %r13
	.loc	3 377 34 is_stmt 0      # aes.c:377:34
	andq	$2040, %r13             # imm = 0x7F8
	leaq	rijndael_enc_ft_tab+4096(%r13), %rdi
	movl	$723, %esi              # imm = 0x2D3
	movl	$724, %edx              # imm = 0x2D4
	movl	$8, %ecx
	callq	_KLoad1
	movl	$725, %esi              # imm = 0x2D5
	movl	$8, %edx
.Ltmp380:
	.loc	3 164 3 is_stmt 1       # aes.c:164:3
	leaq	-72(%rbp), %r14
	movq	%r14, %rdi
	callq	_KLoad0
	.loc	3 378 78                # aes.c:378:78
.Ltmp381:
	movq	-72(%rbp), %rbx
	shrq	$21, %rbx
	.loc	3 378 34 is_stmt 0      # aes.c:378:34
	andq	$2040, %rbx             # imm = 0x7F8
	leaq	rijndael_enc_ft_tab+6144(%rbx), %rdi
	movl	$726, %esi              # imm = 0x2D6
	movl	$727, %edx              # imm = 0x2D7
	movl	$8, %ecx
	callq	_KLoad1
	.loc	3 375 34 is_stmt 1      # aes.c:375:34
	xorq	rijndael_enc_ft_tab(,%r15,8), %r12
	movq	-176(%rbp), %rax        # 8-byte Reload
	xorq	rijndael_enc_ft_tab+2048(,%rax,8), %r12
	xorq	rijndael_enc_ft_tab+4096(%r13), %r12
	.loc	3 375 15 is_stmt 0      # aes.c:375:15
	xorq	rijndael_enc_ft_tab+6144(%rbx), %r12
	movl	$2, 48(%rsp)
	movl	$726, 40(%rsp)          # imm = 0x2D6
	movl	$3, 32(%rsp)
	movl	$723, 24(%rsp)          # imm = 0x2D3
	movl	$4, 16(%rsp)
	movl	$720, 8(%rsp)           # imm = 0x2D0
	movl	$4, (%rsp)
	movl	$728, %edi              # imm = 0x2D8
	movl	$14, %esi
	movl	$4, %edx
	movl	$715, %ecx              # imm = 0x2CB
	movl	$1, %r8d
	movl	$717, %r9d              # imm = 0x2CD
	callq	_KTimestamp6
	movl	$728, %edi              # imm = 0x2D8
	movl	$8, %edx
	movq	-144(%rbp), %rsi        # 8-byte Reload
	callq	_KStore
	.loc	3 375 7                 # aes.c:375:7
	movq	%r12, -96(%rbp)
	movq	-128(%rbp), %r15        # 8-byte Reload
	movq	-120(%rbp), %rbx        # 8-byte Reload
.Ltmp382:
	#DEBUG_VALUE: rijndael_enc_encrypt:cx <- RBX
	.loc	3 379 15 is_stmt 1      # aes.c:379:15
	leaq	296(%rbx,%r15,8), %rdi
	movl	$729, %esi              # imm = 0x2D9
	movl	$8, %edx
	callq	_KLoad0
	movq	296(%rbx,%r15,8), %r12
.Ltmp383:
	#DEBUG_VALUE: rijndael_enc_encrypt:cx <- [RBP+-120]
	movl	$730, %esi              # imm = 0x2DA
	movl	$8, %edx
.Ltmp384:
	.loc	3 166 3                 # aes.c:166:3
	leaq	-56(%rbp), %rdi
	callq	_KLoad0
	.loc	3 379 76                # aes.c:379:76
.Ltmp385:
	movzbl	-56(%rbp), %r15d
	.loc	3 379 34 is_stmt 0      # aes.c:379:34
	leaq	rijndael_enc_ft_tab(,%r15,8), %rdi
	movl	$731, %esi              # imm = 0x2DB
	movl	$732, %edx              # imm = 0x2DC
	movl	$8, %ecx
	callq	_KLoad1
	movl	$733, %esi              # imm = 0x2DD
	movl	$8, %edx
	leaq	-80(%rbp), %rdi
	callq	_KLoad0
	.loc	3 380 78 is_stmt 1      # aes.c:380:78
	movq	-80(%rbp), %rax
	.loc	3 380 34 is_stmt 0      # aes.c:380:34
	movzbl	%ah, %eax  # NOREX
	movq	%rax, -176(%rbp)        # 8-byte Spill
	leaq	rijndael_enc_ft_tab+2048(,%rax,8), %rdi
	movl	$734, %esi              # imm = 0x2DE
	movl	$735, %edx              # imm = 0x2DF
	movl	$8, %ecx
	callq	_KLoad1
	movl	$736, %esi              # imm = 0x2E0
	movl	$8, %edx
	movq	%r14, %rdi
	callq	_KLoad0
	.loc	3 381 78 is_stmt 1      # aes.c:381:78
	movq	-72(%rbp), %r13
	shrq	$13, %r13
	.loc	3 381 34 is_stmt 0      # aes.c:381:34
	andq	$2040, %r13             # imm = 0x7F8
	leaq	rijndael_enc_ft_tab+4096(%r13), %rdi
	movl	$737, %esi              # imm = 0x2E1
	movl	$738, %edx              # imm = 0x2E2
	movl	$8, %ecx
	callq	_KLoad1
	movl	$739, %esi              # imm = 0x2E3
	movl	$8, %edx
.Ltmp386:
	.loc	3 165 3 is_stmt 1       # aes.c:165:3
	leaq	-64(%rbp), %rdi
	callq	_KLoad0
	.loc	3 382 78                # aes.c:382:78
.Ltmp387:
	movq	-64(%rbp), %rbx
	shrq	$21, %rbx
	.loc	3 382 34 is_stmt 0      # aes.c:382:34
	andq	$2040, %rbx             # imm = 0x7F8
	leaq	rijndael_enc_ft_tab+6144(%rbx), %rdi
	movl	$740, %esi              # imm = 0x2E4
	movl	$741, %edx              # imm = 0x2E5
	movl	$8, %ecx
	callq	_KLoad1
	.loc	3 379 34 is_stmt 1      # aes.c:379:34
	xorq	rijndael_enc_ft_tab(,%r15,8), %r12
	movq	-176(%rbp), %rax        # 8-byte Reload
	xorq	rijndael_enc_ft_tab+2048(,%rax,8), %r12
	xorq	rijndael_enc_ft_tab+4096(%r13), %r12
	.loc	3 379 15 is_stmt 0      # aes.c:379:15
	xorq	rijndael_enc_ft_tab+6144(%rbx), %r12
	movl	$2, 48(%rsp)
	movl	$740, 40(%rsp)          # imm = 0x2E4
	movl	$3, 32(%rsp)
	movl	$737, 24(%rsp)          # imm = 0x2E1
	movl	$4, 16(%rsp)
	movl	$734, 8(%rsp)           # imm = 0x2DE
	movl	$4, (%rsp)
	movl	$742, %edi              # imm = 0x2E6
	movl	$14, %esi
	movl	$4, %edx
	movl	$729, %ecx              # imm = 0x2D9
	movl	$1, %r8d
	movl	$731, %r9d              # imm = 0x2DB
	callq	_KTimestamp6
	movl	$742, %edi              # imm = 0x2E6
	movl	$8, %edx
	movq	-152(%rbp), %r15        # 8-byte Reload
	movq	%r15, %rsi
	callq	_KStore
	.loc	3 379 7                 # aes.c:379:7
	movq	%r12, -88(%rbp)
	movq	-128(%rbp), %r14        # 8-byte Reload
	movq	-120(%rbp), %rbx        # 8-byte Reload
.Ltmp388:
	#DEBUG_VALUE: rijndael_enc_encrypt:cx <- RBX
	.loc	3 383 17 is_stmt 1      # aes.c:383:17
	leaq	304(%rbx,%r14,8), %rdi
	movl	$743, %esi              # imm = 0x2E7
	movl	$8, %edx
	callq	_KLoad0
	.loc	3 383 15 is_stmt 0      # aes.c:383:15
	movq	304(%rbx,%r14,8), %r12
.Ltmp389:
	#DEBUG_VALUE: rijndael_enc_encrypt:cx <- [RBP+-120]
	movl	$744, %esi              # imm = 0x2E8
	movl	$8, %edx
	movq	-136(%rbp), %rdi        # 8-byte Reload
	callq	_KLoad0
	.loc	3 383 76                # aes.c:383:76
	movzbl	-112(%rbp), %eax
	.loc	3 383 34                # aes.c:383:34
	movq	%rax, -176(%rbp)        # 8-byte Spill
	leaq	rijndael_enc_fl_tab(,%rax,8), %rdi
	movl	$745, %esi              # imm = 0x2E9
	movl	$746, %edx              # imm = 0x2EA
	movl	$8, %ecx
	callq	_KLoad1
	movl	$747, %esi              # imm = 0x2EB
	movl	$8, %edx
	movq	-160(%rbp), %r14        # 8-byte Reload
	movq	%r14, %rdi
	callq	_KLoad0
	.loc	3 384 78 is_stmt 1      # aes.c:384:78
	movq	-104(%rbp), %rax
	.loc	3 384 34 is_stmt 0      # aes.c:384:34
	movzbl	%ah, %eax  # NOREX
	movq	%rax, -184(%rbp)        # 8-byte Spill
	leaq	rijndael_enc_fl_tab+2048(,%rax,8), %rdi
	movl	$748, %esi              # imm = 0x2EC
	movl	$749, %edx              # imm = 0x2ED
	movl	$8, %ecx
	callq	_KLoad1
	movl	$750, %esi              # imm = 0x2EE
	movl	$8, %edx
	movq	-144(%rbp), %rdi        # 8-byte Reload
	callq	_KLoad0
	.loc	3 385 78 is_stmt 1      # aes.c:385:78
	movq	-96(%rbp), %r13
	shrq	$13, %r13
	.loc	3 385 34 is_stmt 0      # aes.c:385:34
	andq	$2040, %r13             # imm = 0x7F8
	leaq	rijndael_enc_fl_tab+4096(%r13), %rdi
	movl	$751, %esi              # imm = 0x2EF
	movl	$752, %edx              # imm = 0x2F0
	movl	$8, %ecx
	callq	_KLoad1
	movl	$753, %esi              # imm = 0x2F1
	movl	$8, %edx
	movq	%r15, %rdi
	callq	_KLoad0
	.loc	3 386 78 is_stmt 1      # aes.c:386:78
	movq	-88(%rbp), %rbx
	shrq	$21, %rbx
	.loc	3 386 34 is_stmt 0      # aes.c:386:34
	andq	$2040, %rbx             # imm = 0x7F8
	leaq	rijndael_enc_fl_tab+6144(%rbx), %rdi
	movl	$754, %esi              # imm = 0x2F2
	movl	$755, %edx              # imm = 0x2F3
	movl	$8, %ecx
	callq	_KLoad1
	.loc	3 383 34 is_stmt 1      # aes.c:383:34
	movq	-176(%rbp), %rax        # 8-byte Reload
	xorq	rijndael_enc_fl_tab(,%rax,8), %r12
	movq	-184(%rbp), %rax        # 8-byte Reload
	xorq	rijndael_enc_fl_tab+2048(,%rax,8), %r12
	xorq	rijndael_enc_fl_tab+4096(%r13), %r12
	.loc	3 383 15 is_stmt 0      # aes.c:383:15
	xorq	rijndael_enc_fl_tab+6144(%rbx), %r12
	movl	$2, 48(%rsp)
	movl	$754, 40(%rsp)          # imm = 0x2F2
	movl	$3, 32(%rsp)
	movl	$751, 24(%rsp)          # imm = 0x2EF
	movl	$4, 16(%rsp)
	movl	$748, 8(%rsp)           # imm = 0x2EC
	movl	$4, (%rsp)
	movl	$756, %edi              # imm = 0x2F4
	movl	$14, %esi
	movl	$4, %edx
	movl	$743, %ecx              # imm = 0x2E7
	movl	$1, %r8d
	movl	$745, %r9d              # imm = 0x2E9
	callq	_KTimestamp6
	movl	$756, %edi              # imm = 0x2F4
	movl	$8, %edx
	leaq	-80(%rbp), %rsi
	callq	_KStore
	.loc	3 383 7                 # aes.c:383:7
	movq	%r12, -80(%rbp)
	movq	-128(%rbp), %r15        # 8-byte Reload
	movq	-120(%rbp), %rbx        # 8-byte Reload
.Ltmp390:
	#DEBUG_VALUE: rijndael_enc_encrypt:cx <- RBX
	.loc	3 387 15 is_stmt 1      # aes.c:387:15
	leaq	312(%rbx,%r15,8), %rdi
	movl	$757, %esi              # imm = 0x2F5
	movl	$8, %edx
	callq	_KLoad0
	movq	312(%rbx,%r15,8), %r12
.Ltmp391:
	#DEBUG_VALUE: rijndael_enc_encrypt:cx <- [RBP+-120]
	movl	$758, %esi              # imm = 0x2F6
	movl	$8, %edx
	movq	%r14, %rdi
	callq	_KLoad0
	.loc	3 387 76 is_stmt 0      # aes.c:387:76
	movzbl	-104(%rbp), %r14d
	.loc	3 387 34                # aes.c:387:34
	leaq	rijndael_enc_fl_tab(,%r14,8), %rdi
	movl	$759, %esi              # imm = 0x2F7
	movl	$760, %edx              # imm = 0x2F8
	movl	$8, %ecx
	callq	_KLoad1
	movl	$761, %esi              # imm = 0x2F9
	movl	$8, %edx
	movq	-144(%rbp), %r15        # 8-byte Reload
	movq	%r15, %rdi
	callq	_KLoad0
	.loc	3 388 78 is_stmt 1      # aes.c:388:78
	movq	-96(%rbp), %rax
	.loc	3 388 34 is_stmt 0      # aes.c:388:34
	movzbl	%ah, %eax  # NOREX
	movq	%rax, -176(%rbp)        # 8-byte Spill
	leaq	rijndael_enc_fl_tab+2048(,%rax,8), %rdi
	movl	$762, %esi              # imm = 0x2FA
	movl	$763, %edx              # imm = 0x2FB
	movl	$8, %ecx
	callq	_KLoad1
	movl	$764, %esi              # imm = 0x2FC
	movl	$8, %edx
	movq	-152(%rbp), %rdi        # 8-byte Reload
	callq	_KLoad0
	.loc	3 389 78 is_stmt 1      # aes.c:389:78
	movq	-88(%rbp), %r13
	shrq	$13, %r13
	.loc	3 389 34 is_stmt 0      # aes.c:389:34
	andq	$2040, %r13             # imm = 0x7F8
	leaq	rijndael_enc_fl_tab+4096(%r13), %rdi
	movl	$765, %esi              # imm = 0x2FD
	movl	$766, %edx              # imm = 0x2FE
	movl	$8, %ecx
	callq	_KLoad1
	movl	$767, %esi              # imm = 0x2FF
	movl	$8, %edx
	movq	-136(%rbp), %rdi        # 8-byte Reload
	callq	_KLoad0
	.loc	3 390 78 is_stmt 1      # aes.c:390:78
	movq	-112(%rbp), %rbx
	shrq	$21, %rbx
	.loc	3 390 34 is_stmt 0      # aes.c:390:34
	andq	$2040, %rbx             # imm = 0x7F8
	leaq	rijndael_enc_fl_tab+6144(%rbx), %rdi
	movl	$768, %esi              # imm = 0x300
	movl	$769, %edx              # imm = 0x301
	movl	$8, %ecx
	callq	_KLoad1
	.loc	3 387 34 is_stmt 1      # aes.c:387:34
	xorq	rijndael_enc_fl_tab(,%r14,8), %r12
	movq	-176(%rbp), %rax        # 8-byte Reload
	xorq	rijndael_enc_fl_tab+2048(,%rax,8), %r12
	xorq	rijndael_enc_fl_tab+4096(%r13), %r12
	.loc	3 387 15 is_stmt 0      # aes.c:387:15
	xorq	rijndael_enc_fl_tab+6144(%rbx), %r12
	movl	$2, 48(%rsp)
	movl	$768, 40(%rsp)          # imm = 0x300
	movl	$3, 32(%rsp)
	movl	$765, 24(%rsp)          # imm = 0x2FD
	movl	$4, 16(%rsp)
	movl	$762, 8(%rsp)           # imm = 0x2FA
	movl	$4, (%rsp)
	movl	$770, %edi              # imm = 0x302
	movl	$14, %esi
	movl	$4, %edx
	movl	$757, %ecx              # imm = 0x2F5
	movl	$1, %r8d
	movl	$759, %r9d              # imm = 0x2F7
	callq	_KTimestamp6
	movl	$770, %edi              # imm = 0x302
	movl	$8, %edx
.Ltmp392:
	.loc	3 164 3 is_stmt 1       # aes.c:164:3
	leaq	-72(%rbp), %rsi
	callq	_KStore
	.loc	3 387 7                 # aes.c:387:7
.Ltmp393:
	movq	%r12, -72(%rbp)
	movq	-128(%rbp), %r14        # 8-byte Reload
	movq	-120(%rbp), %rbx        # 8-byte Reload
.Ltmp394:
	#DEBUG_VALUE: rijndael_enc_encrypt:cx <- RBX
	.loc	3 391 15                # aes.c:391:15
	leaq	320(%rbx,%r14,8), %rdi
	movl	$771, %esi              # imm = 0x303
	movl	$8, %edx
	callq	_KLoad0
	movq	320(%rbx,%r14,8), %r12
.Ltmp395:
	#DEBUG_VALUE: rijndael_enc_encrypt:cx <- [RBP+-120]
	movl	$772, %esi              # imm = 0x304
	movl	$8, %edx
	movq	%r15, %rdi
	callq	_KLoad0
	.loc	3 391 76 is_stmt 0      # aes.c:391:76
	movzbl	-96(%rbp), %r15d
	.loc	3 391 34                # aes.c:391:34
	leaq	rijndael_enc_fl_tab(,%r15,8), %rdi
	movl	$773, %esi              # imm = 0x305
	movl	$774, %edx              # imm = 0x306
	movl	$8, %ecx
	callq	_KLoad1
	movl	$775, %esi              # imm = 0x307
	movl	$8, %edx
	movq	-152(%rbp), %rdi        # 8-byte Reload
	callq	_KLoad0
	.loc	3 392 78 is_stmt 1      # aes.c:392:78
	movq	-88(%rbp), %rax
	.loc	3 392 34 is_stmt 0      # aes.c:392:34
	movzbl	%ah, %eax  # NOREX
	leaq	rijndael_enc_fl_tab+2048(,%rax,8), %rdi
	movq	%rax, %r14
	movl	$776, %esi              # imm = 0x308
	movl	$777, %edx              # imm = 0x309
	movl	$8, %ecx
	callq	_KLoad1
	movl	$778, %esi              # imm = 0x30A
	movl	$8, %edx
	movq	-136(%rbp), %rdi        # 8-byte Reload
	callq	_KLoad0
	.loc	3 393 78 is_stmt 1      # aes.c:393:78
	movq	-112(%rbp), %r13
	shrq	$13, %r13
	.loc	3 393 34 is_stmt 0      # aes.c:393:34
	andq	$2040, %r13             # imm = 0x7F8
	leaq	rijndael_enc_fl_tab+4096(%r13), %rdi
	movl	$779, %esi              # imm = 0x30B
	movl	$780, %edx              # imm = 0x30C
	movl	$8, %ecx
	callq	_KLoad1
	movl	$781, %esi              # imm = 0x30D
	movl	$8, %edx
	movq	-160(%rbp), %rdi        # 8-byte Reload
	callq	_KLoad0
	.loc	3 394 78 is_stmt 1      # aes.c:394:78
	movq	-104(%rbp), %rbx
	shrq	$21, %rbx
	.loc	3 394 34 is_stmt 0      # aes.c:394:34
	andq	$2040, %rbx             # imm = 0x7F8
	leaq	rijndael_enc_fl_tab+6144(%rbx), %rdi
	movl	$782, %esi              # imm = 0x30E
	movl	$783, %edx              # imm = 0x30F
	movl	$8, %ecx
	callq	_KLoad1
	.loc	3 391 34 is_stmt 1      # aes.c:391:34
	xorq	rijndael_enc_fl_tab(,%r15,8), %r12
	xorq	rijndael_enc_fl_tab+2048(,%r14,8), %r12
	xorq	rijndael_enc_fl_tab+4096(%r13), %r12
	.loc	3 391 15 is_stmt 0      # aes.c:391:15
	xorq	rijndael_enc_fl_tab+6144(%rbx), %r12
	movl	$2, 48(%rsp)
	movl	$782, 40(%rsp)          # imm = 0x30E
	movl	$3, 32(%rsp)
	movl	$779, 24(%rsp)          # imm = 0x30B
	movl	$4, 16(%rsp)
	movl	$776, 8(%rsp)           # imm = 0x308
	movl	$4, (%rsp)
	movl	$784, %edi              # imm = 0x310
	movl	$14, %esi
	movl	$4, %edx
	movl	$771, %ecx              # imm = 0x303
	movl	$1, %r8d
	movl	$773, %r9d              # imm = 0x305
	callq	_KTimestamp6
	movl	$784, %edi              # imm = 0x310
	movl	$8, %edx
.Ltmp396:
	.loc	3 165 3 is_stmt 1       # aes.c:165:3
	leaq	-64(%rbp), %rsi
	callq	_KStore
	.loc	3 391 7                 # aes.c:391:7
.Ltmp397:
	movq	%r12, -64(%rbp)
	movq	-120(%rbp), %r15        # 8-byte Reload
.Ltmp398:
	#DEBUG_VALUE: rijndael_enc_encrypt:cx <- R15
	movq	-128(%rbp), %rbx        # 8-byte Reload
	.loc	3 395 15                # aes.c:395:15
	leaq	328(%r15,%rbx,8), %rdi
	movl	$785, %esi              # imm = 0x311
	movl	$8, %edx
	callq	_KLoad0
	movq	328(%r15,%rbx,8), %r15
.Ltmp399:
	movl	$786, %esi              # imm = 0x312
	movl	$8, %edx
	movq	-152(%rbp), %rdi        # 8-byte Reload
	callq	_KLoad0
	.loc	3 395 76 is_stmt 0      # aes.c:395:76
	movzbl	-88(%rbp), %r14d
	.loc	3 395 34                # aes.c:395:34
	leaq	rijndael_enc_fl_tab(,%r14,8), %rdi
	movl	$787, %esi              # imm = 0x313
	movl	$788, %edx              # imm = 0x314
	movl	$8, %ecx
	callq	_KLoad1
	movl	$789, %esi              # imm = 0x315
	movl	$8, %edx
	movq	-136(%rbp), %rdi        # 8-byte Reload
	callq	_KLoad0
	.loc	3 396 78 is_stmt 1      # aes.c:396:78
	movq	-112(%rbp), %rax
	.loc	3 396 34 is_stmt 0      # aes.c:396:34
	movzbl	%ah, %eax  # NOREX
	leaq	rijndael_enc_fl_tab+2048(,%rax,8), %rdi
	movq	%rax, %r13
	movl	$790, %esi              # imm = 0x316
	movl	$791, %edx              # imm = 0x317
	movl	$8, %ecx
	callq	_KLoad1
	movl	$792, %esi              # imm = 0x318
	movl	$8, %edx
	movq	-160(%rbp), %rdi        # 8-byte Reload
	callq	_KLoad0
	.loc	3 397 78 is_stmt 1      # aes.c:397:78
	movq	-104(%rbp), %r12
	shrq	$13, %r12
	.loc	3 397 34 is_stmt 0      # aes.c:397:34
	andq	$2040, %r12             # imm = 0x7F8
	leaq	rijndael_enc_fl_tab+4096(%r12), %rdi
	movl	$793, %esi              # imm = 0x319
	movl	$794, %edx              # imm = 0x31A
	movl	$8, %ecx
	callq	_KLoad1
	movl	$795, %esi              # imm = 0x31B
	movl	$8, %edx
	movq	-144(%rbp), %rdi        # 8-byte Reload
	callq	_KLoad0
	.loc	3 398 78 is_stmt 1      # aes.c:398:78
	movq	-96(%rbp), %rbx
	shrq	$21, %rbx
	.loc	3 398 34 is_stmt 0      # aes.c:398:34
	andq	$2040, %rbx             # imm = 0x7F8
	leaq	rijndael_enc_fl_tab+6144(%rbx), %rdi
	movl	$796, %esi              # imm = 0x31C
	movl	$797, %edx              # imm = 0x31D
	movl	$8, %ecx
	callq	_KLoad1
	.loc	3 395 34 is_stmt 1      # aes.c:395:34
	xorq	rijndael_enc_fl_tab(,%r14,8), %r15
	xorq	rijndael_enc_fl_tab+2048(,%r13,8), %r15
	xorq	rijndael_enc_fl_tab+4096(%r12), %r15
	.loc	3 395 15 is_stmt 0      # aes.c:395:15
	xorq	rijndael_enc_fl_tab+6144(%rbx), %r15
	movl	$2, 48(%rsp)
	movl	$796, 40(%rsp)          # imm = 0x31C
	movl	$3, 32(%rsp)
	movl	$793, 24(%rsp)          # imm = 0x319
	movl	$4, 16(%rsp)
	movl	$790, 8(%rsp)           # imm = 0x316
	movl	$4, (%rsp)
	movl	$798, %edi              # imm = 0x31E
	movl	$14, %esi
	movl	$4, %edx
	movl	$785, %ecx              # imm = 0x311
	movl	$1, %r8d
	movl	$787, %r9d              # imm = 0x313
	callq	_KTimestamp6
	movl	$798, %edi              # imm = 0x31E
	movl	$8, %edx
.Ltmp400:
	.loc	3 166 3 is_stmt 1       # aes.c:166:3
	leaq	-56(%rbp), %rbx
	movq	%rbx, %rsi
	callq	_KStore
	.loc	3 395 7                 # aes.c:395:7
.Ltmp401:
	movq	%r15, -56(%rbp)
	callq	_KPopCDep
	movabsq	$4580984437354237923, %r13 # imm = 0x3F92ED131E178FE3
	movq	%rbx, %r12
.Ltmp402:
.LBB1_10:                               # %sw.epilog
	#DEBUG_VALUE: rijndael_enc_encrypt:out_blk <- [RBP+-168]
	#DEBUG_VALUE: rijndael_enc_encrypt:b0 <- [RBP+-80]
	#DEBUG_VALUE: rijndael_enc_encrypt:b1 <- [RBP+-112]
	movl	$808, %edi              # imm = 0x328
	callq	_KPushCDep
	movl	$20, %edi
	callq	_KWork
	leaq	-80(%rbp), %rdi
	movl	$799, %esi              # imm = 0x31F
	movl	$8, %edx
	callq	_KLoad0
	.loc	3 400 35                # aes.c:400:35
	movq	-80(%rbp), %r14
	movl	$799, %edi              # imm = 0x31F
	movl	$799, %esi              # imm = 0x31F
	xorl	%edx, %edx
	callq	_KTimestamp1
	movl	$799, %edi              # imm = 0x31F
	movl	$8, %edx
	movq	-168(%rbp), %rbx        # 8-byte Reload
.Ltmp403:
	#DEBUG_VALUE: rijndael_enc_encrypt:out_blk <- RBX
	movq	%rbx, %rsi
	callq	_KStore
	.loc	3 400 3 is_stmt 0       # aes.c:400:3
	movq	%r14, (%rbx)
	movl	$800, %esi              # imm = 0x320
	movl	$8, %edx
	.loc	3 164 3 is_stmt 1       # aes.c:164:3
	leaq	-72(%rbp), %rdi
	callq	_KLoad0
	.loc	3 401 43                # aes.c:401:43
	movq	-72(%rbp), %r14
	.loc	3 401 25 is_stmt 0      # aes.c:401:25
	leaq	4(%rbx), %r15
	movl	$800, %edi              # imm = 0x320
	movl	$800, %esi              # imm = 0x320
	xorl	%edx, %edx
	callq	_KTimestamp1
	movl	$800, %edi              # imm = 0x320
	movl	$8, %edx
	movq	%r15, %rsi
	callq	_KStore
	.loc	3 401 3                 # aes.c:401:3
	movq	%r14, 4(%rbx)
	movl	$801, %esi              # imm = 0x321
	movl	$8, %edx
	.loc	3 165 3 is_stmt 1       # aes.c:165:3
	leaq	-64(%rbp), %rdi
	callq	_KLoad0
	.loc	3 402 43                # aes.c:402:43
	movq	-64(%rbp), %r14
	.loc	3 402 25 is_stmt 0      # aes.c:402:25
	leaq	8(%rbx), %r15
	movl	$801, %edi              # imm = 0x321
	movl	$801, %esi              # imm = 0x321
	xorl	%edx, %edx
	callq	_KTimestamp1
	movl	$801, %edi              # imm = 0x321
	movl	$8, %edx
	movq	%r15, %rsi
	callq	_KStore
	.loc	3 402 3                 # aes.c:402:3
	movq	%r14, 8(%rbx)
	movl	$802, %esi              # imm = 0x322
	movl	$8, %edx
	movq	%r12, %rdi
	callq	_KLoad0
	.loc	3 403 44 is_stmt 1      # aes.c:403:44
	movq	-56(%rbp), %r14
	.loc	3 403 25 is_stmt 0      # aes.c:403:25
	leaq	12(%rbx), %r15
	movl	$802, %edi              # imm = 0x322
	movl	$802, %esi              # imm = 0x322
	xorl	%edx, %edx
	callq	_KTimestamp1
	movl	$802, %edi              # imm = 0x322
	movl	$8, %edx
	movq	%r15, %rsi
	callq	_KStore
	.loc	3 403 3                 # aes.c:403:3
	movq	%r14, 12(%rbx)
	callq	_KPopCDep
	movw	$1, %bx
.Ltmp404:
.LBB1_11:                               # %return
	movl	$803, %edi              # imm = 0x323
	xorl	%esi, %esi
	movl	$808, %edx              # imm = 0x328
	callq	_KPhi1To1
	movl	$803, %edi              # imm = 0x323
	movl	$803, %esi              # imm = 0x323
	xorl	%edx, %edx
	callq	_KTimestamp1
	movl	$803, %edi              # imm = 0x323
	callq	_KReturn
	xorl	%esi, %esi
	movq	%r13, %rdi
	callq	_KExitRegion
	.loc	3 405 1 is_stmt 1       # aes.c:405:1
	movzwl	%bx, %eax
	addq	$264, %rsp              # imm = 0x108
	popq	%rbx
	popq	%r12
	popq	%r13
	popq	%r14
	popq	%r15
	popq	%rbp
	retq
.Ltmp405:
.Ltmp406:
	.size	rijndael_enc_encrypt, .Ltmp406-rijndael_enc_encrypt
.Lfunc_end1:
	.cfi_endproc

	.type	rijndael_enc_rcon_tab,@object # @rijndael_enc_rcon_tab
	.section	.rodata,"a",@progbits
	.globl	rijndael_enc_rcon_tab
	.align	16
rijndael_enc_rcon_tab:
	.quad	1                       # 0x1
	.quad	2                       # 0x2
	.quad	4                       # 0x4
	.quad	8                       # 0x8
	.quad	16                      # 0x10
	.quad	32                      # 0x20
	.quad	64                      # 0x40
	.quad	128                     # 0x80
	.quad	27                      # 0x1b
	.quad	54                      # 0x36
	.quad	108                     # 0x6c
	.quad	216                     # 0xd8
	.quad	171                     # 0xab
	.quad	77                      # 0x4d
	.quad	154                     # 0x9a
	.quad	47                      # 0x2f
	.quad	94                      # 0x5e
	.quad	188                     # 0xbc
	.quad	99                      # 0x63
	.quad	198                     # 0xc6
	.quad	151                     # 0x97
	.quad	53                      # 0x35
	.quad	106                     # 0x6a
	.quad	212                     # 0xd4
	.quad	179                     # 0xb3
	.quad	125                     # 0x7d
	.quad	250                     # 0xfa
	.quad	239                     # 0xef
	.quad	197                     # 0xc5
	.size	rijndael_enc_rcon_tab, 232

	.type	rijndael_enc_ft_tab,@object # @rijndael_enc_ft_tab
	.globl	rijndael_enc_ft_tab
	.align	16
rijndael_enc_ft_tab:
	.quad	2774754246              # 0xa56363c6
	.quad	2222750968              # 0x847c7cf8
	.quad	2574743534              # 0x997777ee
	.quad	2373680118              # 0x8d7b7bf6
	.quad	234025727               # 0xdf2f2ff
	.quad	3177933782              # 0xbd6b6bd6
	.quad	2976870366              # 0xb16f6fde
	.quad	1422247313              # 0x54c5c591
	.quad	1345335392              # 0x50303060
	.quad	50397442                # 0x3010102
	.quad	2842126286              # 0xa96767ce
	.quad	2099981142              # 0x7d2b2b56
	.quad	436141799               # 0x19fefee7
	.quad	1658312629              # 0x62d7d7b5
	.quad	3870010189              # 0xe6abab4d
	.quad	2591454956              # 0x9a7676ec
	.quad	1170918031              # 0x45caca8f
	.quad	2642575903              # 0x9d82821f
	.quad	1086966153              # 0x40c9c989
	.quad	2273148410              # 0x877d7dfa
	.quad	368769775               # 0x15fafaef
	.quad	3948501426              # 0xeb5959b2
	.quad	3376891790              # 0xc947478e
	.quad	200339707               # 0xbf0f0fb
	.quad	3970805057              # 0xecadad41
	.quad	1742001331              # 0x67d4d4b3
	.quad	4255294047              # 0xfda2a25f
	.quad	3937382213              # 0xeaafaf45
	.quad	3214711843              # 0xbf9c9c23
	.quad	4154762323              # 0xf7a4a453
	.quad	2524082916              # 0x967272e4
	.quad	1539358875              # 0x5bc0c09b
	.quad	3266819957              # 0xc2b7b775
	.quad	486407649               # 0x1cfdfde1
	.quad	2928907069              # 0xae93933d
	.quad	1780885068              # 0x6a26264c
	.quad	1513502316              # 0x5a36366c
	.quad	1094664062              # 0x413f3f7e
	.quad	49805301                # 0x2f7f7f5
	.quad	1338821763              # 0x4fcccc83
	.quad	1546925160              # 0x5c343468
	.quad	4104496465              # 0xf4a5a551
	.quad	887481809               # 0x34e5e5d1
	.quad	150073849               # 0x8f1f1f9
	.quad	2473685474              # 0x937171e2
	.quad	1943591083              # 0x73d8d8ab
	.quad	1395732834              # 0x53313162
	.quad	1058346282              # 0x3f15152a
	.quad	201589768               # 0xc040408
	.quad	1388824469              # 0x52c7c795
	.quad	1696801606              # 0x65232346
	.quad	1589887901              # 0x5ec3c39d
	.quad	672667696               # 0x28181830
	.quad	2711000631              # 0xa1969637
	.quad	251987210               # 0xf05050a
	.quad	3046808111              # 0xb59a9a2f
	.quad	151455502               # 0x907070e
	.quad	907153956               # 0x36121224
	.quad	2608889883              # 0x9b80801b
	.quad	1038279391              # 0x3de2e2df
	.quad	652995533               # 0x26ebebcd
	.quad	1764173646              # 0x6927274e
	.quad	3451040383              # 0xcdb2b27f
	.quad	2675275242              # 0x9f7575ea
	.quad	453576978               # 0x1b090912
	.quad	2659418909              # 0x9e83831d
	.quad	1949051992              # 0x742c2c58
	.quad	773462580               # 0x2e1a1a34
	.quad	756751158               # 0x2d1b1b36
	.quad	2993581788              # 0xb26e6edc
	.quad	3998898868              # 0xee5a5ab4
	.quad	4221608027              # 0xfba0a05b
	.quad	4132590244              # 0xf65252a4
	.quad	1295727478              # 0x4d3b3b76
	.quad	1641469623              # 0x61d6d6b7
	.quad	3467883389              # 0xceb3b37d
	.quad	2066295122              # 0x7b292952
	.quad	1055122397              # 0x3ee3e3dd
	.quad	1898917726              # 0x712f2f5e
	.quad	2542044179              # 0x97848413
	.quad	4115878822              # 0xf55353a6
	.quad	1758581177              # 0x68d1d1b9
	.quad	0                       # 0x0
	.quad	753790401               # 0x2cededc1
	.quad	1612718144              # 0x60202040
	.quad	536673507               # 0x1ffcfce3
	.quad	3367088505              # 0xc8b1b179
	.quad	3982187446              # 0xed5b5bb6
	.quad	3194645204              # 0xbe6a6ad4
	.quad	1187761037              # 0x46cbcb8d
	.quad	3653156455              # 0xd9bebe67
	.quad	1262041458              # 0x4b393972
	.quad	3729410708              # 0xde4a4a94
	.quad	3561770136              # 0xd44c4c98
	.quad	3898103984              # 0xe85858b0
	.quad	1255133061              # 0x4acfcf85
	.quad	1808847035              # 0x6bd0d0bb
	.quad	720367557               # 0x2aefefc5
	.quad	3853167183              # 0xe5aaaa4f
	.quad	385612781               # 0x16fbfbed
	.quad	3309519750              # 0xc5434386
	.quad	3612167578              # 0xd74d4d9a
	.quad	1429418854              # 0x55333366
	.quad	2491778321              # 0x94858511
	.quad	3477423498              # 0xcf45458a
	.quad	284817897               # 0x10f9f9e9
	.quad	100794884               # 0x6020204
	.quad	2172616702              # 0x817f7ffe
	.quad	4031795360              # 0xf05050a0
	.quad	1144798328              # 0x443c3c78
	.quad	3131023141              # 0xba9f9f25
	.quad	3819481163              # 0xe3a8a84b
	.quad	4082192802              # 0xf35151a2
	.quad	4272137053              # 0xfea3a35d
	.quad	3225436288              # 0xc0404080
	.quad	2324664069              # 0x8a8f8f05
	.quad	2912064063              # 0xad92923f
	.quad	3164445985              # 0xbc9d9d21
	.quad	1211644016              # 0x48383870
	.quad	83228145                # 0x4f5f5f1
	.quad	3753688163              # 0xdfbcbc63
	.quad	3249976951              # 0xc1b6b677
	.quad	1977277103              # 0x75dadaaf
	.quad	1663115586              # 0x63212142
	.quad	806359072               # 0x30101020
	.quad	452984805               # 0x1affffe5
	.quad	250868733               # 0xef3f3fd
	.quad	1842533055              # 0x6dd2d2bf
	.quad	1288555905              # 0x4ccdcd81
	.quad	336333848               # 0x140c0c18
	.quad	890442534               # 0x35131326
	.quad	804056259               # 0x2fececc3
	.quad	3781124030              # 0xe15f5fbe
	.quad	2727843637              # 0xa2979735
	.quad	3427026056              # 0xcc444488
	.quad	957814574               # 0x3917172e
	.quad	1472513171              # 0x57c4c493
	.quad	4071073621              # 0xf2a7a755
	.quad	2189328124              # 0x827e7efc
	.quad	1195195770              # 0x473d3d7a
	.quad	2892260552              # 0xac6464c8
	.quad	3881655738              # 0xe75d5dba
	.quad	723065138               # 0x2b191932
	.quad	2507371494              # 0x957373e6
	.quad	2690670784              # 0xa06060c0
	.quad	2558624025              # 0x98818119
	.quad	3511635870              # 0xd14f4f9e
	.quad	2145180835              # 0x7fdcdca3
	.quad	1713513028              # 0x66222244
	.quad	2116692564              # 0x7e2a2a54
	.quad	2878378043              # 0xab90903b
	.quad	2206763019              # 0x8388880b
	.quad	3393603212              # 0xca46468c
	.quad	703524551               # 0x29eeeec7
	.quad	3552098411              # 0xd3b8b86b
	.quad	1007948840              # 0x3c141428
	.quad	2044649127              # 0x79dedea7
	.quad	3797835452              # 0xe25e5ebc
	.quad	487262998               # 0x1d0b0b16
	.quad	1994120109              # 0x76dbdbad
	.quad	1004593371              # 0x3be0e0db
	.quad	1446130276              # 0x56323264
	.quad	1312438900              # 0x4e3a3a74
	.quad	503974420               # 0x1e0a0a14
	.quad	3679013266              # 0xdb494992
	.quad	168166924               # 0xa06060c
	.quad	1814307912              # 0x6c242448
	.quad	3831258296              # 0xe45c5cb8
	.quad	1573044895              # 0x5dc2c29f
	.quad	1859376061              # 0x6ed3d3bd
	.quad	4021070915              # 0xefacac43
	.quad	2791465668              # 0xa66262c4
	.quad	2828112185              # 0xa8919139
	.quad	2761266481              # 0xa4959531
	.quad	937747667               # 0x37e4e4d3
	.quad	2339994098              # 0x8b7979f2
	.quad	854058965               # 0x32e7e7d5
	.quad	1137232011              # 0x43c8c88b
	.quad	1496790894              # 0x5937376e
	.quad	3077402074              # 0xb76d6dda
	.quad	2358086913              # 0x8c8d8d01
	.quad	1691735473              # 0x64d5d5b1
	.quad	3528347292              # 0xd24e4e9c
	.quad	3769215305              # 0xe0a9a949
	.quad	3027004632              # 0xb46c6cd8
	.quad	4199962284              # 0xfa5656ac
	.quad	133494003               # 0x7f4f4f3
	.quad	636152527               # 0x25eaeacf
	.quad	2942657994              # 0xaf6565ca
	.quad	2390391540              # 0x8e7a7af4
	.quad	3920539207              # 0xe9aeae47
	.quad	403179536               # 0x18080810
	.quad	3585784431              # 0xd5baba6f
	.quad	2289596656              # 0x887878f0
	.quad	1864705354              # 0x6f25254a
	.quad	1915629148              # 0x722e2e5c
	.quad	605822008               # 0x241c1c38
	.quad	4054230615              # 0xf1a6a657
	.quad	3350508659              # 0xc7b4b473
	.quad	1371981463              # 0x51c6c697
	.quad	602466507               # 0x23e8e8cb
	.quad	2094914977              # 0x7cdddda1
	.quad	2624877800              # 0x9c7474e8
	.quad	555687742               # 0x211f1f3e
	.quad	3712699286              # 0xdd4b4b96
	.quad	3703422305              # 0xdcbdbd61
	.quad	2257292045              # 0x868b8b0d
	.quad	2240449039              # 0x858a8a0f
	.quad	2423288032              # 0x907070e0
	.quad	1111375484              # 0x423e3e7c
	.quad	3300242801              # 0xc4b5b571
	.quad	2858837708              # 0xaa6666cc
	.quad	3628615824              # 0xd8484890
	.quad	84083462                # 0x5030306
	.quad	32962295                # 0x1f6f6f7
	.quad	302911004               # 0x120e0e1c
	.quad	2741068226              # 0xa36161c2
	.quad	1597322602              # 0x5f35356a
	.quad	4183250862              # 0xf95757ae
	.quad	3501832553              # 0xd0b9b969
	.quad	2441512471              # 0x91868617
	.quad	1489093017              # 0x58c1c199
	.quad	656219450               # 0x271d1d3a
	.quad	3114180135              # 0xb99e9e27
	.quad	954327513               # 0x38e1e1d9
	.quad	335083755               # 0x13f8f8eb
	.quad	3013122091              # 0xb398982b
	.quad	856756514               # 0x33111122
	.quad	3144247762              # 0xbb6969d2
	.quad	1893325225              # 0x70d9d9a9
	.quad	2307821063              # 0x898e8e07
	.quad	2811532339              # 0xa7949433
	.quad	3063651117              # 0xb69b9b2d
	.quad	572399164               # 0x221e1e3c
	.quad	2458355477              # 0x92878715
	.quad	552200649               # 0x20e9e9c9
	.quad	1238290055              # 0x49cece87
	.quad	4283782570              # 0xff5555aa
	.quad	2015897680              # 0x78282850
	.quad	2061492133              # 0x7adfdfa5
	.quad	2408352771              # 0x8f8c8c03
	.quad	4171342169              # 0xf8a1a159
	.quad	2156497161              # 0x80898909
	.quad	386731290               # 0x170d0d1a
	.quad	3669999461              # 0xdabfbf65
	.quad	837215959               # 0x31e6e6d7
	.quad	3326231172              # 0xc6424284
	.quad	3093850320              # 0xb86868d0
	.quad	3275833730              # 0xc3414182
	.quad	2962856233              # 0xb0999929
	.quad	1999449434              # 0x772d2d5a
	.quad	286199582               # 0x110f0f1e
	.quad	3417354363              # 0xcbb0b07b
	.quad	4233385128              # 0xfc5454a8
	.quad	3602627437              # 0xd6bbbb6d
	.quad	974525996               # 0x3a16162c
	.quad	1667483301              # 0x6363c6a5
	.quad	2088564868              # 0x7c7cf884
	.quad	2004348569              # 0x7777ee99
	.quad	2071721613              # 0x7b7bf68d
	.quad	4076011277              # 0xf2f2ff0d
	.quad	1802229437              # 0x6b6bd6bd
	.quad	1869602481              # 0x6f6fdeb1
	.quad	3318059348              # 0xc5c59154
	.quad	808476752               # 0x30306050
	.quad	16843267                # 0x1010203
	.quad	1734856361              # 0x6767cea9
	.quad	724260477               # 0x2b2b567d
	.quad	4278118169              # 0xfefee719
	.quad	3621238114              # 0xd7d7b562
	.quad	2880130534              # 0xabab4de6
	.quad	1987505306              # 0x7676ec9a
	.quad	3402272581              # 0xcaca8f45
	.quad	2189565853              # 0x82821f9d
	.quad	3385428288              # 0xc9c98940
	.quad	2105408135              # 0x7d7dfa87
	.quad	4210749205              # 0xfafaef15
	.quad	1499050731              # 0x5959b2eb
	.quad	1195871945              # 0x47478ec9
	.quad	4042324747              # 0xf0f0fb0b
	.quad	2913812972              # 0xadad41ec
	.quad	3570709351              # 0xd4d4b367
	.quad	2728550397              # 0xa2a25ffd
	.quad	2947499498              # 0xafaf45ea
	.quad	2627478463              # 0x9c9c23bf
	.quad	2762232823              # 0xa4a453f7
	.quad	1920132246              # 0x7272e496
	.quad	3233848155              # 0xc0c09b5b
	.quad	3082253762              # 0xb7b775c2
	.quad	4261273884              # 0xfdfde11c
	.quad	2475900334              # 0x93933dae
	.quad	640044138               # 0x26264c6a
	.quad	909536346               # 0x36366c5a
	.quad	1061125697              # 0x3f3f7e41
	.quad	4160222466              # 0xf7f7f502
	.quad	3435955023              # 0xcccc834f
	.quad	875849820               # 0x3434685c
	.quad	2779075060              # 0xa5a551f4
	.quad	3857043764              # 0xe5e5d134
	.quad	4059166984              # 0xf1f1f908
	.quad	1903288979              # 0x7171e293
	.quad	3638078323              # 0xd8d8ab73
	.quad	825320019               # 0x31316253
	.quad	353708607               # 0x15152a3f
	.quad	67373068                # 0x404080c
	.quad	3351745874              # 0xc7c79552
	.quad	589514341               # 0x23234665
	.quad	3284376926              # 0xc3c39d5e
	.quad	404238376               # 0x18183028
	.quad	2526427041              # 0x969637a1
	.quad	84216335                # 0x5050a0f
	.quad	2593796021              # 0x9a9a2fb5
	.quad	117902857               # 0x7070e09
	.quad	303178806               # 0x12122436
	.quad	2155879323              # 0x80801b9b
	.quad	3806519101              # 0xe2e2df3d
	.quad	3958099238              # 0xebebcd26
	.quad	656887401               # 0x27274e69
	.quad	2998042573              # 0xb2b27fcd
	.quad	1970662047              # 0x7575ea9f
	.quad	151589403               # 0x909121b
	.quad	2206408094              # 0x83831d9e
	.quad	741103732               # 0x2c2c5874
	.quad	437924910               # 0x1a1a342e
	.quad	454768173               # 0x1b1b362d
	.quad	1852759218              # 0x6e6edcb2
	.quad	1515893998              # 0x5a5ab4ee
	.quad	2694863867              # 0xa0a05bfb
	.quad	1381147894              # 0x5252a4f6
	.quad	993752653               # 0x3b3b764d
	.quad	3604395873              # 0xd6d6b761
	.quad	3014884814              # 0xb3b37dce
	.quad	690573947               # 0x2929527b
	.quad	3823361342              # 0xe3e3dd3e
	.quad	791633521               # 0x2f2f5e71
	.quad	2223248279              # 0x84841397
	.quad	1397991157              # 0x5353a6f5
	.quad	3520182632              # 0xd1d1b968
	.quad	0                       # 0x0
	.quad	3991781676              # 0xededc12c
	.quad	538984544               # 0x20204060
	.quad	4244431647              # 0xfcfce31f
	.quad	2981198280              # 0xb1b179c8
	.quad	1532737261              # 0x5b5bb6ed
	.quad	1785386174              # 0x6a6ad4be
	.quad	3419114822              # 0xcbcb8d46
	.quad	3200149465              # 0xbebe67d9
	.quad	960066123               # 0x3939724b
	.quad	1246401758              # 0x4a4a94de
	.quad	1280088276              # 0x4c4c98d4
	.quad	1482207464              # 0x5858b0e8
	.quad	3486483786              # 0xcfcf854a
	.quad	3503340395              # 0xd0d0bb6b
	.quad	4025468202              # 0xefefc52a
	.quad	2863288293              # 0xaaaa4fe5
	.quad	4227591446              # 0xfbfbed16
	.quad	1128498885              # 0x434386c5
	.quad	1296931543              # 0x4d4d9ad7
	.quad	859006549               # 0x33336655
	.quad	2240090516              # 0x85851194
	.quad	1162185423              # 0x45458acf
	.quad	4193904912              # 0xf9f9e910
	.quad	33686534                # 0x2020406
	.quad	2139094657              # 0x7f7ffe81
	.quad	1347461360              # 0x5050a0f0
	.quad	1010595908              # 0x3c3c7844
	.quad	2678007226              # 0x9f9f25ba
	.quad	2829601763              # 0xa8a84be3
	.quad	1364304627              # 0x5151a2f3
	.quad	2745392638              # 0xa3a35dfe
	.quad	1077969088              # 0x404080c0
	.quad	2408514954              # 0x8f8f058a
	.quad	2459058093              # 0x92923fad
	.quad	2644320700              # 0x9d9d21bc
	.quad	943222856               # 0x38387048
	.quad	4126535940              # 0xf5f5f104
	.quad	3166462943              # 0xbcbc63df
	.quad	3065411521              # 0xb6b677c1
	.quad	3671764853              # 0xdadaaf75
	.quad	555827811               # 0x21214263
