	.text
	.file	"gsm_dec.simplifycfg.mem2reg.indvars.elimsinglephis.criticalpath.regioninstrument.renamemain.O3.bc"
	.text
	.globl	gsm_dec_sub
	.align	16, 0x90
	.type	gsm_dec_sub,@function
gsm_dec_sub:                            # @gsm_dec_sub
.Lfunc_begin0:
	.loc	4 118 0                 # gsm_dec.c:118:0
	.cfi_startproc
# BB#0:                                 # %entry
	pushq	%rbp
.Ltmp0:
	.cfi_def_cfa_offset 16
.Ltmp1:
	.cfi_offset %rbp, -16
	movq	%rsp, %rbp
.Ltmp2:
	.cfi_def_cfa_register %rbp
	pushq	%r15
	pushq	%r14
	pushq	%r12
	pushq	%rbx
.Ltmp3:
	.cfi_offset %rbx, -48
.Ltmp4:
	.cfi_offset %r12, -40
.Ltmp5:
	.cfi_offset %r14, -32
.Ltmp6:
	.cfi_offset %r15, -24
	#DEBUG_VALUE: gsm_dec_sub:a <- EDI
	#DEBUG_VALUE: gsm_dec_sub:b <- ESI
	movl	%esi, %r12d
.Ltmp7:
	#DEBUG_VALUE: gsm_dec_sub:b <- R12D
	movl	%edi, %ebx
.Ltmp8:
	#DEBUG_VALUE: gsm_dec_sub:a <- EBX
	movabsq	$2696913242470921316, %r14 # imm = 0x256D5C4E1F86B464
	xorl	%r15d, %r15d
	xorl	%esi, %esi
	movq	%r14, %rdi
	callq	_KEnterRegion
	movl	$7, %edi
	xorl	%esi, %esi
	callq	_KPrepRTable
	movl	$2, %edi
	callq	_KWork
	movl	$2, %edi
	callq	_KDeqArg
	movl	$1, %edi
	callq	_KDeqArg
	.loc	4 119 19 prologue_end   # gsm_dec.c:119:19
.Ltmp9:
	movslq	%ebx, %rbx
.Ltmp10:
	.loc	4 119 35 is_stmt 0      # gsm_dec.c:119:35
	movslq	%r12d, %rax
	.loc	4 119 19                # gsm_dec.c:119:19
	subq	%rax, %rbx
.Ltmp11:
	#DEBUG_VALUE: gsm_dec_sub:diff <- RBX
	movl	$6, %edi
	movl	$1, %esi
	movl	$2, %edx
	movl	$2, %ecx
	movl	$2, %r8d
	callq	_KTimestamp2
	.loc	4 120 10 is_stmt 1      # gsm_dec.c:120:10
	cmpq	$-32768, %rbx           # imm = 0xFFFFFFFFFFFF8000
	movw	$-32768, %r12w          # imm = 0xFFFFFFFFFFFF8000
.Ltmp12:
	jl	.LBB0_2
.Ltmp13:
# BB#1:                                 # %cond.false
	#DEBUG_VALUE: gsm_dec_sub:diff <- RBX
	movl	$6, %edi
	callq	_KPushCDep
	movl	$1, %edi
	callq	_KWork
	movl	$5, %r15d
	movl	$5, %edi
	movl	$1, %esi
	movl	$3, %edx
	movl	$2, %ecx
	movl	$3, %r8d
	callq	_KTimestamp2
	callq	_KPopCDep
	.loc	4 120 10 is_stmt 0 discriminator 2 # gsm_dec.c:120:10
	cmpq	$32767, %rbx            # imm = 0x7FFF
	movw	$32767, %r12w           # imm = 0x7FFF
	cmovlew	%bx, %r12w
.Ltmp14:
.LBB0_2:                                # %cond.end7
	movl	$4, %edi
	movl	$6, %edx
	movl	%r15d, %esi
	callq	_KPhi1To1
	movl	$3, %edi
	movl	$4, %esi
	xorl	%edx, %edx
	callq	_KTimestamp1
	movl	$3, %edi
	callq	_KReturn
	xorl	%esi, %esi
	movq	%r14, %rdi
	callq	_KExitRegion
	.loc	4 120 3                 # gsm_dec.c:120:3
	movswl	%r12w, %eax
	popq	%rbx
	popq	%r12
	popq	%r14
	popq	%r15
	popq	%rbp
	retq
.Ltmp15:
.Ltmp16:
	.size	gsm_dec_sub, .Ltmp16-gsm_dec_sub
.Lfunc_end0:
	.cfi_endproc

	.globl	gsm_dec_asl
	.align	16, 0x90
	.type	gsm_dec_asl,@function
gsm_dec_asl:                            # @gsm_dec_asl
.Lfunc_begin1:
	.loc	4 124 0 is_stmt 1       # gsm_dec.c:124:0
	.cfi_startproc
# BB#0:                                 # %entry
	pushq	%rbp
.Ltmp17:
	.cfi_def_cfa_offset 16
.Ltmp18:
	.cfi_offset %rbp, -16
	movq	%rsp, %rbp
.Ltmp19:
	.cfi_def_cfa_register %rbp
	pushq	%r15
	pushq	%r14
	pushq	%r13
	pushq	%r12
	pushq	%rbx
	pushq	%rax
.Ltmp20:
	.cfi_offset %rbx, -56
.Ltmp21:
	.cfi_offset %r12, -48
.Ltmp22:
	.cfi_offset %r13, -40
.Ltmp23:
	.cfi_offset %r14, -32
.Ltmp24:
	.cfi_offset %r15, -24
	#DEBUG_VALUE: gsm_dec_asl:a <- EDI
	#DEBUG_VALUE: gsm_dec_asl:n <- ESI
	movl	%esi, %ebx
.Ltmp25:
	#DEBUG_VALUE: gsm_dec_asl:n <- EBX
	movl	%edi, %r15d
.Ltmp26:
	#DEBUG_VALUE: gsm_dec_asl:a <- R15D
	movabsq	$1330019819120941444, %rdi # imm = 0x12752DFA8EEED984
	xorl	%r14d, %r14d
	xorl	%esi, %esi
	callq	_KEnterRegion
	movl	$11, %edi
	xorl	%esi, %esi
	callq	_KPrepRTable
	movl	$2, %edi
	callq	_KDeqArg
	movl	$1, %edi
	callq	_KDeqArg
	movl	$1, %edi
	callq	_KWork
	movl	$10, %edi
	movl	$2, %esi
	movl	$1, %edx
	callq	_KTimestamp1
	movl	$10, %edi
	callq	_KPushCDep
	.loc	4 125 8 prologue_end    # gsm_dec.c:125:8
.Ltmp27:
	cmpl	$16, %ebx
	jl	.LBB1_2
.Ltmp28:
# BB#1:                                 # %if.then
	callq	_KPopCDep
	xorl	%r13d, %r13d
	xorl	%r12d, %r12d
	xorl	%r15d, %r15d
	jmp	.LBB1_8
.LBB1_2:                                # %if.end
.Ltmp29:
	#DEBUG_VALUE: gsm_dec_asl:a <- R15W
	#DEBUG_VALUE: gsm_dec_asl:n <- EBX
	movl	$1, %edi
	callq	_KWork
	movl	$9, %r14d
	movl	$9, %edi
	movl	$2, %esi
	movl	$2, %edx
	callq	_KTimestamp1
	callq	_KPopCDep
	movl	$9, %edi
	callq	_KPushCDep
	.loc	4 127 8                 # gsm_dec.c:127:8
	cmpl	$-16, %ebx
	jg	.LBB1_4
.Ltmp30:
# BB#3:                                 # %if.then2
	#DEBUG_VALUE: gsm_dec_asl:a <- R15W
	movl	$2, %edi
	callq	_KWork
	.loc	4 128 12                # gsm_dec.c:128:12
.Ltmp31:
	sarw	$15, %r15w
.Ltmp32:
	movl	$6, %r12d
	movl	$6, %edi
	movl	$1, %esi
	movl	$2, %edx
	movl	$2, %ecx
	movl	$4, %r8d
	callq	_KTimestamp2
	callq	_KPopCDep
	xorl	%r13d, %r13d
	jmp	.LBB1_8
.Ltmp33:
.LBB1_4:                                # %if.end6
	#DEBUG_VALUE: gsm_dec_asl:a <- R15W
	#DEBUG_VALUE: gsm_dec_asl:n <- EBX
	movl	$1, %edi
	callq	_KWork
	movl	$8, %r13d
	movl	$3, %r12d
	movl	$8, %edi
	movl	$2, %esi
	movl	$3, %edx
	callq	_KTimestamp1
	callq	_KPopCDep
	movl	$8, %edi
	callq	_KPushCDep
	movl	$1, %edi
	callq	_KWork
	.loc	4 129 8                 # gsm_dec.c:129:8
	testl	%ebx, %ebx
	js	.LBB1_5
.Ltmp34:
# BB#6:                                 # %if.end11
	#DEBUG_VALUE: gsm_dec_asl:a <- R15W
	#DEBUG_VALUE: gsm_dec_asl:n <- EBX
	.loc	4 131 10                # gsm_dec.c:131:10
	movswl	%r15w, %r15d
.Ltmp35:
	movb	%bl, %cl
	shll	%cl, %r15d
	movl	$7, %r12d
	movl	$7, %edi
	movl	$1, %esi
	movl	$1, %edx
	movl	$2, %ecx
	movl	$4, %r8d
	callq	_KTimestamp2
	jmp	.LBB1_7
.Ltmp36:
.LBB1_5:                                # %if.then9
	#DEBUG_VALUE: gsm_dec_asl:a <- R15W
	#DEBUG_VALUE: gsm_dec_asl:n <- EBX
	.loc	4 130 28                # gsm_dec.c:130:28
	negl	%ebx
.Ltmp37:
	movabsq	$6880372084632435257, %rdi # imm = 0x5F7BFDF50B07BA39
	xorl	%esi, %esi
	callq	_KPrepCall
	movl	$4, %edi
	movl	$2, %esi
	movl	$4, %edx
	callq	_KTimestamp1
	movl	$4, %edi
	callq	_KEnqArg
	movl	$1, %edi
	movl	$1, %esi
	xorl	%edx, %edx
	callq	_KTimestamp1
	movl	$1, %edi
	callq	_KEnqArg
	movl	$3, %edi
	callq	_KLinkReturn
	.loc	4 130 12 is_stmt 0      # gsm_dec.c:130:12
	movswl	%r15w, %edi
	movl	%ebx, %esi
	callq	gsm_dec_asr
	movw	%ax, %r15w
.Ltmp38:
	movl	$3, %edi
	movl	$3, %esi
	xorl	%edx, %edx
	callq	_KTimestamp1
.Ltmp39:
.LBB1_7:                                # %return
	callq	_KPopCDep
	movl	$9, %r14d
.LBB1_8:                                # %return
	movabsq	$1330019819120941444, %rbx # imm = 0x12752DFA8EEED984
	movl	$5, %edi
	movl	$10, %r8d
	movl	%r12d, %esi
	movl	%r13d, %edx
	movl	%r14d, %ecx
	callq	_KPhi3To1
	movl	$5, %edi
	movl	$5, %esi
	xorl	%edx, %edx
	callq	_KTimestamp1
	movl	$5, %edi
	callq	_KReturn
	xorl	%esi, %esi
	movq	%rbx, %rdi
	callq	_KExitRegion
	.loc	4 132 1 is_stmt 1       # gsm_dec.c:132:1
	movswl	%r15w, %eax
	addq	$8, %rsp
	popq	%rbx
	popq	%r12
	popq	%r13
	popq	%r14
	popq	%r15
	popq	%rbp
	retq
.Ltmp40:
.Ltmp41:
	.size	gsm_dec_asl, .Ltmp41-gsm_dec_asl
.Lfunc_end1:
	.cfi_endproc

	.globl	gsm_dec_asr
	.align	16, 0x90
	.type	gsm_dec_asr,@function
gsm_dec_asr:                            # @gsm_dec_asr
.Lfunc_begin2:
	.loc	4 420 0                 # gsm_dec.c:420:0
	.cfi_startproc
# BB#0:                                 # %entry
	pushq	%rbp
.Ltmp42:
	.cfi_def_cfa_offset 16
.Ltmp43:
	.cfi_offset %rbp, -16
	movq	%rsp, %rbp
.Ltmp44:
	.cfi_def_cfa_register %rbp
	pushq	%r15
	pushq	%r14
	pushq	%r13
	pushq	%r12
	pushq	%rbx
	pushq	%rax
.Ltmp45:
	.cfi_offset %rbx, -56
.Ltmp46:
	.cfi_offset %r12, -48
.Ltmp47:
	.cfi_offset %r13, -40
.Ltmp48:
	.cfi_offset %r14, -32
.Ltmp49:
	.cfi_offset %r15, -24
	#DEBUG_VALUE: gsm_dec_asr:a <- EDI
	#DEBUG_VALUE: gsm_dec_asr:n <- ESI
	movl	%esi, %r13d
.Ltmp50:
	#DEBUG_VALUE: gsm_dec_asr:n <- R13D
	movl	%edi, %r12d
.Ltmp51:
	#DEBUG_VALUE: gsm_dec_asr:a <- R12W
	movabsq	$-4301759538364501298, %r14 # imm = 0xC44D147DD6A2B2CE
	xorl	%r15d, %r15d
	xorl	%esi, %esi
	movq	%r14, %rdi
	callq	_KEnterRegion
	movl	$10, %edi
	xorl	%esi, %esi
	callq	_KPrepRTable
	movl	$1, %edi
	callq	_KWork
	movl	$2, %edi
	callq	_KDeqArg
	movl	$1, %edi
	callq	_KDeqArg
	movl	$9, %edi
	movl	$2, %esi
	movl	$1, %edx
	callq	_KTimestamp1
	movl	$9, %edi
	callq	_KPushCDep
	.loc	4 421 8 prologue_end    # gsm_dec.c:421:8
.Ltmp52:
	cmpl	$16, %r13d
	jl	.LBB2_2
.Ltmp53:
# BB#1:                                 # %if.then
	#DEBUG_VALUE: gsm_dec_asr:a <- R12W
	movl	$2, %edi
	callq	_KWork
	.loc	4 422 12                # gsm_dec.c:422:12
.Ltmp54:
	sarw	$15, %r12w
.Ltmp55:
	movl	$4, %r13d
	movl	$4, %edi
	movl	$2, %esi
	movl	$3, %edx
	movl	$1, %ecx
	movl	$2, %r8d
	callq	_KTimestamp2
	callq	_KPopCDep
	xorl	%ebx, %ebx
	jmp	.LBB2_8
.Ltmp56:
.LBB2_2:                                # %if.end
	#DEBUG_VALUE: gsm_dec_asr:a <- R12W
	#DEBUG_VALUE: gsm_dec_asr:n <- R13D
	movl	$1, %edi
	callq	_KWork
	movl	$8, %ebx
	movl	$8, %edi
	movl	$2, %esi
	movl	$2, %edx
	callq	_KTimestamp1
	callq	_KPopCDep
	movl	$8, %edi
	callq	_KPushCDep
	.loc	4 423 8                 # gsm_dec.c:423:8
	cmpl	$-16, %r13d
	jg	.LBB2_4
.Ltmp57:
# BB#3:                                 # %if.then6
	callq	_KPopCDep
	xorl	%r13d, %r13d
	xorl	%r15d, %r15d
	xorl	%r12d, %r12d
	jmp	.LBB2_8
.LBB2_4:                                # %if.end7
.Ltmp58:
	#DEBUG_VALUE: gsm_dec_asr:a <- R12W
	#DEBUG_VALUE: gsm_dec_asr:n <- R13D
	movl	$1, %edi
	callq	_KWork
	.loc	4 426 12                # gsm_dec.c:426:12
.Ltmp59:
	movswl	%r12w, %r12d
.Ltmp60:
	movl	$7, %r15d
	movl	$7, %edi
	movl	$2, %esi
	movl	$3, %edx
	callq	_KTimestamp1
	callq	_KPopCDep
	movl	$7, %edi
	callq	_KPushCDep
.Ltmp61:
	.loc	4 425 8                 # gsm_dec.c:425:8
	testl	%r13d, %r13d
	js	.LBB2_5
.Ltmp62:
# BB#6:                                 # %if.end14
	#DEBUG_VALUE: gsm_dec_asr:n <- R13D
	movl	$1, %edi
	callq	_KWork
	.loc	4 428 10                # gsm_dec.c:428:10
	movb	%r13b, %cl
	sarl	%cl, %r12d
	movl	$6, %r13d
.Ltmp63:
	movl	$6, %edi
	movl	$2, %esi
	movl	$4, %edx
	jmp	.LBB2_7
.LBB2_5:                                # %if.then10
.Ltmp64:
	#DEBUG_VALUE: gsm_dec_asr:n <- R13D
	movl	$2, %edi
	callq	_KWork
	.loc	4 426 17                # gsm_dec.c:426:17
.Ltmp65:
	negl	%r13d
.Ltmp66:
	.loc	4 426 12 is_stmt 0      # gsm_dec.c:426:12
	movb	%r13b, %cl
	shll	%cl, %r12d
	movl	$5, %r13d
	movl	$5, %edi
	movl	$2, %esi
	movl	$5, %edx
.Ltmp67:
.LBB2_7:                                # %return
	movl	$1, %ecx
	movl	$1, %r8d
	callq	_KTimestamp2
	callq	_KPopCDep
	movl	$8, %ebx
.LBB2_8:                                # %return
	movl	$3, %edi
	movl	$9, %r8d
	movl	%r13d, %esi
	movl	%r15d, %edx
	movl	%ebx, %ecx
	callq	_KPhi3To1
	movl	$3, %edi
	movl	$3, %esi
	xorl	%edx, %edx
	callq	_KTimestamp1
	movl	$3, %edi
	callq	_KReturn
	xorl	%esi, %esi
	movq	%r14, %rdi
	callq	_KExitRegion
	.loc	4 429 1 is_stmt 1       # gsm_dec.c:429:1
	movswl	%r12w, %eax
	addq	$8, %rsp
	popq	%rbx
	popq	%r12
	popq	%r13
	popq	%r14
	popq	%r15
	popq	%rbp
	retq
.Ltmp68:
.Ltmp69:
	.size	gsm_dec_asr, .Ltmp69-gsm_dec_asr
.Lfunc_end2:
	.cfi_endproc

	.globl	gsm_dec_Decoding_of_the_coded_Log_Area_Ratios
	.align	16, 0x90
	.type	gsm_dec_Decoding_of_the_coded_Log_Area_Ratios,@function
gsm_dec_Decoding_of_the_coded_Log_Area_Ratios: # @gsm_dec_Decoding_of_the_coded_Log_Area_Ratios
.Lfunc_begin3:
	.loc	4 144 0                 # gsm_dec.c:144:0
	.cfi_startproc
# BB#0:                                 # %entry
	pushq	%rbp
.Ltmp70:
	.cfi_def_cfa_offset 16
.Ltmp71:
	.cfi_offset %rbp, -16
	movq	%rsp, %rbp
.Ltmp72:
	.cfi_def_cfa_register %rbp
	pushq	%r15
	pushq	%r14
	pushq	%r13
	pushq	%r12
	pushq	%rbx
	subq	$24, %rsp
.Ltmp73:
	.cfi_offset %rbx, -56
.Ltmp74:
	.cfi_offset %r12, -48
.Ltmp75:
	.cfi_offset %r13, -40
.Ltmp76:
	.cfi_offset %r14, -32
.Ltmp77:
	.cfi_offset %r15, -24
	#DEBUG_VALUE: gsm_dec_Decoding_of_the_coded_Log_Area_Ratios:LARc <- RDI
	#DEBUG_VALUE: gsm_dec_Decoding_of_the_coded_Log_Area_Ratios:LARpp <- RSI
	movq	%rsi, %r13
.Ltmp78:
	#DEBUG_VALUE: gsm_dec_Decoding_of_the_coded_Log_Area_Ratios:LARpp <- R13
	movq	%rdi, %rbx
.Ltmp79:
	#DEBUG_VALUE: gsm_dec_Decoding_of_the_coded_Log_Area_Ratios:LARc <- RBX
	movq	%rbx, -56(%rbp)         # 8-byte Spill
	movabsq	$-4758718536076780900, %rdi # imm = 0xBDF5A2B447139A9C
	xorl	%esi, %esi
	callq	_KEnterRegion
	movl	$105, %edi
	xorl	%esi, %esi
	callq	_KPrepRTable
	movl	$7, %edi
	callq	_KWork
	movl	$1, %esi
	movl	$2, %edx
	movq	%rbx, %rdi
	callq	_KLoad0
	.loc	4 176 3 prologue_end    # gsm_dec.c:176:3
.Ltmp80:
	movswq	(%rbx), %r14
.Ltmp81:
	#DEBUG_VALUE: gsm_dec_Decoding_of_the_coded_Log_Area_Ratios:LARc <- [RBP+-56]
	leaq	32736(%r14), %rbx
	movl	$28, %edi
	movl	$1, %esi
	movl	$3, %edx
	callq	_KTimestamp1
	movl	$27, %r15d
	movl	$27, %edi
	movl	$1, %esi
	movl	$1, %edx
	callq	_KTimestamp1
	cmpq	$65536, %rbx            # imm = 0x10000
	jb	.LBB3_1
.Ltmp82:
# BB#2:                                 # %cond.true
	#DEBUG_VALUE: gsm_dec_Decoding_of_the_coded_Log_Area_Ratios:LARc <- [RBP+-56]
	#DEBUG_VALUE: gsm_dec_Decoding_of_the_coded_Log_Area_Ratios:LARpp <- R13
	movl	$28, %edi
	callq	_KPushCDep
	movl	$1, %edi
	callq	_KWork
	.loc	4 176 3 is_stmt 0 discriminator 1 # gsm_dec.c:176:3
	movswl	%r14w, %eax
	cmpl	$32, %eax
	movl	$32767, %eax            # imm = 0x7FFF
	movq	$-32768, %r14           # imm = 0xFFFFFFFFFFFF8000
	cmovgq	%rax, %r14
	movl	$26, %r15d
	movl	$26, %edi
	movl	$1, %esi
	movl	$4, %edx
	callq	_KTimestamp1
	callq	_KPopCDep
	jmp	.LBB3_3
.Ltmp83:
.LBB3_1:
	#DEBUG_VALUE: gsm_dec_Decoding_of_the_coded_Log_Area_Ratios:LARc <- [RBP+-56]
	#DEBUG_VALUE: gsm_dec_Decoding_of_the_coded_Log_Area_Ratios:LARpp <- R13
	.loc	4 176 3                 # gsm_dec.c:176:3
	addq	$-32, %r14
.Ltmp84:
	#DEBUG_VALUE: gsm_dec_Decoding_of_the_coded_Log_Area_Ratios:ltmp <- R14
.LBB3_3:                                # %cond.end
	#DEBUG_VALUE: gsm_dec_Decoding_of_the_coded_Log_Area_Ratios:LARc <- [RBP+-56]
	#DEBUG_VALUE: gsm_dec_Decoding_of_the_coded_Log_Area_Ratios:LARpp <- R13
	movq	-56(%rbp), %rax         # 8-byte Reload
	leaq	2(%rax), %r12
.Ltmp85:
	#DEBUG_VALUE: gsm_dec_Decoding_of_the_coded_Log_Area_Ratios:LARc <- R12
	movl	$25, %edi
	movl	$28, %edx
	movl	%r15d, %esi
	callq	_KPhi1To1
	movl	$3, %edi
	callq	_KWork
	.loc	4 176 3 discriminator 4 # gsm_dec.c:176:3
.Ltmp86:
	shlq	$58, %r14
	movl	$31, %edi
	movl	$25, %esi
	movl	$3, %edx
	callq	_KTimestamp1
	movq	%r14, %rbx
	sarq	$48, %rbx
.Ltmp87:
	#DEBUG_VALUE: gsm_dec_Decoding_of_the_coded_Log_Area_Ratios:ltmp <- RBX
	movl	$31, %edi
	callq	_KPushCDep
	movl	$1, %edi
	callq	_KWork
	movl	$30, %edi
	movl	$25, %esi
	movl	$4, %edx
	callq	_KTimestamp1
	callq	_KPopCDep
	movl	$29, %edi
	movl	$30, %esi
	movl	$31, %edx
	callq	_KPhi1To1
	movl	$7, %edi
	callq	_KWork
	movabsq	$112588272697344, %rax  # imm = 0x666600000000
.Ltmp88:
	.loc	4 176 3 discriminator 12 # gsm_dec.c:176:3
	imulq	%rax, %rbx
.Ltmp89:
	movabsq	$140737488355328, %rax  # imm = 0x800000000000
	addq	%rax, %rbx
	sarq	$48, %rbx
	movabsq	$-9223090561878065152, %rax # imm = 0x8001000000000000
.Ltmp90:
	.loc	4 176 3 discriminator 6 # gsm_dec.c:176:3
	cmpq	%rax, %r14
	movq	$-13107, %r15           # imm = 0xFFFFFFFFFFFFCCCD
	.loc	4 176 3 discriminator 12 # gsm_dec.c:176:3
.Ltmp91:
	cmovgeq	%rbx, %r15
	leaq	32768(%r15,%r15), %rbx
	movl	$34, %edi
	movl	$29, %esi
	movl	$7, %edx
	callq	_KTimestamp1
	movl	$33, %r14d
	movl	$33, %edi
	movl	$29, %esi
	movl	$5, %edx
	callq	_KTimestamp1
	cmpq	$65536, %rbx            # imm = 0x10000
	jb	.LBB3_4
.Ltmp92:
# BB#5:                                 # %cond.true31
	#DEBUG_VALUE: gsm_dec_Decoding_of_the_coded_Log_Area_Ratios:LARc <- R12
	#DEBUG_VALUE: gsm_dec_Decoding_of_the_coded_Log_Area_Ratios:LARpp <- R13
	movl	$34, %edi
	callq	_KPushCDep
	movl	$1, %edi
	callq	_KWork
	.loc	4 176 3 discriminator 13 # gsm_dec.c:176:3
	testq	%r15, %r15
	movl	$32767, %eax            # imm = 0x7FFF
	movq	$-32768, %r15           # imm = 0xFFFFFFFFFFFF8000
	cmovgq	%rax, %r15
	movl	$32, %r14d
	movl	$32, %edi
	movl	$29, %esi
	movl	$8, %edx
	callq	_KTimestamp1
	callq	_KPopCDep
	jmp	.LBB3_6
.Ltmp93:
.LBB3_4:
	#DEBUG_VALUE: gsm_dec_Decoding_of_the_coded_Log_Area_Ratios:LARc <- R12
	#DEBUG_VALUE: gsm_dec_Decoding_of_the_coded_Log_Area_Ratios:LARpp <- R13
	.loc	4 176 3 discriminator 12 # gsm_dec.c:176:3
	addq	%r15, %r15
.Ltmp94:
	#DEBUG_VALUE: gsm_dec_Decoding_of_the_coded_Log_Area_Ratios:ltmp <- R15
.LBB3_6:                                # %cond.end37
	#DEBUG_VALUE: gsm_dec_Decoding_of_the_coded_Log_Area_Ratios:LARc <- R12
	#DEBUG_VALUE: gsm_dec_Decoding_of_the_coded_Log_Area_Ratios:LARpp <- R13
	movl	$3, %edi
	movl	$34, %edx
	movl	%r14d, %esi
	callq	_KPhi1To1
	movl	$8, %edi
	callq	_KWork
	movl	$2, %edi
	movl	$3, %esi
	xorl	%edx, %edx
	callq	_KTimestamp1
	movl	$2, %edi
	movl	$2, %edx
	movq	%r13, %rbx
.Ltmp95:
	#DEBUG_VALUE: gsm_dec_Decoding_of_the_coded_Log_Area_Ratios:LARpp <- RBX
	movq	%rbx, -48(%rbp)         # 8-byte Spill
	movq	%rbx, %rsi
	callq	_KStore
	.loc	4 176 3 discriminator 16 # gsm_dec.c:176:3
.Ltmp96:
	movw	%r15w, (%rbx)
.Ltmp97:
	#DEBUG_VALUE: gsm_dec_Decoding_of_the_coded_Log_Area_Ratios:LARpp <- [RBP+-48]
	movl	$4, %esi
	movl	$2, %edx
	movq	%r12, %rdi
	callq	_KLoad0
.Ltmp98:
	.loc	4 177 3 is_stmt 1       # gsm_dec.c:177:3
	movq	-56(%rbp), %rax         # 8-byte Reload
	movswq	2(%rax), %r14
	leaq	32736(%r14), %rbx
	movl	$38, %edi
	movl	$4, %esi
	movl	$3, %edx
	callq	_KTimestamp1
	movl	$37, %r13d
	movl	$37, %edi
	movl	$4, %esi
	movl	$1, %edx
	callq	_KTimestamp1
	cmpq	$65536, %rbx            # imm = 0x10000
	jb	.LBB3_7
.Ltmp99:
# BB#8:                                 # %cond.true47
	#DEBUG_VALUE: gsm_dec_Decoding_of_the_coded_Log_Area_Ratios:LARpp <- [RBP+-48]
	movl	$38, %edi
	callq	_KPushCDep
	movl	$1, %edi
	callq	_KWork
	.loc	4 177 3 is_stmt 0 discriminator 1 # gsm_dec.c:177:3
	movswl	%r14w, %eax
	cmpl	$32, %eax
	movl	$32767, %eax            # imm = 0x7FFF
	movq	$-32768, %r14           # imm = 0xFFFFFFFFFFFF8000
	cmovgq	%rax, %r14
	movl	$36, %r13d
	movl	$36, %edi
	movl	$4, %esi
	movl	$4, %edx
	callq	_KTimestamp1
	callq	_KPopCDep
	jmp	.LBB3_9
.LBB3_7:
	#DEBUG_VALUE: gsm_dec_Decoding_of_the_coded_Log_Area_Ratios:LARpp <- [RBP+-48]
	.loc	4 177 3                 # gsm_dec.c:177:3
	addq	$-32, %r14
.Ltmp100:
	#DEBUG_VALUE: gsm_dec_Decoding_of_the_coded_Log_Area_Ratios:ltmp <- R14
.LBB3_9:                                # %cond.end53
	#DEBUG_VALUE: gsm_dec_Decoding_of_the_coded_Log_Area_Ratios:LARpp <- [RBP+-48]
	.loc	4 176 3 is_stmt 1 discriminator 16 # gsm_dec.c:176:3
	movq	-48(%rbp), %rax         # 8-byte Reload
	leaq	2(%rax), %r15
.Ltmp101:
	#DEBUG_VALUE: gsm_dec_Decoding_of_the_coded_Log_Area_Ratios:LARpp <- R15
	.loc	4 177 3                 # gsm_dec.c:177:3
	movq	-56(%rbp), %rax         # 8-byte Reload
	leaq	4(%rax), %r12
.Ltmp102:
	#DEBUG_VALUE: gsm_dec_Decoding_of_the_coded_Log_Area_Ratios:LARc <- R12
	movl	$35, %edi
	movl	$38, %edx
	movl	%r13d, %esi
	callq	_KPhi1To1
	movl	$3, %edi
	callq	_KWork
	.loc	4 177 3 is_stmt 0 discriminator 4 # gsm_dec.c:177:3
.Ltmp103:
	shlq	$58, %r14
	movl	$41, %edi
	movl	$35, %esi
	movl	$3, %edx
	callq	_KTimestamp1
	movq	%r14, %rbx
	sarq	$48, %rbx
.Ltmp104:
	#DEBUG_VALUE: gsm_dec_Decoding_of_the_coded_Log_Area_Ratios:ltmp <- RBX
	movl	$41, %edi
	callq	_KPushCDep
	movl	$1, %edi
	callq	_KWork
	movl	$40, %edi
	movl	$35, %esi
	movl	$4, %edx
	callq	_KTimestamp1
	callq	_KPopCDep
	movl	$39, %edi
	movl	$40, %esi
	movl	$41, %edx
	callq	_KPhi1To1
	movl	$7, %edi
	callq	_KWork
	movabsq	$112588272697344, %rax  # imm = 0x666600000000
.Ltmp105:
	.loc	4 177 3 discriminator 12 # gsm_dec.c:177:3
	imulq	%rax, %rbx
.Ltmp106:
	movabsq	$140737488355328, %rax  # imm = 0x800000000000
	addq	%rax, %rbx
	sarq	$48, %rbx
	movabsq	$-9223090561878065152, %rax # imm = 0x8001000000000000
.Ltmp107:
	.loc	4 177 3 discriminator 6 # gsm_dec.c:177:3
	cmpq	%rax, %r14
	movq	$-13107, %r13           # imm = 0xFFFFFFFFFFFFCCCD
	.loc	4 177 3 discriminator 12 # gsm_dec.c:177:3
.Ltmp108:
	cmovgeq	%rbx, %r13
	leaq	32768(%r13,%r13), %rbx
	movl	$44, %edi
	movl	$39, %esi
	movl	$7, %edx
	callq	_KTimestamp1
	movl	$43, %r14d
	movl	$43, %edi
	movl	$39, %esi
	movl	$5, %edx
	callq	_KTimestamp1
	cmpq	$65536, %rbx            # imm = 0x10000
	jb	.LBB3_10
.Ltmp109:
# BB#11:                                # %cond.true83
	#DEBUG_VALUE: gsm_dec_Decoding_of_the_coded_Log_Area_Ratios:LARc <- R12
	#DEBUG_VALUE: gsm_dec_Decoding_of_the_coded_Log_Area_Ratios:LARpp <- R15
	movl	$44, %edi
	callq	_KPushCDep
	movl	$1, %edi
	callq	_KWork
	.loc	4 177 3 discriminator 13 # gsm_dec.c:177:3
	testq	%r13, %r13
	movl	$32767, %eax            # imm = 0x7FFF
	movq	$-32768, %r13           # imm = 0xFFFFFFFFFFFF8000
	cmovgq	%rax, %r13
	movl	$42, %r14d
	movl	$42, %edi
	movl	$39, %esi
	movl	$8, %edx
	callq	_KTimestamp1
	callq	_KPopCDep
	jmp	.LBB3_12
.Ltmp110:
.LBB3_10:
	#DEBUG_VALUE: gsm_dec_Decoding_of_the_coded_Log_Area_Ratios:LARc <- R12
	#DEBUG_VALUE: gsm_dec_Decoding_of_the_coded_Log_Area_Ratios:LARpp <- R15
	.loc	4 177 3 discriminator 12 # gsm_dec.c:177:3
	addq	%r13, %r13
.Ltmp111:
	#DEBUG_VALUE: gsm_dec_Decoding_of_the_coded_Log_Area_Ratios:ltmp <- R13
.LBB3_12:                               # %cond.end89
	#DEBUG_VALUE: gsm_dec_Decoding_of_the_coded_Log_Area_Ratios:LARc <- R12
	#DEBUG_VALUE: gsm_dec_Decoding_of_the_coded_Log_Area_Ratios:LARpp <- R15
	movl	$6, %edi
	movl	$44, %edx
	movl	%r14d, %esi
	callq	_KPhi1To1
	movl	$8, %edi
	callq	_KWork
	xorl	%r14d, %r14d
	movl	$5, %edi
	movl	$6, %esi
	xorl	%edx, %edx
	callq	_KTimestamp1
	movl	$5, %edi
	movl	$2, %edx
	movq	%r15, %rsi
	callq	_KStore
	.loc	4 177 3 discriminator 16 # gsm_dec.c:177:3
.Ltmp112:
	movq	-48(%rbp), %rax         # 8-byte Reload
	movw	%r13w, 2(%rax)
	movl	$7, %esi
	movl	$2, %edx
	movq	%r12, %rdi
	callq	_KLoad0
.Ltmp113:
	.loc	4 178 3 is_stmt 1       # gsm_dec.c:178:3
	movq	-56(%rbp), %rax         # 8-byte Reload
	movswq	4(%rax), %rbx
	leaq	32752(%rbx), %r12
.Ltmp114:
	movl	$48, %edi
	movl	$7, %esi
	movl	$3, %edx
	callq	_KTimestamp1
	movl	$47, %r15d
.Ltmp115:
	movl	$47, %edi
	movl	$7, %esi
	movl	$1, %edx
	callq	_KTimestamp1
	cmpq	$65536, %r12            # imm = 0x10000
	jb	.LBB3_13
# BB#14:                                # %cond.true99
	movl	$48, %edi
	callq	_KPushCDep
	movl	$1, %edi
	callq	_KWork
	.loc	4 178 3 is_stmt 0 discriminator 1 # gsm_dec.c:178:3
	movswl	%bx, %eax
	cmpl	$16, %eax
	movl	$32767, %eax            # imm = 0x7FFF
	movq	$-32768, %rbx           # imm = 0xFFFFFFFFFFFF8000
	cmovgq	%rax, %rbx
	movl	$46, %r15d
	movl	$46, %edi
	movl	$7, %esi
	movl	$4, %edx
	callq	_KTimestamp1
	callq	_KPopCDep
	jmp	.LBB3_15
.LBB3_13:
	.loc	4 178 3                 # gsm_dec.c:178:3
	addq	$-16, %rbx
.Ltmp116:
	#DEBUG_VALUE: gsm_dec_Decoding_of_the_coded_Log_Area_Ratios:ltmp <- RBX
.LBB3_15:                               # %cond.end105
	movl	$45, %edi
	movl	$48, %edx
	movl	%r15d, %esi
	callq	_KPhi1To1
	movl	$3, %edi
	callq	_KWork
	.loc	4 178 3 discriminator 4 # gsm_dec.c:178:3
.Ltmp117:
	shlq	$58, %rbx
	sarq	$48, %rbx
	addq	$-4096, %rbx            # imm = 0xFFFFFFFFFFFFF000
.Ltmp118:
	#DEBUG_VALUE: gsm_dec_Decoding_of_the_coded_Log_Area_Ratios:ltmp <- RBX
	movl	$51, %edi
	movl	$45, %esi
	movl	$3, %edx
	callq	_KTimestamp1
	cmpq	$32766, %rbx            # imm = 0x7FFE
	movl	$32767, %r13d           # imm = 0x7FFF
	jg	.LBB3_17
.Ltmp119:
# BB#16:                                # %cond.false114
	#DEBUG_VALUE: gsm_dec_Decoding_of_the_coded_Log_Area_Ratios:ltmp <- RBX
	movl	$51, %edi
	callq	_KPushCDep
	movl	$1, %edi
	callq	_KWork
	.loc	4 178 3 discriminator 6 # gsm_dec.c:178:3
	cmpq	$-32769, %rbx           # imm = 0xFFFFFFFFFFFF7FFF
	movq	$-32768, %r13           # imm = 0xFFFFFFFFFFFF8000
	cmovgq	%rbx, %r13
	movl	$50, %r14d
	movl	$50, %edi
	movl	$45, %esi
	movl	$4, %edx
	callq	_KTimestamp1
	callq	_KPopCDep
.Ltmp120:
.LBB3_17:                               # %cond.end121
	.loc	4 177 3 is_stmt 1 discriminator 16 # gsm_dec.c:177:3
	movq	-48(%rbp), %rax         # 8-byte Reload
	leaq	4(%rax), %r15
.Ltmp121:
	#DEBUG_VALUE: gsm_dec_Decoding_of_the_coded_Log_Area_Ratios:LARpp <- R15
	.loc	4 178 3                 # gsm_dec.c:178:3
	movq	-56(%rbp), %rax         # 8-byte Reload
	leaq	6(%rax), %r12
.Ltmp122:
	#DEBUG_VALUE: gsm_dec_Decoding_of_the_coded_Log_Area_Ratios:LARc <- R12
	movl	$49, %edi
	movl	$51, %edx
	movl	%r14d, %esi
	callq	_KPhi1To1
	movl	$7, %edi
	callq	_KWork
	.loc	4 178 3 is_stmt 0 discriminator 12 # gsm_dec.c:178:3
.Ltmp123:
	movswq	%r13w, %rbx
	movabsq	$112588272697344, %rax  # imm = 0x666600000000
	imulq	%rax, %rbx
	movabsq	$140737488355328, %rax  # imm = 0x800000000000
	addq	%rax, %rbx
	sarq	$48, %rbx
	leaq	32768(%rbx,%rbx), %r13
	movl	$54, %edi
	movl	$49, %esi
	movl	$7, %edx
	callq	_KTimestamp1
	movl	$53, %r14d
	movl	$53, %edi
	movl	$49, %esi
	movl	$5, %edx
	callq	_KTimestamp1
	cmpq	$65536, %r13            # imm = 0x10000
	jb	.LBB3_18
.Ltmp124:
# BB#19:                                # %cond.true135
	#DEBUG_VALUE: gsm_dec_Decoding_of_the_coded_Log_Area_Ratios:LARc <- R12
	#DEBUG_VALUE: gsm_dec_Decoding_of_the_coded_Log_Area_Ratios:LARpp <- R15
	movl	$54, %edi
	callq	_KPushCDep
	movl	$1, %edi
	callq	_KWork
	.loc	4 178 3 discriminator 13 # gsm_dec.c:178:3
	testq	%rbx, %rbx
	movl	$32767, %eax            # imm = 0x7FFF
	movq	$-32768, %rbx           # imm = 0xFFFFFFFFFFFF8000
	cmovgq	%rax, %rbx
	movl	$52, %r14d
	movl	$52, %edi
	movl	$49, %esi
	movl	$8, %edx
	callq	_KTimestamp1
	callq	_KPopCDep
	jmp	.LBB3_20
.Ltmp125:
.LBB3_18:
	#DEBUG_VALUE: gsm_dec_Decoding_of_the_coded_Log_Area_Ratios:LARc <- R12
	#DEBUG_VALUE: gsm_dec_Decoding_of_the_coded_Log_Area_Ratios:LARpp <- R15
	.loc	4 178 3 discriminator 12 # gsm_dec.c:178:3
	addq	%rbx, %rbx
.Ltmp126:
	#DEBUG_VALUE: gsm_dec_Decoding_of_the_coded_Log_Area_Ratios:ltmp <- RBX
.LBB3_20:                               # %cond.end141
	#DEBUG_VALUE: gsm_dec_Decoding_of_the_coded_Log_Area_Ratios:LARc <- R12
	#DEBUG_VALUE: gsm_dec_Decoding_of_the_coded_Log_Area_Ratios:LARpp <- R15
	movl	$9, %edi
	movl	$54, %edx
	movl	%r14d, %esi
	callq	_KPhi1To1
	movl	$8, %edi
	callq	_KWork
	xorl	%r14d, %r14d
	movl	$8, %edi
	movl	$9, %esi
	xorl	%edx, %edx
	callq	_KTimestamp1
	movl	$8, %edi
	movl	$2, %edx
	movq	%r15, %rsi
	callq	_KStore
	.loc	4 178 3 discriminator 16 # gsm_dec.c:178:3
.Ltmp127:
	movq	-48(%rbp), %rax         # 8-byte Reload
	movw	%bx, 4(%rax)
	movl	$10, %esi
	movl	$2, %edx
	movq	%r12, %rdi
	callq	_KLoad0
.Ltmp128:
	.loc	4 179 3 is_stmt 1       # gsm_dec.c:179:3
	movq	-56(%rbp), %rax         # 8-byte Reload
	movswq	6(%rax), %rbx
	leaq	32752(%rbx), %r12
.Ltmp129:
	movl	$58, %edi
	movl	$10, %esi
	movl	$3, %edx
	callq	_KTimestamp1
	movl	$57, %r15d
.Ltmp130:
	movl	$57, %edi
	movl	$10, %esi
	movl	$1, %edx
	callq	_KTimestamp1
	cmpq	$65536, %r12            # imm = 0x10000
	jb	.LBB3_21
# BB#22:                                # %cond.true151
	movl	$58, %edi
	callq	_KPushCDep
	movl	$1, %edi
	callq	_KWork
	.loc	4 179 3 is_stmt 0 discriminator 1 # gsm_dec.c:179:3
	movswl	%bx, %eax
	cmpl	$16, %eax
	movl	$32767, %eax            # imm = 0x7FFF
	movq	$-32768, %rbx           # imm = 0xFFFFFFFFFFFF8000
	cmovgq	%rax, %rbx
	movl	$56, %r15d
	movl	$56, %edi
	movl	$10, %esi
	movl	$4, %edx
	callq	_KTimestamp1
	callq	_KPopCDep
	jmp	.LBB3_23
.LBB3_21:
	.loc	4 179 3                 # gsm_dec.c:179:3
	addq	$-16, %rbx
.Ltmp131:
	#DEBUG_VALUE: gsm_dec_Decoding_of_the_coded_Log_Area_Ratios:ltmp <- RBX
.LBB3_23:                               # %cond.end157
	movl	$55, %edi
	movl	$58, %edx
	movl	%r15d, %esi
	callq	_KPhi1To1
	movl	$3, %edi
	callq	_KWork
	.loc	4 179 3 discriminator 4 # gsm_dec.c:179:3
.Ltmp132:
	shlq	$58, %rbx
	sarq	$48, %rbx
	addq	$-5120, %rbx            # imm = 0xFFFFFFFFFFFFEC00
.Ltmp133:
	#DEBUG_VALUE: gsm_dec_Decoding_of_the_coded_Log_Area_Ratios:ltmp <- RBX
	movl	$61, %edi
	movl	$55, %esi
	movl	$3, %edx
	callq	_KTimestamp1
	cmpq	$32766, %rbx            # imm = 0x7FFE
	movl	$26214, %r13d           # imm = 0x6666
	jg	.LBB3_25
.Ltmp134:
# BB#24:                                # %cond.false166
	#DEBUG_VALUE: gsm_dec_Decoding_of_the_coded_Log_Area_Ratios:ltmp <- RBX
	movl	$61, %edi
	callq	_KPushCDep
	movl	$1, %edi
	callq	_KWork
	movl	$60, %r14d
	movl	$60, %edi
	movl	$55, %esi
	movl	$4, %edx
	callq	_KTimestamp1
	callq	_KPopCDep
	.loc	4 179 3 discriminator 6 # gsm_dec.c:179:3
	movswq	%bx, %rax
	movabsq	$112588272697344, %rcx  # imm = 0x666600000000
	imulq	%rcx, %rax
	movabsq	$140737488355328, %rcx  # imm = 0x800000000000
	addq	%rcx, %rax
	sarq	$48, %rax
	addq	%rax, %rax
	cmpq	$-32768, %rbx           # imm = 0xFFFFFFFFFFFF8000
	movq	$-26214, %r13           # imm = 0xFFFFFFFFFFFF999A
	cmovgq	%rax, %r13
.Ltmp135:
.LBB3_25:                               # %cond.end173
	.loc	4 178 3 is_stmt 1 discriminator 16 # gsm_dec.c:178:3
	movq	-48(%rbp), %rax         # 8-byte Reload
	leaq	6(%rax), %r15
.Ltmp136:
	#DEBUG_VALUE: gsm_dec_Decoding_of_the_coded_Log_Area_Ratios:LARpp <- R15
	.loc	4 179 3                 # gsm_dec.c:179:3
	movq	-56(%rbp), %rax         # 8-byte Reload
	leaq	8(%rax), %r12
.Ltmp137:
	#DEBUG_VALUE: gsm_dec_Decoding_of_the_coded_Log_Area_Ratios:ltmp <- R13
	#DEBUG_VALUE: gsm_dec_Decoding_of_the_coded_Log_Area_Ratios:LARc <- R12
	movl	$59, %edi
	movl	$61, %edx
	movl	%r14d, %esi
	callq	_KPhi1To1
	movl	$7, %edi
	callq	_KWork
	.loc	4 179 3 is_stmt 0 discriminator 12 # gsm_dec.c:179:3
.Ltmp138:
	leaq	32768(%r13), %rbx
	movl	$64, %edi
	movl	$59, %esi
	movl	$7, %edx
	callq	_KTimestamp1
	movl	$63, %r14d
	movl	$63, %edi
	movl	$59, %esi
	movl	$5, %edx
	callq	_KTimestamp1
	cmpq	$65536, %rbx            # imm = 0x10000
	jb	.LBB3_27
.Ltmp139:
# BB#26:                                # %cond.true187
	#DEBUG_VALUE: gsm_dec_Decoding_of_the_coded_Log_Area_Ratios:LARc <- R12
	#DEBUG_VALUE: gsm_dec_Decoding_of_the_coded_Log_Area_Ratios:LARpp <- R15
	#DEBUG_VALUE: gsm_dec_Decoding_of_the_coded_Log_Area_Ratios:ltmp <- R13
	movl	$64, %edi
	callq	_KPushCDep
	movl	$1, %edi
	callq	_KWork
	.loc	4 179 3 discriminator 13 # gsm_dec.c:179:3
	testq	%r13, %r13
	movl	$32767, %eax            # imm = 0x7FFF
	movq	$-32768, %r13           # imm = 0xFFFFFFFFFFFF8000
.Ltmp140:
	cmovgq	%rax, %r13
	movl	$62, %r14d
	movl	$62, %edi
	movl	$59, %esi
	movl	$8, %edx
	callq	_KTimestamp1
	callq	_KPopCDep
.Ltmp141:
.LBB3_27:                               # %cond.end193
	#DEBUG_VALUE: gsm_dec_Decoding_of_the_coded_Log_Area_Ratios:LARc <- R12
	#DEBUG_VALUE: gsm_dec_Decoding_of_the_coded_Log_Area_Ratios:LARpp <- R15
	movl	$12, %edi
	movl	$64, %edx
	movl	%r14d, %esi
	callq	_KPhi1To1
	movl	$8, %edi
	callq	_KWork
	xorl	%r14d, %r14d
	movl	$11, %edi
	movl	$12, %esi
	xorl	%edx, %edx
	callq	_KTimestamp1
	movl	$11, %edi
	movl	$2, %edx
	movq	%r15, %rsi
	callq	_KStore
	.loc	4 179 3 discriminator 16 # gsm_dec.c:179:3
.Ltmp142:
	movq	-48(%rbp), %rax         # 8-byte Reload
	movw	%r13w, 6(%rax)
	movl	$13, %esi
	movl	$2, %edx
	movq	%r12, %rdi
	callq	_KLoad0
.Ltmp143:
	.loc	4 181 3 is_stmt 1       # gsm_dec.c:181:3
	movq	-56(%rbp), %rax         # 8-byte Reload
	movswq	8(%rax), %rbx
	leaq	32760(%rbx), %r12
.Ltmp144:
	movl	$68, %edi
	movl	$13, %esi
	movl	$3, %edx
	callq	_KTimestamp1
	movl	$67, %r15d
.Ltmp145:
	movl	$67, %edi
	movl	$13, %esi
	movl	$1, %edx
	callq	_KTimestamp1
	cmpq	$65536, %r12            # imm = 0x10000
	jb	.LBB3_28
# BB#29:                                # %cond.true203
	movl	$68, %edi
	callq	_KPushCDep
	movl	$1, %edi
	callq	_KWork
	.loc	4 181 3 is_stmt 0 discriminator 1 # gsm_dec.c:181:3
	movswl	%bx, %eax
	cmpl	$8, %eax
	movl	$32767, %eax            # imm = 0x7FFF
	movq	$-32768, %rbx           # imm = 0xFFFFFFFFFFFF8000
	cmovgq	%rax, %rbx
	movl	$66, %r15d
	movl	$66, %edi
	movl	$13, %esi
	movl	$4, %edx
	callq	_KTimestamp1
	callq	_KPopCDep
	jmp	.LBB3_30
.LBB3_28:
	.loc	4 181 3                 # gsm_dec.c:181:3
	addq	$-8, %rbx
.Ltmp146:
	#DEBUG_VALUE: gsm_dec_Decoding_of_the_coded_Log_Area_Ratios:ltmp <- RBX
.LBB3_30:                               # %cond.end209
	movl	$65, %edi
	movl	$68, %edx
	movl	%r15d, %esi
	callq	_KPhi1To1
	movl	$3, %edi
	callq	_KWork
	.loc	4 181 3 discriminator 4 # gsm_dec.c:181:3
.Ltmp147:
	shlq	$58, %rbx
	sarq	$48, %rbx
	addq	$-188, %rbx
.Ltmp148:
	#DEBUG_VALUE: gsm_dec_Decoding_of_the_coded_Log_Area_Ratios:ltmp <- RBX
	movl	$71, %edi
	movl	$65, %esi
	movl	$3, %edx
	callq	_KTimestamp1
	cmpq	$32766, %rbx            # imm = 0x7FFE
	movl	$38444, %r13d           # imm = 0x962C
	jg	.LBB3_32
.Ltmp149:
# BB#31:                                # %cond.false218
	#DEBUG_VALUE: gsm_dec_Decoding_of_the_coded_Log_Area_Ratios:ltmp <- RBX
	movl	$71, %edi
	callq	_KPushCDep
	movl	$1, %edi
	callq	_KWork
	movl	$70, %r14d
	movl	$70, %edi
	movl	$65, %esi
	movl	$4, %edx
	callq	_KTimestamp1
	callq	_KPopCDep
	.loc	4 181 3 discriminator 6 # gsm_dec.c:181:3
	movswq	%bx, %rax
	movabsq	$165124312662016, %rcx  # imm = 0x962E00000000
	imulq	%rax, %rcx
	movabsq	$140737488355328, %rax  # imm = 0x800000000000
	addq	%rax, %rcx
	sarq	$48, %rcx
	addq	%rcx, %rcx
	cmpq	$-32768, %rbx           # imm = 0xFFFFFFFFFFFF8000
	movq	$-38446, %r13           # imm = 0xFFFFFFFFFFFF69D2
	cmovgq	%rcx, %r13
.Ltmp150:
.LBB3_32:                               # %cond.end225
	.loc	4 179 3 is_stmt 1 discriminator 16 # gsm_dec.c:179:3
	movq	-48(%rbp), %rax         # 8-byte Reload
	leaq	8(%rax), %r15
.Ltmp151:
	#DEBUG_VALUE: gsm_dec_Decoding_of_the_coded_Log_Area_Ratios:LARpp <- R15
	.loc	4 181 3                 # gsm_dec.c:181:3
	movq	-56(%rbp), %rax         # 8-byte Reload
	leaq	10(%rax), %r12
.Ltmp152:
	#DEBUG_VALUE: gsm_dec_Decoding_of_the_coded_Log_Area_Ratios:ltmp <- R13
	#DEBUG_VALUE: gsm_dec_Decoding_of_the_coded_Log_Area_Ratios:LARc <- R12
	movl	$69, %edi
	movl	$71, %edx
	movl	%r14d, %esi
	callq	_KPhi1To1
	movl	$7, %edi
	callq	_KWork
	.loc	4 181 3 is_stmt 0 discriminator 12 # gsm_dec.c:181:3
.Ltmp153:
	leaq	32768(%r13), %rbx
	movl	$74, %edi
	movl	$69, %esi
	movl	$7, %edx
	callq	_KTimestamp1
	movl	$73, %r14d
	movl	$73, %edi
	movl	$69, %esi
	movl	$5, %edx
	callq	_KTimestamp1
	cmpq	$65536, %rbx            # imm = 0x10000
	jb	.LBB3_34
.Ltmp154:
# BB#33:                                # %cond.true239
	#DEBUG_VALUE: gsm_dec_Decoding_of_the_coded_Log_Area_Ratios:LARc <- R12
	#DEBUG_VALUE: gsm_dec_Decoding_of_the_coded_Log_Area_Ratios:LARpp <- R15
	#DEBUG_VALUE: gsm_dec_Decoding_of_the_coded_Log_Area_Ratios:ltmp <- R13
	movl	$74, %edi
	callq	_KPushCDep
	movl	$1, %edi
	callq	_KWork
	.loc	4 181 3 discriminator 13 # gsm_dec.c:181:3
	testq	%r13, %r13
	movl	$32767, %eax            # imm = 0x7FFF
	movq	$-32768, %r13           # imm = 0xFFFFFFFFFFFF8000
.Ltmp155:
	cmovgq	%rax, %r13
	movl	$72, %r14d
	movl	$72, %edi
	movl	$69, %esi
	movl	$8, %edx
	callq	_KTimestamp1
	callq	_KPopCDep
.Ltmp156:
.LBB3_34:                               # %cond.end245
	#DEBUG_VALUE: gsm_dec_Decoding_of_the_coded_Log_Area_Ratios:LARc <- R12
	#DEBUG_VALUE: gsm_dec_Decoding_of_the_coded_Log_Area_Ratios:LARpp <- R15
	movl	$15, %edi
	movl	$74, %edx
	movl	%r14d, %esi
	callq	_KPhi1To1
	movl	$8, %edi
	callq	_KWork
	xorl	%r14d, %r14d
	movl	$14, %edi
	movl	$15, %esi
	xorl	%edx, %edx
	callq	_KTimestamp1
	movl	$14, %edi
	movl	$2, %edx
	movq	%r15, %rsi
	callq	_KStore
	.loc	4 181 3 discriminator 16 # gsm_dec.c:181:3
.Ltmp157:
	movq	-48(%rbp), %rax         # 8-byte Reload
	movw	%r13w, 8(%rax)
	movl	$16, %esi
	movl	$2, %edx
	movq	%r12, %rdi
	callq	_KLoad0
.Ltmp158:
	.loc	4 182 3 is_stmt 1       # gsm_dec.c:182:3
	movq	-56(%rbp), %rax         # 8-byte Reload
	movswq	10(%rax), %rbx
	leaq	32760(%rbx), %r12
.Ltmp159:
	movl	$78, %edi
	movl	$16, %esi
	movl	$3, %edx
	callq	_KTimestamp1
	movl	$77, %r15d
.Ltmp160:
	movl	$77, %edi
	movl	$16, %esi
	movl	$1, %edx
	callq	_KTimestamp1
	cmpq	$65536, %r12            # imm = 0x10000
	jb	.LBB3_35
# BB#36:                                # %cond.true255
	movl	$78, %edi
	callq	_KPushCDep
	movl	$1, %edi
	callq	_KWork
	.loc	4 182 3 is_stmt 0 discriminator 1 # gsm_dec.c:182:3
	movswl	%bx, %eax
	cmpl	$8, %eax
	movl	$32767, %eax            # imm = 0x7FFF
	movq	$-32768, %rbx           # imm = 0xFFFFFFFFFFFF8000
	cmovgq	%rax, %rbx
	movl	$76, %r15d
	movl	$76, %edi
	movl	$16, %esi
	movl	$4, %edx
	callq	_KTimestamp1
	callq	_KPopCDep
	jmp	.LBB3_37
.LBB3_35:
	.loc	4 182 3                 # gsm_dec.c:182:3
	addq	$-8, %rbx
.Ltmp161:
	#DEBUG_VALUE: gsm_dec_Decoding_of_the_coded_Log_Area_Ratios:ltmp <- RBX
.LBB3_37:                               # %cond.end261
	movl	$75, %edi
	movl	$78, %edx
	movl	%r15d, %esi
	callq	_KPhi1To1
	movl	$3, %edi
	callq	_KWork
	.loc	4 182 3 discriminator 4 # gsm_dec.c:182:3
.Ltmp162:
	shlq	$58, %rbx
	sarq	$48, %rbx
	addq	$-3584, %rbx            # imm = 0xFFFFFFFFFFFFF200
.Ltmp163:
	#DEBUG_VALUE: gsm_dec_Decoding_of_the_coded_Log_Area_Ratios:ltmp <- RBX
	movl	$81, %edi
	movl	$75, %esi
	movl	$3, %edx
	callq	_KTimestamp1
	cmpq	$32766, %rbx            # imm = 0x7FFE
	movl	$34950, %r13d           # imm = 0x8886
	jg	.LBB3_39
.Ltmp164:
# BB#38:                                # %cond.false270
	#DEBUG_VALUE: gsm_dec_Decoding_of_the_coded_Log_Area_Ratios:ltmp <- RBX
	movl	$81, %edi
	callq	_KPushCDep
	movl	$1, %edi
	callq	_KWork
	movl	$80, %r14d
	movl	$80, %edi
	movl	$75, %esi
	movl	$4, %edx
	callq	_KTimestamp1
	callq	_KPopCDep
	.loc	4 182 3 discriminator 6 # gsm_dec.c:182:3
	movswq	%bx, %rax
	movabsq	$150117696929792, %rcx  # imm = 0x888800000000
	imulq	%rax, %rcx
	movabsq	$140737488355328, %rax  # imm = 0x800000000000
	addq	%rax, %rcx
	sarq	$48, %rcx
	addq	%rcx, %rcx
	cmpq	$-32768, %rbx           # imm = 0xFFFFFFFFFFFF8000
	movq	$-34952, %r13           # imm = 0xFFFFFFFFFFFF7778
	cmovgq	%rcx, %r13
.Ltmp165:
.LBB3_39:                               # %cond.end277
	.loc	4 181 3 is_stmt 1 discriminator 16 # gsm_dec.c:181:3
	movq	-48(%rbp), %rax         # 8-byte Reload
	leaq	10(%rax), %r15
.Ltmp166:
	#DEBUG_VALUE: gsm_dec_Decoding_of_the_coded_Log_Area_Ratios:LARpp <- R15
	.loc	4 182 3                 # gsm_dec.c:182:3
	movq	-56(%rbp), %rax         # 8-byte Reload
	leaq	12(%rax), %r12
.Ltmp167:
	#DEBUG_VALUE: gsm_dec_Decoding_of_the_coded_Log_Area_Ratios:ltmp <- R13
	#DEBUG_VALUE: gsm_dec_Decoding_of_the_coded_Log_Area_Ratios:LARc <- R12
	movl	$79, %edi
	movl	$81, %edx
	movl	%r14d, %esi
	callq	_KPhi1To1
	movl	$7, %edi
	callq	_KWork
	.loc	4 182 3 is_stmt 0 discriminator 12 # gsm_dec.c:182:3
.Ltmp168:
	leaq	32768(%r13), %rbx
	movl	$84, %edi
	movl	$79, %esi
	movl	$7, %edx
	callq	_KTimestamp1
	movl	$83, %r14d
	movl	$83, %edi
	movl	$79, %esi
	movl	$5, %edx
	callq	_KTimestamp1
	cmpq	$65536, %rbx            # imm = 0x10000
	jb	.LBB3_41
.Ltmp169:
# BB#40:                                # %cond.true291
	#DEBUG_VALUE: gsm_dec_Decoding_of_the_coded_Log_Area_Ratios:LARc <- R12
	#DEBUG_VALUE: gsm_dec_Decoding_of_the_coded_Log_Area_Ratios:LARpp <- R15
	#DEBUG_VALUE: gsm_dec_Decoding_of_the_coded_Log_Area_Ratios:ltmp <- R13
	movl	$84, %edi
	callq	_KPushCDep
	movl	$1, %edi
	callq	_KWork
	.loc	4 182 3 discriminator 13 # gsm_dec.c:182:3
	testq	%r13, %r13
	movl	$32767, %eax            # imm = 0x7FFF
	movq	$-32768, %r13           # imm = 0xFFFFFFFFFFFF8000
.Ltmp170:
	cmovgq	%rax, %r13
	movl	$82, %r14d
	movl	$82, %edi
	movl	$79, %esi
	movl	$8, %edx
	callq	_KTimestamp1
	callq	_KPopCDep
.Ltmp171:
.LBB3_41:                               # %cond.end297
	#DEBUG_VALUE: gsm_dec_Decoding_of_the_coded_Log_Area_Ratios:LARc <- R12
	#DEBUG_VALUE: gsm_dec_Decoding_of_the_coded_Log_Area_Ratios:LARpp <- R15
	movl	$18, %edi
	movl	$84, %edx
	movl	%r14d, %esi
	callq	_KPhi1To1
	movl	$8, %edi
	callq	_KWork
	xorl	%r14d, %r14d
	movl	$17, %edi
	movl	$18, %esi
	xorl	%edx, %edx
	callq	_KTimestamp1
	movl	$17, %edi
	movl	$2, %edx
	movq	%r15, %rsi
	callq	_KStore
	.loc	4 182 3 discriminator 16 # gsm_dec.c:182:3
.Ltmp172:
	movq	-48(%rbp), %rax         # 8-byte Reload
	movw	%r13w, 10(%rax)
	movl	$19, %esi
	movl	$2, %edx
	movq	%r12, %rdi
	callq	_KLoad0
.Ltmp173:
	.loc	4 183 3 is_stmt 1       # gsm_dec.c:183:3
	movq	-56(%rbp), %rax         # 8-byte Reload
	movswq	12(%rax), %rbx
	leaq	32764(%rbx), %r12
.Ltmp174:
	movl	$88, %edi
	movl	$19, %esi
	movl	$3, %edx
	callq	_KTimestamp1
	movl	$87, %r15d
.Ltmp175:
	movl	$87, %edi
	movl	$19, %esi
	movl	$1, %edx
	callq	_KTimestamp1
	cmpq	$65536, %r12            # imm = 0x10000
	jb	.LBB3_42
# BB#43:                                # %cond.true307
	movl	$88, %edi
	callq	_KPushCDep
	movl	$1, %edi
	callq	_KWork
	.loc	4 183 3 is_stmt 0 discriminator 1 # gsm_dec.c:183:3
	movswl	%bx, %eax
	cmpl	$4, %eax
	movl	$32767, %eax            # imm = 0x7FFF
	movq	$-32768, %rbx           # imm = 0xFFFFFFFFFFFF8000
	cmovgq	%rax, %rbx
	movl	$86, %r15d
	movl	$86, %edi
	movl	$19, %esi
	movl	$4, %edx
	callq	_KTimestamp1
	callq	_KPopCDep
	jmp	.LBB3_44
.LBB3_42:
	.loc	4 183 3                 # gsm_dec.c:183:3
	addq	$-4, %rbx
.Ltmp176:
	#DEBUG_VALUE: gsm_dec_Decoding_of_the_coded_Log_Area_Ratios:ltmp <- RBX
.LBB3_44:                               # %cond.end313
	movl	$85, %edi
	movl	$88, %edx
	movl	%r15d, %esi
	callq	_KPhi1To1
	movl	$3, %edi
	callq	_KWork
	.loc	4 183 3 discriminator 4 # gsm_dec.c:183:3
.Ltmp177:
	shlq	$58, %rbx
	sarq	$48, %rbx
	addq	$-682, %rbx             # imm = 0xFFFFFFFFFFFFFD56
.Ltmp178:
	#DEBUG_VALUE: gsm_dec_Decoding_of_the_coded_Log_Area_Ratios:ltmp <- RBX
	movl	$91, %edi
	movl	$85, %esi
	movl	$3, %edx
	callq	_KTimestamp1
	cmpq	$32766, %rbx            # imm = 0x7FFE
	movl	$62906, %r15d           # imm = 0xF5BA
	jg	.LBB3_46
.Ltmp179:
# BB#45:                                # %cond.false322
	#DEBUG_VALUE: gsm_dec_Decoding_of_the_coded_Log_Area_Ratios:ltmp <- RBX
	movl	$91, %edi
	callq	_KPushCDep
	movl	$1, %edi
	callq	_KWork
	movl	$90, %r14d
	movl	$90, %edi
	movl	$85, %esi
	movl	$4, %edx
	callq	_KTimestamp1
	callq	_KPopCDep
	.loc	4 183 3 discriminator 6 # gsm_dec.c:183:3
	movswq	%bx, %rax
	movabsq	$270187802656768, %rcx  # imm = 0xF5BC00000000
	imulq	%rax, %rcx
	movabsq	$140737488355328, %rax  # imm = 0x800000000000
	addq	%rax, %rcx
	sarq	$48, %rcx
	addq	%rcx, %rcx
	cmpq	$-32768, %rbx           # imm = 0xFFFFFFFFFFFF8000
	movq	$-62908, %r15           # imm = 0xFFFFFFFFFFFF0A44
	cmovgq	%rcx, %r15
.Ltmp180:
.LBB3_46:                               # %cond.end329
	.loc	4 182 3 is_stmt 1 discriminator 16 # gsm_dec.c:182:3
	movq	-48(%rbp), %rax         # 8-byte Reload
	leaq	12(%rax), %r12
.Ltmp181:
	#DEBUG_VALUE: gsm_dec_Decoding_of_the_coded_Log_Area_Ratios:LARpp <- R12
	.loc	4 183 3                 # gsm_dec.c:183:3
	addq	$14, -56(%rbp)          # 8-byte Folded Spill
.Ltmp182:
	#DEBUG_VALUE: gsm_dec_Decoding_of_the_coded_Log_Area_Ratios:ltmp <- R15
	#DEBUG_VALUE: gsm_dec_Decoding_of_the_coded_Log_Area_Ratios:LARc <- [RBP+-56]
	movl	$89, %edi
	movl	$91, %edx
	movl	%r14d, %esi
	callq	_KPhi1To1
	movl	$7, %edi
	callq	_KWork
	.loc	4 183 3 is_stmt 0 discriminator 12 # gsm_dec.c:183:3
.Ltmp183:
	leaq	32768(%r15), %rbx
	movl	$93, %r14d
	movl	$93, %edi
	movl	$89, %esi
	movl	$5, %edx
	callq	_KTimestamp1
	movl	$94, %edi
	movl	$89, %esi
	movl	$7, %edx
	callq	_KTimestamp1
	cmpq	$65536, %rbx            # imm = 0x10000
	jb	.LBB3_48
.Ltmp184:
# BB#47:                                # %cond.true343
	#DEBUG_VALUE: gsm_dec_Decoding_of_the_coded_Log_Area_Ratios:LARc <- [RBP+-56]
	#DEBUG_VALUE: gsm_dec_Decoding_of_the_coded_Log_Area_Ratios:LARpp <- R12
	#DEBUG_VALUE: gsm_dec_Decoding_of_the_coded_Log_Area_Ratios:ltmp <- R15
	movl	$94, %edi
	callq	_KPushCDep
	movl	$1, %edi
	callq	_KWork
	.loc	4 183 3 discriminator 13 # gsm_dec.c:183:3
	testq	%r15, %r15
	movl	$32767, %eax            # imm = 0x7FFF
	movq	$-32768, %r15           # imm = 0xFFFFFFFFFFFF8000
.Ltmp185:
	cmovgq	%rax, %r15
	movl	$92, %r14d
	movl	$92, %edi
	movl	$89, %esi
	movl	$8, %edx
	callq	_KTimestamp1
	callq	_KPopCDep
.Ltmp186:
.LBB3_48:                               # %cond.end349
	#DEBUG_VALUE: gsm_dec_Decoding_of_the_coded_Log_Area_Ratios:LARc <- [RBP+-56]
	#DEBUG_VALUE: gsm_dec_Decoding_of_the_coded_Log_Area_Ratios:LARpp <- R12
	movl	$21, %edi
	movl	$94, %edx
	movl	%r14d, %esi
	callq	_KPhi1To1
	movl	$8, %edi
	callq	_KWork
	xorl	%r14d, %r14d
	movl	$20, %edi
	movl	$21, %esi
	xorl	%edx, %edx
	callq	_KTimestamp1
	movl	$20, %edi
	movl	$2, %edx
	movq	%r12, %rsi
	callq	_KStore
	.loc	4 183 3 discriminator 16 # gsm_dec.c:183:3
.Ltmp187:
	movq	-48(%rbp), %rax         # 8-byte Reload
	movw	%r15w, 12(%rax)
	movl	$22, %esi
	movl	$2, %edx
	movq	-56(%rbp), %rbx         # 8-byte Reload
.Ltmp188:
	#DEBUG_VALUE: gsm_dec_Decoding_of_the_coded_Log_Area_Ratios:LARc <- RBX
	movq	%rbx, %rdi
	callq	_KLoad0
.Ltmp189:
	.loc	4 184 3 is_stmt 1       # gsm_dec.c:184:3
	movswq	(%rbx), %rbx
.Ltmp190:
	leaq	32764(%rbx), %r12
.Ltmp191:
	movl	$98, %edi
	movl	$22, %esi
	movl	$3, %edx
	callq	_KTimestamp1
	movl	$97, %r15d
	movl	$97, %edi
	movl	$22, %esi
	movl	$1, %edx
	callq	_KTimestamp1
	cmpq	$65536, %r12            # imm = 0x10000
	jb	.LBB3_49
# BB#50:                                # %cond.true359
	movl	$98, %edi
	callq	_KPushCDep
	movl	$1, %edi
	callq	_KWork
	.loc	4 184 3 is_stmt 0 discriminator 1 # gsm_dec.c:184:3
	movswl	%bx, %eax
	cmpl	$4, %eax
	movl	$32767, %eax            # imm = 0x7FFF
	movq	$-32768, %rbx           # imm = 0xFFFFFFFFFFFF8000
	cmovgq	%rax, %rbx
	movl	$96, %r15d
	movl	$96, %edi
	movl	$22, %esi
	movl	$4, %edx
	callq	_KTimestamp1
	callq	_KPopCDep
	jmp	.LBB3_51
.LBB3_49:
	.loc	4 184 3                 # gsm_dec.c:184:3
	addq	$-4, %rbx
.Ltmp192:
	#DEBUG_VALUE: gsm_dec_Decoding_of_the_coded_Log_Area_Ratios:ltmp <- RBX
.LBB3_51:                               # %cond.end365
	movl	$95, %edi
	movl	$98, %edx
	movl	%r15d, %esi
	callq	_KPhi1To1
	movl	$3, %edi
	callq	_KWork
	.loc	4 184 3 discriminator 4 # gsm_dec.c:184:3
.Ltmp193:
	shlq	$58, %rbx
	sarq	$48, %rbx
	addq	$-2288, %rbx            # imm = 0xFFFFFFFFFFFFF710
.Ltmp194:
	#DEBUG_VALUE: gsm_dec_Decoding_of_the_coded_Log_Area_Ratios:ltmp <- RBX
	movl	$101, %edi
	movl	$95, %esi
	movl	$3, %edx
	callq	_KTimestamp1
	cmpq	$32766, %rbx            # imm = 0x7FFE
	movl	$59414, %r15d           # imm = 0xE816
	jg	.LBB3_53
.Ltmp195:
# BB#52:                                # %cond.false374
	#DEBUG_VALUE: gsm_dec_Decoding_of_the_coded_Log_Area_Ratios:ltmp <- RBX
	movl	$101, %edi
	callq	_KPushCDep
	movl	$1, %edi
	callq	_KWork
	movl	$100, %r14d
	movl	$100, %edi
	movl	$95, %esi
	movl	$4, %edx
	callq	_KTimestamp1
	callq	_KPopCDep
	.loc	4 184 3 discriminator 6 # gsm_dec.c:184:3
	movswq	%bx, %rax
	movabsq	$255189776859136, %rcx  # imm = 0xE81800000000
	imulq	%rax, %rcx
	movabsq	$140737488355328, %rax  # imm = 0x800000000000
	addq	%rax, %rcx
	sarq	$48, %rcx
	addq	%rcx, %rcx
	cmpq	$-32768, %rbx           # imm = 0xFFFFFFFFFFFF8000
	movq	$-59416, %r15           # imm = 0xFFFFFFFFFFFF17E8
	cmovgq	%rcx, %r15
.Ltmp196:
.LBB3_53:                               # %cond.end381
	.loc	4 183 3 is_stmt 1 discriminator 16 # gsm_dec.c:183:3
	addq	$14, -48(%rbp)          # 8-byte Folded Spill
.Ltmp197:
	#DEBUG_VALUE: gsm_dec_Decoding_of_the_coded_Log_Area_Ratios:ltmp <- R15
	#DEBUG_VALUE: gsm_dec_Decoding_of_the_coded_Log_Area_Ratios:LARpp <- [RBP+-48]
	movl	$99, %edi
	movl	$101, %edx
	movl	%r14d, %esi
	callq	_KPhi1To1
	movl	$7, %edi
	callq	_KWork
.Ltmp198:
	.loc	4 184 3 discriminator 12 # gsm_dec.c:184:3
	leaq	32768(%r15), %rbx
	movl	$104, %edi
	movl	$99, %esi
	movl	$7, %edx
	callq	_KTimestamp1
	movl	$103, %r14d
	movl	$103, %edi
	movl	$99, %esi
	movl	$5, %edx
	callq	_KTimestamp1
	cmpq	$65536, %rbx            # imm = 0x10000
	jb	.LBB3_55
.Ltmp199:
# BB#54:                                # %cond.true395
	#DEBUG_VALUE: gsm_dec_Decoding_of_the_coded_Log_Area_Ratios:LARpp <- [RBP+-48]
	#DEBUG_VALUE: gsm_dec_Decoding_of_the_coded_Log_Area_Ratios:ltmp <- R15
	movl	$104, %edi
	callq	_KPushCDep
	movl	$1, %edi
	callq	_KWork
	.loc	4 184 3 is_stmt 0 discriminator 13 # gsm_dec.c:184:3
	testq	%r15, %r15
	movl	$32767, %eax            # imm = 0x7FFF
	movq	$-32768, %r15           # imm = 0xFFFFFFFFFFFF8000
.Ltmp200:
	cmovgq	%rax, %r15
	movl	$102, %r14d
	movl	$102, %edi
	movl	$99, %esi
	movl	$8, %edx
	callq	_KTimestamp1
	callq	_KPopCDep
.LBB3_55:                               # %cond.end401
	#DEBUG_VALUE: gsm_dec_Decoding_of_the_coded_Log_Area_Ratios:LARpp <- [RBP+-48]
	movl	$24, %edi
	movl	$104, %edx
	movl	%r14d, %esi
	callq	_KPhi1To1
	movl	$1, %edi
	callq	_KWork
	movl	$23, %edi
	movl	$24, %esi
	xorl	%edx, %edx
	callq	_KTimestamp1
	movl	$23, %edi
	movl	$2, %edx
	movq	-48(%rbp), %rbx         # 8-byte Reload
.Ltmp201:
	#DEBUG_VALUE: gsm_dec_Decoding_of_the_coded_Log_Area_Ratios:LARpp <- RBX
	movq	%rbx, %rsi
	callq	_KStore
	.loc	4 184 3 discriminator 16 # gsm_dec.c:184:3
.Ltmp202:
	movw	%r15w, (%rbx)
	xorl	%esi, %esi
	movabsq	$-4758718536076780900, %rdi # imm = 0xBDF5A2B447139A9C
	addq	$24, %rsp
	popq	%rbx
.Ltmp203:
	popq	%r12
	popq	%r13
	popq	%r14
	popq	%r15
	popq	%rbp
	jmp	_KExitRegion            # TAILCALL
.Ltmp204:
.Ltmp205:
	.size	gsm_dec_Decoding_of_the_coded_Log_Area_Ratios, .Ltmp205-gsm_dec_Decoding_of_the_coded_Log_Area_Ratios
.Lfunc_end3:
	.cfi_endproc

	.globl	gsm_dec_Coefficients_0_12
	.align	16, 0x90
	.type	gsm_dec_Coefficients_0_12,@function
gsm_dec_Coefficients_0_12:              # @gsm_dec_Coefficients_0_12
.Lfunc_begin4:
	.loc	4 208 0 is_stmt 1       # gsm_dec.c:208:0
	.cfi_startproc
# BB#0:                                 # %entry
	pushq	%rbp
.Ltmp206:
	.cfi_def_cfa_offset 16
.Ltmp207:
	.cfi_offset %rbp, -16
	movq	%rsp, %rbp
.Ltmp208:
	.cfi_def_cfa_register %rbp
	pushq	%r15
	pushq	%r14
	pushq	%r13
	pushq	%r12
	pushq	%rbx
	subq	$40, %rsp
.Ltmp209:
	.cfi_offset %rbx, -56
.Ltmp210:
	.cfi_offset %r12, -48
.Ltmp211:
	.cfi_offset %r13, -40
.Ltmp212:
	.cfi_offset %r14, -32
.Ltmp213:
	.cfi_offset %r15, -24
	#DEBUG_VALUE: gsm_dec_Coefficients_0_12:LARpp_j_1 <- RDI
	#DEBUG_VALUE: gsm_dec_Coefficients_0_12:LARpp_j <- RSI
	#DEBUG_VALUE: gsm_dec_Coefficients_0_12:LARp <- RDX
	movq	%rdx, -56(%rbp)         # 8-byte Spill
.Ltmp214:
	#DEBUG_VALUE: gsm_dec_Coefficients_0_12:LARp <- [RBP+-56]
	movq	%rsi, -72(%rbp)         # 8-byte Spill
.Ltmp215:
	#DEBUG_VALUE: gsm_dec_Coefficients_0_12:LARpp_j <- [RBP+-72]
	movq	%rdi, -64(%rbp)         # 8-byte Spill
.Ltmp216:
	#DEBUG_VALUE: gsm_dec_Coefficients_0_12:LARpp_j_1 <- [RBP+-64]
	movabsq	$1990844294016714266, %rdi # imm = 0x1BA0E65663FAC61A
	movabsq	$612827226416196234, %rbx # imm = 0x881331D9339AA8A
	xorl	%r13d, %r13d
	xorl	%esi, %esi
	callq	_KEnterRegion
	movl	$27, %edi
	movl	$2, %esi
	callq	_KPrepRTable
.Ltmp217:
	#DEBUG_VALUE: gsm_dec_Coefficients_0_12:i <- 1
	movl	$19, -48(%rbp)          # 4-byte Folded Spill
	movl	$19, %edi
	movl	$19, %esi
	xorl	%edx, %edx
	callq	_KTimestamp1
	movl	$13, %r15d
	movl	$13, %edi
	movl	$13, %esi
	xorl	%edx, %edx
	callq	_KTimestamp1
	movl	$16, %r14d
	movl	$16, %edi
	movl	$16, %esi
	xorl	%edx, %edx
	callq	_KTimestamp1
	movl	$1, %esi
	movq	%rbx, %rdi
	callq	_KEnterRegion
	xorl	%ebx, %ebx
	xorl	%r12d, %r12d
	jmp	.LBB4_1
	.align	16, 0x90
.LBB4_6:                                # %cond.end26
                                        #   in Loop: Header=BB4_1 Depth=1
	#DEBUG_VALUE: gsm_dec_Coefficients_0_12:LARpp_j_1 <- [RBP+-64]
	#DEBUG_VALUE: gsm_dec_Coefficients_0_12:LARpp_j <- [RBP+-72]
	#DEBUG_VALUE: gsm_dec_Coefficients_0_12:LARp <- [RBP+-56]
	#DEBUG_VALUE: gsm_dec_Coefficients_0_12:i <- 1
	movl	$4, %ebx
	movl	$4, %edi
	callq	_KPushCDep
	movl	$10, %edi
	movl	$4, %edx
	movl	$26, %ecx
	movl	%r15d, %esi
	callq	_KPhi2To1
	movl	$2, %edi
	callq	_KWork
	movl	$9, %edi
	movl	$10, %esi
	xorl	%edx, %edx
	movl	$4, %ecx
	xorl	%r8d, %r8d
	callq	_KTimestamp2
	movl	$9, %edi
	movl	$2, %edx
	movq	%r14, %rsi
	callq	_KStore
	.loc	4 215 5 prologue_end    # gsm_dec.c:215:5
.Ltmp218:
	movq	-56(%rbp), %rax         # 8-byte Reload
	movw	%r12w, (%rax,%r13)
	movl	$20, -48(%rbp)          # 4-byte Folded Spill
	movl	$20, %edi
	movl	$18, %esi
	xorl	%edx, %edx
	movl	$4, %ecx
	xorl	%r8d, %r8d
	callq	_KTimestamp2
	movl	$14, %r15d
	movl	$14, %edi
	movl	$12, %esi
	xorl	%edx, %edx
	movl	$4, %ecx
	xorl	%r8d, %r8d
	callq	_KTimestamp2
	movl	$17, %r14d
	movl	$17, %edi
	movl	$15, %esi
	xorl	%edx, %edx
	movl	$4, %ecx
	xorl	%r8d, %r8d
	callq	_KTimestamp2
	movl	$11, %r12d
	movl	$11, %edi
	movl	$5, %esi
	movl	$1, %edx
	movl	$4, %ecx
	movl	$1, %r8d
	callq	_KTimestamp2
	callq	_KPopCDep
	movl	$2, %esi
	movabsq	$1722745426529064924, %rdi # imm = 0x17E86BD682B197DC
	callq	_KExitRegion
	addq	$2, %r13
.Ltmp219:
.LBB4_1:                                # %for.cond
                                        # =>This Inner Loop Header: Depth=1
	#DEBUG_VALUE: gsm_dec_Coefficients_0_12:LARpp_j_1 <- [RBP+-64]
	#DEBUG_VALUE: gsm_dec_Coefficients_0_12:LARpp_j <- [RBP+-72]
	#DEBUG_VALUE: gsm_dec_Coefficients_0_12:LARp <- [RBP+-56]
	#DEBUG_VALUE: gsm_dec_Coefficients_0_12:i <- 1
	movl	$18, %edi
	movl	-48(%rbp), %esi         # 4-byte Reload
	movl	%ebx, %edx
	callq	_KPhi1To1
	movl	$5, %edi
	movl	%r12d, %esi
	movl	%ebx, %edx
	callq	_KPhi1To1
	movl	$12, %edi
	movl	%r15d, %esi
	movl	%ebx, %edx
	callq	_KPhi1To1
	movl	$15, %edi
	movl	%r14d, %esi
	movl	%ebx, %edx
	callq	_KPhi1To1
	movl	$1, %edi
	callq	_KWork
	movl	$4, %edi
	movl	$5, %esi
	movl	$1, %edx
	callq	_KTimestamp1
	movl	$18, %edi
	movl	$18, %esi
	xorl	%edx, %edx
	callq	_KTimestamp1
	movl	$12, %edi
	movl	$12, %esi
	xorl	%edx, %edx
	callq	_KTimestamp1
	movl	$15, %edi
	movl	$4, %esi
	callq	_KPhiAddCond
	movl	$5, %edi
	movl	$4, %esi
	callq	_KPhiAddCond
	movl	$12, %edi
	movl	$4, %esi
	callq	_KPhiAddCond
	movl	$15, %edi
	movl	$15, %esi
	xorl	%edx, %edx
	callq	_KTimestamp1
	movl	$18, %edi
	movl	$4, %esi
	callq	_KPhiAddCond
	movl	$5, %edi
	movl	$5, %esi
	xorl	%edx, %edx
	callq	_KTimestamp1
	.loc	4 213 3                 # gsm_dec.c:213:3
	cmpl	$16, %r13d
	je	.LBB4_7
# BB#2:                                 # %for.body
                                        #   in Loop: Header=BB4_1 Depth=1
	#DEBUG_VALUE: gsm_dec_Coefficients_0_12:LARpp_j_1 <- [RBP+-64]
	#DEBUG_VALUE: gsm_dec_Coefficients_0_12:LARpp_j <- [RBP+-72]
	#DEBUG_VALUE: gsm_dec_Coefficients_0_12:LARp <- [RBP+-56]
	#DEBUG_VALUE: gsm_dec_Coefficients_0_12:i <- 1
	movl	$2, %esi
	movabsq	$1722745426529064924, %rdi # imm = 0x17E86BD682B197DC
	callq	_KEnterRegion
	movl	$4, %edi
	callq	_KPushCDep
	movq	-64(%rbp), %rbx         # 8-byte Reload
.Ltmp220:
	#DEBUG_VALUE: gsm_dec_Coefficients_0_12:LARpp_j_1 <- RBX
	leaq	(%rbx,%r13), %rdi
	movq	%rdi, -48(%rbp)         # 8-byte Spill
	movl	$1, %esi
	movl	$2, %edx
	callq	_KLoad0
	movl	$13, %edi
	callq	_KWork
	.loc	4 214 13                # gsm_dec.c:214:13
.Ltmp221:
	movswl	(%rbx,%r13), %r14d
.Ltmp222:
	#DEBUG_VALUE: gsm_dec_Coefficients_0_12:LARpp_j_1 <- [RBP+-64]
	sarl	$2, %r14d
	movq	-72(%rbp), %rbx         # 8-byte Reload
.Ltmp223:
	#DEBUG_VALUE: gsm_dec_Coefficients_0_12:LARpp_j <- RBX
	leaq	(%rbx,%r13), %rdi
	movl	$2, %esi
	movl	$2, %edx
	callq	_KLoad0
	movswl	(%rbx,%r13), %r15d
.Ltmp224:
	#DEBUG_VALUE: gsm_dec_Coefficients_0_12:LARpp_j <- [RBP+-72]
	sarl	$2, %r15d
	addl	%r14d, %r15d
	movslq	%r15d, %r12
.Ltmp225:
	#DEBUG_VALUE: gsm_dec_Coefficients_0_12:ltmp <- R15D
	leaq	32768(%r12), %rbx
	movl	$4, (%rsp)
	movl	$23, %edi
	movl	$4, %esi
	movl	$4, %edx
	movl	$1, %ecx
	movl	$4, %r8d
	movl	$2, %r9d
	callq	_KTimestamp3
	movl	$2, (%rsp)
	movl	$22, %r14d
	movl	$22, %edi
	movl	$4, %esi
	movl	$2, %edx
	movl	$1, %ecx
	movl	$2, %r8d
	movl	$2, %r9d
	callq	_KTimestamp3
	callq	_KPopCDep
	cmpq	$65536, %rbx            # imm = 0x10000
	jb	.LBB4_4
.Ltmp226:
# BB#3:                                 # %cond.true
                                        #   in Loop: Header=BB4_1 Depth=1
	#DEBUG_VALUE: gsm_dec_Coefficients_0_12:LARpp_j_1 <- [RBP+-64]
	#DEBUG_VALUE: gsm_dec_Coefficients_0_12:LARpp_j <- [RBP+-72]
	#DEBUG_VALUE: gsm_dec_Coefficients_0_12:LARp <- [RBP+-56]
	#DEBUG_VALUE: gsm_dec_Coefficients_0_12:i <- 1
	#DEBUG_VALUE: gsm_dec_Coefficients_0_12:ltmp <- R15D
	movl	$23, %edi
	callq	_KPushCDep
	movl	$1, %edi
	callq	_KWork
	.loc	4 214 13 is_stmt 0 discriminator 1 # gsm_dec.c:214:13
	testl	%r15d, %r15d
	movq	$-32768, %r12           # imm = 0xFFFFFFFFFFFF8000
	movl	$32767, %eax            # imm = 0x7FFF
	cmovgq	%rax, %r12
	movl	$5, (%rsp)
	movl	$21, %r14d
	movl	$21, %edi
	movl	$4, %esi
	movl	$5, %edx
	movl	$1, %ecx
	movl	$5, %r8d
	movl	$2, %r9d
	callq	_KTimestamp3
	callq	_KPopCDep
.Ltmp227:
.LBB4_4:                                # %cond.end
                                        #   in Loop: Header=BB4_1 Depth=1
	#DEBUG_VALUE: gsm_dec_Coefficients_0_12:LARpp_j_1 <- [RBP+-64]
	#DEBUG_VALUE: gsm_dec_Coefficients_0_12:LARpp_j <- [RBP+-72]
	#DEBUG_VALUE: gsm_dec_Coefficients_0_12:LARp <- [RBP+-56]
	#DEBUG_VALUE: gsm_dec_Coefficients_0_12:i <- 1
	movl	$4, %edi
	callq	_KPushCDep
	movl	$6, %edi
	movl	$4, %edx
	movl	$23, %ecx
	movl	%r14d, %esi
	callq	_KPhi2To1
	movl	$13, %edi
	callq	_KWork
	movq	-56(%rbp), %rbx         # 8-byte Reload
.Ltmp228:
	#DEBUG_VALUE: gsm_dec_Coefficients_0_12:LARp <- RBX
	leaq	(%rbx,%r13), %r14
	movl	$3, %edi
	movl	$4, %esi
	xorl	%edx, %edx
	movl	$6, %ecx
	xorl	%r8d, %r8d
	callq	_KTimestamp2
	movl	$3, %edi
	movl	$2, %edx
	movq	%r14, %rsi
	callq	_KStore
	.loc	4 214 5                 # gsm_dec.c:214:5
	movw	%r12w, (%rbx,%r13)
	movl	$7, %esi
	movl	$2, %edx
	movq	%r14, %rdi
	callq	_KLoad0
	.loc	4 215 13 is_stmt 1      # gsm_dec.c:215:13
	movswq	(%rbx,%r13), %rbx
.Ltmp229:
	#DEBUG_VALUE: gsm_dec_Coefficients_0_12:LARp <- [RBP+-56]
	movl	$8, %esi
	movl	$2, %edx
	movq	-48(%rbp), %rdi         # 8-byte Reload
	callq	_KLoad0
	movq	-64(%rbp), %rax         # 8-byte Reload
	movswl	(%rax,%r13), %eax
	#DEBUG_VALUE: gsm_dec_Coefficients_0_12:LARpp_j_1 <- [RBP+-64]
	sarl	%eax
	cltq
	leaq	(%rax,%rbx), %r12
.Ltmp230:
	#DEBUG_VALUE: gsm_dec_Coefficients_0_12:ltmp <- R12
	leaq	32768(%rax,%rbx), %rbx
	movl	$4, (%rsp)
	movl	$26, %edi
	movl	$4, %esi
	movl	$4, %edx
	movl	$7, %ecx
	movl	$3, %r8d
	movl	$8, %r9d
	callq	_KTimestamp3
	movl	$2, (%rsp)
	movl	$25, %r15d
	movl	$25, %edi
	movl	$4, %esi
	movl	$2, %edx
	movl	$7, %ecx
	movl	$1, %r8d
	movl	$8, %r9d
	callq	_KTimestamp3
	callq	_KPopCDep
	cmpq	$65536, %rbx            # imm = 0x10000
	jb	.LBB4_6
.Ltmp231:
# BB#5:                                 # %cond.true20
                                        #   in Loop: Header=BB4_1 Depth=1
	#DEBUG_VALUE: gsm_dec_Coefficients_0_12:LARpp_j_1 <- [RBP+-64]
	#DEBUG_VALUE: gsm_dec_Coefficients_0_12:LARpp_j <- [RBP+-72]
	#DEBUG_VALUE: gsm_dec_Coefficients_0_12:LARp <- [RBP+-56]
	#DEBUG_VALUE: gsm_dec_Coefficients_0_12:i <- 1
	#DEBUG_VALUE: gsm_dec_Coefficients_0_12:ltmp <- R12
	movl	$26, %edi
	callq	_KPushCDep
	movl	$1, %edi
	callq	_KWork
	.loc	4 215 13 is_stmt 0 discriminator 1 # gsm_dec.c:215:13
	testq	%r12, %r12
	movq	$-32768, %r12           # imm = 0xFFFFFFFFFFFF8000
.Ltmp232:
	movl	$32767, %eax            # imm = 0x7FFF
	cmovgq	%rax, %r12
	movl	$5, (%rsp)
	movl	$24, %r15d
	movl	$24, %edi
	movl	$4, %esi
	movl	$5, %edx
	movl	$7, %ecx
	movl	$4, %r8d
	movl	$8, %r9d
	callq	_KTimestamp3
	callq	_KPopCDep
	jmp	.LBB4_6
.Ltmp233:
.LBB4_7:                                # %for.cond.pre_exit.for.end
	#DEBUG_VALUE: gsm_dec_Coefficients_0_12:i <- 1
	movl	$1, %esi
	movabsq	$612827226416196234, %rdi # imm = 0x881331D9339AA8A
	callq	_KExitRegion
	xorl	%esi, %esi
	movabsq	$1990844294016714266, %rdi # imm = 0x1BA0E65663FAC61A
	addq	$40, %rsp
	popq	%rbx
	popq	%r12
	popq	%r13
	popq	%r14
	popq	%r15
	popq	%rbp
	jmp	_KExitRegion            # TAILCALL
.Ltmp234:
	.size	gsm_dec_Coefficients_0_12, .Ltmp234-gsm_dec_Coefficients_0_12
.Lfunc_end4:
	.cfi_endproc

	.globl	gsm_dec_LARp_to_rp
	.align	16, 0x90
	.type	gsm_dec_LARp_to_rp,@function
gsm_dec_LARp_to_rp:                     # @gsm_dec_LARp_to_rp
.Lfunc_begin5:
	.loc	4 227 0 is_stmt 1       # gsm_dec.c:227:0
	.cfi_startproc
# BB#0:                                 # %entry
	pushq	%rbp
.Ltmp235:
	.cfi_def_cfa_offset 16
.Ltmp236:
	.cfi_offset %rbp, -16
	movq	%rsp, %rbp
.Ltmp237:
	.cfi_def_cfa_register %rbp
	pushq	%r15
	pushq	%r14
	pushq	%r13
	pushq	%r12
	pushq	%rbx
	subq	$56, %rsp
.Ltmp238:
	.cfi_offset %rbx, -56
.Ltmp239:
	.cfi_offset %r12, -48
.Ltmp240:
	.cfi_offset %r13, -40
.Ltmp241:
	.cfi_offset %r14, -32
.Ltmp242:
	.cfi_offset %r15, -24
	#DEBUG_VALUE: gsm_dec_LARp_to_rp:LARp <- RDI
	movq	%rdi, %r12
.Ltmp243:
	#DEBUG_VALUE: gsm_dec_LARp_to_rp:LARp <- R12
	movq	%r12, -64(%rbp)         # 8-byte Spill
	movabsq	$723377397767574628, %rbx # imm = 0xA09F3E9207B9464
	movabsq	$28452301577387218, %rdi # imm = 0x651537B08FFCD2
	xorl	%r13d, %r13d
	xorl	%esi, %esi
	callq	_KEnterRegion
	movl	$32, %edi
	movl	$2, %esi
	callq	_KPrepRTable
.Ltmp244:
	#DEBUG_VALUE: gsm_dec_LARp_to_rp:i <- 1
	movl	$12, %r14d
	movl	$12, %edi
	movl	$12, %esi
	xorl	%edx, %edx
	callq	_KTimestamp1
	movl	$1, %esi
	movq	%rbx, %rdi
	callq	_KEnterRegion
	xorl	%r15d, %r15d
	xorl	%ebx, %ebx
	jmp	.LBB5_1
.Ltmp245:
	.align	16, 0x90
.LBB5_20:                               # %for.inc
                                        #   in Loop: Header=BB5_1 Depth=1
	callq	_KPopCDep
.Ltmp246:
	#DEBUG_VALUE: gsm_dec_LARp_to_rp:LARp <- R12
	#DEBUG_VALUE: gsm_dec_LARp_to_rp:i <- 1
	movl	$5, %ebx
	movl	$5, %edi
	callq	_KPushCDep
	movl	$1, %edi
	callq	_KWork
	movl	$13, %r14d
	movl	$13, %edi
	movl	$11, %esi
	xorl	%edx, %edx
	movl	$5, %ecx
	xorl	%r8d, %r8d
	callq	_KTimestamp2
	movl	$10, %r15d
	movl	$10, %edi
	movl	$6, %esi
	movl	$1, %edx
	movl	$5, %ecx
	movl	$1, %r8d
	callq	_KTimestamp2
	callq	_KPopCDep
	movl	$2, %esi
	movabsq	$-1388207195966384845, %rdi # imm = 0xECBC18E909C85533
	callq	_KExitRegion
	addq	$2, %r13
.Ltmp247:
.LBB5_1:                                # %for.cond
                                        # =>This Inner Loop Header: Depth=1
	#DEBUG_VALUE: gsm_dec_LARp_to_rp:LARp <- R12
	#DEBUG_VALUE: gsm_dec_LARp_to_rp:i <- 1
	movl	$11, %edi
	movl	%r14d, %esi
	movl	%ebx, %edx
	callq	_KPhi1To1
	movl	$6, %edi
	movl	%r15d, %esi
	movl	%ebx, %edx
	callq	_KPhi1To1
	movl	$1, %edi
	callq	_KWork
	movl	$5, %edi
	movl	$6, %esi
	movl	$1, %edx
	callq	_KTimestamp1
	movl	$11, %edi
	movl	$11, %esi
	xorl	%edx, %edx
	callq	_KTimestamp1
	movl	$11, %edi
	movl	$5, %esi
	callq	_KPhiAddCond
	movl	$6, %edi
	movl	$5, %esi
	callq	_KPhiAddCond
	movl	$6, %edi
	movl	$6, %esi
	xorl	%edx, %edx
	callq	_KTimestamp1
	.loc	4 233 3 prologue_end    # gsm_dec.c:233:3
.Ltmp248:
	cmpl	$16, %r13d
	je	.LBB5_21
.Ltmp249:
# BB#2:                                 # %for.body
                                        #   in Loop: Header=BB5_1 Depth=1
	#DEBUG_VALUE: gsm_dec_LARp_to_rp:LARp <- R12
	#DEBUG_VALUE: gsm_dec_LARp_to_rp:i <- 1
	movl	$2, %esi
	movabsq	$-1388207195966384845, %rdi # imm = 0xECBC18E909C85533
	callq	_KEnterRegion
	movl	$5, %edi
	callq	_KPushCDep
	movl	$9, %edi
	callq	_KWork
	leaq	(%r12,%r13), %r14
	movl	$1, %esi
	movl	$2, %edx
	movq	%r14, %rdi
	callq	_KLoad0
	.loc	4 244 10                # gsm_dec.c:244:10
.Ltmp250:
	movw	(%r12,%r13), %bx
	movl	$2, %esi
	movl	$2, %edx
	movq	%r14, %rdi
	callq	_KLoad0
	.loc	4 245 14                # gsm_dec.c:245:14
.Ltmp251:
	movq	%r13, -48(%rbp)         # 8-byte Spill
	movswl	(%r12,%r13), %r13d
	movl	$16, %edi
	movl	$5, %esi
	movl	$1, %edx
	movl	$1, %ecx
	movl	$1, %r8d
	callq	_KTimestamp2
	callq	_KPopCDep
	movl	$16, %edi
	callq	_KPushCDep
	movl	$1, %edi
	callq	_KWork
.Ltmp252:
	.loc	4 244 10                # gsm_dec.c:244:10
	cmpw	$0, %bx
	js	.LBB5_3
.Ltmp253:
# BB#13:                                # %if.else
                                        #   in Loop: Header=BB5_1 Depth=1
	#DEBUG_VALUE: gsm_dec_LARp_to_rp:LARp <- R12
	#DEBUG_VALUE: gsm_dec_LARp_to_rp:i <- 1
	.loc	4 253 38 discriminator 1 # gsm_dec.c:253:38
	movslq	%r13d, %r15
	movl	$1, (%rsp)
	movl	$29, %edi
	movl	$5, %esi
	movl	$2, %edx
	movl	$1, %ecx
	movl	$2, %r8d
	movl	$2, %r9d
	callq	_KTimestamp3
	callq	_KPopCDep
	movl	$29, %edi
	callq	_KPushCDep
	movl	$1, %edi
	callq	_KWork
	.loc	4 251 15                # gsm_dec.c:251:15
	cmpl	$11058, %r15d           # imm = 0x2B32
	jg	.LBB5_15
.Ltmp254:
# BB#14:                                # %cond.true45
                                        #   in Loop: Header=BB5_1 Depth=1
	#DEBUG_VALUE: gsm_dec_LARp_to_rp:LARp <- R12
	#DEBUG_VALUE: gsm_dec_LARp_to_rp:i <- 1
	movq	%r14, -56(%rbp)         # 8-byte Spill
.Ltmp255:
	#DEBUG_VALUE: gsm_dec_LARp_to_rp:LARp <- [RBP+-64]
	.loc	4 252 17                # gsm_dec.c:252:17
	addq	%r15, %r15
	movl	$2, (%rsp)
	movl	$25, %r14d
	movl	$25, %edi
	movl	$5, %esi
	movl	$3, %edx
	movl	$1, %ecx
	movl	$3, %r8d
	movl	$2, %r9d
	callq	_KTimestamp3
	callq	_KPopCDep
	xorl	%ebx, %ebx
	xorl	%r12d, %r12d
	jmp	.LBB5_19
.Ltmp256:
	.align	16, 0x90
.LBB5_3:                                # %if.then
                                        #   in Loop: Header=BB5_1 Depth=1
	#DEBUG_VALUE: gsm_dec_LARp_to_rp:LARp <- R12
	#DEBUG_VALUE: gsm_dec_LARp_to_rp:i <- 1
	.loc	4 245 14                # gsm_dec.c:245:14
	movzwl	%r13w, %ebx
	movl	$1, (%rsp)
	movl	$17, %edi
	movl	$5, %esi
	movl	$2, %edx
	movl	$1, %ecx
	movl	$2, %r8d
	movl	$2, %r9d
	callq	_KTimestamp3
	callq	_KPopCDep
	cmpl	$32768, %ebx            # imm = 0x8000
	jne	.LBB5_5
.Ltmp257:
# BB#4:                                 #   in Loop: Header=BB5_1 Depth=1
	#DEBUG_VALUE: gsm_dec_LARp_to_rp:LARp <- R12
	#DEBUG_VALUE: gsm_dec_LARp_to_rp:i <- 1
	movq	%r14, -56(%rbp)         # 8-byte Spill
	xorl	%r14d, %r14d
	movw	$32767, %bx             # imm = 0x7FFF
	jmp	.LBB5_6
.Ltmp258:
	.align	16, 0x90
.LBB5_15:                               # %cond.false49
                                        #   in Loop: Header=BB5_1 Depth=1
	#DEBUG_VALUE: gsm_dec_LARp_to_rp:LARp <- R12
	#DEBUG_VALUE: gsm_dec_LARp_to_rp:i <- 1
	movl	$2, (%rsp)
	movl	$30, %edi
	movl	$5, %esi
	movl	$3, %edx
	movl	$1, %ecx
	movl	$3, %r8d
	movl	$2, %r9d
	callq	_KTimestamp3
	callq	_KPopCDep
	movl	$30, %edi
	callq	_KPushCDep
	.loc	4 253 19                # gsm_dec.c:253:19
.Ltmp259:
	cmpl	$20069, %r13d           # imm = 0x4E65
	jg	.LBB5_17
.Ltmp260:
# BB#16:                                # %cond.true53
                                        #   in Loop: Header=BB5_1 Depth=1
	#DEBUG_VALUE: gsm_dec_LARp_to_rp:LARp <- R12
	#DEBUG_VALUE: gsm_dec_LARp_to_rp:i <- 1
	movq	%r14, -56(%rbp)         # 8-byte Spill
.Ltmp261:
	#DEBUG_VALUE: gsm_dec_LARp_to_rp:LARp <- [RBP+-64]
	movl	$1, %edi
	callq	_KWork
	.loc	4 253 38 is_stmt 0 discriminator 1 # gsm_dec.c:253:38
	addq	$11059, %r15            # imm = 0x2B33
	movl	$3, (%rsp)
	movl	$26, %r14d
	movl	$26, %edi
	movl	$5, %esi
	movl	$4, %edx
	movl	$1, %ecx
	movl	$4, %r8d
	movl	$2, %r9d
	callq	_KTimestamp3
	callq	_KPopCDep
	movl	$30, %r12d
	xorl	%ebx, %ebx
	jmp	.LBB5_19
.Ltmp262:
.LBB5_5:                                # %cond.false
                                        #   in Loop: Header=BB5_1 Depth=1
	#DEBUG_VALUE: gsm_dec_LARp_to_rp:LARp <- R12
	#DEBUG_VALUE: gsm_dec_LARp_to_rp:i <- 1
	movl	$17, %edi
	callq	_KPushCDep
	movl	$3, %esi
	movl	$2, %edx
	movq	%r14, %rdi
	movq	%r14, -56(%rbp)         # 8-byte Spill
	callq	_KLoad0
	movl	$5, %edi
	callq	_KWork
	movq	-48(%rbp), %rax         # 8-byte Reload
	.loc	4 245 48 is_stmt 1      # gsm_dec.c:245:48
.Ltmp263:
	movw	(%r12,%rax), %bx
	.loc	4 245 45 is_stmt 0      # gsm_dec.c:245:45
	negw	%bx
	movl	$1, 16(%rsp)
	movl	$3, 8(%rsp)
	movl	$2, (%rsp)
	movl	$15, %r14d
	movl	$15, %edi
	movl	$5, %esi
	movl	$3, %edx
	movl	$1, %ecx
	movl	$3, %r8d
	movl	$2, %r9d
	callq	_KTimestamp4
	callq	_KPopCDep
.Ltmp264:
.LBB5_6:                                # %cond.end
                                        #   in Loop: Header=BB5_1 Depth=1
	#DEBUG_VALUE: gsm_dec_LARp_to_rp:LARp <- R12
	#DEBUG_VALUE: gsm_dec_LARp_to_rp:i <- 1
	#DEBUG_VALUE: gsm_dec_LARp_to_rp:temp <- BX
	movl	$16, %edi
	callq	_KPushCDep
	movl	$14, %edi
	movl	$16, %edx
	movl	$17, %ecx
	movl	%r14d, %esi
	callq	_KPhi2To1
	movl	$1, %edi
	callq	_KWork
	.loc	4 246 20 is_stmt 1      # gsm_dec.c:246:20
	movswl	%bx, %ebx
.Ltmp265:
	movl	$1, (%rsp)
	movl	$22, %edi
	movl	$5, %esi
	movl	$2, %edx
	movl	$1, %ecx
	movl	$2, %r8d
	movl	$14, %r9d
	callq	_KTimestamp3
	callq	_KPopCDep
	movl	$22, %edi
	callq	_KPushCDep
	movl	$1, %edi
	callq	_KWork
	.loc	4 246 18 is_stmt 0      # gsm_dec.c:246:18
	cmpl	$11058, %ebx            # imm = 0x2B32
	jg	.LBB5_8
.Ltmp266:
# BB#7:                                 # %cond.true11
                                        #   in Loop: Header=BB5_1 Depth=1
	#DEBUG_VALUE: gsm_dec_LARp_to_rp:LARp <- R12
	#DEBUG_VALUE: gsm_dec_LARp_to_rp:LARp <- [RBP+-64]
	#DEBUG_VALUE: gsm_dec_LARp_to_rp:i <- 1
	.loc	4 246 37 discriminator 1 # gsm_dec.c:246:37
	addl	%ebx, %ebx
	movslq	%ebx, %r13
	movl	$2, (%rsp)
	movl	$18, %r14d
	movl	$18, %edi
	movl	$5, %esi
	movl	$3, %edx
	movl	$1, %ecx
	movl	$3, %r8d
	movl	$14, %r9d
	callq	_KTimestamp3
	callq	_KPopCDep
	xorl	%r12d, %r12d
	xorl	%r15d, %r15d
	jmp	.LBB5_12
.LBB5_8:                                # %cond.false14
                                        #   in Loop: Header=BB5_1 Depth=1
.Ltmp267:
	#DEBUG_VALUE: gsm_dec_LARp_to_rp:LARp <- R12
	#DEBUG_VALUE: gsm_dec_LARp_to_rp:LARp <- [RBP+-64]
	#DEBUG_VALUE: gsm_dec_LARp_to_rp:i <- 1
	movl	$2, (%rsp)
	movl	$23, %edi
	movl	$5, %esi
	movl	$3, %edx
	movl	$1, %ecx
	movl	$3, %r8d
	movl	$14, %r9d
	callq	_KTimestamp3
	callq	_KPopCDep
	movl	$23, %edi
	callq	_KPushCDep
	.loc	4 247 22 is_stmt 1      # gsm_dec.c:247:22
	cmpl	$20069, %ebx            # imm = 0x4E65
	jg	.LBB5_10
# BB#9:                                 # %cond.true18
                                        #   in Loop: Header=BB5_1 Depth=1
	#DEBUG_VALUE: gsm_dec_LARp_to_rp:LARp <- [RBP+-64]
	#DEBUG_VALUE: gsm_dec_LARp_to_rp:i <- 1
	movl	$1, %edi
	callq	_KWork
	.loc	4 247 41 is_stmt 0 discriminator 1 # gsm_dec.c:247:41
	addl	$11059, %ebx            # imm = 0x2B33
	movslq	%ebx, %r13
	movl	$3, (%rsp)
	movl	$19, %r14d
	movl	$19, %edi
	movl	$5, %esi
	movl	$4, %edx
	movl	$1, %ecx
	movl	$4, %r8d
	movl	$14, %r9d
	callq	_KTimestamp3
	callq	_KPopCDep
	movl	$23, %r15d
	xorl	%r12d, %r12d
	jmp	.LBB5_12
.Ltmp268:
.LBB5_17:                               # %cond.false57
                                        #   in Loop: Header=BB5_1 Depth=1
	#DEBUG_VALUE: gsm_dec_LARp_to_rp:LARp <- R12
	#DEBUG_VALUE: gsm_dec_LARp_to_rp:i <- 1
	movq	%r14, -56(%rbp)         # 8-byte Spill
.Ltmp269:
	#DEBUG_VALUE: gsm_dec_LARp_to_rp:LARp <- [RBP+-64]
	movl	$4, %edi
	callq	_KWork
	.loc	4 253 53 is_stmt 1 discriminator 2 # gsm_dec.c:253:53
.Ltmp270:
	sarl	$2, %r13d
	leal	26112(%r13), %eax
	movslq	%eax, %r15
.Ltmp271:
	#DEBUG_VALUE: gsm_dec_LARp_to_rp:ltmp <- EAX
	leaq	32768(%r15), %rax
.Ltmp272:
	movq	%rax, -72(%rbp)         # 8-byte Spill
	movl	$4, (%rsp)
	movl	$28, %r14d
	movl	$28, %edi
	movl	$5, %esi
	movl	$5, %edx
	movl	$1, %ecx
	movl	$5, %r8d
	movl	$2, %r9d
	callq	_KTimestamp3
	movl	$6, (%rsp)
	movl	$31, %ebx
	movl	$31, %edi
	movl	$5, %esi
	movl	$7, %edx
	movl	$1, %ecx
	movl	$7, %r8d
	movl	$2, %r9d
	callq	_KTimestamp3
	callq	_KPopCDep
	movl	$30, %r12d
	cmpq	$65536, -72(%rbp)       # 8-byte Folded Reload
                                        # imm = 0x10000
	jb	.LBB5_19
# BB#18:                                # %cond.true65
                                        #   in Loop: Header=BB5_1 Depth=1
	#DEBUG_VALUE: gsm_dec_LARp_to_rp:LARp <- [RBP+-64]
	#DEBUG_VALUE: gsm_dec_LARp_to_rp:i <- 1
.Ltmp273:
	#DEBUG_VALUE: gsm_dec_LARp_to_rp:ltmp <- EAX
	movl	$31, %ebx
	movl	$31, %edi
	callq	_KPushCDep
	movl	$1, %edi
	callq	_KWork
	.loc	4 253 53 is_stmt 0 discriminator 3 # gsm_dec.c:253:53
	cmpl	$-26112, %r13d          # imm = 0xFFFFFFFFFFFF9A00
	movq	$-32768, %r15           # imm = 0xFFFFFFFFFFFF8000
	movl	$32767, %eax            # imm = 0x7FFF
.Ltmp274:
	cmovgq	%rax, %r15
	movl	$7, (%rsp)
	movl	$27, %r14d
	movl	$27, %edi
	movl	$5, %esi
	movl	$8, %edx
	movl	$1, %ecx
	movl	$8, %r8d
	movl	$2, %r9d
	callq	_KTimestamp3
	callq	_KPopCDep
	.align	16, 0x90
.LBB5_19:                               # %cond.end75
                                        #   in Loop: Header=BB5_1 Depth=1
	movq	-48(%rbp), %r13         # 8-byte Reload
	#DEBUG_VALUE: gsm_dec_LARp_to_rp:LARp <- [RBP+-64]
	#DEBUG_VALUE: gsm_dec_LARp_to_rp:i <- 1
	movl	$16, %edi
	callq	_KPushCDep
	movl	$9, %edi
	movl	$16, %edx
	movl	$29, %ecx
	movl	%r14d, %esi
	movl	%r12d, %r8d
	movl	%ebx, %r9d
	callq	_KPhi4To1
	movl	$1, %edi
	callq	_KWork
	movl	$0, (%rsp)
	movl	$8, %edi
	movl	$5, %esi
	movl	$1, %edx
	movl	$1, %ecx
	movl	$1, %r8d
	movl	$9, %r9d
	callq	_KTimestamp3
	movl	$8, %edi
	movl	$2, %edx
	movq	-56(%rbp), %rsi         # 8-byte Reload
	callq	_KStore
	movq	-64(%rbp), %r12         # 8-byte Reload
.Ltmp275:
	#DEBUG_VALUE: gsm_dec_LARp_to_rp:LARp <- R12
	.loc	4 251 7 is_stmt 1       # gsm_dec.c:251:7
	movw	%r15w, (%r12,%r13)
	jmp	.LBB5_20
.Ltmp276:
.LBB5_10:                               # %cond.false21
                                        #   in Loop: Header=BB5_1 Depth=1
	#DEBUG_VALUE: gsm_dec_LARp_to_rp:LARp <- [RBP+-64]
	#DEBUG_VALUE: gsm_dec_LARp_to_rp:i <- 1
	movl	$4, %edi
	callq	_KWork
	.loc	4 248 24                # gsm_dec.c:248:24
.Ltmp277:
	sarl	$2, %ebx
	leal	26112(%rbx), %eax
	movslq	%eax, %r13
.Ltmp278:
	#DEBUG_VALUE: gsm_dec_LARp_to_rp:ltmp <- EAX
	leaq	32768(%r13), %rax
.Ltmp279:
	movq	%rax, -72(%rbp)         # 8-byte Spill
	movl	$4, (%rsp)
	movl	$21, %r14d
	movl	$21, %edi
	movl	$5, %esi
	movl	$5, %edx
	movl	$1, %ecx
	movl	$5, %r8d
	movl	$14, %r9d
	callq	_KTimestamp3
	movl	$6, (%rsp)
	movl	$24, %r12d
	movl	$24, %edi
	movl	$5, %esi
	movl	$7, %edx
	movl	$1, %ecx
	movl	$7, %r8d
	movl	$14, %r9d
	callq	_KTimestamp3
	callq	_KPopCDep
	movl	$23, %r15d
	cmpq	$65536, -72(%rbp)       # 8-byte Folded Reload
                                        # imm = 0x10000
	jb	.LBB5_12
# BB#11:                                # %cond.true28
                                        #   in Loop: Header=BB5_1 Depth=1
	#DEBUG_VALUE: gsm_dec_LARp_to_rp:LARp <- [RBP+-64]
	#DEBUG_VALUE: gsm_dec_LARp_to_rp:i <- 1
.Ltmp280:
	#DEBUG_VALUE: gsm_dec_LARp_to_rp:ltmp <- EAX
	movl	$24, %r12d
	movl	$24, %edi
	callq	_KPushCDep
	movl	$1, %edi
	callq	_KWork
	.loc	4 248 24 is_stmt 0 discriminator 1 # gsm_dec.c:248:24
	cmpl	$-26112, %ebx           # imm = 0xFFFFFFFFFFFF9A00
	movq	$-32768, %r13           # imm = 0xFFFFFFFFFFFF8000
	movl	$32767, %eax            # imm = 0x7FFF
.Ltmp281:
	cmovgq	%rax, %r13
	movl	$7, (%rsp)
	movl	$20, %r14d
	movl	$20, %edi
	movl	$5, %esi
	movl	$8, %edx
	movl	$1, %ecx
	movl	$8, %r8d
	movl	$14, %r9d
	callq	_KTimestamp3
	callq	_KPopCDep
	.align	16, 0x90
.LBB5_12:                               # %cond.end38
                                        #   in Loop: Header=BB5_1 Depth=1
	#DEBUG_VALUE: gsm_dec_LARp_to_rp:LARp <- [RBP+-64]
	#DEBUG_VALUE: gsm_dec_LARp_to_rp:i <- 1
	movl	$16, %edi
	callq	_KPushCDep
	movl	$7, %edi
	movl	$16, %edx
	movl	$22, %ecx
	movl	%r14d, %esi
	movl	%r15d, %r8d
	movl	%r12d, %r9d
	callq	_KPhi4To1
	movl	$2, %edi
	callq	_KWork
	.loc	4 246 15 is_stmt 1 discriminator 3 # gsm_dec.c:246:15
.Ltmp282:
	negl	%r13d
	movl	$1, (%rsp)
	movl	$4, %edi
	movl	$5, %esi
	movl	$2, %edx
	movl	$1, %ecx
	movl	$2, %r8d
	movl	$7, %r9d
	callq	_KTimestamp3
	movl	$4, %edi
	movl	$2, %edx
	movq	-56(%rbp), %rsi         # 8-byte Reload
	callq	_KStore
	movq	-64(%rbp), %r12         # 8-byte Reload
.Ltmp283:
	#DEBUG_VALUE: gsm_dec_LARp_to_rp:LARp <- R12
	movq	-48(%rbp), %rax         # 8-byte Reload
.Ltmp284:
	.loc	4 246 7 is_stmt 0       # gsm_dec.c:246:7
	movw	%r13w, (%r12,%rax)
	movq	%rax, %r13
	jmp	.LBB5_20
.Ltmp285:
.LBB5_21:                               # %for.cond.pre_exit.for.end
	#DEBUG_VALUE: gsm_dec_LARp_to_rp:i <- 1
	movl	$1, %esi
	movabsq	$723377397767574628, %rdi # imm = 0xA09F3E9207B9464
	callq	_KExitRegion
	xorl	%esi, %esi
	movabsq	$28452301577387218, %rdi # imm = 0x651537B08FFCD2
	addq	$56, %rsp
	popq	%rbx
	popq	%r12
	popq	%r13
	popq	%r14
	popq	%r15
	popq	%rbp
	jmp	_KExitRegion            # TAILCALL
.Ltmp286:
	.size	gsm_dec_LARp_to_rp, .Ltmp286-gsm_dec_LARp_to_rp
.Lfunc_end5:
	.cfi_endproc

	.globl	gsm_dec_Decoder
	.align	16, 0x90
	.type	gsm_dec_Decoder,@function
gsm_dec_Decoder:                        # @gsm_dec_Decoder
.Lfunc_begin6:
	.loc	4 266 0 is_stmt 1       # gsm_dec.c:266:0
	.cfi_startproc
# BB#0:                                 # %entry
	pushq	%rbp
.Ltmp287:
	.cfi_def_cfa_offset 16
.Ltmp288:
	.cfi_offset %rbp, -16
	movq	%rsp, %rbp
.Ltmp289:
	.cfi_def_cfa_register %rbp
	pushq	%r15
	pushq	%r14
	pushq	%r13
	pushq	%r12
	pushq	%rbx
	subq	$504, %rsp              # imm = 0x1F8
.Ltmp290:
	.cfi_offset %rbx, -56
.Ltmp291:
	.cfi_offset %r12, -48
.Ltmp292:
	.cfi_offset %r13, -40
.Ltmp293:
	.cfi_offset %r14, -32
.Ltmp294:
	.cfi_offset %r15, -24
	#DEBUG_VALUE: gsm_dec_Decoder:S <- RDI
	#DEBUG_VALUE: gsm_dec_Decoder:LARcr <- RSI
	#DEBUG_VALUE: gsm_dec_Decoder:Ncr <- RDX
	#DEBUG_VALUE: gsm_dec_Decoder:bcr <- RCX
	#DEBUG_VALUE: gsm_dec_Decoder:Mcr <- R8
	#DEBUG_VALUE: gsm_dec_Decoder:xmaxcr <- R9
	movq	%r9, -480(%rbp)         # 8-byte Spill
.Ltmp295:
	#DEBUG_VALUE: gsm_dec_Decoder:xmaxcr <- [RBP+-480]
	movq	%r8, -488(%rbp)         # 8-byte Spill
.Ltmp296:
	#DEBUG_VALUE: gsm_dec_Decoder:Mcr <- [RBP+-488]
	movq	%rcx, -496(%rbp)        # 8-byte Spill
.Ltmp297:
	#DEBUG_VALUE: gsm_dec_Decoder:bcr <- [RBP+-496]
	movq	%rdx, -504(%rbp)        # 8-byte Spill
.Ltmp298:
	#DEBUG_VALUE: gsm_dec_Decoder:Ncr <- [RBP+-504]
	movq	%rsi, -536(%rbp)        # 8-byte Spill
.Ltmp299:
	#DEBUG_VALUE: gsm_dec_Decoder:LARcr <- [RBP+-536]
	movq	%rdi, %r15
.Ltmp300:
	#DEBUG_VALUE: gsm_dec_Decoder:S <- R15
	movq	%r15, -528(%rbp)        # 8-byte Spill
	#DEBUG_VALUE: gsm_dec_Decoder:s <- undef
	movq	16(%rbp), %rax
	#DEBUG_VALUE: gsm_dec_Decoder:xMcr <- [RBP+-512]
	movq	%rax, -512(%rbp)        # 8-byte Spill
	movabsq	$-7031311659167431081, %rdi # imm = 0x9E6BC34CAA434657
	movabsq	$2483855098134820281, %r14 # imm = 0x22786D0D3DDE75B9
	xorl	%ebx, %ebx
	xorl	%esi, %esi
	callq	_KEnterRegion
	movl	$25, %edi
	movl	$4, %esi
	callq	_KPrepRTable
	.loc	4 269 15 prologue_end   # gsm_dec.c:269:15
.Ltmp301:
	leaq	240(%r15), %r13
.Ltmp302:
	#DEBUG_VALUE: gsm_dec_Decoder:j <- 0
	#DEBUG_VALUE: gsm_dec_Decoder:drp <- R13
	#DEBUG_VALUE: gsm_dec_Decoder:S <- [RBP+-528]
	movl	$6, %edi
	callq	_KInduction
	movl	$21, -460(%rbp)         # 4-byte Folded Spill
	movl	$21, %edi
	movl	$21, %esi
	xorl	%edx, %edx
	callq	_KTimestamp1
	movl	$12, -468(%rbp)         # 4-byte Folded Spill
	movl	$12, %edi
	movl	$12, %esi
	xorl	%edx, %edx
	callq	_KTimestamp1
	movl	$8, -456(%rbp)          # 4-byte Folded Spill
	movl	$8, %edi
	movl	$8, %esi
	xorl	%edx, %edx
	callq	_KTimestamp1
	movl	$15, %r12d
	movl	$15, %edi
	movl	$15, %esi
	xorl	%edx, %edx
	callq	_KTimestamp1
	movl	$18, -464(%rbp)         # 4-byte Folded Spill
	movl	$18, %edi
	movl	$18, %esi
	xorl	%edx, %edx
	callq	_KTimestamp1
	movl	$1, %esi
	movq	%r14, %rdi
	callq	_KEnterRegion
	leaq	-448(%rbp), %rax
	movq	%rax, -520(%rbp)        # 8-byte Spill
	movabsq	$7017104445219395904, %r15 # imm = 0x6161C350911DD940
	movl	$0, %r14d
	jmp	.LBB6_1
.Ltmp303:
	.align	16, 0x90
.LBB6_4:                                # %for.cond3.pre_exit.for.inc8
                                        #   in Loop: Header=BB6_1 Depth=1
	#DEBUG_VALUE: gsm_dec_Decoder:S <- [RBP+-528]
	#DEBUG_VALUE: gsm_dec_Decoder:LARcr <- [RBP+-536]
	#DEBUG_VALUE: gsm_dec_Decoder:s <- undef
	#DEBUG_VALUE: gsm_dec_Decoder:drp <- R13
	#DEBUG_VALUE: gsm_dec_Decoder:j <- 0
	#DEBUG_VALUE: gsm_dec_Decoder:k <- 0
	movl	$1, %esi
	movabsq	$-6423381592214179758, %rdi # imm = 0xA6DB9079734A7052
	callq	_KExitRegion
	movl	$10, %r14d
	movl	$10, %edi
	callq	_KPushCDep
	movq	-456(%rbp), %rbx        # 8-byte Reload
	.loc	4 272 3                 # gsm_dec.c:272:3
.Ltmp304:
	incq	%rbx
	.loc	4 272 29 is_stmt 0      # gsm_dec.c:272:29
	addq	$2, -480(%rbp)          # 8-byte Folded Spill
	#DEBUG_VALUE: gsm_dec_Decoder:xmaxcr <- [RBP+-480]
	.loc	4 272 39                # gsm_dec.c:272:39
	addq	$2, -496(%rbp)          # 8-byte Folded Spill
	#DEBUG_VALUE: gsm_dec_Decoder:bcr <- [RBP+-496]
	.loc	4 272 46                # gsm_dec.c:272:46
	addq	$2, -504(%rbp)          # 8-byte Folded Spill
	#DEBUG_VALUE: gsm_dec_Decoder:Ncr <- [RBP+-504]
	.loc	4 272 53                # gsm_dec.c:272:53
	addq	$2, -488(%rbp)          # 8-byte Folded Spill
	#DEBUG_VALUE: gsm_dec_Decoder:Mcr <- [RBP+-488]
	.loc	4 272 60                # gsm_dec.c:272:60
	addq	$26, -512(%rbp)         # 8-byte Folded Spill
	#DEBUG_VALUE: gsm_dec_Decoder:xMcr <- [RBP+-512]
	movl	$19, -464(%rbp)         # 4-byte Folded Spill
	movl	$19, %edi
	movl	$17, %esi
	xorl	%edx, %edx
	movl	$10, %ecx
	xorl	%r8d, %r8d
	callq	_KTimestamp2
	movl	$9, -456(%rbp)          # 4-byte Folded Spill
	movl	$9, %edi
	movl	$7, %esi
	xorl	%edx, %edx
	movl	$10, %ecx
	xorl	%r8d, %r8d
	callq	_KTimestamp2
	movl	$22, -460(%rbp)         # 4-byte Folded Spill
	movl	$22, %edi
	movl	$20, %esi
	xorl	%edx, %edx
	movl	$10, %ecx
	xorl	%r8d, %r8d
	callq	_KTimestamp2
	movl	$16, %r12d
	movl	$16, %edi
	movl	$14, %esi
	xorl	%edx, %edx
	movl	$10, %ecx
	xorl	%r8d, %r8d
	callq	_KTimestamp2
	movl	$13, -468(%rbp)         # 4-byte Folded Spill
	movl	$13, %edi
	movl	$11, %esi
	xorl	%edx, %edx
	movl	$10, %ecx
	xorl	%r8d, %r8d
	callq	_KTimestamp2
	callq	_KPopCDep
	movl	$2, %esi
	movabsq	$180684733127471854, %rdi # imm = 0x281EBCEB66632EE
	callq	_KExitRegion
	addq	$80, -520(%rbp)         # 8-byte Folded Spill
.Ltmp305:
.LBB6_1:                                # %for.cond
                                        # =>This Loop Header: Depth=1
                                        #     Child Loop BB6_3 Depth 2
	#DEBUG_VALUE: gsm_dec_Decoder:S <- [RBP+-528]
	#DEBUG_VALUE: gsm_dec_Decoder:LARcr <- [RBP+-536]
	#DEBUG_VALUE: gsm_dec_Decoder:s <- undef
	#DEBUG_VALUE: gsm_dec_Decoder:drp <- R13
	#DEBUG_VALUE: gsm_dec_Decoder:j <- 0
	movl	$14, %edi
	movl	%r12d, %esi
	movl	%r14d, %edx
	callq	_KPhi1To1
	movl	$11, %edi
	movl	-468(%rbp), %esi        # 4-byte Reload
	movl	%r14d, %edx
	callq	_KPhi1To1
	movl	$20, %edi
	movl	-460(%rbp), %esi        # 4-byte Reload
	movl	%r14d, %edx
	callq	_KPhi1To1
	movl	$17, %edi
	movl	-464(%rbp), %esi        # 4-byte Reload
	movl	%r14d, %edx
	callq	_KPhi1To1
	movl	$7, %edi
	movl	-456(%rbp), %esi        # 4-byte Reload
	movl	%r14d, %edx
	callq	_KPhi1To1
	movl	$1, %edi
	callq	_KWork
	movl	$14, %edi
	movl	$14, %esi
	xorl	%edx, %edx
	callq	_KTimestamp1
	movl	$10, %edi
	movl	$6, %esi
	movl	$1, %edx
	callq	_KTimestamp1
	movl	$11, %edi
	movl	$10, %esi
	callq	_KPhiAddCond
	movl	$20, %edi
	movl	$10, %esi
	callq	_KPhiAddCond
	movl	$17, %edi
	movl	$17, %esi
	xorl	%edx, %edx
	callq	_KTimestamp1
	movl	$7, %edi
	movl	$7, %esi
	xorl	%edx, %edx
	callq	_KTimestamp1
	movl	$17, %edi
	movl	$10, %esi
	callq	_KPhiAddCond
	movl	$20, %edi
	movl	$20, %esi
	xorl	%edx, %edx
	callq	_KTimestamp1
	movl	$14, %edi
	movl	$10, %esi
	callq	_KPhiAddCond
	movl	$7, %edi
	movl	$10, %esi
	callq	_KPhiAddCond
	movl	$11, %edi
	movl	$11, %esi
	xorl	%edx, %edx
	callq	_KTimestamp1
	.loc	4 272 3                 # gsm_dec.c:272:3
	cmpq	$4, %rbx
	je	.LBB6_5
.Ltmp306:
# BB#2:                                 # %for.body
                                        #   in Loop: Header=BB6_1 Depth=1
	#DEBUG_VALUE: gsm_dec_Decoder:S <- [RBP+-528]
	#DEBUG_VALUE: gsm_dec_Decoder:LARcr <- [RBP+-536]
	#DEBUG_VALUE: gsm_dec_Decoder:s <- undef
	#DEBUG_VALUE: gsm_dec_Decoder:drp <- R13
	#DEBUG_VALUE: gsm_dec_Decoder:j <- 0
	movq	%rbx, -456(%rbp)        # 8-byte Spill
	movl	$2, %esi
	movabsq	$180684733127471854, %rdi # imm = 0x281EBCEB66632EE
	callq	_KEnterRegion
	movl	$10, %edi
	callq	_KPushCDep
	movl	$16, %edi
	callq	_KWork
	movl	$1, %esi
	movl	$2, %edx
	movq	-480(%rbp), %rbx        # 8-byte Reload
	movq	%rbx, %rdi
	callq	_KLoad0
	.loc	4 274 5 is_stmt 1       # gsm_dec.c:274:5
.Ltmp307:
	movswl	(%rbx), %r14d
	movl	$2, %esi
	movl	$2, %edx
	movq	-488(%rbp), %rbx        # 8-byte Reload
	movq	%rbx, %rdi
	callq	_KLoad0
	movswl	(%rbx), %ebx
	xorl	%esi, %esi
	movabsq	$-6667748677719223166, %rdi # imm = 0xA37765E7A4F71482
	callq	_KPrepCall
	movl	$2, %edi
	movl	$2, %esi
	xorl	%edx, %edx
	callq	_KTimestamp1
	movl	$2, %edi
	callq	_KEnqArg
	movl	$1, %edi
	movl	$1, %esi
	xorl	%edx, %edx
	callq	_KTimestamp1
	movl	$1, %edi
	callq	_KEnqArg
	movl	%r14d, %edi
	movl	%ebx, %esi
	movq	-512(%rbp), %rdx        # 8-byte Reload
	leaq	-128(%rbp), %r12
	movq	%r12, %rcx
	callq	gsm_dec_RPE_Decoding
	movl	$3, %esi
	movl	$2, %edx
	movq	-504(%rbp), %rbx        # 8-byte Reload
	movq	%rbx, %rdi
	callq	_KLoad0
	.loc	4 275 5                 # gsm_dec.c:275:5
	movswl	(%rbx), %r14d
	movl	$4, %esi
	movl	$2, %edx
	movq	-496(%rbp), %rbx        # 8-byte Reload
	movq	%rbx, %rdi
	callq	_KLoad0
	movswl	(%rbx), %ebx
	xorl	%esi, %esi
	movabsq	$-7414848704348245021, %rdi # imm = 0x99192A63920EB3E3
	callq	_KPrepCall
	movl	$4, %edi
	movl	$4, %esi
	xorl	%edx, %edx
	callq	_KTimestamp1
	movl	$4, %edi
	callq	_KEnqArg
	movl	$3, %edi
	movl	$3, %esi
	xorl	%edx, %edx
	callq	_KTimestamp1
	movl	$3, %edi
	callq	_KEnqArg
	movq	-528(%rbp), %rdi        # 8-byte Reload
	movl	%r14d, %esi
	movl	%ebx, %edx
	movq	%r12, %rcx
	movq	%r13, %r8
	callq	gsm_dec_Long_Term_Synthesis_Filtering
	#DEBUG_VALUE: gsm_dec_Decoder:k <- 0
	movl	$23, %edi
	callq	_KInduction
	callq	_KPopCDep
	movl	$1, %esi
	movabsq	$-6423381592214179758, %rdi # imm = 0xA6DB9079734A7052
	callq	_KEnterRegion
	movl	$10, %edi
	callq	_KPushCDep
	movl	$1, %edi
	callq	_KWork
	callq	_KPopCDep
	movl	$24, %edi
	movl	$10, %esi
	movl	$1, %edx
	movl	$23, %ecx
	movl	$1, %r8d
	callq	_KTimestamp2
	movq	-520(%rbp), %r14        # 8-byte Reload
	xorl	%ebx, %ebx
.Ltmp308:
	.align	16, 0x90
.LBB6_3:                                # %for.body5
                                        #   Parent Loop BB6_1 Depth=1
                                        # =>  This Inner Loop Header: Depth=2
	#DEBUG_VALUE: gsm_dec_Decoder:S <- [RBP+-528]
	#DEBUG_VALUE: gsm_dec_Decoder:LARcr <- [RBP+-536]
	#DEBUG_VALUE: gsm_dec_Decoder:s <- undef
	#DEBUG_VALUE: gsm_dec_Decoder:drp <- R13
	#DEBUG_VALUE: gsm_dec_Decoder:j <- 0
	#DEBUG_VALUE: gsm_dec_Decoder:k <- 0
	movl	$2, %esi
	movq	%r15, %rdi
	callq	_KEnterRegion
	movl	$24, %edi
	callq	_KPushCDep
	movl	$8, %edi
	callq	_KWork
	leaq	(%r13,%rbx), %rdi
	movl	$5, %esi
	movl	$2, %edx
	callq	_KLoad0
	.loc	4 279 24                # gsm_dec.c:279:24
.Ltmp309:
	movw	(%r13,%rbx), %r12w
	movl	$5, %edi
	movl	$5, %esi
	xorl	%edx, %edx
	callq	_KTimestamp1
	movl	$5, %edi
	movl	$2, %edx
	movq	%r14, %rsi
	callq	_KStore
	.loc	4 279 7 is_stmt 0       # gsm_dec.c:279:7
	movw	%r12w, (%r14)
	callq	_KPopCDep
	movl	$2, %esi
	movq	%r15, %rdi
	callq	_KExitRegion
	movl	$10, %edi
	callq	_KPushCDep
	movl	$1, %edi
	callq	_KWork
	callq	_KPopCDep
	movl	$24, %edi
	movl	$10, %esi
	movl	$1, %edx
	movl	$23, %ecx
	movl	$1, %r8d
	callq	_KTimestamp2
.Ltmp310:
	.loc	4 278 5 is_stmt 1       # gsm_dec.c:278:5
	addq	$2, %rbx
	addq	$2, %r14
	cmpq	$80, %rbx
	jne	.LBB6_3
	jmp	.LBB6_4
.Ltmp311:
.LBB6_5:                                # %for.cond.pre_exit.for.end14
	#DEBUG_VALUE: gsm_dec_Decoder:S <- [RBP+-528]
	#DEBUG_VALUE: gsm_dec_Decoder:LARcr <- [RBP+-536]
	#DEBUG_VALUE: gsm_dec_Decoder:s <- undef
	#DEBUG_VALUE: gsm_dec_Decoder:j <- 0
	movl	$1, %esi
	movabsq	$2483855098134820281, %rdi # imm = 0x22786D0D3DDE75B9
	callq	_KExitRegion
	movabsq	$-5944970672388686879, %rdi # imm = 0xAD7F38ABD8283BE1
	xorl	%esi, %esi
	callq	_KPrepCall
	leaq	-448(%rbp), %rdx
	movq	-528(%rbp), %r14        # 8-byte Reload
.Ltmp312:
	#DEBUG_VALUE: gsm_dec_Decoder:S <- R14
	.loc	4 282 3                 # gsm_dec.c:282:3
	movq	%r14, %rdi
	movq	-536(%rbp), %rsi        # 8-byte Reload
	movq	24(%rbp), %rbx
.Ltmp313:
	#DEBUG_VALUE: gsm_dec_Decoder:s <- RBX
	movq	%rbx, %rcx
	callq	gsm_dec_Short_Term_Synthesis_Filter
	movabsq	$4996235783493286299, %rdi # imm = 0x455631F95136799B
	xorl	%esi, %esi
	callq	_KPrepCall
	.loc	4 283 3                 # gsm_dec.c:283:3
	movq	%r14, %rdi
	movq	%rbx, %rsi
	callq	gsm_dec_Postprocessing
	xorl	%esi, %esi
	movabsq	$-7031311659167431081, %rdi # imm = 0x9E6BC34CAA434657
	callq	_KExitRegion
	.loc	4 284 1                 # gsm_dec.c:284:1
	addq	$504, %rsp              # imm = 0x1F8
	popq	%rbx
.Ltmp314:
	popq	%r12
	popq	%r13
	popq	%r14
.Ltmp315:
	popq	%r15
	popq	%rbp
	retq
.Ltmp316:
.Ltmp317:
	.size	gsm_dec_Decoder, .Ltmp317-gsm_dec_Decoder
.Lfunc_end6:
	.cfi_endproc

	.globl	gsm_dec_RPE_Decoding
	.align	16, 0x90
	.type	gsm_dec_RPE_Decoding,@function
gsm_dec_RPE_Decoding:                   # @gsm_dec_RPE_Decoding
.Lfunc_begin7:
	.loc	4 334 0                 # gsm_dec.c:334:0
	.cfi_startproc
# BB#0:                                 # %entry
	pushq	%rbp
.Ltmp318:
	.cfi_def_cfa_offset 16
.Ltmp319:
	.cfi_offset %rbp, -16
	movq	%rsp, %rbp
.Ltmp320:
	.cfi_def_cfa_register %rbp
	pushq	%r15
	pushq	%r14
	pushq	%r13
	pushq	%r12
	pushq	%rbx
	subq	$56, %rsp
.Ltmp321:
	.cfi_offset %rbx, -56
.Ltmp322:
	.cfi_offset %r12, -48
.Ltmp323:
	.cfi_offset %r13, -40
.Ltmp324:
	.cfi_offset %r14, -32
.Ltmp325:
	.cfi_offset %r15, -24
	#DEBUG_VALUE: gsm_dec_RPE_Decoding:xmaxcr <- EDI
	#DEBUG_VALUE: gsm_dec_RPE_Decoding:Mcr <- ESI
	#DEBUG_VALUE: gsm_dec_RPE_Decoding:xMcr <- RDX
	#DEBUG_VALUE: gsm_dec_RPE_Decoding:erp <- RCX
	movq	%rcx, -88(%rbp)         # 8-byte Spill
.Ltmp326:
	#DEBUG_VALUE: gsm_dec_RPE_Decoding:erp <- [RBP+-88]
	movq	%rdx, %r13
.Ltmp327:
	#DEBUG_VALUE: gsm_dec_RPE_Decoding:xMcr <- R13
	movl	%esi, %r12d
.Ltmp328:
	#DEBUG_VALUE: gsm_dec_RPE_Decoding:Mcr <- R12D
	movl	%edi, %ebx
.Ltmp329:
	#DEBUG_VALUE: gsm_dec_RPE_Decoding:xmaxcr <- EBX
	movabsq	$5325037707011413644, %rdi # imm = 0x49E65594CDF9D68C
	xorl	%esi, %esi
	callq	_KEnterRegion
	movl	$5, %edi
	xorl	%esi, %esi
	callq	_KPrepRTable
	movl	$2, %edi
	callq	_KDeqArg
	movl	$1, %edi
	callq	_KDeqArg
	movl	$8, %edi
	callq	_KWork
	movl	$1, %edi
	movl	$1, %esi
	xorl	%edx, %edx
	callq	_KTimestamp1
	movabsq	$7328473498123439080, %rdi # imm = 0x65B3F7D191830BE8
	xorl	%esi, %esi
	callq	_KPrepCall
	movl	$1, %edi
	callq	_KEnqArg
	leaq	-42(%rbp), %r14
.Ltmp330:
	#DEBUG_VALUE: gsm_dec_RPE_Decoding:exp <- [R14+0]
	leaq	-44(%rbp), %r15
.Ltmp331:
	#DEBUG_VALUE: gsm_dec_RPE_Decoding:mant <- [R15+0]
	.loc	4 338 3 prologue_end    # gsm_dec.c:338:3
	movl	%ebx, %edi
.Ltmp332:
	#DEBUG_VALUE: gsm_dec_RPE_Decoding:xmaxcr <- EDI
	movq	%r14, %rsi
	movq	%r15, %rdx
	callq	gsm_dec_APCM_quantization_xmaxc_to_exp_mant
	movl	$3, %esi
	movl	$2, %edx
	movq	%r15, %rdi
.Ltmp333:
	callq	_KLoad0
	.loc	4 339 3                 # gsm_dec.c:339:3
	movswl	-44(%rbp), %r15d
.Ltmp334:
	movl	$4, %esi
	movl	$2, %edx
	movq	%r14, %rdi
	callq	_KLoad0
	movswl	-42(%rbp), %ebx
	movabsq	$5011544316729659240, %rdi # imm = 0x458C9500F6CC8F68
	xorl	%esi, %esi
	callq	_KPrepCall
	movl	$4, %edi
	movl	$4, %esi
	xorl	%edx, %edx
	callq	_KTimestamp1
	movl	$4, %edi
	callq	_KEnqArg
	movl	$3, %edi
	movl	$3, %esi
	xorl	%edx, %edx
	callq	_KTimestamp1
	movl	$3, %edi
	callq	_KEnqArg
	leaq	-80(%rbp), %r14
.Ltmp335:
	movq	%r13, %rdi
.Ltmp336:
	#DEBUG_VALUE: gsm_dec_RPE_Decoding:xMcr <- RDI
	movl	%r15d, %esi
	movl	%ebx, %edx
	movq	%r14, %rcx
	callq	gsm_dec_APCM_inverse_quantization
	movl	$2, %edi
.Ltmp337:
	movl	$2, %esi
	xorl	%edx, %edx
	callq	_KTimestamp1
	movabsq	$-7311068023337268634, %rdi # imm = 0x9A89DE5E5443CA66
	xorl	%esi, %esi
	callq	_KPrepCall
	movl	$2, %edi
	callq	_KEnqArg
	.loc	4 340 3                 # gsm_dec.c:340:3
	movl	%r12d, %edi
.Ltmp338:
	#DEBUG_VALUE: gsm_dec_RPE_Decoding:Mcr <- EDI
	movq	%r14, %rsi
	movq	-88(%rbp), %rdx         # 8-byte Reload
.Ltmp339:
	#DEBUG_VALUE: gsm_dec_RPE_Decoding:erp <- RDX
	callq	gsm_dec_RPE_grid_positioning
	xorl	%esi, %esi
	movabsq	$5325037707011413644, %rdi # imm = 0x49E65594CDF9D68C
.Ltmp340:
	callq	_KExitRegion
	.loc	4 341 1                 # gsm_dec.c:341:1
	addq	$56, %rsp
	popq	%rbx
	popq	%r12
	popq	%r13
	popq	%r14
	popq	%r15
	popq	%rbp
	retq
.Ltmp341:
.Ltmp342:
	.size	gsm_dec_RPE_Decoding, .Ltmp342-gsm_dec_RPE_Decoding
.Lfunc_end7:
	.cfi_endproc

	.globl	gsm_dec_Long_Term_Synthesis_Filtering
	.align	16, 0x90
	.type	gsm_dec_Long_Term_Synthesis_Filtering,@function
gsm_dec_Long_Term_Synthesis_Filtering:  # @gsm_dec_Long_Term_Synthesis_Filtering
.Lfunc_begin8:
	.loc	4 297 0                 # gsm_dec.c:297:0
	.cfi_startproc
# BB#0:                                 # %entry
	pushq	%rbp
.Ltmp343:
	.cfi_def_cfa_offset 16
.Ltmp344:
	.cfi_offset %rbp, -16
	movq	%rsp, %rbp
.Ltmp345:
	.cfi_def_cfa_register %rbp
	pushq	%r15
	pushq	%r14
	pushq	%r13
	pushq	%r12
	pushq	%rbx
	subq	$56, %rsp
.Ltmp346:
	.cfi_offset %rbx, -56
.Ltmp347:
	.cfi_offset %r12, -48
.Ltmp348:
	.cfi_offset %r13, -40
.Ltmp349:
	.cfi_offset %r14, -32
.Ltmp350:
	.cfi_offset %r15, -24
	#DEBUG_VALUE: gsm_dec_Long_Term_Synthesis_Filtering:S <- RDI
	#DEBUG_VALUE: gsm_dec_Long_Term_Synthesis_Filtering:Ncr <- ESI
	#DEBUG_VALUE: gsm_dec_Long_Term_Synthesis_Filtering:bcr <- EDX
	#DEBUG_VALUE: gsm_dec_Long_Term_Synthesis_Filtering:erp <- RCX
	#DEBUG_VALUE: gsm_dec_Long_Term_Synthesis_Filtering:drp <- R8
	movq	%r8, %rbx
.Ltmp351:
	#DEBUG_VALUE: gsm_dec_Long_Term_Synthesis_Filtering:drp <- RBX
	movq	%rbx, -72(%rbp)         # 8-byte Spill
	movq	%rcx, -48(%rbp)         # 8-byte Spill
.Ltmp352:
	#DEBUG_VALUE: gsm_dec_Long_Term_Synthesis_Filtering:erp <- [RBP+-48]
	movl	%edx, -56(%rbp)         # 4-byte Spill
.Ltmp353:
	#DEBUG_VALUE: gsm_dec_Long_Term_Synthesis_Filtering:bcr <- [RBP+-56]
	movl	%esi, %r13d
.Ltmp354:
	#DEBUG_VALUE: gsm_dec_Long_Term_Synthesis_Filtering:Ncr <- R13D
	movq	%rdi, %r12
.Ltmp355:
	#DEBUG_VALUE: gsm_dec_Long_Term_Synthesis_Filtering:S <- R12
	movabsq	$-5933928881579520529, %rdi # imm = 0xADA6731F1B058DEF
	xorl	%esi, %esi
	callq	_KEnterRegion
	movl	$24, %edi
	movl	$2, %esi
	callq	_KPrepRTable
	movl	$1, %edi
	callq	_KWork
	movl	$2, %edi
	callq	_KDeqArg
	movl	$1, %edi
	callq	_KDeqArg
	movl	$17, %edi
	movl	$1, %esi
	movl	$1, %edx
	callq	_KTimestamp1
	.loc	4 304 8 prologue_end    # gsm_dec.c:304:8
.Ltmp356:
	cmpl	$40, %r13d
	jl	.LBB8_2
.Ltmp357:
# BB#1:                                 # %lor.lhs.false
	#DEBUG_VALUE: gsm_dec_Long_Term_Synthesis_Filtering:S <- R12
	#DEBUG_VALUE: gsm_dec_Long_Term_Synthesis_Filtering:Ncr <- R13D
	#DEBUG_VALUE: gsm_dec_Long_Term_Synthesis_Filtering:bcr <- [RBP+-56]
	#DEBUG_VALUE: gsm_dec_Long_Term_Synthesis_Filtering:erp <- [RBP+-48]
	#DEBUG_VALUE: gsm_dec_Long_Term_Synthesis_Filtering:drp <- RBX
	movl	$17, %edi
	callq	_KPushCDep
	movl	$1, %edi
	callq	_KWork
	movl	$18, %edi
	movl	$1, %esi
	movl	$2, %edx
	callq	_KTimestamp1
	callq	_KPopCDep
	movswl	%r13w, %eax
	cmpl	$121, %eax
	jl	.LBB8_3
.Ltmp358:
.LBB8_2:                                # %cond.true
	#DEBUG_VALUE: gsm_dec_Long_Term_Synthesis_Filtering:S <- R12
	#DEBUG_VALUE: gsm_dec_Long_Term_Synthesis_Filtering:bcr <- [RBP+-56]
	#DEBUG_VALUE: gsm_dec_Long_Term_Synthesis_Filtering:erp <- [RBP+-48]
	#DEBUG_VALUE: gsm_dec_Long_Term_Synthesis_Filtering:drp <- RBX
	movl	$17, %edi
	callq	_KPushCDep
	movl	$4, %edi
	callq	_KWork
	.loc	4 304 32 is_stmt 0 discriminator 3 # gsm_dec.c:304:32
.Ltmp359:
	leaq	630(%r12), %r14
	movl	$3, %r15d
	movl	$3, %esi
	movl	$2, %edx
	movq	%r14, %rdi
	callq	_KLoad0
	movw	630(%r12), %r13w
	movl	$3, %edi
	movl	$3, %esi
	xorl	%edx, %edx
	callq	_KTimestamp1
	callq	_KPopCDep
	xorl	%ecx, %ecx
	jmp	.LBB8_4
.Ltmp360:
.LBB8_3:                                # %cond.false
	#DEBUG_VALUE: gsm_dec_Long_Term_Synthesis_Filtering:S <- R12
	#DEBUG_VALUE: gsm_dec_Long_Term_Synthesis_Filtering:Ncr <- R13D
	#DEBUG_VALUE: gsm_dec_Long_Term_Synthesis_Filtering:bcr <- [RBP+-56]
	#DEBUG_VALUE: gsm_dec_Long_Term_Synthesis_Filtering:erp <- [RBP+-48]
	#DEBUG_VALUE: gsm_dec_Long_Term_Synthesis_Filtering:drp <- RBX
	movl	$18, %edi
	callq	_KPushCDep
	movl	$1, %edi
	movl	$1, %esi
	xorl	%edx, %edx
	callq	_KTimestamp1
	callq	_KPopCDep
	.loc	4 305 3 is_stmt 1       # gsm_dec.c:305:3
	addq	$630, %r12              # imm = 0x276
.Ltmp361:
	movl	$1, %r15d
	movq	%r12, %r14
	movl	$18, %ecx
.Ltmp362:
.LBB8_4:                                # %cond.end
	#DEBUG_VALUE: gsm_dec_Long_Term_Synthesis_Filtering:bcr <- [RBP+-56]
	#DEBUG_VALUE: gsm_dec_Long_Term_Synthesis_Filtering:erp <- [RBP+-48]
	#DEBUG_VALUE: gsm_dec_Long_Term_Synthesis_Filtering:drp <- RBX
	#DEBUG_VALUE: gsm_dec_Long_Term_Synthesis_Filtering:Nr <- R13W
	movl	$5, %edi
	movl	$17, %edx
	movl	%r15d, %esi
	callq	_KPhi2To1
	movl	$5, %edi
	callq	_KWork
	xorl	%r12d, %r12d
	movl	$4, %edi
	movl	$5, %esi
	xorl	%edx, %edx
	callq	_KTimestamp1
	movl	$4, %edi
	movl	$2, %edx
	movq	%r14, %rsi
	callq	_KStore
	movw	%r13w, (%r14)
	.loc	4 309 9                 # gsm_dec.c:309:9
	movl	-56(%rbp), %eax         # 4-byte Reload
	movswq	%ax, %r14
	leaq	gsm_dec_QLB(%r14,%r14), %rdi
	movl	$6, %esi
	movl	$7, %edx
	movl	$2, %ecx
	callq	_KLoad1
	.loc	4 317 12                # gsm_dec.c:317:12
.Ltmp363:
	movswq	gsm_dec_QLB(%r14,%r14), %r14
.Ltmp364:
	#DEBUG_VALUE: gsm_dec_Long_Term_Synthesis_Filtering:k <- 0
	movl	$13, %edi
	callq	_KInduction
	movl	$6, %edi
	movl	$6, %esi
	xorl	%edx, %edx
	callq	_KTimestamp1
	movl	$1, %esi
	movabsq	$-2186691952011868804, %rdi # imm = 0xE1A74F415720857C
	callq	_KEnterRegion
	movl	$1, %edi
	callq	_KWork
	movl	$12, %edi
	movl	$13, %esi
	movl	$1, %edx
	callq	_KTimestamp1
	shlq	$33, %r14
	movq	%r14, -56(%rbp)         # 8-byte Spill
	movswq	%r13w, %rax
.Ltmp365:
	.loc	4 316 3                 # gsm_dec.c:316:3
	addq	%rax, %rax
	movq	%rbx, %rcx
	subq	%rax, %rcx
	movq	%rcx, -64(%rbp)         # 8-byte Spill
	movabsq	$-8818013952954796305, %rbx # imm = 0x85A01F0795B0F6EF
.Ltmp366:
	.align	16, 0x90
.LBB8_5:                                # %for.body
                                        # =>This Inner Loop Header: Depth=1
	#DEBUG_VALUE: gsm_dec_Long_Term_Synthesis_Filtering:erp <- [RBP+-48]
	#DEBUG_VALUE: gsm_dec_Long_Term_Synthesis_Filtering:drp <- RBX
	#DEBUG_VALUE: gsm_dec_Long_Term_Synthesis_Filtering:drp <- [RBP+-72]
	#DEBUG_VALUE: gsm_dec_Long_Term_Synthesis_Filtering:k <- 0
	movl	$2, %esi
	movq	%rbx, %rdi
	callq	_KEnterRegion
	movl	$12, %edi
	callq	_KPushCDep
	movl	$16, %edi
	callq	_KWork
	movq	-64(%rbp), %rbx         # 8-byte Reload
	leaq	(%rbx,%r12), %rdi
	movl	$8, %esi
	movl	$9, %edx
	movl	$2, %ecx
	callq	_KLoad1
	.loc	4 317 12                # gsm_dec.c:317:12
.Ltmp367:
	movswq	(%rbx,%r12), %rbx
	movq	-48(%rbp), %r15         # 8-byte Reload
.Ltmp368:
	#DEBUG_VALUE: gsm_dec_Long_Term_Synthesis_Filtering:erp <- R15
	leaq	(%r15,%r12), %rdi
	movl	$10, %esi
	movl	$2, %edx
	callq	_KLoad0
	.loc	4 318 14                # gsm_dec.c:318:14
	movswq	(%r15,%r12), %rax
.Ltmp369:
	#DEBUG_VALUE: gsm_dec_Long_Term_Synthesis_Filtering:erp <- [RBP+-48]
	imulq	-56(%rbp), %rbx         # 8-byte Folded Reload
	movabsq	$140737488355328, %rcx  # imm = 0x800000000000
	addq	%rcx, %rbx
	sarq	$48, %rbx
	leaq	(%rbx,%rax), %r13
.Ltmp370:
	#DEBUG_VALUE: gsm_dec_Long_Term_Synthesis_Filtering:ltmp <- R13
	leaq	32768(%rbx,%rax), %r15
	movl	$3, 16(%rsp)
	movl	$10, 8(%rsp)
	movl	$7, (%rsp)
	movl	$21, %edi
	movl	$6, %esi
	movl	$7, %edx
	movl	$12, %ecx
	movl	$7, %r8d
	movl	$8, %r9d
	callq	_KTimestamp4
	movl	$1, 16(%rsp)
	movl	$10, 8(%rsp)
	movl	$5, (%rsp)
	movl	$20, %r14d
	movl	$20, %edi
	movl	$6, %esi
	movl	$5, %edx
	movl	$12, %ecx
	movl	$5, %r8d
	movl	$8, %r9d
	callq	_KTimestamp4
	callq	_KPopCDep
	cmpq	$65536, %r15            # imm = 0x10000
	jb	.LBB8_7
.Ltmp371:
# BB#6:                                 # %cond.true25
                                        #   in Loop: Header=BB8_5 Depth=1
	#DEBUG_VALUE: gsm_dec_Long_Term_Synthesis_Filtering:erp <- [RBP+-48]
	#DEBUG_VALUE: gsm_dec_Long_Term_Synthesis_Filtering:drp <- [RBP+-72]
	#DEBUG_VALUE: gsm_dec_Long_Term_Synthesis_Filtering:k <- 0
	#DEBUG_VALUE: gsm_dec_Long_Term_Synthesis_Filtering:ltmp <- R13
	movl	$21, %edi
	callq	_KPushCDep
	movl	$1, %edi
	callq	_KWork
	.loc	4 318 14 is_stmt 0 discriminator 1 # gsm_dec.c:318:14
	testq	%r13, %r13
	movq	$-32768, %r13           # imm = 0xFFFFFFFFFFFF8000
.Ltmp372:
	movl	$32767, %eax            # imm = 0x7FFF
	cmovgq	%rax, %r13
	movl	$4, 16(%rsp)
	movl	$10, 8(%rsp)
	movl	$8, (%rsp)
	movl	$19, %r14d
	movl	$19, %edi
	movl	$6, %esi
	movl	$8, %edx
	movl	$12, %ecx
	movl	$8, %r8d
	movl	$8, %r9d
	callq	_KTimestamp4
	callq	_KPopCDep
.LBB8_7:                                # %cond.end31
                                        #   in Loop: Header=BB8_5 Depth=1
	movabsq	$-8818013952954796305, %rbx # imm = 0x85A01F0795B0F6EF
	#DEBUG_VALUE: gsm_dec_Long_Term_Synthesis_Filtering:erp <- [RBP+-48]
	#DEBUG_VALUE: gsm_dec_Long_Term_Synthesis_Filtering:drp <- [RBP+-72]
	#DEBUG_VALUE: gsm_dec_Long_Term_Synthesis_Filtering:k <- 0
	movl	$12, %edi
	callq	_KPushCDep
	movl	$14, %edi
	movl	$12, %edx
	movl	$21, %ecx
	movl	%r14d, %esi
	callq	_KPhi2To1
	movl	$1, %edi
	callq	_KWork
	movl	$11, %edi
	movl	$12, %esi
	xorl	%edx, %edx
	movl	$14, %ecx
	xorl	%r8d, %r8d
	callq	_KTimestamp2
	movq	-72(%rbp), %r14         # 8-byte Reload
.Ltmp373:
	#DEBUG_VALUE: gsm_dec_Long_Term_Synthesis_Filtering:drp <- RBX
	leaq	(%r14,%r12), %rsi
	movl	$11, %edi
	movl	$2, %edx
	callq	_KStore
	.loc	4 318 5                 # gsm_dec.c:318:5
	movw	%r13w, (%r14,%r12)
	callq	_KPopCDep
	movl	$2, %esi
	movq	%rbx, %rdi
	callq	_KExitRegion
	movl	$1, %edi
	callq	_KWork
	movl	$12, %edi
	movl	$13, %esi
	movl	$1, %edx
	callq	_KTimestamp1
.Ltmp374:
	.loc	4 316 3 is_stmt 1       # gsm_dec.c:316:3
	addq	$2, %r12
	cmpq	$80, %r12
	jne	.LBB8_5
.Ltmp375:
# BB#8:                                 # %for.cond.pre_exit.for.end
	#DEBUG_VALUE: gsm_dec_Long_Term_Synthesis_Filtering:drp <- RBX
	#DEBUG_VALUE: gsm_dec_Long_Term_Synthesis_Filtering:k <- 0
	movabsq	$-4217279597235285396, %r12 # imm = 0xC579368CE849D26C
	movl	$1, %esi
	movabsq	$-2186691952011868804, %rdi # imm = 0xE1A74F415720857C
	callq	_KExitRegion
	movl	$22, %edi
	callq	_KInduction
	movl	$1, %esi
	movq	%r12, %rdi
	callq	_KEnterRegion
	movl	$1, %edi
	callq	_KWork
	movl	$23, %edi
	movl	$22, %esi
	movl	$1, %edx
	callq	_KTimestamp1
	movabsq	$5218919865288982308, %r15 # imm = 0x486D53F769C77F24
	xorl	%ebx, %ebx
.Ltmp376:
	.align	16, 0x90
.LBB8_9:                                # %for.body39
                                        # =>This Inner Loop Header: Depth=1
	#DEBUG_VALUE: gsm_dec_Long_Term_Synthesis_Filtering:drp <- RBX
	#DEBUG_VALUE: gsm_dec_Long_Term_Synthesis_Filtering:k <- 0
	movl	$2, %esi
	movq	%r15, %rdi
	callq	_KEnterRegion
	movl	$23, %edi
	callq	_KPushCDep
	movl	$7, %edi
	callq	_KWork
	leaq	-160(%r14,%rbx), %rdi
	movl	$15, %esi
	movl	$16, %edx
	movl	$2, %ecx
	callq	_KLoad1
	.loc	4 328 21                # gsm_dec.c:328:21
.Ltmp377:
	movw	-160(%r14,%rbx), %r13w
	movl	$15, %edi
	movl	$15, %esi
	xorl	%edx, %edx
	callq	_KTimestamp1
	leaq	-240(%r14,%rbx), %rsi
	movl	$15, %edi
	movl	$2, %edx
	callq	_KStore
	.loc	4 328 5 is_stmt 0       # gsm_dec.c:328:5
	movw	%r13w, -240(%r14,%rbx)
	callq	_KPopCDep
	movl	$2, %esi
	movq	%r15, %rdi
	callq	_KExitRegion
	movl	$1, %edi
	callq	_KWork
	movl	$23, %edi
	movl	$22, %esi
	movl	$1, %edx
	callq	_KTimestamp1
.Ltmp378:
	.loc	4 327 3 is_stmt 1       # gsm_dec.c:327:3
	addq	$2, %rbx
.Ltmp379:
	cmpq	$240, %rbx
	jne	.LBB8_9
.Ltmp380:
# BB#10:                                # %for.cond36.pre_exit.for.end48
	#DEBUG_VALUE: gsm_dec_Long_Term_Synthesis_Filtering:k <- 0
	movl	$1, %esi
	movq	%r12, %rdi
	callq	_KExitRegion
	xorl	%esi, %esi
	movabsq	$-5933928881579520529, %rdi # imm = 0xADA6731F1B058DEF
	addq	$56, %rsp
	popq	%rbx
	popq	%r12
	popq	%r13
	popq	%r14
	popq	%r15
	popq	%rbp
	jmp	_KExitRegion            # TAILCALL
.Ltmp381:
	.size	gsm_dec_Long_Term_Synthesis_Filtering, .Ltmp381-gsm_dec_Long_Term_Synthesis_Filtering
.Lfunc_end8:
	.cfi_endproc

	.globl	gsm_dec_Short_Term_Synthesis_Filter
	.align	16, 0x90
	.type	gsm_dec_Short_Term_Synthesis_Filter,@function
gsm_dec_Short_Term_Synthesis_Filter:    # @gsm_dec_Short_Term_Synthesis_Filter
.Lfunc_begin9:
	.loc	4 546 0                 # gsm_dec.c:546:0
	.cfi_startproc
# BB#0:                                 # %entry
	pushq	%rbp
.Ltmp382:
	.cfi_def_cfa_offset 16
.Ltmp383:
	.cfi_offset %rbp, -16
	movq	%rsp, %rbp
.Ltmp384:
	.cfi_def_cfa_register %rbp
	pushq	%r15
	pushq	%r14
	pushq	%r13
	pushq	%r12
	pushq	%rbx
	subq	$72, %rsp
.Ltmp385:
	.cfi_offset %rbx, -56
.Ltmp386:
	.cfi_offset %r12, -48
.Ltmp387:
	.cfi_offset %r13, -40
.Ltmp388:
	.cfi_offset %r14, -32
.Ltmp389:
	.cfi_offset %r15, -24
	#DEBUG_VALUE: gsm_dec_Short_Term_Synthesis_Filter:S <- RDI
	#DEBUG_VALUE: gsm_dec_Short_Term_Synthesis_Filter:LARcr <- RSI
	#DEBUG_VALUE: gsm_dec_Short_Term_Synthesis_Filter:wt <- RDX
	#DEBUG_VALUE: gsm_dec_Short_Term_Synthesis_Filter:s <- RCX
	movq	%rcx, -88(%rbp)         # 8-byte Spill
.Ltmp390:
	#DEBUG_VALUE: gsm_dec_Short_Term_Synthesis_Filter:s <- [RBP+-88]
	movq	%rdx, -72(%rbp)         # 8-byte Spill
.Ltmp391:
	#DEBUG_VALUE: gsm_dec_Short_Term_Synthesis_Filter:wt <- [RBP+-72]
	movq	%rsi, -96(%rbp)         # 8-byte Spill
.Ltmp392:
	#DEBUG_VALUE: gsm_dec_Short_Term_Synthesis_Filter:LARcr <- [RBP+-96]
	movq	%rdi, %r14
.Ltmp393:
	#DEBUG_VALUE: gsm_dec_Short_Term_Synthesis_Filter:S <- R14
	movq	%r14, -104(%rbp)        # 8-byte Spill
	movabsq	$-3708063720727408340, %rdi # imm = 0xCC8A4FB13187912C
	xorl	%esi, %esi
	callq	_KEnterRegion
	movl	$4, %edi
	xorl	%esi, %esi
	callq	_KPrepRTable
	movl	$10, %edi
	callq	_KWork
	.loc	4 547 28 prologue_end   # gsm_dec.c:547:28
.Ltmp394:
	leaq	628(%r14), %r15
	movl	$1, %esi
	movl	$2, %edx
	movq	%r15, %rdi
	callq	_KLoad0
	.loc	4 547 19 is_stmt 0      # gsm_dec.c:547:19
	movswq	628(%r14), %rax
	shlq	$4, %rax
	leaq	596(%r14,%rax), %rax
.Ltmp395:
	#DEBUG_VALUE: gsm_dec_Short_Term_Synthesis_Filter:LARpp_j <- undef
	movq	%rax, -80(%rbp)         # 8-byte Spill
.Ltmp396:
	#DEBUG_VALUE: gsm_dec_Short_Term_Synthesis_Filter:LARpp_j <- [RBP+-80]
	movl	$2, %esi
	movl	$2, %edx
	movq	%r15, %rdi
	callq	_KLoad0
	.loc	4 548 30 is_stmt 1      # gsm_dec.c:548:30
	movswq	628(%r14), %rbx
	movl	%ebx, %r13d
	xorl	$1, %r13d
	movl	$3, %edi
	movl	$2, %esi
	movl	$1, %edx
	callq	_KTimestamp1
	movl	$3, %edi
	movl	$2, %edx
	movq	%r15, %rsi
	callq	_KStore
	movw	%r13w, 628(%r14)
	.loc	4 548 21 is_stmt 0      # gsm_dec.c:548:21
	xorq	$1, %rbx
	shlq	$4, %rbx
	leaq	596(%r14,%rbx), %r15
.Ltmp397:
	#DEBUG_VALUE: gsm_dec_Short_Term_Synthesis_Filter:LARpp_j_1 <- R15
	movq	%r15, -112(%rbp)        # 8-byte Spill
	movabsq	$-7623198895198263706, %rdi # imm = 0x9634F4FE878EA666
	xorl	%esi, %esi
	callq	_KPrepCall
	.loc	4 552 3 is_stmt 1       # gsm_dec.c:552:3
	movq	-96(%rbp), %rdi         # 8-byte Reload
.Ltmp398:
	#DEBUG_VALUE: gsm_dec_Short_Term_Synthesis_Filter:LARcr <- RDI
	movq	-80(%rbp), %rbx         # 8-byte Reload
.Ltmp399:
	#DEBUG_VALUE: gsm_dec_Short_Term_Synthesis_Filter:LARpp_j <- RBX
	movq	%rbx, %rsi
	callq	gsm_dec_Decoding_of_the_coded_Log_Area_Ratios
	movabsq	$-46815248272199450, %rdi # imm = 0xFF59ADC79CA9F0E6
.Ltmp400:
	xorl	%esi, %esi
	callq	_KPrepCall
	leaq	-64(%rbp), %r12
	.loc	4 554 3                 # gsm_dec.c:554:3
	movq	%r15, %rdi
	movq	%rbx, %rsi
	movq	%rbx, %r13
.Ltmp401:
	#DEBUG_VALUE: gsm_dec_Short_Term_Synthesis_Filter:LARpp_j <- R13
	movq	%r12, %rdx
	callq	gsm_dec_Coefficients_0_12
	movabsq	$-110943136742169957, %rdi # imm = 0xFE75D9CE1037229B
	xorl	%esi, %esi
	callq	_KPrepCall
	.loc	4 555 3                 # gsm_dec.c:555:3
	movq	%r12, %rdi
	callq	gsm_dec_LARp_to_rp
	movabsq	$1013288482092138152, %rdi # imm = 0xE0FEC817E18BEA8
	xorl	%esi, %esi
	callq	_KPrepCall
	callq	_KEnqArgConst
	movl	$13, %edx
	.loc	4 556 3                 # gsm_dec.c:556:3
	movq	%r14, %rdi
.Ltmp402:
	#DEBUG_VALUE: gsm_dec_Short_Term_Synthesis_Filter:S <- [RBP+-104]
	movq	%r12, %rsi
	movq	-72(%rbp), %rbx         # 8-byte Reload
.Ltmp403:
	#DEBUG_VALUE: gsm_dec_Short_Term_Synthesis_Filter:wt <- RBX
	movq	%rbx, %rcx
	movq	-88(%rbp), %r14         # 8-byte Reload
.Ltmp404:
	#DEBUG_VALUE: gsm_dec_Short_Term_Synthesis_Filter:s <- R14
	movq	%r14, %r8
	callq	gsm_dec_Short_term_synthesis_filtering
	movabsq	$4347854211656427869, %rdi # imm = 0x3C56AE5E9CF7A95D
	xorl	%esi, %esi
	callq	_KPrepCall
	.loc	4 558 3                 # gsm_dec.c:558:3
	movq	%r15, %rdi
.Ltmp405:
	#DEBUG_VALUE: gsm_dec_Short_Term_Synthesis_Filter:LARpp_j_1 <- [RBP+-112]
	movq	%r13, %rsi
.Ltmp406:
	#DEBUG_VALUE: gsm_dec_Short_Term_Synthesis_Filter:LARpp_j <- [RBP+-80]
	movq	%r12, %rdx
	callq	gsm_dec_Coefficients_13_26
	movabsq	$-6005918250007166191, %rdi # imm = 0xACA6B12C1E498311
	xorl	%esi, %esi
	callq	_KPrepCall
	.loc	4 559 3                 # gsm_dec.c:559:3
	movq	%r12, %rdi
	callq	gsm_dec_LARp_to_rp
	.loc	4 560 56                # gsm_dec.c:560:56
	leaq	26(%rbx), %r15
.Ltmp407:
	#DEBUG_VALUE: gsm_dec_Short_Term_Synthesis_Filter:wt <- [RBP+-72]
	.loc	4 560 65 is_stmt 0      # gsm_dec.c:560:65
	leaq	26(%r14), %rbx
	movabsq	$-6418930654997119455, %rdi # imm = 0xA6EB60940707FE21
	xorl	%esi, %esi
	callq	_KPrepCall
	callq	_KEnqArgConst
	movl	$14, %edx
	movq	-104(%rbp), %r13        # 8-byte Reload
.Ltmp408:
	#DEBUG_VALUE: gsm_dec_Short_Term_Synthesis_Filter:S <- R13
	.loc	4 560 3                 # gsm_dec.c:560:3
	movq	%r13, %rdi
	movq	%r12, %rsi
	movq	%r15, %rcx
	movq	%rbx, %r8
	callq	gsm_dec_Short_term_synthesis_filtering
	movabsq	$-5124131725396196524, %rdi # imm = 0xB8E36D5835734354
	xorl	%esi, %esi
	callq	_KPrepCall
	.loc	4 562 3 is_stmt 1       # gsm_dec.c:562:3
	movq	-112(%rbp), %rdi        # 8-byte Reload
	movq	-80(%rbp), %rsi         # 8-byte Reload
	movq	%r12, %rdx
	callq	gsm_dec_Coefficients_27_39
	movabsq	$-3573480969991752131, %rdi # imm = 0xCE6871FDAC05F63D
	xorl	%esi, %esi
	callq	_KPrepCall
	.loc	4 563 3                 # gsm_dec.c:563:3
	movq	%r12, %rdi
	callq	gsm_dec_LARp_to_rp
	.loc	4 564 56                # gsm_dec.c:564:56
	movq	-72(%rbp), %rax         # 8-byte Reload
	leaq	54(%rax), %rbx
	.loc	4 564 65 is_stmt 0      # gsm_dec.c:564:65
	leaq	54(%r14), %r15
	movabsq	$-8559263158186230234, %rdi # imm = 0x89376381AD38BE26
	xorl	%esi, %esi
	callq	_KPrepCall
	callq	_KEnqArgConst
	movl	$13, %edx
	.loc	4 564 3                 # gsm_dec.c:564:3
	movq	%r13, %rdi
	movq	%r12, %rsi
	movq	%rbx, %rcx
	movq	%r15, %r8
	callq	gsm_dec_Short_term_synthesis_filtering
	movabsq	$5100993547601637461, %rdi # imm = 0x46CA5E9AF65AF055
	xorl	%esi, %esi
	callq	_KPrepCall
	.loc	4 566 3 is_stmt 1       # gsm_dec.c:566:3
	movq	-80(%rbp), %rdi         # 8-byte Reload
	movq	%r12, %rsi
	callq	gsm_dec_Coefficients_40_159
	movabsq	$7227583023219998516, %rdi # imm = 0x644D88775BABFF34
	xorl	%esi, %esi
	callq	_KPrepCall
	.loc	4 567 3                 # gsm_dec.c:567:3
	movq	%r12, %rdi
	callq	gsm_dec_LARp_to_rp
	.loc	4 568 57                # gsm_dec.c:568:57
	movq	-72(%rbp), %rax         # 8-byte Reload
	leaq	80(%rax), %rbx
	.loc	4 568 66 is_stmt 0      # gsm_dec.c:568:66
	leaq	80(%r14), %r15
	movabsq	$-8751430148015453321, %rdi # imm = 0x868CACA5BEE50B77
	xorl	%esi, %esi
	callq	_KPrepCall
	callq	_KEnqArgConst
	movl	$120, %edx
	.loc	4 568 3                 # gsm_dec.c:568:3
	movq	%r13, %rdi
	movq	%r12, %rsi
	movq	%rbx, %rcx
	movq	%r15, %r8
	callq	gsm_dec_Short_term_synthesis_filtering
	xorl	%esi, %esi
	movabsq	$-3708063720727408340, %rdi # imm = 0xCC8A4FB13187912C
	callq	_KExitRegion
	.loc	4 569 1 is_stmt 1       # gsm_dec.c:569:1
	addq	$72, %rsp
	popq	%rbx
	popq	%r12
	popq	%r13
.Ltmp409:
	popq	%r14
.Ltmp410:
	popq	%r15
	popq	%rbp
	retq
.Ltmp411:
.Ltmp412:
	.size	gsm_dec_Short_Term_Synthesis_Filter, .Ltmp412-gsm_dec_Short_Term_Synthesis_Filter
.Lfunc_end9:
	.cfi_endproc

	.globl	gsm_dec_Postprocessing
	.align	16, 0x90
	.type	gsm_dec_Postprocessing,@function
gsm_dec_Postprocessing:                 # @gsm_dec_Postprocessing
.Lfunc_begin10:
	.loc	4 467 0                 # gsm_dec.c:467:0
	.cfi_startproc
# BB#0:                                 # %entry
	pushq	%rbp
.Ltmp413:
	.cfi_def_cfa_offset 16
.Ltmp414:
	.cfi_offset %rbp, -16
	movq	%rsp, %rbp
.Ltmp415:
	.cfi_def_cfa_register %rbp
	pushq	%r15
	pushq	%r14
	pushq	%r13
	pushq	%r12
	pushq	%rbx
	subq	$40, %rsp
.Ltmp416:
	.cfi_offset %rbx, -56
.Ltmp417:
	.cfi_offset %r12, -48
.Ltmp418:
	.cfi_offset %r13, -40
.Ltmp419:
	.cfi_offset %r14, -32
.Ltmp420:
	.cfi_offset %r15, -24
	#DEBUG_VALUE: gsm_dec_Postprocessing:S <- RDI
	#DEBUG_VALUE: gsm_dec_Postprocessing:s <- RSI
	movq	%rsi, -56(%rbp)         # 8-byte Spill
.Ltmp421:
	#DEBUG_VALUE: gsm_dec_Postprocessing:s <- [RBP+-56]
	movq	%rdi, %rbx
.Ltmp422:
	#DEBUG_VALUE: gsm_dec_Postprocessing:S <- RBX
	movabsq	$-6123821955539228733, %rdi # imm = 0xAB03D0607858A7C3
	movabsq	$2111904085266478210, %r15 # imm = 0x1D4EFD9382013482
	xorl	%r12d, %r12d
	xorl	%esi, %esi
	callq	_KEnterRegion
	movl	$20, %edi
	movl	$2, %esi
	callq	_KPrepRTable
	movl	$4, %edi
	callq	_KWork
	.loc	4 469 14 prologue_end   # gsm_dec.c:469:14
.Ltmp423:
	leaq	650(%rbx), %rdi
	movq	%rdi, -72(%rbp)         # 8-byte Spill
	movl	$1, %r14d
	movl	$1, %esi
	movl	$2, %edx
	callq	_KLoad0
	movw	650(%rbx), %ax
.Ltmp424:
	#DEBUG_VALUE: gsm_dec_Postprocessing:k <- 160
	#DEBUG_VALUE: gsm_dec_Postprocessing:msr <- [RBP+-48]
	movq	%rax, -48(%rbp)         # 8-byte Spill
	movl	$12, %ebx
.Ltmp425:
	movl	$12, %edi
	movl	$12, %esi
	xorl	%edx, %edx
	callq	_KTimestamp1
	movl	$1, %edi
	movl	$1, %esi
	xorl	%edx, %edx
	callq	_KTimestamp1
	movl	$1, %esi
	movq	%r15, %rdi
	callq	_KEnterRegion
	xorl	%r15d, %r15d
	xorl	%r13d, %r13d
	jmp	.LBB10_1
	.align	16, 0x90
.LBB10_7:                               # %cond.end24
                                        #   in Loop: Header=BB10_1 Depth=1
	#DEBUG_VALUE: gsm_dec_Postprocessing:s <- [RBP+-56]
	#DEBUG_VALUE: gsm_dec_Postprocessing:msr <- [RBP+-48]
	#DEBUG_VALUE: gsm_dec_Postprocessing:k <- 160
	movl	$4, %r15d
	movl	$4, %edi
	callq	_KPushCDep
	movl	$6, %edi
	movl	$4, %edx
	movl	$19, %ecx
	movl	%r13d, %esi
	callq	_KPhi2To1
	movl	$2, %edi
	callq	_KWork
	.loc	4 477 10 discriminator 4 # gsm_dec.c:477:10
.Ltmp426:
	andl	$65528, %ebx            # imm = 0xFFF8
	movl	$3, %edi
	movl	$4, %esi
	movl	$1, %edx
	movl	$6, %ecx
	movl	$1, %r8d
	callq	_KTimestamp2
	movl	$3, %edi
	movl	$2, %edx
	movq	-64(%rbp), %rsi         # 8-byte Reload
	callq	_KStore
.Ltmp427:
	.loc	4 477 5 is_stmt 0       # gsm_dec.c:477:5
	movq	-56(%rbp), %rax         # 8-byte Reload
	movw	%bx, (%rax,%r12)
	movl	$13, %ebx
	movl	$13, %edi
	movl	$11, %esi
	xorl	%edx, %edx
	movl	$4, %ecx
	xorl	%r8d, %r8d
	callq	_KTimestamp2
	callq	_KPopCDep
	movl	$2, %esi
	movabsq	$-2009632339250157074, %rdi # imm = 0xE41C5A08F1DB69EE
	callq	_KExitRegion
	addq	$2, %r12
	movl	$10, %r13d
	movl	$8, %r14d
.Ltmp428:
.LBB10_1:                               # %for.cond
                                        # =>This Inner Loop Header: Depth=1
	#DEBUG_VALUE: gsm_dec_Postprocessing:s <- [RBP+-56]
	#DEBUG_VALUE: gsm_dec_Postprocessing:k <- 160
	movl	$11, %edi
	movl	%ebx, %esi
	movl	%r15d, %edx
	callq	_KPhi1To1
	movl	$5, %edi
	movl	%r13d, %esi
	movl	%r15d, %edx
	callq	_KPhi1To1
	movl	$7, %edi
	movl	%r14d, %esi
	movl	%r15d, %edx
	callq	_KPhi1To1
	movl	$2, %edi
	callq	_KWork
	movl	$7, %edi
	movl	$7, %esi
	xorl	%edx, %edx
	callq	_KTimestamp1
	movl	$4, %edi
	movl	$5, %esi
	movl	$2, %edx
	callq	_KTimestamp1
	movl	$10, %edi
	movl	$5, %esi
	movl	$1, %edx
	callq	_KTimestamp1
	movl	$7, %edi
	movl	$4, %esi
	callq	_KPhiAddCond
	movl	$5, %edi
	movl	$4, %esi
	callq	_KPhiAddCond
	movl	$11, %edi
	movl	$11, %esi
	xorl	%edx, %edx
	callq	_KTimestamp1
	movl	$11, %edi
	movl	$4, %esi
	callq	_KPhiAddCond
	.loc	4 474 3 is_stmt 1       # gsm_dec.c:474:3
	cmpl	$318, %r12d             # imm = 0x13E
	je	.LBB10_8
# BB#2:                                 # %for.body
                                        #   in Loop: Header=BB10_1 Depth=1
	#DEBUG_VALUE: gsm_dec_Postprocessing:s <- [RBP+-56]
	#DEBUG_VALUE: gsm_dec_Postprocessing:k <- 160
	movl	$2, %esi
	movabsq	$-2009632339250157074, %rdi # imm = 0xE41C5A08F1DB69EE
	callq	_KEnterRegion
	movl	$4, %edi
	callq	_KPushCDep
	movl	$11, %edi
	callq	_KWork
	.loc	4 475 11                # gsm_dec.c:475:11
.Ltmp429:
	movq	-48(%rbp), %rax         # 8-byte Reload
	movswq	%ax, %rbx
	movq	-56(%rbp), %r14         # 8-byte Reload
.Ltmp430:
	#DEBUG_VALUE: gsm_dec_Postprocessing:s <- R14
	leaq	(%r14,%r12), %r13
	movl	$2, %esi
	movl	$2, %edx
	movq	%r13, %rdi
	callq	_KLoad0
	.loc	4 476 11                # gsm_dec.c:476:11
	movswq	(%r14,%r12), %rax
	movabsq	$242064356802560, %rcx  # imm = 0xDC2800000000
.Ltmp431:
	#DEBUG_VALUE: gsm_dec_Postprocessing:s <- [RBP+-56]
	imulq	%rcx, %rbx
	movabsq	$140737488355328, %rcx  # imm = 0x800000000000
	addq	%rcx, %rbx
	sarq	$48, %rbx
	leaq	(%rax,%rbx), %r14
.Ltmp432:
	#DEBUG_VALUE: gsm_dec_Postprocessing:ltmp <- R14
	leaq	32768(%rax,%rbx), %rbx
	movl	$3, (%rsp)
	movl	$16, %edi
	movl	$7, %esi
	movl	$7, %edx
	movl	$4, %ecx
	movl	$7, %r8d
	movl	$2, %r9d
	callq	_KTimestamp3
	movl	$1, (%rsp)
	movl	$15, %r15d
	movl	$15, %edi
	movl	$7, %esi
	movl	$5, %edx
	movl	$4, %ecx
	movl	$5, %r8d
	movl	$2, %r9d
	callq	_KTimestamp3
	callq	_KPopCDep
	cmpq	$65536, %rbx            # imm = 0x10000
	jb	.LBB10_3
.Ltmp433:
# BB#4:                                 # %cond.true
                                        #   in Loop: Header=BB10_1 Depth=1
	#DEBUG_VALUE: gsm_dec_Postprocessing:s <- [RBP+-56]
	#DEBUG_VALUE: gsm_dec_Postprocessing:k <- 160
	#DEBUG_VALUE: gsm_dec_Postprocessing:ltmp <- R14
	movq	%r13, -64(%rbp)         # 8-byte Spill
	movl	$16, %edi
	callq	_KPushCDep
	movl	$1, %edi
	callq	_KWork
	.loc	4 476 11 is_stmt 0 discriminator 1 # gsm_dec.c:476:11
	testq	%r14, %r14
	movq	$-32768, %r14           # imm = 0xFFFFFFFFFFFF8000
.Ltmp434:
	movl	$32767, %eax            # imm = 0x7FFF
	cmovgq	%rax, %r14
	movl	$4, (%rsp)
	movl	$14, %r15d
	movl	$14, %edi
	movl	$7, %esi
	movl	$8, %edx
	movl	$4, %ecx
	movl	$8, %r8d
	movl	$2, %r9d
	callq	_KTimestamp3
	callq	_KPopCDep
	jmp	.LBB10_5
	.align	16, 0x90
.LBB10_3:                               #   in Loop: Header=BB10_1 Depth=1
	#DEBUG_VALUE: gsm_dec_Postprocessing:s <- [RBP+-56]
	#DEBUG_VALUE: gsm_dec_Postprocessing:k <- 160
.Ltmp435:
	#DEBUG_VALUE: gsm_dec_Postprocessing:ltmp <- R14
	movq	%r13, -64(%rbp)         # 8-byte Spill
.Ltmp436:
.LBB10_5:                               # %cond.end
                                        #   in Loop: Header=BB10_1 Depth=1
	#DEBUG_VALUE: gsm_dec_Postprocessing:s <- [RBP+-56]
	#DEBUG_VALUE: gsm_dec_Postprocessing:k <- 160
	movq	%r14, -48(%rbp)         # 8-byte Spill
	movl	$4, %edi
	callq	_KPushCDep
	movl	$9, %edi
	movl	$4, %edx
	movl	$16, %ecx
	movl	%r15d, %esi
	callq	_KPhi2To1
	movl	$3, %edi
	callq	_KWork
	.loc	4 477 10 is_stmt 1      # gsm_dec.c:477:10
	movq	%r14, %r15
	shlq	$48, %r15
	movq	%r15, %rbx
	sarq	$47, %rbx
.Ltmp437:
	#DEBUG_VALUE: gsm_dec_Postprocessing:ltmp <- RBX
	leaq	32768(%rbx), %r14
	movl	$8, %edi
	movl	$4, %esi
	xorl	%edx, %edx
	movl	$9, %ecx
	xorl	%r8d, %r8d
	callq	_KTimestamp2
	movl	$18, %r13d
	movl	$18, %edi
	movl	$4, %esi
	movl	$1, %edx
	movl	$9, %ecx
	movl	$1, %r8d
	callq	_KTimestamp2
	movl	$19, %edi
	movl	$4, %esi
	movl	$3, %edx
	movl	$9, %ecx
	movl	$3, %r8d
	callq	_KTimestamp2
	callq	_KPopCDep
	cmpq	$65536, %r14            # imm = 0x10000
	jb	.LBB10_7
.Ltmp438:
# BB#6:                                 # %cond.true18
                                        #   in Loop: Header=BB10_1 Depth=1
	#DEBUG_VALUE: gsm_dec_Postprocessing:s <- [RBP+-56]
	#DEBUG_VALUE: gsm_dec_Postprocessing:k <- 160
	movl	$19, %edi
	callq	_KPushCDep
	movl	$1, %edi
	callq	_KWork
	.loc	4 477 10 is_stmt 0 discriminator 1 # gsm_dec.c:477:10
	testq	%r15, %r15
	movq	$-32768, %rbx           # imm = 0xFFFFFFFFFFFF8000
	movl	$32767, %eax            # imm = 0x7FFF
	cmovgq	%rax, %rbx
	movl	$17, %r13d
	movl	$17, %edi
	movl	$4, %esi
	movl	$4, %edx
	movl	$9, %ecx
	movl	$4, %r8d
	callq	_KTimestamp2
	callq	_KPopCDep
	jmp	.LBB10_7
.Ltmp439:
.LBB10_8:                               # %for.cond.pre_exit.for.end
	#DEBUG_VALUE: gsm_dec_Postprocessing:k <- 160
	movl	$1, %esi
	movabsq	$2111904085266478210, %rdi # imm = 0x1D4EFD9382013482
	callq	_KExitRegion
	movl	$1, %edi
	callq	_KWork
	movl	$7, %edi
	movl	$2, %edx
	movq	-72(%rbp), %rbx         # 8-byte Reload
	movq	%rbx, %rsi
	callq	_KStore
	.loc	4 479 3 is_stmt 1       # gsm_dec.c:479:3
	movq	-48(%rbp), %rax         # 8-byte Reload
	movw	%ax, (%rbx)
	xorl	%esi, %esi
	movabsq	$-6123821955539228733, %rdi # imm = 0xAB03D0607858A7C3
	addq	$40, %rsp
	popq	%rbx
	popq	%r12
	popq	%r13
	popq	%r14
	popq	%r15
	popq	%rbp
	jmp	_KExitRegion            # TAILCALL
.Ltmp440:
.Ltmp441:
	.size	gsm_dec_Postprocessing, .Ltmp441-gsm_dec_Postprocessing
.Lfunc_end10:
	.cfi_endproc

	.globl	gsm_dec_APCM_quantization_xmaxc_to_exp_mant
	.align	16, 0x90
	.type	gsm_dec_APCM_quantization_xmaxc_to_exp_mant,@function
gsm_dec_APCM_quantization_xmaxc_to_exp_mant: # @gsm_dec_APCM_quantization_xmaxc_to_exp_mant
.Lfunc_begin11:
	.loc	4 436 0                 # gsm_dec.c:436:0
	.cfi_startproc
# BB#0:                                 # %entry
	pushq	%rbp
.Ltmp442:
	.cfi_def_cfa_offset 16
.Ltmp443:
	.cfi_offset %rbp, -16
	movq	%rsp, %rbp
.Ltmp444:
	.cfi_def_cfa_register %rbp
	pushq	%r15
	pushq	%r14
	pushq	%r13
	pushq	%r12
	pushq	%rbx
	subq	$56, %rsp
.Ltmp445:
	.cfi_offset %rbx, -56
.Ltmp446:
	.cfi_offset %r12, -48
.Ltmp447:
	.cfi_offset %r13, -40
.Ltmp448:
	.cfi_offset %r14, -32
.Ltmp449:
	.cfi_offset %r15, -24
	#DEBUG_VALUE: gsm_dec_APCM_quantization_xmaxc_to_exp_mant:xmaxc <- EDI
	#DEBUG_VALUE: gsm_dec_APCM_quantization_xmaxc_to_exp_mant:exp_out <- RSI
	#DEBUG_VALUE: gsm_dec_APCM_quantization_xmaxc_to_exp_mant:mant_out <- RDX
	movq	%rdx, -56(%rbp)         # 8-byte Spill
.Ltmp450:
	#DEBUG_VALUE: gsm_dec_APCM_quantization_xmaxc_to_exp_mant:mant_out <- [RBP+-56]
	movq	%rsi, -64(%rbp)         # 8-byte Spill
.Ltmp451:
	#DEBUG_VALUE: gsm_dec_APCM_quantization_xmaxc_to_exp_mant:exp_out <- [RBP+-64]
	movl	%edi, %ebx
.Ltmp452:
	#DEBUG_VALUE: gsm_dec_APCM_quantization_xmaxc_to_exp_mant:xmaxc <- EBX
	movabsq	$5394951453051287659, %rdi # imm = 0x4ADEB7C34B99786B
	xorl	%esi, %esi
	callq	_KEnterRegion
	movl	$16, %edi
	movl	$2, %esi
	callq	_KPrepRTable
	movl	$1, %edi
	callq	_KWork
	movl	$1, %edi
	callq	_KDeqArg
.Ltmp453:
	#DEBUG_VALUE: gsm_dec_APCM_quantization_xmaxc_to_exp_mant:exp <- 0
	movl	$6, %edi
	movl	$1, %esi
	movl	$1, %edx
	callq	_KTimestamp1
	.loc	4 442 8 prologue_end    # gsm_dec.c:442:8
.Ltmp454:
	cmpl	$16, %ebx
	movl	$0, %r12d
	movl	$0, %r13d
	jl	.LBB11_2
.Ltmp455:
# BB#1:                                 # %if.then
	#DEBUG_VALUE: gsm_dec_APCM_quantization_xmaxc_to_exp_mant:xmaxc <- EBX
	#DEBUG_VALUE: gsm_dec_APCM_quantization_xmaxc_to_exp_mant:exp_out <- [RBP+-64]
	#DEBUG_VALUE: gsm_dec_APCM_quantization_xmaxc_to_exp_mant:mant_out <- [RBP+-56]
	#DEBUG_VALUE: gsm_dec_APCM_quantization_xmaxc_to_exp_mant:exp <- 0
	.loc	4 442 8 is_stmt 0       # gsm_dec.c:442:8
	movswl	%bx, %r13d
	movl	$6, %edi
	callq	_KPushCDep
	movl	$2, %edi
	callq	_KWork
	.loc	4 443 11 is_stmt 1      # gsm_dec.c:443:11
	shrl	$3, %r13d
	addl	$65535, %r13d           # imm = 0xFFFF
.Ltmp456:
	#DEBUG_VALUE: gsm_dec_APCM_quantization_xmaxc_to_exp_mant:exp <- R13W
	movl	$5, %r12d
	movl	$5, %edi
	movl	$1, %esi
	movl	$3, %edx
	callq	_KTimestamp1
	callq	_KPopCDep
.Ltmp457:
.LBB11_2:                               # %if.end
	#DEBUG_VALUE: gsm_dec_APCM_quantization_xmaxc_to_exp_mant:xmaxc <- EBX
	#DEBUG_VALUE: gsm_dec_APCM_quantization_xmaxc_to_exp_mant:exp_out <- [RBP+-64]
	#DEBUG_VALUE: gsm_dec_APCM_quantization_xmaxc_to_exp_mant:mant_out <- [RBP+-56]
	#DEBUG_VALUE: gsm_dec_APCM_quantization_xmaxc_to_exp_mant:exp <- 0
	movl	$4, %r15d
	movl	$4, %edi
	movl	$6, %edx
	movl	%r12d, %esi
	callq	_KPhi1To1
	movl	$3, %edi
	callq	_KWork
	.loc	4 444 20                # gsm_dec.c:444:20
	leal	(,%r13,8), %r14d
	.loc	4 446 8                 # gsm_dec.c:446:8
.Ltmp458:
	movzwl	%r14w, %eax
	movl	%eax, -48(%rbp)         # 4-byte Spill
	movzwl	%bx, %eax
	movl	%eax, -68(%rbp)         # 4-byte Spill
	movl	$9, %edi
	movl	$1, %esi
	movl	$2, %edx
	movl	$4, %ecx
	movl	$3, %r8d
	callq	_KTimestamp2
	movl	$14, %r12d
	movl	$14, %edi
	movl	$1, %esi
	movl	$1, %edx
	movl	$4, %ecx
	movl	$2, %r8d
	callq	_KTimestamp2
	movl	$4, %edi
	movl	$4, %esi
	xorl	%edx, %edx
	callq	_KTimestamp1
	movl	$9, %edi
	callq	_KPushCDep
	callq	_KPopCDep
	movl	-68(%rbp), %eax         # 4-byte Reload
	cmpl	%eax, -48(%rbp)         # 4-byte Folded Reload
	jne	.LBB11_4
.Ltmp459:
# BB#3:
	#DEBUG_VALUE: gsm_dec_APCM_quantization_xmaxc_to_exp_mant:exp_out <- [RBP+-64]
	#DEBUG_VALUE: gsm_dec_APCM_quantization_xmaxc_to_exp_mant:mant_out <- [RBP+-56]
	#DEBUG_VALUE: gsm_dec_APCM_quantization_xmaxc_to_exp_mant:exp <- 0
	movw	$7, %r13w
	movw	$-4, %bx
	xorl	%r15d, %r15d
	xorl	%r12d, %r12d
	jmp	.LBB11_8
.LBB11_4:                               # %while.cond.preheader1
.Ltmp460:
	#DEBUG_VALUE: gsm_dec_APCM_quantization_xmaxc_to_exp_mant:xmaxc <- EBX
	#DEBUG_VALUE: gsm_dec_APCM_quantization_xmaxc_to_exp_mant:exp_out <- [RBP+-64]
	#DEBUG_VALUE: gsm_dec_APCM_quantization_xmaxc_to_exp_mant:mant_out <- [RBP+-56]
	#DEBUG_VALUE: gsm_dec_APCM_quantization_xmaxc_to_exp_mant:exp <- 0
	movq	%r13, -48(%rbp)         # 8-byte Spill
	movabsq	$-273566025493867422, %rdi # imm = 0xFC34192633D29462
	.loc	4 444 10                # gsm_dec.c:444:10
	subl	%r14d, %ebx
.Ltmp461:
	#DEBUG_VALUE: gsm_dec_APCM_quantization_xmaxc_to_exp_mant:mant <- BX
	movl	$1, %esi
	callq	_KEnterRegion
	xorl	%r13d, %r13d
	movabsq	$4460019356455056429, %r14 # imm = 0x3DE52BF978DEB42D
	jmp	.LBB11_5
.Ltmp462:
	.align	16, 0x90
.LBB11_6:                               # %while.body
                                        #   in Loop: Header=BB11_5 Depth=1
	#DEBUG_VALUE: gsm_dec_APCM_quantization_xmaxc_to_exp_mant:exp_out <- [RBP+-64]
	#DEBUG_VALUE: gsm_dec_APCM_quantization_xmaxc_to_exp_mant:mant_out <- [RBP+-56]
	#DEBUG_VALUE: gsm_dec_APCM_quantization_xmaxc_to_exp_mant:exp <- 0
	movl	$2, %esi
	movq	%r14, %rdi
	callq	_KEnterRegion
	movl	$10, %r13d
	movl	$10, %edi
	callq	_KPushCDep
	movl	$3, %edi
	callq	_KWork
	.loc	4 452 14                # gsm_dec.c:452:14
.Ltmp463:
	leal	1(%rbx,%rbx), %ebx
.Ltmp464:
	#DEBUG_VALUE: gsm_dec_APCM_quantization_xmaxc_to_exp_mant:mant <- BX
	.loc	4 453 7                 # gsm_dec.c:453:7
	movq	-48(%rbp), %rax         # 8-byte Reload
	decl	%eax
.Ltmp465:
	#DEBUG_VALUE: gsm_dec_APCM_quantization_xmaxc_to_exp_mant:exp <- [RBP+-48]
	movq	%rax, -48(%rbp)         # 8-byte Spill
	movl	$12, %r12d
	movl	$12, %edi
	movl	$10, %esi
	movl	$2, %edx
	movl	$13, %ecx
	movl	$2, %r8d
	callq	_KTimestamp2
	movl	$8, %r15d
	movl	$8, %edi
	movl	$7, %esi
	movl	$1, %edx
	movl	$10, %ecx
	movl	$1, %r8d
	callq	_KTimestamp2
	callq	_KPopCDep
	movl	$2, %esi
	movq	%r14, %rdi
	callq	_KExitRegion
.Ltmp466:
.LBB11_5:                               # %while.cond
                                        # =>This Inner Loop Header: Depth=1
	#DEBUG_VALUE: gsm_dec_APCM_quantization_xmaxc_to_exp_mant:exp_out <- [RBP+-64]
	#DEBUG_VALUE: gsm_dec_APCM_quantization_xmaxc_to_exp_mant:mant_out <- [RBP+-56]
	#DEBUG_VALUE: gsm_dec_APCM_quantization_xmaxc_to_exp_mant:exp <- 0
	movl	$9, %edi
	callq	_KPushCDep
	movl	$7, %edi
	movl	$9, %edx
	movl	%r15d, %esi
	movl	%r13d, %ecx
	callq	_KPhi2To1
	movl	$11, %edi
	movl	$9, %edx
	movl	%r12d, %esi
	movl	%r13d, %ecx
	callq	_KPhi2To1
	movl	$1, %edi
	callq	_KWork
	movl	$13, %edi
	movl	$9, %esi
	xorl	%edx, %edx
	movl	$11, %ecx
	xorl	%r8d, %r8d
	callq	_KTimestamp2
	movl	$10, %edi
	movl	$9, %esi
	movl	$1, %edx
	movl	$11, %ecx
	movl	$1, %r8d
	callq	_KTimestamp2
	movl	$11, %edi
	movl	$10, %esi
	callq	_KPhiAddCond
	movl	$7, %edi
	movl	$10, %esi
	callq	_KPhiAddCond
	movl	$7, %edi
	movl	$7, %esi
	xorl	%edx, %edx
	callq	_KTimestamp1
	callq	_KPopCDep
	.loc	4 451 5                 # gsm_dec.c:451:5
	movswl	%bx, %eax
	cmpl	$7, %eax
	jle	.LBB11_6
# BB#7:                                 # %while.cond.pre_exit.while.end
	#DEBUG_VALUE: gsm_dec_APCM_quantization_xmaxc_to_exp_mant:exp_out <- [RBP+-64]
	#DEBUG_VALUE: gsm_dec_APCM_quantization_xmaxc_to_exp_mant:mant_out <- [RBP+-56]
	#DEBUG_VALUE: gsm_dec_APCM_quantization_xmaxc_to_exp_mant:exp <- 0
	movl	$1, %esi
	movabsq	$-273566025493867422, %rdi # imm = 0xFC34192633D29462
	callq	_KExitRegion
	movl	$9, %edi
	callq	_KPushCDep
	movl	$1, %edi
	callq	_KWork
	.loc	4 455 5                 # gsm_dec.c:455:5
	addl	$-8, %ebx
.Ltmp467:
	#DEBUG_VALUE: gsm_dec_APCM_quantization_xmaxc_to_exp_mant:mant <- BX
	movq	%rbx, %r13
.Ltmp468:
	#DEBUG_VALUE: gsm_dec_APCM_quantization_xmaxc_to_exp_mant:mant <- R13W
	movl	$1, 16(%rsp)
	movl	$11, 8(%rsp)
	movl	$1, (%rsp)
	movl	$15, %r15d
	movl	$15, %edi
	movl	$1, %esi
	movl	$3, %edx
	movl	$4, %ecx
	movl	$4, %r8d
	movl	$9, %r9d
	callq	_KTimestamp4
	callq	_KPopCDep
	movl	$7, %r12d
	movq	-48(%rbp), %rbx         # 8-byte Reload
.Ltmp469:
.LBB11_8:                               # %if.end21
	#DEBUG_VALUE: gsm_dec_APCM_quantization_xmaxc_to_exp_mant:exp_out <- [RBP+-64]
	#DEBUG_VALUE: gsm_dec_APCM_quantization_xmaxc_to_exp_mant:mant_out <- [RBP+-56]
	#DEBUG_VALUE: gsm_dec_APCM_quantization_xmaxc_to_exp_mant:exp <- 0
	movl	$3, %edi
	movl	$9, %edx
	movl	%r15d, %esi
	callq	_KPhi1To1
	movl	$2, %edi
	movl	$9, %edx
	movl	%r12d, %esi
	callq	_KPhi1To1
	movl	$2, %edi
	movl	$2, %esi
	xorl	%edx, %edx
	callq	_KTimestamp1
	movl	$2, %edi
	movl	$2, %edx
	movq	-64(%rbp), %r15         # 8-byte Reload
.Ltmp470:
	#DEBUG_VALUE: gsm_dec_APCM_quantization_xmaxc_to_exp_mant:exp_out <- R15
	movq	%r15, %rsi
	callq	_KStore
	movl	$2, %edi
	callq	_KWork
	.loc	4 458 3                 # gsm_dec.c:458:3
	movw	%bx, (%r15)
	movl	$3, %edi
	movl	$3, %esi
	xorl	%edx, %edx
	callq	_KTimestamp1
	movl	$3, %edi
	movl	$2, %edx
	movq	-56(%rbp), %r14         # 8-byte Reload
.Ltmp471:
	#DEBUG_VALUE: gsm_dec_APCM_quantization_xmaxc_to_exp_mant:mant_out <- R14
	movq	%r14, %rsi
	callq	_KStore
	.loc	4 459 3                 # gsm_dec.c:459:3
	movw	%r13w, (%r14)
	xorl	%esi, %esi
	movabsq	$5394951453051287659, %rdi # imm = 0x4ADEB7C34B99786B
	addq	$56, %rsp
	popq	%rbx
	popq	%r12
	popq	%r13
	popq	%r14
.Ltmp472:
	popq	%r15
.Ltmp473:
	popq	%rbp
	jmp	_KExitRegion            # TAILCALL
.Ltmp474:
.Ltmp475:
	.size	gsm_dec_APCM_quantization_xmaxc_to_exp_mant, .Ltmp475-gsm_dec_APCM_quantization_xmaxc_to_exp_mant
.Lfunc_end11:
	.cfi_endproc

	.globl	gsm_dec_APCM_inverse_quantization
	.align	16, 0x90
	.type	gsm_dec_APCM_inverse_quantization,@function
gsm_dec_APCM_inverse_quantization:      # @gsm_dec_APCM_inverse_quantization
.Lfunc_begin12:
	.loc	4 394 0                 # gsm_dec.c:394:0
	.cfi_startproc
# BB#0:                                 # %entry
	pushq	%rbp
.Ltmp476:
	.cfi_def_cfa_offset 16
.Ltmp477:
	.cfi_offset %rbp, -16
	movq	%rsp, %rbp
.Ltmp478:
	.cfi_def_cfa_register %rbp
	pushq	%r15
	pushq	%r14
	pushq	%r13
	pushq	%r12
	pushq	%rbx
	subq	$72, %rsp
.Ltmp479:
	.cfi_offset %rbx, -56
.Ltmp480:
	.cfi_offset %r12, -48
.Ltmp481:
	.cfi_offset %r13, -40
.Ltmp482:
	.cfi_offset %r14, -32
.Ltmp483:
	.cfi_offset %r15, -24
	#DEBUG_VALUE: gsm_dec_APCM_inverse_quantization:xMc <- RDI
	#DEBUG_VALUE: gsm_dec_APCM_inverse_quantization:mant <- ESI
	#DEBUG_VALUE: gsm_dec_APCM_inverse_quantization:exp <- EDX
	#DEBUG_VALUE: gsm_dec_APCM_inverse_quantization:xMp <- RCX
	movq	%rcx, -48(%rbp)         # 8-byte Spill
.Ltmp484:
	#DEBUG_VALUE: gsm_dec_APCM_inverse_quantization:xMp <- [RBP+-48]
	movl	%edx, %r14d
.Ltmp485:
	#DEBUG_VALUE: gsm_dec_APCM_inverse_quantization:exp <- R14D
	movl	%esi, %ebx
.Ltmp486:
	#DEBUG_VALUE: gsm_dec_APCM_inverse_quantization:mant <- EBX
	movq	%rdi, -56(%rbp)         # 8-byte Spill
.Ltmp487:
	#DEBUG_VALUE: gsm_dec_APCM_inverse_quantization:xMc <- [RBP+-56]
	movabsq	$-6725490275413562864, %rdi # imm = 0xA2AA423A49A16A10
	xorl	%r12d, %r12d
	xorl	%esi, %esi
	callq	_KEnterRegion
	movl	$26, %edi
	movl	$2, %esi
	callq	_KPrepRTable
	movl	$2, %edi
	callq	_KDeqArg
	movl	$1, %edi
	callq	_KDeqArg
	movl	$4, %edi
	callq	_KWork
	.loc	4 399 11 prologue_end   # gsm_dec.c:399:11
.Ltmp488:
	movslq	%ebx, %rbx
.Ltmp489:
	leaq	gsm_dec_FAC(%rbx,%rbx), %rdi
	movl	$3, %esi
	movl	$4, %edx
	movl	$2, %ecx
	callq	_KLoad1
	.loc	4 410 12                # gsm_dec.c:410:12
.Ltmp490:
	movswq	gsm_dec_FAC(%rbx,%rbx), %r15
	movl	$2, %edi
	movl	$2, %esi
	xorl	%edx, %edx
	callq	_KTimestamp1
	movabsq	$5387262194685179430, %rdi # imm = 0x4AC3666C5219F626
	xorl	%esi, %esi
	callq	_KPrepCall
	movl	$2, %edi
	callq	_KEnqArg
	callq	_KEnqArgConst
	movl	$5, %edi
	callq	_KLinkReturn
	movl	$6, %edi
.Ltmp491:
	.loc	4 400 11                # gsm_dec.c:400:11
	movl	%r14d, %esi
.Ltmp492:
	#DEBUG_VALUE: gsm_dec_APCM_inverse_quantization:exp <- ESI
	callq	gsm_dec_sub
	movw	%ax, %bx
.Ltmp493:
	#DEBUG_VALUE: gsm_dec_APCM_inverse_quantization:temp2 <- BX
	movl	$5, %edi
	movl	$5, %esi
.Ltmp494:
	xorl	%edx, %edx
	callq	_KTimestamp1
	movabsq	$-8328048564391223510, %rdi # imm = 0x8C6CD3F45F425F2A
	xorl	%esi, %esi
	callq	_KPrepCall
	callq	_KEnqArgConst
	movl	$5, %edi
	callq	_KEnqArg
	movl	$6, %edi
	callq	_KLinkReturn
	.loc	4 401 27                # gsm_dec.c:401:27
	movswl	%bx, %edi
	movl	%edi, -68(%rbp)         # 4-byte Spill
	movl	$1, %esi
	callq	gsm_dec_sub
	movswl	%ax, %ebx
.Ltmp495:
	movabsq	$-5840405014336112627, %rdi # imm = 0xAEF2B6955015F80D
	xorl	%esi, %esi
	callq	_KPrepCall
	movl	$8, %edi
	movl	$6, %esi
	xorl	%edx, %edx
	callq	_KTimestamp1
	movl	$8, %edi
	callq	_KEnqArg
	callq	_KEnqArgConst
	movl	$7, %edi
	callq	_KLinkReturn
	movl	$1, %edi
	.loc	4 401 11 is_stmt 0      # gsm_dec.c:401:11
	movl	%ebx, %esi
	callq	gsm_dec_asl
	movw	%ax, %bx
.Ltmp496:
	#DEBUG_VALUE: gsm_dec_APCM_inverse_quantization:i <- 13
	#DEBUG_VALUE: gsm_dec_APCM_inverse_quantization:temp3 <- BX
	movl	$7, %edi
	movl	$7, %esi
	xorl	%edx, %edx
	callq	_KTimestamp1
	movl	$3, %edi
	movl	$3, %esi
	xorl	%edx, %edx
	callq	_KTimestamp1
	movl	$21, %r14d
	movl	$21, %edi
	movl	$21, %esi
	xorl	%edx, %edx
	callq	_KTimestamp1
	movl	$17, %r13d
	movl	$17, %edi
	movl	$17, %esi
	xorl	%edx, %edx
	callq	_KTimestamp1
	movl	$1, %esi
	movabsq	$-8316758273620655464, %rdi # imm = 0x8C94F06A0A0CC298
	callq	_KEnterRegion
	.loc	4 410 12 is_stmt 1      # gsm_dec.c:410:12
.Ltmp497:
	shlq	$33, %r15
	movq	%r15, -64(%rbp)         # 8-byte Spill
	.loc	4 411 12                # gsm_dec.c:411:12
	movswq	%bx, %rax
	movq	%rax, -80(%rbp)         # 8-byte Spill
	movabsq	$-1776298768198892258, %rbx # imm = 0xE75951AE7A8A851E
.Ltmp498:
	xorl	%r15d, %r15d
	xorl	%esi, %esi
	jmp	.LBB12_1
	.align	16, 0x90
.LBB12_4:                               # %cond.end
                                        #   in Loop: Header=BB12_1 Depth=1
	#DEBUG_VALUE: gsm_dec_APCM_inverse_quantization:xMc <- [RBP+-56]
	#DEBUG_VALUE: gsm_dec_APCM_inverse_quantization:xMp <- [RBP+-48]
	#DEBUG_VALUE: gsm_dec_APCM_inverse_quantization:i <- 13
	movl	$12, %r15d
	movl	$12, %edi
	callq	_KPushCDep
	movl	$14, %edi
	movl	$12, %edx
	movl	$25, %ecx
	movl	%r14d, %esi
	callq	_KPhi2To1
	movl	$1, %edi
	callq	_KWork
	movl	$11, %edi
	movl	$12, %esi
	xorl	%edx, %edx
	movl	$14, %ecx
	xorl	%r8d, %r8d
	callq	_KTimestamp2
	movl	$15, %edi
	movl	$5, %esi
	xorl	%edx, %edx
	movl	$12, %ecx
	xorl	%r8d, %r8d
	callq	_KTimestamp2
	xorl	%esi, %esi
	movabsq	$-3946037774324774019, %rdi # imm = 0xC93CDB8D1F194B7D
	callq	_KPrepCall
	movl	$15, %edi
	callq	_KEnqArg
	movl	$11, %edi
	callq	_KEnqArg
	movl	$10, %edi
	callq	_KLinkReturn
	.loc	4 412 14                # gsm_dec.c:412:14
	movswl	%bx, %edi
	movl	-68(%rbp), %esi         # 4-byte Reload
	callq	gsm_dec_asr
	movw	%ax, %r14w
	movl	$10, %edi
	movl	$10, %esi
	xorl	%edx, %edx
	callq	_KTimestamp1
	movq	-48(%rbp), %rbx         # 8-byte Reload
.Ltmp499:
	#DEBUG_VALUE: gsm_dec_APCM_inverse_quantization:xMp <- RBX
	leaq	(%rbx,%r12), %rsi
	movl	$10, %edi
	movl	$2, %edx
	callq	_KStore
	.loc	4 412 5 is_stmt 0       # gsm_dec.c:412:5
	movw	%r14w, (%rbx,%r12)
.Ltmp500:
	#DEBUG_VALUE: gsm_dec_APCM_inverse_quantization:xMp <- [RBP+-48]
	movl	$18, %r13d
	movl	$18, %edi
	movl	$16, %esi
	xorl	%edx, %edx
	movl	$12, %ecx
	xorl	%r8d, %r8d
	callq	_KTimestamp2
	callq	_KPopCDep
	movl	$2, %esi
	movabsq	$-1776298768198892258, %rbx # imm = 0xE75951AE7A8A851E
	movq	%rbx, %rdi
	callq	_KExitRegion
	addq	$2, %r12
	movl	$22, %r14d
	movl	$19, %esi
.Ltmp501:
.LBB12_1:                               # %for.cond
                                        # =>This Inner Loop Header: Depth=1
	#DEBUG_VALUE: gsm_dec_APCM_inverse_quantization:xMc <- [RBP+-56]
	#DEBUG_VALUE: gsm_dec_APCM_inverse_quantization:xMp <- [RBP+-48]
	#DEBUG_VALUE: gsm_dec_APCM_inverse_quantization:i <- 13
	movl	$13, %edi
                                        # kill: ESI<def> ESI<kill> RSI<kill>
	movl	%r15d, %edx
	callq	_KPhi1To1
	movl	$16, %edi
	movl	%r13d, %esi
	movl	%r15d, %edx
	callq	_KPhi1To1
	movl	$20, %edi
	movl	%r14d, %esi
	movl	%r15d, %edx
	callq	_KPhi1To1
	movl	$2, %edi
	callq	_KWork
	movl	$12, %edi
	movl	$13, %esi
	movl	$1, %edx
	callq	_KTimestamp1
	movl	$19, %edi
	movl	$13, %esi
	movl	$1, %edx
	callq	_KTimestamp1
	movl	$16, %edi
	movl	$12, %esi
	callq	_KPhiAddCond
	movl	$13, %edi
	movl	$12, %esi
	callq	_KPhiAddCond
	movl	$16, %edi
	movl	$16, %esi
	xorl	%edx, %edx
	callq	_KTimestamp1
	movl	$20, %edi
	movl	$20, %esi
	xorl	%edx, %edx
	callq	_KTimestamp1
	movl	$20, %edi
	movl	$12, %esi
	callq	_KPhiAddCond
	.loc	4 404 3 is_stmt 1       # gsm_dec.c:404:3
	cmpl	$26, %r12d
	je	.LBB12_5
# BB#2:                                 # %for.body
                                        #   in Loop: Header=BB12_1 Depth=1
	#DEBUG_VALUE: gsm_dec_APCM_inverse_quantization:xMc <- [RBP+-56]
	#DEBUG_VALUE: gsm_dec_APCM_inverse_quantization:xMp <- [RBP+-48]
	#DEBUG_VALUE: gsm_dec_APCM_inverse_quantization:i <- 13
	movl	$2, %esi
	movq	%rbx, %rdi
	callq	_KEnterRegion
	movl	$12, %edi
	callq	_KPushCDep
	movl	$14, %edi
	callq	_KWork
	movq	-56(%rbp), %rbx         # 8-byte Reload
.Ltmp502:
	#DEBUG_VALUE: gsm_dec_APCM_inverse_quantization:xMc <- RBX
	leaq	(%rbx,%r12), %rdi
	movl	$9, %esi
	movl	$2, %edx
	callq	_KLoad0
	.loc	4 407 14                # gsm_dec.c:407:14
.Ltmp503:
	movzwl	(%rbx,%r12), %eax
.Ltmp504:
	#DEBUG_VALUE: gsm_dec_APCM_inverse_quantization:xMc <- [RBP+-56]
	shll	$13, %eax
	.loc	4 409 5                 # gsm_dec.c:409:5
	addl	$-28672, %eax           # imm = 0xFFFFFFFFFFFF9000
	.loc	4 410 12                # gsm_dec.c:410:12
	movswq	%ax, %rbx
	.loc	4 411 12                # gsm_dec.c:411:12
	imulq	-64(%rbp), %rbx         # 8-byte Folded Reload
	movabsq	$140737488355328, %rax  # imm = 0x800000000000
	addq	%rax, %rbx
	sarq	$48, %rbx
.Ltmp505:
	#DEBUG_VALUE: gsm_dec_APCM_inverse_quantization:ltmp <- RBX
	movq	-80(%rbp), %rax         # 8-byte Reload
	leaq	32768(%rbx,%rax), %r15
	addq	%rax, %rbx
.Ltmp506:
	movl	$10, 16(%rsp)
	movl	$9, 8(%rsp)
	movl	$10, (%rsp)
	movl	$25, %edi
	movl	$3, %esi
	movl	$7, %edx
	movl	$7, %ecx
	movl	$3, %r8d
	movl	$12, %r9d
	callq	_KTimestamp4
	movl	$8, 16(%rsp)
	movl	$9, 8(%rsp)
	movl	$8, (%rsp)
	movl	$24, %r14d
	movl	$24, %edi
	movl	$3, %esi
	movl	$5, %edx
	movl	$7, %ecx
	movl	$1, %r8d
	movl	$12, %r9d
	callq	_KTimestamp4
	movl	$22, %edi
	movl	$20, %esi
	xorl	%edx, %edx
	movl	$12, %ecx
	xorl	%r8d, %r8d
	callq	_KTimestamp2
	callq	_KPopCDep
	cmpq	$65536, %r15            # imm = 0x10000
	jb	.LBB12_4
# BB#3:                                 # %cond.true
                                        #   in Loop: Header=BB12_1 Depth=1
	#DEBUG_VALUE: gsm_dec_APCM_inverse_quantization:xMc <- [RBP+-56]
	#DEBUG_VALUE: gsm_dec_APCM_inverse_quantization:xMp <- [RBP+-48]
	#DEBUG_VALUE: gsm_dec_APCM_inverse_quantization:i <- 13
	movl	$25, %edi
	callq	_KPushCDep
	movl	$1, %edi
	callq	_KWork
	.loc	4 411 12 is_stmt 0 discriminator 1 # gsm_dec.c:411:12
	testq	%rbx, %rbx
	movq	$-32768, %rbx           # imm = 0xFFFFFFFFFFFF8000
	movl	$32767, %eax            # imm = 0x7FFF
	cmovgq	%rax, %rbx
	movl	$11, 16(%rsp)
	movl	$9, 8(%rsp)
	movl	$11, (%rsp)
	movl	$23, %r14d
	movl	$23, %edi
	movl	$3, %esi
	movl	$8, %edx
	movl	$7, %ecx
	movl	$4, %r8d
	movl	$12, %r9d
	callq	_KTimestamp4
	callq	_KPopCDep
	jmp	.LBB12_4
.Ltmp507:
.LBB12_5:                               # %for.cond.pre_exit.for.end
	#DEBUG_VALUE: gsm_dec_APCM_inverse_quantization:i <- 13
	movl	$1, %esi
	movabsq	$-8316758273620655464, %rdi # imm = 0x8C94F06A0A0CC298
	callq	_KExitRegion
	xorl	%esi, %esi
	movabsq	$-6725490275413562864, %rdi # imm = 0xA2AA423A49A16A10
	addq	$72, %rsp
	popq	%rbx
	popq	%r12
	popq	%r13
	popq	%r14
	popq	%r15
	popq	%rbp
	jmp	_KExitRegion            # TAILCALL
.Ltmp508:
	.size	gsm_dec_APCM_inverse_quantization, .Ltmp508-gsm_dec_APCM_inverse_quantization
.Lfunc_end12:
	.cfi_endproc

	.globl	gsm_dec_RPE_grid_positioning
	.align	16, 0x90
	.type	gsm_dec_RPE_grid_positioning,@function
gsm_dec_RPE_grid_positioning:           # @gsm_dec_RPE_grid_positioning
.Lfunc_begin13:
	.loc	4 355 0 is_stmt 1       # gsm_dec.c:355:0
	.cfi_startproc
# BB#0:                                 # %entry
	pushq	%rbp
.Ltmp509:
	.cfi_def_cfa_offset 16
.Ltmp510:
	.cfi_offset %rbp, -16
	movq	%rsp, %rbp
.Ltmp511:
	.cfi_def_cfa_register %rbp
	pushq	%r15
	pushq	%r14
	pushq	%r13
	pushq	%r12
	pushq	%rbx
	subq	$40, %rsp
.Ltmp512:
	.cfi_offset %rbx, -56
.Ltmp513:
	.cfi_offset %r12, -48
.Ltmp514:
	.cfi_offset %r13, -40
.Ltmp515:
	.cfi_offset %r14, -32
.Ltmp516:
	.cfi_offset %r15, -24
	#DEBUG_VALUE: gsm_dec_RPE_grid_positioning:Mc <- EDI
	#DEBUG_VALUE: gsm_dec_RPE_grid_positioning:xMp <- RSI
	#DEBUG_VALUE: gsm_dec_RPE_grid_positioning:ep <- RDX
	movq	%rdx, %r15
.Ltmp517:
	#DEBUG_VALUE: gsm_dec_RPE_grid_positioning:ep <- R15
	movq	%rsi, %r12
.Ltmp518:
	#DEBUG_VALUE: gsm_dec_RPE_grid_positioning:xMp <- R12
	movl	%edi, %ebx
.Ltmp519:
	#DEBUG_VALUE: gsm_dec_RPE_grid_positioning:Mc <- EBX
	movl	%ebx, -56(%rbp)         # 4-byte Spill
	movabsq	$-4128807961418380072, %rdi # imm = 0xC6B38708D1DA4CD8
	xorl	%esi, %esi
	callq	_KEnterRegion
	movl	$32, %edi
	movl	$2, %esi
	callq	_KPrepRTable
	movl	$1, %edi
	callq	_KDeqArg
.Ltmp520:
	#DEBUG_VALUE: gsm_dec_RPE_grid_positioning:i <- 13
	movl	$7, %edi
	movl	$1, %esi
	xorl	%edx, %edx
	callq	_KTimestamp1
	movl	$18, %r14d
	movl	$18, %edi
	movl	$18, %esi
	xorl	%edx, %edx
	callq	_KTimestamp1
	movl	$5, %r13d
	movl	$5, %edi
	movl	$5, %esi
	xorl	%edx, %edx
	callq	_KTimestamp1
	.loc	4 359 3 prologue_end    # gsm_dec.c:359:3
.Ltmp521:
	movl	%ebx, %eax
	cmpl	$3, %ebx
.Ltmp522:
	#DEBUG_VALUE: gsm_dec_RPE_grid_positioning:Mc <- [RBP+-56]
	jbe	.LBB13_2
.Ltmp523:
# BB#1:
	#DEBUG_VALUE: gsm_dec_RPE_grid_positioning:Mc <- [RBP+-56]
	#DEBUG_VALUE: gsm_dec_RPE_grid_positioning:xMp <- R12
	#DEBUG_VALUE: gsm_dec_RPE_grid_positioning:ep <- R15
	#DEBUG_VALUE: gsm_dec_RPE_grid_positioning:i <- 13
	movq	%r12, -72(%rbp)         # 8-byte Spill
.Ltmp524:
	#DEBUG_VALUE: gsm_dec_RPE_grid_positioning:xMp <- [RBP+-72]
	movq	%r15, %r12
.Ltmp525:
	#DEBUG_VALUE: gsm_dec_RPE_grid_positioning:ep <- R12
	xorl	%r15d, %r15d
	movl	$13, %ebx
	jmp	.LBB13_7
.Ltmp526:
.LBB13_2:                               # %entry
	#DEBUG_VALUE: gsm_dec_RPE_grid_positioning:Mc <- [RBP+-56]
	#DEBUG_VALUE: gsm_dec_RPE_grid_positioning:xMp <- R12
	#DEBUG_VALUE: gsm_dec_RPE_grid_positioning:ep <- R15
	#DEBUG_VALUE: gsm_dec_RPE_grid_positioning:i <- 13
	jmpq	*.LJTI13_0(,%rax,8)
.Ltmp527:
.LBB13_3:                               # %sw.bb
	#DEBUG_VALUE: gsm_dec_RPE_grid_positioning:Mc <- [RBP+-56]
	#DEBUG_VALUE: gsm_dec_RPE_grid_positioning:xMp <- R12
	#DEBUG_VALUE: gsm_dec_RPE_grid_positioning:ep <- R15
	#DEBUG_VALUE: gsm_dec_RPE_grid_positioning:i <- 13
	movl	$7, %edi
	callq	_KPushCDep
	movl	$1, %edi
	callq	_KWork
	movl	$2, %esi
	movq	%r15, %rdi
	callq	_KStoreConst
	.loc	4 361 7                 # gsm_dec.c:361:7
.Ltmp528:
	movw	$0, (%r15)
	.loc	4 361 8 is_stmt 0       # gsm_dec.c:361:8
	leaq	2(%r15), %r15
.Ltmp529:
	movl	$6, %r13d
	movl	$6, %edi
	movl	$5, %esi
	xorl	%edx, %edx
	movl	$1, %ecx
	xorl	%r8d, %r8d
	callq	_KTimestamp2
	callq	_KPopCDep
.Ltmp530:
.LBB13_4:                               # %sw.bb1
	#DEBUG_VALUE: gsm_dec_RPE_grid_positioning:Mc <- [RBP+-56]
	#DEBUG_VALUE: gsm_dec_RPE_grid_positioning:xMp <- R12
	#DEBUG_VALUE: gsm_dec_RPE_grid_positioning:i <- 13
	movl	$7, %edi
	callq	_KPushCDep
	movl	$4, %edi
	movl	$7, %edx
	movl	%r13d, %esi
	callq	_KPhi1To1
	movl	$1, %edi
	callq	_KWork
.Ltmp531:
	#DEBUG_VALUE: gsm_dec_RPE_grid_positioning:ep <- R15
	movl	$2, %esi
	movq	%r15, %rdi
	callq	_KStoreConst
	.loc	4 363 7 is_stmt 1       # gsm_dec.c:363:7
	movw	$0, (%r15)
	.loc	4 363 8 is_stmt 0       # gsm_dec.c:363:8
	leaq	2(%r15), %r15
.Ltmp532:
	movl	$9, %r13d
	movl	$9, %edi
	movl	$1, %esi
	xorl	%edx, %edx
	movl	$4, %ecx
	xorl	%r8d, %r8d
	callq	_KTimestamp2
	callq	_KPopCDep
.Ltmp533:
.LBB13_5:                               # %sw.bb3
	#DEBUG_VALUE: gsm_dec_RPE_grid_positioning:Mc <- [RBP+-56]
	#DEBUG_VALUE: gsm_dec_RPE_grid_positioning:xMp <- R12
	#DEBUG_VALUE: gsm_dec_RPE_grid_positioning:i <- 13
	movl	$7, %edi
	callq	_KPushCDep
	movl	$8, %edi
	movl	$7, %edx
	movl	%r13d, %esi
	callq	_KPhi1To1
	movl	$1, %edi
	callq	_KWork
.Ltmp534:
	#DEBUG_VALUE: gsm_dec_RPE_grid_positioning:ep <- R15
	movl	$2, %esi
	movq	%r15, %rdi
	callq	_KStoreConst
	.loc	4 365 7 is_stmt 1       # gsm_dec.c:365:7
	movw	$0, (%r15)
	.loc	4 365 8 is_stmt 0       # gsm_dec.c:365:8
	leaq	2(%r15), %r15
.Ltmp535:
	movl	$11, %r13d
	movl	$11, %edi
	movl	$1, %esi
	xorl	%edx, %edx
	movl	$8, %ecx
	xorl	%r8d, %r8d
	callq	_KTimestamp2
	callq	_KPopCDep
.Ltmp536:
.LBB13_6:                               # %sw.bb5
	#DEBUG_VALUE: gsm_dec_RPE_grid_positioning:Mc <- [RBP+-56]
	#DEBUG_VALUE: gsm_dec_RPE_grid_positioning:xMp <- R12
	#DEBUG_VALUE: gsm_dec_RPE_grid_positioning:i <- 13
	movl	$7, %edi
	callq	_KPushCDep
	movl	$10, %edi
	movl	$7, %edx
	movl	%r13d, %esi
	callq	_KPhi1To1
	movl	$5, %edi
	callq	_KWork
	movl	$2, %esi
	movl	$2, %edx
	movq	%r12, %rdi
	callq	_KLoad0
	.loc	4 367 15 is_stmt 1      # gsm_dec.c:367:15
	movw	(%r12), %bx
	.loc	4 367 16 is_stmt 0      # gsm_dec.c:367:16
	leaq	2(%r12), %r12
.Ltmp537:
	#DEBUG_VALUE: gsm_dec_RPE_grid_positioning:ep <- R15
	movq	%r12, -72(%rbp)         # 8-byte Spill
	movl	$2, %edi
	movl	$2, %esi
	xorl	%edx, %edx
	callq	_KTimestamp1
	movl	$2, %edi
	movl	$2, %edx
	movq	%r15, %rsi
	callq	_KStore
	.loc	4 367 7                 # gsm_dec.c:367:7
	movw	%bx, (%r15)
	.loc	4 367 8                 # gsm_dec.c:367:8
	leaq	2(%r15), %r15
.Ltmp538:
	#DEBUG_VALUE: gsm_dec_RPE_grid_positioning:i <- 12
	movl	$15, %r13d
	movl	$15, %edi
	movl	$1, %esi
	xorl	%edx, %edx
	movl	$10, %ecx
	xorl	%r8d, %r8d
	callq	_KTimestamp2
	movl	$17, %r14d
	movl	$17, %edi
	movl	$18, %esi
	xorl	%edx, %edx
	movl	$1, %ecx
	xorl	%r8d, %r8d
	callq	_KTimestamp2
	movq	%r15, %r12
	movl	$13, %r15d
	movl	$13, %edi
	movl	$1, %esi
	xorl	%edx, %edx
	callq	_KTimestamp1
	callq	_KPopCDep
	movl	$12, %ebx
.Ltmp539:
.LBB13_7:                               # %do.body.preheader
	#DEBUG_VALUE: gsm_dec_RPE_grid_positioning:Mc <- [RBP+-56]
	#DEBUG_VALUE: gsm_dec_RPE_grid_positioning:i <- 13
	movq	%r12, -64(%rbp)         # 8-byte Spill
	movl	$16, -44(%rbp)          # 4-byte Folded Spill
	movl	$16, %edi
	movl	$7, %edx
	movl	%r14d, %esi
	callq	_KPhi1To1
	movl	$14, -52(%rbp)          # 4-byte Folded Spill
	movl	$14, %edi
	movl	$7, %edx
	movl	%r13d, %esi
	callq	_KPhi1To1
	movl	$12, -48(%rbp)          # 4-byte Folded Spill
	movl	$12, %edi
	movl	$7, %edx
	movl	%r15d, %esi
	callq	_KPhi1To1
	movl	$4, %edi
	callq	_KWork
	.loc	4 373 6 is_stmt 1       # gsm_dec.c:373:6
.Ltmp540:
	leal	-1(%rbx), %eax
	leaq	(%rax,%rax,2), %rax
	movq	%rax, -80(%rbp)         # 8-byte Spill
	movl	$12, %edi
	movl	$12, %esi
	xorl	%edx, %edx
	callq	_KTimestamp1
	movl	$16, %edi
	movl	$16, %esi
	xorl	%edx, %edx
	callq	_KTimestamp1
	movl	$14, %edi
	movl	$14, %esi
	xorl	%edx, %edx
	callq	_KTimestamp1
	movl	$1, %esi
	movabsq	$-513112622789374220, %rdi # imm = 0xF8E10EC9C4DECEF4
	callq	_KEnterRegion
	movabsq	$3921347177233989294, %r14 # imm = 0x366B6C7B44033EAE
	movq	%r12, %r15
	movq	-72(%rbp), %r12         # 8-byte Reload
	movq	%rbx, %r13
	xorl	%ebx, %ebx
	.align	16, 0x90
.LBB13_8:                               # %do.body
                                        # =>This Inner Loop Header: Depth=1
	#DEBUG_VALUE: gsm_dec_RPE_grid_positioning:Mc <- [RBP+-56]
	#DEBUG_VALUE: gsm_dec_RPE_grid_positioning:i <- 13
	movl	$2, %esi
	movq	%r14, %rdi
	callq	_KEnterRegion
	movl	$24, %edi
	movl	-44(%rbp), %esi         # 4-byte Reload
	movl	%ebx, %edx
	callq	_KPhi1To1
	movl	$19, %edi
	movl	-48(%rbp), %esi         # 4-byte Reload
	movl	%ebx, %edx
	callq	_KPhi1To1
	movl	$22, %edi
	movl	-52(%rbp), %esi         # 4-byte Reload
	movl	%ebx, %edx
	callq	_KPhi1To1
	movl	$9, %edi
	callq	_KWork
	movl	$2, %esi
	movq	%r15, %rdi
	callq	_KStoreConst
	.loc	4 373 5 is_stmt 0       # gsm_dec.c:373:5
	movw	$0, (%r15)
	leaq	2(%r15), %rdi
	movl	$2, %esi
	callq	_KStoreConst
	.loc	4 374 5 is_stmt 1       # gsm_dec.c:374:5
	movw	$0, 2(%r15)
.Ltmp541:
	#DEBUG_VALUE: gsm_dec_RPE_grid_positioning:xMp <- R12
	movl	$3, %esi
	movl	$2, %edx
	movq	%r12, %rdi
	callq	_KLoad0
	.loc	4 375 13                # gsm_dec.c:375:13
	movw	(%r12), %bx
	.loc	4 375 14 is_stmt 0      # gsm_dec.c:375:14
	leaq	2(%r12), %r12
.Ltmp542:
	movl	$3, %edi
	movl	$3, %esi
	xorl	%edx, %edx
	callq	_KTimestamp1
	leaq	4(%r15), %rsi
	movl	$3, %edi
	movl	$2, %edx
	callq	_KStore
	.loc	4 375 5                 # gsm_dec.c:375:5
	movw	%bx, 4(%r15)
	movl	$21, %ebx
	movl	$21, %edi
	movl	$19, %esi
	movl	$2, %edx
	callq	_KTimestamp1
	movl	$24, %edi
	movl	$21, %esi
	callq	_KPhiAddCond
	movl	$20, -48(%rbp)          # 4-byte Folded Spill
	movl	$20, %edi
	movl	$19, %esi
	movl	$1, %edx
	callq	_KTimestamp1
	movl	$25, -44(%rbp)          # 4-byte Folded Spill
	movl	$25, %edi
	movl	$24, %esi
	xorl	%edx, %edx
	callq	_KTimestamp1
	movl	$22, %edi
	movl	$21, %esi
	callq	_KPhiAddCond
	movl	$23, -52(%rbp)          # 4-byte Folded Spill
	movl	$23, %edi
	movl	$22, %esi
	xorl	%edx, %edx
	callq	_KTimestamp1
	movl	$19, %edi
	movl	$21, %esi
	callq	_KPhiAddCond
	movl	$2, %esi
	movq	%r14, %rdi
	callq	_KExitRegion
	addq	$6, %r15
	.loc	4 376 3 is_stmt 1       # gsm_dec.c:376:3
	decl	%r13d
	jne	.LBB13_8
.Ltmp543:
# BB#9:                                 # %do.body.pre_exit.while.cond.preheader
	#DEBUG_VALUE: gsm_dec_RPE_grid_positioning:Mc <- [RBP+-56]
	#DEBUG_VALUE: gsm_dec_RPE_grid_positioning:i <- 13
	movabsq	$-8970300859383483001, %r15 # imm = 0x838316E52410F587
	movl	$1, %r14d
	movl	$1, %esi
	movabsq	$-513112622789374220, %rdi # imm = 0xF8E10EC9C4DECEF4
	callq	_KExitRegion
	movq	-64(%rbp), %rax         # 8-byte Reload
	movq	-80(%rbp), %rcx         # 8-byte Reload
	leaq	6(%rax,%rcx,2), %r12
	movl	$30, -44(%rbp)          # 4-byte Folded Spill
	xorl	%r13d, %r13d
	movl	$30, %edi
	movl	$12, %esi
	movl	$4, %edx
	movl	$14, %ecx
	xorl	%r8d, %r8d
	callq	_KTimestamp2
	movl	$1, %edi
	movl	$1, %esi
	xorl	%edx, %edx
	callq	_KTimestamp1
	movl	$1, %esi
	movq	%r15, %rdi
	callq	_KEnterRegion
	movl	-56(%rbp), %r15d        # 4-byte Reload
.Ltmp544:
	#DEBUG_VALUE: gsm_dec_RPE_grid_positioning:Mc <- R15D
	incl	%r15d
.Ltmp545:
	movabsq	$371393583791484843, %rbx # imm = 0x527747F29C02FAB
	jmp	.LBB13_10
	.align	16, 0x90
.LBB13_11:                              # %while.body
                                        #   in Loop: Header=BB13_10 Depth=1
	#DEBUG_VALUE: gsm_dec_RPE_grid_positioning:i <- 13
	movl	$2, %esi
	movq	%rbx, %rdi
	callq	_KEnterRegion
	movl	$28, %r13d
	movl	$28, %edi
	callq	_KPushCDep
	movl	$1, %edi
	callq	_KWork
.Ltmp546:
	#DEBUG_VALUE: gsm_dec_RPE_grid_positioning:ep <- R12
	movl	$2, %esi
	movq	%r12, %rdi
	callq	_KStoreConst
	.loc	4 380 5                 # gsm_dec.c:380:5
	movw	$0, (%r12)
	.loc	4 380 6 is_stmt 0       # gsm_dec.c:380:6
	leaq	2(%r12), %r12
.Ltmp547:
	movl	$27, -44(%rbp)          # 4-byte Folded Spill
	movl	$27, %edi
	movl	$26, %esi
	xorl	%edx, %edx
	movl	$28, %ecx
	xorl	%r8d, %r8d
	callq	_KTimestamp2
	callq	_KPopCDep
	movl	$2, %esi
	movq	%rbx, %rdi
	callq	_KExitRegion
	incl	%r15d
	movl	$31, %r14d
.LBB13_10:                              # %while.cond
                                        # =>This Inner Loop Header: Depth=1
	#DEBUG_VALUE: gsm_dec_RPE_grid_positioning:i <- 13
	movl	$26, %edi
	movl	-44(%rbp), %esi         # 4-byte Reload
	movl	%r13d, %edx
	callq	_KPhi1To1
	movl	$29, %edi
	movl	%r14d, %esi
	movl	%r13d, %edx
	callq	_KPhi1To1
	movl	$2, %edi
	callq	_KWork
	movl	$26, %edi
	movl	$26, %esi
	xorl	%edx, %edx
	callq	_KTimestamp1
	movl	$31, %edi
	movl	$29, %esi
	movl	$1, %edx
	callq	_KTimestamp1
	movl	$28, %edi
	movl	$29, %esi
	movl	$2, %edx
	callq	_KTimestamp1
	movl	$26, %edi
	movl	$28, %esi
	callq	_KPhiAddCond
	movl	$29, %edi
	movl	$28, %esi
	callq	_KPhiAddCond
	.loc	4 379 3 is_stmt 1       # gsm_dec.c:379:3
	movswl	%r15w, %eax
	cmpl	$3, %eax
	jle	.LBB13_11
.Ltmp548:
# BB#12:                                # %while.cond.pre_exit.while.end
	#DEBUG_VALUE: gsm_dec_RPE_grid_positioning:i <- 13
	movl	$1, %esi
	movabsq	$-8970300859383483001, %rdi # imm = 0x838316E52410F587
	callq	_KExitRegion
	xorl	%esi, %esi
	movabsq	$-4128807961418380072, %rdi # imm = 0xC6B38708D1DA4CD8
	addq	$40, %rsp
	popq	%rbx
	popq	%r12
	popq	%r13
	popq	%r14
	popq	%r15
	popq	%rbp
	jmp	_KExitRegion            # TAILCALL
.Ltmp549:
	.size	gsm_dec_RPE_grid_positioning, .Ltmp549-gsm_dec_RPE_grid_positioning
.Lfunc_end13:
	.cfi_endproc
	.section	.rodata,"a",@progbits
	.align	8
.LJTI13_0:
	.quad	.LBB13_6
	.quad	.LBB13_5
	.quad	.LBB13_4
	.quad	.LBB13_3

	.text
	.globl	gsm_dec_Coefficients_13_26
	.align	16, 0x90
	.type	gsm_dec_Coefficients_13_26,@function
gsm_dec_Coefficients_13_26:             # @gsm_dec_Coefficients_13_26
.Lfunc_begin14:
	.loc	4 483 0                 # gsm_dec.c:483:0
	.cfi_startproc
# BB#0:                                 # %entry
	pushq	%rbp
.Ltmp550:
	.cfi_def_cfa_offset 16
.Ltmp551:
	.cfi_offset %rbp, -16
	movq	%rsp, %rbp
.Ltmp552:
	.cfi_def_cfa_register %rbp
	pushq	%r15
	pushq	%r14
	pushq	%r13
	pushq	%r12
	pushq	%rbx
	subq	$56, %rsp
.Ltmp553:
	.cfi_offset %rbx, -56
.Ltmp554:
	.cfi_offset %r12, -48
.Ltmp555:
	.cfi_offset %r13, -40
.Ltmp556:
	.cfi_offset %r14, -32
.Ltmp557:
	.cfi_offset %r15, -24
	#DEBUG_VALUE: gsm_dec_Coefficients_13_26:LARpp_j_1 <- RDI
	#DEBUG_VALUE: gsm_dec_Coefficients_13_26:LARpp_j <- RSI
	#DEBUG_VALUE: gsm_dec_Coefficients_13_26:LARp <- RDX
	movq	%rdx, -56(%rbp)         # 8-byte Spill
.Ltmp558:
	#DEBUG_VALUE: gsm_dec_Coefficients_13_26:LARp <- [RBP+-56]
	movq	%rsi, -64(%rbp)         # 8-byte Spill
.Ltmp559:
	#DEBUG_VALUE: gsm_dec_Coefficients_13_26:LARpp_j <- [RBP+-64]
	movq	%rdi, -72(%rbp)         # 8-byte Spill
.Ltmp560:
	#DEBUG_VALUE: gsm_dec_Coefficients_13_26:LARpp_j_1 <- [RBP+-72]
	movabsq	$7518487714514121408, %rdi # imm = 0x685708BDDFC0B2C0
	movabsq	$2126989444119193505, %rbx # imm = 0x1D8495A151BAE7A1
	xorl	%r14d, %r14d
	xorl	%esi, %esi
	callq	_KEnterRegion
	movl	$20, %edi
	movl	$2, %esi
	callq	_KPrepRTable
.Ltmp561:
	#DEBUG_VALUE: gsm_dec_Coefficients_13_26:i <- 1
	movl	$12, -44(%rbp)          # 4-byte Folded Spill
	movl	$12, %edi
	movl	$12, %esi
	xorl	%edx, %edx
	callq	_KTimestamp1
	movl	$9, %r12d
	movl	$9, %edi
	movl	$9, %esi
	xorl	%edx, %edx
	callq	_KTimestamp1
	movl	$15, %r13d
	movl	$15, %edi
	movl	$15, %esi
	xorl	%edx, %edx
	callq	_KTimestamp1
	movl	$1, %esi
	movq	%rbx, %rdi
	callq	_KEnterRegion
	xorl	%r15d, %r15d
	xorl	%ebx, %ebx
	jmp	.LBB14_1
	.align	16, 0x90
.LBB14_4:                               # %cond.end
                                        #   in Loop: Header=BB14_1 Depth=1
	#DEBUG_VALUE: gsm_dec_Coefficients_13_26:LARpp_j_1 <- [RBP+-72]
	#DEBUG_VALUE: gsm_dec_Coefficients_13_26:LARpp_j <- [RBP+-64]
	#DEBUG_VALUE: gsm_dec_Coefficients_13_26:LARp <- [RBP+-56]
	#DEBUG_VALUE: gsm_dec_Coefficients_13_26:i <- 1
	movl	$4, %r15d
	movl	$4, %edi
	callq	_KPushCDep
	movl	$6, %edi
	movl	$4, %edx
	movl	$19, %ecx
	movl	%r12d, %esi
	callq	_KPhi2To1
	movl	$2, %edi
	callq	_KWork
	movl	$3, %edi
	movl	$4, %esi
	xorl	%edx, %edx
	movl	$6, %ecx
	xorl	%r8d, %r8d
	callq	_KTimestamp2
	movq	-56(%rbp), %rbx         # 8-byte Reload
.Ltmp562:
	#DEBUG_VALUE: gsm_dec_Coefficients_13_26:LARp <- RBX
	leaq	(%rbx,%r14), %rsi
	movl	$3, %edi
	movl	$2, %edx
	callq	_KStore
	.loc	4 488 5 prologue_end    # gsm_dec.c:488:5
.Ltmp563:
	movw	%r13w, (%rbx,%r14)
.Ltmp564:
	#DEBUG_VALUE: gsm_dec_Coefficients_13_26:LARp <- [RBP+-56]
	movl	$7, %ebx
	movl	$7, %edi
	movl	$5, %esi
	movl	$1, %edx
	movl	$4, %ecx
	movl	$1, %r8d
	callq	_KTimestamp2
	movl	$10, %r12d
	movl	$10, %edi
	movl	$8, %esi
	xorl	%edx, %edx
	movl	$4, %ecx
	xorl	%r8d, %r8d
	callq	_KTimestamp2
	movl	$13, -44(%rbp)          # 4-byte Folded Spill
	movl	$13, %edi
	movl	$11, %esi
	xorl	%edx, %edx
	movl	$4, %ecx
	xorl	%r8d, %r8d
	callq	_KTimestamp2
	movl	$16, %r13d
	movl	$16, %edi
	movl	$14, %esi
	xorl	%edx, %edx
	movl	$4, %ecx
	xorl	%r8d, %r8d
	callq	_KTimestamp2
	callq	_KPopCDep
	movl	$2, %esi
	movabsq	$-4139353038276792145, %rdi # imm = 0xC68E1057C993F0AF
	callq	_KExitRegion
	addq	$2, %r14
.Ltmp565:
.LBB14_1:                               # %for.cond
                                        # =>This Inner Loop Header: Depth=1
	#DEBUG_VALUE: gsm_dec_Coefficients_13_26:LARpp_j_1 <- [RBP+-72]
	#DEBUG_VALUE: gsm_dec_Coefficients_13_26:LARpp_j <- [RBP+-64]
	#DEBUG_VALUE: gsm_dec_Coefficients_13_26:LARp <- [RBP+-56]
	#DEBUG_VALUE: gsm_dec_Coefficients_13_26:i <- 1
	movl	$5, %edi
	movl	%ebx, %esi
	movl	%r15d, %edx
	callq	_KPhi1To1
	movl	$14, %edi
	movl	%r13d, %esi
	movl	%r15d, %edx
	callq	_KPhi1To1
	movl	$8, %edi
	movl	%r12d, %esi
	movl	%r15d, %edx
	callq	_KPhi1To1
	movl	$11, %edi
	movl	-44(%rbp), %esi         # 4-byte Reload
	movl	%r15d, %edx
	callq	_KPhi1To1
	movl	$1, %edi
	callq	_KWork
	movl	$4, %edi
	movl	$5, %esi
	movl	$1, %edx
	callq	_KTimestamp1
	movl	$14, %edi
	movl	$4, %esi
	callq	_KPhiAddCond
	movl	$11, %edi
	movl	$11, %esi
	xorl	%edx, %edx
	callq	_KTimestamp1
	movl	$8, %edi
	movl	$8, %esi
	xorl	%edx, %edx
	callq	_KTimestamp1
	movl	$5, %edi
	movl	$5, %esi
	xorl	%edx, %edx
	callq	_KTimestamp1
	movl	$14, %edi
	movl	$14, %esi
	xorl	%edx, %edx
	callq	_KTimestamp1
	movl	$5, %edi
	movl	$4, %esi
	callq	_KPhiAddCond
	movl	$11, %edi
	movl	$4, %esi
	callq	_KPhiAddCond
	movl	$8, %edi
	movl	$4, %esi
	callq	_KPhiAddCond
	.loc	4 487 3                 # gsm_dec.c:487:3
	cmpl	$16, %r14d
	je	.LBB14_5
# BB#2:                                 # %for.body
                                        #   in Loop: Header=BB14_1 Depth=1
	#DEBUG_VALUE: gsm_dec_Coefficients_13_26:LARpp_j_1 <- [RBP+-72]
	#DEBUG_VALUE: gsm_dec_Coefficients_13_26:LARpp_j <- [RBP+-64]
	#DEBUG_VALUE: gsm_dec_Coefficients_13_26:LARp <- [RBP+-56]
	#DEBUG_VALUE: gsm_dec_Coefficients_13_26:i <- 1
	movl	$2, %esi
	movabsq	$-4139353038276792145, %rax # imm = 0xC68E1057C993F0AF
	movq	%rax, %rdi
	callq	_KEnterRegion
	movl	$4, %edi
	callq	_KPushCDep
	movq	-72(%rbp), %rbx         # 8-byte Reload
.Ltmp566:
	#DEBUG_VALUE: gsm_dec_Coefficients_13_26:LARpp_j_1 <- RBX
	leaq	(%rbx,%r14), %rdi
	movl	$1, %esi
	movl	$2, %edx
	callq	_KLoad0
	movl	$13, %edi
	callq	_KWork
	.loc	4 488 13                # gsm_dec.c:488:13
.Ltmp567:
	movswl	(%rbx,%r14), %r12d
.Ltmp568:
	#DEBUG_VALUE: gsm_dec_Coefficients_13_26:LARpp_j_1 <- [RBP+-72]
	sarl	%r12d
	movq	-64(%rbp), %rbx         # 8-byte Reload
.Ltmp569:
	#DEBUG_VALUE: gsm_dec_Coefficients_13_26:LARpp_j <- RBX
	leaq	(%rbx,%r14), %rdi
	movl	$2, %esi
	movl	$2, %edx
	callq	_KLoad0
	movswl	(%rbx,%r14), %r15d
.Ltmp570:
	#DEBUG_VALUE: gsm_dec_Coefficients_13_26:LARpp_j <- [RBP+-64]
	sarl	%r15d
	addl	%r12d, %r15d
	movslq	%r15d, %r13
.Ltmp571:
	#DEBUG_VALUE: gsm_dec_Coefficients_13_26:ltmp <- R15D
	leaq	32768(%r13), %rbx
	movl	$2, (%rsp)
	movl	$18, %r12d
	movl	$18, %edi
	movl	$4, %esi
	movl	$2, %edx
	movl	$1, %ecx
	movl	$2, %r8d
	movl	$2, %r9d
	callq	_KTimestamp3
	movl	$4, (%rsp)
	movl	$19, %edi
	movl	$4, %esi
	movl	$4, %edx
	movl	$1, %ecx
	movl	$4, %r8d
	movl	$2, %r9d
	callq	_KTimestamp3
	callq	_KPopCDep
	cmpq	$65536, %rbx            # imm = 0x10000
	jb	.LBB14_4
.Ltmp572:
# BB#3:                                 # %cond.true
                                        #   in Loop: Header=BB14_1 Depth=1
	#DEBUG_VALUE: gsm_dec_Coefficients_13_26:LARpp_j_1 <- [RBP+-72]
	#DEBUG_VALUE: gsm_dec_Coefficients_13_26:LARpp_j <- [RBP+-64]
	#DEBUG_VALUE: gsm_dec_Coefficients_13_26:LARp <- [RBP+-56]
	#DEBUG_VALUE: gsm_dec_Coefficients_13_26:i <- 1
	#DEBUG_VALUE: gsm_dec_Coefficients_13_26:ltmp <- R15D
	movl	$19, %edi
	callq	_KPushCDep
	movl	$1, %edi
	callq	_KWork
	.loc	4 488 13 is_stmt 0 discriminator 1 # gsm_dec.c:488:13
	testl	%r15d, %r15d
	movq	$-32768, %r13           # imm = 0xFFFFFFFFFFFF8000
	movl	$32767, %eax            # imm = 0x7FFF
	cmovgq	%rax, %r13
	movl	$5, (%rsp)
	movl	$17, %r12d
	movl	$17, %edi
	movl	$4, %esi
	movl	$5, %edx
	movl	$1, %ecx
	movl	$5, %r8d
	movl	$2, %r9d
	callq	_KTimestamp3
	callq	_KPopCDep
	jmp	.LBB14_4
.Ltmp573:
.LBB14_5:                               # %for.cond.pre_exit.for.end
	#DEBUG_VALUE: gsm_dec_Coefficients_13_26:i <- 1
	movl	$1, %esi
	movabsq	$2126989444119193505, %rdi # imm = 0x1D8495A151BAE7A1
	callq	_KExitRegion
	xorl	%esi, %esi
	movabsq	$7518487714514121408, %rdi # imm = 0x685708BDDFC0B2C0
	addq	$56, %rsp
	popq	%rbx
	popq	%r12
	popq	%r13
	popq	%r14
	popq	%r15
	popq	%rbp
	jmp	_KExitRegion            # TAILCALL
.Ltmp574:
	.size	gsm_dec_Coefficients_13_26, .Ltmp574-gsm_dec_Coefficients_13_26
.Lfunc_end14:
	.cfi_endproc

	.globl	gsm_dec_Coefficients_40_159
	.align	16, 0x90
	.type	gsm_dec_Coefficients_40_159,@function
gsm_dec_Coefficients_40_159:            # @gsm_dec_Coefficients_40_159
.Lfunc_begin15:
	.loc	4 492 0 is_stmt 1       # gsm_dec.c:492:0
	.cfi_startproc
# BB#0:                                 # %entry
	pushq	%rbp
.Ltmp575:
	.cfi_def_cfa_offset 16
.Ltmp576:
	.cfi_offset %rbp, -16
	movq	%rsp, %rbp
.Ltmp577:
	.cfi_def_cfa_register %rbp
	pushq	%r15
	pushq	%r14
	pushq	%r13
	pushq	%r12
	pushq	%rbx
	subq	$24, %rsp
.Ltmp578:
	.cfi_offset %rbx, -56
.Ltmp579:
	.cfi_offset %r12, -48
.Ltmp580:
	.cfi_offset %r13, -40
.Ltmp581:
	.cfi_offset %r14, -32
.Ltmp582:
	.cfi_offset %r15, -24
	#DEBUG_VALUE: gsm_dec_Coefficients_40_159:LARpp_j <- RDI
	#DEBUG_VALUE: gsm_dec_Coefficients_40_159:LARp <- RSI
	movq	%rsi, -56(%rbp)         # 8-byte Spill
.Ltmp583:
	#DEBUG_VALUE: gsm_dec_Coefficients_40_159:LARp <- [RBP+-56]
	movq	%rdi, -64(%rbp)         # 8-byte Spill
.Ltmp584:
	#DEBUG_VALUE: gsm_dec_Coefficients_40_159:LARpp_j <- [RBP+-64]
	movabsq	$-7892002681160274821, %rdi # imm = 0x9279F9600702EC7B
	movabsq	$-8391115309697066602, %r14 # imm = 0x8B8CC515782A1996
	xorl	%r15d, %r15d
	xorl	%esi, %esi
	callq	_KEnterRegion
	movl	$11, %edi
	movl	$2, %esi
	callq	_KPrepRTable
.Ltmp585:
	#DEBUG_VALUE: gsm_dec_Coefficients_40_159:i <- 1
	movl	$6, -44(%rbp)           # 4-byte Folded Spill
	movl	$6, %edi
	movl	$6, %esi
	xorl	%edx, %edx
	callq	_KTimestamp1
	movl	$9, %ebx
	movl	$9, %edi
	movl	$9, %esi
	xorl	%edx, %edx
	callq	_KTimestamp1
	movl	$1, %esi
	movq	%r14, %rdi
	callq	_KEnterRegion
	movabsq	$-7860459574523452362, %r13 # imm = 0x92EA09A9D9362436
	xorl	%r14d, %r14d
	xorl	%r12d, %r12d
	jmp	.LBB15_1
	.align	16, 0x90
.LBB15_2:                               # %for.body
                                        #   in Loop: Header=BB15_1 Depth=1
	#DEBUG_VALUE: gsm_dec_Coefficients_40_159:LARpp_j <- [RBP+-64]
	#DEBUG_VALUE: gsm_dec_Coefficients_40_159:LARp <- [RBP+-56]
	#DEBUG_VALUE: gsm_dec_Coefficients_40_159:i <- 1
	movl	$2, %esi
	movq	%r13, %rdi
	callq	_KEnterRegion
	movl	$4, %r14d
	movl	$4, %edi
	callq	_KPushCDep
	movq	-64(%rbp), %rbx         # 8-byte Reload
.Ltmp586:
	#DEBUG_VALUE: gsm_dec_Coefficients_40_159:LARpp_j <- RBX
	leaq	(%rbx,%r15), %rdi
	movl	$1, %esi
	movl	$2, %edx
	callq	_KLoad0
	movl	$6, %edi
	callq	_KWork
	.loc	4 497 13 prologue_end   # gsm_dec.c:497:13
.Ltmp587:
	movw	(%rbx,%r15), %r12w
.Ltmp588:
	#DEBUG_VALUE: gsm_dec_Coefficients_40_159:LARpp_j <- [RBP+-64]
	movl	$1, %edi
	movl	$1, %esi
	xorl	%edx, %edx
	callq	_KTimestamp1
	movq	-56(%rbp), %rbx         # 8-byte Reload
.Ltmp589:
	#DEBUG_VALUE: gsm_dec_Coefficients_40_159:LARp <- RBX
	leaq	(%rbx,%r15), %rsi
	movl	$1, %edi
	movl	$2, %edx
	callq	_KStore
	.loc	4 497 5 is_stmt 0       # gsm_dec.c:497:5
	movw	%r12w, (%rbx,%r15)
.Ltmp590:
	#DEBUG_VALUE: gsm_dec_Coefficients_40_159:LARp <- [RBP+-56]
	movl	$7, -44(%rbp)           # 4-byte Folded Spill
	movl	$7, %edi
	movl	$5, %esi
	xorl	%edx, %edx
	movl	$4, %ecx
	xorl	%r8d, %r8d
	callq	_KTimestamp2
	movl	$3, %r12d
	movl	$3, %edi
	movl	$2, %esi
	movl	$1, %edx
	movl	$4, %ecx
	movl	$1, %r8d
	callq	_KTimestamp2
	movl	$10, %ebx
	movl	$10, %edi
	movl	$8, %esi
	xorl	%edx, %edx
	movl	$4, %ecx
	xorl	%r8d, %r8d
	callq	_KTimestamp2
	callq	_KPopCDep
	movl	$2, %esi
	movq	%r13, %rdi
	callq	_KExitRegion
	addq	$2, %r15
.Ltmp591:
.LBB15_1:                               # %for.cond
                                        # =>This Inner Loop Header: Depth=1
	#DEBUG_VALUE: gsm_dec_Coefficients_40_159:LARpp_j <- [RBP+-64]
	#DEBUG_VALUE: gsm_dec_Coefficients_40_159:LARp <- [RBP+-56]
	#DEBUG_VALUE: gsm_dec_Coefficients_40_159:i <- 1
	movl	$2, %edi
	movl	%r12d, %esi
	movl	%r14d, %edx
	callq	_KPhi1To1
	movl	$5, %edi
	movl	-44(%rbp), %esi         # 4-byte Reload
	movl	%r14d, %edx
	callq	_KPhi1To1
	movl	$8, %edi
	movl	%ebx, %esi
	movl	%r14d, %edx
	callq	_KPhi1To1
	movl	$1, %edi
	callq	_KWork
	movl	$8, %edi
	movl	$8, %esi
	xorl	%edx, %edx
	callq	_KTimestamp1
	movl	$4, %edi
	movl	$2, %esi
	movl	$1, %edx
	callq	_KTimestamp1
	movl	$5, %edi
	movl	$4, %esi
	callq	_KPhiAddCond
	movl	$2, %edi
	movl	$4, %esi
	callq	_KPhiAddCond
	movl	$2, %edi
	movl	$2, %esi
	xorl	%edx, %edx
	callq	_KTimestamp1
	movl	$8, %edi
	movl	$4, %esi
	callq	_KPhiAddCond
	movl	$5, %edi
	movl	$5, %esi
	xorl	%edx, %edx
	callq	_KTimestamp1
	.loc	4 496 3 is_stmt 1       # gsm_dec.c:496:3
	cmpl	$16, %r15d
	jne	.LBB15_2
.Ltmp592:
# BB#3:                                 # %for.cond.pre_exit.for.end
	#DEBUG_VALUE: gsm_dec_Coefficients_40_159:i <- 1
	movl	$1, %esi
	movabsq	$-8391115309697066602, %rdi # imm = 0x8B8CC515782A1996
	callq	_KExitRegion
	xorl	%esi, %esi
	movabsq	$-7892002681160274821, %rdi # imm = 0x9279F9600702EC7B
	addq	$24, %rsp
	popq	%rbx
	popq	%r12
	popq	%r13
	popq	%r14
	popq	%r15
	popq	%rbp
	jmp	_KExitRegion            # TAILCALL
.Ltmp593:
	.size	gsm_dec_Coefficients_40_159, .Ltmp593-gsm_dec_Coefficients_40_159
.Lfunc_end15:
	.cfi_endproc

	.globl	gsm_dec_Short_term_synthesis_filtering
	.align	16, 0x90
	.type	gsm_dec_Short_term_synthesis_filtering,@function
gsm_dec_Short_term_synthesis_filtering: # @gsm_dec_Short_term_synthesis_filtering
.Lfunc_begin16:
	.loc	4 505 0                 # gsm_dec.c:505:0
	.cfi_startproc
# BB#0:                                 # %entry
	pushq	%rbp
.Ltmp594:
	.cfi_def_cfa_offset 16
.Ltmp595:
	.cfi_offset %rbp, -16
	movq	%rsp, %rbp
.Ltmp596:
	.cfi_def_cfa_register %rbp
	pushq	%r15
	pushq	%r14
	pushq	%r13
	pushq	%r12
	pushq	%rbx
	subq	$72, %rsp
.Ltmp597:
	.cfi_offset %rbx, -56
.Ltmp598:
	.cfi_offset %r12, -48
.Ltmp599:
	.cfi_offset %r13, -40
.Ltmp600:
	.cfi_offset %r14, -32
.Ltmp601:
	.cfi_offset %r15, -24
	#DEBUG_VALUE: gsm_dec_Short_term_synthesis_filtering:S <- RDI
	#DEBUG_VALUE: gsm_dec_Short_term_synthesis_filtering:rrp <- RSI
	#DEBUG_VALUE: gsm_dec_Short_term_synthesis_filtering:k <- EDX
	#DEBUG_VALUE: gsm_dec_Short_term_synthesis_filtering:wt <- RCX
	#DEBUG_VALUE: gsm_dec_Short_term_synthesis_filtering:sr <- R8
	movq	%r8, %rbx
.Ltmp602:
	#DEBUG_VALUE: gsm_dec_Short_term_synthesis_filtering:sr <- RBX
	movq	%rcx, %r12
.Ltmp603:
	#DEBUG_VALUE: gsm_dec_Short_term_synthesis_filtering:wt <- R12
	movl	%edx, -76(%rbp)         # 4-byte Spill
.Ltmp604:
	#DEBUG_VALUE: gsm_dec_Short_term_synthesis_filtering:k <- [RBP+-76]
	movq	%rsi, -72(%rbp)         # 8-byte Spill
.Ltmp605:
	#DEBUG_VALUE: gsm_dec_Short_term_synthesis_filtering:rrp <- [RBP+-72]
	movq	%rdi, %r15
.Ltmp606:
	#DEBUG_VALUE: gsm_dec_Short_term_synthesis_filtering:S <- R15
	movq	%r15, -56(%rbp)         # 8-byte Spill
	movabsq	$-5188388120452537585, %rdi # imm = 0xB7FF247E6391E30F
	xorl	%r14d, %r14d
	xorl	%esi, %esi
	callq	_KEnterRegion
	movl	$36, %edi
	movl	$4, %esi
	callq	_KPrepRTable
	movl	$1, %r13d
	movl	$1, %edi
	callq	_KDeqArg
	.loc	4 506 13 prologue_end   # gsm_dec.c:506:13
.Ltmp607:
	leaq	632(%r15), %rax
.Ltmp608:
	#DEBUG_VALUE: gsm_dec_Short_term_synthesis_filtering:v <- [RBP+-104]
	movq	%rax, -104(%rbp)        # 8-byte Spill
	movl	$15, -48(%rbp)          # 4-byte Folded Spill
	movl	$15, %edi
	movl	$15, %esi
	xorl	%edx, %edx
	callq	_KTimestamp1
	movl	$1, %edi
	movl	$1, %esi
	xorl	%edx, %edx
	callq	_KTimestamp1
	movl	$18, -64(%rbp)          # 4-byte Folded Spill
	movl	$18, %edi
	movl	$18, %esi
	xorl	%edx, %edx
	callq	_KTimestamp1
	movl	$1, %esi
	movabsq	$-4838949695343136557, %rdi # imm = 0xBCD898E3D31670D3
	callq	_KEnterRegion
.Ltmp609:
	#DEBUG_VALUE: gsm_dec_Short_term_synthesis_filtering:rrp <- undef
	addq	$14, -72(%rbp)          # 8-byte Folded Spill
	jmp	.LBB16_1
.Ltmp610:
	.align	16, 0x90
.LBB16_15:                              # %for.cond.pre_exit.for.end
                                        #   in Loop: Header=BB16_1 Depth=1
	#DEBUG_VALUE: gsm_dec_Short_term_synthesis_filtering:S <- R15
	#DEBUG_VALUE: gsm_dec_Short_term_synthesis_filtering:v <- [RBP+-104]
	#DEBUG_VALUE: gsm_dec_Short_term_synthesis_filtering:i <- 8
	movl	$1, %esi
	movabsq	$8183328081487775732, %rdi # imm = 0x71910588718EC7F4
	callq	_KExitRegion
	movl	$8, %r14d
	movl	$8, %edi
	callq	_KPushCDep
	movl	$2, %edi
	callq	_KWork
	movq	-96(%rbp), %r12         # 8-byte Reload
	.loc	4 513 12                # gsm_dec.c:513:12
.Ltmp611:
	addq	$2, %r12
.Ltmp612:
	#DEBUG_VALUE: gsm_dec_Short_term_synthesis_filtering:wt <- R12
	movl	$13, %edi
	movl	$2, %edx
	movq	-104(%rbp), %rbx        # 8-byte Reload
.Ltmp613:
	#DEBUG_VALUE: gsm_dec_Short_term_synthesis_filtering:v <- RBX
	movq	%rbx, %rsi
	callq	_KStore
	movq	-48(%rbp), %r13         # 8-byte Reload
	.loc	4 536 13                # gsm_dec.c:536:13
	movw	%r13w, (%rbx)
.Ltmp614:
	#DEBUG_VALUE: gsm_dec_Short_term_synthesis_filtering:v <- [RBP+-104]
	#DEBUG_VALUE: gsm_dec_Short_term_synthesis_filtering:sr <- [RBP+-88]
	movl	$13, %edi
	movl	$2, %edx
	movq	-88(%rbp), %rbx         # 8-byte Reload
.Ltmp615:
	#DEBUG_VALUE: gsm_dec_Short_term_synthesis_filtering:sr <- RBX
	movq	%rbx, %rsi
	callq	_KStore
	.loc	4 536 5 is_stmt 0       # gsm_dec.c:536:5
	movw	%r13w, (%rbx)
	.loc	4 536 6                 # gsm_dec.c:536:6
	leaq	2(%rbx), %rbx
.Ltmp616:
	movl	$16, -48(%rbp)          # 4-byte Folded Spill
	movl	$16, %edi
	movl	$14, %esi
	xorl	%edx, %edx
	movl	$8, %ecx
	xorl	%r8d, %r8d
	callq	_KTimestamp2
	movl	$19, -64(%rbp)          # 4-byte Folded Spill
	movl	$19, %edi
	movl	$17, %esi
	xorl	%edx, %edx
	movl	$8, %ecx
	xorl	%r8d, %r8d
	callq	_KTimestamp2
	callq	_KPopCDep
	movl	$2, %esi
	movabsq	$2875206872729514714, %rdi # imm = 0x27E6C96AD0CDF2DA
	callq	_KExitRegion
	movl	$20, %r13d
.Ltmp617:
.LBB16_1:                               # %while.cond
                                        # =>This Loop Header: Depth=1
                                        #     Child Loop BB16_3 Depth 2
	#DEBUG_VALUE: gsm_dec_Short_term_synthesis_filtering:S <- R15
	#DEBUG_VALUE: gsm_dec_Short_term_synthesis_filtering:v <- [RBP+-104]
	movl	$9, %edi
	movl	%r13d, %esi
	movl	%r14d, %edx
	callq	_KPhi1To1
	movl	$14, %edi
	movl	-48(%rbp), %esi         # 4-byte Reload
	movl	%r14d, %edx
	callq	_KPhi1To1
	movl	$17, %edi
	movl	-64(%rbp), %esi         # 4-byte Reload
	movl	%r14d, %edx
	callq	_KPhi1To1
	movl	$2, %edi
	callq	_KWork
	movl	$8, %edi
	movl	$9, %esi
	movl	$2, %edx
	callq	_KTimestamp1
	movl	$9, %edi
	movl	$8, %esi
	callq	_KPhiAddCond
	movl	$14, %edi
	movl	$8, %esi
	callq	_KPhiAddCond
	movl	$20, %edi
	movl	$9, %esi
	movl	$1, %edx
	callq	_KTimestamp1
	movl	$17, %edi
	movl	$8, %esi
	callq	_KPhiAddCond
	movl	$17, %edi
	movl	$17, %esi
	xorl	%edx, %edx
	callq	_KTimestamp1
	movl	$14, %edi
	movl	$14, %esi
	xorl	%edx, %edx
	callq	_KTimestamp1
	movl	-76(%rbp), %eax         # 4-byte Reload
	.loc	4 512 3 is_stmt 1       # gsm_dec.c:512:3
	decl	%eax
	je	.LBB16_16
.Ltmp618:
# BB#2:                                 # %while.body
                                        #   in Loop: Header=BB16_1 Depth=1
	#DEBUG_VALUE: gsm_dec_Short_term_synthesis_filtering:S <- R15
	#DEBUG_VALUE: gsm_dec_Short_term_synthesis_filtering:v <- [RBP+-104]
	movl	%eax, -76(%rbp)         # 4-byte Spill
	movq	%rbx, -88(%rbp)         # 8-byte Spill
	movl	$2, %r13d
	movl	$2, %esi
	movabsq	$2875206872729514714, %rdi # imm = 0x27E6C96AD0CDF2DA
	callq	_KEnterRegion
	movl	$8, %edi
	callq	_KPushCDep
	movl	$4, %edi
	callq	_KWork
	movl	$2, %esi
	movl	$2, %edx
	movq	%r12, %rdi
	callq	_KLoad0
	.loc	4 513 11                # gsm_dec.c:513:11
.Ltmp619:
	movw	(%r12), %ax
	#DEBUG_VALUE: gsm_dec_Short_term_synthesis_filtering:i <- 8
.Ltmp620:
	#DEBUG_VALUE: gsm_dec_Short_term_synthesis_filtering:sri <- [RBP+-48]
	movq	%rax, -48(%rbp)         # 8-byte Spill
	movq	%r12, -96(%rbp)         # 8-byte Spill
	xorl	%r14d, %r14d
	movl	$2, %edi
	movl	$2, %esi
	xorl	%edx, %edx
	callq	_KTimestamp1
	callq	_KPopCDep
	movl	$1, %esi
	movabsq	$8183328081487775732, %rdi # imm = 0x71910588718EC7F4
	callq	_KEnterRegion
	xorl	%r12d, %r12d
	xorl	%ebx, %ebx
	jmp	.LBB16_3
.Ltmp621:
	.align	16, 0x90
.LBB16_14:                              # %cond.end60
                                        #   in Loop: Header=BB16_3 Depth=2
	#DEBUG_VALUE: gsm_dec_Short_term_synthesis_filtering:S <- [RBP+-56]
	#DEBUG_VALUE: gsm_dec_Short_term_synthesis_filtering:v <- [RBP+-104]
	#DEBUG_VALUE: gsm_dec_Short_term_synthesis_filtering:sri <- [RBP+-48]
	#DEBUG_VALUE: gsm_dec_Short_term_synthesis_filtering:i <- 8
	movl	$10, %r12d
	movl	$10, %edi
	callq	_KPushCDep
	movl	$12, %edi
	movl	$10, %edx
	movl	$33, %ecx
	movl	%r15d, %esi
	callq	_KPhi2To1
	movl	$2, %edi
	callq	_KWork
	movl	$7, %edi
	movl	$10, %esi
	xorl	%edx, %edx
	movl	$12, %ecx
	xorl	%r8d, %r8d
	callq	_KTimestamp2
	movq	-56(%rbp), %r15         # 8-byte Reload
.Ltmp622:
	#DEBUG_VALUE: gsm_dec_Short_term_synthesis_filtering:S <- R15
	leaq	648(%r15,%r14), %rsi
	movl	$7, %edi
	movl	$2, %edx
	callq	_KStore
	.loc	4 534 7                 # gsm_dec.c:534:7
.Ltmp623:
	movw	%r13w, 648(%r15,%r14)
	callq	_KPopCDep
	movl	$2, %esi
	movabsq	$-499311130613695560, %rdi # imm = 0xF912172C135F3BB8
	callq	_KExitRegion
	addq	$-2, %r14
	movl	$21, %r13d
	movl	$4, %ebx
.Ltmp624:
.LBB16_3:                               # %for.cond
                                        #   Parent Loop BB16_1 Depth=1
                                        # =>  This Inner Loop Header: Depth=2
	#DEBUG_VALUE: gsm_dec_Short_term_synthesis_filtering:S <- R15
	#DEBUG_VALUE: gsm_dec_Short_term_synthesis_filtering:v <- [RBP+-104]
	#DEBUG_VALUE: gsm_dec_Short_term_synthesis_filtering:i <- 8
	movl	$8, %edi
	callq	_KPushCDep
	movl	$13, %edi
	movl	$8, %edx
	movl	%r13d, %esi
	movl	%r12d, %ecx
	callq	_KPhi2To1
	movl	$11, %edi
	movl	$8, %edx
	movl	%ebx, %esi
	movl	%r12d, %ecx
	callq	_KPhi2To1
	movl	$2, %edi
	callq	_KWork
	movl	$10, %edi
	movl	$8, %esi
	movl	$1, %edx
	movl	$11, %ecx
	movl	$1, %r8d
	callq	_KTimestamp2
	movl	$13, %edi
	movl	$13, %esi
	xorl	%edx, %edx
	callq	_KTimestamp1
	movl	$13, %edi
	movl	$10, %esi
	callq	_KPhiAddCond
	movl	$11, %edi
	movl	$10, %esi
	callq	_KPhiAddCond
	movl	$4, %edi
	movl	$8, %esi
	movl	$1, %edx
	movl	$11, %ecx
	movl	$1, %r8d
	callq	_KTimestamp2
	callq	_KPopCDep
	.loc	4 515 5                 # gsm_dec.c:515:5
	cmpl	$-16, %r14d
	je	.LBB16_15
.Ltmp625:
# BB#4:                                 # %for.body
                                        #   in Loop: Header=BB16_3 Depth=2
	#DEBUG_VALUE: gsm_dec_Short_term_synthesis_filtering:S <- R15
	#DEBUG_VALUE: gsm_dec_Short_term_synthesis_filtering:v <- [RBP+-104]
	#DEBUG_VALUE: gsm_dec_Short_term_synthesis_filtering:i <- 8
	movl	$2, %esi
	movabsq	$-499311130613695560, %rdi # imm = 0xF912172C135F3BB8
	callq	_KEnterRegion
	movl	$10, %edi
	callq	_KPushCDep
	movl	$9, %edi
	callq	_KWork
	movq	-72(%rbp), %rbx         # 8-byte Reload
	leaq	(%rbx,%r14), %rdi
	movl	$3, %esi
	movl	$4, %edx
	movl	$2, %ecx
	callq	_KLoad1
	.loc	4 532 32                # gsm_dec.c:532:32
.Ltmp626:
	movswq	(%rbx,%r14), %r12
	leaq	646(%r15,%r14), %rdi
	movq	%rdi, -64(%rbp)         # 8-byte Spill
	movl	$5, %esi
	movl	$4, %edx
	movl	$2, %ecx
	callq	_KLoad1
	.loc	4 524 46                # gsm_dec.c:524:46
	movswq	646(%r15,%r14), %r15
.Ltmp627:
	#DEBUG_VALUE: gsm_dec_Short_term_synthesis_filtering:S <- [RBP+-56]
	movl	$25, %edi
	movl	$10, %esi
	movl	$1, %edx
	movl	$3, %ecx
	movl	$1, %r8d
	callq	_KTimestamp2
	callq	_KPopCDep
	.loc	4 519 14                # gsm_dec.c:519:14
	cmpq	$-32768, %r12           # imm = 0xFFFFFFFFFFFF8000
	jne	.LBB16_6
# BB#5:                                 # %land.lhs.true
                                        #   in Loop: Header=BB16_3 Depth=2
	#DEBUG_VALUE: gsm_dec_Short_term_synthesis_filtering:S <- [RBP+-56]
	#DEBUG_VALUE: gsm_dec_Short_term_synthesis_filtering:v <- [RBP+-104]
	#DEBUG_VALUE: gsm_dec_Short_term_synthesis_filtering:i <- 8
	movl	$25, %edi
	callq	_KPushCDep
	movl	$1, %edi
	callq	_KWork
	.loc	4 522 31 discriminator 1 # gsm_dec.c:522:31
	movzwl	%r15w, %r13d
	movl	$1, (%rsp)
	movl	$34, %edi
	movl	$10, %esi
	movl	$2, %edx
	movl	$3, %ecx
	movl	$2, %r8d
	movl	$5, %r9d
	callq	_KTimestamp3
	callq	_KPopCDep
	xorl	%ebx, %ebx
	cmpl	$32768, %r13d           # imm = 0x8000
	movl	$32767, %r13d           # imm = 0x7FFF
	je	.LBB16_7
.LBB16_6:                               # %cond.false
                                        #   in Loop: Header=BB16_3 Depth=2
	#DEBUG_VALUE: gsm_dec_Short_term_synthesis_filtering:S <- [RBP+-56]
	#DEBUG_VALUE: gsm_dec_Short_term_synthesis_filtering:v <- [RBP+-104]
	#DEBUG_VALUE: gsm_dec_Short_term_synthesis_filtering:i <- 8
	movl	$25, %edi
	callq	_KPushCDep
	movl	$5, %edi
	callq	_KWork
	.loc	4 524 27                # gsm_dec.c:524:27
	imull	%r12d, %r15d
	addl	$16384, %r15d           # imm = 0x4000
	shrl	$15, %r15d
	.loc	4 524 13 is_stmt 0      # gsm_dec.c:524:13
	movzwl	%r15w, %r13d
	movl	$5, (%rsp)
	movl	$24, %ebx
	movl	$24, %edi
	movl	$10, %esi
	movl	$6, %edx
	movl	$3, %ecx
	movl	$6, %r8d
	movl	$5, %r9d
	callq	_KTimestamp3
	callq	_KPopCDep
.LBB16_7:                               # %cond.end
                                        #   in Loop: Header=BB16_3 Depth=2
	#DEBUG_VALUE: gsm_dec_Short_term_synthesis_filtering:S <- [RBP+-56]
	#DEBUG_VALUE: gsm_dec_Short_term_synthesis_filtering:v <- [RBP+-104]
	#DEBUG_VALUE: gsm_dec_Short_term_synthesis_filtering:i <- 8
	movl	$10, %edi
	callq	_KPushCDep
	movl	$23, %edi
	movl	$10, %edx
	movl	$25, %ecx
	movl	%ebx, %esi
	callq	_KPhi2To1
	movl	$2, %edi
	callq	_KWork
	.loc	4 526 13 is_stmt 1      # gsm_dec.c:526:13
	movq	-48(%rbp), %rax         # 8-byte Reload
	movswq	%ax, %rbx
	movswq	%r13w, %rax
	subq	%rax, %rbx
.Ltmp628:
	#DEBUG_VALUE: gsm_dec_Short_term_synthesis_filtering:ltmp <- RBX
	movl	$2, (%rsp)
	movl	$27, %edi
	movl	$13, %esi
	movl	$2, %edx
	movl	$10, %ecx
	movl	$2, %r8d
	movl	$23, %r9d
	callq	_KTimestamp3
	callq	_KPopCDep
	xorl	%r15d, %r15d
	cmpq	$32766, %rbx            # imm = 0x7FFE
	movl	$32767, %r13d           # imm = 0x7FFF
	jg	.LBB16_9
.Ltmp629:
# BB#8:                                 # %cond.false18
                                        #   in Loop: Header=BB16_3 Depth=2
	#DEBUG_VALUE: gsm_dec_Short_term_synthesis_filtering:S <- [RBP+-56]
	#DEBUG_VALUE: gsm_dec_Short_term_synthesis_filtering:v <- [RBP+-104]
	#DEBUG_VALUE: gsm_dec_Short_term_synthesis_filtering:i <- 8
	#DEBUG_VALUE: gsm_dec_Short_term_synthesis_filtering:ltmp <- RBX
	movl	$27, %edi
	callq	_KPushCDep
	movl	$1, %edi
	callq	_KWork
	.loc	4 526 13 is_stmt 0 discriminator 2 # gsm_dec.c:526:13
	cmpq	$-32769, %rbx           # imm = 0xFFFFFFFFFFFF7FFF
	movq	$-32768, %rax           # imm = 0xFFFFFFFFFFFF8000
	cmovleq	%rax, %rbx
.Ltmp630:
	movl	$3, (%rsp)
	movl	$26, %r15d
	movl	$26, %edi
	movl	$13, %esi
	movl	$3, %edx
	movl	$10, %ecx
	movl	$3, %r8d
	movl	$23, %r9d
	callq	_KTimestamp3
	callq	_KPopCDep
	.loc	4 526 13                # gsm_dec.c:526:13
	movq	%rbx, %r13
.LBB16_9:                               # %cond.end25
                                        #   in Loop: Header=BB16_3 Depth=2
	#DEBUG_VALUE: gsm_dec_Short_term_synthesis_filtering:S <- [RBP+-56]
	#DEBUG_VALUE: gsm_dec_Short_term_synthesis_filtering:v <- [RBP+-104]
	#DEBUG_VALUE: gsm_dec_Short_term_synthesis_filtering:i <- 8
	movl	$10, %edi
	callq	_KPushCDep
	movl	$22, %edi
	movl	$10, %edx
	movl	$27, %ecx
	movl	%r15d, %esi
	callq	_KPhi2To1
	movl	$1, %edi
	callq	_KWork
.Ltmp631:
	#DEBUG_VALUE: gsm_dec_Short_term_synthesis_filtering:sri <- R13W
	movl	$30, %edi
	movl	$10, %esi
	movl	$1, %edx
	movl	$3, %ecx
	movl	$1, %r8d
	callq	_KTimestamp2
	movl	$21, %edi
	movl	$10, %esi
	xorl	%edx, %edx
	movl	$22, %ecx
	xorl	%r8d, %r8d
	callq	_KTimestamp2
	callq	_KPopCDep
	.loc	4 530 16 is_stmt 1      # gsm_dec.c:530:16
	movzwl	%r12w, %eax
	cmpl	$32768, %eax            # imm = 0x8000
	jne	.LBB16_11
.Ltmp632:
# BB#10:                                # %land.lhs.true31
                                        #   in Loop: Header=BB16_3 Depth=2
	#DEBUG_VALUE: gsm_dec_Short_term_synthesis_filtering:S <- [RBP+-56]
	#DEBUG_VALUE: gsm_dec_Short_term_synthesis_filtering:v <- [RBP+-104]
	#DEBUG_VALUE: gsm_dec_Short_term_synthesis_filtering:sri <- R13W
	#DEBUG_VALUE: gsm_dec_Short_term_synthesis_filtering:i <- 8
	movl	$30, %edi
	callq	_KPushCDep
	movl	$1, %edi
	callq	_KWork
	.loc	4 530 36 is_stmt 0 discriminator 1 # gsm_dec.c:530:36
	movzwl	%r13w, %r15d
	movl	$1, (%rsp)
	movl	$35, %edi
	movl	$10, %esi
	movl	$2, %edx
	movl	$3, %ecx
	movl	$2, %r8d
	movl	$22, %r9d
	callq	_KTimestamp3
	callq	_KPopCDep
	xorl	%ebx, %ebx
	cmpl	$32768, %r15d           # imm = 0x8000
	movl	$32767, %r15d           # imm = 0x7FFF
	je	.LBB16_12
.Ltmp633:
.LBB16_11:                              # %cond.false36
                                        #   in Loop: Header=BB16_3 Depth=2
	#DEBUG_VALUE: gsm_dec_Short_term_synthesis_filtering:S <- [RBP+-56]
	#DEBUG_VALUE: gsm_dec_Short_term_synthesis_filtering:v <- [RBP+-104]
	#DEBUG_VALUE: gsm_dec_Short_term_synthesis_filtering:sri <- R13W
	#DEBUG_VALUE: gsm_dec_Short_term_synthesis_filtering:i <- 8
	movl	$30, %edi
	callq	_KPushCDep
	movl	$5, %edi
	callq	_KWork
	.loc	4 532 51 is_stmt 1      # gsm_dec.c:532:51
	movswq	%r13w, %rax
	.loc	4 532 32 is_stmt 0      # gsm_dec.c:532:32
	imull	%r12d, %eax
	addl	$16384, %eax            # imm = 0x4000
	shrl	$15, %eax
	.loc	4 532 18                # gsm_dec.c:532:18
	movzwl	%ax, %r15d
	movl	$5, (%rsp)
	movl	$29, %ebx
	movl	$29, %edi
	movl	$10, %esi
	movl	$6, %edx
	movl	$3, %ecx
	movl	$6, %r8d
	movl	$22, %r9d
	callq	_KTimestamp3
	callq	_KPopCDep
.Ltmp634:
.LBB16_12:                              # %cond.end43
                                        #   in Loop: Header=BB16_3 Depth=2
	#DEBUG_VALUE: gsm_dec_Short_term_synthesis_filtering:S <- [RBP+-56]
	#DEBUG_VALUE: gsm_dec_Short_term_synthesis_filtering:v <- [RBP+-104]
	#DEBUG_VALUE: gsm_dec_Short_term_synthesis_filtering:sri <- R13W
	#DEBUG_VALUE: gsm_dec_Short_term_synthesis_filtering:i <- 8
	movq	%r13, -48(%rbp)         # 8-byte Spill
.Ltmp635:
	#DEBUG_VALUE: gsm_dec_Short_term_synthesis_filtering:sri <- [RBP+-48]
	movl	$10, %edi
	callq	_KPushCDep
	movl	$28, %edi
	movl	$10, %edx
	movl	$30, %ecx
	movl	%ebx, %esi
	callq	_KPhi2To1
	movl	$7, %edi
	callq	_KWork
	movl	$6, %esi
	movl	$4, %edx
	movl	$2, %ecx
	movq	-64(%rbp), %rdi         # 8-byte Reload
	callq	_KLoad1
	.loc	4 534 18 is_stmt 1      # gsm_dec.c:534:18
	movq	-56(%rbp), %rax         # 8-byte Reload
	movswq	646(%rax,%r14), %rax
	movswq	%r15w, %rcx
	leaq	(%rax,%rcx), %r13
.Ltmp636:
	#DEBUG_VALUE: gsm_dec_Short_term_synthesis_filtering:ltmp <- R13
	leaq	32768(%rax,%rcx), %rbx
	movl	$3, (%rsp)
	movl	$33, %edi
	movl	$10, %esi
	movl	$3, %edx
	movl	$28, %ecx
	movl	$3, %r8d
	movl	$6, %r9d
	callq	_KTimestamp3
	movl	$1, (%rsp)
	movl	$32, %r15d
	movl	$32, %edi
	movl	$10, %esi
	movl	$1, %edx
	movl	$28, %ecx
	movl	$1, %r8d
	movl	$6, %r9d
	callq	_KTimestamp3
	callq	_KPopCDep
	cmpq	$65536, %rbx            # imm = 0x10000
	jb	.LBB16_14
.Ltmp637:
# BB#13:                                # %cond.true54
                                        #   in Loop: Header=BB16_3 Depth=2
	#DEBUG_VALUE: gsm_dec_Short_term_synthesis_filtering:S <- [RBP+-56]
	#DEBUG_VALUE: gsm_dec_Short_term_synthesis_filtering:v <- [RBP+-104]
	#DEBUG_VALUE: gsm_dec_Short_term_synthesis_filtering:sri <- [RBP+-48]
	#DEBUG_VALUE: gsm_dec_Short_term_synthesis_filtering:i <- 8
	#DEBUG_VALUE: gsm_dec_Short_term_synthesis_filtering:ltmp <- R13
	movl	$33, %edi
	callq	_KPushCDep
	movl	$1, %edi
	callq	_KWork
	.loc	4 534 18 is_stmt 0 discriminator 1 # gsm_dec.c:534:18
	testq	%r13, %r13
	movq	$-32768, %r13           # imm = 0xFFFFFFFFFFFF8000
.Ltmp638:
	movl	$32767, %eax            # imm = 0x7FFF
	cmovgq	%rax, %r13
	movl	$4, (%rsp)
	movl	$31, %r15d
	movl	$31, %edi
	movl	$10, %esi
	movl	$4, %edx
	movl	$28, %ecx
	movl	$4, %r8d
	movl	$6, %r9d
	callq	_KTimestamp3
	callq	_KPopCDep
	jmp	.LBB16_14
.Ltmp639:
.LBB16_16:                              # %while.cond.pre_exit.while.end
	movl	$1, %esi
	movabsq	$-4838949695343136557, %rdi # imm = 0xBCD898E3D31670D3
	callq	_KExitRegion
	xorl	%esi, %esi
	movabsq	$-5188388120452537585, %rdi # imm = 0xB7FF247E6391E30F
	addq	$72, %rsp
	popq	%rbx
	popq	%r12
	popq	%r13
	popq	%r14
	popq	%r15
	popq	%rbp
	jmp	_KExitRegion            # TAILCALL
.Ltmp640:
	.size	gsm_dec_Short_term_synthesis_filtering, .Ltmp640-gsm_dec_Short_term_synthesis_filtering
.Lfunc_end16:
	.cfi_endproc

	.globl	gsm_dec_Coefficients_27_39
	.align	16, 0x90
	.type	gsm_dec_Coefficients_27_39,@function
gsm_dec_Coefficients_27_39:             # @gsm_dec_Coefficients_27_39
.Lfunc_begin17:
	.loc	4 572 0 is_stmt 1       # gsm_dec.c:572:0
	.cfi_startproc
# BB#0:                                 # %entry
	pushq	%rbp
.Ltmp641:
	.cfi_def_cfa_offset 16
.Ltmp642:
	.cfi_offset %rbp, -16
	movq	%rsp, %rbp
.Ltmp643:
	.cfi_def_cfa_register %rbp
	pushq	%r15
	pushq	%r14
	pushq	%r13
	pushq	%r12
	pushq	%rbx
	subq	$56, %rsp
.Ltmp644:
	.cfi_offset %rbx, -56
.Ltmp645:
	.cfi_offset %r12, -48
.Ltmp646:
	.cfi_offset %r13, -40
.Ltmp647:
	.cfi_offset %r14, -32
.Ltmp648:
	.cfi_offset %r15, -24
	#DEBUG_VALUE: gsm_dec_Coefficients_27_39:LARpp_j_1 <- RDI
	#DEBUG_VALUE: gsm_dec_Coefficients_27_39:LARpp_j <- RSI
	#DEBUG_VALUE: gsm_dec_Coefficients_27_39:LARp <- RDX
	movq	%rdx, -56(%rbp)         # 8-byte Spill
.Ltmp649:
	#DEBUG_VALUE: gsm_dec_Coefficients_27_39:LARp <- [RBP+-56]
	#DEBUG_VALUE: gsm_dec_Coefficients_27_39:LARp <- undef
	movq	%rsi, -64(%rbp)         # 8-byte Spill
.Ltmp650:
	#DEBUG_VALUE: gsm_dec_Coefficients_27_39:LARpp_j <- [RBP+-64]
	movq	%rdi, -80(%rbp)         # 8-byte Spill
.Ltmp651:
	#DEBUG_VALUE: gsm_dec_Coefficients_27_39:LARpp_j_1 <- [RBP+-80]
	movabsq	$6717917226569331406, %r14 # imm = 0x5D3AD61FE02472CE
	movabsq	$2022617986394595647, %rdi # imm = 0x1C11C857A35DA13F
	xorl	%r15d, %r15d
	xorl	%esi, %esi
	callq	_KEnterRegion
	movl	$27, %edi
	movl	$2, %esi
	callq	_KPrepRTable
.Ltmp652:
	#DEBUG_VALUE: gsm_dec_Coefficients_27_39:i <- 1
	movl	$19, %ebx
	movl	$19, %edi
	movl	$19, %esi
	xorl	%edx, %edx
	callq	_KTimestamp1
	movl	$16, -48(%rbp)          # 4-byte Folded Spill
	movl	$16, %edi
	movl	$16, %esi
	xorl	%edx, %edx
	callq	_KTimestamp1
	movl	$13, %r12d
	movl	$13, %edi
	movl	$13, %esi
	xorl	%edx, %edx
	callq	_KTimestamp1
	movl	$1, %esi
	movq	%r14, %rdi
	callq	_KEnterRegion
	xorl	%r13d, %r13d
	xorl	%r14d, %r14d
	jmp	.LBB17_1
	.align	16, 0x90
.LBB17_6:                               # %cond.end26
                                        #   in Loop: Header=BB17_1 Depth=1
	#DEBUG_VALUE: gsm_dec_Coefficients_27_39:LARpp_j_1 <- [RBP+-80]
	#DEBUG_VALUE: gsm_dec_Coefficients_27_39:LARpp_j <- [RBP+-64]
.Ltmp653:
	#DEBUG_VALUE: gsm_dec_Coefficients_27_39:LARp <- [RBP+-56]
	#DEBUG_VALUE: gsm_dec_Coefficients_27_39:i <- 1
	movl	$4, %r13d
	movl	$4, %edi
	callq	_KPushCDep
	movl	$10, %edi
	movl	$4, %edx
	movl	$26, %ecx
	movl	%r15d, %esi
	callq	_KPhi2To1
	movl	$2, %edi
	callq	_KWork
	movl	$9, %edi
	movl	$4, %esi
	xorl	%edx, %edx
	movl	$10, %ecx
	xorl	%r8d, %r8d
	callq	_KTimestamp2
	movl	$9, %edi
	movl	$2, %edx
	movq	%r14, %rsi
	callq	_KStore
.Ltmp654:
	#DEBUG_VALUE: gsm_dec_Coefficients_27_39:LARp <- undef
	movq	-72(%rbp), %r15         # 8-byte Reload
	.loc	4 579 5 prologue_end    # gsm_dec.c:579:5
.Ltmp655:
	movq	-56(%rbp), %rax         # 8-byte Reload
	movw	%r12w, (%rax,%r15)
.Ltmp656:
	#DEBUG_VALUE: gsm_dec_Coefficients_27_39:LARp <- [RBP+-56]
	movl	$17, -48(%rbp)          # 4-byte Folded Spill
	movl	$17, %edi
	movl	$15, %esi
	xorl	%edx, %edx
	movl	$4, %ecx
	xorl	%r8d, %r8d
	callq	_KTimestamp2
	movl	$20, %ebx
	movl	$20, %edi
	movl	$18, %esi
	xorl	%edx, %edx
	movl	$4, %ecx
	xorl	%r8d, %r8d
	callq	_KTimestamp2
	movl	$11, %r14d
	movl	$11, %edi
	movl	$5, %esi
	movl	$1, %edx
	movl	$4, %ecx
	movl	$1, %r8d
	callq	_KTimestamp2
	movl	$14, %r12d
	movl	$14, %edi
	movl	$12, %esi
	xorl	%edx, %edx
	movl	$4, %ecx
	xorl	%r8d, %r8d
	callq	_KTimestamp2
	callq	_KPopCDep
	movl	$2, %esi
	movabsq	$3567600320541899068, %rdi # imm = 0x3182A996EE78393C
	callq	_KExitRegion
	addq	$2, %r15
.Ltmp657:
.LBB17_1:                               # %for.cond
                                        # =>This Inner Loop Header: Depth=1
	#DEBUG_VALUE: gsm_dec_Coefficients_27_39:LARpp_j_1 <- [RBP+-80]
	#DEBUG_VALUE: gsm_dec_Coefficients_27_39:LARpp_j <- [RBP+-64]
	#DEBUG_VALUE: gsm_dec_Coefficients_27_39:LARp <- [RBP+-56]
	#DEBUG_VALUE: gsm_dec_Coefficients_27_39:i <- 1
	movl	$12, %edi
	movl	%r12d, %esi
	movl	%r13d, %edx
	callq	_KPhi1To1
	movl	$5, %edi
	movl	%r14d, %esi
	movl	%r13d, %edx
	callq	_KPhi1To1
	movl	$18, %edi
	movl	%ebx, %esi
	movl	%r13d, %edx
	callq	_KPhi1To1
	movl	$15, %edi
	movl	-48(%rbp), %esi         # 4-byte Reload
	movl	%r13d, %edx
	callq	_KPhi1To1
	movl	$1, %edi
	callq	_KWork
	movl	$4, %edi
	movl	$5, %esi
	movl	$1, %edx
	callq	_KTimestamp1
	movl	$12, %edi
	movl	$4, %esi
	callq	_KPhiAddCond
	movl	$15, %edi
	movl	$4, %esi
	callq	_KPhiAddCond
	movl	$18, %edi
	movl	$4, %esi
	callq	_KPhiAddCond
	movl	$5, %edi
	movl	$4, %esi
	callq	_KPhiAddCond
	movl	$12, %edi
	movl	$12, %esi
	xorl	%edx, %edx
	callq	_KTimestamp1
	movl	$5, %edi
	movl	$5, %esi
	xorl	%edx, %edx
	callq	_KTimestamp1
	movl	$15, %edi
	movl	$15, %esi
	xorl	%edx, %edx
	callq	_KTimestamp1
	movl	$18, %edi
	movl	$18, %esi
	xorl	%edx, %edx
	callq	_KTimestamp1
	.loc	4 577 3                 # gsm_dec.c:577:3
	cmpl	$16, %r15d
	je	.LBB17_7
# BB#2:                                 # %for.body
                                        #   in Loop: Header=BB17_1 Depth=1
	#DEBUG_VALUE: gsm_dec_Coefficients_27_39:LARpp_j_1 <- [RBP+-80]
	#DEBUG_VALUE: gsm_dec_Coefficients_27_39:LARpp_j <- [RBP+-64]
	#DEBUG_VALUE: gsm_dec_Coefficients_27_39:LARp <- [RBP+-56]
	#DEBUG_VALUE: gsm_dec_Coefficients_27_39:i <- 1
	movl	$2, %esi
	movabsq	$3567600320541899068, %rdi # imm = 0x3182A996EE78393C
	callq	_KEnterRegion
	movl	$4, %edi
	callq	_KPushCDep
	movq	-80(%rbp), %rbx         # 8-byte Reload
.Ltmp658:
	#DEBUG_VALUE: gsm_dec_Coefficients_27_39:LARpp_j_1 <- RBX
	leaq	(%rbx,%r15), %rdi
	movl	$1, %esi
	movl	$2, %edx
	callq	_KLoad0
	movl	$13, %edi
	callq	_KWork
	.loc	4 578 13                # gsm_dec.c:578:13
.Ltmp659:
	movswl	(%rbx,%r15), %r14d
.Ltmp660:
	#DEBUG_VALUE: gsm_dec_Coefficients_27_39:LARpp_j_1 <- [RBP+-80]
	sarl	$2, %r14d
	movq	-64(%rbp), %rbx         # 8-byte Reload
.Ltmp661:
	#DEBUG_VALUE: gsm_dec_Coefficients_27_39:LARpp_j <- RBX
	leaq	(%rbx,%r15), %rdi
	movq	%rdi, -48(%rbp)         # 8-byte Spill
	movl	$2, %esi
	movl	$2, %edx
	callq	_KLoad0
	movswl	(%rbx,%r15), %r12d
.Ltmp662:
	#DEBUG_VALUE: gsm_dec_Coefficients_27_39:LARpp_j <- [RBP+-64]
	sarl	$2, %r12d
	addl	%r14d, %r12d
	movslq	%r12d, %r13
.Ltmp663:
	#DEBUG_VALUE: gsm_dec_Coefficients_27_39:ltmp <- R12D
	leaq	32768(%r13), %rbx
	movl	$4, (%rsp)
	movl	$23, %edi
	movl	$4, %esi
	movl	$4, %edx
	movl	$1, %ecx
	movl	$4, %r8d
	movl	$2, %r9d
	callq	_KTimestamp3
	movl	$2, (%rsp)
	movl	$22, %r14d
	movl	$22, %edi
	movl	$4, %esi
	movl	$2, %edx
	movl	$1, %ecx
	movl	$2, %r8d
	movl	$2, %r9d
	callq	_KTimestamp3
	callq	_KPopCDep
	cmpq	$65536, %rbx            # imm = 0x10000
	jb	.LBB17_4
.Ltmp664:
# BB#3:                                 # %cond.true
                                        #   in Loop: Header=BB17_1 Depth=1
	#DEBUG_VALUE: gsm_dec_Coefficients_27_39:LARpp_j_1 <- [RBP+-80]
	#DEBUG_VALUE: gsm_dec_Coefficients_27_39:LARpp_j <- [RBP+-64]
	#DEBUG_VALUE: gsm_dec_Coefficients_27_39:LARp <- [RBP+-56]
	#DEBUG_VALUE: gsm_dec_Coefficients_27_39:i <- 1
	#DEBUG_VALUE: gsm_dec_Coefficients_27_39:ltmp <- R12D
	movl	$23, %edi
	callq	_KPushCDep
	movl	$1, %edi
	callq	_KWork
	.loc	4 578 13 is_stmt 0 discriminator 1 # gsm_dec.c:578:13
	testl	%r12d, %r12d
	movq	$-32768, %r13           # imm = 0xFFFFFFFFFFFF8000
	movl	$32767, %eax            # imm = 0x7FFF
	cmovgq	%rax, %r13
	movl	$5, (%rsp)
	movl	$21, %r14d
	movl	$21, %edi
	movl	$4, %esi
	movl	$5, %edx
	movl	$1, %ecx
	movl	$5, %r8d
	movl	$2, %r9d
	callq	_KTimestamp3
	callq	_KPopCDep
.Ltmp665:
.LBB17_4:                               # %cond.end
                                        #   in Loop: Header=BB17_1 Depth=1
	#DEBUG_VALUE: gsm_dec_Coefficients_27_39:LARpp_j_1 <- [RBP+-80]
	#DEBUG_VALUE: gsm_dec_Coefficients_27_39:LARpp_j <- [RBP+-64]
	#DEBUG_VALUE: gsm_dec_Coefficients_27_39:LARp <- [RBP+-56]
	#DEBUG_VALUE: gsm_dec_Coefficients_27_39:i <- 1
	movl	$4, %edi
	callq	_KPushCDep
	movl	$6, %edi
	movl	$4, %edx
	movl	$23, %ecx
	movl	%r14d, %esi
	callq	_KPhi2To1
	movl	$13, %edi
	callq	_KWork
	movl	$3, %edi
	movl	$4, %esi
	xorl	%edx, %edx
	movl	$6, %ecx
	xorl	%r8d, %r8d
	callq	_KTimestamp2
	movq	-56(%rbp), %rbx         # 8-byte Reload
.Ltmp666:
	#DEBUG_VALUE: gsm_dec_Coefficients_27_39:LARp <- RBX
	leaq	(%rbx,%r15), %r14
	movl	$3, %edi
	movl	$2, %edx
	movq	%r14, %rsi
	callq	_KStore
	.loc	4 578 5                 # gsm_dec.c:578:5
	movw	%r13w, (%rbx,%r15)
	movl	$7, %esi
	movl	$2, %edx
	movq	%r14, %rdi
	callq	_KLoad0
	.loc	4 579 13 is_stmt 1      # gsm_dec.c:579:13
	movswq	(%rbx,%r15), %rbx
.Ltmp667:
	#DEBUG_VALUE: gsm_dec_Coefficients_27_39:LARp <- [RBP+-56]
	movl	$8, %esi
	movl	$2, %edx
	movq	-48(%rbp), %rdi         # 8-byte Reload
	callq	_KLoad0
	movq	-64(%rbp), %rax         # 8-byte Reload
	movswl	(%rax,%r15), %eax
	movq	%r15, -72(%rbp)         # 8-byte Spill
	sarl	%eax
	cltq
	leaq	(%rax,%rbx), %r12
.Ltmp668:
	#DEBUG_VALUE: gsm_dec_Coefficients_27_39:ltmp <- R12
	leaq	32768(%rax,%rbx), %rbx
	movl	$4, (%rsp)
	movl	$26, %edi
	movl	$4, %esi
	movl	$4, %edx
	movl	$7, %ecx
	movl	$3, %r8d
	movl	$8, %r9d
	callq	_KTimestamp3
	movl	$2, (%rsp)
	movl	$25, %r15d
	movl	$25, %edi
	movl	$4, %esi
	movl	$2, %edx
	movl	$7, %ecx
	movl	$1, %r8d
	movl	$8, %r9d
	callq	_KTimestamp3
	callq	_KPopCDep
	cmpq	$65536, %rbx            # imm = 0x10000
.Ltmp669:
	#DEBUG_VALUE: gsm_dec_Coefficients_27_39:LARpp_j <- undef
	jb	.LBB17_6
.Ltmp670:
# BB#5:                                 # %cond.true20
                                        #   in Loop: Header=BB17_1 Depth=1
	#DEBUG_VALUE: gsm_dec_Coefficients_27_39:LARpp_j_1 <- [RBP+-80]
	#DEBUG_VALUE: gsm_dec_Coefficients_27_39:LARpp_j <- undef
	#DEBUG_VALUE: gsm_dec_Coefficients_27_39:LARpp_j <- [RBP+-64]
	#DEBUG_VALUE: gsm_dec_Coefficients_27_39:LARp <- [RBP+-56]
	#DEBUG_VALUE: gsm_dec_Coefficients_27_39:i <- 1
	#DEBUG_VALUE: gsm_dec_Coefficients_27_39:ltmp <- R12
	movl	$26, %edi
	callq	_KPushCDep
	movl	$1, %edi
	callq	_KWork
	.loc	4 579 13 is_stmt 0 discriminator 1 # gsm_dec.c:579:13
	testq	%r12, %r12
	movq	$-32768, %r12           # imm = 0xFFFFFFFFFFFF8000
.Ltmp671:
	movl	$32767, %eax            # imm = 0x7FFF
	cmovgq	%rax, %r12
	movl	$5, (%rsp)
	movl	$24, %r15d
	movl	$24, %edi
	movl	$4, %esi
	movl	$5, %edx
	movl	$7, %ecx
	movl	$4, %r8d
	movl	$8, %r9d
	callq	_KTimestamp3
	callq	_KPopCDep
	jmp	.LBB17_6
.Ltmp672:
.LBB17_7:                               # %for.cond.pre_exit.for.end
	#DEBUG_VALUE: gsm_dec_Coefficients_27_39:i <- 1
	movl	$1, %esi
	movabsq	$6717917226569331406, %rdi # imm = 0x5D3AD61FE02472CE
	callq	_KExitRegion
	xorl	%esi, %esi
	movabsq	$2022617986394595647, %rdi # imm = 0x1C11C857A35DA13F
	addq	$56, %rsp
	popq	%rbx
	popq	%r12
	popq	%r13
	popq	%r14
	popq	%r15
	popq	%rbp
	jmp	_KExitRegion            # TAILCALL
.Ltmp673:
	.size	gsm_dec_Coefficients_27_39, .Ltmp673-gsm_dec_Coefficients_27_39
.Lfunc_end17:
	.cfi_endproc

	.globl	gsm_dec_create
	.align	16, 0x90
	.type	gsm_dec_create,@function
gsm_dec_create:                         # @gsm_dec_create
.Lfunc_begin18:
	.loc	4 588 0 is_stmt 1       # gsm_dec.c:588:0
	.cfi_startproc
# BB#0:                                 # %entry
	pushq	%rbp
.Ltmp674:
	.cfi_def_cfa_offset 16
.Ltmp675:
	.cfi_offset %rbp, -16
	movq	%rsp, %rbp
.Ltmp676:
	.cfi_def_cfa_register %rbp
	pushq	%r15
	pushq	%r14
	pushq	%r13
	pushq	%r12
	pushq	%rbx
	pushq	%rax
.Ltmp677:
	.cfi_offset %rbx, -56
.Ltmp678:
	.cfi_offset %r12, -48
.Ltmp679:
	.cfi_offset %r13, -40
.Ltmp680:
	.cfi_offset %r14, -32
.Ltmp681:
	.cfi_offset %r15, -24
	movabsq	$-1250613605938675271, %rbx # imm = 0xEEA4ED8D2AC141B9
	movabsq	$-6758473785967732512, %rdi # imm = 0xA23513E64B9A98E0
	xorl	%r14d, %r14d
	xorl	%esi, %esi
	callq	_KEnterRegion
	movl	$5, %edi
	movl	$2, %esi
	callq	_KPrepRTable
	movl	$1, %edi
	callq	_KWork
	leaq	-41(%rbp), %r12
	movl	$1, %esi
	movq	%r12, %rdi
	callq	_KStoreConst
.Ltmp682:
	#DEBUG_VALUE: gsm_dec_create:x <- 0
	.loc	4 591 17 prologue_end   # gsm_dec.c:591:17
	movb	$0, -41(%rbp)
.Ltmp683:
	#DEBUG_VALUE: gsm_dec_create:i <- 0
	movl	$4, %edi
	callq	_KInduction
	movl	$1, %esi
	movq	%rbx, %rdi
	callq	_KEnterRegion
	movl	$1, %edi
	callq	_KWork
	movl	$3, %edi
	movl	$4, %esi
	movl	$1, %edx
	callq	_KTimestamp1
	movabsq	$-6025464777230178242, %r13 # imm = 0xAC613FB59A91283E
	.align	16, 0x90
.LBB18_1:                               # %for.body
                                        # =>This Inner Loop Header: Depth=1
	#DEBUG_VALUE: gsm_dec_create:x <- 0
	#DEBUG_VALUE: gsm_dec_create:i <- 0
	movl	$2, %esi
	movq	%r13, %rdi
	callq	_KEnterRegion
	movl	$3, %edi
	callq	_KPushCDep
.Ltmp684:
	#DEBUG_VALUE: gsm_dec_create:x <- [R12+0]
	movl	$1, %esi
	movl	$1, %edx
	movq	%r12, %rdi
	callq	_KLoad0
	movl	$6, %edi
	callq	_KWork
	.loc	4 597 30                # gsm_dec.c:597:30
.Ltmp685:
	movb	-41(%rbp), %r15b
	.loc	4 597 5 is_stmt 0       # gsm_dec.c:597:5
	leaq	gsm_dec_state(%r14), %rbx
	movl	$2, %edi
	movl	$3, %esi
	movl	$1, %edx
	movl	$1, %ecx
	movl	$1, %r8d
	callq	_KTimestamp2
	movl	$2, %edi
	movl	$1, %edx
	movq	%rbx, %rsi
	callq	_KStore
	movb	%r15b, gsm_dec_state(%r14)
.Ltmp686:
	.loc	4 596 3 is_stmt 1       # gsm_dec.c:596:3
	incq	%r14
	callq	_KPopCDep
	movl	$2, %esi
	movq	%r13, %rdi
	callq	_KExitRegion
	movl	$1, %edi
	callq	_KWork
	movl	$3, %edi
	movl	$4, %esi
	movl	$1, %edx
	callq	_KTimestamp1
	cmpq	$656, %r14              # imm = 0x290
	jne	.LBB18_1
.Ltmp687:
# BB#2:                                 # %for.cond.pre_exit.for.end
	#DEBUG_VALUE: gsm_dec_create:x <- 0
	#DEBUG_VALUE: gsm_dec_create:i <- 0
	movl	$1, %esi
	movabsq	$-1250613605938675271, %rdi # imm = 0xEEA4ED8D2AC141B9
	callq	_KExitRegion
	movl	$1, %edi
	callq	_KWork
	movl	$gsm_dec_state+630, %edi
	movl	$2, %esi
	callq	_KStoreConst
	.loc	4 599 3                 # gsm_dec.c:599:3
	movw	$40, gsm_dec_state+630(%rip)
	xorl	%esi, %esi
	movabsq	$-6758473785967732512, %rdi # imm = 0xA23513E64B9A98E0
	callq	_KExitRegion
	movl	$gsm_dec_state, %eax
	.loc	4 601 3                 # gsm_dec.c:601:3
	addq	$8, %rsp
	popq	%rbx
	popq	%r12
	popq	%r13
	popq	%r14
	popq	%r15
	popq	%rbp
	retq
.Ltmp688:
.Ltmp689:
	.size	gsm_dec_create, .Ltmp689-gsm_dec_create
.Lfunc_end18:
	.cfi_endproc

	.globl	gsm_dec_init
	.align	16, 0x90
	.type	gsm_dec_init,@function
gsm_dec_init:                           # @gsm_dec_init
.Lfunc_begin19:
	.loc	4 605 0                 # gsm_dec.c:605:0
	.cfi_startproc
# BB#0:                                 # %entry
	pushq	%rbp
.Ltmp690:
	.cfi_def_cfa_offset 16
.Ltmp691:
	.cfi_offset %rbp, -16
	movq	%rsp, %rbp
.Ltmp692:
	.cfi_def_cfa_register %rbp
	pushq	%rbx
	pushq	%rax
.Ltmp693:
	.cfi_offset %rbx, -24
	movabsq	$4588434195992140833, %rbx # imm = 0x3FAD6497375DDC21
	xorl	%esi, %esi
	movq	%rbx, %rdi
	callq	_KEnterRegion
	movl	$2, %edi
	xorl	%esi, %esi
	callq	_KPrepRTable
	movabsq	$-9145050524907143315, %rdi # imm = 0x8116410009E8FF6D
	xorl	%esi, %esi
	callq	_KPrepCall
	movl	$1, %edi
	callq	_KWork
	.loc	4 606 23 prologue_end   # gsm_dec.c:606:23
.Ltmp694:
	callq	gsm_dec_create
	movl	$1, %edi
	movl	$1, %esi
	xorl	%edx, %edx
	callq	_KTimestamp1
	movl	$1, %edi
	movl	$gsm_dec_state_ptr, %esi
	movl	$8, %edx
	callq	_KStore
	.loc	4 606 3 is_stmt 0       # gsm_dec.c:606:3
	movq	$gsm_dec_state, gsm_dec_state_ptr(%rip)
	xorl	%esi, %esi
	movq	%rbx, %rdi
	addq	$8, %rsp
	popq	%rbx
	popq	%rbp
	jmp	_KExitRegion            # TAILCALL
.Ltmp695:
.Ltmp696:
	.size	gsm_dec_init, .Ltmp696-gsm_dec_init
.Lfunc_end19:
	.cfi_endproc

	.globl	gsm_dec_return
	.align	16, 0x90
	.type	gsm_dec_return,@function
gsm_dec_return:                         # @gsm_dec_return
.Lfunc_begin20:
	.loc	4 610 0 is_stmt 1       # gsm_dec.c:610:0
	.cfi_startproc
# BB#0:                                 # %entry
	pushq	%rbp
.Ltmp697:
	.cfi_def_cfa_offset 16
.Ltmp698:
	.cfi_offset %rbp, -16
	movq	%rsp, %rbp
.Ltmp699:
	.cfi_def_cfa_register %rbp
	pushq	%r14
	pushq	%rbx
.Ltmp700:
	.cfi_offset %rbx, -32
.Ltmp701:
	.cfi_offset %r14, -24
	movabsq	$1742340579994285800, %r14 # imm = 0x182E0986B44EB6E8
	xorl	%esi, %esi
	movq	%r14, %rdi
	callq	_KEnterRegion
	movl	$2, %edi
	xorl	%esi, %esi
	callq	_KPrepRTable
	movl	$4, %edi
	callq	_KWork
	movl	$gsm_dec_result, %edi
	movl	$1, %esi
	movl	$4, %edx
	callq	_KLoad0
	.loc	4 611 10 prologue_end   # gsm_dec.c:611:10
.Ltmp702:
	movl	gsm_dec_result(%rip), %ebx
	movl	$1, %edi
	movl	$1, %esi
	xorl	%edx, %edx
	callq	_KTimestamp1
	movl	$1, %edi
	callq	_KReturn
	xorl	%esi, %esi
	movq	%r14, %rdi
	callq	_KExitRegion
	.loc	4 611 3 is_stmt 0       # gsm_dec.c:611:3
	movl	%ebx, %eax
	popq	%rbx
	popq	%r14
	popq	%rbp
	retq
.Ltmp703:
.Ltmp704:
	.size	gsm_dec_return, .Ltmp704-gsm_dec_return
.Lfunc_end20:
	.cfi_endproc

	.globl	gsm_dec_decode
	.align	16, 0x90
	.type	gsm_dec_decode,@function
gsm_dec_decode:                         # @gsm_dec_decode
.Lfunc_begin21:
	.loc	4 620 0 is_stmt 1       # gsm_dec.c:620:0
	.cfi_startproc
# BB#0:                                 # %entry
	pushq	%rbp
.Ltmp705:
	.cfi_def_cfa_offset 16
.Ltmp706:
	.cfi_offset %rbp, -16
	movq	%rsp, %rbp
.Ltmp707:
	.cfi_def_cfa_register %rbp
	pushq	%r15
	pushq	%r14
	pushq	%r13
	pushq	%r12
	pushq	%rbx
	subq	$200, %rsp
.Ltmp708:
	.cfi_offset %rbx, -56
.Ltmp709:
	.cfi_offset %r12, -48
.Ltmp710:
	.cfi_offset %r13, -40
.Ltmp711:
	.cfi_offset %r14, -32
.Ltmp712:
	.cfi_offset %r15, -24
	#DEBUG_VALUE: gsm_dec_decode:s <- RDI
	#DEBUG_VALUE: gsm_dec_decode:c <- RSI
	#DEBUG_VALUE: gsm_dec_decode:target <- RDX
	movq	%rdx, -216(%rbp)        # 8-byte Spill
.Ltmp713:
	#DEBUG_VALUE: gsm_dec_decode:target <- [RBP+-216]
	movq	%rsi, %r13
.Ltmp714:
	#DEBUG_VALUE: gsm_dec_decode:c <- R13
	movq	%rdi, %r15
.Ltmp715:
	#DEBUG_VALUE: gsm_dec_decode:s <- R15
	movabsq	$5422901018217598665, %r14 # imm = 0x4B4203BE8AF6CEC9
	xorl	%esi, %esi
	movq	%r14, %rdi
	callq	_KEnterRegion
	movl	$225, %edi
	xorl	%esi, %esi
	callq	_KPrepRTable
	movl	$7, %edi
	callq	_KWork
	movl	$1, %esi
	movl	$1, %edx
	movq	%r13, %rdi
	callq	_KLoad0
	.loc	4 625 12 prologue_end   # gsm_dec.c:625:12
.Ltmp716:
	movb	(%r13), %al
	.loc	4 625 8 is_stmt 0       # gsm_dec.c:625:8
	andb	$-16, %al
	movzbl	%al, %ebx
	movl	$224, %edi
	movl	$1, %esi
	movl	$3, %edx
	callq	_KTimestamp1
	movl	$224, %edi
	callq	_KPushCDep
	cmpl	$208, %ebx
	jne	.LBB21_1
.Ltmp717:
# BB#2:                                 # %if.end
	#DEBUG_VALUE: gsm_dec_decode:s <- R15
	#DEBUG_VALUE: gsm_dec_decode:c <- R13
	#DEBUG_VALUE: gsm_dec_decode:target <- [RBP+-216]
	movl	$798, %edi              # imm = 0x31E
	callq	_KWork
	.loc	4 628 16 is_stmt 1      # gsm_dec.c:628:16
	leaq	1(%r13), %r14
.Ltmp718:
	#DEBUG_VALUE: gsm_dec_decode:c <- R14
	movl	$2, %esi
	movl	$1, %edx
	movq	%r13, %rdi
	callq	_KLoad0
	.loc	4 628 15 is_stmt 0      # gsm_dec.c:628:15
	movzbl	(%r13), %ebx
	.loc	4 628 13                # gsm_dec.c:628:13
	shll	$2, %ebx
	andl	$60, %ebx
	movl	$3, %edi
	movl	$1, %esi
	movl	$5, %edx
	movl	$2, %ecx
	movl	$2, %r8d
	callq	_KTimestamp2
	leaq	-64(%rbp), %r12
	movl	$3, %edi
	movl	$2, %edx
	movq	%r12, %rsi
	callq	_KStore
	.loc	4 628 3                 # gsm_dec.c:628:3
	movw	%bx, -64(%rbp)
	movl	$4, %esi
	movl	$1, %edx
	movq	%r14, %rdi
	callq	_KLoad0
	.loc	4 629 16 is_stmt 1      # gsm_dec.c:629:16
	movzbl	1(%r13), %ebx
	shrl	$6, %ebx
	movl	$5, %esi
	movl	$2, %edx
	movq	%r12, %rdi
	callq	_KLoad0
	.loc	4 629 3 is_stmt 0       # gsm_dec.c:629:3
	orw	-64(%rbp), %bx
	movl	$1, (%rsp)
	movl	$6, %edi
	movl	$1, %esi
	movl	$6, %edx
	movl	$4, %ecx
	movl	$3, %r8d
	movl	$5, %r9d
	callq	_KTimestamp3
	movl	$6, %edi
	movl	$2, %edx
	movq	%r12, %rsi
	callq	_KStore
	movw	%bx, -64(%rbp)
	movq	%r15, -224(%rbp)        # 8-byte Spill
.Ltmp719:
	#DEBUG_VALUE: gsm_dec_decode:s <- [RBP+-224]
	.loc	4 630 14 is_stmt 1      # gsm_dec.c:630:14
	leaq	2(%r13), %r15
.Ltmp720:
	#DEBUG_VALUE: gsm_dec_decode:c <- R15
	movl	$7, %esi
	movl	$1, %edx
	movq	%r14, %rdi
	callq	_KLoad0
	.loc	4 630 13 is_stmt 0      # gsm_dec.c:630:13
	movzbl	1(%r13), %ebx
	andl	$63, %ebx
	.loc	4 630 3                 # gsm_dec.c:630:3
	leaq	-62(%rbp), %r14
	movl	$8, %edi
	movl	$1, %esi
	movl	$4, %edx
	movl	$7, %ecx
	movl	$1, %r8d
	callq	_KTimestamp2
	movl	$8, %edi
	movl	$2, %edx
	movq	%r14, %rsi
	callq	_KStore
	movw	%bx, -62(%rbp)
	movl	$9, %esi
	movl	$1, %edx
	movq	%r15, %rdi
	callq	_KLoad0
	.loc	4 631 15 is_stmt 1      # gsm_dec.c:631:15
	movzbl	2(%r13), %ebx
	shrl	$3, %ebx
	.loc	4 631 3 is_stmt 0       # gsm_dec.c:631:3
	leaq	-60(%rbp), %r14
	movl	$10, %edi
	movl	$1, %esi
	movl	$5, %edx
	movl	$9, %ecx
	movl	$2, %r8d
	callq	_KTimestamp2
	movl	$10, %edi
	movl	$2, %edx
	movq	%r14, %rsi
	callq	_KStore
	movw	%bx, -60(%rbp)
	.loc	4 632 16 is_stmt 1      # gsm_dec.c:632:16
	leaq	3(%r13), %r14
.Ltmp721:
	#DEBUG_VALUE: gsm_dec_decode:c <- R14
	movl	$11, %esi
	movl	$1, %edx
	movq	%r15, %rdi
	callq	_KLoad0
	.loc	4 632 15 is_stmt 0      # gsm_dec.c:632:15
	movzbl	2(%r13), %ebx
	.loc	4 632 13                # gsm_dec.c:632:13
	shll	$2, %ebx
	andl	$28, %ebx
	.loc	4 632 3                 # gsm_dec.c:632:3
	leaq	-58(%rbp), %r15
	movl	$12, %edi
	movl	$1, %esi
	movl	$5, %edx
	movl	$11, %ecx
	movl	$2, %r8d
	callq	_KTimestamp2
	movl	$12, %edi
	movl	$2, %edx
	movq	%r15, %rsi
	callq	_KStore
	movw	%bx, -58(%rbp)
	movl	$13, %esi
	movl	$1, %edx
	movq	%r14, %rdi
	callq	_KLoad0
	.loc	4 633 16 is_stmt 1      # gsm_dec.c:633:16
	movzbl	3(%r13), %ebx
	shrl	$6, %ebx
	movl	$14, %esi
	movl	$2, %edx
	movq	%r15, %rdi
	callq	_KLoad0
	.loc	4 633 3 is_stmt 0       # gsm_dec.c:633:3
	orw	-58(%rbp), %bx
	movl	$1, (%rsp)
	movl	$15, %edi
	movl	$1, %esi
	movl	$6, %edx
	movl	$13, %ecx
	movl	$3, %r8d
	movl	$14, %r9d
	callq	_KTimestamp3
	movl	$15, %edi
	movl	$2, %edx
	movq	%r15, %rsi
	callq	_KStore
	movw	%bx, -58(%rbp)
	movl	$16, %esi
	movl	$1, %edx
	movq	%r14, %rdi
	callq	_KLoad0
	.loc	4 634 15 is_stmt 1      # gsm_dec.c:634:15
	movzbl	3(%r13), %ebx
	shrl	$2, %ebx
	.loc	4 634 13 is_stmt 0      # gsm_dec.c:634:13
	andl	$15, %ebx
	.loc	4 634 3                 # gsm_dec.c:634:3
	leaq	-56(%rbp), %r15
	movl	$17, %edi
	movl	$1, %esi
	movl	$5, %edx
	movl	$16, %ecx
	movl	$2, %r8d
	callq	_KTimestamp2
	movl	$17, %edi
	movl	$2, %edx
	movq	%r15, %rsi
	callq	_KStore
	movw	%bx, -56(%rbp)
	.loc	4 635 16 is_stmt 1      # gsm_dec.c:635:16
	leaq	4(%r13), %r15
.Ltmp722:
	#DEBUG_VALUE: gsm_dec_decode:c <- R15
	movl	$18, %esi
	movl	$1, %edx
	movq	%r14, %rdi
	callq	_KLoad0
	.loc	4 635 15 is_stmt 0      # gsm_dec.c:635:15
	movzbl	3(%r13), %ebx
	.loc	4 635 13                # gsm_dec.c:635:13
	shll	$2, %ebx
	andl	$12, %ebx
	.loc	4 635 3                 # gsm_dec.c:635:3
	leaq	-54(%rbp), %r14
	movl	$19, %edi
	movl	$1, %esi
	movl	$5, %edx
	movl	$18, %ecx
	movl	$2, %r8d
	callq	_KTimestamp2
	movl	$19, %edi
	movl	$2, %edx
	movq	%r14, %rsi
	callq	_KStore
	movw	%bx, -54(%rbp)
	movl	$20, %esi
	movl	$1, %edx
	movq	%r15, %rdi
	callq	_KLoad0
	.loc	4 636 16 is_stmt 1      # gsm_dec.c:636:16
	movzbl	4(%r13), %ebx
	shrl	$6, %ebx
	movl	$21, %esi
	movl	$2, %edx
	movq	%r14, %rdi
	callq	_KLoad0
	.loc	4 636 3 is_stmt 0       # gsm_dec.c:636:3
	orw	-54(%rbp), %bx
	movl	$1, (%rsp)
	movl	$22, %edi
	movl	$1, %esi
	movl	$6, %edx
	movl	$20, %ecx
	movl	$3, %r8d
	movl	$21, %r9d
	callq	_KTimestamp3
	movl	$22, %edi
	movl	$2, %edx
	movq	%r14, %rsi
	callq	_KStore
	movw	%bx, -54(%rbp)
	movl	$23, %esi
	movl	$1, %edx
	movq	%r15, %rdi
	callq	_KLoad0
	.loc	4 637 15 is_stmt 1      # gsm_dec.c:637:15
	movzbl	4(%r13), %ebx
	shrl	$3, %ebx
	.loc	4 637 13 is_stmt 0      # gsm_dec.c:637:13
	andl	$7, %ebx
	.loc	4 637 3                 # gsm_dec.c:637:3
	leaq	-52(%rbp), %r14
	movl	$24, %edi
	movl	$1, %esi
	movl	$5, %edx
	movl	$23, %ecx
	movl	$2, %r8d
	callq	_KTimestamp2
	movl	$24, %edi
	movl	$2, %edx
	movq	%r14, %rsi
	callq	_KStore
	movw	%bx, -52(%rbp)
.Ltmp723:
	#DEBUG_VALUE: gsm_dec_decode:target <- undef
	.loc	4 638 14 is_stmt 1      # gsm_dec.c:638:14
	leaq	5(%r13), %r12
.Ltmp724:
	#DEBUG_VALUE: gsm_dec_decode:c <- R12
	movl	$25, %esi
	movl	$1, %edx
	movq	%r15, %rdi
	callq	_KLoad0
	.loc	4 638 13 is_stmt 0      # gsm_dec.c:638:13
	movzbl	4(%r13), %ebx
	andl	$7, %ebx
	.loc	4 638 3                 # gsm_dec.c:638:3
	leaq	-50(%rbp), %r14
	movl	$26, %edi
	movl	$1, %esi
	movl	$4, %edx
	movl	$25, %ecx
	movl	$1, %r8d
	callq	_KTimestamp2
	movl	$26, %edi
	movl	$2, %edx
	movq	%r14, %rsi
	callq	_KStore
	movw	%bx, -50(%rbp)
	movl	$27, %esi
	movl	$1, %edx
	movq	%r12, %rdi
	callq	_KLoad0
	.loc	4 639 13 is_stmt 1      # gsm_dec.c:639:13
	movzbl	5(%r13), %ebx
	shrl	%ebx
	movl	$28, %edi
	movl	$1, %esi
	movl	$5, %edx
	movl	$27, %ecx
	movl	$2, %r8d
	callq	_KTimestamp2
	leaq	-72(%rbp), %rsi
	movl	$28, %edi
	movl	$2, %edx
	callq	_KStore
	.loc	4 639 3 is_stmt 0       # gsm_dec.c:639:3
	movw	%bx, -72(%rbp)
	.loc	4 640 14 is_stmt 1      # gsm_dec.c:640:14
	leaq	6(%r13), %r14
.Ltmp725:
	#DEBUG_VALUE: gsm_dec_decode:c <- R14
	movl	$29, %esi
	movl	$1, %edx
	movq	%r12, %rdi
	callq	_KLoad0
	.loc	4 640 13 is_stmt 0      # gsm_dec.c:640:13
	movzbl	5(%r13), %ebx
	.loc	4 640 11                # gsm_dec.c:640:11
	addl	%ebx, %ebx
	andl	$2, %ebx
	movl	$30, %edi
	movl	$1, %esi
	movl	$5, %edx
	movl	$29, %ecx
	movl	$2, %r8d
	callq	_KTimestamp2
	leaq	-88(%rbp), %rsi
	movl	$30, %edi
	movl	$2, %edx
	movq	%rsi, %r15
	callq	_KStore
	.loc	4 640 3                 # gsm_dec.c:640:3
	movw	%bx, -88(%rbp)
	movl	$31, %esi
	movl	$1, %edx
	movq	%r14, %rdi
	callq	_KLoad0
	.loc	4 641 14 is_stmt 1      # gsm_dec.c:641:14
	movzbl	6(%r13), %ebx
	shrl	$7, %ebx
	movl	$32, %esi
	movl	$2, %edx
	movq	%r15, %rdi
	callq	_KLoad0
	.loc	4 641 3 is_stmt 0       # gsm_dec.c:641:3
	orw	-88(%rbp), %bx
	movl	$1, (%rsp)
	movl	$33, %edi
	movl	$1, %esi
	movl	$6, %edx
	movl	$31, %ecx
	movl	$3, %r8d
	movl	$32, %r9d
	callq	_KTimestamp3
	movl	$33, %edi
	movl	$2, %edx
	movq	%r15, %rsi
	callq	_KStore
	movw	%bx, -88(%rbp)
	movl	$34, %esi
	movl	$1, %edx
	movq	%r14, %rdi
	callq	_KLoad0
	.loc	4 642 13 is_stmt 1      # gsm_dec.c:642:13
	movzbl	6(%r13), %ebx
	shrl	$5, %ebx
	.loc	4 642 11 is_stmt 0      # gsm_dec.c:642:11
	andl	$3, %ebx
	movl	$35, %edi
	movl	$1, %esi
	movl	$5, %edx
	movl	$34, %ecx
	movl	$2, %r8d
	callq	_KTimestamp2
	leaq	-80(%rbp), %rsi
	movl	$35, %edi
	movl	$2, %edx
	callq	_KStore
	.loc	4 642 3                 # gsm_dec.c:642:3
	movw	%bx, -80(%rbp)
	.loc	4 643 17 is_stmt 1      # gsm_dec.c:643:17
	leaq	7(%r13), %r15
.Ltmp726:
	#DEBUG_VALUE: gsm_dec_decode:c <- R15
	movl	$36, %esi
	movl	$1, %edx
	movq	%r14, %rdi
	callq	_KLoad0
	.loc	4 643 16 is_stmt 0      # gsm_dec.c:643:16
	movzbl	6(%r13), %ebx
	.loc	4 643 14                # gsm_dec.c:643:14
	addl	%ebx, %ebx
	andl	$62, %ebx
	movl	$37, %edi
	movl	$1, %esi
	movl	$5, %edx
	movl	$36, %ecx
	movl	$2, %r8d
	callq	_KTimestamp2
	leaq	-96(%rbp), %rsi
	movl	$37, %edi
	movl	$2, %edx
	movq	%rsi, %r14
	callq	_KStore
	.loc	4 643 3                 # gsm_dec.c:643:3
	movw	%bx, -96(%rbp)
	movl	$38, %esi
	movl	$1, %edx
	movq	%r15, %rdi
	callq	_KLoad0
	.loc	4 644 17 is_stmt 1      # gsm_dec.c:644:17
	movzbl	7(%r13), %ebx
	shrl	$7, %ebx
	movl	$39, %esi
	movl	$2, %edx
	movq	%r14, %rdi
	callq	_KLoad0
	.loc	4 644 3 is_stmt 0       # gsm_dec.c:644:3
	orw	-96(%rbp), %bx
	movl	$1, (%rsp)
	movl	$40, %edi
	movl	$1, %esi
	movl	$6, %edx
	movl	$38, %ecx
	movl	$3, %r8d
	movl	$39, %r9d
	callq	_KTimestamp3
	movl	$40, %edi
	movl	$2, %edx
	movq	%r14, %rsi
	callq	_KStore
	movw	%bx, -96(%rbp)
	movl	$41, %esi
	movl	$1, %edx
	movq	%r15, %rdi
	callq	_KLoad0
	.loc	4 645 14 is_stmt 1      # gsm_dec.c:645:14
	movzbl	7(%r13), %ebx
	shrl	$4, %ebx
	.loc	4 645 12 is_stmt 0      # gsm_dec.c:645:12
	andl	$7, %ebx
	movl	$42, %edi
	movl	$1, %esi
	movl	$5, %edx
	movl	$41, %ecx
	movl	$2, %r8d
	callq	_KTimestamp2
	leaq	-208(%rbp), %rsi
	movl	$42, %edi
	movl	$2, %edx
	callq	_KStore
	.loc	4 645 3                 # gsm_dec.c:645:3
	movw	%bx, -208(%rbp)
	movl	$43, %esi
	movl	$1, %edx
	movq	%r15, %rdi
	callq	_KLoad0
	.loc	4 646 14 is_stmt 1      # gsm_dec.c:646:14
	movzbl	7(%r13), %ebx
	shrl	%ebx
	.loc	4 646 12 is_stmt 0      # gsm_dec.c:646:12
	andl	$7, %ebx
	.loc	4 646 3                 # gsm_dec.c:646:3
	leaq	-206(%rbp), %r14
	movl	$44, %edi
	movl	$1, %esi
	movl	$5, %edx
	movl	$43, %ecx
	movl	$2, %r8d
	callq	_KTimestamp2
	movl	$44, %edi
	movl	$2, %edx
	movq	%r14, %rsi
	callq	_KStore
	movw	%bx, -206(%rbp)
	.loc	4 647 15 is_stmt 1      # gsm_dec.c:647:15
	leaq	8(%r13), %r12
.Ltmp727:
	#DEBUG_VALUE: gsm_dec_decode:c <- R12
	movl	$45, %esi
	movl	$1, %edx
	movq	%r15, %rdi
	callq	_KLoad0
	.loc	4 647 14 is_stmt 0      # gsm_dec.c:647:14
	movzbl	7(%r13), %ebx
	.loc	4 647 12                # gsm_dec.c:647:12
	shll	$2, %ebx
	andl	$4, %ebx
	.loc	4 647 3                 # gsm_dec.c:647:3
	leaq	-204(%rbp), %r14
	movl	$46, %edi
	movl	$1, %esi
	movl	$5, %edx
	movl	$45, %ecx
	movl	$2, %r8d
	callq	_KTimestamp2
	movl	$46, %edi
	movl	$2, %edx
	movq	%r14, %rsi
	callq	_KStore
	movw	%bx, -204(%rbp)
	movl	$47, %esi
	movl	$1, %edx
	movq	%r12, %rdi
	callq	_KLoad0
	.loc	4 648 15 is_stmt 1      # gsm_dec.c:648:15
	movzbl	8(%r13), %ebx
	shrl	$6, %ebx
	movl	$48, %esi
	movl	$2, %edx
	movq	%r14, %rdi
	callq	_KLoad0
	.loc	4 648 3 is_stmt 0       # gsm_dec.c:648:3
	orw	-204(%rbp), %bx
	movl	$1, (%rsp)
	movl	$49, %edi
	movl	$1, %esi
	movl	$6, %edx
	movl	$47, %ecx
	movl	$3, %r8d
	movl	$48, %r9d
	callq	_KTimestamp3
	movl	$49, %edi
	movl	$2, %edx
	movq	%r14, %rsi
	callq	_KStore
	movw	%bx, -204(%rbp)
	movl	$50, %esi
	movl	$1, %edx
	movq	%r12, %rdi
	callq	_KLoad0
	.loc	4 649 14 is_stmt 1      # gsm_dec.c:649:14
	movzbl	8(%r13), %ebx
	shrl	$3, %ebx
	.loc	4 649 12 is_stmt 0      # gsm_dec.c:649:12
	andl	$7, %ebx
	.loc	4 649 3                 # gsm_dec.c:649:3
	leaq	-202(%rbp), %r14
	movl	$51, %edi
	movl	$1, %esi
	movl	$5, %edx
	movl	$50, %ecx
	movl	$2, %r8d
	callq	_KTimestamp2
	movl	$51, %edi
	movl	$2, %edx
	movq	%r14, %rsi
	callq	_KStore
	movw	%bx, -202(%rbp)
	.loc	4 650 13 is_stmt 1      # gsm_dec.c:650:13
	leaq	9(%r13), %r14
.Ltmp728:
	#DEBUG_VALUE: gsm_dec_decode:c <- R14
	movl	$52, %esi
	movl	$1, %edx
	movq	%r12, %rdi
	callq	_KLoad0
	.loc	4 650 12 is_stmt 0      # gsm_dec.c:650:12
	movzbl	8(%r13), %ebx
	andl	$7, %ebx
	.loc	4 650 3                 # gsm_dec.c:650:3
	leaq	-200(%rbp), %r15
	movl	$53, %edi
	movl	$1, %esi
	movl	$4, %edx
	movl	$52, %ecx
	movl	$1, %r8d
	callq	_KTimestamp2
	movl	$53, %edi
	movl	$2, %edx
	movq	%r15, %rsi
	callq	_KStore
	movw	%bx, -200(%rbp)
	movl	$54, %esi
	movl	$1, %edx
	movq	%r14, %rdi
	callq	_KLoad0
	.loc	4 651 14 is_stmt 1      # gsm_dec.c:651:14
	movzbl	9(%r13), %ebx
	shrl	$5, %ebx
	.loc	4 651 3 is_stmt 0       # gsm_dec.c:651:3
	leaq	-198(%rbp), %r15
	movl	$55, %edi
	movl	$1, %esi
	movl	$5, %edx
	movl	$54, %ecx
	movl	$2, %r8d
	callq	_KTimestamp2
	movl	$55, %edi
	movl	$2, %edx
	movq	%r15, %rsi
	callq	_KStore
	movw	%bx, -198(%rbp)
	movl	$56, %esi
	movl	$1, %edx
	movq	%r14, %rdi
	callq	_KLoad0
	.loc	4 652 14 is_stmt 1      # gsm_dec.c:652:14
	movzbl	9(%r13), %ebx
	shrl	$2, %ebx
	.loc	4 652 12 is_stmt 0      # gsm_dec.c:652:12
	andl	$7, %ebx
	.loc	4 652 3                 # gsm_dec.c:652:3
	leaq	-196(%rbp), %r15
	movl	$57, %edi
	movl	$1, %esi
	movl	$5, %edx
	movl	$56, %ecx
	movl	$2, %r8d
	callq	_KTimestamp2
	movl	$57, %edi
	movl	$2, %edx
	movq	%r15, %rsi
	callq	_KStore
	movw	%bx, -196(%rbp)
	.loc	4 653 15 is_stmt 1      # gsm_dec.c:653:15
	leaq	10(%r13), %r15
.Ltmp729:
	#DEBUG_VALUE: gsm_dec_decode:c <- R15
	movl	$58, %esi
	movl	$1, %edx
	movq	%r14, %rdi
	callq	_KLoad0
	.loc	4 653 14 is_stmt 0      # gsm_dec.c:653:14
	movzbl	9(%r13), %ebx
	.loc	4 653 12                # gsm_dec.c:653:12
	addl	%ebx, %ebx
	andl	$6, %ebx
	.loc	4 653 3                 # gsm_dec.c:653:3
	leaq	-194(%rbp), %r14
	movl	$59, %edi
	movl	$1, %esi
	movl	$5, %edx
	movl	$58, %ecx
	movl	$2, %r8d
	callq	_KTimestamp2
	movl	$59, %edi
	movl	$2, %edx
	movq	%r14, %rsi
	callq	_KStore
	movw	%bx, -194(%rbp)
	movl	$60, %esi
	movl	$1, %edx
	movq	%r15, %rdi
	callq	_KLoad0
	.loc	4 654 15 is_stmt 1      # gsm_dec.c:654:15
	movzbl	10(%r13), %ebx
	shrl	$7, %ebx
	movl	$61, %esi
	movl	$2, %edx
	movq	%r14, %rdi
	callq	_KLoad0
	.loc	4 654 3 is_stmt 0       # gsm_dec.c:654:3
	orw	-194(%rbp), %bx
	movl	$1, (%rsp)
	movl	$62, %edi
	movl	$1, %esi
	movl	$6, %edx
	movl	$60, %ecx
	movl	$3, %r8d
	movl	$61, %r9d
	callq	_KTimestamp3
	movl	$62, %edi
	movl	$2, %edx
	movq	%r14, %rsi
	callq	_KStore
	movw	%bx, -194(%rbp)
	movl	$63, %esi
	movl	$1, %edx
	movq	%r15, %rdi
	callq	_KLoad0
	.loc	4 655 14 is_stmt 1      # gsm_dec.c:655:14
	movzbl	10(%r13), %ebx
	shrl	$4, %ebx
	.loc	4 655 12 is_stmt 0      # gsm_dec.c:655:12
	andl	$7, %ebx
	.loc	4 655 3                 # gsm_dec.c:655:3
	leaq	-192(%rbp), %r14
	movl	$64, %edi
	movl	$1, %esi
	movl	$5, %edx
	movl	$63, %ecx
	movl	$2, %r8d
	callq	_KTimestamp2
	movl	$64, %edi
	movl	$2, %edx
	movq	%r14, %rsi
	callq	_KStore
	movw	%bx, -192(%rbp)
	movl	$65, %esi
	movl	$1, %edx
	movq	%r15, %rdi
	callq	_KLoad0
	.loc	4 656 14 is_stmt 1      # gsm_dec.c:656:14
	movzbl	10(%r13), %ebx
	shrl	%ebx
	.loc	4 656 12 is_stmt 0      # gsm_dec.c:656:12
	andl	$7, %ebx
	.loc	4 656 3                 # gsm_dec.c:656:3
	leaq	-190(%rbp), %r14
	movl	$66, %edi
	movl	$1, %esi
	movl	$5, %edx
	movl	$65, %ecx
	movl	$2, %r8d
	callq	_KTimestamp2
	movl	$66, %edi
	movl	$2, %edx
	movq	%r14, %rsi
	callq	_KStore
	movw	%bx, -190(%rbp)
	.loc	4 657 16 is_stmt 1      # gsm_dec.c:657:16
	leaq	11(%r13), %r12
.Ltmp730:
	#DEBUG_VALUE: gsm_dec_decode:c <- R12
	movl	$67, %esi
	movl	$1, %edx
	movq	%r15, %rdi
	callq	_KLoad0
	.loc	4 657 15 is_stmt 0      # gsm_dec.c:657:15
	movzbl	10(%r13), %ebx
	.loc	4 657 13                # gsm_dec.c:657:13
	shll	$2, %ebx
	andl	$4, %ebx
	.loc	4 657 3                 # gsm_dec.c:657:3
	leaq	-188(%rbp), %r14
	movl	$68, %edi
	movl	$1, %esi
	movl	$5, %edx
	movl	$67, %ecx
	movl	$2, %r8d
	callq	_KTimestamp2
	movl	$68, %edi
	movl	$2, %edx
	movq	%r14, %rsi
	callq	_KStore
	movw	%bx, -188(%rbp)
	movl	$69, %esi
	movl	$1, %edx
	movq	%r12, %rdi
	callq	_KLoad0
	.loc	4 658 16 is_stmt 1      # gsm_dec.c:658:16
	movzbl	11(%r13), %ebx
	shrl	$6, %ebx
	movl	$70, %esi
	movl	$2, %edx
	movq	%r14, %rdi
	callq	_KLoad0
	.loc	4 658 3 is_stmt 0       # gsm_dec.c:658:3
	orw	-188(%rbp), %bx
	movl	$1, (%rsp)
	movl	$71, %edi
	movl	$1, %esi
	movl	$6, %edx
	movl	$69, %ecx
	movl	$3, %r8d
	movl	$70, %r9d
	callq	_KTimestamp3
	movl	$71, %edi
	movl	$2, %edx
	movq	%r14, %rsi
	callq	_KStore
	movw	%bx, -188(%rbp)
	movl	$72, %esi
	movl	$1, %edx
	movq	%r12, %rdi
	callq	_KLoad0
	.loc	4 659 15 is_stmt 1      # gsm_dec.c:659:15
	movzbl	11(%r13), %ebx
	shrl	$3, %ebx
	.loc	4 659 13 is_stmt 0      # gsm_dec.c:659:13
	andl	$7, %ebx
	.loc	4 659 3                 # gsm_dec.c:659:3
	leaq	-186(%rbp), %r14
	movl	$73, %edi
	movl	$1, %esi
	movl	$5, %edx
	movl	$72, %ecx
	movl	$2, %r8d
	callq	_KTimestamp2
	movl	$73, %edi
	movl	$2, %edx
	movq	%r14, %rsi
	callq	_KStore
	movw	%bx, -186(%rbp)
	.loc	4 660 14 is_stmt 1      # gsm_dec.c:660:14
	leaq	12(%r13), %r14
.Ltmp731:
	#DEBUG_VALUE: gsm_dec_decode:c <- R14
	movl	$74, %esi
	movl	$1, %edx
	movq	%r12, %rdi
	callq	_KLoad0
	.loc	4 660 13 is_stmt 0      # gsm_dec.c:660:13
	movzbl	11(%r13), %ebx
	andl	$7, %ebx
	.loc	4 660 3                 # gsm_dec.c:660:3
	leaq	-184(%rbp), %r15
	movl	$75, %edi
	movl	$1, %esi
	movl	$4, %edx
	movl	$74, %ecx
	movl	$1, %r8d
	callq	_KTimestamp2
	movl	$75, %edi
	movl	$2, %edx
	movq	%r15, %rsi
	callq	_KStore
	movw	%bx, -184(%rbp)
	movl	$76, %esi
	movl	$1, %edx
	movq	%r14, %rdi
	callq	_KLoad0
	.loc	4 661 13 is_stmt 1      # gsm_dec.c:661:13
	movzbl	12(%r13), %ebx
	shrl	%ebx
	.loc	4 661 3 is_stmt 0       # gsm_dec.c:661:3
	leaq	-70(%rbp), %r15
	movl	$77, %edi
	movl	$1, %esi
	movl	$5, %edx
	movl	$76, %ecx
	movl	$2, %r8d
	callq	_KTimestamp2
	movl	$77, %edi
	movl	$2, %edx
	movq	%r15, %rsi
	callq	_KStore
	movw	%bx, -70(%rbp)
	.loc	4 662 14 is_stmt 1      # gsm_dec.c:662:14
	leaq	13(%r13), %r12
.Ltmp732:
	#DEBUG_VALUE: gsm_dec_decode:c <- R12
	movl	$78, %esi
	movl	$1, %edx
	movq	%r14, %rdi
	callq	_KLoad0
	.loc	4 662 13 is_stmt 0      # gsm_dec.c:662:13
	movzbl	12(%r13), %ebx
	.loc	4 662 11                # gsm_dec.c:662:11
	addl	%ebx, %ebx
	andl	$2, %ebx
	.loc	4 662 3                 # gsm_dec.c:662:3
	leaq	-86(%rbp), %r14
	movl	$79, %edi
	movl	$1, %esi
	movl	$5, %edx
	movl	$78, %ecx
	movl	$2, %r8d
	callq	_KTimestamp2
	movl	$79, %edi
	movl	$2, %edx
	movq	%r14, %rsi
	callq	_KStore
	movw	%bx, -86(%rbp)
	movl	$80, %esi
	movl	$1, %edx
	movq	%r12, %rdi
	callq	_KLoad0
	.loc	4 663 14 is_stmt 1      # gsm_dec.c:663:14
	movzbl	13(%r13), %ebx
	shrl	$7, %ebx
	movl	$81, %esi
	movl	$2, %edx
	movq	%r14, %rdi
	callq	_KLoad0
	.loc	4 663 3 is_stmt 0       # gsm_dec.c:663:3
	orw	-86(%rbp), %bx
	movl	$1, (%rsp)
	movl	$82, %edi
	movl	$1, %esi
	movl	$6, %edx
	movl	$80, %ecx
	movl	$3, %r8d
	movl	$81, %r9d
	callq	_KTimestamp3
	movl	$82, %edi
	movl	$2, %edx
	movq	%r14, %rsi
	callq	_KStore
	movw	%bx, -86(%rbp)
	movl	$83, %esi
	movl	$1, %edx
	movq	%r12, %rdi
	callq	_KLoad0
	.loc	4 664 13 is_stmt 1      # gsm_dec.c:664:13
	movzbl	13(%r13), %ebx
	shrl	$5, %ebx
	.loc	4 664 11 is_stmt 0      # gsm_dec.c:664:11
	andl	$3, %ebx
	.loc	4 664 3                 # gsm_dec.c:664:3
	leaq	-78(%rbp), %r14
	movl	$84, %edi
	movl	$1, %esi
	movl	$5, %edx
	movl	$83, %ecx
	movl	$2, %r8d
	callq	_KTimestamp2
	movl	$84, %edi
	movl	$2, %edx
	movq	%r14, %rsi
	callq	_KStore
	movw	%bx, -78(%rbp)
	.loc	4 665 17 is_stmt 1      # gsm_dec.c:665:17
	leaq	14(%r13), %r15
.Ltmp733:
	#DEBUG_VALUE: gsm_dec_decode:c <- R15
	movl	$85, %esi
	movl	$1, %edx
	movq	%r12, %rdi
	callq	_KLoad0
	.loc	4 665 16 is_stmt 0      # gsm_dec.c:665:16
	movzbl	13(%r13), %ebx
	.loc	4 665 14                # gsm_dec.c:665:14
	addl	%ebx, %ebx
	andl	$62, %ebx
	.loc	4 665 3                 # gsm_dec.c:665:3
	leaq	-94(%rbp), %r14
	movl	$86, %edi
	movl	$1, %esi
	movl	$5, %edx
	movl	$85, %ecx
	movl	$2, %r8d
	callq	_KTimestamp2
	movl	$86, %edi
	movl	$2, %edx
	movq	%r14, %rsi
	callq	_KStore
	movw	%bx, -94(%rbp)
	movl	$87, %esi
	movl	$1, %edx
	movq	%r15, %rdi
	callq	_KLoad0
	.loc	4 666 17 is_stmt 1      # gsm_dec.c:666:17
	movzbl	14(%r13), %ebx
	shrl	$7, %ebx
	movl	$88, %esi
	movl	$2, %edx
	movq	%r14, %rdi
	callq	_KLoad0
	.loc	4 666 3 is_stmt 0       # gsm_dec.c:666:3
	orw	-94(%rbp), %bx
	movl	$1, (%rsp)
	movl	$89, %edi
	movl	$1, %esi
	movl	$6, %edx
	movl	$87, %ecx
	movl	$3, %r8d
	movl	$88, %r9d
	callq	_KTimestamp3
	movl	$89, %edi
	movl	$2, %edx
	movq	%r14, %rsi
	callq	_KStore
	movw	%bx, -94(%rbp)
	movl	$90, %esi
	movl	$1, %edx
	movq	%r15, %rdi
	callq	_KLoad0
	.loc	4 667 15 is_stmt 1      # gsm_dec.c:667:15
	movzbl	14(%r13), %ebx
	shrl	$4, %ebx
	.loc	4 667 13 is_stmt 0      # gsm_dec.c:667:13
	andl	$7, %ebx
	.loc	4 667 3                 # gsm_dec.c:667:3
	leaq	-182(%rbp), %r14
	movl	$91, %edi
	movl	$1, %esi
	movl	$5, %edx
	movl	$90, %ecx
	movl	$2, %r8d
	callq	_KTimestamp2
	movl	$91, %edi
	movl	$2, %edx
	movq	%r14, %rsi
	callq	_KStore
	movw	%bx, -182(%rbp)
	movl	$92, %esi
	movl	$1, %edx
	movq	%r15, %rdi
	callq	_KLoad0
	.loc	4 668 15 is_stmt 1      # gsm_dec.c:668:15
	movzbl	14(%r13), %ebx
	shrl	%ebx
	.loc	4 668 13 is_stmt 0      # gsm_dec.c:668:13
	andl	$7, %ebx
	.loc	4 668 3                 # gsm_dec.c:668:3
	leaq	-180(%rbp), %r14
	movl	$93, %edi
	movl	$1, %esi
	movl	$5, %edx
	movl	$92, %ecx
	movl	$2, %r8d
	callq	_KTimestamp2
	movl	$93, %edi
	movl	$2, %edx
	movq	%r14, %rsi
	callq	_KStore
	movw	%bx, -180(%rbp)
	.loc	4 669 16 is_stmt 1      # gsm_dec.c:669:16
	leaq	15(%r13), %r12
.Ltmp734:
	#DEBUG_VALUE: gsm_dec_decode:c <- R12
	movl	$94, %esi
	movl	$1, %edx
	movq	%r15, %rdi
	callq	_KLoad0
	.loc	4 669 15 is_stmt 0      # gsm_dec.c:669:15
	movzbl	14(%r13), %ebx
	.loc	4 669 13                # gsm_dec.c:669:13
	shll	$2, %ebx
	andl	$4, %ebx
	.loc	4 669 3                 # gsm_dec.c:669:3
	leaq	-178(%rbp), %r14
	movl	$95, %edi
	movl	$1, %esi
	movl	$5, %edx
	movl	$94, %ecx
	movl	$2, %r8d
	callq	_KTimestamp2
	movl	$95, %edi
	movl	$2, %edx
	movq	%r14, %rsi
	callq	_KStore
	movw	%bx, -178(%rbp)
	movl	$96, %esi
	movl	$1, %edx
	movq	%r12, %rdi
	callq	_KLoad0
	.loc	4 670 16 is_stmt 1      # gsm_dec.c:670:16
	movzbl	15(%r13), %ebx
	shrl	$6, %ebx
	movl	$97, %esi
	movl	$2, %edx
	movq	%r14, %rdi
	callq	_KLoad0
	.loc	4 670 3 is_stmt 0       # gsm_dec.c:670:3
	orw	-178(%rbp), %bx
	movl	$1, (%rsp)
	movl	$98, %edi
	movl	$1, %esi
	movl	$6, %edx
	movl	$96, %ecx
	movl	$3, %r8d
	movl	$97, %r9d
	callq	_KTimestamp3
	movl	$98, %edi
	movl	$2, %edx
	movq	%r14, %rsi
	callq	_KStore
	movw	%bx, -178(%rbp)
	movl	$99, %esi
	movl	$1, %edx
	movq	%r12, %rdi
	callq	_KLoad0
	.loc	4 671 15 is_stmt 1      # gsm_dec.c:671:15
	movzbl	15(%r13), %ebx
	shrl	$3, %ebx
	.loc	4 671 13 is_stmt 0      # gsm_dec.c:671:13
	andl	$7, %ebx
	.loc	4 671 3                 # gsm_dec.c:671:3
	leaq	-176(%rbp), %r14
	movl	$100, %edi
	movl	$1, %esi
	movl	$5, %edx
	movl	$99, %ecx
	movl	$2, %r8d
	callq	_KTimestamp2
	movl	$100, %edi
	movl	$2, %edx
	movq	%r14, %rsi
	callq	_KStore
	movw	%bx, -176(%rbp)
	.loc	4 672 14 is_stmt 1      # gsm_dec.c:672:14
	leaq	16(%r13), %r14
.Ltmp735:
	#DEBUG_VALUE: gsm_dec_decode:c <- R14
	movl	$101, %esi
	movl	$1, %edx
	movq	%r12, %rdi
	callq	_KLoad0
	.loc	4 672 13 is_stmt 0      # gsm_dec.c:672:13
	movzbl	15(%r13), %ebx
	andl	$7, %ebx
	.loc	4 672 3                 # gsm_dec.c:672:3
	leaq	-174(%rbp), %r15
	movl	$102, %edi
	movl	$1, %esi
	movl	$4, %edx
	movl	$101, %ecx
	movl	$1, %r8d
	callq	_KTimestamp2
	movl	$102, %edi
	movl	$2, %edx
	movq	%r15, %rsi
	callq	_KStore
	movw	%bx, -174(%rbp)
	movl	$103, %esi
	movl	$1, %edx
	movq	%r14, %rdi
	callq	_KLoad0
	.loc	4 673 15 is_stmt 1      # gsm_dec.c:673:15
	movzbl	16(%r13), %ebx
	shrl	$5, %ebx
	.loc	4 673 3 is_stmt 0       # gsm_dec.c:673:3
	leaq	-172(%rbp), %r15
	movl	$104, %edi
	movl	$1, %esi
	movl	$5, %edx
	movl	$103, %ecx
	movl	$2, %r8d
	callq	_KTimestamp2
	movl	$104, %edi
	movl	$2, %edx
	movq	%r15, %rsi
	callq	_KStore
	movw	%bx, -172(%rbp)
	movl	$105, %esi
	movl	$1, %edx
	movq	%r14, %rdi
	callq	_KLoad0
	.loc	4 674 15 is_stmt 1      # gsm_dec.c:674:15
	movzbl	16(%r13), %ebx
	shrl	$2, %ebx
	.loc	4 674 13 is_stmt 0      # gsm_dec.c:674:13
	andl	$7, %ebx
	.loc	4 674 3                 # gsm_dec.c:674:3
	leaq	-170(%rbp), %r15
	movl	$106, %edi
	movl	$1, %esi
	movl	$5, %edx
	movl	$105, %ecx
	movl	$2, %r8d
	callq	_KTimestamp2
	movl	$106, %edi
	movl	$2, %edx
	movq	%r15, %rsi
	callq	_KStore
	movw	%bx, -170(%rbp)
	.loc	4 675 16 is_stmt 1      # gsm_dec.c:675:16
	leaq	17(%r13), %r15
.Ltmp736:
	#DEBUG_VALUE: gsm_dec_decode:c <- R15
	movl	$107, %esi
	movl	$1, %edx
	movq	%r14, %rdi
	callq	_KLoad0
	.loc	4 675 15 is_stmt 0      # gsm_dec.c:675:15
	movzbl	16(%r13), %ebx
	.loc	4 675 13                # gsm_dec.c:675:13
	addl	%ebx, %ebx
	andl	$6, %ebx
	.loc	4 675 3                 # gsm_dec.c:675:3
	leaq	-168(%rbp), %r14
	movl	$108, %edi
	movl	$1, %esi
	movl	$5, %edx
	movl	$107, %ecx
	movl	$2, %r8d
	callq	_KTimestamp2
	movl	$108, %edi
	movl	$2, %edx
	movq	%r14, %rsi
	callq	_KStore
	movw	%bx, -168(%rbp)
	movl	$109, %esi
	movl	$1, %edx
	movq	%r15, %rdi
	callq	_KLoad0
	.loc	4 676 16 is_stmt 1      # gsm_dec.c:676:16
	movzbl	17(%r13), %ebx
	shrl	$7, %ebx
	movl	$110, %esi
	movl	$2, %edx
	movq	%r14, %rdi
	callq	_KLoad0
	.loc	4 676 3 is_stmt 0       # gsm_dec.c:676:3
	orw	-168(%rbp), %bx
	movl	$1, (%rsp)
	movl	$111, %edi
	movl	$1, %esi
	movl	$6, %edx
	movl	$109, %ecx
	movl	$3, %r8d
	movl	$110, %r9d
	callq	_KTimestamp3
	movl	$111, %edi
	movl	$2, %edx
	movq	%r14, %rsi
	callq	_KStore
	movw	%bx, -168(%rbp)
	movl	$112, %esi
	movl	$1, %edx
	movq	%r15, %rdi
	callq	_KLoad0
	.loc	4 677 15 is_stmt 1      # gsm_dec.c:677:15
	movzbl	17(%r13), %ebx
	shrl	$4, %ebx
	.loc	4 677 13 is_stmt 0      # gsm_dec.c:677:13
	andl	$7, %ebx
	.loc	4 677 3                 # gsm_dec.c:677:3
	leaq	-166(%rbp), %r14
	movl	$113, %edi
	movl	$1, %esi
	movl	$5, %edx
	movl	$112, %ecx
	movl	$2, %r8d
	callq	_KTimestamp2
	movl	$113, %edi
	movl	$2, %edx
	movq	%r14, %rsi
	callq	_KStore
	movw	%bx, -166(%rbp)
	movl	$114, %esi
	movl	$1, %edx
	movq	%r15, %rdi
	callq	_KLoad0
	.loc	4 678 15 is_stmt 1      # gsm_dec.c:678:15
	movzbl	17(%r13), %ebx
	shrl	%ebx
	.loc	4 678 13 is_stmt 0      # gsm_dec.c:678:13
	andl	$7, %ebx
	.loc	4 678 3                 # gsm_dec.c:678:3
	leaq	-164(%rbp), %r14
	movl	$115, %edi
	movl	$1, %esi
	movl	$5, %edx
	movl	$114, %ecx
	movl	$2, %r8d
	callq	_KTimestamp2
	movl	$115, %edi
	movl	$2, %edx
	movq	%r14, %rsi
	callq	_KStore
	movw	%bx, -164(%rbp)
	.loc	4 679 16 is_stmt 1      # gsm_dec.c:679:16
	leaq	18(%r13), %r12
.Ltmp737:
	#DEBUG_VALUE: gsm_dec_decode:c <- R12
	movl	$116, %esi
	movl	$1, %edx
	movq	%r15, %rdi
	callq	_KLoad0
	.loc	4 679 15 is_stmt 0      # gsm_dec.c:679:15
	movzbl	17(%r13), %ebx
	.loc	4 679 13                # gsm_dec.c:679:13
	shll	$2, %ebx
	andl	$4, %ebx
	.loc	4 679 3                 # gsm_dec.c:679:3
	leaq	-162(%rbp), %r14
	movl	$117, %edi
	movl	$1, %esi
	movl	$5, %edx
	movl	$116, %ecx
	movl	$2, %r8d
	callq	_KTimestamp2
	movl	$117, %edi
	movl	$2, %edx
	movq	%r14, %rsi
	callq	_KStore
	movw	%bx, -162(%rbp)
	movl	$118, %esi
	movl	$1, %edx
	movq	%r12, %rdi
	callq	_KLoad0
	.loc	4 680 16 is_stmt 1      # gsm_dec.c:680:16
	movzbl	18(%r13), %ebx
	shrl	$6, %ebx
	movl	$119, %esi
	movl	$2, %edx
	movq	%r14, %rdi
	callq	_KLoad0
	.loc	4 680 3 is_stmt 0       # gsm_dec.c:680:3
	orw	-162(%rbp), %bx
	movl	$1, (%rsp)
	movl	$120, %edi
	movl	$1, %esi
	movl	$6, %edx
	movl	$118, %ecx
	movl	$3, %r8d
	movl	$119, %r9d
	callq	_KTimestamp3
	movl	$120, %edi
	movl	$2, %edx
	movq	%r14, %rsi
	callq	_KStore
	movw	%bx, -162(%rbp)
	movl	$121, %esi
	movl	$1, %edx
	movq	%r12, %rdi
	callq	_KLoad0
	.loc	4 681 15 is_stmt 1      # gsm_dec.c:681:15
	movzbl	18(%r13), %ebx
	shrl	$3, %ebx
	.loc	4 681 13 is_stmt 0      # gsm_dec.c:681:13
	andl	$7, %ebx
	.loc	4 681 3                 # gsm_dec.c:681:3
	leaq	-160(%rbp), %r14
	movl	$122, %edi
	movl	$1, %esi
	movl	$5, %edx
	movl	$121, %ecx
	movl	$2, %r8d
	callq	_KTimestamp2
	movl	$122, %edi
	movl	$2, %edx
	movq	%r14, %rsi
	callq	_KStore
	movw	%bx, -160(%rbp)
	.loc	4 682 14 is_stmt 1      # gsm_dec.c:682:14
	leaq	19(%r13), %r14
.Ltmp738:
	#DEBUG_VALUE: gsm_dec_decode:c <- R14
	movl	$123, %esi
	movl	$1, %edx
	movq	%r12, %rdi
	callq	_KLoad0
	.loc	4 682 13 is_stmt 0      # gsm_dec.c:682:13
	movzbl	18(%r13), %ebx
	andl	$7, %ebx
	.loc	4 682 3                 # gsm_dec.c:682:3
	leaq	-158(%rbp), %r15
	movl	$124, %edi
	movl	$1, %esi
	movl	$4, %edx
	movl	$123, %ecx
	movl	$1, %r8d
	callq	_KTimestamp2
	movl	$124, %edi
	movl	$2, %edx
	movq	%r15, %rsi
	callq	_KStore
	movw	%bx, -158(%rbp)
	movl	$125, %esi
	movl	$1, %edx
	movq	%r14, %rdi
	callq	_KLoad0
	.loc	4 683 13 is_stmt 1      # gsm_dec.c:683:13
	movzbl	19(%r13), %ebx
	shrl	%ebx
	.loc	4 683 3 is_stmt 0       # gsm_dec.c:683:3
	leaq	-68(%rbp), %r15
	movl	$126, %edi
	movl	$1, %esi
	movl	$5, %edx
	movl	$125, %ecx
	movl	$2, %r8d
	callq	_KTimestamp2
	movl	$126, %edi
	movl	$2, %edx
	movq	%r15, %rsi
	callq	_KStore
	movw	%bx, -68(%rbp)
	.loc	4 684 14 is_stmt 1      # gsm_dec.c:684:14
	leaq	20(%r13), %r12
.Ltmp739:
	#DEBUG_VALUE: gsm_dec_decode:c <- R12
	movl	$127, %esi
	movl	$1, %edx
	movq	%r14, %rdi
	callq	_KLoad0
	.loc	4 684 13 is_stmt 0      # gsm_dec.c:684:13
	movzbl	19(%r13), %ebx
	.loc	4 684 11                # gsm_dec.c:684:11
	addl	%ebx, %ebx
	andl	$2, %ebx
	.loc	4 684 3                 # gsm_dec.c:684:3
	leaq	-84(%rbp), %r14
	movl	$128, %edi
	movl	$1, %esi
	movl	$5, %edx
	movl	$127, %ecx
	movl	$2, %r8d
	callq	_KTimestamp2
	movl	$128, %edi
	movl	$2, %edx
	movq	%r14, %rsi
	callq	_KStore
	movw	%bx, -84(%rbp)
	movl	$129, %esi
	movl	$1, %edx
	movq	%r12, %rdi
	callq	_KLoad0
	.loc	4 685 14 is_stmt 1      # gsm_dec.c:685:14
	movzbl	20(%r13), %ebx
	shrl	$7, %ebx
	movl	$130, %esi
	movl	$2, %edx
	movq	%r14, %rdi
	callq	_KLoad0
	.loc	4 685 3 is_stmt 0       # gsm_dec.c:685:3
	orw	-84(%rbp), %bx
	movl	$1, (%rsp)
	movl	$131, %edi
	movl	$1, %esi
	movl	$6, %edx
	movl	$129, %ecx
	movl	$3, %r8d
	movl	$130, %r9d
	callq	_KTimestamp3
	movl	$131, %edi
	movl	$2, %edx
	movq	%r14, %rsi
	callq	_KStore
	movw	%bx, -84(%rbp)
	movl	$132, %esi
	movl	$1, %edx
	movq	%r12, %rdi
	callq	_KLoad0
	.loc	4 686 13 is_stmt 1      # gsm_dec.c:686:13
	movzbl	20(%r13), %ebx
	shrl	$5, %ebx
	.loc	4 686 11 is_stmt 0      # gsm_dec.c:686:11
	andl	$3, %ebx
	.loc	4 686 3                 # gsm_dec.c:686:3
	leaq	-76(%rbp), %r14
	movl	$133, %edi
	movl	$1, %esi
	movl	$5, %edx
	movl	$132, %ecx
	movl	$2, %r8d
	callq	_KTimestamp2
	movl	$133, %edi
	movl	$2, %edx
	movq	%r14, %rsi
	callq	_KStore
	movw	%bx, -76(%rbp)
	.loc	4 687 17 is_stmt 1      # gsm_dec.c:687:17
	leaq	21(%r13), %r15
.Ltmp740:
	#DEBUG_VALUE: gsm_dec_decode:c <- R15
	movl	$134, %esi
	movl	$1, %edx
	movq	%r12, %rdi
	callq	_KLoad0
	.loc	4 687 16 is_stmt 0      # gsm_dec.c:687:16
	movzbl	20(%r13), %ebx
	.loc	4 687 14                # gsm_dec.c:687:14
	addl	%ebx, %ebx
	andl	$62, %ebx
	.loc	4 687 3                 # gsm_dec.c:687:3
	leaq	-92(%rbp), %r14
	movl	$135, %edi
	movl	$1, %esi
	movl	$5, %edx
	movl	$134, %ecx
	movl	$2, %r8d
	callq	_KTimestamp2
	movl	$135, %edi
	movl	$2, %edx
	movq	%r14, %rsi
	callq	_KStore
	movw	%bx, -92(%rbp)
	movl	$136, %esi
	movl	$1, %edx
	movq	%r15, %rdi
	callq	_KLoad0
	.loc	4 688 17 is_stmt 1      # gsm_dec.c:688:17
	movzbl	21(%r13), %ebx
	shrl	$7, %ebx
	movl	$137, %esi
	movl	$2, %edx
	movq	%r14, %rdi
	callq	_KLoad0
	.loc	4 688 3 is_stmt 0       # gsm_dec.c:688:3
	orw	-92(%rbp), %bx
	movl	$1, (%rsp)
	movl	$138, %edi
	movl	$1, %esi
	movl	$6, %edx
	movl	$136, %ecx
	movl	$3, %r8d
	movl	$137, %r9d
	callq	_KTimestamp3
	movl	$138, %edi
	movl	$2, %edx
	movq	%r14, %rsi
	callq	_KStore
	movw	%bx, -92(%rbp)
	movl	$139, %esi
	movl	$1, %edx
	movq	%r15, %rdi
	callq	_KLoad0
	.loc	4 689 15 is_stmt 1      # gsm_dec.c:689:15
	movzbl	21(%r13), %ebx
	shrl	$4, %ebx
	.loc	4 689 13 is_stmt 0      # gsm_dec.c:689:13
	andl	$7, %ebx
	.loc	4 689 3                 # gsm_dec.c:689:3
	leaq	-156(%rbp), %r14
	movl	$140, %edi
	movl	$1, %esi
	movl	$5, %edx
	movl	$139, %ecx
	movl	$2, %r8d
	callq	_KTimestamp2
	movl	$140, %edi
	movl	$2, %edx
	movq	%r14, %rsi
	callq	_KStore
	movw	%bx, -156(%rbp)
	movl	$141, %esi
	movl	$1, %edx
	movq	%r15, %rdi
	callq	_KLoad0
	.loc	4 690 15 is_stmt 1      # gsm_dec.c:690:15
	movzbl	21(%r13), %ebx
	shrl	%ebx
	.loc	4 690 13 is_stmt 0      # gsm_dec.c:690:13
	andl	$7, %ebx
	.loc	4 690 3                 # gsm_dec.c:690:3
	leaq	-154(%rbp), %r14
	movl	$142, %edi
	movl	$1, %esi
	movl	$5, %edx
	movl	$141, %ecx
	movl	$2, %r8d
	callq	_KTimestamp2
	movl	$142, %edi
	movl	$2, %edx
	movq	%r14, %rsi
	callq	_KStore
	movw	%bx, -154(%rbp)
	.loc	4 691 16 is_stmt 1      # gsm_dec.c:691:16
	leaq	22(%r13), %r12
.Ltmp741:
	#DEBUG_VALUE: gsm_dec_decode:c <- R12
	movl	$143, %esi
	movl	$1, %edx
	movq	%r15, %rdi
	callq	_KLoad0
	.loc	4 691 15 is_stmt 0      # gsm_dec.c:691:15
	movzbl	21(%r13), %ebx
	.loc	4 691 13                # gsm_dec.c:691:13
	shll	$2, %ebx
	andl	$4, %ebx
	.loc	4 691 3                 # gsm_dec.c:691:3
	leaq	-152(%rbp), %r14
	movl	$144, %edi
	movl	$1, %esi
	movl	$5, %edx
	movl	$143, %ecx
	movl	$2, %r8d
	callq	_KTimestamp2
	movl	$144, %edi
	movl	$2, %edx
	movq	%r14, %rsi
	callq	_KStore
	movw	%bx, -152(%rbp)
	movl	$145, %esi
	movl	$1, %edx
	movq	%r12, %rdi
	callq	_KLoad0
	.loc	4 692 16 is_stmt 1      # gsm_dec.c:692:16
	movzbl	22(%r13), %ebx
	shrl	$6, %ebx
	movl	$146, %esi
	movl	$2, %edx
	movq	%r14, %rdi
	callq	_KLoad0
	.loc	4 692 3 is_stmt 0       # gsm_dec.c:692:3
	orw	-152(%rbp), %bx
	movl	$1, (%rsp)
	movl	$147, %edi
	movl	$1, %esi
	movl	$6, %edx
	movl	$145, %ecx
	movl	$3, %r8d
	movl	$146, %r9d
	callq	_KTimestamp3
	movl	$147, %edi
	movl	$2, %edx
	movq	%r14, %rsi
	callq	_KStore
	movw	%bx, -152(%rbp)
	movl	$148, %esi
	movl	$1, %edx
	movq	%r12, %rdi
	callq	_KLoad0
	.loc	4 693 15 is_stmt 1      # gsm_dec.c:693:15
	movzbl	22(%r13), %ebx
	shrl	$3, %ebx
	.loc	4 693 13 is_stmt 0      # gsm_dec.c:693:13
	andl	$7, %ebx
	.loc	4 693 3                 # gsm_dec.c:693:3
	leaq	-150(%rbp), %r14
	movl	$149, %edi
	movl	$1, %esi
	movl	$5, %edx
	movl	$148, %ecx
	movl	$2, %r8d
	callq	_KTimestamp2
	movl	$149, %edi
	movl	$2, %edx
	movq	%r14, %rsi
	callq	_KStore
	movw	%bx, -150(%rbp)
	.loc	4 694 14 is_stmt 1      # gsm_dec.c:694:14
	leaq	23(%r13), %r14
.Ltmp742:
	#DEBUG_VALUE: gsm_dec_decode:c <- R14
	movl	$150, %esi
	movl	$1, %edx
	movq	%r12, %rdi
	callq	_KLoad0
	.loc	4 694 13 is_stmt 0      # gsm_dec.c:694:13
	movzbl	22(%r13), %ebx
	andl	$7, %ebx
	.loc	4 694 3                 # gsm_dec.c:694:3
	leaq	-148(%rbp), %r15
	movl	$151, %edi
	movl	$1, %esi
	movl	$4, %edx
	movl	$150, %ecx
	movl	$1, %r8d
	callq	_KTimestamp2
	movl	$151, %edi
	movl	$2, %edx
	movq	%r15, %rsi
	callq	_KStore
	movw	%bx, -148(%rbp)
	movl	$152, %esi
	movl	$1, %edx
	movq	%r14, %rdi
	callq	_KLoad0
	.loc	4 695 15 is_stmt 1      # gsm_dec.c:695:15
	movzbl	23(%r13), %ebx
	shrl	$5, %ebx
	.loc	4 695 3 is_stmt 0       # gsm_dec.c:695:3
	leaq	-146(%rbp), %r15
	movl	$153, %edi
	movl	$1, %esi
	movl	$5, %edx
	movl	$152, %ecx
	movl	$2, %r8d
	callq	_KTimestamp2
	movl	$153, %edi
	movl	$2, %edx
	movq	%r15, %rsi
	callq	_KStore
	movw	%bx, -146(%rbp)
	movl	$154, %esi
	movl	$1, %edx
	movq	%r14, %rdi
	callq	_KLoad0
	.loc	4 696 15 is_stmt 1      # gsm_dec.c:696:15
	movzbl	23(%r13), %ebx
	shrl	$2, %ebx
	.loc	4 696 13 is_stmt 0      # gsm_dec.c:696:13
	andl	$7, %ebx
	.loc	4 696 3                 # gsm_dec.c:696:3
	leaq	-144(%rbp), %r15
	movl	$155, %edi
	movl	$1, %esi
	movl	$5, %edx
	movl	$154, %ecx
	movl	$2, %r8d
	callq	_KTimestamp2
	movl	$155, %edi
	movl	$2, %edx
	movq	%r15, %rsi
	callq	_KStore
	movw	%bx, -144(%rbp)
	.loc	4 697 16 is_stmt 1      # gsm_dec.c:697:16
	leaq	24(%r13), %r15
.Ltmp743:
	#DEBUG_VALUE: gsm_dec_decode:c <- R15
	movl	$156, %esi
	movl	$1, %edx
	movq	%r14, %rdi
	callq	_KLoad0
	.loc	4 697 15 is_stmt 0      # gsm_dec.c:697:15
	movzbl	23(%r13), %ebx
	.loc	4 697 13                # gsm_dec.c:697:13
	addl	%ebx, %ebx
	andl	$6, %ebx
	.loc	4 697 3                 # gsm_dec.c:697:3
	leaq	-142(%rbp), %r14
	movl	$157, %edi
	movl	$1, %esi
	movl	$5, %edx
	movl	$156, %ecx
	movl	$2, %r8d
	callq	_KTimestamp2
	movl	$157, %edi
	movl	$2, %edx
	movq	%r14, %rsi
	callq	_KStore
	movw	%bx, -142(%rbp)
	movl	$158, %esi
	movl	$1, %edx
	movq	%r15, %rdi
	callq	_KLoad0
	.loc	4 698 16 is_stmt 1      # gsm_dec.c:698:16
	movzbl	24(%r13), %ebx
	shrl	$7, %ebx
	movl	$159, %esi
	movl	$2, %edx
	movq	%r14, %rdi
	callq	_KLoad0
	.loc	4 698 3 is_stmt 0       # gsm_dec.c:698:3
	orw	-142(%rbp), %bx
	movl	$1, (%rsp)
	movl	$160, %edi
	movl	$1, %esi
	movl	$6, %edx
	movl	$158, %ecx
	movl	$3, %r8d
	movl	$159, %r9d
	callq	_KTimestamp3
	movl	$160, %edi
	movl	$2, %edx
	movq	%r14, %rsi
	callq	_KStore
	movw	%bx, -142(%rbp)
	movl	$161, %esi
	movl	$1, %edx
	movq	%r15, %rdi
	callq	_KLoad0
	.loc	4 699 15 is_stmt 1      # gsm_dec.c:699:15
	movzbl	24(%r13), %ebx
	shrl	$4, %ebx
	.loc	4 699 13 is_stmt 0      # gsm_dec.c:699:13
	andl	$7, %ebx
	.loc	4 699 3                 # gsm_dec.c:699:3
	leaq	-140(%rbp), %r14
	movl	$162, %edi
	movl	$1, %esi
	movl	$5, %edx
	movl	$161, %ecx
	movl	$2, %r8d
	callq	_KTimestamp2
	movl	$162, %edi
	movl	$2, %edx
	movq	%r14, %rsi
	callq	_KStore
	movw	%bx, -140(%rbp)
	movl	$163, %esi
	movl	$1, %edx
	movq	%r15, %rdi
	callq	_KLoad0
	.loc	4 700 15 is_stmt 1      # gsm_dec.c:700:15
	movzbl	24(%r13), %ebx
	shrl	%ebx
	.loc	4 700 13 is_stmt 0      # gsm_dec.c:700:13
	andl	$7, %ebx
	.loc	4 700 3                 # gsm_dec.c:700:3
	leaq	-138(%rbp), %r14
	movl	$164, %edi
	movl	$1, %esi
	movl	$5, %edx
	movl	$163, %ecx
	movl	$2, %r8d
	callq	_KTimestamp2
	movl	$164, %edi
	movl	$2, %edx
	movq	%r14, %rsi
	callq	_KStore
	movw	%bx, -138(%rbp)
	.loc	4 701 16 is_stmt 1      # gsm_dec.c:701:16
	leaq	25(%r13), %r12
.Ltmp744:
	#DEBUG_VALUE: gsm_dec_decode:c <- R12
	movl	$165, %esi
	movl	$1, %edx
	movq	%r15, %rdi
	callq	_KLoad0
	.loc	4 701 15 is_stmt 0      # gsm_dec.c:701:15
	movzbl	24(%r13), %ebx
	.loc	4 701 13                # gsm_dec.c:701:13
	shll	$2, %ebx
	andl	$4, %ebx
	.loc	4 701 3                 # gsm_dec.c:701:3
	leaq	-136(%rbp), %r14
	movl	$166, %edi
	movl	$1, %esi
	movl	$5, %edx
	movl	$165, %ecx
	movl	$2, %r8d
	callq	_KTimestamp2
	movl	$166, %edi
	movl	$2, %edx
	movq	%r14, %rsi
	callq	_KStore
	movw	%bx, -136(%rbp)
	movl	$167, %esi
	movl	$1, %edx
	movq	%r12, %rdi
	callq	_KLoad0
	.loc	4 702 16 is_stmt 1      # gsm_dec.c:702:16
	movzbl	25(%r13), %ebx
	shrl	$6, %ebx
	movl	$168, %esi
	movl	$2, %edx
	movq	%r14, %rdi
	callq	_KLoad0
	.loc	4 702 3 is_stmt 0       # gsm_dec.c:702:3
	orw	-136(%rbp), %bx
	movl	$1, (%rsp)
	movl	$169, %edi
	movl	$1, %esi
	movl	$6, %edx
	movl	$167, %ecx
	movl	$3, %r8d
	movl	$168, %r9d
	callq	_KTimestamp3
	movl	$169, %edi
	movl	$2, %edx
	movq	%r14, %rsi
	callq	_KStore
	movw	%bx, -136(%rbp)
	movl	$170, %esi
	movl	$1, %edx
	movq	%r12, %rdi
	callq	_KLoad0
	.loc	4 703 15 is_stmt 1      # gsm_dec.c:703:15
	movzbl	25(%r13), %ebx
	shrl	$3, %ebx
	.loc	4 703 13 is_stmt 0      # gsm_dec.c:703:13
	andl	$7, %ebx
	.loc	4 703 3                 # gsm_dec.c:703:3
	leaq	-134(%rbp), %r14
	movl	$171, %edi
	movl	$1, %esi
	movl	$5, %edx
	movl	$170, %ecx
	movl	$2, %r8d
	callq	_KTimestamp2
	movl	$171, %edi
	movl	$2, %edx
	movq	%r14, %rsi
	callq	_KStore
	movw	%bx, -134(%rbp)
	.loc	4 704 14 is_stmt 1      # gsm_dec.c:704:14
	leaq	26(%r13), %r14
.Ltmp745:
	#DEBUG_VALUE: gsm_dec_decode:c <- R14
	movl	$172, %esi
	movl	$1, %edx
	movq	%r12, %rdi
	callq	_KLoad0
	.loc	4 704 13 is_stmt 0      # gsm_dec.c:704:13
	movzbl	25(%r13), %ebx
	andl	$7, %ebx
	.loc	4 704 3                 # gsm_dec.c:704:3
	leaq	-132(%rbp), %r15
	movl	$173, %edi
	movl	$1, %esi
	movl	$4, %edx
	movl	$172, %ecx
	movl	$1, %r8d
	callq	_KTimestamp2
	movl	$173, %edi
	movl	$2, %edx
	movq	%r15, %rsi
	callq	_KStore
	movw	%bx, -132(%rbp)
	movl	$174, %esi
	movl	$1, %edx
	movq	%r14, %rdi
	callq	_KLoad0
	.loc	4 705 13 is_stmt 1      # gsm_dec.c:705:13
	movzbl	26(%r13), %ebx
	shrl	%ebx
	.loc	4 705 3 is_stmt 0       # gsm_dec.c:705:3
	leaq	-66(%rbp), %r15
	movl	$175, %edi
	movl	$1, %esi
	movl	$5, %edx
	movl	$174, %ecx
	movl	$2, %r8d
	callq	_KTimestamp2
	movl	$175, %edi
	movl	$2, %edx
	movq	%r15, %rsi
	callq	_KStore
	movw	%bx, -66(%rbp)
	.loc	4 706 14 is_stmt 1      # gsm_dec.c:706:14
	leaq	27(%r13), %r12
.Ltmp746:
	#DEBUG_VALUE: gsm_dec_decode:c <- R12
	movl	$176, %esi
	movl	$1, %edx
	movq	%r14, %rdi
	callq	_KLoad0
	.loc	4 706 13 is_stmt 0      # gsm_dec.c:706:13
	movzbl	26(%r13), %ebx
	.loc	4 706 11                # gsm_dec.c:706:11
	addl	%ebx, %ebx
	andl	$2, %ebx
	.loc	4 706 3                 # gsm_dec.c:706:3
	leaq	-82(%rbp), %r14
	movl	$177, %edi
	movl	$1, %esi
	movl	$5, %edx
	movl	$176, %ecx
	movl	$2, %r8d
	callq	_KTimestamp2
	movl	$177, %edi
	movl	$2, %edx
	movq	%r14, %rsi
	callq	_KStore
	movw	%bx, -82(%rbp)
	movl	$178, %esi
	movl	$1, %edx
	movq	%r12, %rdi
	callq	_KLoad0
	.loc	4 707 14 is_stmt 1      # gsm_dec.c:707:14
	movzbl	27(%r13), %ebx
	shrl	$7, %ebx
	movl	$179, %esi
	movl	$2, %edx
	movq	%r14, %rdi
	callq	_KLoad0
	.loc	4 707 3 is_stmt 0       # gsm_dec.c:707:3
	orw	-82(%rbp), %bx
	movl	$1, (%rsp)
	movl	$180, %edi
	movl	$1, %esi
	movl	$6, %edx
	movl	$178, %ecx
	movl	$3, %r8d
	movl	$179, %r9d
	callq	_KTimestamp3
	movl	$180, %edi
	movl	$2, %edx
	movq	%r14, %rsi
	callq	_KStore
	movw	%bx, -82(%rbp)
	movl	$181, %esi
	movl	$1, %edx
	movq	%r12, %rdi
	callq	_KLoad0
	.loc	4 708 13 is_stmt 1      # gsm_dec.c:708:13
	movzbl	27(%r13), %ebx
	shrl	$5, %ebx
	.loc	4 708 11 is_stmt 0      # gsm_dec.c:708:11
	andl	$3, %ebx
	.loc	4 708 3                 # gsm_dec.c:708:3
	leaq	-74(%rbp), %r14
	movl	$182, %edi
	movl	$1, %esi
	movl	$5, %edx
	movl	$181, %ecx
	movl	$2, %r8d
	callq	_KTimestamp2
	movl	$182, %edi
	movl	$2, %edx
	movq	%r14, %rsi
	callq	_KStore
	movw	%bx, -74(%rbp)
	.loc	4 709 17 is_stmt 1      # gsm_dec.c:709:17
	leaq	28(%r13), %r15
.Ltmp747:
	#DEBUG_VALUE: gsm_dec_decode:c <- R15
	movl	$183, %esi
	movl	$1, %edx
	movq	%r12, %rdi
	callq	_KLoad0
	.loc	4 709 16 is_stmt 0      # gsm_dec.c:709:16
	movzbl	27(%r13), %ebx
	.loc	4 709 14                # gsm_dec.c:709:14
	addl	%ebx, %ebx
	andl	$62, %ebx
	.loc	4 709 3                 # gsm_dec.c:709:3
	leaq	-90(%rbp), %r14
	movl	$184, %edi
	movl	$1, %esi
	movl	$5, %edx
	movl	$183, %ecx
	movl	$2, %r8d
	callq	_KTimestamp2
	movl	$184, %edi
	movl	$2, %edx
	movq	%r14, %rsi
	callq	_KStore
	movw	%bx, -90(%rbp)
	movl	$185, %esi
	movl	$1, %edx
	movq	%r15, %rdi
	callq	_KLoad0
	.loc	4 710 17 is_stmt 1      # gsm_dec.c:710:17
	movzbl	28(%r13), %ebx
	shrl	$7, %ebx
	movl	$186, %esi
	movl	$2, %edx
	movq	%r14, %rdi
	callq	_KLoad0
	.loc	4 710 3 is_stmt 0       # gsm_dec.c:710:3
	orw	-90(%rbp), %bx
	movl	$1, (%rsp)
	movl	$187, %edi
	movl	$1, %esi
	movl	$6, %edx
	movl	$185, %ecx
	movl	$3, %r8d
	movl	$186, %r9d
	callq	_KTimestamp3
	movl	$187, %edi
	movl	$2, %edx
	movq	%r14, %rsi
	callq	_KStore
	movw	%bx, -90(%rbp)
	movl	$188, %esi
	movl	$1, %edx
	movq	%r15, %rdi
	callq	_KLoad0
	.loc	4 711 15 is_stmt 1      # gsm_dec.c:711:15
	movzbl	28(%r13), %ebx
	shrl	$4, %ebx
	.loc	4 711 13 is_stmt 0      # gsm_dec.c:711:13
	andl	$7, %ebx
	.loc	4 711 3                 # gsm_dec.c:711:3
	leaq	-130(%rbp), %r14
	movl	$189, %edi
	movl	$1, %esi
	movl	$5, %edx
	movl	$188, %ecx
	movl	$2, %r8d
	callq	_KTimestamp2
	movl	$189, %edi
	movl	$2, %edx
	movq	%r14, %rsi
	callq	_KStore
	movw	%bx, -130(%rbp)
	movl	$190, %esi
	movl	$1, %edx
	movq	%r15, %rdi
	callq	_KLoad0
	.loc	4 712 15 is_stmt 1      # gsm_dec.c:712:15
	movzbl	28(%r13), %ebx
	shrl	%ebx
	.loc	4 712 13 is_stmt 0      # gsm_dec.c:712:13
	andl	$7, %ebx
	.loc	4 712 3                 # gsm_dec.c:712:3
	leaq	-128(%rbp), %r14
	movl	$191, %edi
	movl	$1, %esi
	movl	$5, %edx
	movl	$190, %ecx
	movl	$2, %r8d
	callq	_KTimestamp2
	movl	$191, %edi
	movl	$2, %edx
	movq	%r14, %rsi
	callq	_KStore
	movw	%bx, -128(%rbp)
	.loc	4 713 16 is_stmt 1      # gsm_dec.c:713:16
	leaq	29(%r13), %r12
.Ltmp748:
	#DEBUG_VALUE: gsm_dec_decode:c <- R12
	movl	$192, %esi
	movl	$1, %edx
	movq	%r15, %rdi
	callq	_KLoad0
	.loc	4 713 15 is_stmt 0      # gsm_dec.c:713:15
	movzbl	28(%r13), %ebx
	.loc	4 713 13                # gsm_dec.c:713:13
	shll	$2, %ebx
	andl	$4, %ebx
	.loc	4 713 3                 # gsm_dec.c:713:3
	leaq	-126(%rbp), %r14
	movl	$193, %edi
	movl	$1, %esi
	movl	$5, %edx
	movl	$192, %ecx
	movl	$2, %r8d
	callq	_KTimestamp2
	movl	$193, %edi
	movl	$2, %edx
	movq	%r14, %rsi
	callq	_KStore
	movw	%bx, -126(%rbp)
	movl	$194, %esi
	movl	$1, %edx
	movq	%r12, %rdi
	callq	_KLoad0
	.loc	4 714 16 is_stmt 1      # gsm_dec.c:714:16
	movzbl	29(%r13), %ebx
	shrl	$6, %ebx
	movl	$195, %esi
	movl	$2, %edx
	movq	%r14, %rdi
	callq	_KLoad0
	.loc	4 714 3 is_stmt 0       # gsm_dec.c:714:3
	orw	-126(%rbp), %bx
	movl	$1, (%rsp)
	movl	$196, %edi
	movl	$1, %esi
	movl	$6, %edx
	movl	$194, %ecx
	movl	$3, %r8d
	movl	$195, %r9d
	callq	_KTimestamp3
	movl	$196, %edi
	movl	$2, %edx
	movq	%r14, %rsi
	callq	_KStore
	movw	%bx, -126(%rbp)
	movl	$197, %esi
	movl	$1, %edx
	movq	%r12, %rdi
	callq	_KLoad0
	.loc	4 715 15 is_stmt 1      # gsm_dec.c:715:15
	movzbl	29(%r13), %ebx
	shrl	$3, %ebx
	.loc	4 715 13 is_stmt 0      # gsm_dec.c:715:13
	andl	$7, %ebx
	.loc	4 715 3                 # gsm_dec.c:715:3
	leaq	-124(%rbp), %r14
	movl	$198, %edi
	movl	$1, %esi
	movl	$5, %edx
	movl	$197, %ecx
	movl	$2, %r8d
	callq	_KTimestamp2
	movl	$198, %edi
	movl	$2, %edx
	movq	%r14, %rsi
	callq	_KStore
	movw	%bx, -124(%rbp)
	.loc	4 716 14 is_stmt 1      # gsm_dec.c:716:14
	leaq	30(%r13), %r14
.Ltmp749:
	#DEBUG_VALUE: gsm_dec_decode:c <- R14
	movl	$199, %esi
	movl	$1, %edx
	movq	%r12, %rdi
	callq	_KLoad0
	.loc	4 716 13 is_stmt 0      # gsm_dec.c:716:13
	movzbl	29(%r13), %ebx
	andl	$7, %ebx
	.loc	4 716 3                 # gsm_dec.c:716:3
	leaq	-122(%rbp), %r15
	movl	$200, %edi
	movl	$1, %esi
	movl	$4, %edx
	movl	$199, %ecx
	movl	$1, %r8d
	callq	_KTimestamp2
	movl	$200, %edi
	movl	$2, %edx
	movq	%r15, %rsi
	callq	_KStore
	movw	%bx, -122(%rbp)
	movl	$201, %esi
	movl	$1, %edx
	movq	%r14, %rdi
	callq	_KLoad0
	.loc	4 717 15 is_stmt 1      # gsm_dec.c:717:15
	movzbl	30(%r13), %ebx
	shrl	$5, %ebx
	.loc	4 717 3 is_stmt 0       # gsm_dec.c:717:3
	leaq	-120(%rbp), %r15
	movl	$202, %edi
	movl	$1, %esi
	movl	$5, %edx
	movl	$201, %ecx
	movl	$2, %r8d
	callq	_KTimestamp2
	movl	$202, %edi
	movl	$2, %edx
	movq	%r15, %rsi
	callq	_KStore
	movw	%bx, -120(%rbp)
	movl	$203, %esi
	movl	$1, %edx
	movq	%r14, %rdi
	callq	_KLoad0
	.loc	4 718 15 is_stmt 1      # gsm_dec.c:718:15
	movzbl	30(%r13), %ebx
	shrl	$2, %ebx
	.loc	4 718 13 is_stmt 0      # gsm_dec.c:718:13
	andl	$7, %ebx
	.loc	4 718 3                 # gsm_dec.c:718:3
	leaq	-118(%rbp), %r15
	movl	$204, %edi
	movl	$1, %esi
	movl	$5, %edx
	movl	$203, %ecx
	movl	$2, %r8d
	callq	_KTimestamp2
	movl	$204, %edi
	movl	$2, %edx
	movq	%r15, %rsi
	callq	_KStore
	movw	%bx, -118(%rbp)
	.loc	4 719 16 is_stmt 1      # gsm_dec.c:719:16
	leaq	31(%r13), %r15
.Ltmp750:
	#DEBUG_VALUE: gsm_dec_decode:c <- R15
	movl	$205, %esi
	movl	$1, %edx
	movq	%r14, %rdi
	callq	_KLoad0
	.loc	4 719 15 is_stmt 0      # gsm_dec.c:719:15
	movzbl	30(%r13), %ebx
	.loc	4 719 13                # gsm_dec.c:719:13
	addl	%ebx, %ebx
	andl	$6, %ebx
	.loc	4 719 3                 # gsm_dec.c:719:3
	leaq	-116(%rbp), %r14
	movl	$206, %edi
	movl	$1, %esi
	movl	$5, %edx
	movl	$205, %ecx
	movl	$2, %r8d
	callq	_KTimestamp2
	movl	$206, %edi
	movl	$2, %edx
	movq	%r14, %rsi
	callq	_KStore
	movw	%bx, -116(%rbp)
	movl	$207, %esi
	movl	$1, %edx
	movq	%r15, %rdi
	callq	_KLoad0
	.loc	4 720 16 is_stmt 1      # gsm_dec.c:720:16
	movzbl	31(%r13), %ebx
	shrl	$7, %ebx
	movl	$208, %esi
	movl	$2, %edx
	movq	%r14, %rdi
	callq	_KLoad0
	.loc	4 720 3 is_stmt 0       # gsm_dec.c:720:3
	orw	-116(%rbp), %bx
	movl	$1, (%rsp)
	movl	$209, %edi
	movl	$1, %esi
	movl	$6, %edx
	movl	$207, %ecx
	movl	$3, %r8d
	movl	$208, %r9d
	callq	_KTimestamp3
	movl	$209, %edi
	movl	$2, %edx
	movq	%r14, %rsi
	callq	_KStore
	movw	%bx, -116(%rbp)
	movl	$210, %esi
	movl	$1, %edx
	movq	%r15, %rdi
	callq	_KLoad0
	.loc	4 721 15 is_stmt 1      # gsm_dec.c:721:15
	movzbl	31(%r13), %ebx
	shrl	$4, %ebx
	.loc	4 721 13 is_stmt 0      # gsm_dec.c:721:13
	andl	$7, %ebx
	.loc	4 721 3                 # gsm_dec.c:721:3
	leaq	-114(%rbp), %r14
	movl	$211, %edi
	movl	$1, %esi
	movl	$5, %edx
	movl	$210, %ecx
	movl	$2, %r8d
	callq	_KTimestamp2
	movl	$211, %edi
	movl	$2, %edx
	movq	%r14, %rsi
	callq	_KStore
	movw	%bx, -114(%rbp)
	movl	$212, %esi
	movl	$1, %edx
	movq	%r15, %rdi
	callq	_KLoad0
	.loc	4 722 15 is_stmt 1      # gsm_dec.c:722:15
	movzbl	31(%r13), %ebx
	shrl	%ebx
	.loc	4 722 13 is_stmt 0      # gsm_dec.c:722:13
	andl	$7, %ebx
	.loc	4 722 3                 # gsm_dec.c:722:3
	leaq	-112(%rbp), %r14
	movl	$213, %edi
	movl	$1, %esi
	movl	$5, %edx
	movl	$212, %ecx
	movl	$2, %r8d
	callq	_KTimestamp2
	movl	$213, %edi
	movl	$2, %edx
	movq	%r14, %rsi
	callq	_KStore
	movw	%bx, -112(%rbp)
	.loc	4 723 16 is_stmt 1      # gsm_dec.c:723:16
	leaq	32(%r13), %r12
.Ltmp751:
	#DEBUG_VALUE: gsm_dec_decode:c <- R12
	movl	$214, %esi
	movl	$1, %edx
	movq	%r15, %rdi
	xorl	%r15d, %r15d
