	.text
	.file	"mpeg2.simplifycfg.mem2reg.indvars.elimsinglephis.criticalpath.regioninstrument.renamemain.O3.bc"
	.text
	.globl	mpeg2_init
	.align	16, 0x90
	.type	mpeg2_init,@function
mpeg2_init:                             # @mpeg2_init
.Lfunc_begin0:
	.loc	1 11398 0               # mpeg2.c:11398:0
	.cfi_startproc
# BB#0:                                 # %entry
	pushq	%rbp
.Ltmp0:
	.cfi_def_cfa_offset 16
.Ltmp1:
	.cfi_offset %rbp, -16
	movq	%rsp, %rbp
.Ltmp2:
	.cfi_def_cfa_register %rbp
	pushq	%r15
	pushq	%r14
	pushq	%r13
	pushq	%r12
	pushq	%rbx
	subq	$24, %rsp
.Ltmp3:
	.cfi_offset %rbx, -56
.Ltmp4:
	.cfi_offset %r12, -48
.Ltmp5:
	.cfi_offset %r13, -40
.Ltmp6:
	.cfi_offset %r14, -32
.Ltmp7:
	.cfi_offset %r15, -24
	movabsq	$-5702745166061592946, %rbx # imm = 0xB0DBC77C64529E8E
	movabsq	$-7569689508064162907, %rdi # imm = 0x96F30F7F93D58BA5
	xorl	%r12d, %r12d
	xorl	%esi, %esi
	callq	_KEnterRegion
	movl	$8, %edi
	movl	$2, %esi
	callq	_KPrepRTable
	movl	$1, %edi
	callq	_KWork
	leaq	-41(%rbp), %rdi
	movl	$1, %esi
	callq	_KStoreConst
.Ltmp8:
	#DEBUG_VALUE: mpeg2_init:bitmask <- 0
	.loc	1 11401 17 prologue_end # mpeg2.c:11401:17
	movb	$0, -41(%rbp)
.Ltmp9:
	#DEBUG_VALUE: mpeg2_init:i <- 0
	movl	$5, %edi
	callq	_KInduction
	movl	$1, %esi
	movq	%rbx, %rdi
	callq	_KEnterRegion
	movabsq	$3368510461893819358, %r13 # imm = 0x2EBF5A6AFF5E3BDE
	xorl	%ebx, %ebx
	xorl	%r15d, %r15d
	jmp	.LBB0_1
	.align	16, 0x90
.LBB0_2:                                # %for.body
                                        #   in Loop: Header=BB0_1 Depth=1
	#DEBUG_VALUE: mpeg2_init:bitmask <- 0
	#DEBUG_VALUE: mpeg2_init:i <- 0
	leaq	mpeg2_oldorgframe(%r12), %r14
	movl	$2, %esi
	movq	%r13, %rdi
	callq	_KEnterRegion
	movl	$4, %r15d
	movl	$4, %edi
	callq	_KPushCDep
.Ltmp10:
	#DEBUG_VALUE: mpeg2_init:bitmask <- undef
	movl	$1, %esi
	movl	$1, %edx
	leaq	-41(%rbp), %rdi
	callq	_KLoad0
	movl	$10, %edi
	callq	_KWork
	.loc	1 11409 11              # mpeg2.c:11409:11
.Ltmp11:
	movb	-41(%rbp), %bl
	movl	$2, %esi
	movl	$1, %edx
	movq	%r14, %rdi
	callq	_KLoad0
	.loc	1 11409 5 is_stmt 0     # mpeg2.c:11409:5
	xorb	mpeg2_oldorgframe(%r12), %bl
	movl	$1, (%rsp)
	movl	$3, %edi
	movl	$2, %esi
	movl	$1, %edx
	movl	$4, %ecx
	movl	$1, %r8d
	movl	$1, %r9d
	callq	_KTimestamp3
	movl	$3, %edi
	movl	$1, %edx
	movq	%r14, %rsi
	callq	_KStore
	movb	%bl, mpeg2_oldorgframe(%r12)
	movl	$7, %ebx
	movl	$7, %edi
	movl	$6, %esi
	xorl	%edx, %edx
	movl	$4, %ecx
	xorl	%r8d, %r8d
	callq	_KTimestamp2
	callq	_KPopCDep
	movl	$2, %esi
	movq	%r13, %rdi
	callq	_KExitRegion
	incq	%r12
.Ltmp12:
.LBB0_1:                                # %for.cond
                                        # =>This Inner Loop Header: Depth=1
	#DEBUG_VALUE: mpeg2_init:bitmask <- 0
	#DEBUG_VALUE: mpeg2_init:i <- 0
	movl	$6, %edi
	movl	%ebx, %esi
	movl	%r15d, %edx
	callq	_KPhi1To1
	movl	$1, %edi
	callq	_KWork
	movl	$4, %edi
	movl	$5, %esi
	movl	$1, %edx
	callq	_KTimestamp1
	movl	$6, %edi
	movl	$4, %esi
	callq	_KPhiAddCond
	movl	$6, %edi
	movl	$6, %esi
	xorl	%edx, %edx
	callq	_KTimestamp1
	.loc	1 11408 3 is_stmt 1     # mpeg2.c:11408:3
	cmpq	$90112, %r12            # imm = 0x16000
	jne	.LBB0_2
.Ltmp13:
# BB#3:                                 # %for.cond.pre_exit.for.end
	#DEBUG_VALUE: mpeg2_init:bitmask <- 0
	#DEBUG_VALUE: mpeg2_init:i <- 0
	movl	$1, %esi
	movabsq	$-5702745166061592946, %rdi # imm = 0xB0DBC77C64529E8E
	callq	_KExitRegion
	xorl	%esi, %esi
	movabsq	$-7569689508064162907, %rdi # imm = 0x96F30F7F93D58BA5
	callq	_KExitRegion
	.loc	1 11410 1               # mpeg2.c:11410:1
	addq	$24, %rsp
	popq	%rbx
	popq	%r12
	popq	%r13
	popq	%r14
	popq	%r15
	popq	%rbp
	retq
.Ltmp14:
.Ltmp15:
	.size	mpeg2_init, .Ltmp15-mpeg2_init
.Lfunc_end0:
	.cfi_endproc

	.globl	mpeg2_return
	.align	16, 0x90
	.type	mpeg2_return,@function
mpeg2_return:                           # @mpeg2_return
.Lfunc_begin1:
	.loc	1 11414 0               # mpeg2.c:11414:0
	.cfi_startproc
# BB#0:                                 # %entry
	pushq	%rbp
.Ltmp16:
	.cfi_def_cfa_offset 16
.Ltmp17:
	.cfi_offset %rbp, -16
	movq	%rsp, %rbp
.Ltmp18:
	.cfi_def_cfa_register %rbp
	pushq	%r15
	pushq	%r14
	pushq	%r13
	pushq	%r12
	pushq	%rbx
	subq	$72, %rsp
.Ltmp19:
	.cfi_offset %rbx, -56
.Ltmp20:
	.cfi_offset %r12, -48
.Ltmp21:
	.cfi_offset %r13, -40
.Ltmp22:
	.cfi_offset %r14, -32
.Ltmp23:
	.cfi_offset %r15, -24
	movabsq	$-1101598785733668316, %rdi # imm = 0xF0B655BDAB57D224
	movabsq	$6472856993737291903, %rbx # imm = 0x59D43524219D387F
	xorl	%r14d, %r14d
	xorl	%esi, %esi
	callq	_KEnterRegion
	movl	$15, %edi
	movl	$8, %esi
	callq	_KPrepRTable
.Ltmp24:
	#DEBUG_VALUE: mpeg2_return:i <- 0
	#DEBUG_VALUE: mpeg2_return:checksum <- 0
	movl	$3, %edi
	callq	_KInduction
	movl	$1, %esi
	movq	%rbx, %rdi
	callq	_KEnterRegion
	movl	$mpeg2_mbinfo+24, %r12d
	movabsq	$-1017157049519880014, %r13 # imm = 0xF1E2550D769548B2
	movabsq	$-4500622523904332760, %rbx # imm = 0xC18A93A8EA8F6C28
	xorl	%r15d, %r15d
	xorl	%esi, %esi
	xorl	%eax, %eax
	movq	%rax, -48(%rbp)         # 8-byte Spill
	jmp	.LBB1_1
	.align	16, 0x90
.LBB1_11:                               # %for.cond1.pre_exit.for.inc22
                                        #   in Loop: Header=BB1_1 Depth=1
	#DEBUG_VALUE: mpeg2_return:checksum <- 0
	#DEBUG_VALUE: mpeg2_return:i <- 0
.Ltmp25:
	#DEBUG_VALUE: mpeg2_return:j <- 0
	movl	$1, %esi
	movabsq	$-8441825863663123931, %rdi # imm = 0x8AD89C1A8CA78225
	callq	_KExitRegion
	movl	$5, %r15d
	movl	$5, %edi
	callq	_KPushCDep
	movq	-88(%rbp), %r14         # 8-byte Reload
	.loc	1 11420 3 prologue_end  # mpeg2.c:11420:3
.Ltmp26:
	incq	%r14
	callq	_KPopCDep
	movl	$2, %esi
	movabsq	$3992197872242929449, %rdi # imm = 0x376722D0301C2F29
	callq	_KExitRegion
	movq	-96(%rbp), %r12         # 8-byte Reload
	addq	$96, %r12
	movl	$4, %esi
.Ltmp27:
.LBB1_1:                                # %for.cond
                                        # =>This Loop Header: Depth=1
                                        #     Child Loop BB1_3 Depth 2
                                        #       Child Loop BB1_5 Depth 3
                                        #         Child Loop BB1_7 Depth 4
	#DEBUG_VALUE: mpeg2_return:checksum <- 0
	#DEBUG_VALUE: mpeg2_return:i <- 0
	movl	$2, %edi
                                        # kill: ESI<def> ESI<kill> RSI<kill>
	movl	%r15d, %edx
	callq	_KPhi1To1
	movl	$1, %edi
	callq	_KWork
	movl	$2, %edi
	movl	$2, %esi
	xorl	%edx, %edx
	callq	_KTimestamp1
	movl	$5, %edi
	movl	$3, %esi
	movl	$1, %edx
	callq	_KTimestamp1
	movl	$2, %edi
	movl	$5, %esi
	callq	_KPhiAddCond
	.loc	1 11420 3 is_stmt 0     # mpeg2.c:11420:3
	cmpq	$352, %r14              # imm = 0x160
	je	.LBB1_12
# BB#2:                                 # %for.body
                                        #   in Loop: Header=BB1_1 Depth=1
	#DEBUG_VALUE: mpeg2_return:checksum <- 0
	#DEBUG_VALUE: mpeg2_return:i <- 0
	movq	%r14, -88(%rbp)         # 8-byte Spill
	movl	$2, %r15d
	movl	$2, %esi
	movabsq	$3992197872242929449, %rdi # imm = 0x376722D0301C2F29
	callq	_KEnterRegion
	movl	$5, %edi
	callq	_KPushCDep
	#DEBUG_VALUE: mpeg2_return:j <- 0
	movl	$6, %edi
	callq	_KInduction
	callq	_KPopCDep
	movl	$1, %esi
	movabsq	$-8441825863663123931, %rdi # imm = 0x8AD89C1A8CA78225
	callq	_KEnterRegion
	xorl	%r14d, %r14d
	movq	%r12, -72(%rbp)         # 8-byte Spill
	movq	%r12, -96(%rbp)         # 8-byte Spill
	xorl	%r12d, %r12d
	jmp	.LBB1_3
	.align	16, 0x90
.LBB1_10:                               # %for.cond4.pre_exit.for.inc19
                                        #   in Loop: Header=BB1_3 Depth=2
	#DEBUG_VALUE: mpeg2_return:checksum <- 0
	#DEBUG_VALUE: mpeg2_return:i <- 0
	#DEBUG_VALUE: mpeg2_return:j <- 0
.Ltmp28:
	#DEBUG_VALUE: mpeg2_return:k <- 0
	movl	$1, %esi
	movabsq	$2242847690384235724, %rdi # imm = 0x1F2032175EA85CCC
	callq	_KExitRegion
	movl	$8, %r12d
	movl	$8, %edi
	callq	_KPushCDep
	movq	-80(%rbp), %r14         # 8-byte Reload
	.loc	1 11423 5 is_stmt 1     # mpeg2.c:11423:5
.Ltmp29:
	incq	%r14
	callq	_KPopCDep
	movl	$2, %esi
	movabsq	$-421784225250815874, %rdi # imm = 0xFA25857B5A0FD07E
	callq	_KExitRegion
	addq	$16, -72(%rbp)          # 8-byte Folded Spill
	movl	$7, %r15d
.Ltmp30:
.LBB1_3:                                # %for.cond1
                                        #   Parent Loop BB1_1 Depth=1
                                        # =>  This Loop Header: Depth=2
                                        #       Child Loop BB1_5 Depth 3
                                        #         Child Loop BB1_7 Depth 4
	#DEBUG_VALUE: mpeg2_return:checksum <- 0
	#DEBUG_VALUE: mpeg2_return:i <- 0
	#DEBUG_VALUE: mpeg2_return:j <- 0
	movl	$5, %edi
	callq	_KPushCDep
	movl	$4, %edi
	movl	$5, %ecx
	movl	%r15d, %esi
	movl	%r12d, %edx
	callq	_KPhi2To1
	movl	$1, %edi
	callq	_KWork
	movl	$8, %edi
	movl	$5, %esi
	movl	$1, %edx
	movl	$6, %ecx
	movl	$1, %r8d
	callq	_KTimestamp2
	movl	$4, %edi
	movl	$8, %esi
	callq	_KPhiAddCond
	movl	$4, %edi
	movl	$4, %esi
	xorl	%edx, %edx
	callq	_KTimestamp1
	callq	_KPopCDep
	.loc	1 11423 5 is_stmt 0     # mpeg2.c:11423:5
	cmpq	$2, %r14
	je	.LBB1_11
# BB#4:                                 # %for.body3
                                        #   in Loop: Header=BB1_3 Depth=2
	#DEBUG_VALUE: mpeg2_return:checksum <- 0
	#DEBUG_VALUE: mpeg2_return:i <- 0
	#DEBUG_VALUE: mpeg2_return:j <- 0
	movq	%r14, -80(%rbp)         # 8-byte Spill
	movl	$2, %esi
	movabsq	$-421784225250815874, %rdi # imm = 0xFA25857B5A0FD07E
	callq	_KEnterRegion
	movl	$8, %edi
	callq	_KPushCDep
	#DEBUG_VALUE: mpeg2_return:k <- 0
	movl	$9, %edi
	callq	_KInduction
	callq	_KPopCDep
	movl	$1, %esi
	movabsq	$2242847690384235724, %rdi # imm = 0x1F2032175EA85CCC
	callq	_KEnterRegion
	movl	$4, %r12d
	xorl	%r14d, %r14d
	movq	-72(%rbp), %rax         # 8-byte Reload
	movq	%rax, -56(%rbp)         # 8-byte Spill
	xorl	%r15d, %r15d
	jmp	.LBB1_5
	.align	16, 0x90
.LBB1_9:                                # %for.cond7.pre_exit.for.inc16
                                        #   in Loop: Header=BB1_5 Depth=3
	#DEBUG_VALUE: mpeg2_return:checksum <- 0
	#DEBUG_VALUE: mpeg2_return:i <- 0
	#DEBUG_VALUE: mpeg2_return:j <- 0
	#DEBUG_VALUE: mpeg2_return:k <- 0
.Ltmp31:
	#DEBUG_VALUE: mpeg2_return:l <- 0
	movl	$1, %esi
	movabsq	$-1017157049519880014, %r13 # imm = 0xF1E2550D769548B2
	movq	%r13, %rdi
	callq	_KExitRegion
	movl	$11, %r15d
	movl	$11, %edi
	callq	_KPushCDep
	movq	-64(%rbp), %r14         # 8-byte Reload
	.loc	1 11426 7 is_stmt 1     # mpeg2.c:11426:7
.Ltmp32:
	incq	%r14
	callq	_KPopCDep
	movl	$2, %esi
	movabsq	$8724535290297037380, %rdi # imm = 0x7913C69F3883B244
	callq	_KExitRegion
	addq	$8, -56(%rbp)           # 8-byte Folded Spill
	movl	$10, %r12d
.Ltmp33:
.LBB1_5:                                # %for.cond4
                                        #   Parent Loop BB1_1 Depth=1
                                        #     Parent Loop BB1_3 Depth=2
                                        # =>    This Loop Header: Depth=3
                                        #         Child Loop BB1_7 Depth 4
	#DEBUG_VALUE: mpeg2_return:checksum <- 0
	#DEBUG_VALUE: mpeg2_return:i <- 0
	#DEBUG_VALUE: mpeg2_return:j <- 0
	#DEBUG_VALUE: mpeg2_return:k <- 0
	movl	$8, %edi
	callq	_KPushCDep
	movl	$7, %edi
	movl	$8, %ecx
	movl	%r12d, %esi
	movl	%r15d, %edx
	callq	_KPhi2To1
	movl	$1, %edi
	callq	_KWork
	movl	$11, %edi
	movl	$8, %esi
	movl	$1, %edx
	movl	$9, %ecx
	movl	$1, %r8d
	callq	_KTimestamp2
	movl	$7, %edi
	movl	$11, %esi
	callq	_KPhiAddCond
	movl	$7, %edi
	movl	$7, %esi
	xorl	%edx, %edx
	callq	_KTimestamp1
	callq	_KPopCDep
	.loc	1 11426 7 is_stmt 0     # mpeg2.c:11426:7
	cmpq	$2, %r14
	je	.LBB1_10
# BB#6:                                 # %for.body6
                                        #   in Loop: Header=BB1_5 Depth=3
	#DEBUG_VALUE: mpeg2_return:checksum <- 0
	#DEBUG_VALUE: mpeg2_return:i <- 0
	#DEBUG_VALUE: mpeg2_return:j <- 0
	#DEBUG_VALUE: mpeg2_return:k <- 0
	movq	%r14, -64(%rbp)         # 8-byte Spill
	movl	$2, %esi
	movabsq	$8724535290297037380, %rdi # imm = 0x7913C69F3883B244
	callq	_KEnterRegion
	movl	$11, %edi
	callq	_KPushCDep
	#DEBUG_VALUE: mpeg2_return:l <- 0
	movl	$12, %edi
	callq	_KInduction
	callq	_KPopCDep
	movl	$1, %esi
	movq	%r13, %rdi
	callq	_KEnterRegion
	xorl	%r12d, %r12d
	movl	$7, %r13d
	movl	$2, %r14d
	movq	-56(%rbp), %r15         # 8-byte Reload
	jmp	.LBB1_7
	.align	16, 0x90
.LBB1_8:                                # %for.body9
                                        #   in Loop: Header=BB1_7 Depth=4
	#DEBUG_VALUE: mpeg2_return:checksum <- 0
	#DEBUG_VALUE: mpeg2_return:i <- 0
	#DEBUG_VALUE: mpeg2_return:j <- 0
	#DEBUG_VALUE: mpeg2_return:k <- 0
	#DEBUG_VALUE: mpeg2_return:l <- 0
	movl	$2, %esi
	movq	%rbx, %rdi
	callq	_KEnterRegion
	movl	$14, %r12d
	movl	$14, %edi
	callq	_KPushCDep
	movl	$5, %edi
	callq	_KWork
	movl	$1, %esi
	movl	$4, %edx
	movq	%r15, %rdi
	callq	_KLoad0
	.loc	1 11430 11 is_stmt 1    # mpeg2.c:11430:11
.Ltmp34:
	movq	-48(%rbp), %rax         # 8-byte Reload
	addl	(%r15), %eax
.Ltmp35:
	#DEBUG_VALUE: mpeg2_return:checksum <- [RBP+-48]
	movq	%rax, -48(%rbp)         # 8-byte Spill
	movl	$1, (%rsp)
	movl	$13, %r13d
	movl	$13, %edi
	movl	$10, %esi
	movl	$1, %edx
	movl	$14, %ecx
	movl	$1, %r8d
	movl	$1, %r9d
	callq	_KTimestamp3
	callq	_KPopCDep
	movl	$2, %esi
	movq	%rbx, %rdi
	callq	_KExitRegion
	addq	$4, %r15
	decq	%r14
.Ltmp36:
.LBB1_7:                                # %for.cond7
                                        #   Parent Loop BB1_1 Depth=1
                                        #     Parent Loop BB1_3 Depth=2
                                        #       Parent Loop BB1_5 Depth=3
                                        # =>      This Inner Loop Header: Depth=4
	#DEBUG_VALUE: mpeg2_return:checksum <- 0
	#DEBUG_VALUE: mpeg2_return:i <- 0
	#DEBUG_VALUE: mpeg2_return:j <- 0
	#DEBUG_VALUE: mpeg2_return:k <- 0
	#DEBUG_VALUE: mpeg2_return:l <- 0
	movl	$11, %edi
	callq	_KPushCDep
	movl	$10, %edi
	movl	$11, %ecx
	movl	%r13d, %esi
	movl	%r12d, %edx
	callq	_KPhi2To1
	movl	$1, %edi
	callq	_KWork
	movl	$14, %edi
	movl	$12, %esi
	movl	$1, %edx
	movl	$11, %ecx
	movl	$1, %r8d
	callq	_KTimestamp2
	movl	$10, %edi
	movl	$14, %esi
	callq	_KPhiAddCond
	movl	$10, %edi
	movl	$10, %esi
	xorl	%edx, %edx
	callq	_KTimestamp1
	callq	_KPopCDep
	.loc	1 11429 9               # mpeg2.c:11429:9
	testq	%r14, %r14
	jne	.LBB1_8
	jmp	.LBB1_9
.Ltmp37:
.LBB1_12:                               # %for.cond.pre_exit.for.end24
	#DEBUG_VALUE: mpeg2_return:checksum <- 0
	#DEBUG_VALUE: mpeg2_return:i <- 0
	movl	$1, %esi
	movabsq	$6472856993737291903, %rdi # imm = 0x59D43524219D387F
	callq	_KExitRegion
	movl	$2, %edi
	callq	_KReturn
	xorl	%esi, %esi
	movabsq	$-1101598785733668316, %rdi # imm = 0xF0B655BDAB57D224
	callq	_KExitRegion
	.loc	1 11435 3               # mpeg2.c:11435:3
	movq	-48(%rbp), %rax         # 8-byte Reload
                                        # kill: EAX<def> EAX<kill> RAX<kill>
	addq	$72, %rsp
	popq	%rbx
	popq	%r12
	popq	%r13
	popq	%r14
	popq	%r15
	popq	%rbp
	retq
.Ltmp38:
.Ltmp39:
	.size	mpeg2_return, .Ltmp39-mpeg2_return
.Lfunc_end1:
	.cfi_endproc

	.globl	mpeg2_motion_estimation
	.align	16, 0x90
	.type	mpeg2_motion_estimation,@function
mpeg2_motion_estimation:                # @mpeg2_motion_estimation
.Lfunc_begin2:
	.loc	1 11469 0               # mpeg2.c:11469:0
	.cfi_startproc
# BB#0:                                 # %entry
	pushq	%rbp
.Ltmp40:
	.cfi_def_cfa_offset 16
.Ltmp41:
	.cfi_offset %rbp, -16
	movq	%rsp, %rbp
.Ltmp42:
	.cfi_def_cfa_register %rbp
	pushq	%r15
	pushq	%r14
	pushq	%r13
	pushq	%r12
	pushq	%rbx
	subq	$136, %rsp
.Ltmp43:
	.cfi_offset %rbx, -56
.Ltmp44:
	.cfi_offset %r12, -48
.Ltmp45:
	.cfi_offset %r13, -40
.Ltmp46:
	.cfi_offset %r14, -32
.Ltmp47:
	.cfi_offset %r15, -24
	#DEBUG_VALUE: mpeg2_motion_estimation:oldorg <- RDI
	#DEBUG_VALUE: mpeg2_motion_estimation:neworg <- RSI
	#DEBUG_VALUE: mpeg2_motion_estimation:oldref <- RDX
	#DEBUG_VALUE: mpeg2_motion_estimation:newref <- RCX
	#DEBUG_VALUE: mpeg2_motion_estimation:cur <- R8
	#DEBUG_VALUE: mpeg2_motion_estimation:curref <- R9
	movq	%r9, -96(%rbp)          # 8-byte Spill
.Ltmp48:
	#DEBUG_VALUE: mpeg2_motion_estimation:curref <- [RBP+-96]
	movq	%r8, -56(%rbp)          # 8-byte Spill
.Ltmp49:
	#DEBUG_VALUE: mpeg2_motion_estimation:cur <- [RBP+-56]
	movq	%rcx, -64(%rbp)         # 8-byte Spill
.Ltmp50:
	#DEBUG_VALUE: mpeg2_motion_estimation:newref <- [RBP+-64]
	movq	%rdx, -72(%rbp)         # 8-byte Spill
.Ltmp51:
	#DEBUG_VALUE: mpeg2_motion_estimation:oldref <- [RBP+-72]
	movq	%rsi, -80(%rbp)         # 8-byte Spill
.Ltmp52:
	#DEBUG_VALUE: mpeg2_motion_estimation:neworg <- [RBP+-80]
	movq	%rdi, -88(%rbp)         # 8-byte Spill
	#DEBUG_VALUE: mpeg2_motion_estimation:secondfield <- undef
	#DEBUG_VALUE: mpeg2_motion_estimation:ipflag <- undef
.Ltmp53:
	#DEBUG_VALUE: mpeg2_motion_estimation:oldorg <- [RBP+-88]
	movq	48(%rbp), %r15
	#DEBUG_VALUE: mpeg2_motion_estimation:sxf <- undef
	#DEBUG_VALUE: mpeg2_motion_estimation:syf <- undef
	#DEBUG_VALUE: mpeg2_motion_estimation:sxb <- undef
	#DEBUG_VALUE: mpeg2_motion_estimation:syb <- undef
	#DEBUG_VALUE: mpeg2_motion_estimation:mbi <- R15
	movabsq	$-1652462506010620757, %rdi # imm = 0xE911461B1C95CCAB
	movabsq	$-8725380592126679062, %rbx # imm = 0x86E938949C33A7EA
	xorl	%eax, %eax
	movq	%rax, -104(%rbp)        # 8-byte Spill
	xorl	%esi, %esi
	callq	_KEnterRegion
	movl	$21, %edi
	movl	$4, %esi
	callq	_KPrepRTable
	movl	$6, %edi
	callq	_KDeqArg
	movl	$5, %edi
	callq	_KDeqArg
	movl	$4, %edi
	callq	_KDeqArg
	movl	$3, %edi
	callq	_KDeqArg
	movl	$2, %edi
	callq	_KDeqArg
	movl	$1, %edi
	callq	_KDeqArg
.Ltmp54:
	#DEBUG_VALUE: mpeg2_motion_estimation:j <- 0
	movl	$13, %r14d
	movl	$13, %edi
	movl	$13, %esi
	xorl	%edx, %edx
	callq	_KTimestamp1
	movl	$1, %esi
	movq	%rbx, %rdi
	callq	_KEnterRegion
	movabsq	$7670812385686393605, %r13 # imm = 0x6A7433391B811305
	xorl	%ebx, %ebx
	xorl	%r12d, %r12d
	jmp	.LBB2_1
.Ltmp55:
	.align	16, 0x90
.LBB2_8:                                # %for.cond1.pre_exit.for.inc5
                                        #   in Loop: Header=BB2_1 Depth=1
	#DEBUG_VALUE: mpeg2_motion_estimation:oldorg <- [RBP+-88]
	#DEBUG_VALUE: mpeg2_motion_estimation:neworg <- [RBP+-80]
	#DEBUG_VALUE: mpeg2_motion_estimation:oldref <- [RBP+-72]
	#DEBUG_VALUE: mpeg2_motion_estimation:newref <- [RBP+-64]
	#DEBUG_VALUE: mpeg2_motion_estimation:cur <- [RBP+-56]
	#DEBUG_VALUE: mpeg2_motion_estimation:curref <- [RBP+-96]
	#DEBUG_VALUE: mpeg2_motion_estimation:ipflag <- undef
	#DEBUG_VALUE: mpeg2_motion_estimation:secondfield <- undef
	#DEBUG_VALUE: mpeg2_motion_estimation:syb <- undef
	#DEBUG_VALUE: mpeg2_motion_estimation:sxb <- undef
	#DEBUG_VALUE: mpeg2_motion_estimation:syf <- undef
	#DEBUG_VALUE: mpeg2_motion_estimation:sxf <- undef
	#DEBUG_VALUE: mpeg2_motion_estimation:j <- 0
	#DEBUG_VALUE: mpeg2_motion_estimation:i <- 0
	movl	$1, %esi
	movabsq	$7670812385686393605, %r13 # imm = 0x6A7433391B811305
	movq	%r13, %rdi
	callq	_KExitRegion
	movl	$15, %eax
	movq	%rax, -104(%rbp)        # 8-byte Spill
	movl	$15, %edi
	callq	_KPushCDep
	movl	$1, %edi
	callq	_KWork
	movq	-48(%rbp), %r12         # 8-byte Reload
	.loc	1 11475 35 prologue_end # mpeg2.c:11475:35
.Ltmp56:
	addl	$16, %r12d
.Ltmp57:
	#DEBUG_VALUE: mpeg2_motion_estimation:j <- R12D
	movl	$16, %ebx
	movl	$16, %edi
	movl	$15, %esi
	movl	$1, %edx
	movl	$11, %ecx
	movl	$1, %r8d
	callq	_KTimestamp2
	callq	_KPopCDep
	movl	$2, %esi
	movabsq	$1972534619437107704, %rdi # imm = 0x1B5FD9C912B589F8
	callq	_KExitRegion
	movl	$14, %r14d
.Ltmp58:
.LBB2_1:                                # %for.cond
                                        # =>This Loop Header: Depth=1
                                        #     Child Loop BB2_3 Depth 2
	#DEBUG_VALUE: mpeg2_motion_estimation:oldorg <- [RBP+-88]
	#DEBUG_VALUE: mpeg2_motion_estimation:neworg <- [RBP+-80]
	#DEBUG_VALUE: mpeg2_motion_estimation:oldref <- [RBP+-72]
	#DEBUG_VALUE: mpeg2_motion_estimation:newref <- [RBP+-64]
	#DEBUG_VALUE: mpeg2_motion_estimation:cur <- [RBP+-56]
	#DEBUG_VALUE: mpeg2_motion_estimation:curref <- [RBP+-96]
	#DEBUG_VALUE: mpeg2_motion_estimation:ipflag <- undef
	#DEBUG_VALUE: mpeg2_motion_estimation:secondfield <- undef
	#DEBUG_VALUE: mpeg2_motion_estimation:syb <- undef
	#DEBUG_VALUE: mpeg2_motion_estimation:sxb <- undef
	#DEBUG_VALUE: mpeg2_motion_estimation:syf <- undef
	#DEBUG_VALUE: mpeg2_motion_estimation:sxf <- undef
	#DEBUG_VALUE: mpeg2_motion_estimation:j <- 0
	movl	$11, %edi
	movl	%ebx, %esi
	movq	-104(%rbp), %rbx        # 8-byte Reload
	movl	%ebx, %edx
	callq	_KPhi1To1
	movl	$12, %edi
	movl	%r14d, %esi
	movl	%ebx, %edx
	callq	_KPhi1To1
	movl	$5, %edi
	callq	_KWork
	movl	$mpeg2_height2, %edi
	movl	$7, %esi
	movl	$4, %edx
	callq	_KLoad0
	.loc	1 11475 3 is_stmt 0     # mpeg2.c:11475:3
	movl	mpeg2_height2(%rip), %ebx
	movl	$11, %edi
	movl	$11, %esi
	xorl	%edx, %edx
	callq	_KTimestamp1
	movl	$15, %edi
	movl	$7, %esi
	movl	$1, %edx
	movl	$11, %ecx
	movl	$1, %r8d
	callq	_KTimestamp2
	movl	$12, %edi
	movl	$15, %esi
	callq	_KPhiAddCond
	movl	$12, %edi
	movl	$12, %esi
	xorl	%edx, %edx
	callq	_KTimestamp1
	movl	$11, %edi
	movl	$15, %esi
	callq	_KPhiAddCond
	cmpl	%ebx, %r12d
	jge	.LBB2_9
# BB#2:                                 # %for.body
                                        #   in Loop: Header=BB2_1 Depth=1
	#DEBUG_VALUE: mpeg2_motion_estimation:oldorg <- [RBP+-88]
	#DEBUG_VALUE: mpeg2_motion_estimation:neworg <- [RBP+-80]
	#DEBUG_VALUE: mpeg2_motion_estimation:oldref <- [RBP+-72]
	#DEBUG_VALUE: mpeg2_motion_estimation:newref <- [RBP+-64]
	#DEBUG_VALUE: mpeg2_motion_estimation:cur <- [RBP+-56]
	#DEBUG_VALUE: mpeg2_motion_estimation:curref <- [RBP+-96]
	#DEBUG_VALUE: mpeg2_motion_estimation:ipflag <- undef
	#DEBUG_VALUE: mpeg2_motion_estimation:secondfield <- undef
	#DEBUG_VALUE: mpeg2_motion_estimation:syb <- undef
	#DEBUG_VALUE: mpeg2_motion_estimation:sxb <- undef
	#DEBUG_VALUE: mpeg2_motion_estimation:syf <- undef
	#DEBUG_VALUE: mpeg2_motion_estimation:sxf <- undef
	#DEBUG_VALUE: mpeg2_motion_estimation:j <- 0
	movq	%r12, -48(%rbp)         # 8-byte Spill
	movl	$2, %esi
	movabsq	$1972534619437107704, %rdi # imm = 0x1B5FD9C912B589F8
	callq	_KEnterRegion
	movl	$15, %edi
	callq	_KPushCDep
	#DEBUG_VALUE: mpeg2_motion_estimation:i <- 0
	callq	_KPopCDep
	movl	$1, %esi
	movq	%r13, %rdi
	callq	_KEnterRegion
	movl	$12, %r13d
	xorl	%ebx, %ebx
	xorl	%r14d, %r14d
	xorl	%r12d, %r12d
	jmp	.LBB2_3
	.align	16, 0x90
.LBB2_7:                                # %if.end
                                        #   in Loop: Header=BB2_3 Depth=2
	callq	_KPopCDep
	#DEBUG_VALUE: mpeg2_motion_estimation:oldorg <- [RBP+-88]
	#DEBUG_VALUE: mpeg2_motion_estimation:neworg <- [RBP+-80]
	#DEBUG_VALUE: mpeg2_motion_estimation:oldref <- [RBP+-72]
	#DEBUG_VALUE: mpeg2_motion_estimation:newref <- [RBP+-64]
	#DEBUG_VALUE: mpeg2_motion_estimation:cur <- [RBP+-56]
	#DEBUG_VALUE: mpeg2_motion_estimation:curref <- [RBP+-96]
	#DEBUG_VALUE: mpeg2_motion_estimation:ipflag <- undef
	#DEBUG_VALUE: mpeg2_motion_estimation:secondfield <- undef
	#DEBUG_VALUE: mpeg2_motion_estimation:syb <- undef
	#DEBUG_VALUE: mpeg2_motion_estimation:sxb <- undef
	#DEBUG_VALUE: mpeg2_motion_estimation:syf <- undef
	#DEBUG_VALUE: mpeg2_motion_estimation:sxf <- undef
	#DEBUG_VALUE: mpeg2_motion_estimation:j <- 0
	#DEBUG_VALUE: mpeg2_motion_estimation:i <- 0
	movl	$18, %ebx
	movl	$18, %edi
	callq	_KPushCDep
	movl	$1, %edi
	callq	_KWork
	.loc	1 11486 7 is_stmt 1     # mpeg2.c:11486:7
.Ltmp59:
	addq	$96, %r15
.Ltmp60:
	#DEBUG_VALUE: mpeg2_motion_estimation:mbi <- R15
	.loc	1 11478 30              # mpeg2.c:11478:30
	addl	$16, %r12d
.Ltmp61:
	#DEBUG_VALUE: mpeg2_motion_estimation:i <- R12D
	movl	$19, %r14d
	movl	$19, %edi
	movl	$10, %esi
	movl	$1, %edx
	movl	$18, %ecx
	movl	$1, %r8d
	callq	_KTimestamp2
	movl	$17, %r13d
	movl	$17, %edi
	movl	$14, %esi
	xorl	%edx, %edx
	movl	$18, %ecx
	xorl	%r8d, %r8d
	callq	_KTimestamp2
	callq	_KPopCDep
	movl	$2, %esi
	movabsq	$4556322046029045860, %rdi # imm = 0x3F3B4EC2ABD7A064
	callq	_KExitRegion
.Ltmp62:
.LBB2_3:                                # %for.cond1
                                        #   Parent Loop BB2_1 Depth=1
                                        # =>  This Inner Loop Header: Depth=2
	#DEBUG_VALUE: mpeg2_motion_estimation:oldorg <- [RBP+-88]
	#DEBUG_VALUE: mpeg2_motion_estimation:neworg <- [RBP+-80]
	#DEBUG_VALUE: mpeg2_motion_estimation:oldref <- [RBP+-72]
	#DEBUG_VALUE: mpeg2_motion_estimation:newref <- [RBP+-64]
	#DEBUG_VALUE: mpeg2_motion_estimation:cur <- [RBP+-56]
	#DEBUG_VALUE: mpeg2_motion_estimation:curref <- [RBP+-96]
	#DEBUG_VALUE: mpeg2_motion_estimation:ipflag <- undef
	#DEBUG_VALUE: mpeg2_motion_estimation:secondfield <- undef
	#DEBUG_VALUE: mpeg2_motion_estimation:syb <- undef
	#DEBUG_VALUE: mpeg2_motion_estimation:sxb <- undef
	#DEBUG_VALUE: mpeg2_motion_estimation:syf <- undef
	#DEBUG_VALUE: mpeg2_motion_estimation:sxf <- undef
	#DEBUG_VALUE: mpeg2_motion_estimation:j <- 0
	#DEBUG_VALUE: mpeg2_motion_estimation:i <- 0
	movl	$15, %edi
	callq	_KPushCDep
	movl	$10, %edi
	movl	$15, %edx
	movl	%r14d, %esi
	movl	%ebx, %ecx
	callq	_KPhi2To1
	movl	$14, %edi
	movl	$15, %edx
	movl	%r13d, %esi
	movl	%ebx, %ecx
	callq	_KPhi2To1
	movl	$5, %edi
	callq	_KWork
	movl	$mpeg2_width, %edi
	movl	$8, %esi
	movl	$4, %edx
	callq	_KLoad0
	.loc	1 11478 5 is_stmt 0     # mpeg2.c:11478:5
	movl	mpeg2_width(%rip), %ebx
	movl	$10, %edi
	movl	$10, %esi
	xorl	%edx, %edx
	callq	_KTimestamp1
	movl	$1, (%rsp)
	movl	$18, %edi
	movl	$15, %esi
	movl	$1, %edx
	movl	$8, %ecx
	movl	$1, %r8d
	movl	$10, %r9d
	callq	_KTimestamp3
	movl	$10, %edi
	movl	$18, %esi
	callq	_KPhiAddCond
	movl	$14, %edi
	movl	$18, %esi
	callq	_KPhiAddCond
	movl	$14, %edi
	movl	$14, %esi
	xorl	%edx, %edx
	callq	_KTimestamp1
	callq	_KPopCDep
	cmpl	%ebx, %r12d
	jge	.LBB2_8
# BB#4:                                 # %for.body3
                                        #   in Loop: Header=BB2_3 Depth=2
	#DEBUG_VALUE: mpeg2_motion_estimation:oldorg <- [RBP+-88]
	#DEBUG_VALUE: mpeg2_motion_estimation:neworg <- [RBP+-80]
	#DEBUG_VALUE: mpeg2_motion_estimation:oldref <- [RBP+-72]
	#DEBUG_VALUE: mpeg2_motion_estimation:newref <- [RBP+-64]
	#DEBUG_VALUE: mpeg2_motion_estimation:cur <- [RBP+-56]
	#DEBUG_VALUE: mpeg2_motion_estimation:curref <- [RBP+-96]
	#DEBUG_VALUE: mpeg2_motion_estimation:ipflag <- undef
	#DEBUG_VALUE: mpeg2_motion_estimation:secondfield <- undef
	#DEBUG_VALUE: mpeg2_motion_estimation:syb <- undef
	#DEBUG_VALUE: mpeg2_motion_estimation:sxb <- undef
	#DEBUG_VALUE: mpeg2_motion_estimation:syf <- undef
	#DEBUG_VALUE: mpeg2_motion_estimation:sxf <- undef
	#DEBUG_VALUE: mpeg2_motion_estimation:j <- 0
	#DEBUG_VALUE: mpeg2_motion_estimation:i <- 0
	movl	$2, %esi
	movabsq	$4556322046029045860, %rdi # imm = 0x3F3B4EC2ABD7A064
	callq	_KEnterRegion
	movl	$18, %edi
	callq	_KPushCDep
	movl	$mpeg2_pict_struct, %edi
	movl	$9, %esi
	movl	$4, %edx
	callq	_KLoad0
	movl	$5, %edi
	callq	_KWork
	.loc	1 11479 12 is_stmt 1    # mpeg2.c:11479:12
.Ltmp63:
	movl	mpeg2_pict_struct(%rip), %ebx
	movl	$3, %edi
	movl	$3, %esi
	xorl	%edx, %edx
	callq	_KTimestamp1
	movl	$4, %edi
	movl	$4, %esi
	xorl	%edx, %edx
	callq	_KTimestamp1
	movl	$2, %edi
	movl	$2, %esi
	xorl	%edx, %edx
	callq	_KTimestamp1
	movl	$1, %edi
	movl	$1, %esi
	xorl	%edx, %edx
	callq	_KTimestamp1
	movl	$20, %edi
	movl	$18, %esi
	movl	$1, %edx
	movl	$9, %ecx
	movl	$1, %r8d
	callq	_KTimestamp2
	callq	_KPopCDep
	movl	$20, %edi
	callq	_KPushCDep
.Ltmp64:
	.loc	1 11479 12 is_stmt 0    # mpeg2.c:11479:12
	cmpl	$3, %ebx
	jne	.LBB2_6
# BB#5:                                 # %if.then
                                        #   in Loop: Header=BB2_3 Depth=2
	#DEBUG_VALUE: mpeg2_motion_estimation:oldorg <- [RBP+-88]
	#DEBUG_VALUE: mpeg2_motion_estimation:neworg <- [RBP+-80]
	#DEBUG_VALUE: mpeg2_motion_estimation:oldref <- [RBP+-72]
	#DEBUG_VALUE: mpeg2_motion_estimation:newref <- [RBP+-64]
	#DEBUG_VALUE: mpeg2_motion_estimation:cur <- [RBP+-56]
	#DEBUG_VALUE: mpeg2_motion_estimation:curref <- [RBP+-96]
	#DEBUG_VALUE: mpeg2_motion_estimation:ipflag <- undef
	#DEBUG_VALUE: mpeg2_motion_estimation:secondfield <- undef
	#DEBUG_VALUE: mpeg2_motion_estimation:syb <- undef
	#DEBUG_VALUE: mpeg2_motion_estimation:sxb <- undef
	#DEBUG_VALUE: mpeg2_motion_estimation:syf <- undef
	#DEBUG_VALUE: mpeg2_motion_estimation:sxf <- undef
	#DEBUG_VALUE: mpeg2_motion_estimation:j <- 0
	#DEBUG_VALUE: mpeg2_motion_estimation:i <- 0
	xorl	%esi, %esi
	movabsq	$8274247360432059495, %rdi # imm = 0x72D40822AE443467
	callq	_KPrepCall
	movl	$4, %edi
	callq	_KEnqArg
	movl	$3, %edi
	callq	_KEnqArg
	movl	$2, %edi
	callq	_KEnqArg
	movl	$1, %edi
	callq	_KEnqArg
	movl	$11, %edi
	callq	_KEnqArg
	movl	$10, %edi
	callq	_KEnqArg
	.loc	1 11480 9 is_stmt 1     # mpeg2.c:11480:9
.Ltmp65:
	movq	%r15, 40(%rsp)
	movl	40(%rbp), %eax
	movl	%eax, 32(%rsp)
	movl	32(%rbp), %eax
	movl	%eax, 24(%rsp)
	movl	24(%rbp), %eax
	movl	%eax, 16(%rsp)
	movl	16(%rbp), %eax
	movl	%eax, 8(%rsp)
	movq	-48(%rbp), %rax         # 8-byte Reload
	movl	%eax, (%rsp)
	movq	-88(%rbp), %rdi         # 8-byte Reload
	movq	-80(%rbp), %rsi         # 8-byte Reload
	movq	-72(%rbp), %rdx         # 8-byte Reload
	movq	-64(%rbp), %rcx         # 8-byte Reload
	movq	-56(%rbp), %r8          # 8-byte Reload
	movl	%r12d, %r9d
	callq	mpeg2_frame_ME
	jmp	.LBB2_7
	.align	16, 0x90
.LBB2_6:                                # %if.else
                                        #   in Loop: Header=BB2_3 Depth=2
	#DEBUG_VALUE: mpeg2_motion_estimation:oldorg <- [RBP+-88]
	#DEBUG_VALUE: mpeg2_motion_estimation:neworg <- [RBP+-80]
	#DEBUG_VALUE: mpeg2_motion_estimation:oldref <- [RBP+-72]
	#DEBUG_VALUE: mpeg2_motion_estimation:newref <- [RBP+-64]
	#DEBUG_VALUE: mpeg2_motion_estimation:cur <- [RBP+-56]
	#DEBUG_VALUE: mpeg2_motion_estimation:curref <- [RBP+-96]
	#DEBUG_VALUE: mpeg2_motion_estimation:ipflag <- undef
	#DEBUG_VALUE: mpeg2_motion_estimation:secondfield <- undef
	#DEBUG_VALUE: mpeg2_motion_estimation:syb <- undef
	#DEBUG_VALUE: mpeg2_motion_estimation:sxb <- undef
	#DEBUG_VALUE: mpeg2_motion_estimation:syf <- undef
	#DEBUG_VALUE: mpeg2_motion_estimation:sxf <- undef
	#DEBUG_VALUE: mpeg2_motion_estimation:j <- 0
	#DEBUG_VALUE: mpeg2_motion_estimation:i <- 0
	movl	$5, %edi
	movl	$5, %esi
	xorl	%edx, %edx
	callq	_KTimestamp1
	xorl	%esi, %esi
	movabsq	$-5394835567944025956, %rdi # imm = 0xB521B1A24F0DB89C
	callq	_KPrepCall
	movl	$6, %edi
	movl	$6, %esi
	xorl	%edx, %edx
	callq	_KTimestamp1
	movl	$6, %edi
	callq	_KEnqArg
	movl	$5, %edi
	callq	_KEnqArg
	movl	$4, %edi
	callq	_KEnqArg
	movl	$3, %edi
	callq	_KEnqArg
	movl	$2, %edi
	callq	_KEnqArg
	movl	$1, %edi
	callq	_KEnqArg
	movl	$11, %edi
	callq	_KEnqArg
	movl	$10, %edi
	callq	_KEnqArg
	movl	64(%rbp), %eax
	.loc	1 11483 9               # mpeg2.c:11483:9
	movl	%eax, 64(%rsp)
	movl	56(%rbp), %eax
	movl	%eax, 56(%rsp)
	movq	%r15, 48(%rsp)
	movl	40(%rbp), %eax
	movl	%eax, 40(%rsp)
	movl	32(%rbp), %eax
	movl	%eax, 32(%rsp)
	movl	24(%rbp), %eax
	movl	%eax, 24(%rsp)
	movl	16(%rbp), %eax
	movl	%eax, 16(%rsp)
	movq	-48(%rbp), %rax         # 8-byte Reload
	movl	%eax, 8(%rsp)
	movl	%r12d, (%rsp)
	movq	-88(%rbp), %rdi         # 8-byte Reload
	movq	-80(%rbp), %rsi         # 8-byte Reload
	movq	-72(%rbp), %rdx         # 8-byte Reload
	movq	-64(%rbp), %rcx         # 8-byte Reload
	movq	-56(%rbp), %r8          # 8-byte Reload
	movq	-96(%rbp), %r9          # 8-byte Reload
	callq	mpeg2_field_ME
	jmp	.LBB2_7
.Ltmp66:
.LBB2_9:                                # %for.cond.pre_exit.for.end7
	#DEBUG_VALUE: mpeg2_motion_estimation:j <- 0
	movl	$1, %esi
	movabsq	$-8725380592126679062, %rdi # imm = 0x86E938949C33A7EA
	callq	_KExitRegion
	xorl	%esi, %esi
	movabsq	$-1652462506010620757, %rdi # imm = 0xE911461B1C95CCAB
	addq	$136, %rsp
	popq	%rbx
	popq	%r12
	popq	%r13
	popq	%r14
	popq	%r15
	popq	%rbp
	jmp	_KExitRegion            # TAILCALL
.Ltmp67:
	.size	mpeg2_motion_estimation, .Ltmp67-mpeg2_motion_estimation
.Lfunc_end2:
	.cfi_endproc

	.globl	mpeg2_frame_ME
	.align	16, 0x90
	.type	mpeg2_frame_ME,@function
mpeg2_frame_ME:                         # @mpeg2_frame_ME
.Lfunc_begin3:
	.loc	1 11496 0               # mpeg2.c:11496:0
	.cfi_startproc
# BB#0:                                 # %entry
	pushq	%rbp
.Ltmp68:
	.cfi_def_cfa_offset 16
.Ltmp69:
	.cfi_offset %rbp, -16
	movq	%rsp, %rbp
.Ltmp70:
	.cfi_def_cfa_register %rbp
	pushq	%r15
	pushq	%r14
	pushq	%r13
	pushq	%r12
	pushq	%rbx
	subq	$504, %rsp              # imm = 0x1F8
.Ltmp71:
	.cfi_offset %rbx, -56
.Ltmp72:
	.cfi_offset %r12, -48
.Ltmp73:
	.cfi_offset %r13, -40
.Ltmp74:
	.cfi_offset %r14, -32
.Ltmp75:
	.cfi_offset %r15, -24
	#DEBUG_VALUE: mpeg2_frame_ME:oldorg <- RDI
	#DEBUG_VALUE: mpeg2_frame_ME:neworg <- RSI
	#DEBUG_VALUE: mpeg2_frame_ME:oldref <- RDX
	#DEBUG_VALUE: mpeg2_frame_ME:newref <- RCX
	#DEBUG_VALUE: mpeg2_frame_ME:cur <- R8
	#DEBUG_VALUE: mpeg2_frame_ME:i <- R9D
	movl	%r9d, %ebx
.Ltmp76:
	#DEBUG_VALUE: mpeg2_frame_ME:i <- EBX
	movl	%ebx, -244(%rbp)        # 4-byte Spill
	movq	%r8, %r14
.Ltmp77:
	#DEBUG_VALUE: mpeg2_frame_ME:cur <- R14
	movq	%r14, -288(%rbp)        # 8-byte Spill
	movq	%rcx, -256(%rbp)        # 8-byte Spill
.Ltmp78:
	#DEBUG_VALUE: mpeg2_frame_ME:newref <- [RBP+-256]
	movq	%rdx, -240(%rbp)        # 8-byte Spill
.Ltmp79:
	#DEBUG_VALUE: mpeg2_frame_ME:oldref <- [RBP+-240]
	movq	%rsi, -280(%rbp)        # 8-byte Spill
.Ltmp80:
	#DEBUG_VALUE: mpeg2_frame_ME:neworg <- [RBP+-280]
	movq	%rdi, -264(%rbp)        # 8-byte Spill
.Ltmp81:
	#DEBUG_VALUE: mpeg2_frame_ME:oldorg <- [RBP+-264]
	.loc	1 11510 8 prologue_end  # mpeg2.c:11510:8
	movslq	16(%rbp), %r12
	movq	56(%rbp), %r13
	#DEBUG_VALUE: mpeg2_frame_ME:mbi <- R13
	movabsq	$1474695725326909918, %rdi # imm = 0x14772BF2EBE5C1DE
	xorl	%esi, %esi
	callq	_KEnterRegion
	movl	$442, %edi              # imm = 0x1BA
	xorl	%esi, %esi
	callq	_KPrepRTable
	movl	$15, %edi
	callq	_KWork
	movl	$6, %edi
	callq	_KDeqArg
	movl	$5, %edi
	callq	_KDeqArg
	movl	$4, %edi
	callq	_KDeqArg
	movl	$3, %edi
	callq	_KDeqArg
	movl	$2, %edi
	callq	_KDeqArg
	movl	$1, %edi
	callq	_KDeqArg
	movslq	%ebx, %rbx
.Ltmp82:
	movq	%rbx, -304(%rbp)        # 8-byte Spill
.Ltmp83:
	#DEBUG_VALUE: mpeg2_frame_ME:i <- [RBP+-244]
	movl	$mpeg2_width, %edi
	movl	$7, %esi
	movl	$4, %edx
	callq	_KLoad0
	movslq	mpeg2_width(%rip), %rax
	.loc	1 11510 18 is_stmt 0    # mpeg2.c:11510:18
	imulq	%r12, %rax
	.loc	1 11510 8               # mpeg2.c:11510:8
	addq	%rbx, %rax
	movq	%rax, -296(%rbp)        # 8-byte Spill
	leaq	(%r14,%rax), %r14
.Ltmp84:
	#DEBUG_VALUE: mpeg2_frame_ME:mb <- R14
	#DEBUG_VALUE: mpeg2_frame_ME:cur <- [RBP+-288]
	movq	%r14, -232(%rbp)        # 8-byte Spill
	movl	$mpeg2_width, %edi
	movl	$8, %esi
	movl	$4, %edx
	callq	_KLoad0
	.loc	1 11512 29 is_stmt 1    # mpeg2.c:11512:29
	movl	mpeg2_width(%rip), %ebx
	movabsq	$-5423251845601860758, %rdi # imm = 0xB4BCBD2E176B636A
	xorl	%esi, %esi
	callq	_KPrepCall
	movl	$8, %edi
	movl	$8, %esi
	xorl	%edx, %edx
	callq	_KTimestamp1
	movl	$8, %edi
	callq	_KEnqArg
	movl	$9, %r15d
	movl	$9, %edi
	callq	_KLinkReturn
	.loc	1 11512 9 is_stmt 0     # mpeg2.c:11512:9
	movq	%r14, %rdi
.Ltmp85:
	#DEBUG_VALUE: mpeg2_frame_ME:mb <- [RBP+-232]
	movl	%ebx, %esi
	callq	mpeg2_variance
                                        # kill: EAX<def> EAX<kill> RAX<def>
.Ltmp86:
	#DEBUG_VALUE: mpeg2_frame_ME:var <- [RBP+-224]
	movq	%rax, -224(%rbp)        # 8-byte Spill
	movl	$mpeg2_pict_type, %edi
	movl	$10, %esi
	movl	$4, %edx
	callq	_KLoad0
	.loc	1 11514 8 is_stmt 1     # mpeg2.c:11514:8
.Ltmp87:
	movl	mpeg2_pict_type(%rip), %ebx
	movl	$436, %edi              # imm = 0x1B4
	movl	$10, %esi
	movl	$1, %edx
	callq	_KTimestamp1
	movl	$9, %edi
	movl	$9, %esi
	xorl	%edx, %edx
	callq	_KTimestamp1
	movl	$436, %edi              # imm = 0x1B4
	callq	_KPushCDep
.Ltmp88:
	.loc	1 11514 8 is_stmt 0     # mpeg2.c:11514:8
	cmpl	$1, %ebx
	jne	.LBB3_2
.Ltmp89:
# BB#1:                                 # %if.then
	#DEBUG_VALUE: mpeg2_frame_ME:mbi <- R13
	#DEBUG_VALUE: mpeg2_frame_ME:var <- [RBP+-224]
	movl	$1, %edi
	callq	_KWork
	movl	$4, %esi
	movq	%r13, %rdi
	callq	_KStoreConst
	.loc	1 11515 5 is_stmt 1     # mpeg2.c:11515:5
.Ltmp90:
	movl	$1, (%r13)
	callq	_KPopCDep
	xorl	%eax, %eax
	xorl	%r12d, %r12d
	xorl	%ebx, %ebx
	xorl	%r14d, %r14d
	jmp	.LBB3_96
.Ltmp91:
.LBB3_2:                                # %if.else
	#DEBUG_VALUE: mpeg2_frame_ME:oldorg <- [RBP+-264]
	#DEBUG_VALUE: mpeg2_frame_ME:neworg <- [RBP+-280]
	#DEBUG_VALUE: mpeg2_frame_ME:oldref <- [RBP+-240]
	#DEBUG_VALUE: mpeg2_frame_ME:newref <- [RBP+-256]
	#DEBUG_VALUE: mpeg2_frame_ME:cur <- [RBP+-288]
	#DEBUG_VALUE: mpeg2_frame_ME:i <- [RBP+-244]
	#DEBUG_VALUE: mpeg2_frame_ME:mbi <- R13
	#DEBUG_VALUE: mpeg2_frame_ME:mb <- [RBP+-232]
	#DEBUG_VALUE: mpeg2_frame_ME:var <- [RBP+-224]
	#DEBUG_VALUE: mpeg2_frame_ME:j <- R12D
	#DEBUG_VALUE: mpeg2_frame_ME:syf <- undef
	#DEBUG_VALUE: mpeg2_frame_ME:sxf <- undef
	movl	$mpeg2_pict_type, %edi
	movl	$11, %esi
	movl	$4, %edx
	callq	_KLoad0
	movl	$10, %edi
	callq	_KWork
	.loc	1 11518 8               # mpeg2.c:11518:8
.Ltmp92:
	movl	mpeg2_pict_type(%rip), %ebx
	movl	$mpeg2_frame_pred_dct, %edi
	movl	$12, %esi
	movl	$4, %edx
	callq	_KLoad0
	.loc	1 11519 10              # mpeg2.c:11519:10
.Ltmp93:
	movl	mpeg2_frame_pred_dct(%rip), %r15d
	movl	$4, %edi
	movl	$4, %esi
	xorl	%edx, %edx
	callq	_KTimestamp1
	movl	$3, %edi
	movl	$3, %esi
	xorl	%edx, %edx
	callq	_KTimestamp1
	movl	$2, %edi
	movl	$2, %esi
	xorl	%edx, %edx
	callq	_KTimestamp1
	movl	$1, %edi
	movl	$1, %esi
	xorl	%edx, %edx
	callq	_KTimestamp1
	movl	$383, %edi              # imm = 0x17F
	movl	$10, %esi
	movl	$2, %edx
	movl	$11, %ecx
	movl	$1, %r8d
	callq	_KTimestamp2
	movl	$384, %edi              # imm = 0x180
	movl	$10, %esi
	movl	$2, %edx
	movl	$12, %ecx
	movl	$1, %r8d
	callq	_KTimestamp2
	callq	_KPopCDep
	movl	$383, %edi              # imm = 0x17F
	callq	_KPushCDep
.Ltmp94:
	.loc	1 11518 8               # mpeg2.c:11518:8
	cmpl	$2, %ebx
	jne	.LBB3_31
.Ltmp95:
# BB#3:                                 # %if.then4
	#DEBUG_VALUE: mpeg2_frame_ME:oldorg <- [RBP+-264]
	#DEBUG_VALUE: mpeg2_frame_ME:oldref <- [RBP+-240]
	#DEBUG_VALUE: mpeg2_frame_ME:cur <- [RBP+-288]
	#DEBUG_VALUE: mpeg2_frame_ME:i <- [RBP+-244]
	#DEBUG_VALUE: mpeg2_frame_ME:mbi <- R13
	#DEBUG_VALUE: mpeg2_frame_ME:mb <- [RBP+-232]
	#DEBUG_VALUE: mpeg2_frame_ME:var <- [RBP+-224]
	#DEBUG_VALUE: mpeg2_frame_ME:j <- R12D
	#DEBUG_VALUE: mpeg2_frame_ME:syf <- undef
	#DEBUG_VALUE: mpeg2_frame_ME:sxf <- undef
	movq	%r12, -272(%rbp)        # 8-byte Spill
.Ltmp96:
	#DEBUG_VALUE: mpeg2_frame_ME:j <- [RBP+-272]
	#DEBUG_VALUE: mpeg2_frame_ME:mbi <- undef
	callq	_KPopCDep
	movl	$384, %edi              # imm = 0x180
	callq	_KPushCDep
	.loc	1 11519 10              # mpeg2.c:11519:10
.Ltmp97:
	testl	%r15d, %r15d
	je	.LBB3_5
# BB#4:                                 # %if.then5
	#DEBUG_VALUE: mpeg2_frame_ME:oldorg <- [RBP+-264]
	#DEBUG_VALUE: mpeg2_frame_ME:oldref <- [RBP+-240]
	#DEBUG_VALUE: mpeg2_frame_ME:i <- [RBP+-244]
	#DEBUG_VALUE: mpeg2_frame_ME:mbi <- undef
	#DEBUG_VALUE: mpeg2_frame_ME:mb <- [RBP+-232]
	#DEBUG_VALUE: mpeg2_frame_ME:var <- [RBP+-224]
	#DEBUG_VALUE: mpeg2_frame_ME:j <- [RBP+-272]
	#DEBUG_VALUE: mpeg2_frame_ME:syf <- undef
	#DEBUG_VALUE: mpeg2_frame_ME:sxf <- undef
	movl	$mpeg2_width, %edi
	movl	$13, %esi
	movl	$4, %edx
	callq	_KLoad0
	movl	$44, %edi
	callq	_KWork
	.loc	1 11522 31              # mpeg2.c:11522:31
.Ltmp98:
	movl	mpeg2_width(%rip), %r15d
	movl	$mpeg2_width, %edi
	movl	$14, %esi
	movl	$4, %edx
	callq	_KLoad0
	.loc	1 11522 64 is_stmt 0    # mpeg2.c:11522:64
	movl	mpeg2_width(%rip), %r14d
	movl	$mpeg2_height, %edi
	movl	$15, %esi
	movl	$4, %edx
	callq	_KLoad0
	.loc	1 11523 11 is_stmt 1    # mpeg2.c:11523:11
	movl	mpeg2_height(%rip), %r12d
	xorl	%eax, %eax
	movq	%rax, -256(%rbp)        # 8-byte Spill
	movabsq	$4358198435874694514, %rdi # imm = 0x3C7B6E62FEF96572
	xorl	%esi, %esi
	callq	_KPrepCall
	movl	$15, %edi
	movl	$15, %esi
	xorl	%edx, %edx
	callq	_KTimestamp1
	movl	$15, %edi
	callq	_KEnqArg
	movl	$14, %edi
	movl	$14, %esi
	xorl	%edx, %edx
	callq	_KTimestamp1
	movl	$14, %edi
	callq	_KEnqArg
	callq	_KEnqArgConst
	movl	$4, %edi
	callq	_KEnqArg
	movl	$3, %edi
	callq	_KEnqArg
	movl	$2, %edi
	callq	_KEnqArg
	movl	$1, %edi
	callq	_KEnqArg
	movl	$13, %edi
	movl	$13, %esi
	xorl	%edx, %edx
	callq	_KTimestamp1
	movl	$13, %edi
	callq	_KEnqArg
	movl	$16, %edi
	callq	_KLinkReturn
	leaq	-48(%rbp), %rax
.Ltmp99:
	#DEBUG_VALUE: mpeg2_frame_ME:jmin <- [RAX+0]
	.loc	1 11521 9               # mpeg2.c:11521:9
	movq	%rax, 48(%rsp)
.Ltmp100:
	#DEBUG_VALUE: mpeg2_frame_ME:jmin <- undef
	leaq	-44(%rbp), %r13
.Ltmp101:
	#DEBUG_VALUE: mpeg2_frame_ME:imin <- [R13+0]
	movq	%r13, 40(%rsp)
	movq	%r13, %rbx
.Ltmp102:
	#DEBUG_VALUE: mpeg2_frame_ME:imin <- [RBX+0]
	movl	%r12d, 32(%rsp)
	movl	%r14d, 24(%rsp)
	movl	32(%rbp), %eax
	movl	%eax, 8(%rsp)
	movl	24(%rbp), %eax
	movl	%eax, (%rsp)
	movl	$16, 16(%rsp)
	movq	-264(%rbp), %rdi        # 8-byte Reload
	movq	-240(%rbp), %r14        # 8-byte Reload
.Ltmp103:
	#DEBUG_VALUE: mpeg2_frame_ME:oldref <- R14
	movq	%r14, %rsi
.Ltmp104:
	#DEBUG_VALUE: mpeg2_frame_ME:mb <- undef
	movq	-232(%rbp), %rdx        # 8-byte Reload
.Ltmp105:
	#DEBUG_VALUE: mpeg2_frame_ME:mb <- [RBP+-232]
	movl	%r15d, %ecx
	movl	-244(%rbp), %r8d        # 4-byte Reload
	movq	-272(%rbp), %r9         # 8-byte Reload
                                        # kill: R9D<def> R9D<kill> R9<kill>
	callq	mpeg2_fullsearch
	movl	%eax, %r15d
.Ltmp106:
	#DEBUG_VALUE: mpeg2_frame_ME:dmc <- R15D
	movl	$16, %edi
	movl	$16, %esi
	xorl	%edx, %edx
	callq	_KTimestamp1
	leaq	-116(%rbp), %rsi
	movl	$16, %edi
	movl	$4, %edx
	callq	_KStore
	.loc	1 11520 7               # mpeg2.c:11520:7
	movl	%r15d, -116(%rbp)
	movl	$17, %esi
	movl	$4, %edx
	movq	%rbx, %rdi
.Ltmp107:
	#DEBUG_VALUE: mpeg2_frame_ME:imin <- undef
	callq	_KLoad0
	.loc	1 11526 22              # mpeg2.c:11526:22
	movl	-44(%rbp), %eax
	sarl	%eax
	.loc	1 11526 11 is_stmt 0    # mpeg2.c:11526:11
	movslq	%eax, %r15
.Ltmp108:
	movl	$mpeg2_width, %edi
	movl	$18, %esi
	movl	$4, %edx
	callq	_KLoad0
	movslq	mpeg2_width(%rip), %r12
	movl	$19, %esi
	movl	$4, %edx
	leaq	-48(%rbp), %r13
.Ltmp109:
	#DEBUG_VALUE: mpeg2_frame_ME:jmin <- [R13+0]
	movq	%r13, %rdi
	callq	_KLoad0
	.loc	1 11526 52              # mpeg2.c:11526:52
	movl	-48(%rbp), %eax
	sarl	%eax
	.loc	1 11526 11              # mpeg2.c:11526:11
	movslq	%eax, %rbx
	.loc	1 11526 36              # mpeg2.c:11526:36
	imulq	%r12, %rbx
	.loc	1 11526 11              # mpeg2.c:11526:11
	addq	%r15, %rbx
	addq	%r14, %rbx
.Ltmp110:
	#DEBUG_VALUE: mpeg2_frame_ME:oldref <- [RBP+-240]
	movl	$mpeg2_width, %edi
	movl	$20, %esi
	movl	$4, %edx
	callq	_KLoad0
	.loc	1 11526 69              # mpeg2.c:11526:69
	movl	mpeg2_width(%rip), %eax
	movl	%eax, -264(%rbp)        # 4-byte Spill
	movl	$21, %esi
	movl	$4, %edx
	leaq	-44(%rbp), %rdi
	callq	_KLoad0
	.loc	1 11527 11 is_stmt 1    # mpeg2.c:11527:11
	movl	-44(%rbp), %r12d
	andl	$1, %r12d
	movl	$22, %esi
	movl	$4, %edx
	movq	%r13, %rdi
	callq	_KLoad0
	.loc	1 11527 21 is_stmt 0    # mpeg2.c:11527:21
	movl	-48(%rbp), %r14d
	andl	$1, %r14d
	movl	$1, (%rsp)
	movl	$25, %edi
	movl	$10, %esi
	movl	$3, %edx
	movl	$12, %ecx
	movl	$2, %r8d
	movl	$22, %r9d
	callq	_KTimestamp3
	movabsq	$-5422276647281127743, %rdi # imm = 0xB4C0341E24E98EC1
	xorl	%esi, %esi
	callq	_KPrepCall
	callq	_KEnqArgConst
	movl	$25, %edi
	callq	_KEnqArg
	movl	$1, (%rsp)
	movl	$24, %edi
	movl	$10, %esi
	movl	$3, %edx
	movl	$12, %ecx
	movl	$2, %r8d
	movl	$21, %r9d
	callq	_KTimestamp3
	movl	$24, %edi
	callq	_KEnqArg
	movl	$20, %edi
	movl	$20, %esi
	xorl	%edx, %edx
	callq	_KTimestamp1
	movl	$20, %edi
	callq	_KEnqArg
	movl	$23, %r15d
	movl	$23, %edi
	callq	_KLinkReturn
	movl	$16, %r9d
	.loc	1 11525 9 is_stmt 1     # mpeg2.c:11525:9
	movq	%rbx, %rdi
	movq	-232(%rbp), %rsi        # 8-byte Reload
	#DEBUG_VALUE: mpeg2_frame_ME:mb <- [RBP+-232]
	movl	-264(%rbp), %edx        # 4-byte Reload
	movl	%r12d, %ecx
	movl	%r14d, %r8d
	callq	mpeg2_dist2
	movl	%eax, %r14d
.Ltmp111:
	#DEBUG_VALUE: mpeg2_frame_ME:vmc <- R14D
	movq	56(%rbp), %rax
	movq	%rax, %rbx
.Ltmp112:
	#DEBUG_VALUE: mpeg2_frame_ME:mbi <- RBX
	.loc	1 11528 7               # mpeg2.c:11528:7
	leaq	4(%rbx), %rdi
	movl	$4, %esi
	callq	_KStoreConst
	movl	$2, 4(%rbx)
.Ltmp113:
	#DEBUG_VALUE: mpeg2_frame_ME:mbi <- [RBP+-352]
	movl	$23, %edi
	movl	$23, %esi
	xorl	%edx, %edx
	callq	_KTimestamp1
	callq	_KPopCDep
	xorl	%r12d, %r12d
	xorl	%ebx, %ebx
	xorl	%eax, %eax
	movq	%rax, -264(%rbp)        # 8-byte Spill
	movq	-224(%rbp), %r13        # 8-byte Reload
.Ltmp114:
	#DEBUG_VALUE: mpeg2_frame_ME:var <- R13D
	jmp	.LBB3_19
.Ltmp115:
.LBB3_31:                               # %if.else180
	#DEBUG_VALUE: mpeg2_frame_ME:oldorg <- [RBP+-264]
	#DEBUG_VALUE: mpeg2_frame_ME:neworg <- [RBP+-280]
	#DEBUG_VALUE: mpeg2_frame_ME:oldref <- [RBP+-240]
	#DEBUG_VALUE: mpeg2_frame_ME:newref <- [RBP+-256]
	#DEBUG_VALUE: mpeg2_frame_ME:cur <- [RBP+-288]
	#DEBUG_VALUE: mpeg2_frame_ME:i <- [RBP+-244]
	#DEBUG_VALUE: mpeg2_frame_ME:mbi <- R13
	#DEBUG_VALUE: mpeg2_frame_ME:mbi <- undef
	#DEBUG_VALUE: mpeg2_frame_ME:mb <- [RBP+-232]
	#DEBUG_VALUE: mpeg2_frame_ME:var <- [RBP+-224]
	#DEBUG_VALUE: mpeg2_frame_ME:j <- R12D
	#DEBUG_VALUE: mpeg2_frame_ME:syf <- undef
	#DEBUG_VALUE: mpeg2_frame_ME:sxf <- undef
	#DEBUG_VALUE: mpeg2_frame_ME:syb <- undef
	#DEBUG_VALUE: mpeg2_frame_ME:sxb <- undef
	movl	$6, %edi
	movl	$6, %esi
	xorl	%edx, %edx
	callq	_KTimestamp1
	movl	$5, %edi
	movl	$5, %esi
	xorl	%edx, %edx
	callq	_KTimestamp1
	callq	_KPopCDep
	movl	$384, %edi              # imm = 0x180
	callq	_KPushCDep
	.loc	1 11631 10              # mpeg2.c:11631:10
.Ltmp116:
	testl	%r15d, %r15d
	je	.LBB3_40
.Ltmp117:
# BB#32:                                # %if.then182
	#DEBUG_VALUE: mpeg2_frame_ME:oldorg <- [RBP+-264]
	#DEBUG_VALUE: mpeg2_frame_ME:neworg <- [RBP+-280]
	#DEBUG_VALUE: mpeg2_frame_ME:oldref <- [RBP+-240]
	#DEBUG_VALUE: mpeg2_frame_ME:newref <- [RBP+-256]
	#DEBUG_VALUE: mpeg2_frame_ME:i <- [RBP+-244]
	#DEBUG_VALUE: mpeg2_frame_ME:mbi <- undef
	#DEBUG_VALUE: mpeg2_frame_ME:mb <- [RBP+-232]
	#DEBUG_VALUE: mpeg2_frame_ME:var <- [RBP+-224]
	#DEBUG_VALUE: mpeg2_frame_ME:j <- R12D
	#DEBUG_VALUE: mpeg2_frame_ME:syf <- undef
	#DEBUG_VALUE: mpeg2_frame_ME:sxf <- undef
	#DEBUG_VALUE: mpeg2_frame_ME:syb <- undef
	#DEBUG_VALUE: mpeg2_frame_ME:sxb <- undef
	movl	$mpeg2_width, %edi
	movl	$98, %esi
	movl	$4, %edx
	callq	_KLoad0
	movl	$143, %edi
	callq	_KWork
	.loc	1 11635 31              # mpeg2.c:11635:31
.Ltmp118:
	movl	mpeg2_width(%rip), %eax
	movl	%eax, -288(%rbp)        # 4-byte Spill
	movl	$mpeg2_width, %edi
	movl	$99, %esi
	movl	$4, %edx
	callq	_KLoad0
	.loc	1 11635 64 is_stmt 0    # mpeg2.c:11635:64
	movl	mpeg2_width(%rip), %r13d
	movl	$mpeg2_height, %edi
	movl	$100, %esi
	movl	$4, %edx
	callq	_KLoad0
	.loc	1 11636 11 is_stmt 1    # mpeg2.c:11636:11
	movl	mpeg2_height(%rip), %ebx
	movl	$98, %edi
	movl	$98, %esi
	xorl	%edx, %edx
	callq	_KTimestamp1
	movabsq	$9215427611910968566, %rdi # imm = 0x7FE3C6966D4794F6
	xorl	%esi, %esi
	callq	_KPrepCall
	movl	$100, %edi
	movl	$100, %esi
	xorl	%edx, %edx
	callq	_KTimestamp1
	movl	$100, %edi
	callq	_KEnqArg
	movl	$99, %edi
	movl	$99, %esi
	xorl	%edx, %edx
	callq	_KTimestamp1
	movl	$99, %edi
	callq	_KEnqArg
	callq	_KEnqArgConst
	movl	$4, %edi
	callq	_KEnqArg
	movl	$3, %edi
	callq	_KEnqArg
	movl	$2, %edi
	callq	_KEnqArg
	movl	$1, %edi
	callq	_KEnqArg
	movl	$98, %edi
	callq	_KEnqArg
	movl	$101, %edi
	callq	_KLinkReturn
	leaq	-56(%rbp), %rax
.Ltmp119:
	#DEBUG_VALUE: mpeg2_frame_ME:jminf <- [RAX+0]
	.loc	1 11634 9               # mpeg2.c:11634:9
	movq	%rax, 48(%rsp)
	movq	%rax, %r14
.Ltmp120:
	#DEBUG_VALUE: mpeg2_frame_ME:jminf <- [R14+0]
	leaq	-52(%rbp), %r15
.Ltmp121:
	#DEBUG_VALUE: mpeg2_frame_ME:iminf <- [R15+0]
	movq	%r15, 40(%rsp)
	movl	%ebx, 32(%rsp)
	movl	%r13d, 24(%rsp)
	movl	32(%rbp), %eax
	movl	%eax, 8(%rsp)
	movl	24(%rbp), %eax
	movl	%eax, (%rsp)
	movl	$16, 16(%rsp)
	movq	-264(%rbp), %rdi        # 8-byte Reload
.Ltmp122:
	#DEBUG_VALUE: mpeg2_frame_ME:oldref <- undef
	movq	-240(%rbp), %rsi        # 8-byte Reload
.Ltmp123:
	#DEBUG_VALUE: mpeg2_frame_ME:mb <- undef
	#DEBUG_VALUE: mpeg2_frame_ME:oldref <- [RBP+-240]
	movq	-232(%rbp), %rdx        # 8-byte Reload
.Ltmp124:
	#DEBUG_VALUE: mpeg2_frame_ME:mb <- [RBP+-232]
	movl	-288(%rbp), %ecx        # 4-byte Reload
.Ltmp125:
	#DEBUG_VALUE: mpeg2_frame_ME:i <- undef
	movl	-244(%rbp), %r8d        # 4-byte Reload
.Ltmp126:
	#DEBUG_VALUE: mpeg2_frame_ME:i <- [RBP+-244]
	movl	%r12d, %r9d
	callq	mpeg2_fullsearch
	movl	%eax, %ebx
.Ltmp127:
	#DEBUG_VALUE: mpeg2_frame_ME:dmcf <- EBX
	movl	$101, %edi
	movl	$101, %esi
	xorl	%edx, %edx
	callq	_KTimestamp1
	leaq	-120(%rbp), %rsi
	movl	$101, %edi
	movl	$4, %edx
	callq	_KStore
	.loc	1 11633 7               # mpeg2.c:11633:7
	movl	%ebx, -120(%rbp)
	movl	$102, %esi
	movl	$4, %edx
	movq	%r15, %rdi
	movq	%r15, %r13
.Ltmp128:
	#DEBUG_VALUE: mpeg2_frame_ME:iminf <- [R13+0]
	callq	_KLoad0
	.loc	1 11639 22              # mpeg2.c:11639:22
	movl	-52(%rbp), %eax
	sarl	%eax
	.loc	1 11639 11 is_stmt 0    # mpeg2.c:11639:11
	movslq	%eax, %r15
	movl	$mpeg2_width, %edi
	movl	$103, %esi
	movl	$4, %edx
	callq	_KLoad0
	movq	%r12, -272(%rbp)        # 8-byte Spill
.Ltmp129:
	#DEBUG_VALUE: mpeg2_frame_ME:j <- [RBP+-272]
	#DEBUG_VALUE: mpeg2_frame_ME:j <- undef
	movslq	mpeg2_width(%rip), %r12
	movl	$104, %esi
	movl	$4, %edx
	movq	%r14, %rdi
	callq	_KLoad0
	.loc	1 11639 53              # mpeg2.c:11639:53
	movl	-56(%rbp), %eax
	sarl	%eax
	.loc	1 11639 11              # mpeg2.c:11639:11
	movslq	%eax, %rbx
.Ltmp130:
	.loc	1 11639 37              # mpeg2.c:11639:37
	imulq	%r12, %rbx
	.loc	1 11639 11              # mpeg2.c:11639:11
	addq	%r15, %rbx
	addq	-240(%rbp), %rbx        # 8-byte Folded Reload
	movl	$mpeg2_width, %edi
	movl	$105, %esi
	movl	$4, %edx
	callq	_KLoad0
	.loc	1 11640 11 is_stmt 1    # mpeg2.c:11640:11
	movl	mpeg2_width(%rip), %r15d
	movl	$106, %esi
	movl	$4, %edx
	movq	%r13, %rdi
.Ltmp131:
	#DEBUG_VALUE: mpeg2_frame_ME:iminf <- undef
	callq	_KLoad0
	.loc	1 11640 24 is_stmt 0    # mpeg2.c:11640:24
	movl	-52(%rbp), %r12d
	andl	$1, %r12d
	movl	$107, %esi
	movl	$4, %edx
	movq	%r14, %rdi
.Ltmp132:
	#DEBUG_VALUE: mpeg2_frame_ME:jminf <- undef
	callq	_KLoad0
	.loc	1 11640 35              # mpeg2.c:11640:35
	movl	-56(%rbp), %r13d
	andl	$1, %r13d
	movl	$2, (%rsp)
	movl	$110, %edi
	movl	$107, %esi
	movl	$1, %edx
	movl	$10, %ecx
	movl	$3, %r8d
	movl	$12, %r9d
	callq	_KTimestamp3
	movabsq	$1021854441565184251, %rdi # imm = 0xE2E5B3359A5E0FB
	xorl	%esi, %esi
	callq	_KPrepCall
	callq	_KEnqArgConst
	movl	$110, %edi
	callq	_KEnqArg
	movl	$2, (%rsp)
	movl	$109, %edi
	movl	$106, %esi
	movl	$1, %edx
	movl	$10, %ecx
	movl	$3, %r8d
	movl	$12, %r9d
	callq	_KTimestamp3
	movl	$109, %edi
	callq	_KEnqArg
	movl	$105, %edi
	movl	$105, %esi
	xorl	%edx, %edx
	callq	_KTimestamp1
	movl	$105, %edi
	callq	_KEnqArg
	movl	$108, %edi
	callq	_KLinkReturn
	movl	$16, %r9d
	.loc	1 11638 9 is_stmt 1     # mpeg2.c:11638:9
	movq	%rbx, %rdi
	movq	-232(%rbp), %rbx        # 8-byte Reload
.Ltmp133:
	#DEBUG_VALUE: mpeg2_frame_ME:mb <- RBX
	movq	%rbx, %rsi
	movl	%r15d, %edx
	movl	%r12d, %ecx
	movl	%r13d, %r8d
	callq	mpeg2_dist2
	movl	%eax, -264(%rbp)        # 4-byte Spill
.Ltmp134:
	#DEBUG_VALUE: mpeg2_frame_ME:vmcf <- [RBP+-264]
	#DEBUG_VALUE: mpeg2_frame_ME:vmc <- [RBP+-264]
	movl	$mpeg2_width, %edi
	movl	$111, %esi
	movl	$4, %edx
	callq	_KLoad0
	.loc	1 11645 31              # mpeg2.c:11645:31
	movl	mpeg2_width(%rip), %eax
	movl	%eax, -288(%rbp)        # 4-byte Spill
	movl	$mpeg2_width, %edi
	movl	$112, %esi
	movl	$4, %edx
	callq	_KLoad0
	.loc	1 11645 64 is_stmt 0    # mpeg2.c:11645:64
	movl	mpeg2_width(%rip), %r12d
	movl	$mpeg2_height, %edi
	movl	$113, %esi
	movl	$4, %edx
	callq	_KLoad0
	.loc	1 11646 11 is_stmt 1    # mpeg2.c:11646:11
	movl	mpeg2_height(%rip), %r14d
	movl	$111, %edi
	movl	$111, %esi
	xorl	%edx, %edx
	callq	_KTimestamp1
	movabsq	$-4775286036126609238, %rdi # imm = 0xBDBAC6A693CA50AA
	xorl	%esi, %esi
	callq	_KPrepCall
	movl	$113, %edi
	movl	$113, %esi
	xorl	%edx, %edx
	callq	_KTimestamp1
	movl	$113, %edi
	callq	_KEnqArg
	movl	$112, %edi
	movl	$112, %esi
	xorl	%edx, %edx
	callq	_KTimestamp1
	movl	$112, %edi
	callq	_KEnqArg
	callq	_KEnqArgConst
	movl	$6, %edi
	callq	_KEnqArg
	movl	$5, %edi
	callq	_KEnqArg
	movl	$2, %edi
	callq	_KEnqArg
	movl	$1, %edi
	callq	_KEnqArg
	movl	$111, %edi
	callq	_KEnqArg
	movl	$114, %edi
	callq	_KLinkReturn
	leaq	-64(%rbp), %r13
.Ltmp135:
	#DEBUG_VALUE: mpeg2_frame_ME:jminr <- [R13+0]
	.loc	1 11644 9               # mpeg2.c:11644:9
	movq	%r13, 48(%rsp)
	leaq	-60(%rbp), %r15
.Ltmp136:
	#DEBUG_VALUE: mpeg2_frame_ME:iminr <- [R15+0]
	movq	%r15, 40(%rsp)
	movl	%r14d, 32(%rsp)
	movl	%r12d, 24(%rsp)
	movl	48(%rbp), %eax
	movl	%eax, 8(%rsp)
	movl	40(%rbp), %eax
	movl	%eax, (%rsp)
	movl	$16, 16(%rsp)
	movq	-280(%rbp), %rdi        # 8-byte Reload
.Ltmp137:
	#DEBUG_VALUE: mpeg2_frame_ME:newref <- undef
	movq	-256(%rbp), %rsi        # 8-byte Reload
.Ltmp138:
	#DEBUG_VALUE: mpeg2_frame_ME:newref <- [RBP+-256]
	movq	%rbx, %rdx
.Ltmp139:
	#DEBUG_VALUE: mpeg2_frame_ME:mb <- [RBP+-232]
	movl	-288(%rbp), %ecx        # 4-byte Reload
	movl	-244(%rbp), %r8d        # 4-byte Reload
	movq	-272(%rbp), %r9         # 8-byte Reload
	#DEBUG_VALUE: mpeg2_frame_ME:i <- [RBP+-244]
                                        # kill: R9D<def> R9D<kill> R9<kill>
.Ltmp140:
	#DEBUG_VALUE: mpeg2_frame_ME:j <- [RBP+-272]
	callq	mpeg2_fullsearch
	movl	%eax, %ebx
.Ltmp141:
	#DEBUG_VALUE: mpeg2_frame_ME:dmcr <- EBX
	movl	$114, %edi
	movl	$114, %esi
	xorl	%edx, %edx
	callq	_KTimestamp1
	leaq	-124(%rbp), %rsi
	movl	$114, %edi
	movl	$4, %edx
	callq	_KStore
	.loc	1 11643 7               # mpeg2.c:11643:7
	movl	%ebx, -124(%rbp)
	movl	$115, %esi
	movl	$4, %edx
	movq	%r15, %rdi
	movq	%r15, %r12
.Ltmp142:
	#DEBUG_VALUE: mpeg2_frame_ME:iminr <- [R12+0]
	callq	_KLoad0
	.loc	1 11649 22              # mpeg2.c:11649:22
	movl	-60(%rbp), %eax
	sarl	%eax
	.loc	1 11649 11 is_stmt 0    # mpeg2.c:11649:11
	movslq	%eax, %r14
	movl	$mpeg2_width, %edi
	movl	$116, %esi
	movl	$4, %edx
	callq	_KLoad0
	movslq	mpeg2_width(%rip), %r15
	movl	$117, %esi
	movl	$4, %edx
	movq	%r13, %rbx
.Ltmp143:
	#DEBUG_VALUE: mpeg2_frame_ME:jminr <- [RBX+0]
	movq	%rbx, %rdi
	callq	_KLoad0
	.loc	1 11649 53              # mpeg2.c:11649:53
	movl	-64(%rbp), %eax
	sarl	%eax
	.loc	1 11649 11              # mpeg2.c:11649:11
	movslq	%eax, %r13
	.loc	1 11649 37              # mpeg2.c:11649:37
	imulq	%r15, %r13
	.loc	1 11649 11              # mpeg2.c:11649:11
	addq	%r14, %r13
	addq	-256(%rbp), %r13        # 8-byte Folded Reload
	movl	$mpeg2_width, %edi
	movl	$118, %esi
	movl	$4, %edx
	callq	_KLoad0
	.loc	1 11650 11 is_stmt 1    # mpeg2.c:11650:11
	movl	mpeg2_width(%rip), %r14d
	movl	$119, %esi
	movl	$4, %edx
	movq	%r12, %rdi
.Ltmp144:
	#DEBUG_VALUE: mpeg2_frame_ME:iminr <- undef
	callq	_KLoad0
	.loc	1 11650 24 is_stmt 0    # mpeg2.c:11650:24
	movl	-60(%rbp), %r15d
	andl	$1, %r15d
	movl	$120, %esi
	movl	$4, %edx
	movq	%rbx, %rdi
.Ltmp145:
	#DEBUG_VALUE: mpeg2_frame_ME:jminr <- undef
	callq	_KLoad0
	.loc	1 11650 35              # mpeg2.c:11650:35
	movl	-64(%rbp), %r12d
	andl	$1, %r12d
	movl	$2, (%rsp)
	movl	$123, %edi
	movl	$120, %esi
	movl	$1, %edx
	movl	$10, %ecx
	movl	$3, %r8d
	movl	$12, %r9d
	callq	_KTimestamp3
	movabsq	$1722607004140320941, %rdi # imm = 0x17E7EDF1896238AD
	xorl	%esi, %esi
	callq	_KPrepCall
	callq	_KEnqArgConst
	movl	$123, %edi
	callq	_KEnqArg
	movl	$2, (%rsp)
	movl	$122, %edi
	movl	$119, %esi
	movl	$1, %edx
	movl	$10, %ecx
	movl	$3, %r8d
	movl	$12, %r9d
	callq	_KTimestamp3
	movl	$122, %edi
	callq	_KEnqArg
	movl	$118, %edi
	movl	$118, %esi
	xorl	%edx, %edx
	callq	_KTimestamp1
	movl	$118, %edi
	callq	_KEnqArg
	movl	$121, %edi
	callq	_KLinkReturn
	movl	$16, %r9d
	.loc	1 11648 9 is_stmt 1     # mpeg2.c:11648:9
	movq	%r13, %rdi
	movq	-232(%rbp), %rsi        # 8-byte Reload
.Ltmp146:
	#DEBUG_VALUE: mpeg2_frame_ME:mb <- undef
	movl	%r14d, %edx
	movl	%r15d, %ecx
	movl	%r12d, %r8d
	callq	mpeg2_dist2
	movl	%eax, -280(%rbp)        # 4-byte Spill
.Ltmp147:
	#DEBUG_VALUE: mpeg2_frame_ME:vmcr <- [RBP+-280]
	#DEBUG_VALUE: mpeg2_frame_ME:vmcr <- undef
	#DEBUG_VALUE: mpeg2_frame_ME:vmc <- [RBP+-280]
	#DEBUG_VALUE: mpeg2_frame_ME:vmc <- undef
	movl	$124, %esi
	movl	$4, %edx
	leaq	-52(%rbp), %rdi
	callq	_KLoad0
	.loc	1 11655 22              # mpeg2.c:11655:22
	movl	-52(%rbp), %eax
	sarl	%eax
	.loc	1 11655 11 is_stmt 0    # mpeg2.c:11655:11
	movslq	%eax, %r14
	movl	$mpeg2_width, %edi
	movl	$125, %esi
	movl	$4, %edx
	callq	_KLoad0
	movslq	mpeg2_width(%rip), %rbx
	movl	$126, %esi
	movl	$4, %edx
	leaq	-56(%rbp), %rdi
	callq	_KLoad0
	.loc	1 11655 53              # mpeg2.c:11655:53
	movl	-56(%rbp), %eax
	sarl	%eax
	.loc	1 11655 11              # mpeg2.c:11655:11
	movslq	%eax, %r12
	.loc	1 11655 37              # mpeg2.c:11655:37
	imulq	%rbx, %r12
	.loc	1 11655 11              # mpeg2.c:11655:11
	addq	%r14, %r12
	addq	-240(%rbp), %r12        # 8-byte Folded Reload
	movl	$127, %esi
	movl	$4, %edx
	leaq	-60(%rbp), %rdi
	callq	_KLoad0
	.loc	1 11656 22 is_stmt 1    # mpeg2.c:11656:22
	movl	-60(%rbp), %eax
	sarl	%eax
	.loc	1 11656 11 is_stmt 0    # mpeg2.c:11656:11
	movslq	%eax, %r14
	movl	$mpeg2_width, %edi
	movl	$128, %esi
	movl	$4, %edx
	callq	_KLoad0
	movslq	mpeg2_width(%rip), %rbx
	movl	$129, %esi
	movl	$4, %edx
	leaq	-64(%rbp), %r13
.Ltmp148:
	#DEBUG_VALUE: mpeg2_frame_ME:jminr <- [R13+0]
	movq	%r13, %rdi
	callq	_KLoad0
	.loc	1 11656 53              # mpeg2.c:11656:53
	movl	-64(%rbp), %eax
	sarl	%eax
	.loc	1 11656 11              # mpeg2.c:11656:11
	movslq	%eax, %r15
	.loc	1 11656 37              # mpeg2.c:11656:37
	imulq	%rbx, %r15
	.loc	1 11656 11              # mpeg2.c:11656:11
	addq	%r14, %r15
	addq	-256(%rbp), %r15        # 8-byte Folded Reload
	movl	$mpeg2_width, %edi
	movl	$130, %esi
	movl	$4, %edx
	callq	_KLoad0
	.loc	1 11657 15 is_stmt 1    # mpeg2.c:11657:15
	movl	mpeg2_width(%rip), %eax
	movl	%eax, -240(%rbp)        # 4-byte Spill
	movl	$131, %esi
	movl	$4, %edx
	leaq	-52(%rbp), %rdi
	callq	_KLoad0
	.loc	1 11657 28 is_stmt 0    # mpeg2.c:11657:28
	movl	-52(%rbp), %eax
	andl	$1, %eax
	movl	%eax, -256(%rbp)        # 4-byte Spill
	movl	$132, %esi
	movl	$4, %edx
	leaq	-56(%rbp), %rdi
	callq	_KLoad0
	.loc	1 11657 39              # mpeg2.c:11657:39
	movl	-56(%rbp), %ebx
	andl	$1, %ebx
	movl	$133, %esi
	movl	$4, %edx
	leaq	-60(%rbp), %rdi
	callq	_KLoad0
	.loc	1 11657 50              # mpeg2.c:11657:50
	movl	-60(%rbp), %r14d
	andl	$1, %r14d
	movl	$134, %esi
	movl	$4, %edx
	movq	%r13, %rdi
	callq	_KLoad0
	.loc	1 11657 61              # mpeg2.c:11657:61
	movl	-64(%rbp), %r13d
.Ltmp149:
	andl	$1, %r13d
	movl	$1, (%rsp)
	movl	$139, %edi
	movl	$10, %esi
	movl	$3, %edx
	movl	$12, %ecx
	movl	$2, %r8d
	movl	$134, %r9d
	callq	_KTimestamp3
	movabsq	$2538569487790500697, %rdi # imm = 0x233ACF7FCD65EB59
	xorl	%esi, %esi
	callq	_KPrepCall
	callq	_KEnqArgConst
	movl	$139, %edi
	callq	_KEnqArg
	movl	$1, (%rsp)
	movl	$138, %edi
	movl	$10, %esi
	movl	$3, %edx
	movl	$12, %ecx
	movl	$2, %r8d
	movl	$133, %r9d
	callq	_KTimestamp3
	movl	$138, %edi
	callq	_KEnqArg
	movl	$1, (%rsp)
	movl	$137, %edi
	movl	$10, %esi
	movl	$3, %edx
	movl	$12, %ecx
	movl	$2, %r8d
	movl	$132, %r9d
	callq	_KTimestamp3
	movl	$137, %edi
	callq	_KEnqArg
	movl	$1, (%rsp)
	movl	$136, %edi
	movl	$10, %esi
	movl	$3, %edx
	movl	$12, %ecx
	movl	$2, %r8d
	movl	$131, %r9d
	callq	_KTimestamp3
	movl	$136, %edi
	callq	_KEnqArg
	movl	$130, %edi
	movl	$130, %esi
	xorl	%edx, %edx
	callq	_KTimestamp1
	movl	$130, %edi
	callq	_KEnqArg
	movl	$135, %edi
	callq	_KLinkReturn
	.loc	1 11654 9 is_stmt 1     # mpeg2.c:11654:9
	movl	%r13d, 8(%rsp)
	movl	%r14d, (%rsp)
	movl	$16, 16(%rsp)
	movq	%r12, %rdi
	movq	%r15, %rsi
	movq	-232(%rbp), %rdx        # 8-byte Reload
	movl	-240(%rbp), %ecx        # 4-byte Reload
	movl	-256(%rbp), %r8d        # 4-byte Reload
	movl	%ebx, %r9d
	movl	-264(%rbp), %ebx        # 4-byte Reload
.Ltmp150:
	#DEBUG_VALUE: mpeg2_frame_ME:vmcf <- EBX
	callq	mpeg2_bdist2
	movl	%eax, %r14d
.Ltmp151:
	#DEBUG_VALUE: mpeg2_frame_ME:vmci <- R14D
	#DEBUG_VALUE: mpeg2_frame_ME:vmc <- R14D
	movl	$2, 16(%rsp)
	movl	$12, 8(%rsp)
	movl	$3, (%rsp)
	movl	$391, %edi              # imm = 0x187
	movl	$121, %esi
	movl	$1, %edx
	movl	$108, %ecx
	movl	$1, %r8d
	movl	$10, %r9d
	callq	_KTimestamp4
	movl	$135, %edi
	movl	$135, %esi
	xorl	%edx, %edx
	callq	_KTimestamp1
	movl	$121, %edi
	movl	$121, %esi
	xorl	%edx, %edx
	callq	_KTimestamp1
	movl	$108, %edi
	movl	$108, %esi
	xorl	%edx, %edx
	callq	_KTimestamp1
	callq	_KPopCDep
	.loc	1 11665 14              # mpeg2.c:11665:14
.Ltmp152:
	cmpl	-280(%rbp), %ebx        # 4-byte Folded Reload
.Ltmp153:
	#DEBUG_VALUE: mpeg2_frame_ME:vmcr <- [RBP+-280]
	jg	.LBB3_35
.Ltmp154:
# BB#33:                                # %land.lhs.true225
	#DEBUG_VALUE: mpeg2_frame_ME:i <- [RBP+-244]
	#DEBUG_VALUE: mpeg2_frame_ME:mbi <- undef
	#DEBUG_VALUE: mpeg2_frame_ME:var <- [RBP+-224]
	#DEBUG_VALUE: mpeg2_frame_ME:j <- [RBP+-272]
	#DEBUG_VALUE: mpeg2_frame_ME:vmc <- R14D
	#DEBUG_VALUE: mpeg2_frame_ME:vmcf <- EBX
	#DEBUG_VALUE: mpeg2_frame_ME:vmcr <- [RBP+-280]
	#DEBUG_VALUE: mpeg2_frame_ME:vmci <- R14D
	movl	$391, %edi              # imm = 0x187
	callq	_KPushCDep
	movl	$1, %edi
	callq	_KWork
	movl	$1, 32(%rsp)
	movl	$135, 24(%rsp)
	movl	$3, 16(%rsp)
	movl	$12, 8(%rsp)
	movl	$4, (%rsp)
	movl	$390, %r13d             # imm = 0x186
	movl	$108, %r12d
	movl	$390, %edi              # imm = 0x186
	movl	$121, %esi
	movl	$2, %edx
	movl	$108, %ecx
	movl	$2, %r8d
	movl	$10, %r9d
	callq	_KTimestamp5
	callq	_KPopCDep
	.loc	1 11665 34 is_stmt 0    # mpeg2.c:11665:34
	cmpl	%r14d, %ebx
	jle	.LBB3_34
.Ltmp155:
.LBB3_35:                               # %if.else229
	#DEBUG_VALUE: mpeg2_frame_ME:i <- [RBP+-244]
	#DEBUG_VALUE: mpeg2_frame_ME:mbi <- undef
	#DEBUG_VALUE: mpeg2_frame_ME:var <- [RBP+-224]
	#DEBUG_VALUE: mpeg2_frame_ME:j <- [RBP+-272]
	#DEBUG_VALUE: mpeg2_frame_ME:vmc <- R14D
	#DEBUG_VALUE: mpeg2_frame_ME:vmcr <- [RBP+-280]
	#DEBUG_VALUE: mpeg2_frame_ME:vmci <- R14D
	movl	$391, %edi              # imm = 0x187
	callq	_KPushCDep
	movl	$1, %edi
	callq	_KWork
	movl	$1, 32(%rsp)
	movl	$135, 24(%rsp)
	movl	$3, 16(%rsp)
	movl	$12, 8(%rsp)
	movl	$4, (%rsp)
	movl	$389, %r15d             # imm = 0x185
	movl	$121, %r12d
	movl	$389, %edi              # imm = 0x185
	movl	$121, %esi
	movl	$2, %edx
	movl	$108, %ecx
	movl	$2, %r8d
	movl	$10, %r9d
	callq	_KTimestamp5
	callq	_KPopCDep
	movl	$389, %edi              # imm = 0x185
	callq	_KPushCDep
	movl	$1, %edi
	callq	_KWork
	movl	$4, %esi
	movq	56(%rbp), %rbx
.Ltmp156:
	#DEBUG_VALUE: mpeg2_frame_ME:mbi <- RBX
	movq	%rbx, %rdi
	callq	_KStoreConst
	movl	-280(%rbp), %eax        # 4-byte Reload
.Ltmp157:
	#DEBUG_VALUE: mpeg2_frame_ME:vmcr <- EAX
	.loc	1 11670 12 is_stmt 1    # mpeg2.c:11670:12
	cmpl	%r14d, %eax
	jle	.LBB3_36
.Ltmp158:
# BB#37:                                # %if.else233
	#DEBUG_VALUE: mpeg2_frame_ME:i <- [RBP+-244]
	#DEBUG_VALUE: mpeg2_frame_ME:mbi <- RBX
	#DEBUG_VALUE: mpeg2_frame_ME:var <- [RBP+-224]
	#DEBUG_VALUE: mpeg2_frame_ME:j <- [RBP+-272]
	#DEBUG_VALUE: mpeg2_frame_ME:vmc <- R14D
	#DEBUG_VALUE: mpeg2_frame_ME:vmci <- R14D
	.loc	1 11675 9               # mpeg2.c:11675:9
	movl	$12, (%rbx)
	callq	_KPopCDep
	movl	$135, %r12d
	jmp	.LBB3_38
.Ltmp159:
.LBB3_5:                                # %if.else15
	#DEBUG_VALUE: mpeg2_frame_ME:oldorg <- [RBP+-264]
	#DEBUG_VALUE: mpeg2_frame_ME:oldref <- [RBP+-240]
	#DEBUG_VALUE: mpeg2_frame_ME:cur <- [RBP+-288]
	#DEBUG_VALUE: mpeg2_frame_ME:i <- [RBP+-244]
	#DEBUG_VALUE: mpeg2_frame_ME:mbi <- undef
	#DEBUG_VALUE: mpeg2_frame_ME:mb <- [RBP+-232]
	#DEBUG_VALUE: mpeg2_frame_ME:var <- [RBP+-224]
	#DEBUG_VALUE: mpeg2_frame_ME:j <- [RBP+-272]
	#DEBUG_VALUE: mpeg2_frame_ME:syf <- undef
	#DEBUG_VALUE: mpeg2_frame_ME:sxf <- undef
	movl	$5, %edi
	callq	_KWork
	movabsq	$-4614454168303152800, %rdi # imm = 0xBFF62A61E1F85160
	xorl	%esi, %esi
	callq	_KPrepCall
	movl	$4, %edi
	callq	_KEnqArg
	movl	$3, %edi
	callq	_KEnqArg
	movl	$2, %edi
	callq	_KEnqArg
	movl	$1, %edi
	callq	_KEnqArg
	leaq	-192(%rbp), %rax
	.loc	1 11530 7               # mpeg2.c:11530:7
.Ltmp160:
	movq	%rax, 96(%rsp)
	leaq	-176(%rbp), %rax
	movq	%rax, 88(%rsp)
	leaq	-144(%rbp), %rax
.Ltmp161:
	#DEBUG_VALUE: mpeg2_frame_ME:bsel <- [RAX+0]
	movq	%rax, 80(%rsp)
	leaq	-140(%rbp), %rax
.Ltmp162:
	#DEBUG_VALUE: mpeg2_frame_ME:tsel <- [RAX+0]
	movq	%rax, 72(%rsp)
	leaq	-128(%rbp), %rax
.Ltmp163:
	#DEBUG_VALUE: mpeg2_frame_ME:dmcfield <- [RAX+0]
	movq	%rax, 64(%rsp)
	leaq	-116(%rbp), %r12
.Ltmp164:
	#DEBUG_VALUE: mpeg2_frame_ME:dmc <- [R12+0]
	movq	%r12, 56(%rsp)
	leaq	-80(%rbp), %rax
.Ltmp165:
	#DEBUG_VALUE: mpeg2_frame_ME:jminb <- [RAX+0]
	movq	%rax, 48(%rsp)
	leaq	-76(%rbp), %rax
.Ltmp166:
	#DEBUG_VALUE: mpeg2_frame_ME:iminb <- [RAX+0]
	movq	%rax, 40(%rsp)
	leaq	-72(%rbp), %rax
.Ltmp167:
	#DEBUG_VALUE: mpeg2_frame_ME:jmint <- [RAX+0]
	movq	%rax, 32(%rsp)
	leaq	-68(%rbp), %rax
.Ltmp168:
	#DEBUG_VALUE: mpeg2_frame_ME:imint <- [RAX+0]
	movq	%rax, 24(%rsp)
	leaq	-48(%rbp), %rax
.Ltmp169:
	#DEBUG_VALUE: mpeg2_frame_ME:jmin <- [RAX+0]
	movq	%rax, 16(%rsp)
	leaq	-44(%rbp), %rax
.Ltmp170:
	#DEBUG_VALUE: mpeg2_frame_ME:imin <- [RAX+0]
	movq	%rax, 8(%rsp)
	movl	32(%rbp), %eax
.Ltmp171:
	movl	%eax, (%rsp)
	movq	-264(%rbp), %rdi        # 8-byte Reload
	movq	-240(%rbp), %rsi        # 8-byte Reload
	movq	-232(%rbp), %rdx        # 8-byte Reload
	movl	-244(%rbp), %ecx        # 4-byte Reload
	movq	-272(%rbp), %r15        # 8-byte Reload
.Ltmp172:
	#DEBUG_VALUE: mpeg2_frame_ME:j <- R15D
	movl	%r15d, %r8d
	movl	24(%rbp), %r9d
	callq	mpeg2_frame_estimate
	movl	$mpeg2_M, %edi
	movl	$26, %esi
	movl	$4, %edx
	callq	_KLoad0
	.loc	1 11534 12              # mpeg2.c:11534:12
.Ltmp173:
	movl	mpeg2_M(%rip), %ebx
	callq	_KPopCDep
	movl	$2, (%rsp)
	movl	$438, %edi              # imm = 0x1B6
	movl	$26, %esi
	movl	$1, %edx
	movl	$10, %ecx
	movl	$3, %r8d
	movl	$12, %r9d
	callq	_KTimestamp3
.Ltmp174:
	.loc	1 11534 12 is_stmt 0    # mpeg2.c:11534:12
	cmpl	$1, %ebx
	jne	.LBB3_7
.Ltmp175:
# BB#6:                                 # %if.then18
	#DEBUG_VALUE: mpeg2_frame_ME:oldref <- [RBP+-240]
	#DEBUG_VALUE: mpeg2_frame_ME:cur <- [RBP+-288]
	#DEBUG_VALUE: mpeg2_frame_ME:i <- [RBP+-244]
	#DEBUG_VALUE: mpeg2_frame_ME:mbi <- undef
	#DEBUG_VALUE: mpeg2_frame_ME:mb <- [RBP+-232]
	#DEBUG_VALUE: mpeg2_frame_ME:var <- [RBP+-224]
	#DEBUG_VALUE: mpeg2_frame_ME:j <- R15D
	#DEBUG_VALUE: mpeg2_frame_ME:dmc <- [R12+0]
	movl	$438, %edi              # imm = 0x1B6
	callq	_KPushCDep
	movl	$1, %edi
	callq	_KWork
	.loc	1 11536 26 is_stmt 1    # mpeg2.c:11536:26
.Ltmp176:
	movl	%r15d, %ebx
	sarl	%ebx
	movabsq	$-8468710784070332098, %rdi # imm = 0x8A79186939F7D13E
	xorl	%esi, %esi
	callq	_KPrepCall
	movl	$3, 16(%rsp)
	movl	$12, 8(%rsp)
	movl	$4, (%rsp)
	movl	$27, %edi
	movl	$2, %esi
	movl	$1, %edx
	movl	$26, %ecx
	movl	$2, %r8d
	movl	$10, %r9d
	callq	_KTimestamp4
	movl	$27, %edi
	callq	_KEnqArg
	movl	$1, %edi
	callq	_KEnqArg
	leaq	-216(%rbp), %rax
.Ltmp177:
	#DEBUG_VALUE: mpeg2_frame_ME:vmc_dp <- [RAX+0]
	.loc	1 11535 9               # mpeg2.c:11535:9
	movq	%rax, 40(%rsp)
	leaq	-212(%rbp), %rax
.Ltmp178:
	#DEBUG_VALUE: mpeg2_frame_ME:dmc_dp <- [RAX+0]
	movq	%rax, 32(%rsp)
	leaq	-208(%rbp), %rax
.Ltmp179:
	#DEBUG_VALUE: mpeg2_frame_ME:jmindmv <- [RAX+0]
	movq	%rax, 24(%rsp)
	leaq	-204(%rbp), %rax
.Ltmp180:
	#DEBUG_VALUE: mpeg2_frame_ME:imindmv <- [RAX+0]
	movq	%rax, 16(%rsp)
	leaq	-200(%rbp), %rax
.Ltmp181:
	#DEBUG_VALUE: mpeg2_frame_ME:jmindp <- [RAX+0]
	movq	%rax, 8(%rsp)
	leaq	-196(%rbp), %rax
.Ltmp182:
	#DEBUG_VALUE: mpeg2_frame_ME:imindp <- [RAX+0]
	movq	%rax, (%rsp)
	leaq	-176(%rbp), %r8
	leaq	-192(%rbp), %r9
	movq	-240(%rbp), %rdi        # 8-byte Reload
	movq	-232(%rbp), %rsi        # 8-byte Reload
	movl	-244(%rbp), %edx        # 4-byte Reload
	movl	%ebx, %ecx
	callq	mpeg2_dpframe_estimate
	callq	_KPopCDep
.Ltmp183:
.LBB3_7:                                # %if.end
	#DEBUG_VALUE: mpeg2_frame_ME:oldref <- [RBP+-240]
	#DEBUG_VALUE: mpeg2_frame_ME:cur <- [RBP+-288]
	#DEBUG_VALUE: mpeg2_frame_ME:i <- [RBP+-244]
	#DEBUG_VALUE: mpeg2_frame_ME:mbi <- undef
	#DEBUG_VALUE: mpeg2_frame_ME:mb <- [RBP+-232]
	#DEBUG_VALUE: mpeg2_frame_ME:var <- [RBP+-224]
	#DEBUG_VALUE: mpeg2_frame_ME:j <- R15D
	#DEBUG_VALUE: mpeg2_frame_ME:dmc <- [R12+0]
	movl	$384, %edi              # imm = 0x180
	callq	_KPushCDep
	movl	$mpeg2_M, %edi
	movl	$28, %esi
	movl	$4, %edx
	callq	_KLoad0
	movl	$5, %edi
	callq	_KWork
	.loc	1 11540 14              # mpeg2.c:11540:14
.Ltmp184:
	movl	mpeg2_M(%rip), %ebx
	movl	$1, (%rsp)
	movl	$385, %edi              # imm = 0x181
	movl	$10, %esi
	movl	$3, %edx
	movl	$12, %ecx
	movl	$2, %r8d
	movl	$28, %r9d
	callq	_KTimestamp3
	callq	_KPopCDep
	cmpl	$1, %ebx
	movq	56(%rbp), %r13
.Ltmp185:
	#DEBUG_VALUE: mpeg2_frame_ME:mbi <- R13
	jne	.LBB3_8
.Ltmp186:
# BB#11:                                # %land.lhs.true
	#DEBUG_VALUE: mpeg2_frame_ME:oldref <- [RBP+-240]
	#DEBUG_VALUE: mpeg2_frame_ME:cur <- [RBP+-288]
	#DEBUG_VALUE: mpeg2_frame_ME:i <- [RBP+-244]
	#DEBUG_VALUE: mpeg2_frame_ME:mbi <- R13
	#DEBUG_VALUE: mpeg2_frame_ME:mb <- [RBP+-232]
	#DEBUG_VALUE: mpeg2_frame_ME:var <- [RBP+-224]
	#DEBUG_VALUE: mpeg2_frame_ME:j <- R15D
	movl	$385, %edi              # imm = 0x181
	callq	_KPushCDep
	leaq	-212(%rbp), %rdi
.Ltmp187:
	#DEBUG_VALUE: mpeg2_frame_ME:dmc_dp <- [RDI+0]
	movl	$29, %esi
	movl	$4, %edx
	callq	_KLoad0
	movl	$9, %edi
.Ltmp188:
	callq	_KWork
	.loc	1 11540 34 is_stmt 0 discriminator 1 # mpeg2.c:11540:34
	movl	-212(%rbp), %r15d
.Ltmp189:
	leaq	-116(%rbp), %r14
.Ltmp190:
	#DEBUG_VALUE: mpeg2_frame_ME:dmc <- [R14+0]
	movl	$30, %esi
	movl	$4, %edx
	movq	%r14, %rdi
	callq	_KLoad0
.Ltmp191:
	.loc	1 11540 12              # mpeg2.c:11540:12
	movl	-116(%rbp), %ebx
	movl	$1, 32(%rsp)
	movl	$29, 24(%rsp)
	movl	$2, 16(%rsp)
	movl	$28, 8(%rsp)
	movl	$3, (%rsp)
	movl	$386, %edi              # imm = 0x182
	movl	$30, %esi
	movl	$1, %edx
	movl	$10, %ecx
	movl	$4, %r8d
	movl	$12, %r9d
	callq	_KTimestamp5
	callq	_KPopCDep
	cmpl	%ebx, %r15d
	jge	.LBB3_9
.Ltmp192:
# BB#12:                                # %land.lhs.true24
	#DEBUG_VALUE: mpeg2_frame_ME:oldref <- [RBP+-240]
	#DEBUG_VALUE: mpeg2_frame_ME:cur <- [RBP+-288]
	#DEBUG_VALUE: mpeg2_frame_ME:i <- [RBP+-244]
	#DEBUG_VALUE: mpeg2_frame_ME:mbi <- R13
	#DEBUG_VALUE: mpeg2_frame_ME:mb <- [RBP+-232]
	#DEBUG_VALUE: mpeg2_frame_ME:var <- [RBP+-224]
	#DEBUG_VALUE: mpeg2_frame_ME:j <- R15D
	#DEBUG_VALUE: mpeg2_frame_ME:j <- [RBP+-272]
	#DEBUG_VALUE: mpeg2_frame_ME:dmc <- [R14+0]
	movl	$386, %r12d             # imm = 0x182
	movl	$386, %edi              # imm = 0x182
	callq	_KPushCDep
	leaq	-212(%rbp), %rdi
.Ltmp193:
	#DEBUG_VALUE: mpeg2_frame_ME:dmc_dp <- [RDI+0]
	movl	$31, %esi
	movl	$4, %edx
	callq	_KLoad0
	movl	$9, %edi
.Ltmp194:
	callq	_KWork
	.loc	1 11540 54 discriminator 2 # mpeg2.c:11540:54
.Ltmp195:
	movl	-212(%rbp), %r15d
	leaq	-128(%rbp), %rdi
.Ltmp196:
	#DEBUG_VALUE: mpeg2_frame_ME:dmcfield <- [RDI+0]
	movl	$32, %esi
	movl	$4, %edx
	callq	_KLoad0
.Ltmp197:
	.loc	1 11540 12              # mpeg2.c:11540:12
	movl	-128(%rbp), %ebx
	movl	$1, 64(%rsp)
	movl	$32, 56(%rsp)
	movl	$1, 48(%rsp)
	movl	$31, 40(%rsp)
	movl	$2, 32(%rsp)
	movl	$29, 24(%rsp)
	movl	$3, 16(%rsp)
	movl	$28, 8(%rsp)
	movl	$4, (%rsp)
	movl	$387, %eax              # imm = 0x183
	movq	%rax, -256(%rbp)        # 8-byte Spill
	movl	$387, %edi              # imm = 0x183
.Ltmp198:
	movl	$30, %esi
	movl	$2, %edx
	movl	$10, %ecx
	movl	$5, %r8d
	movl	$12, %r9d
	callq	_KTimestamp7
	callq	_KPopCDep
	cmpl	%ebx, %r15d
	jge	.LBB3_9
.Ltmp199:
# BB#13:                                # %if.then26
	#DEBUG_VALUE: mpeg2_frame_ME:oldref <- [RBP+-240]
	#DEBUG_VALUE: mpeg2_frame_ME:i <- [RBP+-244]
	#DEBUG_VALUE: mpeg2_frame_ME:mbi <- R13
	#DEBUG_VALUE: mpeg2_frame_ME:mb <- [RBP+-232]
	#DEBUG_VALUE: mpeg2_frame_ME:var <- [RBP+-224]
	#DEBUG_VALUE: mpeg2_frame_ME:j <- [RBP+-272]
	movl	$387, %edi              # imm = 0x183
	callq	_KPushCDep
	movl	$10, %edi
	callq	_KWork
	.loc	1 11541 9 is_stmt 1     # mpeg2.c:11541:9
.Ltmp200:
	leaq	4(%r13), %rdi
	movl	$4, %esi
	callq	_KStoreConst
	movl	$3, 4(%r13)
.Ltmp201:
	#DEBUG_VALUE: mpeg2_frame_ME:mbi <- [RBP+-352]
	leaq	-212(%rbp), %rdi
.Ltmp202:
	#DEBUG_VALUE: mpeg2_frame_ME:dmc_dp <- [RDI+0]
	movl	$33, %esi
	movl	$4, %edx
	callq	_KLoad0
	.loc	1 11542 15              # mpeg2.c:11542:15
	movl	-212(%rbp), %r14d
.Ltmp203:
	#DEBUG_VALUE: mpeg2_frame_ME:dmc <- R14D
	xorl	%eax, %eax
	movq	%rax, -264(%rbp)        # 8-byte Spill
	movl	$33, %edi
.Ltmp204:
	movl	$33, %esi
	xorl	%edx, %edx
	callq	_KTimestamp1
	leaq	-116(%rbp), %rsi
	movl	$33, %edi
	movl	$4, %edx
	callq	_KStore
	.loc	1 11542 9 is_stmt 0     # mpeg2.c:11542:9
	movl	%r14d, -116(%rbp)
	leaq	-216(%rbp), %rdi
.Ltmp205:
	#DEBUG_VALUE: mpeg2_frame_ME:vmc_dp <- [RDI+0]
	movl	$34, %r15d
	movl	$34, %esi
	movl	$4, %edx
	callq	_KLoad0
	.loc	1 11543 15 is_stmt 1    # mpeg2.c:11543:15
	movl	-216(%rbp), %r14d
.Ltmp206:
	#DEBUG_VALUE: mpeg2_frame_ME:vmc <- R14D
	movl	$34, %edi
.Ltmp207:
	movl	$34, %esi
	xorl	%edx, %edx
	callq	_KTimestamp1
	callq	_KPopCDep
	movl	$385, %ebx              # imm = 0x181
	movq	-224(%rbp), %r13        # 8-byte Reload
.Ltmp208:
	#DEBUG_VALUE: mpeg2_frame_ME:var <- R13D
	jmp	.LBB3_19
.Ltmp209:
.LBB3_40:                               # %if.else238
	#DEBUG_VALUE: mpeg2_frame_ME:oldorg <- [RBP+-264]
	#DEBUG_VALUE: mpeg2_frame_ME:neworg <- [RBP+-280]
	#DEBUG_VALUE: mpeg2_frame_ME:oldref <- [RBP+-240]
	#DEBUG_VALUE: mpeg2_frame_ME:newref <- [RBP+-256]
	#DEBUG_VALUE: mpeg2_frame_ME:cur <- [RBP+-288]
	#DEBUG_VALUE: mpeg2_frame_ME:i <- [RBP+-244]
	#DEBUG_VALUE: mpeg2_frame_ME:mbi <- undef
	#DEBUG_VALUE: mpeg2_frame_ME:mb <- [RBP+-232]
	#DEBUG_VALUE: mpeg2_frame_ME:var <- [RBP+-224]
	#DEBUG_VALUE: mpeg2_frame_ME:j <- R12D
	#DEBUG_VALUE: mpeg2_frame_ME:syf <- undef
	#DEBUG_VALUE: mpeg2_frame_ME:sxf <- undef
	#DEBUG_VALUE: mpeg2_frame_ME:syb <- undef
	#DEBUG_VALUE: mpeg2_frame_ME:sxb <- undef
	movl	$66, %edi
	callq	_KWork
	movabsq	$-3828452562337078544, %rdi # imm = 0xCADE9AADB676E2F0
	xorl	%esi, %esi
	callq	_KPrepCall
	movl	$4, %edi
	callq	_KEnqArg
	movl	$3, %edi
	callq	_KEnqArg
	movl	$2, %edi
	callq	_KEnqArg
	movl	$1, %edi
	callq	_KEnqArg
	movq	%r12, %r14
.Ltmp210:
	#DEBUG_VALUE: mpeg2_frame_ME:j <- R14D
	movq	%r14, -272(%rbp)        # 8-byte Spill
	leaq	-192(%rbp), %r13
	.loc	1 11681 7               # mpeg2.c:11681:7
.Ltmp211:
	movq	%r13, 96(%rsp)
	leaq	-176(%rbp), %r15
	movq	%r15, 88(%rsp)
	leaq	-152(%rbp), %rax
.Ltmp212:
	#DEBUG_VALUE: mpeg2_frame_ME:bself <- [RAX+0]
	movq	%rax, 80(%rsp)
	leaq	-148(%rbp), %rax
.Ltmp213:
	#DEBUG_VALUE: mpeg2_frame_ME:tself <- [RAX+0]
	movq	%rax, 72(%rsp)
.Ltmp214:
	#DEBUG_VALUE: mpeg2_frame_ME:tself <- undef
	leaq	-132(%rbp), %rax
.Ltmp215:
	#DEBUG_VALUE: mpeg2_frame_ME:dmcfieldf <- [RAX+0]
	movq	%rax, -312(%rbp)        # 8-byte Spill
	movq	%rax, 64(%rsp)
.Ltmp216:
	#DEBUG_VALUE: mpeg2_frame_ME:dmcfieldf <- [RBP+-312]
	leaq	-120(%rbp), %rax
.Ltmp217:
	#DEBUG_VALUE: mpeg2_frame_ME:dmcf <- [RAX+0]
	movq	%rax, -304(%rbp)        # 8-byte Spill
	movq	%rax, 56(%rsp)
.Ltmp218:
	#DEBUG_VALUE: mpeg2_frame_ME:dmcf <- [RBP+-304]
	leaq	-96(%rbp), %rax
.Ltmp219:
	#DEBUG_VALUE: mpeg2_frame_ME:jminbf <- [RAX+0]
	movq	%rax, 48(%rsp)
	leaq	-92(%rbp), %rax
.Ltmp220:
	#DEBUG_VALUE: mpeg2_frame_ME:iminbf <- [RAX+0]
	movq	%rax, 40(%rsp)
	leaq	-88(%rbp), %rax
.Ltmp221:
	#DEBUG_VALUE: mpeg2_frame_ME:jmintf <- [RAX+0]
	movq	%rax, 32(%rsp)
	leaq	-84(%rbp), %rax
.Ltmp222:
	#DEBUG_VALUE: mpeg2_frame_ME:imintf <- [RAX+0]
	movq	%rax, 24(%rsp)
.Ltmp223:
	#DEBUG_VALUE: mpeg2_frame_ME:imintf <- undef
	leaq	-56(%rbp), %rax
.Ltmp224:
	#DEBUG_VALUE: mpeg2_frame_ME:jminf <- [RAX+0]
	movq	%rax, 16(%rsp)
.Ltmp225:
	#DEBUG_VALUE: mpeg2_frame_ME:jminf <- undef
	leaq	-52(%rbp), %rax
.Ltmp226:
	#DEBUG_VALUE: mpeg2_frame_ME:iminf <- [RAX+0]
	movq	%rax, 8(%rsp)
.Ltmp227:
	#DEBUG_VALUE: mpeg2_frame_ME:iminf <- undef
	movl	32(%rbp), %eax
	movl	%eax, (%rsp)
	movq	-264(%rbp), %rdi        # 8-byte Reload
.Ltmp228:
	#DEBUG_VALUE: mpeg2_frame_ME:oldref <- undef
	movq	-240(%rbp), %rsi        # 8-byte Reload
.Ltmp229:
	#DEBUG_VALUE: mpeg2_frame_ME:oldref <- [RBP+-240]
	movq	-232(%rbp), %r12        # 8-byte Reload
.Ltmp230:
	#DEBUG_VALUE: mpeg2_frame_ME:mb <- R12
	movq	%r12, %rdx
	movl	-244(%rbp), %ebx        # 4-byte Reload
.Ltmp231:
	#DEBUG_VALUE: mpeg2_frame_ME:i <- EBX
	movl	%ebx, %ecx
	movl	24(%rbp), %r9d
	movl	%r14d, %r8d
	callq	mpeg2_frame_estimate
	movabsq	$-5831386845992866205, %rdi # imm = 0xAF12C08F40B5AE63
	xorl	%esi, %esi
	callq	_KPrepCall
	movl	$6, %edi
	callq	_KEnqArg
	movl	$5, %edi
	callq	_KEnqArg
	movl	$2, %edi
	callq	_KEnqArg
	movl	$1, %edi
	callq	_KEnqArg
	.loc	1 11686 7               # mpeg2.c:11686:7
	movq	%r13, 96(%rsp)
	movq	%r15, 88(%rsp)
	leaq	-160(%rbp), %rax
.Ltmp232:
	#DEBUG_VALUE: mpeg2_frame_ME:bselr <- [RAX+0]
	movq	%rax, 80(%rsp)
	leaq	-156(%rbp), %rax
.Ltmp233:
	#DEBUG_VALUE: mpeg2_frame_ME:tselr <- [RAX+0]
	movq	%rax, 72(%rsp)
	leaq	-136(%rbp), %rax
.Ltmp234:
	#DEBUG_VALUE: mpeg2_frame_ME:dmcfieldr <- [RAX+0]
	movq	%rax, 64(%rsp)
.Ltmp235:
	#DEBUG_VALUE: mpeg2_frame_ME:dmcfieldr <- undef
	leaq	-124(%rbp), %rax
.Ltmp236:
	#DEBUG_VALUE: mpeg2_frame_ME:dmcr <- [RAX+0]
	movq	%rax, 56(%rsp)
.Ltmp237:
	#DEBUG_VALUE: mpeg2_frame_ME:dmcr <- undef
	leaq	-112(%rbp), %rax
.Ltmp238:
	#DEBUG_VALUE: mpeg2_frame_ME:jminbr <- [RAX+0]
	movq	%rax, 48(%rsp)
	leaq	-108(%rbp), %rax
.Ltmp239:
	#DEBUG_VALUE: mpeg2_frame_ME:iminbr <- [RAX+0]
	movq	%rax, 40(%rsp)
	leaq	-104(%rbp), %rax
.Ltmp240:
	#DEBUG_VALUE: mpeg2_frame_ME:jmintr <- [RAX+0]
	movq	%rax, 32(%rsp)
	leaq	-100(%rbp), %rax
.Ltmp241:
	#DEBUG_VALUE: mpeg2_frame_ME:imintr <- [RAX+0]
	movq	%rax, 24(%rsp)
	leaq	-64(%rbp), %rax
.Ltmp242:
	#DEBUG_VALUE: mpeg2_frame_ME:jminr <- [RAX+0]
	movq	%rax, 16(%rsp)
.Ltmp243:
	#DEBUG_VALUE: mpeg2_frame_ME:jminr <- undef
	leaq	-60(%rbp), %r15
.Ltmp244:
	#DEBUG_VALUE: mpeg2_frame_ME:iminr <- [R15+0]
	movq	%r15, 8(%rsp)
	movl	48(%rbp), %eax
	movl	%eax, (%rsp)
	movq	-280(%rbp), %rdi        # 8-byte Reload
	movq	-256(%rbp), %r13        # 8-byte Reload
.Ltmp245:
	#DEBUG_VALUE: mpeg2_frame_ME:newref <- R13
	movq	%r13, %rsi
	movq	%r12, %rdx
.Ltmp246:
	#DEBUG_VALUE: mpeg2_frame_ME:mb <- [RBP+-232]
	movl	%ebx, %ecx
.Ltmp247:
	#DEBUG_VALUE: mpeg2_frame_ME:i <- [RBP+-244]
	movl	%r14d, %r8d
	movl	40(%rbp), %r9d
.Ltmp248:
	#DEBUG_VALUE: mpeg2_frame_ME:j <- [RBP+-272]
	callq	mpeg2_frame_estimate
	movl	$140, %esi
	movl	$4, %edx
	leaq	-52(%rbp), %rdi
	callq	_KLoad0
	.loc	1 11694 22              # mpeg2.c:11694:22
	movl	-52(%rbp), %eax
	sarl	%eax
	.loc	1 11694 11 is_stmt 0    # mpeg2.c:11694:11
	movslq	%eax, %r12
	movl	$mpeg2_width, %edi
	movl	$141, %esi
	movl	$4, %edx
	callq	_KLoad0
	movslq	mpeg2_width(%rip), %rbx
	movl	$142, %esi
	movl	$4, %edx
	leaq	-56(%rbp), %rdi
	callq	_KLoad0
	.loc	1 11694 53              # mpeg2.c:11694:53
	movl	-56(%rbp), %eax
	sarl	%eax
	.loc	1 11694 11              # mpeg2.c:11694:11
	movslq	%eax, %r14
	.loc	1 11694 37              # mpeg2.c:11694:37
	imulq	%rbx, %r14
	.loc	1 11694 11              # mpeg2.c:11694:11
	addq	%r12, %r14
	addq	-240(%rbp), %r14        # 8-byte Folded Reload
	#DEBUG_VALUE: mpeg2_frame_ME:oldref <- [RBP+-240]
	movl	$143, %esi
	movl	$4, %edx
	movq	%r15, %rdi
.Ltmp249:
	#DEBUG_VALUE: mpeg2_frame_ME:iminr <- undef
	callq	_KLoad0
	.loc	1 11695 22 is_stmt 1    # mpeg2.c:11695:22
	movl	-60(%rbp), %eax
	sarl	%eax
	.loc	1 11695 11 is_stmt 0    # mpeg2.c:11695:11
	movslq	%eax, %r12
	movl	$mpeg2_width, %edi
	movl	$144, %esi
	movl	$4, %edx
	callq	_KLoad0
	movslq	mpeg2_width(%rip), %r15
	movl	$145, %esi
	movl	$4, %edx
	leaq	-64(%rbp), %rdi
	callq	_KLoad0
	.loc	1 11695 53              # mpeg2.c:11695:53
	movl	-64(%rbp), %eax
	sarl	%eax
	.loc	1 11695 11              # mpeg2.c:11695:11
	movslq	%eax, %rbx
	.loc	1 11695 37              # mpeg2.c:11695:37
	imulq	%r15, %rbx
	.loc	1 11695 11              # mpeg2.c:11695:11
	addq	%r12, %rbx
	addq	%r13, %rbx
.Ltmp250:
	#DEBUG_VALUE: mpeg2_frame_ME:newref <- [RBP+-256]
	movl	$mpeg2_width, %edi
	movl	$146, %esi
	movl	$4, %edx
	callq	_KLoad0
	.loc	1 11696 15 is_stmt 1    # mpeg2.c:11696:15
	movl	mpeg2_width(%rip), %eax
	movl	%eax, -264(%rbp)        # 4-byte Spill
	movl	$147, %esi
	movl	$4, %edx
	leaq	-52(%rbp), %rdi
	callq	_KLoad0
	.loc	1 11696 28 is_stmt 0    # mpeg2.c:11696:28
	movl	-52(%rbp), %eax
	andl	$1, %eax
	movl	%eax, -280(%rbp)        # 4-byte Spill
	movl	$148, %esi
	movl	$4, %edx
	leaq	-56(%rbp), %rdi
	callq	_KLoad0
	.loc	1 11696 39              # mpeg2.c:11696:39
	movl	-56(%rbp), %r12d
	andl	$1, %r12d
	movl	$149, %esi
	movl	$4, %edx
	leaq	-60(%rbp), %rdi
	callq	_KLoad0
	.loc	1 11696 50              # mpeg2.c:11696:50
	movl	-60(%rbp), %r13d
	andl	$1, %r13d
	movl	$150, %esi
	movl	$4, %edx
	leaq	-64(%rbp), %rdi
	callq	_KLoad0
	.loc	1 11696 61              # mpeg2.c:11696:61
	movl	-64(%rbp), %r15d
	andl	$1, %r15d
	movabsq	$234840873746219820, %rdi # imm = 0x3425287CA62C32C
	xorl	%esi, %esi
	callq	_KPrepCall
	callq	_KEnqArgConst
	movl	$1, (%rsp)
	movl	$155, %edi
	movl	$10, %esi
	movl	$3, %edx
	movl	$12, %ecx
	movl	$2, %r8d
	movl	$150, %r9d
	callq	_KTimestamp3
	movl	$155, %edi
	callq	_KEnqArg
	movl	$1, (%rsp)
	movl	$154, %edi
	movl	$10, %esi
	movl	$3, %edx
	movl	$12, %ecx
	movl	$2, %r8d
	movl	$149, %r9d
	callq	_KTimestamp3
	movl	$154, %edi
	callq	_KEnqArg
	movl	$1, (%rsp)
	movl	$153, %edi
	movl	$10, %esi
	movl	$3, %edx
	movl	$12, %ecx
	movl	$2, %r8d
	movl	$148, %r9d
	callq	_KTimestamp3
	movl	$153, %edi
	callq	_KEnqArg
	movl	$1, (%rsp)
	movl	$152, %edi
	movl	$10, %esi
	movl	$3, %edx
	movl	$12, %ecx
	movl	$2, %r8d
	movl	$147, %r9d
	callq	_KTimestamp3
	movl	$152, %edi
	callq	_KEnqArg
	movl	$146, %edi
	movl	$146, %esi
	xorl	%edx, %edx
	callq	_KTimestamp1
	movl	$146, %edi
	callq	_KEnqArg
	movl	$151, %edi
	callq	_KLinkReturn
	.loc	1 11693 9 is_stmt 1     # mpeg2.c:11693:9
	movl	%r15d, 8(%rsp)
	movl	%r13d, (%rsp)
	xorl	%r15d, %r15d
	movl	$16, 16(%rsp)
	movq	%r14, %rdi
	movq	%rbx, %rsi
	movq	-232(%rbp), %rdx        # 8-byte Reload
	#DEBUG_VALUE: mpeg2_frame_ME:mb <- [RBP+-232]
	movl	-264(%rbp), %ecx        # 4-byte Reload
	movl	-280(%rbp), %r8d        # 4-byte Reload
	movl	%r12d, %r9d
	callq	mpeg2_bdist1
	movl	%eax, -264(%rbp)        # 4-byte Spill
.Ltmp251:
	#DEBUG_VALUE: mpeg2_frame_ME:dmci <- [RBP+-264]
	movl	$156, %esi
	movl	$4, %edx
	leaq	-84(%rbp), %rdi
	callq	_KLoad0
	.loc	1 11701 22              # mpeg2.c:11701:22
	movl	-84(%rbp), %ebx
	sarl	%ebx
	movl	$157, %esi
	movl	$4, %edx
	leaq	-148(%rbp), %rdi
	callq	_KLoad0
	.loc	1 11701 40 is_stmt 0    # mpeg2.c:11701:40
	movl	-148(%rbp), %r14d
	movl	$2, (%rsp)
	movl	$393, %edi              # imm = 0x189
	movl	$157, %esi
	movl	$1, %edx
	movl	$10, %ecx
	movl	$3, %r8d
	movl	$12, %r9d
	callq	_KTimestamp3
	callq	_KPopCDep
	cmpl	$0, %r14d
	.loc	1 11701 11              # mpeg2.c:11701:11
	movslq	%ebx, %r14
	movl	$0, %ebx
	je	.LBB3_42
# BB#41:                                # %cond.true266
	#DEBUG_VALUE: mpeg2_frame_ME:oldref <- [RBP+-240]
	#DEBUG_VALUE: mpeg2_frame_ME:newref <- [RBP+-256]
	#DEBUG_VALUE: mpeg2_frame_ME:cur <- [RBP+-288]
	#DEBUG_VALUE: mpeg2_frame_ME:i <- [RBP+-244]
	#DEBUG_VALUE: mpeg2_frame_ME:mbi <- undef
	#DEBUG_VALUE: mpeg2_frame_ME:mb <- [RBP+-232]
	#DEBUG_VALUE: mpeg2_frame_ME:var <- [RBP+-224]
	#DEBUG_VALUE: mpeg2_frame_ME:j <- [RBP+-272]
	#DEBUG_VALUE: mpeg2_frame_ME:dmcfieldf <- [RBP+-312]
	#DEBUG_VALUE: mpeg2_frame_ME:dmcf <- [RBP+-304]
	#DEBUG_VALUE: mpeg2_frame_ME:dmcfieldr <- undef
	#DEBUG_VALUE: mpeg2_frame_ME:dmcr <- undef
	#DEBUG_VALUE: mpeg2_frame_ME:dmci <- [RBP+-264]
	movl	$393, %edi              # imm = 0x189
	callq	_KPushCDep
	movl	$158, %r15d
	movl	$mpeg2_width, %edi
	movl	$158, %esi
	movl	$4, %edx
	callq	_KLoad0
	movl	$4, %edi
	callq	_KWork
	.loc	1 11701 48 discriminator 1 # mpeg2.c:11701:48
	movl	mpeg2_width(%rip), %ebx
	movl	$158, %edi
	movl	$158, %esi
	xorl	%edx, %edx
	callq	_KTimestamp1
	callq	_KPopCDep
.LBB3_42:                               # %cond.end268
	#DEBUG_VALUE: mpeg2_frame_ME:oldref <- [RBP+-240]
	#DEBUG_VALUE: mpeg2_frame_ME:newref <- [RBP+-256]
	#DEBUG_VALUE: mpeg2_frame_ME:cur <- [RBP+-288]
	#DEBUG_VALUE: mpeg2_frame_ME:i <- [RBP+-244]
	#DEBUG_VALUE: mpeg2_frame_ME:mbi <- undef
	#DEBUG_VALUE: mpeg2_frame_ME:mb <- [RBP+-232]
	#DEBUG_VALUE: mpeg2_frame_ME:var <- [RBP+-224]
	#DEBUG_VALUE: mpeg2_frame_ME:j <- [RBP+-272]
	#DEBUG_VALUE: mpeg2_frame_ME:dmcfieldf <- [RBP+-312]
	#DEBUG_VALUE: mpeg2_frame_ME:dmcf <- [RBP+-304]
	#DEBUG_VALUE: mpeg2_frame_ME:dmcfieldr <- undef
	#DEBUG_VALUE: mpeg2_frame_ME:dmcr <- undef
	#DEBUG_VALUE: mpeg2_frame_ME:dmci <- [RBP+-264]
	movl	$384, %edi              # imm = 0x180
	callq	_KPushCDep
	movl	$392, %edi              # imm = 0x188
	movl	$384, %edx              # imm = 0x180
	movl	$393, %ecx              # imm = 0x189
	movl	%r15d, %esi
	callq	_KPhi2To1
	movl	$22, %edi
	callq	_KWork
	.loc	1 11701 11 discriminator 4 # mpeg2.c:11701:11
.Ltmp252:
	movslq	%ebx, %rbx
	addq	%r14, %rbx
	movl	$mpeg2_width, %edi
	movl	$159, %esi
	movl	$4, %edx
	callq	_KLoad0
.Ltmp253:
	.loc	1 11702 22 is_stmt 1    # mpeg2.c:11702:22
	movl	mpeg2_width(%rip), %r14d
	leaq	-88(%rbp), %rdi
.Ltmp254:
	#DEBUG_VALUE: mpeg2_frame_ME:jmintf <- [RDI+0]
	movl	$160, %esi
	movl	$4, %edx
	callq	_KLoad0
	.loc	1 11702 45 is_stmt 0    # mpeg2.c:11702:45
	movl	-88(%rbp), %eax
	shrl	%eax
	.loc	1 11702 20              # mpeg2.c:11702:20
	imull	%r14d, %eax
	addl	%eax, %eax
	.loc	1 11701 11 is_stmt 1    # mpeg2.c:11701:11
	cltq
	addq	%rbx, %rax
	addq	-240(%rbp), %rax        # 8-byte Folded Reload
	movq	%rax, -280(%rbp)        # 8-byte Spill
	leaq	-100(%rbp), %rdi
.Ltmp255:
	#DEBUG_VALUE: mpeg2_frame_ME:imintr <- [RDI+0]
	movl	$161, %esi
	movl	$4, %edx
	callq	_KLoad0
	.loc	1 11703 22              # mpeg2.c:11703:22
	movl	-100(%rbp), %ebx
	sarl	%ebx
	leaq	-156(%rbp), %rdi
.Ltmp256:
	#DEBUG_VALUE: mpeg2_frame_ME:tselr <- [RDI+0]
	movl	$162, %esi
	movl	$4, %edx
	callq	_KLoad0
	.loc	1 11703 40 is_stmt 0    # mpeg2.c:11703:40
	movl	-156(%rbp), %r14d
	movl	$2, (%rsp)
	movl	$395, %edi              # imm = 0x18B
.Ltmp257:
	movl	$162, %esi
	movl	$1, %edx
	movl	$10, %ecx
	movl	$3, %r8d
	movl	$12, %r9d
	callq	_KTimestamp3
	callq	_KPopCDep
	cmpl	$0, %r14d
	.loc	1 11703 11              # mpeg2.c:11703:11
	movslq	%ebx, %r14
	movl	$0, %r15d
	movl	$0, %ebx
	je	.LBB3_44
# BB#43:                                # %cond.true281
	#DEBUG_VALUE: mpeg2_frame_ME:oldref <- [RBP+-240]
	#DEBUG_VALUE: mpeg2_frame_ME:newref <- [RBP+-256]
	#DEBUG_VALUE: mpeg2_frame_ME:cur <- [RBP+-288]
	#DEBUG_VALUE: mpeg2_frame_ME:i <- [RBP+-244]
	#DEBUG_VALUE: mpeg2_frame_ME:mbi <- undef
	#DEBUG_VALUE: mpeg2_frame_ME:mb <- [RBP+-232]
	#DEBUG_VALUE: mpeg2_frame_ME:var <- [RBP+-224]
	#DEBUG_VALUE: mpeg2_frame_ME:j <- [RBP+-272]
	#DEBUG_VALUE: mpeg2_frame_ME:dmcfieldf <- [RBP+-312]
	#DEBUG_VALUE: mpeg2_frame_ME:dmcf <- [RBP+-304]
	#DEBUG_VALUE: mpeg2_frame_ME:dmcfieldr <- undef
	#DEBUG_VALUE: mpeg2_frame_ME:dmcr <- undef
	#DEBUG_VALUE: mpeg2_frame_ME:dmci <- [RBP+-264]
	movl	$395, %edi              # imm = 0x18B
	callq	_KPushCDep
	movl	$163, %r15d
	movl	$mpeg2_width, %edi
	movl	$163, %esi
	movl	$4, %edx
	callq	_KLoad0
	movl	$4, %edi
	callq	_KWork
	.loc	1 11703 48 discriminator 1 # mpeg2.c:11703:48
	movl	mpeg2_width(%rip), %ebx
	movl	$163, %edi
	movl	$163, %esi
	xorl	%edx, %edx
	callq	_KTimestamp1
	callq	_KPopCDep
.LBB3_44:                               # %cond.end283
	#DEBUG_VALUE: mpeg2_frame_ME:oldref <- [RBP+-240]
	#DEBUG_VALUE: mpeg2_frame_ME:newref <- [RBP+-256]
	#DEBUG_VALUE: mpeg2_frame_ME:cur <- [RBP+-288]
	#DEBUG_VALUE: mpeg2_frame_ME:i <- [RBP+-244]
	#DEBUG_VALUE: mpeg2_frame_ME:mbi <- undef
	#DEBUG_VALUE: mpeg2_frame_ME:mb <- [RBP+-232]
	#DEBUG_VALUE: mpeg2_frame_ME:var <- [RBP+-224]
	#DEBUG_VALUE: mpeg2_frame_ME:j <- [RBP+-272]
	#DEBUG_VALUE: mpeg2_frame_ME:dmcfieldf <- [RBP+-312]
	#DEBUG_VALUE: mpeg2_frame_ME:dmcf <- [RBP+-304]
	#DEBUG_VALUE: mpeg2_frame_ME:dmcfieldr <- undef
	#DEBUG_VALUE: mpeg2_frame_ME:dmcr <- undef
	#DEBUG_VALUE: mpeg2_frame_ME:dmci <- [RBP+-264]
	movl	$384, %edi              # imm = 0x180
	callq	_KPushCDep
	movl	$394, %edi              # imm = 0x18A
	movl	$395, %edx              # imm = 0x18B
	movl	$384, %ecx              # imm = 0x180
	movl	%r15d, %esi
	callq	_KPhi2To1
	movl	$47, %edi
	callq	_KWork
	.loc	1 11703 11 discriminator 4 # mpeg2.c:11703:11
.Ltmp258:
	movslq	%ebx, %rbx
	addq	%r14, %rbx
	movl	$mpeg2_width, %edi
	movl	$164, %esi
	movl	$4, %edx
	callq	_KLoad0
.Ltmp259:
	.loc	1 11704 22 is_stmt 1    # mpeg2.c:11704:22
	movl	mpeg2_width(%rip), %r14d
	leaq	-104(%rbp), %r13
.Ltmp260:
	#DEBUG_VALUE: mpeg2_frame_ME:jmintr <- [R13+0]
	movl	$165, %esi
	movl	$4, %edx
	movq	%r13, %rdi
	callq	_KLoad0
	.loc	1 11704 45 is_stmt 0    # mpeg2.c:11704:45
	movl	-104(%rbp), %eax
	shrl	%eax
	.loc	1 11704 20              # mpeg2.c:11704:20
	imull	%r14d, %eax
	addl	%eax, %eax
	.loc	1 11703 11 is_stmt 1    # mpeg2.c:11703:11
	movslq	%eax, %r12
	addq	%rbx, %r12
	addq	-256(%rbp), %r12        # 8-byte Folded Reload
	movl	$mpeg2_width, %edi
	movl	$166, %esi
	movl	$4, %edx
	callq	_KLoad0
	.loc	1 11705 15              # mpeg2.c:11705:15
	movl	mpeg2_width(%rip), %eax
	addl	%eax, %eax
	movl	%eax, -320(%rbp)        # 4-byte Spill
	leaq	-84(%rbp), %rdi
.Ltmp261:
	#DEBUG_VALUE: mpeg2_frame_ME:imintf <- [RDI+0]
	movl	$167, %esi
	movl	$4, %edx
	callq	_KLoad0
	.loc	1 11705 33 is_stmt 0    # mpeg2.c:11705:33
	movl	-84(%rbp), %ebx
	andl	$1, %ebx
	leaq	-88(%rbp), %rdi
.Ltmp262:
	#DEBUG_VALUE: mpeg2_frame_ME:jmintf <- [RDI+0]
	movl	$168, %esi
	movl	$4, %edx
	callq	_KLoad0
	.loc	1 11705 45              # mpeg2.c:11705:45
	movl	-88(%rbp), %r15d
	andl	$1, %r15d
	leaq	-100(%rbp), %rdi
.Ltmp263:
	#DEBUG_VALUE: mpeg2_frame_ME:imintr <- [RDI+0]
	movl	$169, %esi
	movl	$4, %edx
	callq	_KLoad0
	.loc	1 11705 57              # mpeg2.c:11705:57
	movl	-100(%rbp), %r14d
	andl	$1, %r14d
	movl	$170, %esi
	movl	$4, %edx
	movq	%r13, %rdi
.Ltmp264:
	callq	_KLoad0
	.loc	1 11705 69              # mpeg2.c:11705:69
	movl	-104(%rbp), %r13d
.Ltmp265:
	andl	$1, %r13d
	movl	$1, (%rsp)
	movl	$176, %edi
	movl	$10, %esi
	movl	$3, %edx
	movl	$12, %ecx
	movl	$2, %r8d
	movl	$170, %r9d
	callq	_KTimestamp3
	movabsq	$6009618634876409486, %rdi # imm = 0x5366744EDF60568E
	xorl	%esi, %esi
	callq	_KPrepCall
	callq	_KEnqArgConst
	movl	$176, %edi
	callq	_KEnqArg
	movl	$1, (%rsp)
	movl	$175, %edi
	movl	$10, %esi
	movl	$3, %edx
	movl	$12, %ecx
	movl	$2, %r8d
	movl	$169, %r9d
	callq	_KTimestamp3
	movl	$175, %edi
	callq	_KEnqArg
	movl	$1, (%rsp)
	movl	$174, %edi
	movl	$10, %esi
	movl	$3, %edx
	movl	$12, %ecx
	movl	$2, %r8d
	movl	$168, %r9d
	callq	_KTimestamp3
	movl	$174, %edi
	callq	_KEnqArg
	movl	$1, (%rsp)
	movl	$173, %edi
	movl	$10, %esi
	movl	$3, %edx
	movl	$12, %ecx
	movl	$2, %r8d
	movl	$167, %r9d
	callq	_KTimestamp3
	movl	$173, %edi
	callq	_KEnqArg
	movl	$2, (%rsp)
	movl	$172, %edi
	movl	$10, %esi
	movl	$3, %edx
	movl	$166, %ecx
	movl	$1, %r8d
	movl	$12, %r9d
	callq	_KTimestamp3
	movl	$172, %edi
	callq	_KEnqArg
	movl	$171, %edi
	callq	_KLinkReturn
	.loc	1 11700 9 is_stmt 1     # mpeg2.c:11700:9
	movl	%r13d, 8(%rsp)
	movl	%r14d, (%rsp)
	movl	$8, 16(%rsp)
	movq	-280(%rbp), %rdi        # 8-byte Reload
	movq	%r12, %rsi
	movq	-232(%rbp), %rdx        # 8-byte Reload
	movl	-320(%rbp), %ecx        # 4-byte Reload
	movl	%ebx, %r8d
	movl	%r15d, %r9d
	callq	mpeg2_bdist1
	movl	%eax, -280(%rbp)        # 4-byte Spill
.Ltmp266:
	#DEBUG_VALUE: mpeg2_frame_ME:dmcfieldi <- [RBP+-280]
	leaq	-92(%rbp), %rdi
.Ltmp267:
	#DEBUG_VALUE: mpeg2_frame_ME:iminbf <- [RDI+0]
	movl	$177, %esi
	movl	$4, %edx
	callq	_KLoad0
	.loc	1 11711 22              # mpeg2.c:11711:22
	movl	-92(%rbp), %ebx
	sarl	%ebx
	leaq	-152(%rbp), %rdi
.Ltmp268:
	#DEBUG_VALUE: mpeg2_frame_ME:bself <- [RDI+0]
	movl	$178, %esi
	movl	$4, %edx
	callq	_KLoad0
	.loc	1 11711 40 is_stmt 0    # mpeg2.c:11711:40
	movl	-152(%rbp), %r14d
	movl	$1, (%rsp)
	movl	$397, %edi              # imm = 0x18D
.Ltmp269:
	movl	$10, %esi
	movl	$3, %edx
	movl	$12, %ecx
	movl	$2, %r8d
	movl	$178, %r9d
	callq	_KTimestamp3
	callq	_KPopCDep
	cmpl	$0, %r14d
	.loc	1 11711 11              # mpeg2.c:11711:11
	movslq	%ebx, %r14
	movl	$0, %ebx
	movl	$0, %r15d
	je	.LBB3_46
# BB#45:                                # %cond.true302
	#DEBUG_VALUE: mpeg2_frame_ME:oldref <- [RBP+-240]
	#DEBUG_VALUE: mpeg2_frame_ME:newref <- [RBP+-256]
	#DEBUG_VALUE: mpeg2_frame_ME:cur <- [RBP+-288]
	#DEBUG_VALUE: mpeg2_frame_ME:i <- [RBP+-244]
	#DEBUG_VALUE: mpeg2_frame_ME:mbi <- undef
	#DEBUG_VALUE: mpeg2_frame_ME:mb <- [RBP+-232]
	#DEBUG_VALUE: mpeg2_frame_ME:var <- [RBP+-224]
	#DEBUG_VALUE: mpeg2_frame_ME:j <- [RBP+-272]
	#DEBUG_VALUE: mpeg2_frame_ME:dmcfieldf <- [RBP+-312]
	#DEBUG_VALUE: mpeg2_frame_ME:dmcf <- [RBP+-304]
	#DEBUG_VALUE: mpeg2_frame_ME:dmcfieldr <- undef
	#DEBUG_VALUE: mpeg2_frame_ME:dmcr <- undef
	#DEBUG_VALUE: mpeg2_frame_ME:dmci <- [RBP+-264]
	#DEBUG_VALUE: mpeg2_frame_ME:dmcfieldi <- [RBP+-280]
	movl	$397, %edi              # imm = 0x18D
	callq	_KPushCDep
	movl	$179, %r15d
	movl	$mpeg2_width, %edi
	movl	$179, %esi
	movl	$4, %edx
	callq	_KLoad0
	movl	$4, %edi
	callq	_KWork
	.loc	1 11711 48 discriminator 1 # mpeg2.c:11711:48
	movl	mpeg2_width(%rip), %ebx
	movl	$179, %edi
	movl	$179, %esi
	xorl	%edx, %edx
	callq	_KTimestamp1
	callq	_KPopCDep
.LBB3_46:                               # %cond.end304
	#DEBUG_VALUE: mpeg2_frame_ME:oldref <- [RBP+-240]
	#DEBUG_VALUE: mpeg2_frame_ME:newref <- [RBP+-256]
	#DEBUG_VALUE: mpeg2_frame_ME:cur <- [RBP+-288]
	#DEBUG_VALUE: mpeg2_frame_ME:i <- [RBP+-244]
	#DEBUG_VALUE: mpeg2_frame_ME:mbi <- undef
	#DEBUG_VALUE: mpeg2_frame_ME:mb <- [RBP+-232]
	#DEBUG_VALUE: mpeg2_frame_ME:var <- [RBP+-224]
	#DEBUG_VALUE: mpeg2_frame_ME:j <- [RBP+-272]
	#DEBUG_VALUE: mpeg2_frame_ME:dmcfieldf <- [RBP+-312]
	#DEBUG_VALUE: mpeg2_frame_ME:dmcf <- [RBP+-304]
	#DEBUG_VALUE: mpeg2_frame_ME:dmcfieldr <- undef
	#DEBUG_VALUE: mpeg2_frame_ME:dmcr <- undef
	#DEBUG_VALUE: mpeg2_frame_ME:dmci <- [RBP+-264]
	#DEBUG_VALUE: mpeg2_frame_ME:dmcfieldi <- [RBP+-280]
	movl	$384, %edi              # imm = 0x180
	callq	_KPushCDep
	movl	$396, %edi              # imm = 0x18C
	movl	$384, %edx              # imm = 0x180
	movl	$397, %ecx              # imm = 0x18D
	movl	%r15d, %esi
	callq	_KPhi2To1
	movl	$22, %edi
	callq	_KWork
	.loc	1 11711 11 discriminator 4 # mpeg2.c:11711:11
.Ltmp270:
	movslq	%ebx, %rbx
	addq	%r14, %rbx
	movl	$mpeg2_width, %edi
	movl	$180, %esi
	movl	$4, %edx
	callq	_KLoad0
.Ltmp271:
	.loc	1 11712 22 is_stmt 1    # mpeg2.c:11712:22
	movl	mpeg2_width(%rip), %r14d
	leaq	-96(%rbp), %rdi
.Ltmp272:
	#DEBUG_VALUE: mpeg2_frame_ME:jminbf <- [RDI+0]
	movl	$181, %esi
	movl	$4, %edx
	callq	_KLoad0
	.loc	1 11712 45 is_stmt 0    # mpeg2.c:11712:45
	movl	-96(%rbp), %eax
	shrl	%eax
	.loc	1 11712 20              # mpeg2.c:11712:20
	imull	%r14d, %eax
	addl	%eax, %eax
	.loc	1 11711 11 is_stmt 1    # mpeg2.c:11711:11
	cltq
	addq	%rbx, %rax
	addq	-240(%rbp), %rax        # 8-byte Folded Reload
	movq	%rax, -320(%rbp)        # 8-byte Spill
	leaq	-108(%rbp), %rdi
.Ltmp273:
	#DEBUG_VALUE: mpeg2_frame_ME:iminbr <- [RDI+0]
	movl	$182, %esi
	movl	$4, %edx
	callq	_KLoad0
	.loc	1 11713 22              # mpeg2.c:11713:22
	movl	-108(%rbp), %ebx
	sarl	%ebx
	leaq	-160(%rbp), %rdi
.Ltmp274:
	#DEBUG_VALUE: mpeg2_frame_ME:bselr <- [RDI+0]
	movl	$183, %esi
	movl	$4, %edx
	callq	_KLoad0
	.loc	1 11713 40 is_stmt 0    # mpeg2.c:11713:40
	movl	-160(%rbp), %r14d
	movl	$1, (%rsp)
	movl	$399, %edi              # imm = 0x18F
.Ltmp275:
	movl	$10, %esi
	movl	$3, %edx
	movl	$12, %ecx
	movl	$2, %r8d
	movl	$183, %r9d
	callq	_KTimestamp3
	callq	_KPopCDep
	xorl	%r15d, %r15d
	cmpl	$0, %r14d
	.loc	1 11713 11              # mpeg2.c:11713:11
	movslq	%ebx, %r14
	movl	$0, %ebx
	je	.LBB3_48
# BB#47:                                # %cond.true317
	#DEBUG_VALUE: mpeg2_frame_ME:oldref <- [RBP+-240]
	#DEBUG_VALUE: mpeg2_frame_ME:newref <- [RBP+-256]
	#DEBUG_VALUE: mpeg2_frame_ME:cur <- [RBP+-288]
	#DEBUG_VALUE: mpeg2_frame_ME:i <- [RBP+-244]
	#DEBUG_VALUE: mpeg2_frame_ME:mbi <- undef
	#DEBUG_VALUE: mpeg2_frame_ME:mb <- [RBP+-232]
	#DEBUG_VALUE: mpeg2_frame_ME:var <- [RBP+-224]
	#DEBUG_VALUE: mpeg2_frame_ME:j <- [RBP+-272]
	#DEBUG_VALUE: mpeg2_frame_ME:dmcfieldf <- [RBP+-312]
	#DEBUG_VALUE: mpeg2_frame_ME:dmcf <- [RBP+-304]
	#DEBUG_VALUE: mpeg2_frame_ME:dmcfieldr <- undef
	#DEBUG_VALUE: mpeg2_frame_ME:dmcr <- undef
	#DEBUG_VALUE: mpeg2_frame_ME:dmci <- [RBP+-264]
	#DEBUG_VALUE: mpeg2_frame_ME:dmcfieldi <- [RBP+-280]
	movl	$399, %edi              # imm = 0x18F
	callq	_KPushCDep
	movl	$184, %r15d
	movl	$mpeg2_width, %edi
	movl	$184, %esi
	movl	$4, %edx
	callq	_KLoad0
	movl	$4, %edi
	callq	_KWork
	.loc	1 11713 48 discriminator 1 # mpeg2.c:11713:48
	movl	mpeg2_width(%rip), %ebx
	movl	$184, %edi
	movl	$184, %esi
	xorl	%edx, %edx
	callq	_KTimestamp1
	callq	_KPopCDep
.LBB3_48:                               # %cond.end319
	#DEBUG_VALUE: mpeg2_frame_ME:oldref <- [RBP+-240]
	#DEBUG_VALUE: mpeg2_frame_ME:newref <- [RBP+-256]
	#DEBUG_VALUE: mpeg2_frame_ME:cur <- [RBP+-288]
	#DEBUG_VALUE: mpeg2_frame_ME:i <- [RBP+-244]
	#DEBUG_VALUE: mpeg2_frame_ME:mbi <- undef
	#DEBUG_VALUE: mpeg2_frame_ME:mb <- [RBP+-232]
	#DEBUG_VALUE: mpeg2_frame_ME:var <- [RBP+-224]
	#DEBUG_VALUE: mpeg2_frame_ME:j <- [RBP+-272]
	#DEBUG_VALUE: mpeg2_frame_ME:dmcfieldf <- [RBP+-312]
	#DEBUG_VALUE: mpeg2_frame_ME:dmcf <- [RBP+-304]
	#DEBUG_VALUE: mpeg2_frame_ME:dmcfieldr <- undef
	#DEBUG_VALUE: mpeg2_frame_ME:dmcr <- undef
	#DEBUG_VALUE: mpeg2_frame_ME:dmci <- [RBP+-264]
	#DEBUG_VALUE: mpeg2_frame_ME:dmcfieldi <- [RBP+-280]
	movl	$384, %edi              # imm = 0x180
	callq	_KPushCDep
	movl	$398, %edi              # imm = 0x18E
	movl	$384, %edx              # imm = 0x180
	movl	$399, %ecx              # imm = 0x18F
	movl	%r15d, %esi
	callq	_KPhi2To1
	movl	$43, %edi
	callq	_KWork
	.loc	1 11713 11 discriminator 4 # mpeg2.c:11713:11
.Ltmp276:
	movslq	%ebx, %rbx
	addq	%r14, %rbx
	movl	$mpeg2_width, %edi
	movl	$185, %esi
	movl	$4, %edx
	callq	_KLoad0
.Ltmp277:
	.loc	1 11714 22 is_stmt 1    # mpeg2.c:11714:22
	movl	mpeg2_width(%rip), %r14d
	leaq	-112(%rbp), %rdi
.Ltmp278:
	#DEBUG_VALUE: mpeg2_frame_ME:jminbr <- [RDI+0]
	movl	$186, %esi
	movl	$4, %edx
.Ltmp279:
	#DEBUG_VALUE: mpeg2_frame_ME:jminbr <- undef
	callq	_KLoad0
	.loc	1 11714 45 is_stmt 0    # mpeg2.c:11714:45
	movl	-112(%rbp), %eax
	shrl	%eax
	.loc	1 11714 20              # mpeg2.c:11714:20
	imull	%r14d, %eax
	addl	%eax, %eax
	.loc	1 11713 11 is_stmt 1    # mpeg2.c:11713:11
	movslq	%eax, %r13
	addq	%rbx, %r13
	addq	-256(%rbp), %r13        # 8-byte Folded Reload
	movl	$mpeg2_width, %edi
	movl	$187, %esi
	movl	$4, %edx
	callq	_KLoad0
	.loc	1 11715 11              # mpeg2.c:11715:11
	movslq	mpeg2_width(%rip), %rbx
	addq	-296(%rbp), %rbx        # 8-byte Folded Reload
	addq	-288(%rbp), %rbx        # 8-byte Folded Reload
	movl	$mpeg2_width, %edi
	movl	$188, %esi
	movl	$4, %edx
	callq	_KLoad0
	.loc	1 11715 29 is_stmt 0    # mpeg2.c:11715:29
	movl	mpeg2_width(%rip), %eax
	addl	%eax, %eax
	movl	%eax, -328(%rbp)        # 4-byte Spill
	leaq	-92(%rbp), %rdi
.Ltmp280:
	#DEBUG_VALUE: mpeg2_frame_ME:iminbf <- [RDI+0]
	movl	$189, %esi
	movl	$4, %edx
	callq	_KLoad0
	.loc	1 11715 47              # mpeg2.c:11715:47
	movl	-92(%rbp), %eax
	andl	$1, %eax
	movl	%eax, -336(%rbp)        # 4-byte Spill
	leaq	-96(%rbp), %rdi
.Ltmp281:
	#DEBUG_VALUE: mpeg2_frame_ME:jminbf <- [RDI+0]
	movl	$190, %esi
	movl	$4, %edx
	callq	_KLoad0
	.loc	1 11715 59              # mpeg2.c:11715:59
	movl	-96(%rbp), %r15d
	andl	$1, %r15d
	leaq	-108(%rbp), %rdi
.Ltmp282:
	#DEBUG_VALUE: mpeg2_frame_ME:iminbr <- [RDI+0]
	movl	$191, %esi
	movl	$4, %edx
	callq	_KLoad0
	.loc	1 11715 71              # mpeg2.c:11715:71
	movl	-108(%rbp), %r12d
	andl	$1, %r12d
	movl	$192, %esi
	movl	$4, %edx
	leaq	-112(%rbp), %rdi
.Ltmp283:
	callq	_KLoad0
	.loc	1 11716 11 is_stmt 1    # mpeg2.c:11716:11
	movl	-112(%rbp), %r14d
	andl	$1, %r14d
	movl	$2, (%rsp)
	movl	$198, %edi
	movl	$192, %esi
	movl	$1, %edx
	movl	$10, %ecx
	movl	$3, %r8d
	movl	$12, %r9d
	callq	_KTimestamp3
	movabsq	$7379348651127505639, %rdi # imm = 0x6668B680303682E7
	xorl	%esi, %esi
	callq	_KPrepCall
	callq	_KEnqArgConst
	movl	$198, %edi
	callq	_KEnqArg
	movl	$2, (%rsp)
	movl	$197, %edi
	movl	$191, %esi
	movl	$1, %edx
	movl	$10, %ecx
	movl	$3, %r8d
	movl	$12, %r9d
	callq	_KTimestamp3
	movl	$197, %edi
	callq	_KEnqArg
	movl	$2, (%rsp)
	movl	$196, %edi
	movl	$190, %esi
	movl	$1, %edx
	movl	$10, %ecx
	movl	$3, %r8d
	movl	$12, %r9d
	callq	_KTimestamp3
	movl	$196, %edi
	callq	_KEnqArg
	movl	$2, (%rsp)
	movl	$195, %edi
	movl	$189, %esi
	movl	$1, %edx
	movl	$10, %ecx
	movl	$3, %r8d
	movl	$12, %r9d
	callq	_KTimestamp3
	movl	$195, %edi
	callq	_KEnqArg
	movl	$2, (%rsp)
	movl	$194, %edi
	movl	$188, %esi
	movl	$1, %edx
	movl	$10, %ecx
	movl	$3, %r8d
	movl	$12, %r9d
	callq	_KTimestamp3
	movl	$194, %edi
	callq	_KEnqArg
	movl	$193, %edi
	callq	_KLinkReturn
	.loc	1 11710 9               # mpeg2.c:11710:9
	movl	%r14d, 8(%rsp)
	movl	%r12d, (%rsp)
	movl	$8, 16(%rsp)
	movq	-320(%rbp), %rdi        # 8-byte Reload
	movq	%r13, %rsi
	movq	%rbx, %rdx
	movl	-328(%rbp), %ecx        # 4-byte Reload
	movl	-336(%rbp), %r8d        # 4-byte Reload
	movl	%r15d, %r9d
	callq	mpeg2_bdist1
	movl	%eax, %r12d
	.loc	1 11709 7               # mpeg2.c:11709:7
	addl	-280(%rbp), %r12d       # 4-byte Folded Reload
.Ltmp284:
	#DEBUG_VALUE: mpeg2_frame_ME:dmcfieldi <- R12D
	movl	$2, 32(%rsp)
	movl	$171, 24(%rsp)
	movl	$1, 16(%rsp)
	movl	$151, 8(%rsp)
	movl	$3, (%rsp)
	movl	$427, %edi              # imm = 0x1AB
	movl	$193, %esi
	movl	$2, %edx
	movl	$10, %ecx
	movl	$4, %r8d
	movl	$12, %r9d
	callq	_KTimestamp5
	callq	_KPopCDep
	movl	-264(%rbp), %r15d       # 4-byte Reload
.Ltmp285:
	#DEBUG_VALUE: mpeg2_frame_ME:dmci <- R15D
	.loc	1 11722 14              # mpeg2.c:11722:14
	cmpl	%r12d, %r15d
	jge	.LBB3_49
.Ltmp286:
# BB#56:                                # %land.lhs.true338
	#DEBUG_VALUE: mpeg2_frame_ME:oldref <- [RBP+-240]
	#DEBUG_VALUE: mpeg2_frame_ME:newref <- [RBP+-256]
	#DEBUG_VALUE: mpeg2_frame_ME:cur <- [RBP+-288]
	#DEBUG_VALUE: mpeg2_frame_ME:i <- [RBP+-244]
	#DEBUG_VALUE: mpeg2_frame_ME:mbi <- undef
	#DEBUG_VALUE: mpeg2_frame_ME:mb <- [RBP+-232]
	#DEBUG_VALUE: mpeg2_frame_ME:var <- [RBP+-224]
	#DEBUG_VALUE: mpeg2_frame_ME:j <- [RBP+-272]
	#DEBUG_VALUE: mpeg2_frame_ME:dmcfieldf <- [RBP+-312]
	#DEBUG_VALUE: mpeg2_frame_ME:dmcfieldr <- undef
	#DEBUG_VALUE: mpeg2_frame_ME:dmcr <- undef
	#DEBUG_VALUE: mpeg2_frame_ME:dmci <- R15D
	#DEBUG_VALUE: mpeg2_frame_ME:dmcfieldi <- R12D
	movl	$427, %edi              # imm = 0x1AB
	callq	_KPushCDep
	leaq	-120(%rbp), %rdi
.Ltmp287:
	#DEBUG_VALUE: mpeg2_frame_ME:dmcf <- [RDI+0]
	movq	%rdi, -304(%rbp)        # 8-byte Spill
	movl	$199, %esi
	movl	$4, %edx
.Ltmp288:
	#DEBUG_VALUE: mpeg2_frame_ME:dmcf <- [RBP+-304]
	callq	_KLoad0
	movl	$5, %edi
	callq	_KWork
	.loc	1 11722 12 is_stmt 0    # mpeg2.c:11722:12
	movl	-120(%rbp), %ebx
	movl	$3, 48(%rsp)
	movl	$171, 40(%rsp)
	movl	$2, 32(%rsp)
	movl	$151, 24(%rsp)
	movl	$4, 16(%rsp)
	movl	$12, 8(%rsp)
	movl	$5, (%rsp)
	movl	$426, %edi              # imm = 0x1AA
	movl	$193, %esi
	movl	$3, %edx
	movl	$199, %ecx
	movl	$1, %r8d
	movl	$10, %r9d
	callq	_KTimestamp6
	callq	_KPopCDep
	cmpl	%ebx, %r15d
	jge	.LBB3_49
.Ltmp289:
# BB#57:                                # %land.lhs.true340
	#DEBUG_VALUE: mpeg2_frame_ME:oldref <- [RBP+-240]
	#DEBUG_VALUE: mpeg2_frame_ME:newref <- [RBP+-256]
	#DEBUG_VALUE: mpeg2_frame_ME:cur <- [RBP+-288]
	#DEBUG_VALUE: mpeg2_frame_ME:i <- [RBP+-244]
	#DEBUG_VALUE: mpeg2_frame_ME:mbi <- undef
	#DEBUG_VALUE: mpeg2_frame_ME:mb <- [RBP+-232]
	#DEBUG_VALUE: mpeg2_frame_ME:var <- [RBP+-224]
	#DEBUG_VALUE: mpeg2_frame_ME:j <- [RBP+-272]
	#DEBUG_VALUE: mpeg2_frame_ME:dmcfieldf <- [RBP+-312]
	#DEBUG_VALUE: mpeg2_frame_ME:dmcf <- [RBP+-304]
	#DEBUG_VALUE: mpeg2_frame_ME:dmcfieldr <- undef
	#DEBUG_VALUE: mpeg2_frame_ME:dmcr <- undef
	#DEBUG_VALUE: mpeg2_frame_ME:dmci <- R15D
	#DEBUG_VALUE: mpeg2_frame_ME:dmcfieldi <- R12D
	movl	$426, %edi              # imm = 0x1AA
	callq	_KPushCDep
	leaq	-132(%rbp), %rdi
.Ltmp290:
	#DEBUG_VALUE: mpeg2_frame_ME:dmcfieldf <- [RDI+0]
	movl	$200, %esi
	movl	$4, %edx
	callq	_KLoad0
	movl	$5, %edi
.Ltmp291:
	callq	_KWork
	movl	-132(%rbp), %ebx
	movl	$1, 64(%rsp)
	movl	$200, 56(%rsp)
	movl	$4, 48(%rsp)
	movl	$171, 40(%rsp)
	movl	$3, 32(%rsp)
	movl	$151, 24(%rsp)
	movl	$5, 16(%rsp)
	movl	$12, 8(%rsp)
	movl	$6, (%rsp)
	movl	$425, %edi              # imm = 0x1A9
	movl	$193, %esi
	movl	$4, %edx
	movl	$199, %ecx
	movl	$2, %r8d
	movl	$10, %r9d
	callq	_KTimestamp7
	callq	_KPopCDep
	cmpl	%ebx, %r15d
	jge	.LBB3_49
.Ltmp292:
# BB#58:                                # %land.lhs.true342
	#DEBUG_VALUE: mpeg2_frame_ME:oldref <- [RBP+-240]
	#DEBUG_VALUE: mpeg2_frame_ME:newref <- [RBP+-256]
	#DEBUG_VALUE: mpeg2_frame_ME:cur <- [RBP+-288]
	#DEBUG_VALUE: mpeg2_frame_ME:i <- [RBP+-244]
	#DEBUG_VALUE: mpeg2_frame_ME:mbi <- undef
	#DEBUG_VALUE: mpeg2_frame_ME:mb <- [RBP+-232]
	#DEBUG_VALUE: mpeg2_frame_ME:var <- [RBP+-224]
	#DEBUG_VALUE: mpeg2_frame_ME:j <- [RBP+-272]
	#DEBUG_VALUE: mpeg2_frame_ME:dmcf <- [RBP+-304]
	#DEBUG_VALUE: mpeg2_frame_ME:dmcfieldr <- undef
	#DEBUG_VALUE: mpeg2_frame_ME:dmcr <- undef
	#DEBUG_VALUE: mpeg2_frame_ME:dmci <- R15D
	#DEBUG_VALUE: mpeg2_frame_ME:dmcfieldi <- R12D
	movl	$425, %edi              # imm = 0x1A9
	callq	_KPushCDep
	leaq	-124(%rbp), %rdi
.Ltmp293:
	#DEBUG_VALUE: mpeg2_frame_ME:dmcr <- [RDI+0]
	movl	$201, %esi
	movl	$4, %edx
	callq	_KLoad0
	movl	$5, %edi
.Ltmp294:
	callq	_KWork
	movl	-124(%rbp), %r14d
	movl	$1, 88(%rsp)
	movl	$201, 80(%rsp)
	movl	$2, 72(%rsp)
	movl	$200, 64(%rsp)
	movl	$5, 56(%rsp)
	movl	$171, 48(%rsp)
	movl	$4, 40(%rsp)
	movl	$151, 32(%rsp)
	movl	$6, 24(%rsp)
	movl	$12, 16(%rsp)
	movl	$7, 8(%rsp)
	movl	$10, (%rsp)
	movl	$423, %edi              # imm = 0x1A7
	movl	$8, %esi
	movl	$193, %edx
	movl	$5, %ecx
	movl	$199, %r8d
	movl	$3, %r9d
	xorl	%eax, %eax
	callq	_KTimestamp
	callq	_KPopCDep
	cmpl	%r14d, %r15d
	jge	.LBB3_49
.Ltmp295:
# BB#59:                                # %land.lhs.true344
	#DEBUG_VALUE: mpeg2_frame_ME:oldref <- [RBP+-240]
	#DEBUG_VALUE: mpeg2_frame_ME:newref <- [RBP+-256]
	#DEBUG_VALUE: mpeg2_frame_ME:cur <- [RBP+-288]
	#DEBUG_VALUE: mpeg2_frame_ME:i <- [RBP+-244]
	#DEBUG_VALUE: mpeg2_frame_ME:mbi <- undef
	#DEBUG_VALUE: mpeg2_frame_ME:mb <- [RBP+-232]
	#DEBUG_VALUE: mpeg2_frame_ME:var <- [RBP+-224]
	#DEBUG_VALUE: mpeg2_frame_ME:j <- [RBP+-272]
	#DEBUG_VALUE: mpeg2_frame_ME:dmcf <- [RBP+-304]
	#DEBUG_VALUE: mpeg2_frame_ME:dmcfieldr <- undef
	#DEBUG_VALUE: mpeg2_frame_ME:dmci <- R15D
	#DEBUG_VALUE: mpeg2_frame_ME:dmcfieldi <- R12D
	movl	$423, %edi              # imm = 0x1A7
	callq	_KPushCDep
	leaq	-136(%rbp), %rdi
.Ltmp296:
	#DEBUG_VALUE: mpeg2_frame_ME:dmcfieldr <- [RDI+0]
	movl	$202, %esi
	movl	$4, %edx
	callq	_KLoad0
	movl	$5, %edi
.Ltmp297:
	callq	_KWork
	movl	-136(%rbp), %r14d
	movl	$1, 104(%rsp)
	movl	$202, 96(%rsp)
	movl	$2, 88(%rsp)
	movl	$201, 80(%rsp)
	movl	$3, 72(%rsp)
	movl	$200, 64(%rsp)
	movl	$6, 56(%rsp)
	movl	$171, 48(%rsp)
	movl	$5, 40(%rsp)
	movl	$151, 32(%rsp)
	movl	$7, 24(%rsp)
	movl	$12, 16(%rsp)
	movl	$8, 8(%rsp)
	movl	$10, (%rsp)
	movl	$424, %edi              # imm = 0x1A8
	movl	$9, %esi
	movl	$193, %edx
	movl	$6, %ecx
	movl	$199, %r8d
	movl	$4, %r9d
	xorl	%eax, %eax
	callq	_KTimestamp
	callq	_KPopCDep
	cmpl	%r14d, %r15d
	movq	56(%rbp), %r13
.Ltmp298:
	#DEBUG_VALUE: mpeg2_frame_ME:mbi <- R13
	jge	.LBB3_50
.Ltmp299:
# BB#60:                                # %if.then346
	#DEBUG_VALUE: mpeg2_frame_ME:oldref <- [RBP+-240]
	#DEBUG_VALUE: mpeg2_frame_ME:newref <- [RBP+-256]
	#DEBUG_VALUE: mpeg2_frame_ME:i <- [RBP+-244]
	#DEBUG_VALUE: mpeg2_frame_ME:mbi <- R13
	#DEBUG_VALUE: mpeg2_frame_ME:mb <- [RBP+-232]
	#DEBUG_VALUE: mpeg2_frame_ME:var <- [RBP+-224]
	#DEBUG_VALUE: mpeg2_frame_ME:j <- [RBP+-272]
	movl	$424, %edi              # imm = 0x1A8
	callq	_KPushCDep
	movl	$58, %edi
	callq	_KWork
	movl	$4, %esi
	movq	%r13, %rdi
	callq	_KStoreConst
	.loc	1 11725 9 is_stmt 1     # mpeg2.c:11725:9
.Ltmp300:
	movl	$12, (%r13)
	.loc	1 11726 9               # mpeg2.c:11726:9
	leaq	4(%r13), %rdi
	movl	$4, %esi
	callq	_KStoreConst
	movl	$2, 4(%r13)
.Ltmp301:
	#DEBUG_VALUE: mpeg2_frame_ME:mbi <- [RBP+-352]
	leaq	-52(%rbp), %rdi
.Ltmp302:
	#DEBUG_VALUE: mpeg2_frame_ME:iminf <- [RDI+0]
	movl	$203, %esi
	movl	$4, %edx
.Ltmp303:
	#DEBUG_VALUE: mpeg2_frame_ME:iminf <- undef
	callq	_KLoad0
	.loc	1 11729 24              # mpeg2.c:11729:24
	movl	-52(%rbp), %eax
	sarl	%eax
	.loc	1 11729 13 is_stmt 0    # mpeg2.c:11729:13
	movslq	%eax, %r14
	movl	$mpeg2_width, %edi
	movl	$204, %esi
	movl	$4, %edx
	callq	_KLoad0
	movl	$423, %eax              # imm = 0x1A7
	movq	%rax, -288(%rbp)        # 8-byte Spill
	movl	$424, %eax              # imm = 0x1A8
	movq	%rax, -280(%rbp)        # 8-byte Spill
	movslq	mpeg2_width(%rip), %rbx
	leaq	-56(%rbp), %r12
.Ltmp304:
	#DEBUG_VALUE: mpeg2_frame_ME:jminf <- [R12+0]
	movl	$205, %esi
	movl	$4, %edx
	movq	%r12, %rdi
	callq	_KLoad0
	.loc	1 11729 55              # mpeg2.c:11729:55
	movl	-56(%rbp), %eax
	sarl	%eax
	.loc	1 11729 13              # mpeg2.c:11729:13
	cltq
	.loc	1 11729 39              # mpeg2.c:11729:39
	imulq	%rbx, %rax
	.loc	1 11729 13              # mpeg2.c:11729:13
	addq	%r14, %rax
.Ltmp305:
	#DEBUG_VALUE: mpeg2_frame_ME:oldref <- undef
	addq	%rax, -240(%rbp)        # 8-byte Folded Spill
	leaq	-60(%rbp), %r15
.Ltmp306:
	#DEBUG_VALUE: mpeg2_frame_ME:iminr <- [R15+0]
	movl	$206, %esi
	movl	$4, %edx
	movq	%r15, %rdi
	callq	_KLoad0
	.loc	1 11730 24 is_stmt 1    # mpeg2.c:11730:24
	movl	-60(%rbp), %eax
	sarl	%eax
	.loc	1 11730 13 is_stmt 0    # mpeg2.c:11730:13
	movslq	%eax, %r13
	movl	$mpeg2_width, %edi
	movl	$207, %esi
	movl	$4, %edx
	callq	_KLoad0
	movslq	mpeg2_width(%rip), %rbx
	leaq	-64(%rbp), %r14
.Ltmp307:
	#DEBUG_VALUE: mpeg2_frame_ME:jminr <- [R14+0]
	movl	$208, %esi
	movl	$4, %edx
	movq	%r14, %rdi
	callq	_KLoad0
	.loc	1 11730 55              # mpeg2.c:11730:55
	movl	-64(%rbp), %eax
	sarl	%eax
	.loc	1 11730 13              # mpeg2.c:11730:13
	cltq
	.loc	1 11730 39              # mpeg2.c:11730:39
	imulq	%rbx, %rax
	.loc	1 11730 13              # mpeg2.c:11730:13
	addq	%r13, %rax
	movq	-256(%rbp), %r13        # 8-byte Reload
.Ltmp308:
	#DEBUG_VALUE: mpeg2_frame_ME:newref <- R13
	addq	%rax, %r13
.Ltmp309:
	movl	$mpeg2_width, %edi
	movl	$209, %esi
	movl	$4, %edx
	callq	_KLoad0
	.loc	1 11731 17 is_stmt 1    # mpeg2.c:11731:17
	movl	mpeg2_width(%rip), %eax
	movl	%eax, -256(%rbp)        # 4-byte Spill
	movl	$210, %esi
	movl	$4, %edx
	leaq	-52(%rbp), %rdi
	callq	_KLoad0
	.loc	1 11731 30 is_stmt 0    # mpeg2.c:11731:30
	movl	-52(%rbp), %eax
	andl	$1, %eax
	movl	%eax, -264(%rbp)        # 4-byte Spill
	movl	$211, %esi
	movl	$4, %edx
	movq	%r12, %rdi
	callq	_KLoad0
	.loc	1 11731 41              # mpeg2.c:11731:41
	movl	-56(%rbp), %r12d
.Ltmp310:
	andl	$1, %r12d
	movl	$212, %esi
	movl	$4, %edx
	movq	%r15, %rdi
	callq	_KLoad0
	.loc	1 11731 52              # mpeg2.c:11731:52
	movl	-60(%rbp), %r15d
.Ltmp311:
	andl	$1, %r15d
	movl	$213, %esi
	movl	$4, %edx
	movq	%r14, %rdi
	callq	_KLoad0
	.loc	1 11731 63              # mpeg2.c:11731:63
	movl	-64(%rbp), %ebx
	andl	$1, %ebx
	movl	$1, 120(%rsp)
	movl	$213, 112(%rsp)
	movl	$2, 104(%rsp)
	movl	$202, 96(%rsp)
	movl	$3, 88(%rsp)
	movl	$201, 80(%rsp)
	movl	$4, 72(%rsp)
	movl	$200, 64(%rsp)
	movl	$7, 56(%rsp)
	movl	$171, 48(%rsp)
	movl	$6, 40(%rsp)
	movl	$151, 32(%rsp)
	movl	$8, 24(%rsp)
	movl	$12, 16(%rsp)
	movl	$9, 8(%rsp)
	movl	$10, (%rsp)
	movl	$218, %edi
	movl	$10, %esi
	movl	$193, %edx
	movl	$7, %ecx
	movl	$199, %r8d
	movl	$5, %r9d
	xorl	%eax, %eax
	callq	_KTimestamp
	movabsq	$-3262431393710897351, %rdi # imm = 0xD2B983EEB9C78739
	xorl	%esi, %esi
	callq	_KPrepCall
	callq	_KEnqArgConst
	movl	$218, %edi
	callq	_KEnqArg
	movl	$1, 120(%rsp)
	movl	$212, 112(%rsp)
	movl	$2, 104(%rsp)
	movl	$202, 96(%rsp)
	movl	$3, 88(%rsp)
	movl	$201, 80(%rsp)
	movl	$4, 72(%rsp)
	movl	$200, 64(%rsp)
	movl	$7, 56(%rsp)
	movl	$171, 48(%rsp)
	movl	$6, 40(%rsp)
	movl	$151, 32(%rsp)
	movl	$8, 24(%rsp)
	movl	$12, 16(%rsp)
	movl	$9, 8(%rsp)
	movl	$10, (%rsp)
	movl	$217, %edi
	movl	$10, %esi
	movl	$193, %edx
	movl	$7, %ecx
	movl	$199, %r8d
	movl	$5, %r9d
	xorl	%eax, %eax
	callq	_KTimestamp
	movl	$217, %edi
	callq	_KEnqArg
	movl	$1, 120(%rsp)
	movl	$211, 112(%rsp)
	movl	$2, 104(%rsp)
	movl	$202, 96(%rsp)
	movl	$3, 88(%rsp)
	movl	$201, 80(%rsp)
	movl	$4, 72(%rsp)
	movl	$200, 64(%rsp)
	movl	$7, 56(%rsp)
	movl	$171, 48(%rsp)
	movl	$6, 40(%rsp)
	movl	$151, 32(%rsp)
	movl	$8, 24(%rsp)
	movl	$12, 16(%rsp)
	movl	$9, 8(%rsp)
	movl	$10, (%rsp)
	movl	$216, %edi
	movl	$10, %esi
	movl	$193, %edx
	movl	$7, %ecx
	movl	$199, %r8d
	movl	$5, %r9d
	xorl	%eax, %eax
	callq	_KTimestamp
	movl	$216, %edi
	callq	_KEnqArg
	movl	$1, 120(%rsp)
	movl	$210, 112(%rsp)
	movl	$2, 104(%rsp)
	movl	$202, 96(%rsp)
	movl	$3, 88(%rsp)
	movl	$201, 80(%rsp)
	movl	$4, 72(%rsp)
	movl	$200, 64(%rsp)
	movl	$7, 56(%rsp)
	movl	$171, 48(%rsp)
	movl	$6, 40(%rsp)
	movl	$151, 32(%rsp)
	movl	$8, 24(%rsp)
	movl	$12, 16(%rsp)
	movl	$9, 8(%rsp)
	movl	$10, (%rsp)
	movl	$215, %edi
	movl	$10, %esi
	movl	$193, %edx
	movl	$7, %ecx
	movl	$199, %r8d
	movl	$5, %r9d
	xorl	%eax, %eax
	callq	_KTimestamp
	movl	$215, %edi
	callq	_KEnqArg
	movl	$209, %edi
	movl	$209, %esi
	xorl	%edx, %edx
	callq	_KTimestamp1
	movl	$209, %edi
	callq	_KEnqArg
	movl	$214, -296(%rbp)        # 4-byte Folded Spill
	movl	$214, %edi
	callq	_KLinkReturn
	.loc	1 11728 11 is_stmt 1    # mpeg2.c:11728:11
	movl	%ebx, 8(%rsp)
	movl	%r15d, (%rsp)
	movl	$16, 16(%rsp)
	movq	-240(%rbp), %rdi        # 8-byte Reload
	movq	%r13, %rsi
	movq	-232(%rbp), %rdx        # 8-byte Reload
	movl	-256(%rbp), %ecx        # 4-byte Reload
	movl	-264(%rbp), %r8d        # 4-byte Reload
	movl	%r12d, %r9d
	callq	mpeg2_bdist2
	movl	%eax, -264(%rbp)        # 4-byte Spill
.Ltmp312:
	#DEBUG_VALUE: mpeg2_frame_ME:vmc <- [RBP+-264]
	movl	$214, %edi
	movl	$214, %esi
	xorl	%edx, %edx
	callq	_KTimestamp1
	callq	_KPopCDep
	movl	$425, %r13d             # imm = 0x1A9
	movl	$426, %eax              # imm = 0x1AA
	movq	%rax, -336(%rbp)        # 8-byte Spill
	movl	$427, %eax              # imm = 0x1AB
	movq	%rax, -232(%rbp)        # 8-byte Spill
	movl	$0, %eax
	movq	%rax, -312(%rbp)        # 8-byte Spill
	movl	$0, %eax
	movq	%rax, -320(%rbp)        # 8-byte Spill
	movl	$0, %r12d
	movl	$0, %eax
	movq	%rax, -304(%rbp)        # 8-byte Spill
	movl	$0, %ebx
	movl	$0, %eax
	movq	%rax, -240(%rbp)        # 8-byte Spill
	movl	$0, %eax
	movq	%rax, -328(%rbp)        # 8-byte Spill
	xorl	%r15d, %r15d
	xorl	%r14d, %r14d
.Ltmp313:
	xorl	%eax, %eax
	.loc	1 11732 7               # mpeg2.c:11732:7
	movq	%rax, -256(%rbp)        # 8-byte Spill
	jmp	.LBB3_89
.Ltmp314:
.LBB3_49:                               # %cond.end319.if.else368_crit_edge
	#DEBUG_VALUE: mpeg2_frame_ME:oldref <- [RBP+-240]
	#DEBUG_VALUE: mpeg2_frame_ME:newref <- [RBP+-256]
	#DEBUG_VALUE: mpeg2_frame_ME:cur <- [RBP+-288]
	#DEBUG_VALUE: mpeg2_frame_ME:i <- [RBP+-244]
	#DEBUG_VALUE: mpeg2_frame_ME:mbi <- undef
	#DEBUG_VALUE: mpeg2_frame_ME:mb <- [RBP+-232]
	#DEBUG_VALUE: mpeg2_frame_ME:var <- [RBP+-224]
	#DEBUG_VALUE: mpeg2_frame_ME:j <- [RBP+-272]
	#DEBUG_VALUE: mpeg2_frame_ME:dmcfieldf <- [RBP+-312]
	#DEBUG_VALUE: mpeg2_frame_ME:dmcf <- [RBP+-304]
	#DEBUG_VALUE: mpeg2_frame_ME:dmcfieldr <- undef
	#DEBUG_VALUE: mpeg2_frame_ME:dmcr <- undef
	#DEBUG_VALUE: mpeg2_frame_ME:dmcfieldi <- R12D
	movq	56(%rbp), %r13
.Ltmp315:
	#DEBUG_VALUE: mpeg2_frame_ME:mbi <- R13
.LBB3_50:                               # %if.else368
	#DEBUG_VALUE: mpeg2_frame_ME:oldref <- [RBP+-240]
	#DEBUG_VALUE: mpeg2_frame_ME:newref <- [RBP+-256]
	#DEBUG_VALUE: mpeg2_frame_ME:cur <- [RBP+-288]
	#DEBUG_VALUE: mpeg2_frame_ME:i <- [RBP+-244]
	#DEBUG_VALUE: mpeg2_frame_ME:mbi <- R13
	#DEBUG_VALUE: mpeg2_frame_ME:mb <- [RBP+-232]
	#DEBUG_VALUE: mpeg2_frame_ME:var <- [RBP+-224]
	#DEBUG_VALUE: mpeg2_frame_ME:j <- [RBP+-272]
	#DEBUG_VALUE: mpeg2_frame_ME:dmcfieldf <- [RBP+-312]
	#DEBUG_VALUE: mpeg2_frame_ME:dmcfieldr <- undef
	#DEBUG_VALUE: mpeg2_frame_ME:dmcr <- undef
	#DEBUG_VALUE: mpeg2_frame_ME:dmcfieldi <- R12D
	movl	$427, %edi              # imm = 0x1AB
	callq	_KPushCDep
	movl	$219, %esi
	movl	$4, %edx
	movq	-304(%rbp), %rdi        # 8-byte Reload
	callq	_KLoad0
	movl	$5, %edi
	callq	_KWork
	.loc	1 11734 14              # mpeg2.c:11734:14
.Ltmp316:
	movl	-120(%rbp), %ebx
	movl	$1, 48(%rsp)
	movl	$219, 40(%rsp)
	movl	$3, 32(%rsp)
	movl	$171, 24(%rsp)
	movl	$2, 16(%rsp)
	movl	$151, 8(%rsp)
	movl	$4, (%rsp)
	movl	$432, %edi              # imm = 0x1B0
	movl	$193, %esi
	movl	$3, %edx
	movl	$10, %ecx
	movl	$5, %r8d
	movl	$12, %r9d
	callq	_KTimestamp6
	callq	_KPopCDep
	cmpl	%ebx, %r12d
	jge	.LBB3_51
.Ltmp317:
# BB#61:                                # %land.lhs.true370
	#DEBUG_VALUE: mpeg2_frame_ME:oldref <- [RBP+-240]
	#DEBUG_VALUE: mpeg2_frame_ME:newref <- [RBP+-256]
	#DEBUG_VALUE: mpeg2_frame_ME:cur <- [RBP+-288]
	#DEBUG_VALUE: mpeg2_frame_ME:i <- [RBP+-244]
	#DEBUG_VALUE: mpeg2_frame_ME:mbi <- R13
	#DEBUG_VALUE: mpeg2_frame_ME:mb <- [RBP+-232]
	#DEBUG_VALUE: mpeg2_frame_ME:var <- [RBP+-224]
	#DEBUG_VALUE: mpeg2_frame_ME:j <- [RBP+-272]
	#DEBUG_VALUE: mpeg2_frame_ME:dmcfieldr <- undef
	#DEBUG_VALUE: mpeg2_frame_ME:dmcr <- undef
	#DEBUG_VALUE: mpeg2_frame_ME:dmcfieldi <- R12D
	movl	$432, %edi              # imm = 0x1B0
	callq	_KPushCDep
	leaq	-132(%rbp), %r15
.Ltmp318:
	#DEBUG_VALUE: mpeg2_frame_ME:dmcfieldf <- [R15+0]
	movl	$220, %esi
	movl	$4, %edx
	movq	%r15, %rdi
	callq	_KLoad0
	movl	$5, %edi
	callq	_KWork
	.loc	1 11734 12 is_stmt 0    # mpeg2.c:11734:12
	movl	-132(%rbp), %ebx
	movl	$1, 64(%rsp)
	movl	$220, 56(%rsp)
	movl	$2, 48(%rsp)
	movl	$219, 40(%rsp)
	movl	$4, 32(%rsp)
	movl	$171, 24(%rsp)
	movl	$3, 16(%rsp)
	movl	$151, 8(%rsp)
	movl	$5, (%rsp)
	movl	$433, %edi              # imm = 0x1B1
	movl	$193, %esi
	movl	$4, %edx
	movl	$10, %ecx
	movl	$6, %r8d
	movl	$12, %r9d
	callq	_KTimestamp7
	callq	_KPopCDep
	cmpl	%ebx, %r12d
	jge	.LBB3_62
.Ltmp319:
# BB#63:                                # %land.lhs.true372
	#DEBUG_VALUE: mpeg2_frame_ME:oldref <- [RBP+-240]
	#DEBUG_VALUE: mpeg2_frame_ME:newref <- [RBP+-256]
	#DEBUG_VALUE: mpeg2_frame_ME:cur <- [RBP+-288]
	#DEBUG_VALUE: mpeg2_frame_ME:i <- [RBP+-244]
	#DEBUG_VALUE: mpeg2_frame_ME:mbi <- R13
	#DEBUG_VALUE: mpeg2_frame_ME:mb <- [RBP+-232]
	#DEBUG_VALUE: mpeg2_frame_ME:var <- [RBP+-224]
	#DEBUG_VALUE: mpeg2_frame_ME:j <- [RBP+-272]
	#DEBUG_VALUE: mpeg2_frame_ME:dmcfieldf <- [R15+0]
	#DEBUG_VALUE: mpeg2_frame_ME:dmcfieldr <- undef
	#DEBUG_VALUE: mpeg2_frame_ME:dmcr <- undef
	#DEBUG_VALUE: mpeg2_frame_ME:dmcfieldi <- R12D
	movl	$433, %edi              # imm = 0x1B1
	callq	_KPushCDep
	leaq	-124(%rbp), %rdi
.Ltmp320:
	#DEBUG_VALUE: mpeg2_frame_ME:dmcr <- [RDI+0]
	movl	$221, %esi
	movl	$4, %edx
	callq	_KLoad0
	movl	$5, %edi
.Ltmp321:
	callq	_KWork
	movl	-124(%rbp), %r14d
	movl	$1, 88(%rsp)
	movl	$221, 80(%rsp)
	movl	$2, 72(%rsp)
	movl	$220, 64(%rsp)
	movl	$3, 56(%rsp)
	movl	$219, 48(%rsp)
	movl	$5, 40(%rsp)
	movl	$171, 32(%rsp)
	movl	$4, 24(%rsp)
	movl	$151, 16(%rsp)
	movl	$6, 8(%rsp)
	movl	$12, (%rsp)
	movl	$431, %edi              # imm = 0x1AF
	movl	$8, %esi
	movl	$193, %edx
	movl	$5, %ecx
	movl	$10, %r8d
	movl	$7, %r9d
	xorl	%eax, %eax
	callq	_KTimestamp
	callq	_KPopCDep
	cmpl	%r14d, %r12d
	jge	.LBB3_62
.Ltmp322:
# BB#64:                                # %land.lhs.true374
	#DEBUG_VALUE: mpeg2_frame_ME:oldref <- [RBP+-240]
	#DEBUG_VALUE: mpeg2_frame_ME:newref <- [RBP+-256]
	#DEBUG_VALUE: mpeg2_frame_ME:cur <- [RBP+-288]
	#DEBUG_VALUE: mpeg2_frame_ME:i <- [RBP+-244]
	#DEBUG_VALUE: mpeg2_frame_ME:mbi <- R13
	#DEBUG_VALUE: mpeg2_frame_ME:mb <- [RBP+-232]
	#DEBUG_VALUE: mpeg2_frame_ME:var <- [RBP+-224]
	#DEBUG_VALUE: mpeg2_frame_ME:j <- [RBP+-272]
	#DEBUG_VALUE: mpeg2_frame_ME:dmcfieldf <- [R15+0]
	#DEBUG_VALUE: mpeg2_frame_ME:dmcfieldr <- undef
	#DEBUG_VALUE: mpeg2_frame_ME:dmcfieldi <- R12D
	movq	%r15, -312(%rbp)        # 8-byte Spill
.Ltmp323:
	#DEBUG_VALUE: mpeg2_frame_ME:dmcfieldf <- [RBP+-312]
	movl	$431, %edi              # imm = 0x1AF
	callq	_KPushCDep
	leaq	-136(%rbp), %rdi
.Ltmp324:
	#DEBUG_VALUE: mpeg2_frame_ME:dmcfieldr <- [RDI+0]
	movl	$222, %esi
	movl	$4, %edx
	callq	_KLoad0
	movl	$5, %edi
.Ltmp325:
	callq	_KWork
	movl	-136(%rbp), %r15d
	movl	$1, 104(%rsp)
	movl	$222, 96(%rsp)
	movl	$2, 88(%rsp)
	movl	$221, 80(%rsp)
	movl	$3, 72(%rsp)
	movl	$220, 64(%rsp)
	movl	$4, 56(%rsp)
	movl	$219, 48(%rsp)
	movl	$6, 40(%rsp)
	movl	$171, 32(%rsp)
	movl	$5, 24(%rsp)
	movl	$151, 16(%rsp)
	movl	$7, 8(%rsp)
	movl	$12, (%rsp)
	xorl	%r14d, %r14d
	movl	$401, %edi              # imm = 0x191
	movl	$9, %esi
	movl	$193, %edx
	movl	$6, %ecx
	movl	$10, %r8d
	movl	$8, %r9d
	xorl	%eax, %eax
	callq	_KTimestamp
	callq	_KPopCDep
	cmpl	%r15d, %r12d
	leaq	-124(%rbp), %r15
	jge	.LBB3_52
.Ltmp326:
# BB#65:                                # %if.then376
	#DEBUG_VALUE: mpeg2_frame_ME:oldref <- [RBP+-240]
	#DEBUG_VALUE: mpeg2_frame_ME:newref <- [RBP+-256]
	#DEBUG_VALUE: mpeg2_frame_ME:cur <- [RBP+-288]
	#DEBUG_VALUE: mpeg2_frame_ME:i <- [RBP+-244]
	#DEBUG_VALUE: mpeg2_frame_ME:mbi <- R13
	#DEBUG_VALUE: mpeg2_frame_ME:mb <- [RBP+-232]
	#DEBUG_VALUE: mpeg2_frame_ME:var <- [RBP+-224]
	#DEBUG_VALUE: mpeg2_frame_ME:j <- [RBP+-272]
	movl	$401, %edi              # imm = 0x191
	callq	_KPushCDep
	movl	$12, %edi
	callq	_KWork
	movl	$4, %esi
	movq	%r13, %rdi
	callq	_KStoreConst
	.loc	1 11737 9 is_stmt 1     # mpeg2.c:11737:9
.Ltmp327:
	movl	$12, (%r13)
	.loc	1 11738 9               # mpeg2.c:11738:9
	leaq	4(%r13), %rdi
	movl	$4, %esi
	callq	_KStoreConst
	movl	$1, 4(%r13)
	leaq	-84(%rbp), %rdi
.Ltmp328:
	#DEBUG_VALUE: mpeg2_frame_ME:imintf <- [RDI+0]
	movl	$223, %esi
	movl	$4, %edx
	callq	_KLoad0
	.loc	1 11741 24              # mpeg2.c:11741:24
	movl	-84(%rbp), %ebx
	sarl	%ebx
	leaq	-148(%rbp), %rdi
.Ltmp329:
	#DEBUG_VALUE: mpeg2_frame_ME:tself <- [RDI+0]
	movl	$224, %esi
	movl	$4, %edx
	callq	_KLoad0
	.loc	1 11741 42 is_stmt 0    # mpeg2.c:11741:42
	movl	-148(%rbp), %r15d
	movl	$1, 120(%rsp)
	movl	$224, 112(%rsp)
	movl	$2, 104(%rsp)
	movl	$222, 96(%rsp)
	movl	$3, 88(%rsp)
	movl	$221, 80(%rsp)
	movl	$4, 72(%rsp)
	movl	$220, 64(%rsp)
	movl	$5, 56(%rsp)
	movl	$219, 48(%rsp)
	movl	$7, 40(%rsp)
	movl	$171, 32(%rsp)
	movl	$6, 24(%rsp)
	movl	$151, 16(%rsp)
	movl	$8, 8(%rsp)
	movl	$12, (%rsp)
	movl	$402, %edi              # imm = 0x192
.Ltmp330:
	movl	$10, %esi
	movl	$193, %edx
	movl	$7, %ecx
	movl	$10, %r8d
	movl	$9, %r9d
	xorl	%eax, %eax
	callq	_KTimestamp
	callq	_KPopCDep
	cmpl	$0, %r15d
	.loc	1 11741 13              # mpeg2.c:11741:13
	movslq	%ebx, %r15
	movl	$0, %r12d
	je	.LBB3_67
.Ltmp331:
# BB#66:                                # %cond.true383
	#DEBUG_VALUE: mpeg2_frame_ME:oldref <- [RBP+-240]
	#DEBUG_VALUE: mpeg2_frame_ME:newref <- [RBP+-256]
	#DEBUG_VALUE: mpeg2_frame_ME:cur <- [RBP+-288]
	#DEBUG_VALUE: mpeg2_frame_ME:i <- [RBP+-244]
	#DEBUG_VALUE: mpeg2_frame_ME:mbi <- R13
	#DEBUG_VALUE: mpeg2_frame_ME:mb <- [RBP+-232]
	#DEBUG_VALUE: mpeg2_frame_ME:var <- [RBP+-224]
	#DEBUG_VALUE: mpeg2_frame_ME:j <- [RBP+-272]
	movl	$402, %edi              # imm = 0x192
	callq	_KPushCDep
	movl	$225, %r14d
	movl	$mpeg2_width, %edi
	movl	$225, %esi
	movl	$4, %edx
	callq	_KLoad0
	movl	$4, %edi
	callq	_KWork
	.loc	1 11741 42              # mpeg2.c:11741:42
	movslq	mpeg2_width(%rip), %r12
	movl	$225, %edi
	movl	$225, %esi
	xorl	%edx, %edx
	callq	_KTimestamp1
	callq	_KPopCDep
.Ltmp332:
.LBB3_67:                               # %cond.end385
	#DEBUG_VALUE: mpeg2_frame_ME:oldref <- [RBP+-240]
	#DEBUG_VALUE: mpeg2_frame_ME:newref <- [RBP+-256]
	#DEBUG_VALUE: mpeg2_frame_ME:cur <- [RBP+-288]
	#DEBUG_VALUE: mpeg2_frame_ME:i <- [RBP+-244]
	#DEBUG_VALUE: mpeg2_frame_ME:mbi <- R13
	#DEBUG_VALUE: mpeg2_frame_ME:mbi <- [RBP+-352]
	#DEBUG_VALUE: mpeg2_frame_ME:mb <- [RBP+-232]
	#DEBUG_VALUE: mpeg2_frame_ME:var <- [RBP+-224]
	#DEBUG_VALUE: mpeg2_frame_ME:j <- [RBP+-272]
	movl	$401, %edi              # imm = 0x191
	callq	_KPushCDep
	movl	$400, %edi              # imm = 0x190
	movl	$401, %edx              # imm = 0x191
	movl	$402, %ecx              # imm = 0x192
	movl	%r14d, %esi
	callq	_KPhi2To1
	movl	$22, %edi
	callq	_KWork
	.loc	1 11741 13 discriminator 4 # mpeg2.c:11741:13
.Ltmp333:
	addq	%r15, %r12
	movl	$mpeg2_width, %edi
	movl	$226, %esi
	movl	$4, %edx
	callq	_KLoad0
.Ltmp334:
	.loc	1 11742 24 is_stmt 1    # mpeg2.c:11742:24
	movl	mpeg2_width(%rip), %ebx
	leaq	-88(%rbp), %rdi
.Ltmp335:
	#DEBUG_VALUE: mpeg2_frame_ME:jmintf <- [RDI+0]
	movl	$227, %esi
	movl	$4, %edx
	callq	_KLoad0
	.loc	1 11742 47 is_stmt 0    # mpeg2.c:11742:47
	movl	-88(%rbp), %eax
	shrl	%eax
	.loc	1 11742 22              # mpeg2.c:11742:22
	imull	%ebx, %eax
	addl	%eax, %eax
	.loc	1 11741 13 is_stmt 1    # mpeg2.c:11741:13
	cltq
	addq	%r12, %rax
	addq	-240(%rbp), %rax        # 8-byte Folded Reload
	movq	%rax, -264(%rbp)        # 8-byte Spill
	leaq	-100(%rbp), %rdi
.Ltmp336:
	#DEBUG_VALUE: mpeg2_frame_ME:imintr <- [RDI+0]
	movl	$228, %esi
	movl	$4, %edx
	callq	_KLoad0
	.loc	1 11743 24              # mpeg2.c:11743:24
	movl	-100(%rbp), %ebx
	sarl	%ebx
	leaq	-156(%rbp), %rdi
.Ltmp337:
	#DEBUG_VALUE: mpeg2_frame_ME:tselr <- [RDI+0]
	movl	$229, %esi
	movl	$4, %edx
	callq	_KLoad0
	.loc	1 11743 42 is_stmt 0    # mpeg2.c:11743:42
	movl	-156(%rbp), %r14d
	movl	$1, 120(%rsp)
	movl	$229, 112(%rsp)
	movl	$2, 104(%rsp)
	movl	$222, 96(%rsp)
	movl	$3, 88(%rsp)
	movl	$221, 80(%rsp)
	movl	$4, 72(%rsp)
	movl	$220, 64(%rsp)
	movl	$5, 56(%rsp)
	movl	$219, 48(%rsp)
	movl	$7, 40(%rsp)
	movl	$171, 32(%rsp)
	movl	$6, 24(%rsp)
	movl	$151, 16(%rsp)
	movl	$8, 8(%rsp)
	movl	$12, (%rsp)
	movl	$404, %edi              # imm = 0x194
.Ltmp338:
	movl	$10, %esi
	movl	$193, %edx
	movl	$7, %ecx
	movl	$10, %r8d
	movl	$9, %r9d
	xorl	%eax, %eax
	callq	_KTimestamp
	callq	_KPopCDep
	cmpl	$0, %r14d
	.loc	1 11743 13              # mpeg2.c:11743:13
	movslq	%ebx, %r15
	movl	$0, %r14d
	movl	$0, %r12d
	je	.LBB3_69
# BB#68:                                # %cond.true398
	#DEBUG_VALUE: mpeg2_frame_ME:oldref <- [RBP+-240]
	#DEBUG_VALUE: mpeg2_frame_ME:newref <- [RBP+-256]
	#DEBUG_VALUE: mpeg2_frame_ME:cur <- [RBP+-288]
	#DEBUG_VALUE: mpeg2_frame_ME:i <- [RBP+-244]
	#DEBUG_VALUE: mpeg2_frame_ME:mbi <- [RBP+-352]
	#DEBUG_VALUE: mpeg2_frame_ME:mb <- [RBP+-232]
	#DEBUG_VALUE: mpeg2_frame_ME:var <- [RBP+-224]
	#DEBUG_VALUE: mpeg2_frame_ME:j <- [RBP+-272]
	movl	$404, %edi              # imm = 0x194
	callq	_KPushCDep
	movl	$230, %r14d
	movl	$mpeg2_width, %edi
	movl	$230, %esi
	movl	$4, %edx
	callq	_KLoad0
	movl	$4, %edi
	callq	_KWork
	.loc	1 11743 42              # mpeg2.c:11743:42
	movslq	mpeg2_width(%rip), %r12
	movl	$230, %edi
	movl	$230, %esi
	xorl	%edx, %edx
	callq	_KTimestamp1
	callq	_KPopCDep
.LBB3_69:                               # %cond.end400
	#DEBUG_VALUE: mpeg2_frame_ME:oldref <- [RBP+-240]
	#DEBUG_VALUE: mpeg2_frame_ME:newref <- [RBP+-256]
	#DEBUG_VALUE: mpeg2_frame_ME:cur <- [RBP+-288]
	#DEBUG_VALUE: mpeg2_frame_ME:i <- [RBP+-244]
	#DEBUG_VALUE: mpeg2_frame_ME:mbi <- [RBP+-352]
	#DEBUG_VALUE: mpeg2_frame_ME:mb <- [RBP+-232]
	#DEBUG_VALUE: mpeg2_frame_ME:var <- [RBP+-224]
	#DEBUG_VALUE: mpeg2_frame_ME:j <- [RBP+-272]
	movl	$401, %edi              # imm = 0x191
	callq	_KPushCDep
	movl	$403, %edi              # imm = 0x193
	movl	$401, %edx              # imm = 0x191
	movl	$404, %ecx              # imm = 0x194
	movl	%r14d, %esi
	callq	_KPhi2To1
	movl	$47, %edi
	callq	_KWork
	.loc	1 11743 13 discriminator 4 # mpeg2.c:11743:13
.Ltmp339:
	addq	%r15, %r12
	movl	$mpeg2_width, %edi
	movl	$231, %esi
	movl	$4, %edx
	callq	_KLoad0
.Ltmp340:
	.loc	1 11744 24 is_stmt 1    # mpeg2.c:11744:24
	movl	mpeg2_width(%rip), %ebx
	leaq	-104(%rbp), %r14
.Ltmp341:
	#DEBUG_VALUE: mpeg2_frame_ME:jmintr <- [R14+0]
	movl	$232, %esi
	movl	$4, %edx
	movq	%r14, %rdi
	callq	_KLoad0
	.loc	1 11744 47 is_stmt 0    # mpeg2.c:11744:47
	movl	-104(%rbp), %eax
	shrl	%eax
	.loc	1 11744 22              # mpeg2.c:11744:22
	imull	%ebx, %eax
	addl	%eax, %eax
	.loc	1 11743 13 is_stmt 1    # mpeg2.c:11743:13
	movslq	%eax, %r13
	addq	%r12, %r13
	addq	-256(%rbp), %r13        # 8-byte Folded Reload
	movl	$mpeg2_width, %edi
	movl	$233, %esi
	movl	$4, %edx
	callq	_KLoad0
	.loc	1 11745 17              # mpeg2.c:11745:17
	movl	mpeg2_width(%rip), %eax
	addl	%eax, %eax
	movl	%eax, -280(%rbp)        # 4-byte Spill
	leaq	-84(%rbp), %rdi
.Ltmp342:
	#DEBUG_VALUE: mpeg2_frame_ME:imintf <- [RDI+0]
	movl	$234, %esi
	movl	$4, %edx
	callq	_KLoad0
	.loc	1 11745 35 is_stmt 0    # mpeg2.c:11745:35
	movl	-84(%rbp), %ebx
	andl	$1, %ebx
	leaq	-88(%rbp), %rdi
.Ltmp343:
	#DEBUG_VALUE: mpeg2_frame_ME:jmintf <- [RDI+0]
	movl	$235, %esi
	movl	$4, %edx
	callq	_KLoad0
	.loc	1 11745 47              # mpeg2.c:11745:47
	movl	-88(%rbp), %r15d
	andl	$1, %r15d
	leaq	-100(%rbp), %rdi
.Ltmp344:
	#DEBUG_VALUE: mpeg2_frame_ME:imintr <- [RDI+0]
	movl	$236, %esi
	movl	$4, %edx
	callq	_KLoad0
	.loc	1 11745 59              # mpeg2.c:11745:59
	movl	-100(%rbp), %r12d
	andl	$1, %r12d
	movl	$237, %esi
	movl	$4, %edx
	movq	%r14, %rdi
.Ltmp345:
	callq	_KLoad0
	.loc	1 11745 71              # mpeg2.c:11745:71
	movl	-104(%rbp), %r14d
.Ltmp346:
	andl	$1, %r14d
	movl	$1, 120(%rsp)
	movl	$237, 112(%rsp)
	movl	$2, 104(%rsp)
	movl	$222, 96(%rsp)
	movl	$3, 88(%rsp)
	movl	$221, 80(%rsp)
	movl	$4, 72(%rsp)
	movl	$220, 64(%rsp)
	movl	$5, 56(%rsp)
	movl	$219, 48(%rsp)
	movl	$7, 40(%rsp)
	movl	$171, 32(%rsp)
	movl	$6, 24(%rsp)
	movl	$151, 16(%rsp)
	movl	$8, 8(%rsp)
	movl	$12, (%rsp)
	movl	$243, %edi
	movl	$10, %esi
	movl	$193, %edx
	movl	$7, %ecx
	movl	$10, %r8d
	movl	$9, %r9d
	xorl	%eax, %eax
	callq	_KTimestamp
	movabsq	$7122856674677627987, %rdi # imm = 0x62D97868382E1C53
	xorl	%esi, %esi
	callq	_KPrepCall
	callq	_KEnqArgConst
	movl	$243, %edi
	callq	_KEnqArg
	movl	$1, 120(%rsp)
	movl	$236, 112(%rsp)
	movl	$2, 104(%rsp)
	movl	$222, 96(%rsp)
	movl	$3, 88(%rsp)
	movl	$221, 80(%rsp)
	movl	$4, 72(%rsp)
	movl	$220, 64(%rsp)
	movl	$5, 56(%rsp)
	movl	$219, 48(%rsp)
	movl	$7, 40(%rsp)
	movl	$171, 32(%rsp)
	movl	$6, 24(%rsp)
	movl	$151, 16(%rsp)
	movl	$8, 8(%rsp)
	movl	$12, (%rsp)
	movl	$242, %edi
	movl	$10, %esi
	movl	$193, %edx
	movl	$7, %ecx
	movl	$10, %r8d
	movl	$9, %r9d
	xorl	%eax, %eax
	callq	_KTimestamp
	movl	$242, %edi
	callq	_KEnqArg
	movl	$1, 120(%rsp)
	movl	$235, 112(%rsp)
	movl	$2, 104(%rsp)
	movl	$222, 96(%rsp)
	movl	$3, 88(%rsp)
	movl	$221, 80(%rsp)
	movl	$4, 72(%rsp)
	movl	$220, 64(%rsp)
	movl	$5, 56(%rsp)
	movl	$219, 48(%rsp)
	movl	$7, 40(%rsp)
	movl	$171, 32(%rsp)
	movl	$6, 24(%rsp)
	movl	$151, 16(%rsp)
	movl	$8, 8(%rsp)
	movl	$12, (%rsp)
	movl	$241, %edi
	movl	$10, %esi
	movl	$193, %edx
	movl	$7, %ecx
	movl	$10, %r8d
	movl	$9, %r9d
	xorl	%eax, %eax
	callq	_KTimestamp
	movl	$241, %edi
	callq	_KEnqArg
	movl	$1, 120(%rsp)
	movl	$234, 112(%rsp)
	movl	$2, 104(%rsp)
	movl	$222, 96(%rsp)
	movl	$3, 88(%rsp)
	movl	$221, 80(%rsp)
	movl	$4, 72(%rsp)
	movl	$220, 64(%rsp)
	movl	$5, 56(%rsp)
	movl	$219, 48(%rsp)
	movl	$7, 40(%rsp)
	movl	$171, 32(%rsp)
	movl	$6, 24(%rsp)
	movl	$151, 16(%rsp)
	movl	$8, 8(%rsp)
	movl	$12, (%rsp)
	movl	$240, %edi
	movl	$10, %esi
	movl	$193, %edx
	movl	$7, %ecx
	movl	$10, %r8d
	movl	$9, %r9d
	xorl	%eax, %eax
	callq	_KTimestamp
	movl	$240, %edi
	callq	_KEnqArg
	movl	$1, 120(%rsp)
	movl	$233, 112(%rsp)
	movl	$2, 104(%rsp)
	movl	$222, 96(%rsp)
	movl	$3, 88(%rsp)
	movl	$221, 80(%rsp)
	movl	$4, 72(%rsp)
	movl	$220, 64(%rsp)
	movl	$5, 56(%rsp)
	movl	$219, 48(%rsp)
	movl	$7, 40(%rsp)
	movl	$171, 32(%rsp)
	movl	$6, 24(%rsp)
	movl	$151, 16(%rsp)
	movl	$8, 8(%rsp)
	movl	$12, (%rsp)
	movl	$239, %edi
	movl	$10, %esi
	movl	$193, %edx
	movl	$7, %ecx
	movl	$10, %r8d
	movl	$9, %r9d
	xorl	%eax, %eax
	callq	_KTimestamp
	movl	$239, %edi
	callq	_KEnqArg
	movl	$238, %edi
	callq	_KLinkReturn
	.loc	1 11740 11 is_stmt 1    # mpeg2.c:11740:11
	movl	%r14d, 8(%rsp)
	movl	%r12d, (%rsp)
	movl	$8, 16(%rsp)
	movq	-264(%rbp), %rdi        # 8-byte Reload
	movq	%r13, %rsi
	movq	-232(%rbp), %rdx        # 8-byte Reload
	movl	-280(%rbp), %ecx        # 4-byte Reload
	movl	%ebx, %r8d
	movl	%r15d, %r9d
	callq	mpeg2_bdist2
	movl	%eax, -232(%rbp)        # 4-byte Spill
.Ltmp347:
	#DEBUG_VALUE: mpeg2_frame_ME:vmc <- [RBP+-232]
	leaq	-92(%rbp), %rdi
.Ltmp348:
	#DEBUG_VALUE: mpeg2_frame_ME:iminbf <- [RDI+0]
	movl	$244, %esi
	movl	$4, %edx
	callq	_KLoad0
	.loc	1 11749 24              # mpeg2.c:11749:24
	movl	-92(%rbp), %ebx
	sarl	%ebx
	leaq	-152(%rbp), %rdi
.Ltmp349:
	#DEBUG_VALUE: mpeg2_frame_ME:bself <- [RDI+0]
	movl	$245, %esi
	movl	$4, %edx
	callq	_KLoad0
	.loc	1 11749 42 is_stmt 0    # mpeg2.c:11749:42
	movl	-152(%rbp), %r14d
	movl	$1, 120(%rsp)
	movl	$245, 112(%rsp)
	movl	$2, 104(%rsp)
	movl	$222, 96(%rsp)
	movl	$3, 88(%rsp)
	movl	$221, 80(%rsp)
	movl	$4, 72(%rsp)
	movl	$220, 64(%rsp)
	movl	$5, 56(%rsp)
	movl	$219, 48(%rsp)
	movl	$7, 40(%rsp)
	movl	$171, 32(%rsp)
	movl	$6, 24(%rsp)
	movl	$151, 16(%rsp)
	movl	$8, 8(%rsp)
	movl	$12, (%rsp)
	movl	$406, %edi              # imm = 0x196
.Ltmp350:
	movl	$10, %esi
	movl	$193, %edx
	movl	$7, %ecx
	movl	$10, %r8d
	movl	$9, %r9d
	xorl	%eax, %eax
	callq	_KTimestamp
	callq	_KPopCDep
	cmpl	$0, %r14d
	.loc	1 11749 13              # mpeg2.c:11749:13
	movslq	%ebx, %r14
	movl	$0, %r15d
	movl	$0, %ebx
	je	.LBB3_71
# BB#70:                                # %cond.true419
	#DEBUG_VALUE: mpeg2_frame_ME:oldref <- [RBP+-240]
	#DEBUG_VALUE: mpeg2_frame_ME:newref <- [RBP+-256]
	#DEBUG_VALUE: mpeg2_frame_ME:cur <- [RBP+-288]
	#DEBUG_VALUE: mpeg2_frame_ME:i <- [RBP+-244]
	#DEBUG_VALUE: mpeg2_frame_ME:mbi <- [RBP+-352]
	#DEBUG_VALUE: mpeg2_frame_ME:var <- [RBP+-224]
	#DEBUG_VALUE: mpeg2_frame_ME:j <- [RBP+-272]
	#DEBUG_VALUE: mpeg2_frame_ME:vmc <- [RBP+-232]
	movl	$406, %edi              # imm = 0x196
	callq	_KPushCDep
	movl	$246, %ebx
	movl	$mpeg2_width, %edi
	movl	$246, %esi
	movl	$4, %edx
	callq	_KLoad0
	movl	$4, %edi
	callq	_KWork
	.loc	1 11749 42              # mpeg2.c:11749:42
	movslq	mpeg2_width(%rip), %r15
	movl	$246, %edi
	movl	$246, %esi
	xorl	%edx, %edx
	callq	_KTimestamp1
	callq	_KPopCDep
.LBB3_71:                               # %cond.end421
	#DEBUG_VALUE: mpeg2_frame_ME:oldref <- [RBP+-240]
	#DEBUG_VALUE: mpeg2_frame_ME:newref <- [RBP+-256]
	#DEBUG_VALUE: mpeg2_frame_ME:cur <- [RBP+-288]
	#DEBUG_VALUE: mpeg2_frame_ME:i <- [RBP+-244]
	#DEBUG_VALUE: mpeg2_frame_ME:mbi <- [RBP+-352]
	#DEBUG_VALUE: mpeg2_frame_ME:var <- [RBP+-224]
	#DEBUG_VALUE: mpeg2_frame_ME:j <- [RBP+-272]
	#DEBUG_VALUE: mpeg2_frame_ME:vmc <- [RBP+-232]
	movl	$401, %edi              # imm = 0x191
	callq	_KPushCDep
	movl	$405, %edi              # imm = 0x195
	movl	$401, %edx              # imm = 0x191
	movl	$406, %ecx              # imm = 0x196
	movl	%ebx, %esi
	callq	_KPhi2To1
	movl	$22, %edi
	callq	_KWork
	.loc	1 11749 13 discriminator 4 # mpeg2.c:11749:13
.Ltmp351:
	addq	%r14, %r15
	movl	$mpeg2_width, %edi
	movl	$247, %esi
	movl	$4, %edx
	callq	_KLoad0
.Ltmp352:
	.loc	1 11750 24 is_stmt 1    # mpeg2.c:11750:24
	movl	mpeg2_width(%rip), %ebx
	leaq	-96(%rbp), %rdi
.Ltmp353:
	#DEBUG_VALUE: mpeg2_frame_ME:jminbf <- [RDI+0]
	movl	$248, %esi
	movl	$4, %edx
	callq	_KLoad0
	.loc	1 11750 47 is_stmt 0    # mpeg2.c:11750:47
	movl	-96(%rbp), %eax
	shrl	%eax
	.loc	1 11750 22              # mpeg2.c:11750:22
	imull	%ebx, %eax
	addl	%eax, %eax
	.loc	1 11749 13 is_stmt 1    # mpeg2.c:11749:13
	cltq
	addq	%r15, %rax
	addq	%rax, -240(%rbp)        # 8-byte Folded Spill
	leaq	-108(%rbp), %rdi
.Ltmp354:
	#DEBUG_VALUE: mpeg2_frame_ME:iminbr <- [RDI+0]
	movl	$249, %esi
	movl	$4, %edx
	callq	_KLoad0
	.loc	1 11751 24              # mpeg2.c:11751:24
	movl	-108(%rbp), %ebx
	sarl	%ebx
	leaq	-160(%rbp), %rdi
.Ltmp355:
	#DEBUG_VALUE: mpeg2_frame_ME:bselr <- [RDI+0]
	movl	$250, %esi
	movl	$4, %edx
	callq	_KLoad0
	.loc	1 11751 42 is_stmt 0    # mpeg2.c:11751:42
	movl	-160(%rbp), %r14d
	movl	$1, 120(%rsp)
	movl	$250, 112(%rsp)
	movl	$2, 104(%rsp)
	movl	$222, 96(%rsp)
	movl	$3, 88(%rsp)
	movl	$221, 80(%rsp)
	movl	$4, 72(%rsp)
	movl	$220, 64(%rsp)
	movl	$5, 56(%rsp)
	movl	$219, 48(%rsp)
	movl	$7, 40(%rsp)
	movl	$171, 32(%rsp)
	movl	$6, 24(%rsp)
	movl	$151, 16(%rsp)
	movl	$8, 8(%rsp)
	movl	$12, (%rsp)
	movl	$408, %edi              # imm = 0x198
.Ltmp356:
	movl	$10, %esi
	movl	$193, %edx
	movl	$7, %ecx
	movl	$10, %r8d
	movl	$9, %r9d
	xorl	%eax, %eax
	callq	_KTimestamp
	callq	_KPopCDep
	cmpl	$0, %r14d
	.loc	1 11751 13              # mpeg2.c:11751:13
	movslq	%ebx, %r15
	movl	$0, %r14d
	movl	$0, %r12d
	je	.LBB3_73
# BB#72:                                # %cond.true434
	#DEBUG_VALUE: mpeg2_frame_ME:newref <- [RBP+-256]
	#DEBUG_VALUE: mpeg2_frame_ME:cur <- [RBP+-288]
	#DEBUG_VALUE: mpeg2_frame_ME:i <- [RBP+-244]
	#DEBUG_VALUE: mpeg2_frame_ME:mbi <- [RBP+-352]
	#DEBUG_VALUE: mpeg2_frame_ME:var <- [RBP+-224]
	#DEBUG_VALUE: mpeg2_frame_ME:j <- [RBP+-272]
	#DEBUG_VALUE: mpeg2_frame_ME:vmc <- [RBP+-232]
	movl	$408, %edi              # imm = 0x198
	callq	_KPushCDep
	movl	$251, %r14d
	movl	$mpeg2_width, %edi
	movl	$251, %esi
	movl	$4, %edx
	callq	_KLoad0
	movl	$4, %edi
	callq	_KWork
	.loc	1 11751 42              # mpeg2.c:11751:42
	movslq	mpeg2_width(%rip), %r12
	movl	$251, %edi
	movl	$251, %esi
	xorl	%edx, %edx
	callq	_KTimestamp1
	callq	_KPopCDep
.LBB3_73:                               # %cond.end436
	#DEBUG_VALUE: mpeg2_frame_ME:newref <- [RBP+-256]
	#DEBUG_VALUE: mpeg2_frame_ME:cur <- [RBP+-288]
	#DEBUG_VALUE: mpeg2_frame_ME:i <- [RBP+-244]
	#DEBUG_VALUE: mpeg2_frame_ME:mbi <- [RBP+-352]
	#DEBUG_VALUE: mpeg2_frame_ME:var <- [RBP+-224]
	#DEBUG_VALUE: mpeg2_frame_ME:j <- [RBP+-272]
	#DEBUG_VALUE: mpeg2_frame_ME:vmc <- [RBP+-232]
	movl	$401, %edi              # imm = 0x191
	callq	_KPushCDep
	movl	$407, %edi              # imm = 0x197
	movl	$401, %edx              # imm = 0x191
	movl	$408, %ecx              # imm = 0x198
	movl	%r14d, %esi
	callq	_KPhi2To1
	movl	$42, %edi
	callq	_KWork
	.loc	1 11751 13 discriminator 4 # mpeg2.c:11751:13
.Ltmp357:
	addq	%r15, %r12
	movl	$mpeg2_width, %edi
	movl	$252, %esi
	movl	$4, %edx
	callq	_KLoad0
.Ltmp358:
	.loc	1 11752 24 is_stmt 1    # mpeg2.c:11752:24
	movl	mpeg2_width(%rip), %ebx
	leaq	-112(%rbp), %r15
.Ltmp359:
	#DEBUG_VALUE: mpeg2_frame_ME:jminbr <- [R15+0]
	movl	$253, %esi
	movl	$4, %edx
	movq	%r15, %rdi
	callq	_KLoad0
	.loc	1 11752 47 is_stmt 0    # mpeg2.c:11752:47
	movl	-112(%rbp), %eax
	shrl	%eax
	.loc	1 11752 22              # mpeg2.c:11752:22
	imull	%ebx, %eax
	addl	%eax, %eax
	.loc	1 11751 13 is_stmt 1    # mpeg2.c:11751:13
	cltq
	addq	%r12, %rax
.Ltmp360:
	#DEBUG_VALUE: mpeg2_frame_ME:newref <- undef
	addq	%rax, -256(%rbp)        # 8-byte Folded Spill
	movl	$mpeg2_width, %edi
	movl	$254, %esi
	movl	$4, %edx
	callq	_KLoad0
	.loc	1 11753 13              # mpeg2.c:11753:13
	movslq	mpeg2_width(%rip), %rax
	addq	-296(%rbp), %rax        # 8-byte Folded Reload
.Ltmp361:
	#DEBUG_VALUE: mpeg2_frame_ME:cur <- undef
	addq	%rax, -288(%rbp)        # 8-byte Folded Spill
	movl	$mpeg2_width, %edi
	movl	$255, %esi
	movl	$4, %edx
	callq	_KLoad0
	.loc	1 11753 31 is_stmt 0    # mpeg2.c:11753:31
	movl	mpeg2_width(%rip), %eax
	addl	%eax, %eax
	movl	%eax, -264(%rbp)        # 4-byte Spill
	leaq	-92(%rbp), %rdi
.Ltmp362:
	#DEBUG_VALUE: mpeg2_frame_ME:iminbf <- [RDI+0]
	movl	$256, %esi              # imm = 0x100
	movl	$4, %edx
	callq	_KLoad0
	.loc	1 11753 49              # mpeg2.c:11753:49
	movl	-92(%rbp), %r12d
	andl	$1, %r12d
	leaq	-96(%rbp), %rdi
.Ltmp363:
	#DEBUG_VALUE: mpeg2_frame_ME:jminbf <- [RDI+0]
	movl	$257, %esi              # imm = 0x101
	movl	$4, %edx
	callq	_KLoad0
	.loc	1 11753 61              # mpeg2.c:11753:61
	movl	-96(%rbp), %r14d
	andl	$1, %r14d
	leaq	-108(%rbp), %rdi
.Ltmp364:
	#DEBUG_VALUE: mpeg2_frame_ME:iminbr <- [RDI+0]
	movl	$258, %esi              # imm = 0x102
	movl	$4, %edx
	callq	_KLoad0
	.loc	1 11754 13 is_stmt 1    # mpeg2.c:11754:13
	movl	-108(%rbp), %r13d
	andl	$1, %r13d
	movl	$259, %esi              # imm = 0x103
	movl	$4, %edx
	movq	%r15, %rdi
.Ltmp365:
	callq	_KLoad0
	.loc	1 11754 25 is_stmt 0    # mpeg2.c:11754:25
	movl	-112(%rbp), %ebx
	andl	$1, %ebx
	movl	$1, 120(%rsp)
	movl	$259, 112(%rsp)         # imm = 0x103
	movl	$2, 104(%rsp)
	movl	$222, 96(%rsp)
	movl	$3, 88(%rsp)
	movl	$221, 80(%rsp)
	movl	$4, 72(%rsp)
	movl	$220, 64(%rsp)
	movl	$5, 56(%rsp)
	movl	$219, 48(%rsp)
	movl	$7, 40(%rsp)
	movl	$171, 32(%rsp)
	movl	$6, 24(%rsp)
	movl	$151, 16(%rsp)
	movl	$8, 8(%rsp)
	movl	$12, (%rsp)
	movl	$265, %edi              # imm = 0x109
	movl	$10, %esi
	movl	$193, %edx
	movl	$7, %ecx
	movl	$10, %r8d
	movl	$9, %r9d
	xorl	%eax, %eax
	callq	_KTimestamp
	movabsq	$4675602659489145986, %rdi # imm = 0x40E313D8ADB8E482
	xorl	%esi, %esi
	callq	_KPrepCall
	callq	_KEnqArgConst
	movl	$265, %edi              # imm = 0x109
	callq	_KEnqArg
	movl	$1, 120(%rsp)
	movl	$258, 112(%rsp)         # imm = 0x102
	movl	$2, 104(%rsp)
	movl	$222, 96(%rsp)
	movl	$3, 88(%rsp)
	movl	$221, 80(%rsp)
	movl	$4, 72(%rsp)
	movl	$220, 64(%rsp)
	movl	$5, 56(%rsp)
	movl	$219, 48(%rsp)
	movl	$7, 40(%rsp)
	movl	$171, 32(%rsp)
	movl	$6, 24(%rsp)
	movl	$151, 16(%rsp)
	movl	$8, 8(%rsp)
	movl	$12, (%rsp)
	movl	$264, %edi              # imm = 0x108
	movl	$10, %esi
	movl	$193, %edx
	movl	$7, %ecx
	movl	$10, %r8d
	movl	$9, %r9d
	xorl	%eax, %eax
	callq	_KTimestamp
	movl	$264, %edi              # imm = 0x108
	callq	_KEnqArg
	movl	$1, 120(%rsp)
	movl	$257, 112(%rsp)         # imm = 0x101
	movl	$2, 104(%rsp)
	movl	$222, 96(%rsp)
	movl	$3, 88(%rsp)
	movl	$221, 80(%rsp)
	movl	$4, 72(%rsp)
	movl	$220, 64(%rsp)
	movl	$5, 56(%rsp)
	movl	$219, 48(%rsp)
	movl	$7, 40(%rsp)
	movl	$171, 32(%rsp)
	movl	$6, 24(%rsp)
	movl	$151, 16(%rsp)
	movl	$8, 8(%rsp)
	movl	$12, (%rsp)
	movl	$263, %edi              # imm = 0x107
	movl	$10, %esi
	movl	$193, %edx
	movl	$7, %ecx
	movl	$10, %r8d
	movl	$9, %r9d
	xorl	%eax, %eax
	callq	_KTimestamp
	movl	$263, %edi              # imm = 0x107
	callq	_KEnqArg
	movl	$1, 120(%rsp)
	movl	$256, 112(%rsp)         # imm = 0x100
	movl	$2, 104(%rsp)
	movl	$222, 96(%rsp)
	movl	$3, 88(%rsp)
	movl	$221, 80(%rsp)
	movl	$4, 72(%rsp)
	movl	$220, 64(%rsp)
	movl	$5, 56(%rsp)
	movl	$219, 48(%rsp)
	movl	$7, 40(%rsp)
	movl	$171, 32(%rsp)
	movl	$6, 24(%rsp)
	movl	$151, 16(%rsp)
	movl	$8, 8(%rsp)
	movl	$12, (%rsp)
	movl	$262, %edi              # imm = 0x106
	movl	$10, %esi
	movl	$193, %edx
	movl	$7, %ecx
	movl	$10, %r8d
	movl	$9, %r9d
	xorl	%eax, %eax
	callq	_KTimestamp
	movl	$262, %edi              # imm = 0x106
	callq	_KEnqArg
	movl	$1, 120(%rsp)
	movl	$255, 112(%rsp)
	movl	$2, 104(%rsp)
	movl	$222, 96(%rsp)
	movl	$3, 88(%rsp)
	movl	$221, 80(%rsp)
	movl	$4, 72(%rsp)
	movl	$220, 64(%rsp)
	movl	$5, 56(%rsp)
	movl	$219, 48(%rsp)
	movl	$7, 40(%rsp)
	movl	$171, 32(%rsp)
	movl	$6, 24(%rsp)
	movl	$151, 16(%rsp)
	movl	$8, 8(%rsp)
	movl	$12, (%rsp)
	movl	$261, %edi              # imm = 0x105
	movl	$10, %esi
	movl	$193, %edx
	movl	$7, %ecx
	movl	$10, %r8d
	movl	$9, %r9d
	xorl	%eax, %eax
	callq	_KTimestamp
	movl	$261, %edi              # imm = 0x105
	callq	_KEnqArg
	movl	$260, %edi              # imm = 0x104
	callq	_KLinkReturn
	.loc	1 11748 11 is_stmt 1    # mpeg2.c:11748:11
	movl	%ebx, 8(%rsp)
	movl	%r13d, (%rsp)
	movl	$8, 16(%rsp)
	movq	-240(%rbp), %rdi        # 8-byte Reload
	movq	-256(%rbp), %rsi        # 8-byte Reload
	movq	-288(%rbp), %rdx        # 8-byte Reload
	movl	-264(%rbp), %ecx        # 4-byte Reload
	movl	%r12d, %r8d
	movl	%r14d, %r9d
	callq	mpeg2_bdist2
	.loc	1 11747 9               # mpeg2.c:11747:9
	addl	-232(%rbp), %eax        # 4-byte Folded Reload
.Ltmp366:
	#DEBUG_VALUE: mpeg2_frame_ME:vmc <- EAX
	movl	%eax, -264(%rbp)        # 4-byte Spill
.Ltmp367:
	#DEBUG_VALUE: mpeg2_frame_ME:vmc <- [RBP+-264]
	movl	$1, 136(%rsp)
	movl	$260, 128(%rsp)         # imm = 0x104
	movl	$1, 120(%rsp)
	movl	$238, 112(%rsp)
	movl	$2, 104(%rsp)
	movl	$222, 96(%rsp)
	movl	$3, 88(%rsp)
	movl	$221, 80(%rsp)
	movl	$4, 72(%rsp)
	movl	$220, 64(%rsp)
	movl	$5, 56(%rsp)
	movl	$219, 48(%rsp)
	movl	$7, 40(%rsp)
	movl	$171, 32(%rsp)
	movl	$6, 24(%rsp)
	movl	$151, 16(%rsp)
	movl	$8, 8(%rsp)
	movl	$12, (%rsp)
	movl	$419, -296(%rbp)        # 4-byte Folded Spill
                                        # imm = 0x1A3
	movl	$419, %edi              # imm = 0x1A3
	movl	$11, %esi
	movl	$193, %edx
	movl	$7, %ecx
	movl	$10, %r8d
	movl	$9, %r9d
	xorl	%eax, %eax
	callq	_KTimestamp
	callq	_KPopCDep
	movl	$427, %eax              # imm = 0x1AB
	movq	%rax, -232(%rbp)        # 8-byte Spill
	movl	$431, %eax              # imm = 0x1AF
	movq	%rax, -320(%rbp)        # 8-byte Spill
	movl	$432, %eax              # imm = 0x1B0
	movq	%rax, -312(%rbp)        # 8-byte Spill
	movl	$433, %eax              # imm = 0x1B1
	movq	%rax, -256(%rbp)        # 8-byte Spill
	movl	$0, %eax
	movq	%rax, -304(%rbp)        # 8-byte Spill
	movl	$0, %eax
	movq	%rax, -240(%rbp)        # 8-byte Spill
	movl	$0, %eax
	movq	%rax, -336(%rbp)        # 8-byte Spill
	movl	$0, %r13d
	movl	$0, %eax
	movq	%rax, -280(%rbp)        # 8-byte Spill
	movl	$0, %eax
	movq	%rax, -328(%rbp)        # 8-byte Spill
	movl	$0, %eax
	movq	%rax, -288(%rbp)        # 8-byte Spill
	xorl	%r15d, %r15d
.Ltmp368:
	xorl	%r14d, %r14d
	xorl	%r12d, %r12d
	movl	$401, %ebx              # imm = 0x191
	jmp	.LBB3_89
.Ltmp369:
.LBB3_36:                               # %if.then231
	#DEBUG_VALUE: mpeg2_frame_ME:i <- [RBP+-244]
	#DEBUG_VALUE: mpeg2_frame_ME:mbi <- RBX
	#DEBUG_VALUE: mpeg2_frame_ME:var <- [RBP+-224]
	#DEBUG_VALUE: mpeg2_frame_ME:j <- [RBP+-272]
	#DEBUG_VALUE: mpeg2_frame_ME:vmcr <- EAX
	.loc	1 11672 9               # mpeg2.c:11672:9
	movl	$4, (%rbx)
	movl	%eax, %r14d
.Ltmp370:
	#DEBUG_VALUE: mpeg2_frame_ME:vmcr <- R14D
	callq	_KPopCDep
.Ltmp371:
.LBB3_38:                               # %if.end236
	xorl	%r13d, %r13d
	movl	%r14d, -264(%rbp)       # 4-byte Spill
.Ltmp372:
	#DEBUG_VALUE: mpeg2_frame_ME:vmci <- [RBP+-264]
	#DEBUG_VALUE: mpeg2_frame_ME:vmc <- [RBP+-264]
	jmp	.LBB3_39
.LBB3_8:                                # %if.end.if.else28_crit_edge
	#DEBUG_VALUE: mpeg2_frame_ME:oldref <- [RBP+-240]
.Ltmp373:
	#DEBUG_VALUE: mpeg2_frame_ME:cur <- [RBP+-288]
	#DEBUG_VALUE: mpeg2_frame_ME:i <- [RBP+-244]
	#DEBUG_VALUE: mpeg2_frame_ME:mbi <- R13
	#DEBUG_VALUE: mpeg2_frame_ME:mb <- [RBP+-232]
	#DEBUG_VALUE: mpeg2_frame_ME:var <- [RBP+-224]
	#DEBUG_VALUE: mpeg2_frame_ME:j <- R15D
	#DEBUG_VALUE: mpeg2_frame_ME:j <- [RBP+-272]
	#DEBUG_VALUE: mpeg2_frame_ME:dmc <- [R12+0]
	movq	%r12, %r14
.Ltmp374:
	#DEBUG_VALUE: mpeg2_frame_ME:dmc <- [R14+0]
.LBB3_9:                                # %if.else28
	#DEBUG_VALUE: mpeg2_frame_ME:oldref <- [RBP+-240]
	#DEBUG_VALUE: mpeg2_frame_ME:cur <- [RBP+-288]
	#DEBUG_VALUE: mpeg2_frame_ME:i <- [RBP+-244]
	#DEBUG_VALUE: mpeg2_frame_ME:mbi <- R13
	#DEBUG_VALUE: mpeg2_frame_ME:mb <- [RBP+-232]
	#DEBUG_VALUE: mpeg2_frame_ME:var <- [RBP+-224]
	#DEBUG_VALUE: mpeg2_frame_ME:j <- [RBP+-272]
	movl	$385, %edi              # imm = 0x181
	callq	_KPushCDep
	movl	$35, %esi
	movl	$4, %edx
	movq	%r14, %rdi
	callq	_KLoad0
	movl	$9, %edi
	callq	_KWork
	.loc	1 11546 12              # mpeg2.c:11546:12
.Ltmp375:
	movl	-116(%rbp), %r15d
	leaq	-128(%rbp), %rdi
.Ltmp376:
	#DEBUG_VALUE: mpeg2_frame_ME:dmcfield <- [RDI+0]
	movl	$36, %esi
	movl	$4, %edx
	callq	_KLoad0
	movl	-128(%rbp), %r12d
	.loc	1 11547 9               # mpeg2.c:11547:9
.Ltmp377:
	leaq	4(%r13), %rbx
	movl	$2, 32(%rsp)
	movl	$28, 24(%rsp)
	movl	$1, 16(%rsp)
	movl	$36, 8(%rsp)
	movl	$1, (%rsp)
	movl	$379, %edi              # imm = 0x17B
.Ltmp378:
	movl	$10, %esi
	movl	$4, %edx
	movl	$12, %ecx
	movl	$3, %r8d
	movl	$35, %r9d
	callq	_KTimestamp5
	callq	_KPopCDep
	movl	$379, %edi              # imm = 0x17B
	callq	_KPushCDep
	movl	$4, %esi
	movq	%rbx, %rdi
	callq	_KStoreConst
.Ltmp379:
	.loc	1 11546 12              # mpeg2.c:11546:12
	cmpl	%r12d, %r15d
	jle	.LBB3_10
.Ltmp380:
# BB#14:                                # %if.else42
	#DEBUG_VALUE: mpeg2_frame_ME:oldref <- [RBP+-240]
	#DEBUG_VALUE: mpeg2_frame_ME:cur <- [RBP+-288]
	#DEBUG_VALUE: mpeg2_frame_ME:i <- [RBP+-244]
	#DEBUG_VALUE: mpeg2_frame_ME:mbi <- R13
	#DEBUG_VALUE: mpeg2_frame_ME:mbi <- [RBP+-352]
	#DEBUG_VALUE: mpeg2_frame_ME:mb <- [RBP+-232]
	#DEBUG_VALUE: mpeg2_frame_ME:var <- [RBP+-224]
	#DEBUG_VALUE: mpeg2_frame_ME:j <- [RBP+-272]
	movl	$11, %edi
	callq	_KWork
	.loc	1 11553 9               # mpeg2.c:11553:9
.Ltmp381:
	movl	$1, (%rbx)
	leaq	-128(%rbp), %rdi
.Ltmp382:
	#DEBUG_VALUE: mpeg2_frame_ME:dmcfield <- [RDI+0]
	movl	$46, %esi
	movl	$4, %edx
	callq	_KLoad0
	.loc	1 11554 15              # mpeg2.c:11554:15
	movl	-128(%rbp), %ebx
.Ltmp383:
	#DEBUG_VALUE: mpeg2_frame_ME:dmc <- EBX
	movl	$46, %edi
.Ltmp384:
	movl	$46, %esi
	xorl	%edx, %edx
	callq	_KTimestamp1
	movl	$46, %edi
	movl	$4, %edx
	movq	%r14, %rsi
	callq	_KStore
	.loc	1 11554 9 is_stmt 0     # mpeg2.c:11554:9
	movl	%ebx, -116(%rbp)
	leaq	-140(%rbp), %rdi
.Ltmp385:
	#DEBUG_VALUE: mpeg2_frame_ME:tsel <- [RDI+0]
	movl	$47, %esi
	movl	$4, %edx
	callq	_KLoad0
	.loc	1 11557 24 is_stmt 1    # mpeg2.c:11557:24
	movl	-140(%rbp), %ebx
.Ltmp386:
	movl	$3, 48(%rsp)
	movl	$28, 40(%rsp)
	movl	$2, 32(%rsp)
	movl	$36, 24(%rsp)
	movl	$2, 16(%rsp)
	movl	$35, 8(%rsp)
	movl	$4, (%rsp)
	movl	$378, %edi              # imm = 0x17A
.Ltmp387:
	movl	$10, %esi
	movl	$5, %edx
	movl	$47, %ecx
	movl	$1, %r8d
	movl	$12, %r9d
	callq	_KTimestamp6
	callq	_KPopCDep
	cmpl	$0, %ebx
	movl	$0, %ebx
	movl	$0, %r15d
	je	.LBB3_16
# BB#15:                                # %cond.true
	#DEBUG_VALUE: mpeg2_frame_ME:oldref <- [RBP+-240]
	#DEBUG_VALUE: mpeg2_frame_ME:cur <- [RBP+-288]
	#DEBUG_VALUE: mpeg2_frame_ME:i <- [RBP+-244]
	#DEBUG_VALUE: mpeg2_frame_ME:mbi <- [RBP+-352]
	#DEBUG_VALUE: mpeg2_frame_ME:mb <- [RBP+-232]
	#DEBUG_VALUE: mpeg2_frame_ME:var <- [RBP+-224]
	#DEBUG_VALUE: mpeg2_frame_ME:j <- [RBP+-272]
	movl	$378, %edi              # imm = 0x17A
	callq	_KPushCDep
	movl	$48, %ebx
	movl	$mpeg2_width, %edi
	movl	$48, %esi
	movl	$4, %edx
	callq	_KLoad0
	movl	$4, %edi
	callq	_KWork
	movslq	mpeg2_width(%rip), %r15
	movl	$48, %edi
	movl	$48, %esi
	xorl	%edx, %edx
	callq	_KTimestamp1
	callq	_KPopCDep
.LBB3_16:                               # %cond.end
	#DEBUG_VALUE: mpeg2_frame_ME:oldref <- [RBP+-240]
	#DEBUG_VALUE: mpeg2_frame_ME:cur <- [RBP+-288]
	#DEBUG_VALUE: mpeg2_frame_ME:i <- [RBP+-244]
	#DEBUG_VALUE: mpeg2_frame_ME:mbi <- [RBP+-352]
	#DEBUG_VALUE: mpeg2_frame_ME:mb <- [RBP+-232]
	#DEBUG_VALUE: mpeg2_frame_ME:var <- [RBP+-224]
	#DEBUG_VALUE: mpeg2_frame_ME:j <- [RBP+-272]
	movl	$379, %edi              # imm = 0x17B
	callq	_KPushCDep
	movl	$377, %edi              # imm = 0x179
	movl	$378, %edx              # imm = 0x17A
	movl	$379, %ecx              # imm = 0x17B
	movl	%ebx, %esi
	callq	_KPhi2To1
	movl	$37, %edi
	callq	_KWork
	leaq	-68(%rbp), %r13
.Ltmp388:
	#DEBUG_VALUE: mpeg2_frame_ME:imint <- [R13+0]
	movl	$49, %esi
	movl	$4, %edx
	movq	%r13, %rdi
	callq	_KLoad0
	.loc	1 11557 53 is_stmt 0    # mpeg2.c:11557:53
	movl	-68(%rbp), %eax
	sarl	%eax
	.loc	1 11557 13              # mpeg2.c:11557:13
	movslq	%eax, %rbx
	addq	%r15, %rbx
	movl	$mpeg2_width, %edi
	movl	$50, %esi
	movl	$4, %edx
	callq	_KLoad0
	.loc	1 11558 24 is_stmt 1    # mpeg2.c:11558:24
	movl	mpeg2_width(%rip), %r15d
	leaq	-72(%rbp), %r14
.Ltmp389:
	#DEBUG_VALUE: mpeg2_frame_ME:jmint <- [R14+0]
	movl	$51, %esi
	movl	$4, %edx
	movq	%r14, %rdi
	callq	_KLoad0
	.loc	1 11558 47 is_stmt 0    # mpeg2.c:11558:47
	movl	-72(%rbp), %eax
	shrl	%eax
	.loc	1 11558 22              # mpeg2.c:11558:22
	imull	%r15d, %eax
	addl	%eax, %eax
	.loc	1 11557 13 is_stmt 1    # mpeg2.c:11557:13
	movslq	%eax, %r12
	addq	%rbx, %r12
	addq	-240(%rbp), %r12        # 8-byte Folded Reload
	movl	$mpeg2_width, %edi
	movl	$52, %esi
	movl	$4, %edx
	callq	_KLoad0
	.loc	1 11559 17              # mpeg2.c:11559:17
	movl	mpeg2_width(%rip), %r15d
	addl	%r15d, %r15d
	movl	$53, %esi
	movl	$4, %edx
	movq	%r13, %rdi
	callq	_KLoad0
	.loc	1 11559 35 is_stmt 0    # mpeg2.c:11559:35
	movl	-68(%rbp), %r13d
.Ltmp390:
	andl	$1, %r13d
	movl	$54, %esi
	movl	$4, %edx
	movq	%r14, %rdi
	callq	_KLoad0
	.loc	1 11559 46              # mpeg2.c:11559:46
	movl	-72(%rbp), %r14d
.Ltmp391:
	andl	$1, %r14d
	movl	$3, 48(%rsp)
	movl	$28, 40(%rsp)
	movl	$2, 32(%rsp)
	movl	$36, 24(%rsp)
	movl	$2, 16(%rsp)
	movl	$35, 8(%rsp)
	movl	$4, (%rsp)
	movl	$58, %edi
	movl	$10, %esi
	movl	$5, %edx
	movl	$54, %ecx
	movl	$1, %r8d
	movl	$12, %r9d
	callq	_KTimestamp6
	movabsq	$648329251637288991, %rdi # imm = 0x8FF5404F555E01F
	xorl	%esi, %esi
	callq	_KPrepCall
	callq	_KEnqArgConst
	movl	$58, %edi
	callq	_KEnqArg
	movl	$3, 48(%rsp)
	movl	$28, 40(%rsp)
	movl	$2, 32(%rsp)
	movl	$36, 24(%rsp)
	movl	$2, 16(%rsp)
	movl	$35, 8(%rsp)
	movl	$4, (%rsp)
	movl	$57, %edi
	movl	$10, %esi
	movl	$5, %edx
	movl	$53, %ecx
	movl	$1, %r8d
	movl	$12, %r9d
	callq	_KTimestamp6
	movl	$57, %edi
	callq	_KEnqArg
	movl	$3, 48(%rsp)
	movl	$28, 40(%rsp)
	movl	$2, 32(%rsp)
	movl	$36, 24(%rsp)
	movl	$2, 16(%rsp)
	movl	$35, 8(%rsp)
	movl	$4, (%rsp)
	movl	$56, %edi
	movl	$10, %esi
	movl	$5, %edx
	movl	$52, %ecx
	movl	$1, %r8d
	movl	$12, %r9d
	callq	_KTimestamp6
	movl	$56, %edi
	callq	_KEnqArg
	movl	$55, %edi
	callq	_KLinkReturn
	movl	$8, %r9d
	.loc	1 11556 11 is_stmt 1    # mpeg2.c:11556:11
	movq	%r12, %rdi
	movq	-232(%rbp), %rsi        # 8-byte Reload
	movl	%r15d, %edx
	movl	%r13d, %ecx
	movl	%r14d, %r8d
	callq	mpeg2_dist2
	movl	%eax, -264(%rbp)        # 4-byte Spill
	#DEBUG_VALUE: mpeg2_frame_ME:vmc <- [RBP+-264]
	leaq	-144(%rbp), %rdi
.Ltmp392:
	#DEBUG_VALUE: mpeg2_frame_ME:bsel <- [RDI+0]
	movl	$59, %esi
	movl	$4, %edx
	callq	_KLoad0
	.loc	1 11562 24              # mpeg2.c:11562:24
	movl	-144(%rbp), %ebx
	movl	$3, 48(%rsp)
	movl	$28, 40(%rsp)
	movl	$2, 32(%rsp)
	movl	$36, 24(%rsp)
	movl	$2, 16(%rsp)
	movl	$35, 8(%rsp)
	movl	$4, (%rsp)
	movl	$381, %edi              # imm = 0x17D
.Ltmp393:
	movl	$10, %esi
	movl	$5, %edx
	movl	$59, %ecx
	movl	$1, %r8d
	movl	$12, %r9d
	callq	_KTimestamp6
	callq	_KPopCDep
	cmpl	$0, %ebx
	movl	$0, %r14d
	movl	$0, %ebx
	je	.LBB3_18
# BB#17:                                # %cond.true59
	#DEBUG_VALUE: mpeg2_frame_ME:oldref <- [RBP+-240]
	#DEBUG_VALUE: mpeg2_frame_ME:cur <- [RBP+-288]
	#DEBUG_VALUE: mpeg2_frame_ME:i <- [RBP+-244]
	#DEBUG_VALUE: mpeg2_frame_ME:mbi <- [RBP+-352]
	#DEBUG_VALUE: mpeg2_frame_ME:mb <- [RBP+-232]
	#DEBUG_VALUE: mpeg2_frame_ME:var <- [RBP+-224]
	#DEBUG_VALUE: mpeg2_frame_ME:j <- [RBP+-272]
	#DEBUG_VALUE: mpeg2_frame_ME:vmc <- [RBP+-264]
	movl	$381, %edi              # imm = 0x17D
	callq	_KPushCDep
	movl	$60, %ebx
	movl	$mpeg2_width, %edi
	movl	$60, %esi
	movl	$4, %edx
	callq	_KLoad0
	movl	$4, %edi
	callq	_KWork
	movslq	mpeg2_width(%rip), %r14
	movl	$60, %edi
	movl	$60, %esi
	xorl	%edx, %edx
	callq	_KTimestamp1
	callq	_KPopCDep
.LBB3_18:                               # %cond.end61
	#DEBUG_VALUE: mpeg2_frame_ME:oldref <- [RBP+-240]
	#DEBUG_VALUE: mpeg2_frame_ME:cur <- [RBP+-288]
	#DEBUG_VALUE: mpeg2_frame_ME:i <- [RBP+-244]
	#DEBUG_VALUE: mpeg2_frame_ME:mbi <- [RBP+-352]
	#DEBUG_VALUE: mpeg2_frame_ME:mb <- [RBP+-232]
	#DEBUG_VALUE: mpeg2_frame_ME:var <- [RBP+-224]
	#DEBUG_VALUE: mpeg2_frame_ME:j <- [RBP+-272]
	#DEBUG_VALUE: mpeg2_frame_ME:vmc <- [RBP+-264]
	movl	$379, %edi              # imm = 0x17B
	callq	_KPushCDep
	movl	$380, %edi              # imm = 0x17C
	movl	$381, %edx              # imm = 0x17D
	movl	$379, %ecx              # imm = 0x17B
	movl	%ebx, %esi
	callq	_KPhi2To1
	movl	$37, %edi
	callq	_KWork
	leaq	-76(%rbp), %r13
.Ltmp394:
	#DEBUG_VALUE: mpeg2_frame_ME:iminb <- [R13+0]
	movl	$61, %esi
	movl	$4, %edx
	movq	%r13, %rdi
	callq	_KLoad0
	.loc	1 11562 53 is_stmt 0    # mpeg2.c:11562:53
	movl	-76(%rbp), %eax
	sarl	%eax
	.loc	1 11562 13              # mpeg2.c:11562:13
	movslq	%eax, %rbx
	addq	%r14, %rbx
	movl	$mpeg2_width, %edi
	movl	$62, %esi
	movl	$4, %edx
	callq	_KLoad0
	.loc	1 11563 24 is_stmt 1    # mpeg2.c:11563:24
	movl	mpeg2_width(%rip), %r14d
	leaq	-80(%rbp), %r15
.Ltmp395:
	#DEBUG_VALUE: mpeg2_frame_ME:jminb <- [R15+0]
	movl	$63, %esi
	movl	$4, %edx
	movq	%r15, %rdi
	callq	_KLoad0
	.loc	1 11563 47 is_stmt 0    # mpeg2.c:11563:47
	movl	-80(%rbp), %eax
	shrl	%eax
	.loc	1 11563 22              # mpeg2.c:11563:22
	imull	%r14d, %eax
	addl	%eax, %eax
	.loc	1 11562 13 is_stmt 1    # mpeg2.c:11562:13
	movslq	%eax, %r12
	addq	%rbx, %r12
	addq	-240(%rbp), %r12        # 8-byte Folded Reload
	movl	$mpeg2_width, %edi
	movl	$64, %esi
	movl	$4, %edx
	callq	_KLoad0
	.loc	1 11564 13              # mpeg2.c:11564:13
	movslq	mpeg2_width(%rip), %rax
	addq	-296(%rbp), %rax        # 8-byte Folded Reload
	movq	-288(%rbp), %rbx        # 8-byte Reload
.Ltmp396:
	#DEBUG_VALUE: mpeg2_frame_ME:cur <- RBX
	addq	%rax, %rbx
.Ltmp397:
	movl	$mpeg2_width, %edi
	movl	$65, %esi
	movl	$4, %edx
	callq	_KLoad0
	.loc	1 11564 31 is_stmt 0    # mpeg2.c:11564:31
	movl	mpeg2_width(%rip), %r14d
	addl	%r14d, %r14d
	movl	$66, %esi
	movl	$4, %edx
	movq	%r13, %rdi
	callq	_KLoad0
	.loc	1 11564 49              # mpeg2.c:11564:49
	movl	-76(%rbp), %r13d
.Ltmp398:
	andl	$1, %r13d
	movl	$67, %esi
	movl	$4, %edx
	movq	%r15, %rdi
	callq	_KLoad0
	.loc	1 11564 60              # mpeg2.c:11564:60
	movl	-80(%rbp), %r15d
.Ltmp399:
	andl	$1, %r15d
	xorl	%eax, %eax
	movq	%rax, -256(%rbp)        # 8-byte Spill
	movabsq	$-4751442672928719009, %rdi # imm = 0xBE0F7C102D737F5F
	xorl	%esi, %esi
	callq	_KPrepCall
	callq	_KEnqArgConst
	movl	$3, 48(%rsp)
	movl	$28, 40(%rsp)
	movl	$2, 32(%rsp)
	movl	$36, 24(%rsp)
	movl	$2, 16(%rsp)
	movl	$35, 8(%rsp)
	movl	$4, (%rsp)
	movl	$71, %edi
	movl	$10, %esi
	movl	$5, %edx
	movl	$67, %ecx
	movl	$1, %r8d
	movl	$12, %r9d
	callq	_KTimestamp6
	movl	$71, %edi
	callq	_KEnqArg
	movl	$3, 48(%rsp)
	movl	$28, 40(%rsp)
	movl	$2, 32(%rsp)
	movl	$36, 24(%rsp)
	movl	$2, 16(%rsp)
	movl	$35, 8(%rsp)
	movl	$4, (%rsp)
	movl	$70, %edi
	movl	$10, %esi
	movl	$5, %edx
	movl	$66, %ecx
	movl	$1, %r8d
	movl	$12, %r9d
	callq	_KTimestamp6
	movl	$70, %edi
	callq	_KEnqArg
	movl	$3, 48(%rsp)
	movl	$28, 40(%rsp)
	movl	$2, 32(%rsp)
	movl	$36, 24(%rsp)
	movl	$2, 16(%rsp)
	movl	$35, 8(%rsp)
	movl	$4, (%rsp)
	movl	$69, %edi
	movl	$65, %esi
	movl	$1, %edx
	movl	$10, %ecx
	movl	$5, %r8d
	movl	$12, %r9d
	callq	_KTimestamp6
	movl	$69, %edi
	callq	_KEnqArg
	movl	$68, %edi
	callq	_KLinkReturn
	movl	$8, %r9d
	.loc	1 11561 11 is_stmt 1    # mpeg2.c:11561:11
	movq	%r12, %rdi
	movq	%rbx, %rsi
	movl	%r14d, %edx
	movl	%r13d, %ecx
	movl	%r15d, %r8d
	callq	mpeg2_dist2
	movl	%eax, %r14d
	.loc	1 11560 9               # mpeg2.c:11560:9
	addl	-264(%rbp), %r14d       # 4-byte Folded Reload
.Ltmp400:
	#DEBUG_VALUE: mpeg2_frame_ME:vmc <- R14D
	movl	$3, 64(%rsp)
	movl	$28, 56(%rsp)
	movl	$2, 48(%rsp)
	movl	$36, 40(%rsp)
	movl	$2, 32(%rsp)
	movl	$35, 24(%rsp)
	movl	$4, 16(%rsp)
	movl	$12, 8(%rsp)
	movl	$1, (%rsp)
	movl	$382, %r15d             # imm = 0x17E
	movl	$382, %edi              # imm = 0x17E
	movl	$10, %esi
	movl	$5, %edx
	movl	$55, %ecx
	movl	$1, %r8d
	movl	$68, %r9d
	callq	_KTimestamp7
	callq	_KPopCDep
	xorl	%r12d, %r12d
	movq	-224(%rbp), %r13        # 8-byte Reload
.Ltmp401:
	#DEBUG_VALUE: mpeg2_frame_ME:var <- R13D
	movl	$385, %ebx              # imm = 0x181
	movl	$379, %eax              # imm = 0x17B
	movq	%rax, -264(%rbp)        # 8-byte Spill
	jmp	.LBB3_19
.Ltmp402:
.LBB3_10:                               # %if.then30
	#DEBUG_VALUE: mpeg2_frame_ME:oldref <- [RBP+-240]
	#DEBUG_VALUE: mpeg2_frame_ME:i <- [RBP+-244]
	#DEBUG_VALUE: mpeg2_frame_ME:mbi <- R13
	#DEBUG_VALUE: mpeg2_frame_ME:mbi <- [RBP+-352]
	#DEBUG_VALUE: mpeg2_frame_ME:mb <- [RBP+-232]
	#DEBUG_VALUE: mpeg2_frame_ME:var <- [RBP+-224]
	#DEBUG_VALUE: mpeg2_frame_ME:j <- [RBP+-272]
	movl	$31, %edi
	callq	_KWork
	.loc	1 11547 9               # mpeg2.c:11547:9
.Ltmp403:
	movl	$2, (%rbx)
	leaq	-44(%rbp), %r12
.Ltmp404:
	#DEBUG_VALUE: mpeg2_frame_ME:imin <- [R12+0]
	movl	$37, %esi
	movl	$4, %edx
	movq	%r12, %rdi
	callq	_KLoad0
	.loc	1 11550 24              # mpeg2.c:11550:24
	movl	-44(%rbp), %eax
	sarl	%eax
	movl	$379, %ecx              # imm = 0x17B
	.loc	1 11550 13 is_stmt 0    # mpeg2.c:11550:13
	movq	%rcx, -264(%rbp)        # 8-byte Spill
	movslq	%eax, %r13
	movl	$mpeg2_width, %edi
	movl	$38, %esi
	movl	$4, %edx
	callq	_KLoad0
	movslq	mpeg2_width(%rip), %rbx
	leaq	-48(%rbp), %r15
.Ltmp405:
	#DEBUG_VALUE: mpeg2_frame_ME:jmin <- [R15+0]
	movl	$39, %esi
	movl	$4, %edx
	movq	%r15, %rdi
	callq	_KLoad0
	.loc	1 11550 54              # mpeg2.c:11550:54
	movl	-48(%rbp), %eax
	sarl	%eax
	.loc	1 11550 13              # mpeg2.c:11550:13
	movslq	%eax, %r14
	.loc	1 11550 38              # mpeg2.c:11550:38
	imulq	%rbx, %r14
	.loc	1 11550 13              # mpeg2.c:11550:13
	addq	%r13, %r14
	addq	-240(%rbp), %r14        # 8-byte Folded Reload
	movl	$mpeg2_width, %edi
	movl	$40, %esi
	movl	$4, %edx
	callq	_KLoad0
	.loc	1 11551 13 is_stmt 1    # mpeg2.c:11551:13
	movl	mpeg2_width(%rip), %r13d
	movl	$41, %esi
	movl	$4, %edx
	movq	%r12, %rdi
	callq	_KLoad0
	.loc	1 11551 26 is_stmt 0    # mpeg2.c:11551:26
	movl	-44(%rbp), %r12d
.Ltmp406:
	andl	$1, %r12d
	movl	$42, %esi
	movl	$4, %edx
	movq	%r15, %rdi
	callq	_KLoad0
	.loc	1 11551 36              # mpeg2.c:11551:36
	movl	-48(%rbp), %ebx
	andl	$1, %ebx
	movl	$3, 48(%rsp)
	movl	$28, 40(%rsp)
	movl	$1, 32(%rsp)
	movl	$42, 24(%rsp)
	movl	$2, 16(%rsp)
	movl	$36, 8(%rsp)
	movl	$2, (%rsp)
	movl	$45, %edi
	movl	$10, %esi
	movl	$5, %edx
	movl	$12, %ecx
	movl	$4, %r8d
	movl	$35, %r9d
	callq	_KTimestamp6
	xorl	%eax, %eax
	movq	%rax, -256(%rbp)        # 8-byte Spill
	movabsq	$-8579547716293457745, %rdi # imm = 0x88EF52CEF4D088AF
	xorl	%esi, %esi
	callq	_KPrepCall
	callq	_KEnqArgConst
	movl	$45, %edi
	callq	_KEnqArg
	movl	$3, 48(%rsp)
	movl	$28, 40(%rsp)
	movl	$2, 32(%rsp)
	movl	$36, 24(%rsp)
	movl	$2, 16(%rsp)
	movl	$35, 8(%rsp)
	movl	$4, (%rsp)
	movl	$44, %edi
	movl	$41, %esi
	movl	$1, %edx
	movl	$10, %ecx
	movl	$5, %r8d
	movl	$12, %r9d
	callq	_KTimestamp6
	movl	$44, %edi
	callq	_KEnqArg
	movl	$40, %edi
	movl	$40, %esi
	xorl	%edx, %edx
	callq	_KTimestamp1
	movl	$40, %edi
	callq	_KEnqArg
	movl	$43, %r15d
.Ltmp407:
	movl	$43, %edi
	callq	_KLinkReturn
	movl	$16, %r9d
	.loc	1 11549 11 is_stmt 1    # mpeg2.c:11549:11
	movq	%r14, %rdi
	movq	-232(%rbp), %rsi        # 8-byte Reload
	movl	%r13d, %edx
	movl	%r12d, %ecx
	movl	%ebx, %r8d
	callq	mpeg2_dist2
	movl	%eax, %r14d
.Ltmp408:
	#DEBUG_VALUE: mpeg2_frame_ME:vmc <- R14D
	movl	$43, %edi
	movl	$43, %esi
	xorl	%edx, %edx
	callq	_KTimestamp1
	callq	_KPopCDep
	xorl	%r12d, %r12d
	movq	-224(%rbp), %r13        # 8-byte Reload
.Ltmp409:
	#DEBUG_VALUE: mpeg2_frame_ME:var <- R13D
	movl	$385, %ebx              # imm = 0x181
.Ltmp410:
.LBB3_19:                               # %if.end81
	#DEBUG_VALUE: mpeg2_frame_ME:oldref <- [RBP+-240]
	#DEBUG_VALUE: mpeg2_frame_ME:i <- [RBP+-244]
	#DEBUG_VALUE: mpeg2_frame_ME:mbi <- [RBP+-352]
	#DEBUG_VALUE: mpeg2_frame_ME:mb <- [RBP+-232]
	#DEBUG_VALUE: mpeg2_frame_ME:var <- R13D
	#DEBUG_VALUE: mpeg2_frame_ME:j <- [RBP+-272]
	movl	$383, %edi              # imm = 0x17F
	callq	_KPushCDep
	movq	-256(%rbp), %rax        # 8-byte Reload
	movl	%eax, 16(%rsp)
	movl	%r12d, 8(%rsp)
	movl	%ebx, (%rsp)
	movl	$78, %edi
	movl	$6, %edx
	movl	$383, %r8d              # imm = 0x17F
	movl	$384, %r9d              # imm = 0x180
	xorl	%eax, %eax
	movl	%r15d, %esi
	movq	-264(%rbp), %rcx        # 8-byte Reload
                                        # kill: ECX<def> ECX<kill> RCX<kill>
	callq	_KPhi
	movl	$3, %edi
	callq	_KWork
.Ltmp411:
	#DEBUG_VALUE: mpeg2_frame_ME:var <- R14D
	movl	$3, 16(%rsp)
	movl	$11, 8(%rsp)
	movl	$4, (%rsp)
	movl	$435, %edi              # imm = 0x1B3
	movl	$78, %esi
	movl	$2, %edx
	movl	$9, %ecx
	movl	$2, %r8d
	movl	$10, %r9d
	callq	_KTimestamp4
	movl	$78, %edi
	movl	$78, %esi
	xorl	%edx, %edx
	callq	_KTimestamp1
	callq	_KPopCDep
	movl	$435, %edi              # imm = 0x1B3
	callq	_KPushCDep
	.loc	1 11577 10              # mpeg2.c:11577:10
	cmpl	%r13d, %r14d
	jle	.LBB3_22
.Ltmp412:
# BB#20:                                # %if.end81
	#DEBUG_VALUE: mpeg2_frame_ME:oldref <- [RBP+-240]
	#DEBUG_VALUE: mpeg2_frame_ME:i <- [RBP+-244]
	#DEBUG_VALUE: mpeg2_frame_ME:mbi <- [RBP+-352]
	#DEBUG_VALUE: mpeg2_frame_ME:mb <- [RBP+-232]
	#DEBUG_VALUE: mpeg2_frame_ME:var <- R14D
	#DEBUG_VALUE: mpeg2_frame_ME:j <- [RBP+-272]
	cmpl	$2304, %r14d            # imm = 0x900
	jl	.LBB3_22
.Ltmp413:
# BB#21:                                # %if.then85
	#DEBUG_VALUE: mpeg2_frame_ME:mbi <- [RBP+-352]
	movq	%r13, -224(%rbp)        # 8-byte Spill
	movl	$1, %edi
	callq	_KWork
	movl	$4, %esi
	movq	56(%rbp), %r13
.Ltmp414:
	#DEBUG_VALUE: mpeg2_frame_ME:mbi <- R13
	movq	%r13, %rdi
	callq	_KStoreConst
	.loc	1 11578 7               # mpeg2.c:11578:7
.Ltmp415:
	movl	$1, (%r13)
	callq	_KPopCDep
	movl	$9, %r15d
	movl	$435, %r12d             # imm = 0x1B3
	movl	$383, %eax              # imm = 0x17F
	xorl	%r14d, %r14d
	xorl	%ebx, %ebx
	jmp	.LBB3_96
.Ltmp416:
.LBB3_22:                               # %if.else87
	#DEBUG_VALUE: mpeg2_frame_ME:oldref <- [RBP+-240]
	#DEBUG_VALUE: mpeg2_frame_ME:i <- [RBP+-244]
	#DEBUG_VALUE: mpeg2_frame_ME:mbi <- [RBP+-352]
	#DEBUG_VALUE: mpeg2_frame_ME:mb <- [RBP+-232]
	#DEBUG_VALUE: mpeg2_frame_ME:var <- R14D
	#DEBUG_VALUE: mpeg2_frame_ME:j <- [RBP+-272]
	movl	$17, %edi
	callq	_KWork
	movl	$mpeg2_width, %edi
	movl	$72, %esi
	movl	$4, %edx
	callq	_KLoad0
	.loc	1 11590 22              # mpeg2.c:11590:22
.Ltmp417:
	movslq	mpeg2_width(%rip), %rax
	movq	-272(%rbp), %rcx        # 8-byte Reload
.Ltmp418:
	#DEBUG_VALUE: mpeg2_frame_ME:j <- ECX
	movslq	%ecx, %rcx
.Ltmp419:
	.loc	1 11590 35 is_stmt 0    # mpeg2.c:11590:35
	imulq	%rax, %rcx
	.loc	1 11590 22              # mpeg2.c:11590:22
	addq	-304(%rbp), %rcx        # 8-byte Folded Reload
	movq	-240(%rbp), %rbx        # 8-byte Reload
.Ltmp420:
	#DEBUG_VALUE: mpeg2_frame_ME:oldref <- RBX
	addq	%rcx, %rbx
.Ltmp421:
	movl	$mpeg2_width, %edi
	movl	$73, %esi
	movl	$4, %edx
	callq	_KLoad0
	.loc	1 11590 56              # mpeg2.c:11590:56
	movl	mpeg2_width(%rip), %r12d
	movabsq	$5253292016418957239, %rdi # imm = 0x48E771417C0C27B7
	xorl	%esi, %esi
	callq	_KPrepCall
	callq	_KEnqArgConst
	callq	_KEnqArgConst
	callq	_KEnqArgConst
	movl	$73, %edi
	movl	$73, %esi
	xorl	%edx, %edx
	callq	_KTimestamp1
	movl	$73, %edi
	callq	_KEnqArg
	movl	$74, %r15d
	movl	$74, %edi
	callq	_KLinkReturn
	xorl	%ecx, %ecx
	xorl	%r8d, %r8d
	movl	$16, %r9d
	.loc	1 11590 9               # mpeg2.c:11590:9
	movq	%rbx, %rdi
	movq	-232(%rbp), %rsi        # 8-byte Reload
	movl	%r12d, %edx
	callq	mpeg2_dist2
	movl	%eax, %ebx
.Ltmp422:
	#DEBUG_VALUE: mpeg2_frame_ME:v0 <- EBX
	#DEBUG_VALUE: mpeg2_frame_ME:var <- EBX
	movl	$7, 32(%rsp)
	movl	$11, 24(%rsp)
	movl	$4, 16(%rsp)
	movl	$74, 8(%rsp)
	movl	$8, (%rsp)
	movl	$434, %edi              # imm = 0x1B2
	movl	$78, %esi
	movl	$6, %edx
	movl	$9, %ecx
	movl	$6, %r8d
	movl	$10, %r9d
	callq	_KTimestamp5
	movl	$74, %edi
	movl	$74, %esi
	xorl	%edx, %edx
	callq	_KTimestamp1
	callq	_KPopCDep
	movl	$434, %edi              # imm = 0x1B2
	callq	_KPushCDep
	.loc	1 11592 12 is_stmt 1    # mpeg2.c:11592:12
	cmpl	$2304, %ebx             # imm = 0x900
	jl	.LBB3_30
.Ltmp423:
# BB#23:                                # %if.else87
	#DEBUG_VALUE: mpeg2_frame_ME:i <- [RBP+-244]
	#DEBUG_VALUE: mpeg2_frame_ME:mbi <- [RBP+-352]
	#DEBUG_VALUE: mpeg2_frame_ME:var <- EBX
	#DEBUG_VALUE: mpeg2_frame_ME:j <- ECX
	#DEBUG_VALUE: mpeg2_frame_ME:v0 <- EBX
	.loc	1 11592 14 is_stmt 0    # mpeg2.c:11592:14
	leal	(,%rbx,4), %eax
	.loc	1 11592 23              # mpeg2.c:11592:23
	leal	(%r14,%r14,4), %ecx
.Ltmp424:
	cmpl	%ecx, %eax
	jle	.LBB3_30
.Ltmp425:
# BB#24:                                # %if.then99
	#DEBUG_VALUE: mpeg2_frame_ME:i <- [RBP+-244]
	#DEBUG_VALUE: mpeg2_frame_ME:mbi <- [RBP+-352]
	#DEBUG_VALUE: mpeg2_frame_ME:j <- ECX
	movq	%r14, -224(%rbp)        # 8-byte Spill
.Ltmp426:
	#DEBUG_VALUE: mpeg2_frame_ME:j <- [RBP+-272]
	movl	$6, %edi
	callq	_KWork
	movl	$4, %esi
	movq	56(%rbp), %r13
.Ltmp427:
	#DEBUG_VALUE: mpeg2_frame_ME:mbi <- R13
	movq	%r13, %rdi
	callq	_KStoreConst
	.loc	1 11595 9 is_stmt 1     # mpeg2.c:11595:9
.Ltmp428:
	movl	$8, (%r13)
	.loc	1 11597 14              # mpeg2.c:11597:14
.Ltmp429:
	leaq	4(%r13), %rbx
	movl	$75, %esi
	movl	$4, %edx
	movq	%rbx, %rdi
	callq	_KLoad0
	movl	4(%r13), %r14d
	movl	$8, 48(%rsp)
	movl	$11, 40(%rsp)
	movl	$5, 32(%rsp)
	movl	$74, 24(%rsp)
	movl	$9, 16(%rsp)
	movl	$10, 8(%rsp)
	movl	$7, (%rsp)
	movl	$78, %r15d
	movl	$439, %edi              # imm = 0x1B7
	movl	$75, %esi
	movl	$1, %edx
	movl	$78, %ecx
	movl	$7, %r8d
	movl	$9, %r9d
	callq	_KTimestamp6
	callq	_KPopCDep
	movl	$439, %edi              # imm = 0x1B7
	callq	_KPushCDep
.Ltmp430:
	.loc	1 11597 14 is_stmt 0    # mpeg2.c:11597:14
	cmpl	$2, %r14d
	jne	.LBB3_27
.Ltmp431:
# BB#25:                                # %if.then103
	#DEBUG_VALUE: mpeg2_frame_ME:i <- [RBP+-244]
	#DEBUG_VALUE: mpeg2_frame_ME:mbi <- R13
	#DEBUG_VALUE: mpeg2_frame_ME:j <- [RBP+-272]
	leaq	-44(%rbp), %rdi
.Ltmp432:
	#DEBUG_VALUE: mpeg2_frame_ME:imin <- [RDI+0]
	movl	$76, %esi
	movl	$4, %edx
	callq	_KLoad0
	movl	$14, %edi
.Ltmp433:
	callq	_KWork
	.loc	1 11598 36 is_stmt 1    # mpeg2.c:11598:36
.Ltmp434:
	movl	-44(%rbp), %r12d
	movl	-244(%rbp), %eax        # 4-byte Reload
.Ltmp435:
	#DEBUG_VALUE: mpeg2_frame_ME:i <- EAX
	.loc	1 11598 45 is_stmt 0    # mpeg2.c:11598:45
	addl	%eax, %eax
.Ltmp436:
	.loc	1 11598 36              # mpeg2.c:11598:36
	subl	%eax, %r12d
	.loc	1 11598 11              # mpeg2.c:11598:11
	leaq	24(%r13), %rbx
	movl	$10, 88(%rsp)
	movl	$11, 80(%rsp)
	movl	$7, 72(%rsp)
	movl	$74, 64(%rsp)
	movl	$11, 56(%rsp)
	movl	$10, 48(%rsp)
	movl	$9, 40(%rsp)
	movl	$9, 32(%rsp)
	movl	$2, 24(%rsp)
	movl	$1, 16(%rsp)
	movl	$9, 8(%rsp)
	movl	$78, (%rsp)
	xorl	%r14d, %r14d
	movl	$77, %edi
	movl	$8, %esi
	movl	$76, %edx
	movl	$1, %ecx
	movl	$75, %r8d
	movl	$3, %r9d
	xorl	%eax, %eax
	callq	_KTimestamp
	movl	$77, %edi
	movl	$4, %edx
	movq	%rbx, %rsi
	callq	_KStore
	movl	%r12d, 24(%r13)
	leaq	-48(%rbp), %rdi
.Ltmp437:
	#DEBUG_VALUE: mpeg2_frame_ME:jmin <- [RDI+0]
	movl	$79, %esi
	movl	$4, %edx
	callq	_KLoad0
	.loc	1 11599 36 is_stmt 1    # mpeg2.c:11599:36
	movl	-48(%rbp), %ebx
	movq	-272(%rbp), %rax        # 8-byte Reload
.Ltmp438:
	#DEBUG_VALUE: mpeg2_frame_ME:j <- EAX
	.loc	1 11599 45 is_stmt 0    # mpeg2.c:11599:45
	addl	%eax, %eax
.Ltmp439:
	.loc	1 11599 36              # mpeg2.c:11599:36
	subl	%eax, %ebx
	.loc	1 11599 11              # mpeg2.c:11599:11
	leaq	28(%r13), %r12
	movl	$10, 88(%rsp)
	movl	$11, 80(%rsp)
	movl	$7, 72(%rsp)
	movl	$74, 64(%rsp)
	movl	$11, 56(%rsp)
	movl	$10, 48(%rsp)
	movl	$9, 40(%rsp)
	movl	$9, 32(%rsp)
	movl	$2, 24(%rsp)
	movl	$2, 16(%rsp)
	movl	$9, 8(%rsp)
	movl	$78, (%rsp)
	movl	$80, %edi
.Ltmp440:
	movl	$8, %esi
	movl	$79, %edx
	movl	$1, %ecx
	movl	$75, %r8d
	movl	$3, %r9d
	xorl	%eax, %eax
	callq	_KTimestamp
	movl	$80, %edi
	movl	$4, %edx
	movq	%r12, %rsi
	callq	_KStore
	movl	%ebx, 28(%r13)
	jmp	.LBB3_26
.Ltmp441:
.LBB3_30:                               # %if.else167
	#DEBUG_VALUE: mpeg2_frame_ME:mbi <- [RBP+-352]
	#DEBUG_VALUE: mpeg2_frame_ME:var <- EBX
	#DEBUG_VALUE: mpeg2_frame_ME:v0 <- EBX
	movq	%rbx, -224(%rbp)        # 8-byte Spill
.Ltmp442:
	#DEBUG_VALUE: mpeg2_frame_ME:v0 <- [RBP+-224]
	#DEBUG_VALUE: mpeg2_frame_ME:var <- [RBP+-224]
	movl	$4, %edi
	callq	_KWork
	movl	$4, %esi
	movq	56(%rbp), %r13
.Ltmp443:
	#DEBUG_VALUE: mpeg2_frame_ME:mbi <- R13
	movq	%r13, %rdi
	callq	_KStoreConst
	.loc	1 11623 9 is_stmt 1     # mpeg2.c:11623:9
.Ltmp444:
	movl	$0, (%r13)
	.loc	1 11624 9               # mpeg2.c:11624:9
	leaq	4(%r13), %rdi
	movl	$4, %esi
	callq	_KStoreConst
	movl	$2, 4(%r13)
	.loc	1 11625 9               # mpeg2.c:11625:9
	leaq	24(%r13), %rdi
	movl	$4, %esi
	callq	_KStoreConst
	movl	$0, 24(%r13)
	.loc	1 11626 9               # mpeg2.c:11626:9
	leaq	28(%r13), %rdi
	movl	$4, %esi
	callq	_KStoreConst
	movl	$0, 28(%r13)
	callq	_KPopCDep
	movl	$435, %r12d             # imm = 0x1B3
	movl	$383, %eax              # imm = 0x17F
	movl	$434, %ebx              # imm = 0x1B2
	xorl	%r14d, %r14d
	jmp	.LBB3_96
.Ltmp445:
.LBB3_34:                               # %if.then227
	#DEBUG_VALUE: mpeg2_frame_ME:i <- [RBP+-244]
	#DEBUG_VALUE: mpeg2_frame_ME:mbi <- undef
	#DEBUG_VALUE: mpeg2_frame_ME:var <- [RBP+-224]
	#DEBUG_VALUE: mpeg2_frame_ME:j <- [RBP+-272]
	#DEBUG_VALUE: mpeg2_frame_ME:vmcf <- EBX
	#DEBUG_VALUE: mpeg2_frame_ME:vmcf <- [RBP+-264]
	movl	$390, %edi              # imm = 0x186
	callq	_KPushCDep
	movl	$1, %edi
	callq	_KWork
	movl	$4, %esi
	movq	56(%rbp), %rbx
.Ltmp446:
	#DEBUG_VALUE: mpeg2_frame_ME:mbi <- RBX
	movq	%rbx, %rdi
	callq	_KStoreConst
	.loc	1 11667 9               # mpeg2.c:11667:9
.Ltmp447:
	movl	$8, (%rbx)
	callq	_KPopCDep
	xorl	%r15d, %r15d
.Ltmp448:
.LBB3_39:                               # %if.end236
	#DEBUG_VALUE: mpeg2_frame_ME:i <- [RBP+-244]
	#DEBUG_VALUE: mpeg2_frame_ME:mbi <- RBX
	#DEBUG_VALUE: mpeg2_frame_ME:var <- [RBP+-224]
	#DEBUG_VALUE: mpeg2_frame_ME:j <- [RBP+-272]
	movl	$384, %edi              # imm = 0x180
	callq	_KPushCDep
	movl	$388, -296(%rbp)        # 4-byte Folded Spill
                                        # imm = 0x184
	movl	$388, %edi              # imm = 0x184
	movl	$391, %r8d              # imm = 0x187
	movl	$384, %r9d              # imm = 0x180
	movl	%r12d, %esi
	movl	%r15d, %edx
	movl	%r13d, %ecx
	callq	_KPhi4To1
	movl	$1, %edi
	callq	_KWork
	.loc	1 11678 7               # mpeg2.c:11678:7
	leaq	4(%rbx), %rdi
	movl	$4, %esi
	callq	_KStoreConst
	movl	$2, 4(%rbx)
.Ltmp449:
	#DEBUG_VALUE: mpeg2_frame_ME:mbi <- [RBP+-352]
	xorl	%eax, %eax
	movq	%rax, -256(%rbp)        # 8-byte Spill
	movl	$388, %edi              # imm = 0x184
	movl	$388, %esi              # imm = 0x184
	xorl	%edx, %edx
	callq	_KTimestamp1
	callq	_KPopCDep
	xorl	%eax, %eax
	movq	%rax, -312(%rbp)        # 8-byte Spill
	xorl	%eax, %eax
	movq	%rax, -320(%rbp)        # 8-byte Spill
	xorl	%r12d, %r12d
	xorl	%eax, %eax
	movq	%rax, -304(%rbp)        # 8-byte Spill
	xorl	%ebx, %ebx
	xorl	%eax, %eax
	movq	%rax, -232(%rbp)        # 8-byte Spill
	xorl	%eax, %eax
	movq	%rax, -240(%rbp)        # 8-byte Spill
	xorl	%eax, %eax
	movq	%rax, -336(%rbp)        # 8-byte Spill
	xorl	%r13d, %r13d
	xorl	%eax, %eax
	movq	%rax, -280(%rbp)        # 8-byte Spill
	xorl	%eax, %eax
	movq	%rax, -328(%rbp)        # 8-byte Spill
	xorl	%eax, %eax
	movq	%rax, -288(%rbp)        # 8-byte Spill
	xorl	%r15d, %r15d
	xorl	%r14d, %r14d
.Ltmp450:
.LBB3_89:                               # %if.end585
	#DEBUG_VALUE: mpeg2_frame_ME:i <- [RBP+-244]
	#DEBUG_VALUE: mpeg2_frame_ME:mbi <- [RBP+-352]
	#DEBUG_VALUE: mpeg2_frame_ME:var <- [RBP+-224]
	#DEBUG_VALUE: mpeg2_frame_ME:j <- [RBP+-272]
	movl	$383, %edi              # imm = 0x17F
	callq	_KPushCDep
	movq	-256(%rbp), %rax        # 8-byte Reload
	movl	%eax, 104(%rsp)
	movq	-312(%rbp), %rax        # 8-byte Reload
	movl	%eax, 96(%rsp)
	movq	-320(%rbp), %rax        # 8-byte Reload
	movl	%eax, 88(%rsp)
	movq	-328(%rbp), %rax        # 8-byte Reload
	movl	%eax, 80(%rsp)
	movl	%r12d, 72(%rsp)
	movq	-304(%rbp), %rax        # 8-byte Reload
	movl	%eax, 64(%rsp)
	movl	%ebx, 56(%rsp)
	movq	-232(%rbp), %rax        # 8-byte Reload
	movl	%eax, 48(%rsp)
	movq	-240(%rbp), %rax        # 8-byte Reload
	movl	%eax, 40(%rsp)
	movq	-336(%rbp), %rax        # 8-byte Reload
	movl	%eax, 32(%rsp)
	movl	%r13d, 24(%rsp)
	movq	-280(%rbp), %rax        # 8-byte Reload
	movl	%eax, 16(%rsp)
	movq	-288(%rbp), %rax        # 8-byte Reload
	movl	%eax, 8(%rsp)
	movl	$383, (%rsp)            # imm = 0x17F
	movl	$349, %edi              # imm = 0x15D
	movl	$17, %edx
	movl	$384, %ecx              # imm = 0x180
	xorl	%eax, %eax
	movl	-296(%rbp), %esi        # 4-byte Reload
	movl	%r14d, %r8d
	movl	%r15d, %r9d
	callq	_KPhi
	movl	$3, %edi
	callq	_KWork
.Ltmp451:
	#DEBUG_VALUE: mpeg2_frame_ME:var <- [RBP+-264]
	movl	$2, 16(%rsp)
	movl	$349, 8(%rsp)           # imm = 0x15D
	movl	$3, (%rsp)
	movl	$437, %edi              # imm = 0x1B5
	movl	$9, %esi
	movl	$2, %edx
	movl	$10, %ecx
	movl	$4, %r8d
	movl	$11, %r9d
	callq	_KTimestamp4
	movl	$349, %edi              # imm = 0x15D
	movl	$349, %esi              # imm = 0x15D
	xorl	%edx, %edx
	callq	_KTimestamp1
	callq	_KPopCDep
	movl	$437, %edi              # imm = 0x1B5
	callq	_KPushCDep
	movq	-224(%rbp), %rax        # 8-byte Reload
	movl	-264(%rbp), %ecx        # 4-byte Reload
.Ltmp452:
	#DEBUG_VALUE: mpeg2_frame_ME:var <- ECX
	.loc	1 11817 10              # mpeg2.c:11817:10
	cmpl	%eax, %ecx
	movl	%ecx, %eax
.Ltmp453:
	#DEBUG_VALUE: mpeg2_frame_ME:var <- EAX
	jle	.LBB3_92
.Ltmp454:
# BB#90:                                # %if.end585
	#DEBUG_VALUE: mpeg2_frame_ME:i <- [RBP+-244]
	#DEBUG_VALUE: mpeg2_frame_ME:mbi <- [RBP+-352]
	#DEBUG_VALUE: mpeg2_frame_ME:var <- EAX
	#DEBUG_VALUE: mpeg2_frame_ME:j <- [RBP+-272]
	cmpl	$2304, %eax             # imm = 0x900
	jl	.LBB3_92
.Ltmp455:
# BB#91:                                # %if.then589
	#DEBUG_VALUE: mpeg2_frame_ME:mbi <- [RBP+-352]
	movl	$1, %edi
	callq	_KWork
	movl	$4, %esi
	movq	56(%rbp), %r13
.Ltmp456:
	#DEBUG_VALUE: mpeg2_frame_ME:mbi <- R13
	movq	%r13, %rdi
	callq	_KStoreConst
	.loc	1 11818 7               # mpeg2.c:11818:7
.Ltmp457:
	movl	$1, (%r13)
	callq	_KPopCDep
	movl	$9, %r15d
	xorl	%r12d, %r12d
	movl	$383, %eax              # imm = 0x17F
	movl	$437, %r14d             # imm = 0x1B5
	xorl	%ebx, %ebx
	jmp	.LBB3_96
.Ltmp458:
.LBB3_92:                               # %if.else591
	#DEBUG_VALUE: mpeg2_frame_ME:i <- [RBP+-244]
	#DEBUG_VALUE: mpeg2_frame_ME:mbi <- [RBP+-352]
	#DEBUG_VALUE: mpeg2_frame_ME:var <- EAX
	#DEBUG_VALUE: mpeg2_frame_ME:var <- [RBP+-264]
	#DEBUG_VALUE: mpeg2_frame_ME:j <- [RBP+-272]
	movl	$5, %edi
	callq	_KWork
	movq	56(%rbp), %r13
.Ltmp459:
	#DEBUG_VALUE: mpeg2_frame_ME:mbi <- R13
	.loc	1 11822 12              # mpeg2.c:11822:12
	leaq	4(%r13), %rdi
	movl	$346, %esi              # imm = 0x15A
	movl	$4, %edx
	callq	_KLoad0
	movl	4(%r13), %ebx
	callq	_KPopCDep
	movl	$1, 32(%rsp)
	movl	$346, 24(%rsp)          # imm = 0x15A
	movl	$3, 16(%rsp)
	movl	$349, 8(%rsp)           # imm = 0x15D
	movl	$4, (%rsp)
	movl	$441, %edi              # imm = 0x1B9
	movl	$9, %esi
	movl	$3, %edx
	movl	$10, %ecx
	movl	$5, %r8d
	movl	$11, %r9d
	callq	_KTimestamp5
	movl	$441, %edi              # imm = 0x1B9
	callq	_KPushCDep
.Ltmp460:
	.loc	1 11822 12 is_stmt 0    # mpeg2.c:11822:12
	cmpl	$2, %ebx
	jne	.LBB3_94
.Ltmp461:
# BB#93:                                # %if.then594
	#DEBUG_VALUE: mpeg2_frame_ME:i <- [RBP+-244]
	#DEBUG_VALUE: mpeg2_frame_ME:mbi <- R13
	#DEBUG_VALUE: mpeg2_frame_ME:var <- [RBP+-264]
	#DEBUG_VALUE: mpeg2_frame_ME:j <- [RBP+-272]
	leaq	-52(%rbp), %rdi
.Ltmp462:
	#DEBUG_VALUE: mpeg2_frame_ME:iminf <- [RDI+0]
	movl	$347, %esi              # imm = 0x15B
	movl	$4, %edx
	callq	_KLoad0
	movl	$28, %edi
.Ltmp463:
	callq	_KWork
	.loc	1 11824 34 is_stmt 1    # mpeg2.c:11824:34
.Ltmp464:
	movl	-52(%rbp), %ebx
	movl	-244(%rbp), %r12d       # 4-byte Reload
.Ltmp465:
	#DEBUG_VALUE: mpeg2_frame_ME:i <- R12D
	.loc	1 11824 44 is_stmt 0    # mpeg2.c:11824:44
	addl	%r12d, %r12d
.Ltmp466:
	.loc	1 11824 34              # mpeg2.c:11824:34
	subl	%r12d, %ebx
	.loc	1 11824 9               # mpeg2.c:11824:9
	leaq	24(%r13), %r14
	movl	$1, 64(%rsp)
	movl	$347, 56(%rsp)          # imm = 0x15B
	movl	$3, 48(%rsp)
	movl	$346, 40(%rsp)          # imm = 0x15A
	movl	$5, 32(%rsp)
	movl	$349, 24(%rsp)          # imm = 0x15D
	movl	$6, 16(%rsp)
	movl	$11, 8(%rsp)
	movl	$7, (%rsp)
	movl	$348, %edi              # imm = 0x15C
	movl	$1, %esi
	movl	$2, %edx
	movl	$9, %ecx
	movl	$5, %r8d
	movl	$10, %r9d
	callq	_KTimestamp7
	movl	$348, %edi              # imm = 0x15C
	movl	$4, %edx
	movq	%r14, %rsi
	callq	_KStore
	movl	%ebx, 24(%r13)
	leaq	-56(%rbp), %rdi
.Ltmp467:
	#DEBUG_VALUE: mpeg2_frame_ME:jminf <- [RDI+0]
	movl	$350, %esi              # imm = 0x15E
	movl	$4, %edx
	callq	_KLoad0
	.loc	1 11825 34 is_stmt 1    # mpeg2.c:11825:34
	movl	-56(%rbp), %ebx
	movq	-272(%rbp), %r15        # 8-byte Reload
.Ltmp468:
	#DEBUG_VALUE: mpeg2_frame_ME:j <- R15D
	.loc	1 11825 44 is_stmt 0    # mpeg2.c:11825:44
	addl	%r15d, %r15d
.Ltmp469:
	.loc	1 11825 34              # mpeg2.c:11825:34
	subl	%r15d, %ebx
	.loc	1 11825 9               # mpeg2.c:11825:9
	leaq	28(%r13), %r14
	movl	$1, 64(%rsp)
	movl	$350, 56(%rsp)          # imm = 0x15E
	movl	$3, 48(%rsp)
	movl	$346, 40(%rsp)          # imm = 0x15A
	movl	$5, 32(%rsp)
	movl	$349, 24(%rsp)          # imm = 0x15D
	movl	$6, 16(%rsp)
	movl	$11, 8(%rsp)
	movl	$7, (%rsp)
	movl	$351, %edi              # imm = 0x15F
.Ltmp470:
	movl	$2, %esi
	movl	$2, %edx
	movl	$9, %ecx
	movl	$5, %r8d
	movl	$10, %r9d
	callq	_KTimestamp7
	movl	$351, %edi              # imm = 0x15F
	movl	$4, %edx
	movq	%r14, %rsi
	callq	_KStore
	movl	%ebx, 28(%r13)
	leaq	-60(%rbp), %rdi
.Ltmp471:
	#DEBUG_VALUE: mpeg2_frame_ME:iminr <- [RDI+0]
	movl	$352, %esi              # imm = 0x160
	movl	$4, %edx
	callq	_KLoad0
	.loc	1 11827 34 is_stmt 1    # mpeg2.c:11827:34
	movl	-60(%rbp), %ebx
	subl	%r12d, %ebx
	.loc	1 11827 9 is_stmt 0     # mpeg2.c:11827:9
	leaq	32(%r13), %r14
	movl	$1, 64(%rsp)
	movl	$352, 56(%rsp)          # imm = 0x160
	movl	$3, 48(%rsp)
	movl	$346, 40(%rsp)          # imm = 0x15A
	movl	$5, 32(%rsp)
	movl	$349, 24(%rsp)          # imm = 0x15D
	movl	$6, 16(%rsp)
	movl	$11, 8(%rsp)
	movl	$7, (%rsp)
	movl	$353, %edi              # imm = 0x161
.Ltmp472:
	movl	$1, %esi
	movl	$2, %edx
	movl	$9, %ecx
	movl	$5, %r8d
	movl	$10, %r9d
	callq	_KTimestamp7
	movl	$353, %edi              # imm = 0x161
	movl	$4, %edx
	movq	%r14, %rsi
	callq	_KStore
	movl	%ebx, 32(%r13)
	leaq	-64(%rbp), %rdi
.Ltmp473:
	#DEBUG_VALUE: mpeg2_frame_ME:jminr <- [RDI+0]
	movl	$354, %esi              # imm = 0x162
	movl	$4, %edx
	callq	_KLoad0
	.loc	1 11828 34 is_stmt 1    # mpeg2.c:11828:34
	movl	-64(%rbp), %ebx
	subl	%r15d, %ebx
	.loc	1 11828 9 is_stmt 0     # mpeg2.c:11828:9
	leaq	36(%r13), %r14
	movl	$1, 64(%rsp)
	movl	$354, 56(%rsp)          # imm = 0x162
	movl	$3, 48(%rsp)
	movl	$346, 40(%rsp)          # imm = 0x15A
	movl	$5, 32(%rsp)
	movl	$349, 24(%rsp)          # imm = 0x15D
	movl	$6, 16(%rsp)
	movl	$11, 8(%rsp)
	movl	$7, (%rsp)
	movl	$355, %edi              # imm = 0x163
.Ltmp474:
	movl	$2, %esi
	movl	$2, %edx
	movl	$9, %ecx
	movl	$5, %r8d
	movl	$10, %r9d
	callq	_KTimestamp7
	movl	$355, %edi              # imm = 0x163
	movl	$4, %edx
	movq	%r14, %rsi
	callq	_KStore
	movl	%ebx, 36(%r13)
	callq	_KPopCDep
	movl	$349, %r15d             # imm = 0x15D
	xorl	%r12d, %r12d
	jmp	.LBB3_95
.Ltmp475:
.LBB3_94:                               # %if.else619
	#DEBUG_VALUE: mpeg2_frame_ME:i <- [RBP+-244]
	#DEBUG_VALUE: mpeg2_frame_ME:mbi <- R13
	#DEBUG_VALUE: mpeg2_frame_ME:var <- [RBP+-264]
	#DEBUG_VALUE: mpeg2_frame_ME:j <- [RBP+-272]
	leaq	-84(%rbp), %rdi
.Ltmp476:
	#DEBUG_VALUE: mpeg2_frame_ME:imintf <- [RDI+0]
	movl	$356, %esi              # imm = 0x164
	movl	$4, %edx
	callq	_KLoad0
	movl	$80, %edi
.Ltmp477:
	callq	_KWork
	.loc	1 11832 34 is_stmt 1    # mpeg2.c:11832:34
.Ltmp478:
	movl	-84(%rbp), %ebx
	movl	-244(%rbp), %eax        # 4-byte Reload
.Ltmp479:
	#DEBUG_VALUE: mpeg2_frame_ME:i <- EAX
	.loc	1 11832 45 is_stmt 0    # mpeg2.c:11832:45
	addl	%eax, %eax
.Ltmp480:
	.loc	1 11832 34              # mpeg2.c:11832:34
	movl	%eax, -244(%rbp)        # 4-byte Spill
	subl	%eax, %ebx
	movl	%eax, %r15d
	.loc	1 11832 9               # mpeg2.c:11832:9
	leaq	24(%r13), %r14
	movl	$1, 64(%rsp)
	movl	$356, 56(%rsp)          # imm = 0x164
	movl	$3, 48(%rsp)
	movl	$346, 40(%rsp)          # imm = 0x15A
	movl	$5, 32(%rsp)
	movl	$349, 24(%rsp)          # imm = 0x15D
	movl	$6, 16(%rsp)
	movl	$11, 8(%rsp)
	movl	$7, (%rsp)
	movl	$357, %edi              # imm = 0x165
	movl	$1, %esi
	movl	$2, %edx
	movl	$9, %ecx
	movl	$5, %r8d
	movl	$10, %r9d
	callq	_KTimestamp7
	movl	$357, %edi              # imm = 0x165
	movl	$4, %edx
	movq	%r14, %rsi
	callq	_KStore
	movl	%ebx, 24(%r13)
	leaq	-88(%rbp), %rdi
.Ltmp481:
	#DEBUG_VALUE: mpeg2_frame_ME:jmintf <- [RDI+0]
	movl	$358, %esi              # imm = 0x166
	movl	$4, %edx
	callq	_KLoad0
	.loc	1 11833 36 is_stmt 1    # mpeg2.c:11833:36
	movl	-88(%rbp), %ebx
	addl	%ebx, %ebx
	movq	-272(%rbp), %rax        # 8-byte Reload
.Ltmp482:
	#DEBUG_VALUE: mpeg2_frame_ME:j <- EAX
	.loc	1 11833 54 is_stmt 0    # mpeg2.c:11833:54
	addl	%eax, %eax
.Ltmp483:
	.loc	1 11833 34              # mpeg2.c:11833:34
	movq	%rax, -272(%rbp)        # 8-byte Spill
	subl	%eax, %ebx
	movq	%rax, %r12
	.loc	1 11833 9               # mpeg2.c:11833:9
	leaq	28(%r13), %r14
	movl	$3, 64(%rsp)
	movl	$346, 56(%rsp)          # imm = 0x15A
	movl	$5, 48(%rsp)
	movl	$349, 40(%rsp)          # imm = 0x15D
	movl	$2, 32(%rsp)
	movl	$358, 24(%rsp)          # imm = 0x166
	movl	$6, 16(%rsp)
	movl	$11, 8(%rsp)
	movl	$7, (%rsp)
	movl	$359, %edi              # imm = 0x167
.Ltmp484:
	movl	$2, %esi
	movl	$2, %edx
	movl	$9, %ecx
	movl	$5, %r8d
	movl	$10, %r9d
	callq	_KTimestamp7
	movl	$359, %edi              # imm = 0x167
	movl	$4, %edx
	movq	%r14, %rsi
	callq	_KStore
	movl	%ebx, 28(%r13)
	leaq	-92(%rbp), %rdi
.Ltmp485:
	#DEBUG_VALUE: mpeg2_frame_ME:iminbf <- [RDI+0]
	movl	$360, %esi              # imm = 0x168
	movl	$4, %edx
	callq	_KLoad0
	.loc	1 11834 34 is_stmt 1    # mpeg2.c:11834:34
	movl	-92(%rbp), %ebx
	subl	%r15d, %ebx
	.loc	1 11834 9 is_stmt 0     # mpeg2.c:11834:9
	leaq	40(%r13), %r14
	movl	$3, 64(%rsp)
	movl	$346, 56(%rsp)          # imm = 0x15A
	movl	$5, 48(%rsp)
	movl	$349, 40(%rsp)          # imm = 0x15D
	movl	$1, 32(%rsp)
	movl	$360, 24(%rsp)          # imm = 0x168
	movl	$6, 16(%rsp)
	movl	$11, 8(%rsp)
	movl	$7, (%rsp)
	movl	$361, %edi              # imm = 0x169
.Ltmp486:
	movl	$1, %esi
	movl	$2, %edx
	movl	$9, %ecx
	movl	$5, %r8d
	movl	$10, %r9d
	callq	_KTimestamp7
	movl	$361, %edi              # imm = 0x169
	movl	$4, %edx
	movq	%r14, %rsi
	callq	_KStore
	movl	%ebx, 40(%r13)
	leaq	-96(%rbp), %rdi
.Ltmp487:
	#DEBUG_VALUE: mpeg2_frame_ME:jminbf <- [RDI+0]
	movl	$362, %esi              # imm = 0x16A
	movl	$4, %edx
	callq	_KLoad0
	.loc	1 11835 36 is_stmt 1    # mpeg2.c:11835:36
	movl	-96(%rbp), %ebx
	addl	%ebx, %ebx
	.loc	1 11835 34 is_stmt 0    # mpeg2.c:11835:34
	subl	%r12d, %ebx
	.loc	1 11835 9               # mpeg2.c:11835:9
	leaq	44(%r13), %r14
	movl	$3, 64(%rsp)
	movl	$346, 56(%rsp)          # imm = 0x15A
	movl	$5, 48(%rsp)
	movl	$349, 40(%rsp)          # imm = 0x15D
	movl	$2, 32(%rsp)
	movl	$362, 24(%rsp)          # imm = 0x16A
	movl	$6, 16(%rsp)
	movl	$11, 8(%rsp)
	movl	$7, (%rsp)
	movl	$363, %edi              # imm = 0x16B
.Ltmp488:
	movl	$2, %esi
	movl	$2, %edx
	movl	$9, %ecx
	movl	$5, %r8d
	movl	$10, %r9d
	callq	_KTimestamp7
	movl	$363, %edi              # imm = 0x16B
	movl	$4, %edx
	movq	%r14, %rsi
	callq	_KStore
	movl	%ebx, 44(%r13)
	leaq	-148(%rbp), %rdi
.Ltmp489:
	#DEBUG_VALUE: mpeg2_frame_ME:tself <- [RDI+0]
	movl	$364, %esi              # imm = 0x16C
	movl	$4, %edx
	callq	_KLoad0
	.loc	1 11836 39 is_stmt 1    # mpeg2.c:11836:39
	movl	-148(%rbp), %r15d
	.loc	1 11836 9 is_stmt 0     # mpeg2.c:11836:9
	leaq	56(%r13), %r14
	xorl	%r12d, %r12d
	movl	$364, %edi              # imm = 0x16C
.Ltmp490:
	movl	$364, %esi              # imm = 0x16C
	xorl	%edx, %edx
	callq	_KTimestamp1
	movl	$364, %edi              # imm = 0x16C
	movl	$4, %edx
	movq	%r14, %rsi
	callq	_KStore
	movl	%r15d, 56(%r13)
	leaq	-152(%rbp), %rdi
.Ltmp491:
	#DEBUG_VALUE: mpeg2_frame_ME:bself <- [RDI+0]
	movl	$365, %esi              # imm = 0x16D
	movl	$4, %edx
	callq	_KLoad0
	.loc	1 11837 39 is_stmt 1    # mpeg2.c:11837:39
	movl	-152(%rbp), %r15d
	.loc	1 11837 9 is_stmt 0     # mpeg2.c:11837:9
	leaq	64(%r13), %r14
	movl	$365, %edi              # imm = 0x16D
.Ltmp492:
	movl	$365, %esi              # imm = 0x16D
	xorl	%edx, %edx
	callq	_KTimestamp1
	movl	$365, %edi              # imm = 0x16D
	movl	$4, %edx
	movq	%r14, %rsi
	callq	_KStore
	movl	%r15d, 64(%r13)
	leaq	-100(%rbp), %rdi
.Ltmp493:
	#DEBUG_VALUE: mpeg2_frame_ME:imintr <- [RDI+0]
	movl	$366, %esi              # imm = 0x16E
	movl	$4, %edx
	callq	_KLoad0
	.loc	1 11839 34 is_stmt 1    # mpeg2.c:11839:34
	movl	-100(%rbp), %r15d
	subl	-244(%rbp), %r15d       # 4-byte Folded Reload
	.loc	1 11839 9 is_stmt 0     # mpeg2.c:11839:9
	leaq	32(%r13), %r14
	movl	$3, 64(%rsp)
	movl	$346, 56(%rsp)          # imm = 0x15A
	movl	$5, 48(%rsp)
	movl	$349, 40(%rsp)          # imm = 0x15D
	movl	$1, 32(%rsp)
	movl	$366, 24(%rsp)          # imm = 0x16E
	movl	$6, 16(%rsp)
	movl	$11, 8(%rsp)
	movl	$7, (%rsp)
	movl	$367, %edi              # imm = 0x16F
.Ltmp494:
	movl	$1, %esi
	movl	$2, %edx
	movl	$9, %ecx
	movl	$5, %r8d
	movl	$10, %r9d
	callq	_KTimestamp7
	movl	$367, %edi              # imm = 0x16F
	movl	$4, %edx
	movq	%r14, %rsi
	callq	_KStore
	movl	%r15d, 32(%r13)
	leaq	-104(%rbp), %rdi
.Ltmp495:
	#DEBUG_VALUE: mpeg2_frame_ME:jmintr <- [RDI+0]
	movl	$368, %esi              # imm = 0x170
	movl	$4, %edx
	callq	_KLoad0
	.loc	1 11840 36 is_stmt 1    # mpeg2.c:11840:36
	movl	-104(%rbp), %ebx
	addl	%ebx, %ebx
	movq	-272(%rbp), %r15        # 8-byte Reload
	.loc	1 11840 34 is_stmt 0    # mpeg2.c:11840:34
	subl	%r15d, %ebx
	.loc	1 11840 9               # mpeg2.c:11840:9
	leaq	36(%r13), %r14
	movl	$3, 64(%rsp)
	movl	$346, 56(%rsp)          # imm = 0x15A
	movl	$5, 48(%rsp)
	movl	$349, 40(%rsp)          # imm = 0x15D
	movl	$2, 32(%rsp)
	movl	$368, 24(%rsp)          # imm = 0x170
	movl	$6, 16(%rsp)
	movl	$11, 8(%rsp)
	movl	$7, (%rsp)
	movl	$369, %edi              # imm = 0x171
.Ltmp496:
	movl	$2, %esi
	movl	$2, %edx
	movl	$9, %ecx
	movl	$5, %r8d
	movl	$10, %r9d
	callq	_KTimestamp7
	movl	$369, %edi              # imm = 0x171
	movl	$4, %edx
	movq	%r14, %rsi
	callq	_KStore
	movl	%ebx, 36(%r13)
	leaq	-108(%rbp), %rdi
.Ltmp497:
	#DEBUG_VALUE: mpeg2_frame_ME:iminbr <- [RDI+0]
	movl	$370, %esi              # imm = 0x172
	movl	$4, %edx
	callq	_KLoad0
	.loc	1 11841 34 is_stmt 1    # mpeg2.c:11841:34
	movl	-108(%rbp), %ebx
	subl	-244(%rbp), %ebx        # 4-byte Folded Reload
	.loc	1 11841 9 is_stmt 0     # mpeg2.c:11841:9
	leaq	48(%r13), %r14
	movl	$3, 64(%rsp)
	movl	$346, 56(%rsp)          # imm = 0x15A
	movl	$5, 48(%rsp)
	movl	$349, 40(%rsp)          # imm = 0x15D
	movl	$6, 32(%rsp)
	movl	$11, 24(%rsp)
	movl	$7, 16(%rsp)
	movl	$10, 8(%rsp)
	movl	$1, (%rsp)
	movl	$371, %edi              # imm = 0x173
.Ltmp498:
	movl	$1, %esi
	movl	$2, %edx
	movl	$9, %ecx
	movl	$5, %r8d
	movl	$370, %r9d              # imm = 0x172
	callq	_KTimestamp7
	movl	$371, %edi              # imm = 0x173
	movl	$4, %edx
	movq	%r14, %rsi
	callq	_KStore
	movl	%ebx, 48(%r13)
	leaq	-112(%rbp), %rdi
.Ltmp499:
	#DEBUG_VALUE: mpeg2_frame_ME:jminbr <- [RDI+0]
	movl	$372, %esi              # imm = 0x174
	movl	$4, %edx
	callq	_KLoad0
	.loc	1 11842 36 is_stmt 1    # mpeg2.c:11842:36
	movl	-112(%rbp), %ebx
	addl	%ebx, %ebx
	.loc	1 11842 34 is_stmt 0    # mpeg2.c:11842:34
	subl	%r15d, %ebx
	.loc	1 11842 9               # mpeg2.c:11842:9
	leaq	52(%r13), %r14
	movl	$3, 64(%rsp)
	movl	$346, 56(%rsp)          # imm = 0x15A
	movl	$5, 48(%rsp)
	movl	$349, 40(%rsp)          # imm = 0x15D
	movl	$6, 32(%rsp)
	movl	$11, 24(%rsp)
	movl	$7, 16(%rsp)
	movl	$10, 8(%rsp)
	movl	$2, (%rsp)
	movl	$373, %edi              # imm = 0x175
.Ltmp500:
	movl	$2, %esi
	movl	$2, %edx
	movl	$9, %ecx
	movl	$5, %r8d
	movl	$372, %r9d              # imm = 0x174
	callq	_KTimestamp7
	movl	$373, %edi              # imm = 0x175
	movl	$4, %edx
	movq	%r14, %rsi
	callq	_KStore
	movl	%ebx, 52(%r13)
	leaq	-156(%rbp), %rdi
.Ltmp501:
	#DEBUG_VALUE: mpeg2_frame_ME:tselr <- [RDI+0]
	movl	$374, %esi              # imm = 0x176
	movl	$4, %edx
	callq	_KLoad0
	.loc	1 11843 39 is_stmt 1    # mpeg2.c:11843:39
	movl	-156(%rbp), %ebx
	.loc	1 11843 9 is_stmt 0     # mpeg2.c:11843:9
	leaq	60(%r13), %r14
	movl	$374, %edi              # imm = 0x176
.Ltmp502:
	movl	$374, %esi              # imm = 0x176
	xorl	%edx, %edx
	callq	_KTimestamp1
	movl	$374, %edi              # imm = 0x176
	movl	$4, %edx
	movq	%r14, %rsi
	callq	_KStore
	movl	%ebx, 60(%r13)
	leaq	-160(%rbp), %rdi
.Ltmp503:
	#DEBUG_VALUE: mpeg2_frame_ME:bselr <- [RDI+0]
	movl	$375, %esi              # imm = 0x177
	movl	$4, %edx
	callq	_KLoad0
	.loc	1 11844 39 is_stmt 1    # mpeg2.c:11844:39
	movl	-160(%rbp), %ebx
	.loc	1 11844 9 is_stmt 0     # mpeg2.c:11844:9
	leaq	68(%r13), %r14
	movl	$375, %edi              # imm = 0x177
.Ltmp504:
	movl	$375, %esi              # imm = 0x177
	xorl	%edx, %edx
	callq	_KTimestamp1
	movl	$375, %edi              # imm = 0x177
	movl	$4, %edx
	movq	%r14, %rsi
	callq	_KStore
	movl	%ebx, 68(%r13)
	callq	_KPopCDep
	movl	$349, %r15d             # imm = 0x15D
.Ltmp505:
.LBB3_95:                               # %if.end687
	movl	$383, %eax              # imm = 0x17F
	movl	$437, %r14d             # imm = 0x1B5
	xorl	%ebx, %ebx
	movl	-264(%rbp), %ecx        # 4-byte Reload
                                        # kill: ECX<def> ECX<kill> RCX<def>
.Ltmp506:
	#DEBUG_VALUE: mpeg2_frame_ME:var <- [RBP+-224]
	movq	%rcx, -224(%rbp)        # 8-byte Spill
	jmp	.LBB3_96
.LBB3_62:
.Ltmp507:
	#DEBUG_VALUE: mpeg2_frame_ME:oldref <- [RBP+-240]
	#DEBUG_VALUE: mpeg2_frame_ME:newref <- [RBP+-256]
	#DEBUG_VALUE: mpeg2_frame_ME:cur <- [RBP+-288]
	#DEBUG_VALUE: mpeg2_frame_ME:i <- [RBP+-244]
	#DEBUG_VALUE: mpeg2_frame_ME:mbi <- R13
	#DEBUG_VALUE: mpeg2_frame_ME:mb <- [RBP+-232]
	#DEBUG_VALUE: mpeg2_frame_ME:var <- [RBP+-224]
	#DEBUG_VALUE: mpeg2_frame_ME:j <- [RBP+-272]
	#DEBUG_VALUE: mpeg2_frame_ME:dmcfieldf <- [R15+0]
	#DEBUG_VALUE: mpeg2_frame_ME:dmcfieldr <- undef
	#DEBUG_VALUE: mpeg2_frame_ME:dmcr <- undef
	movq	%r15, -312(%rbp)        # 8-byte Spill
.Ltmp508:
.LBB3_51:                               # %if.else368.if.else454_crit_edge
	#DEBUG_VALUE: mpeg2_frame_ME:oldref <- [RBP+-240]
	#DEBUG_VALUE: mpeg2_frame_ME:newref <- [RBP+-256]
	#DEBUG_VALUE: mpeg2_frame_ME:cur <- [RBP+-288]
	#DEBUG_VALUE: mpeg2_frame_ME:i <- [RBP+-244]
	#DEBUG_VALUE: mpeg2_frame_ME:mbi <- R13
	#DEBUG_VALUE: mpeg2_frame_ME:mb <- [RBP+-232]
	#DEBUG_VALUE: mpeg2_frame_ME:var <- [RBP+-224]
	#DEBUG_VALUE: mpeg2_frame_ME:j <- [RBP+-272]
	#DEBUG_VALUE: mpeg2_frame_ME:dmcfieldf <- [RBP+-312]
	#DEBUG_VALUE: mpeg2_frame_ME:dmcfieldr <- undef
	#DEBUG_VALUE: mpeg2_frame_ME:dmcr <- undef
	leaq	-124(%rbp), %r15
.Ltmp509:
	#DEBUG_VALUE: mpeg2_frame_ME:dmcr <- [R15+0]
.LBB3_52:                               # %if.else454
	#DEBUG_VALUE: mpeg2_frame_ME:oldref <- [RBP+-240]
	#DEBUG_VALUE: mpeg2_frame_ME:newref <- [RBP+-256]
	#DEBUG_VALUE: mpeg2_frame_ME:cur <- [RBP+-288]
	#DEBUG_VALUE: mpeg2_frame_ME:i <- [RBP+-244]
	#DEBUG_VALUE: mpeg2_frame_ME:mbi <- R13
	#DEBUG_VALUE: mpeg2_frame_ME:mb <- [RBP+-232]
	#DEBUG_VALUE: mpeg2_frame_ME:var <- [RBP+-224]
	#DEBUG_VALUE: mpeg2_frame_ME:j <- [RBP+-272]
	#DEBUG_VALUE: mpeg2_frame_ME:dmcfieldr <- undef
	#DEBUG_VALUE: mpeg2_frame_ME:dmcr <- [R15+0]
	movl	$432, %edi              # imm = 0x1B0
	callq	_KPushCDep
	movl	$266, %esi              # imm = 0x10A
	movl	$4, %edx
	movq	-304(%rbp), %r12        # 8-byte Reload
	movq	%r12, %rdi
	callq	_KLoad0
	movl	$9, %edi
	callq	_KWork
	.loc	1 11757 14 is_stmt 1    # mpeg2.c:11757:14
.Ltmp510:
	movl	-120(%rbp), %r14d
	movl	$267, %esi              # imm = 0x10B
	movl	$4, %edx
	movq	-312(%rbp), %rdi        # 8-byte Reload
	callq	_KLoad0
	movl	-132(%rbp), %ebx
	movl	$1, 88(%rsp)
	movl	$267, 80(%rsp)          # imm = 0x10B
	movl	$1, 72(%rsp)
	movl	$266, 64(%rsp)          # imm = 0x10A
	movl	$2, 56(%rsp)
	movl	$219, 48(%rsp)
	movl	$4, 40(%rsp)
	movl	$171, 32(%rsp)
	movl	$3, 24(%rsp)
	movl	$151, 16(%rsp)
	movl	$5, 8(%rsp)
	movl	$12, (%rsp)
	movl	$430, %edi              # imm = 0x1AE
	movl	$8, %esi
	movl	$193, %edx
	movl	$4, %ecx
	movl	$10, %r8d
	movl	$6, %r9d
	xorl	%eax, %eax
	callq	_KTimestamp
	callq	_KPopCDep
	cmpl	%ebx, %r14d
	jge	.LBB3_74
.Ltmp511:
# BB#53:                                # %land.lhs.true456
	#DEBUG_VALUE: mpeg2_frame_ME:oldref <- [RBP+-240]
	#DEBUG_VALUE: mpeg2_frame_ME:newref <- [RBP+-256]
	#DEBUG_VALUE: mpeg2_frame_ME:cur <- [RBP+-288]
	#DEBUG_VALUE: mpeg2_frame_ME:i <- [RBP+-244]
	#DEBUG_VALUE: mpeg2_frame_ME:mbi <- R13
	#DEBUG_VALUE: mpeg2_frame_ME:mb <- [RBP+-232]
	#DEBUG_VALUE: mpeg2_frame_ME:var <- [RBP+-224]
	#DEBUG_VALUE: mpeg2_frame_ME:j <- [RBP+-272]
	#DEBUG_VALUE: mpeg2_frame_ME:dmcfieldr <- undef
	movl	$430, %edi              # imm = 0x1AE
	callq	_KPushCDep
	movl	$268, %esi              # imm = 0x10C
	movl	$4, %edx
	movq	%r12, %rdi
	callq	_KLoad0
	movl	$9, %edi
	callq	_KWork
	.loc	1 11757 38 is_stmt 0 discriminator 1 # mpeg2.c:11757:38
	movl	-120(%rbp), %r14d
	leaq	-124(%rbp), %r15
.Ltmp512:
	#DEBUG_VALUE: mpeg2_frame_ME:dmcr <- [R15+0]
	movl	$269, %esi              # imm = 0x10D
	movl	$4, %edx
	movq	%r15, %rdi
	callq	_KLoad0
.Ltmp513:
	.loc	1 11757 12              # mpeg2.c:11757:12
	movl	-124(%rbp), %ebx
	movl	$1, 120(%rsp)
	movl	$269, 112(%rsp)         # imm = 0x10D
	movl	$1, 104(%rsp)
	movl	$268, 96(%rsp)          # imm = 0x10C
	movl	$2, 88(%rsp)
	movl	$267, 80(%rsp)          # imm = 0x10B
	movl	$2, 72(%rsp)
	movl	$266, 64(%rsp)          # imm = 0x10A
	movl	$3, 56(%rsp)
	movl	$219, 48(%rsp)
	movl	$5, 40(%rsp)
	movl	$171, 32(%rsp)
	movl	$4, 24(%rsp)
	movl	$151, 16(%rsp)
	movl	$6, 8(%rsp)
	movl	$12, (%rsp)
	movl	$429, %edi              # imm = 0x1AD
	movl	$10, %esi
	movl	$193, %edx
	movl	$5, %ecx
	movl	$10, %r8d
	movl	$7, %r9d
	xorl	%eax, %eax
	callq	_KTimestamp
	callq	_KPopCDep
	cmpl	%ebx, %r14d
	jge	.LBB3_74
.Ltmp514:
# BB#54:                                # %land.lhs.true458
	#DEBUG_VALUE: mpeg2_frame_ME:oldref <- [RBP+-240]
	#DEBUG_VALUE: mpeg2_frame_ME:newref <- [RBP+-256]
	#DEBUG_VALUE: mpeg2_frame_ME:cur <- [RBP+-288]
	#DEBUG_VALUE: mpeg2_frame_ME:i <- [RBP+-244]
	#DEBUG_VALUE: mpeg2_frame_ME:mbi <- R13
	#DEBUG_VALUE: mpeg2_frame_ME:mb <- [RBP+-232]
	#DEBUG_VALUE: mpeg2_frame_ME:var <- [RBP+-224]
	#DEBUG_VALUE: mpeg2_frame_ME:j <- [RBP+-272]
	#DEBUG_VALUE: mpeg2_frame_ME:dmcfieldr <- undef
	#DEBUG_VALUE: mpeg2_frame_ME:dmcr <- [R15+0]
	movl	$429, %edi              # imm = 0x1AD
	callq	_KPushCDep
	movl	$270, %esi              # imm = 0x10E
	movl	$4, %edx
	movq	%r12, %rdi
	callq	_KLoad0
	movl	$9, %edi
	callq	_KWork
	.loc	1 11757 57 discriminator 2 # mpeg2.c:11757:57
.Ltmp515:
	movl	-120(%rbp), %r14d
	leaq	-136(%rbp), %rdi
.Ltmp516:
	#DEBUG_VALUE: mpeg2_frame_ME:dmcfieldr <- [RDI+0]
	movl	$271, %esi              # imm = 0x10F
	movl	$4, %edx
	callq	_KLoad0
.Ltmp517:
	.loc	1 11757 12              # mpeg2.c:11757:12
	movl	-136(%rbp), %ebx
	movl	$1, 152(%rsp)
	movl	$271, 144(%rsp)         # imm = 0x10F
	movl	$1, 136(%rsp)
	movl	$270, 128(%rsp)         # imm = 0x10E
	movl	$2, 120(%rsp)
	movl	$269, 112(%rsp)         # imm = 0x10D
	movl	$2, 104(%rsp)
	movl	$268, 96(%rsp)          # imm = 0x10C
	movl	$3, 88(%rsp)
	movl	$267, 80(%rsp)          # imm = 0x10B
	movl	$3, 72(%rsp)
	movl	$266, 64(%rsp)          # imm = 0x10A
	movl	$4, 56(%rsp)
	movl	$219, 48(%rsp)
	movl	$6, 40(%rsp)
	movl	$171, 32(%rsp)
	movl	$5, 24(%rsp)
	movl	$151, 16(%rsp)
	movl	$7, 8(%rsp)
	movl	$12, (%rsp)
	movl	$428, %edi              # imm = 0x1AC
.Ltmp518:
	movl	$12, %esi
	movl	$193, %edx
	movl	$6, %ecx
	movl	$10, %r8d
	movl	$8, %r9d
	xorl	%eax, %eax
	callq	_KTimestamp
	callq	_KPopCDep
	cmpl	%ebx, %r14d
	jge	.LBB3_74
.Ltmp519:
# BB#55:                                # %if.then460
	#DEBUG_VALUE: mpeg2_frame_ME:oldref <- [RBP+-240]
	#DEBUG_VALUE: mpeg2_frame_ME:i <- [RBP+-244]
	#DEBUG_VALUE: mpeg2_frame_ME:mbi <- R13
	#DEBUG_VALUE: mpeg2_frame_ME:mb <- [RBP+-232]
	#DEBUG_VALUE: mpeg2_frame_ME:var <- [RBP+-224]
	#DEBUG_VALUE: mpeg2_frame_ME:j <- [RBP+-272]
	movl	$428, %edi              # imm = 0x1AC
	callq	_KPushCDep
	movl	$32, %edi
	callq	_KWork
	movl	$4, %esi
	movq	%r13, %rdi
	callq	_KStoreConst
	.loc	1 11759 9 is_stmt 1     # mpeg2.c:11759:9
.Ltmp520:
	movl	$8, (%r13)
	.loc	1 11760 9               # mpeg2.c:11760:9
	leaq	4(%r13), %rdi
	movl	$4, %esi
	callq	_KStoreConst
	movl	$2, 4(%r13)
.Ltmp521:
	#DEBUG_VALUE: mpeg2_frame_ME:mbi <- [RBP+-352]
	leaq	-52(%rbp), %r14
.Ltmp522:
	#DEBUG_VALUE: mpeg2_frame_ME:iminf <- [R14+0]
	movl	$272, %esi              # imm = 0x110
	movl	$4, %edx
	movq	%r14, %rdi
	callq	_KLoad0
	.loc	1 11763 24              # mpeg2.c:11763:24
	movl	-52(%rbp), %eax
	sarl	%eax
	.loc	1 11763 13 is_stmt 0    # mpeg2.c:11763:13
	movslq	%eax, %r15
	movl	$mpeg2_width, %edi
	movl	$273, %esi              # imm = 0x111
	movl	$4, %edx
	callq	_KLoad0
	movslq	mpeg2_width(%rip), %rbx
	xorl	%eax, %eax
	movq	%rax, -256(%rbp)        # 8-byte Spill
	movl	$428, %eax              # imm = 0x1AC
	movq	%rax, -304(%rbp)        # 8-byte Spill
	leaq	-56(%rbp), %r12
.Ltmp523:
	#DEBUG_VALUE: mpeg2_frame_ME:jminf <- [R12+0]
	movl	$274, %esi              # imm = 0x112
	movl	$4, %edx
	movq	%r12, %rdi
	callq	_KLoad0
	.loc	1 11763 55              # mpeg2.c:11763:55
	movl	-56(%rbp), %eax
	sarl	%eax
	.loc	1 11763 13              # mpeg2.c:11763:13
	cltq
	.loc	1 11763 39              # mpeg2.c:11763:39
	imulq	%rbx, %rax
	.loc	1 11763 13              # mpeg2.c:11763:13
	addq	%r15, %rax
	movq	-240(%rbp), %rbx        # 8-byte Reload
.Ltmp524:
	#DEBUG_VALUE: mpeg2_frame_ME:oldref <- RBX
	addq	%rax, %rbx
.Ltmp525:
	movl	$mpeg2_width, %edi
	movl	$275, %esi              # imm = 0x113
	movl	$4, %edx
	callq	_KLoad0
	.loc	1 11764 13 is_stmt 1    # mpeg2.c:11764:13
	movl	mpeg2_width(%rip), %r13d
	movl	$276, %esi              # imm = 0x114
	movl	$4, %edx
	movq	%r14, %rdi
	callq	_KLoad0
	.loc	1 11764 26 is_stmt 0    # mpeg2.c:11764:26
	movl	-52(%rbp), %r15d
	andl	$1, %r15d
	movl	$277, %esi              # imm = 0x115
	movl	$4, %edx
	movq	%r12, %rdi
	callq	_KLoad0
	.loc	1 11764 37              # mpeg2.c:11764:37
	movl	-56(%rbp), %r12d
.Ltmp526:
	andl	$1, %r12d
	movl	$1, 168(%rsp)
	movl	$277, 160(%rsp)         # imm = 0x115
	movl	$2, 152(%rsp)
	movl	$271, 144(%rsp)         # imm = 0x10F
	movl	$2, 136(%rsp)
	movl	$270, 128(%rsp)         # imm = 0x10E
	movl	$3, 120(%rsp)
	movl	$269, 112(%rsp)         # imm = 0x10D
	movl	$3, 104(%rsp)
	movl	$268, 96(%rsp)          # imm = 0x10C
	movl	$4, 88(%rsp)
	movl	$267, 80(%rsp)          # imm = 0x10B
	movl	$4, 72(%rsp)
	movl	$266, 64(%rsp)          # imm = 0x10A
	movl	$5, 56(%rsp)
	movl	$219, 48(%rsp)
	movl	$7, 40(%rsp)
	movl	$171, 32(%rsp)
	movl	$6, 24(%rsp)
	movl	$151, 16(%rsp)
	movl	$8, 8(%rsp)
	movl	$12, (%rsp)
	movl	$280, %edi              # imm = 0x118
	movl	$13, %esi
	movl	$193, %edx
	movl	$7, %ecx
	movl	$10, %r8d
	movl	$9, %r9d
	xorl	%eax, %eax
	callq	_KTimestamp
	movabsq	$5233543552592089997, %rdi # imm = 0x48A14821F0C9938D
	xorl	%esi, %esi
	callq	_KPrepCall
	callq	_KEnqArgConst
	movl	$280, %edi              # imm = 0x118
	callq	_KEnqArg
	movl	$1, 168(%rsp)
	movl	$276, 160(%rsp)         # imm = 0x114
	movl	$2, 152(%rsp)
	movl	$271, 144(%rsp)         # imm = 0x10F
	movl	$2, 136(%rsp)
	movl	$270, 128(%rsp)         # imm = 0x10E
	movl	$3, 120(%rsp)
	movl	$269, 112(%rsp)         # imm = 0x10D
	movl	$3, 104(%rsp)
	movl	$268, 96(%rsp)          # imm = 0x10C
	movl	$4, 88(%rsp)
	movl	$267, 80(%rsp)          # imm = 0x10B
	movl	$4, 72(%rsp)
	movl	$266, 64(%rsp)          # imm = 0x10A
	movl	$5, 56(%rsp)
	movl	$219, 48(%rsp)
	movl	$7, 40(%rsp)
	movl	$171, 32(%rsp)
	movl	$6, 24(%rsp)
	movl	$151, 16(%rsp)
	movl	$8, 8(%rsp)
	movl	$12, (%rsp)
	movl	$279, %edi              # imm = 0x117
	movl	$13, %esi
	movl	$193, %edx
	movl	$7, %ecx
	movl	$10, %r8d
	movl	$9, %r9d
	xorl	%eax, %eax
	callq	_KTimestamp
	movl	$279, %edi              # imm = 0x117
	callq	_KEnqArg
	movl	$275, %edi              # imm = 0x113
	movl	$275, %esi              # imm = 0x113
	xorl	%edx, %edx
	callq	_KTimestamp1
	movl	$275, %edi              # imm = 0x113
	callq	_KEnqArg
	movl	$278, -296(%rbp)        # 4-byte Folded Spill
                                        # imm = 0x116
	movl	$278, %edi              # imm = 0x116
	callq	_KLinkReturn
	movl	$16, %r9d
	.loc	1 11762 11 is_stmt 1    # mpeg2.c:11762:11
	movq	%rbx, %rdi
	movq	-232(%rbp), %rsi        # 8-byte Reload
	movl	%r13d, %edx
	movl	%r15d, %ecx
	movl	%r12d, %r8d
	callq	mpeg2_dist2
	movl	%eax, -264(%rbp)        # 4-byte Spill
.Ltmp527:
	#DEBUG_VALUE: mpeg2_frame_ME:vmc <- [RBP+-264]
	movl	$278, %edi              # imm = 0x116
	movl	$278, %esi              # imm = 0x116
	xorl	%edx, %edx
	callq	_KTimestamp1
	callq	_KPopCDep
	movl	$430, %eax              # imm = 0x1AE
	movq	%rax, -328(%rbp)        # 8-byte Spill
	movl	$427, %eax              # imm = 0x1AB
	movq	%rax, -232(%rbp)        # 8-byte Spill
	movl	$432, %eax              # imm = 0x1B0
	movq	%rax, -312(%rbp)        # 8-byte Spill
	movl	$0, %eax
	movq	%rax, -320(%rbp)        # 8-byte Spill
	movl	$0, %ebx
	movl	$0, %eax
	movq	%rax, -240(%rbp)        # 8-byte Spill
	movl	$0, %eax
	movq	%rax, -336(%rbp)        # 8-byte Spill
	movl	$0, %r13d
	movl	$0, %eax
	movq	%rax, -280(%rbp)        # 8-byte Spill
	movl	$0, %eax
	movq	%rax, -288(%rbp)        # 8-byte Spill
	xorl	%r15d, %r15d
	xorl	%r14d, %r14d
.Ltmp528:
	movl	$429, %r12d             # imm = 0x1AD
	jmp	.LBB3_89
.Ltmp529:
.LBB3_74:                               # %if.else473
	#DEBUG_VALUE: mpeg2_frame_ME:oldref <- [RBP+-240]
	#DEBUG_VALUE: mpeg2_frame_ME:newref <- [RBP+-256]
	#DEBUG_VALUE: mpeg2_frame_ME:cur <- [RBP+-288]
	#DEBUG_VALUE: mpeg2_frame_ME:i <- [RBP+-244]
	#DEBUG_VALUE: mpeg2_frame_ME:mbi <- R13
	#DEBUG_VALUE: mpeg2_frame_ME:mb <- [RBP+-232]
	#DEBUG_VALUE: mpeg2_frame_ME:var <- [RBP+-224]
	#DEBUG_VALUE: mpeg2_frame_ME:j <- [RBP+-272]
	#DEBUG_VALUE: mpeg2_frame_ME:dmcfieldr <- undef
	movl	$430, %edi              # imm = 0x1AE
	callq	_KPushCDep
	movl	$281, %esi              # imm = 0x119
	movl	$4, %edx
	movq	-312(%rbp), %r12        # 8-byte Reload
	movq	%r12, %rdi
	callq	_KLoad0
	movl	$9, %edi
	callq	_KWork
	.loc	1 11767 14              # mpeg2.c:11767:14
.Ltmp530:
	movl	-132(%rbp), %r14d
	movl	$282, %esi              # imm = 0x11A
	movl	$4, %edx
	movq	%r15, %rdi
	callq	_KLoad0
	movl	-124(%rbp), %ebx
	movl	$1, 120(%rsp)
	movl	$282, 112(%rsp)         # imm = 0x11A
	movl	$1, 104(%rsp)
	movl	$281, 96(%rsp)          # imm = 0x119
	movl	$2, 88(%rsp)
	movl	$267, 80(%rsp)          # imm = 0x10B
	movl	$2, 72(%rsp)
	movl	$266, 64(%rsp)          # imm = 0x10A
	movl	$3, 56(%rsp)
	movl	$219, 48(%rsp)
	movl	$5, 40(%rsp)
	movl	$171, 32(%rsp)
	movl	$4, 24(%rsp)
	movl	$151, 16(%rsp)
	movl	$6, 8(%rsp)
	movl	$12, (%rsp)
	movl	$422, %edi              # imm = 0x1A6
	movl	$10, %esi
	movl	$193, %edx
	movl	$5, %ecx
	movl	$10, %r8d
	movl	$7, %r9d
	xorl	%eax, %eax
	callq	_KTimestamp
	callq	_KPopCDep
	cmpl	%ebx, %r14d
	jge	.LBB3_75
.Ltmp531:
# BB#78:                                # %land.lhs.true475
	#DEBUG_VALUE: mpeg2_frame_ME:oldref <- [RBP+-240]
	#DEBUG_VALUE: mpeg2_frame_ME:newref <- [RBP+-256]
	#DEBUG_VALUE: mpeg2_frame_ME:cur <- [RBP+-288]
	#DEBUG_VALUE: mpeg2_frame_ME:i <- [RBP+-244]
	#DEBUG_VALUE: mpeg2_frame_ME:mbi <- R13
	#DEBUG_VALUE: mpeg2_frame_ME:mb <- [RBP+-232]
	#DEBUG_VALUE: mpeg2_frame_ME:var <- [RBP+-224]
	#DEBUG_VALUE: mpeg2_frame_ME:j <- [RBP+-272]
	movl	$422, %edi              # imm = 0x1A6
	callq	_KPushCDep
	movl	$283, %esi              # imm = 0x11B
	movl	$4, %edx
	movq	%r12, %rdi
	callq	_KLoad0
	movl	$9, %edi
	callq	_KWork
	movq	%r15, %r14
	.loc	1 11767 38 is_stmt 0 discriminator 1 # mpeg2.c:11767:38
	movl	-132(%rbp), %r15d
	leaq	-136(%rbp), %rbx
.Ltmp532:
	#DEBUG_VALUE: mpeg2_frame_ME:dmcfieldr <- [RBX+0]
	movl	$284, %esi              # imm = 0x11C
	movl	$4, %edx
	movq	%rbx, %rdi
	callq	_KLoad0
.Ltmp533:
	.loc	1 11767 12              # mpeg2.c:11767:12
	movl	-136(%rbp), %r12d
	movl	$1, 152(%rsp)
	movl	$284, 144(%rsp)         # imm = 0x11C
	movl	$1, 136(%rsp)
	movl	$283, 128(%rsp)         # imm = 0x11B
	movl	$2, 120(%rsp)
	movl	$282, 112(%rsp)         # imm = 0x11A
	movl	$2, 104(%rsp)
	movl	$281, 96(%rsp)          # imm = 0x119
	movl	$3, 88(%rsp)
	movl	$267, 80(%rsp)          # imm = 0x10B
	movl	$3, 72(%rsp)
	movl	$266, 64(%rsp)          # imm = 0x10A
	movl	$4, 56(%rsp)
	movl	$219, 48(%rsp)
	movl	$6, 40(%rsp)
	movl	$171, 32(%rsp)
	movl	$5, 24(%rsp)
	movl	$151, 16(%rsp)
	movl	$7, 8(%rsp)
	movl	$12, (%rsp)
	movl	$410, %edi              # imm = 0x19A
	movl	$12, %esi
	movl	$193, %edx
	movl	$6, %ecx
	movl	$10, %r8d
	movl	$8, %r9d
	xorl	%eax, %eax
	callq	_KTimestamp
	callq	_KPopCDep
	cmpl	%r12d, %r15d
	movq	%r14, %r15
	jge	.LBB3_76
.Ltmp534:
# BB#79:                                # %if.then477
	#DEBUG_VALUE: mpeg2_frame_ME:oldref <- [RBP+-240]
	#DEBUG_VALUE: mpeg2_frame_ME:cur <- [RBP+-288]
	#DEBUG_VALUE: mpeg2_frame_ME:i <- [RBP+-244]
	#DEBUG_VALUE: mpeg2_frame_ME:mbi <- R13
	#DEBUG_VALUE: mpeg2_frame_ME:mb <- [RBP+-232]
	#DEBUG_VALUE: mpeg2_frame_ME:var <- [RBP+-224]
	#DEBUG_VALUE: mpeg2_frame_ME:j <- [RBP+-272]
	movl	$410, %edi              # imm = 0x19A
	callq	_KPushCDep
	movl	$7, %edi
	callq	_KWork
	movl	$4, %esi
	movq	%r13, %rdi
	callq	_KStoreConst
	.loc	1 11769 9 is_stmt 1     # mpeg2.c:11769:9
.Ltmp535:
	movl	$8, (%r13)
	.loc	1 11770 9               # mpeg2.c:11770:9
	leaq	4(%r13), %rdi
	movl	$4, %esi
	callq	_KStoreConst
	movl	$1, 4(%r13)
.Ltmp536:
	#DEBUG_VALUE: mpeg2_frame_ME:mbi <- [RBP+-352]
	leaq	-148(%rbp), %rdi
.Ltmp537:
	#DEBUG_VALUE: mpeg2_frame_ME:tself <- [RDI+0]
	movl	$285, %esi              # imm = 0x11D
	movl	$4, %edx
	callq	_KLoad0
	.loc	1 11773 24              # mpeg2.c:11773:24
	movl	-148(%rbp), %ebx
	movl	$1, 168(%rsp)
	movl	$285, 160(%rsp)         # imm = 0x11D
	movl	$2, 152(%rsp)
	movl	$284, 144(%rsp)         # imm = 0x11C
	movl	$2, 136(%rsp)
	movl	$283, 128(%rsp)         # imm = 0x11B
	movl	$3, 120(%rsp)
	movl	$282, 112(%rsp)         # imm = 0x11A
	movl	$3, 104(%rsp)
	movl	$281, 96(%rsp)          # imm = 0x119
	movl	$4, 88(%rsp)
	movl	$267, 80(%rsp)          # imm = 0x10B
	movl	$4, 72(%rsp)
	movl	$266, 64(%rsp)          # imm = 0x10A
	movl	$5, 56(%rsp)
	movl	$219, 48(%rsp)
	movl	$7, 40(%rsp)
	movl	$171, 32(%rsp)
	movl	$6, 24(%rsp)
	movl	$151, 16(%rsp)
	movl	$8, 8(%rsp)
	movl	$12, (%rsp)
	movl	$411, %edi              # imm = 0x19B
.Ltmp538:
	movl	$13, %esi
	movl	$193, %edx
	movl	$7, %ecx
	movl	$10, %r8d
	movl	$9, %r9d
	xorl	%eax, %eax
	callq	_KTimestamp
	callq	_KPopCDep
	cmpl	$0, %ebx
	movl	$0, %r15d
	movl	$0, %ebx
	je	.LBB3_81
# BB#80:                                # %cond.true481
	#DEBUG_VALUE: mpeg2_frame_ME:oldref <- [RBP+-240]
	#DEBUG_VALUE: mpeg2_frame_ME:cur <- [RBP+-288]
	#DEBUG_VALUE: mpeg2_frame_ME:i <- [RBP+-244]
	#DEBUG_VALUE: mpeg2_frame_ME:mbi <- [RBP+-352]
	#DEBUG_VALUE: mpeg2_frame_ME:mb <- [RBP+-232]
	#DEBUG_VALUE: mpeg2_frame_ME:var <- [RBP+-224]
	#DEBUG_VALUE: mpeg2_frame_ME:j <- [RBP+-272]
	movl	$411, %edi              # imm = 0x19B
	callq	_KPushCDep
	movl	$286, %ebx              # imm = 0x11E
	movl	$mpeg2_width, %edi
	movl	$286, %esi              # imm = 0x11E
	movl	$4, %edx
	callq	_KLoad0
	movl	$4, %edi
	callq	_KWork
	movslq	mpeg2_width(%rip), %r15
	movl	$286, %edi              # imm = 0x11E
	movl	$286, %esi              # imm = 0x11E
	xorl	%edx, %edx
	callq	_KTimestamp1
	callq	_KPopCDep
.LBB3_81:                               # %cond.end483
	#DEBUG_VALUE: mpeg2_frame_ME:oldref <- [RBP+-240]
	#DEBUG_VALUE: mpeg2_frame_ME:cur <- [RBP+-288]
	#DEBUG_VALUE: mpeg2_frame_ME:i <- [RBP+-244]
	#DEBUG_VALUE: mpeg2_frame_ME:mbi <- [RBP+-352]
	#DEBUG_VALUE: mpeg2_frame_ME:mb <- [RBP+-232]
	#DEBUG_VALUE: mpeg2_frame_ME:var <- [RBP+-224]
	#DEBUG_VALUE: mpeg2_frame_ME:j <- [RBP+-272]
	movl	$410, %edi              # imm = 0x19A
	callq	_KPushCDep
	movl	$409, %edi              # imm = 0x199
	movl	$410, %edx              # imm = 0x19A
	movl	$411, %ecx              # imm = 0x19B
	movl	%ebx, %esi
	callq	_KPhi2To1
	movl	$37, %edi
	callq	_KWork
	leaq	-84(%rbp), %r14
.Ltmp539:
	#DEBUG_VALUE: mpeg2_frame_ME:imintf <- [R14+0]
	movl	$287, %esi              # imm = 0x11F
	movl	$4, %edx
	movq	%r14, %rdi
	callq	_KLoad0
	.loc	1 11773 54 is_stmt 0    # mpeg2.c:11773:54
	movl	-84(%rbp), %eax
	sarl	%eax
	.loc	1 11773 13              # mpeg2.c:11773:13
	movslq	%eax, %rbx
	addq	%r15, %rbx
	movl	$mpeg2_width, %edi
	movl	$288, %esi              # imm = 0x120
	movl	$4, %edx
	callq	_KLoad0
	.loc	1 11774 24 is_stmt 1    # mpeg2.c:11774:24
	movl	mpeg2_width(%rip), %r15d
	leaq	-88(%rbp), %r13
.Ltmp540:
	#DEBUG_VALUE: mpeg2_frame_ME:jmintf <- [R13+0]
	movl	$289, %esi              # imm = 0x121
	movl	$4, %edx
	movq	%r13, %rdi
	callq	_KLoad0
	.loc	1 11774 47 is_stmt 0    # mpeg2.c:11774:47
	movl	-88(%rbp), %eax
	shrl	%eax
	.loc	1 11774 22              # mpeg2.c:11774:22
	imull	%r15d, %eax
	addl	%eax, %eax
	.loc	1 11773 13 is_stmt 1    # mpeg2.c:11773:13
	movslq	%eax, %r12
	addq	%rbx, %r12
	addq	-240(%rbp), %r12        # 8-byte Folded Reload
	movl	$mpeg2_width, %edi
	movl	$290, %esi              # imm = 0x122
	movl	$4, %edx
	callq	_KLoad0
	.loc	1 11775 17              # mpeg2.c:11775:17
	movl	mpeg2_width(%rip), %r15d
	addl	%r15d, %r15d
	movl	$291, %esi              # imm = 0x123
	movl	$4, %edx
	movq	%r14, %rdi
	callq	_KLoad0
	.loc	1 11775 35 is_stmt 0    # mpeg2.c:11775:35
	movl	-84(%rbp), %r14d
.Ltmp541:
	andl	$1, %r14d
	movl	$292, %esi              # imm = 0x124
	movl	$4, %edx
	movq	%r13, %rdi
	callq	_KLoad0
	.loc	1 11775 47              # mpeg2.c:11775:47
	movl	-88(%rbp), %r13d
.Ltmp542:
	andl	$1, %r13d
	movl	$1, 168(%rsp)
	movl	$292, 160(%rsp)         # imm = 0x124
	movl	$2, 152(%rsp)
	movl	$284, 144(%rsp)         # imm = 0x11C
	movl	$2, 136(%rsp)
	movl	$283, 128(%rsp)         # imm = 0x11B
	movl	$3, 120(%rsp)
	movl	$282, 112(%rsp)         # imm = 0x11A
	movl	$3, 104(%rsp)
	movl	$281, 96(%rsp)          # imm = 0x119
	movl	$4, 88(%rsp)
	movl	$267, 80(%rsp)          # imm = 0x10B
	movl	$4, 72(%rsp)
	movl	$266, 64(%rsp)          # imm = 0x10A
	movl	$5, 56(%rsp)
	movl	$219, 48(%rsp)
	movl	$7, 40(%rsp)
	movl	$171, 32(%rsp)
	movl	$6, 24(%rsp)
	movl	$151, 16(%rsp)
	movl	$8, 8(%rsp)
	movl	$12, (%rsp)
	movl	$296, %edi              # imm = 0x128
	movl	$13, %esi
	movl	$193, %edx
	movl	$7, %ecx
	movl	$10, %r8d
	movl	$9, %r9d
	xorl	%eax, %eax
	callq	_KTimestamp
	movabsq	$5498956949816010481, %rdi # imm = 0x4C5038360CF2E6F1
	xorl	%esi, %esi
	callq	_KPrepCall
	callq	_KEnqArgConst
	movl	$296, %edi              # imm = 0x128
	callq	_KEnqArg
	movl	$1, 168(%rsp)
	movl	$291, 160(%rsp)         # imm = 0x123
	movl	$2, 152(%rsp)
	movl	$284, 144(%rsp)         # imm = 0x11C
	movl	$2, 136(%rsp)
	movl	$283, 128(%rsp)         # imm = 0x11B
	movl	$3, 120(%rsp)
	movl	$282, 112(%rsp)         # imm = 0x11A
	movl	$3, 104(%rsp)
	movl	$281, 96(%rsp)          # imm = 0x119
	movl	$4, 88(%rsp)
	movl	$267, 80(%rsp)          # imm = 0x10B
	movl	$4, 72(%rsp)
	movl	$266, 64(%rsp)          # imm = 0x10A
	movl	$5, 56(%rsp)
	movl	$219, 48(%rsp)
	movl	$7, 40(%rsp)
	movl	$171, 32(%rsp)
	movl	$6, 24(%rsp)
	movl	$151, 16(%rsp)
	movl	$8, 8(%rsp)
	movl	$12, (%rsp)
	movl	$295, %edi              # imm = 0x127
	movl	$13, %esi
	movl	$193, %edx
	movl	$7, %ecx
	movl	$10, %r8d
	movl	$9, %r9d
	xorl	%eax, %eax
	callq	_KTimestamp
	movl	$295, %edi              # imm = 0x127
	callq	_KEnqArg
	movl	$1, 168(%rsp)
	movl	$290, 160(%rsp)         # imm = 0x122
	movl	$2, 152(%rsp)
	movl	$284, 144(%rsp)         # imm = 0x11C
	movl	$2, 136(%rsp)
	movl	$283, 128(%rsp)         # imm = 0x11B
	movl	$3, 120(%rsp)
	movl	$282, 112(%rsp)         # imm = 0x11A
	movl	$3, 104(%rsp)
	movl	$281, 96(%rsp)          # imm = 0x119
	movl	$4, 88(%rsp)
	movl	$267, 80(%rsp)          # imm = 0x10B
	movl	$4, 72(%rsp)
	movl	$266, 64(%rsp)          # imm = 0x10A
	movl	$5, 56(%rsp)
	movl	$219, 48(%rsp)
	movl	$7, 40(%rsp)
	movl	$171, 32(%rsp)
	movl	$6, 24(%rsp)
	movl	$151, 16(%rsp)
	movl	$8, 8(%rsp)
	movl	$12, (%rsp)
	movl	$294, %edi              # imm = 0x126
	movl	$13, %esi
	movl	$193, %edx
	movl	$7, %ecx
	movl	$10, %r8d
	movl	$9, %r9d
	xorl	%eax, %eax
	callq	_KTimestamp
	movl	$294, %edi              # imm = 0x126
	callq	_KEnqArg
	movl	$293, %edi              # imm = 0x125
	callq	_KLinkReturn
	movl	$8, %r9d
	.loc	1 11772 11 is_stmt 1    # mpeg2.c:11772:11
	movq	%r12, %rdi
	movq	-232(%rbp), %rsi        # 8-byte Reload
	movl	%r15d, %edx
	movl	%r14d, %ecx
	movl	%r13d, %r8d
	callq	mpeg2_dist2
	movl	%eax, -232(%rbp)        # 4-byte Spill
.Ltmp543:
	#DEBUG_VALUE: mpeg2_frame_ME:vmc <- [RBP+-232]
	leaq	-152(%rbp), %rdi
.Ltmp544:
	#DEBUG_VALUE: mpeg2_frame_ME:bself <- [RDI+0]
	movl	$297, %esi              # imm = 0x129
	movl	$4, %edx
	callq	_KLoad0
	.loc	1 11778 24              # mpeg2.c:11778:24
	movl	-152(%rbp), %ebx
	movl	$1, 168(%rsp)
	movl	$297, 160(%rsp)         # imm = 0x129
	movl	$2, 152(%rsp)
	movl	$284, 144(%rsp)         # imm = 0x11C
	movl	$2, 136(%rsp)
	movl	$283, 128(%rsp)         # imm = 0x11B
	movl	$3, 120(%rsp)
	movl	$282, 112(%rsp)         # imm = 0x11A
	movl	$3, 104(%rsp)
	movl	$281, 96(%rsp)          # imm = 0x119
	movl	$4, 88(%rsp)
	movl	$267, 80(%rsp)          # imm = 0x10B
	movl	$4, 72(%rsp)
	movl	$266, 64(%rsp)          # imm = 0x10A
	movl	$5, 56(%rsp)
	movl	$219, 48(%rsp)
	movl	$7, 40(%rsp)
	movl	$171, 32(%rsp)
	movl	$6, 24(%rsp)
	movl	$151, 16(%rsp)
	movl	$8, 8(%rsp)
	movl	$12, (%rsp)
	movl	$413, %edi              # imm = 0x19D
.Ltmp545:
	movl	$13, %esi
	movl	$193, %edx
	movl	$7, %ecx
	movl	$10, %r8d
	movl	$9, %r9d
	xorl	%eax, %eax
	callq	_KTimestamp
	callq	_KPopCDep
	cmpl	$0, %ebx
	movl	$0, %ebx
	movl	$0, %r14d
	je	.LBB3_83
# BB#82:                                # %cond.true500
	#DEBUG_VALUE: mpeg2_frame_ME:oldref <- [RBP+-240]
	#DEBUG_VALUE: mpeg2_frame_ME:cur <- [RBP+-288]
	#DEBUG_VALUE: mpeg2_frame_ME:i <- [RBP+-244]
	#DEBUG_VALUE: mpeg2_frame_ME:mbi <- [RBP+-352]
	#DEBUG_VALUE: mpeg2_frame_ME:var <- [RBP+-224]
	#DEBUG_VALUE: mpeg2_frame_ME:j <- [RBP+-272]
	#DEBUG_VALUE: mpeg2_frame_ME:vmc <- [RBP+-232]
	movl	$413, %edi              # imm = 0x19D
	callq	_KPushCDep
	movl	$298, %ebx              # imm = 0x12A
	movl	$mpeg2_width, %edi
	movl	$298, %esi              # imm = 0x12A
	movl	$4, %edx
	callq	_KLoad0
	movl	$4, %edi
	callq	_KWork
	movslq	mpeg2_width(%rip), %r14
	movl	$298, %edi              # imm = 0x12A
	movl	$298, %esi              # imm = 0x12A
	xorl	%edx, %edx
	callq	_KTimestamp1
	callq	_KPopCDep
.LBB3_83:                               # %cond.end502
	#DEBUG_VALUE: mpeg2_frame_ME:oldref <- [RBP+-240]
	#DEBUG_VALUE: mpeg2_frame_ME:cur <- [RBP+-288]
	#DEBUG_VALUE: mpeg2_frame_ME:i <- [RBP+-244]
	#DEBUG_VALUE: mpeg2_frame_ME:mbi <- [RBP+-352]
	#DEBUG_VALUE: mpeg2_frame_ME:var <- [RBP+-224]
	#DEBUG_VALUE: mpeg2_frame_ME:j <- [RBP+-272]
	#DEBUG_VALUE: mpeg2_frame_ME:vmc <- [RBP+-232]
	movl	$410, %edi              # imm = 0x19A
	callq	_KPushCDep
	movl	$412, %edi              # imm = 0x19C
	movl	$410, %edx              # imm = 0x19A
	movl	$413, %ecx              # imm = 0x19D
	movl	%ebx, %esi
	callq	_KPhi2To1
	movl	$37, %edi
	callq	_KWork
	leaq	-92(%rbp), %r13
.Ltmp546:
	#DEBUG_VALUE: mpeg2_frame_ME:iminbf <- [R13+0]
	movl	$299, %esi              # imm = 0x12B
	movl	$4, %edx
	movq	%r13, %rdi
	callq	_KLoad0
	.loc	1 11778 54 is_stmt 0    # mpeg2.c:11778:54
	movl	-92(%rbp), %eax
	sarl	%eax
	.loc	1 11778 13              # mpeg2.c:11778:13
	movslq	%eax, %rbx
	addq	%r14, %rbx
	movl	$mpeg2_width, %edi
	movl	$300, %esi              # imm = 0x12C
	movl	$4, %edx
	callq	_KLoad0
	.loc	1 11779 24 is_stmt 1    # mpeg2.c:11779:24
	movl	mpeg2_width(%rip), %r14d
	leaq	-96(%rbp), %r12
.Ltmp547:
	#DEBUG_VALUE: mpeg2_frame_ME:jminbf <- [R12+0]
	movl	$301, %esi              # imm = 0x12D
	movl	$4, %edx
	movq	%r12, %rdi
	callq	_KLoad0
	.loc	1 11779 47 is_stmt 0    # mpeg2.c:11779:47
	movl	-96(%rbp), %eax
	shrl	%eax
	.loc	1 11779 22              # mpeg2.c:11779:22
	imull	%r14d, %eax
	addl	%eax, %eax
	.loc	1 11778 13 is_stmt 1    # mpeg2.c:11778:13
	cltq
	addq	%rbx, %rax
.Ltmp548:
	#DEBUG_VALUE: mpeg2_frame_ME:oldref <- undef
	addq	%rax, -240(%rbp)        # 8-byte Folded Spill
	movl	$mpeg2_width, %edi
	movl	$302, %esi              # imm = 0x12E
	movl	$4, %edx
	callq	_KLoad0
	.loc	1 11780 13              # mpeg2.c:11780:13
	movslq	mpeg2_width(%rip), %rax
	addq	-296(%rbp), %rax        # 8-byte Folded Reload
	movq	-288(%rbp), %r15        # 8-byte Reload
.Ltmp549:
	#DEBUG_VALUE: mpeg2_frame_ME:cur <- R15
	addq	%rax, %r15
.Ltmp550:
	movl	$mpeg2_width, %edi
	movl	$303, %esi              # imm = 0x12F
	movl	$4, %edx
	callq	_KLoad0
	.loc	1 11780 31 is_stmt 0    # mpeg2.c:11780:31
	movl	mpeg2_width(%rip), %r14d
	addl	%r14d, %r14d
	movl	$304, %esi              # imm = 0x130
	movl	$4, %edx
	movq	%r13, %rdi
	callq	_KLoad0
	.loc	1 11780 49              # mpeg2.c:11780:49
	movl	-92(%rbp), %r13d
.Ltmp551:
	andl	$1, %r13d
	movl	$305, %esi              # imm = 0x131
	movl	$4, %edx
	movq	%r12, %rdi
	callq	_KLoad0
	.loc	1 11780 61              # mpeg2.c:11780:61
	movl	-96(%rbp), %ebx
	andl	$1, %ebx
	movl	$2, 168(%rsp)
	movl	$284, 160(%rsp)         # imm = 0x11C
	movl	$2, 152(%rsp)
	movl	$283, 144(%rsp)         # imm = 0x11B
	movl	$3, 136(%rsp)
	movl	$282, 128(%rsp)         # imm = 0x11A
	movl	$3, 120(%rsp)
	movl	$281, 112(%rsp)         # imm = 0x119
	movl	$4, 104(%rsp)
	movl	$267, 96(%rsp)          # imm = 0x10B
	movl	$4, 88(%rsp)
	movl	$266, 80(%rsp)          # imm = 0x10A
	movl	$5, 72(%rsp)
	movl	$219, 64(%rsp)
	movl	$7, 56(%rsp)
	movl	$171, 48(%rsp)
	movl	$6, 40(%rsp)
	movl	$151, 32(%rsp)
	movl	$1, 24(%rsp)
	movl	$305, 16(%rsp)          # imm = 0x131
	movl	$8, 8(%rsp)
	movl	$12, (%rsp)
	movl	$309, %edi              # imm = 0x135
	movl	$13, %esi
	movl	$193, %edx
	movl	$7, %ecx
	movl	$10, %r8d
	movl	$9, %r9d
	xorl	%eax, %eax
	callq	_KTimestamp
	movabsq	$556378860691262261, %rdi # imm = 0x7B8A7A0400A0B35
	xorl	%esi, %esi
	callq	_KPrepCall
	callq	_KEnqArgConst
	movl	$309, %edi              # imm = 0x135
	callq	_KEnqArg
	movl	$2, 168(%rsp)
	movl	$284, 160(%rsp)         # imm = 0x11C
	movl	$2, 152(%rsp)
	movl	$283, 144(%rsp)         # imm = 0x11B
	movl	$3, 136(%rsp)
	movl	$282, 128(%rsp)         # imm = 0x11A
	movl	$3, 120(%rsp)
	movl	$281, 112(%rsp)         # imm = 0x119
	movl	$4, 104(%rsp)
	movl	$267, 96(%rsp)          # imm = 0x10B
	movl	$4, 88(%rsp)
	movl	$266, 80(%rsp)          # imm = 0x10A
	movl	$5, 72(%rsp)
	movl	$219, 64(%rsp)
	movl	$7, 56(%rsp)
	movl	$171, 48(%rsp)
	movl	$6, 40(%rsp)
	movl	$151, 32(%rsp)
	movl	$1, 24(%rsp)
	movl	$304, 16(%rsp)          # imm = 0x130
	movl	$8, 8(%rsp)
	movl	$12, (%rsp)
	movl	$308, %edi              # imm = 0x134
	movl	$13, %esi
	movl	$193, %edx
	movl	$7, %ecx
	movl	$10, %r8d
	movl	$9, %r9d
	xorl	%eax, %eax
	callq	_KTimestamp
	movl	$308, %edi              # imm = 0x134
	callq	_KEnqArg
	movl	$2, 168(%rsp)
	movl	$284, 160(%rsp)         # imm = 0x11C
	movl	$2, 152(%rsp)
	movl	$283, 144(%rsp)         # imm = 0x11B
	movl	$3, 136(%rsp)
	movl	$282, 128(%rsp)         # imm = 0x11A
	movl	$3, 120(%rsp)
	movl	$281, 112(%rsp)         # imm = 0x119
	movl	$4, 104(%rsp)
	movl	$267, 96(%rsp)          # imm = 0x10B
	movl	$4, 88(%rsp)
	movl	$266, 80(%rsp)          # imm = 0x10A
	movl	$5, 72(%rsp)
	movl	$219, 64(%rsp)
	movl	$7, 56(%rsp)
	movl	$171, 48(%rsp)
	movl	$6, 40(%rsp)
	movl	$151, 32(%rsp)
	movl	$1, 24(%rsp)
	movl	$303, 16(%rsp)          # imm = 0x12F
	movl	$8, 8(%rsp)
	movl	$12, (%rsp)
	movl	$307, %edi              # imm = 0x133
	movl	$13, %esi
	movl	$193, %edx
	movl	$7, %ecx
	movl	$10, %r8d
	movl	$9, %r9d
	xorl	%eax, %eax
	callq	_KTimestamp
	movl	$307, %edi              # imm = 0x133
	callq	_KEnqArg
	movl	$306, %edi              # imm = 0x132
	callq	_KLinkReturn
	movl	$8, %r9d
	.loc	1 11777 11 is_stmt 1    # mpeg2.c:11777:11
	movq	-240(%rbp), %rdi        # 8-byte Reload
	movq	%r15, %rsi
	movl	%r14d, %edx
	movl	%r13d, %ecx
	movl	%ebx, %r8d
	callq	mpeg2_dist2
	.loc	1 11776 9               # mpeg2.c:11776:9
	addl	-232(%rbp), %eax        # 4-byte Folded Reload
.Ltmp552:
	#DEBUG_VALUE: mpeg2_frame_ME:vmc <- EAX
	movl	%eax, -264(%rbp)        # 4-byte Spill
.Ltmp553:
	#DEBUG_VALUE: mpeg2_frame_ME:vmc <- [RBP+-264]
	movl	$1, 184(%rsp)
	movl	$293, 176(%rsp)         # imm = 0x125
	movl	$2, 168(%rsp)
	movl	$284, 160(%rsp)         # imm = 0x11C
	movl	$2, 152(%rsp)
	movl	$283, 144(%rsp)         # imm = 0x11B
	movl	$3, 136(%rsp)
	movl	$282, 128(%rsp)         # imm = 0x11A
	movl	$3, 120(%rsp)
	movl	$281, 112(%rsp)         # imm = 0x119
	movl	$4, 104(%rsp)
	movl	$267, 96(%rsp)          # imm = 0x10B
	movl	$4, 88(%rsp)
	movl	$266, 80(%rsp)          # imm = 0x10A
	movl	$5, 72(%rsp)
	movl	$219, 64(%rsp)
	movl	$7, 56(%rsp)
	movl	$171, 48(%rsp)
	movl	$6, 40(%rsp)
	movl	$151, 32(%rsp)
	movl	$1, 24(%rsp)
	movl	$306, 16(%rsp)          # imm = 0x132
	movl	$8, 8(%rsp)
	movl	$12, (%rsp)
	movl	$420, -296(%rbp)        # 4-byte Folded Spill
                                        # imm = 0x1A4
	movl	$420, %edi              # imm = 0x1A4
	movl	$14, %esi
	movl	$193, %edx
	movl	$7, %ecx
	movl	$10, %r8d
	movl	$9, %r9d
	xorl	%eax, %eax
	callq	_KTimestamp
	callq	_KPopCDep
	movl	$422, %r14d             # imm = 0x1A6
	movl	$430, %eax              # imm = 0x1AE
	movq	%rax, -328(%rbp)        # 8-byte Spill
	movl	$427, %eax              # imm = 0x1AB
	movq	%rax, -232(%rbp)        # 8-byte Spill
	movl	$432, %eax              # imm = 0x1B0
	movq	%rax, -312(%rbp)        # 8-byte Spill
	movl	$0, %eax
	movq	%rax, -320(%rbp)        # 8-byte Spill
	movl	$0, %r12d
.Ltmp554:
	movl	$0, %eax
	movq	%rax, -304(%rbp)        # 8-byte Spill
	movl	$0, %ebx
	movl	$0, %eax
	movq	%rax, -240(%rbp)        # 8-byte Spill
	movl	$0, %eax
	movq	%rax, -336(%rbp)        # 8-byte Spill
	movl	$0, %r13d
	movl	$0, %eax
	movq	%rax, -280(%rbp)        # 8-byte Spill
	movl	$0, %eax
	movq	%rax, -288(%rbp)        # 8-byte Spill
	xorl	%eax, %eax
	movq	%rax, -256(%rbp)        # 8-byte Spill
	movl	$410, %r15d             # imm = 0x19A
	jmp	.LBB3_89
.Ltmp555:
.LBB3_75:                               # %if.else473.if.else521_crit_edge
	#DEBUG_VALUE: mpeg2_frame_ME:newref <- [RBP+-256]
	#DEBUG_VALUE: mpeg2_frame_ME:cur <- [RBP+-288]
	#DEBUG_VALUE: mpeg2_frame_ME:i <- [RBP+-244]
	#DEBUG_VALUE: mpeg2_frame_ME:mbi <- R13
	#DEBUG_VALUE: mpeg2_frame_ME:mb <- [RBP+-232]
	#DEBUG_VALUE: mpeg2_frame_ME:var <- [RBP+-224]
	#DEBUG_VALUE: mpeg2_frame_ME:j <- [RBP+-272]
	#DEBUG_VALUE: mpeg2_frame_ME:dmcfieldr <- undef
	leaq	-136(%rbp), %rbx
.Ltmp556:
	#DEBUG_VALUE: mpeg2_frame_ME:dmcfieldr <- [RBX+0]
.LBB3_76:                               # %if.else521
	#DEBUG_VALUE: mpeg2_frame_ME:newref <- [RBP+-256]
	#DEBUG_VALUE: mpeg2_frame_ME:cur <- [RBP+-288]
	#DEBUG_VALUE: mpeg2_frame_ME:i <- [RBP+-244]
	#DEBUG_VALUE: mpeg2_frame_ME:mbi <- R13
	#DEBUG_VALUE: mpeg2_frame_ME:mb <- [RBP+-232]
	#DEBUG_VALUE: mpeg2_frame_ME:var <- [RBP+-224]
	#DEBUG_VALUE: mpeg2_frame_ME:j <- [RBP+-272]
	movl	$422, %edi              # imm = 0x1A6
	callq	_KPushCDep
	movl	$310, %esi              # imm = 0x136
	movl	$4, %edx
	movq	%r15, %rdi
	callq	_KLoad0
	movl	$10, %edi
	callq	_KWork
	.loc	1 11783 12              # mpeg2.c:11783:12
.Ltmp557:
	movl	-124(%rbp), %r15d
	movl	$311, %esi              # imm = 0x137
	movl	$4, %edx
	movq	%rbx, %rdi
	callq	_KLoad0
.Ltmp558:
	.loc	1 11783 12 is_stmt 0    # mpeg2.c:11783:12
	movl	-136(%rbp), %r12d
	movl	$4, %esi
	movq	%r13, %rdi
	callq	_KStoreConst
	.loc	1 11785 9 is_stmt 1     # mpeg2.c:11785:9
.Ltmp559:
	movl	$4, (%r13)
	.loc	1 11786 9               # mpeg2.c:11786:9
	leaq	4(%r13), %rbx
	movl	$2, 152(%rsp)
	movl	$282, 144(%rsp)         # imm = 0x11A
	movl	$2, 136(%rsp)
	movl	$281, 128(%rsp)         # imm = 0x119
	movl	$3, 120(%rsp)
	movl	$267, 112(%rsp)         # imm = 0x10B
	movl	$3, 104(%rsp)
	movl	$266, 96(%rsp)          # imm = 0x10A
	movl	$4, 88(%rsp)
	movl	$219, 80(%rsp)
	movl	$6, 72(%rsp)
	movl	$171, 64(%rsp)
	movl	$5, 56(%rsp)
	movl	$151, 48(%rsp)
	movl	$1, 40(%rsp)
	movl	$311, 32(%rsp)          # imm = 0x137
	movl	$1, 24(%rsp)
	movl	$310, 16(%rsp)          # imm = 0x136
	movl	$7, 8(%rsp)
	movl	$12, (%rsp)
	xorl	%r14d, %r14d
	movl	$415, %edi              # imm = 0x19F
	movl	$12, %esi
	movl	$193, %edx
	movl	$6, %ecx
	movl	$10, %r8d
	movl	$8, %r9d
	xorl	%eax, %eax
	callq	_KTimestamp
	callq	_KPopCDep
	movl	$415, %edi              # imm = 0x19F
	callq	_KPushCDep
	movl	$4, %esi
	movq	%rbx, %rdi
	callq	_KStoreConst
.Ltmp560:
	.loc	1 11783 12              # mpeg2.c:11783:12
	cmpl	%r12d, %r15d
	jge	.LBB3_84
.Ltmp561:
# BB#77:                                # %if.then523
	#DEBUG_VALUE: mpeg2_frame_ME:newref <- [RBP+-256]
	#DEBUG_VALUE: mpeg2_frame_ME:i <- [RBP+-244]
	#DEBUG_VALUE: mpeg2_frame_ME:mbi <- R13
	#DEBUG_VALUE: mpeg2_frame_ME:mbi <- [RBP+-352]
	#DEBUG_VALUE: mpeg2_frame_ME:mb <- [RBP+-232]
	#DEBUG_VALUE: mpeg2_frame_ME:var <- [RBP+-224]
	#DEBUG_VALUE: mpeg2_frame_ME:j <- [RBP+-272]
	movl	$31, %edi
	callq	_KWork
	.loc	1 11786 9               # mpeg2.c:11786:9
.Ltmp562:
	movl	$2, (%rbx)
	leaq	-60(%rbp), %r14
.Ltmp563:
	#DEBUG_VALUE: mpeg2_frame_ME:iminr <- [R14+0]
	movl	$312, %esi              # imm = 0x138
	movl	$4, %edx
	movq	%r14, %rdi
	callq	_KLoad0
	.loc	1 11789 24              # mpeg2.c:11789:24
	movl	-60(%rbp), %eax
	sarl	%eax
	.loc	1 11789 13 is_stmt 0    # mpeg2.c:11789:13
	movslq	%eax, %r12
	movl	$mpeg2_width, %edi
	movl	$313, %esi              # imm = 0x139
	movl	$4, %edx
	callq	_KLoad0
	movslq	mpeg2_width(%rip), %rbx
	leaq	-64(%rbp), %r15
.Ltmp564:
	#DEBUG_VALUE: mpeg2_frame_ME:jminr <- [R15+0]
	movl	$314, %esi              # imm = 0x13A
	movl	$4, %edx
	movq	%r15, %rdi
	callq	_KLoad0
	.loc	1 11789 55              # mpeg2.c:11789:55
	movl	-64(%rbp), %eax
	sarl	%eax
	.loc	1 11789 13              # mpeg2.c:11789:13
	cltq
	.loc	1 11789 39              # mpeg2.c:11789:39
	imulq	%rbx, %rax
	.loc	1 11789 13              # mpeg2.c:11789:13
	addq	%r12, %rax
	movq	-256(%rbp), %rbx        # 8-byte Reload
.Ltmp565:
	#DEBUG_VALUE: mpeg2_frame_ME:newref <- RBX
	addq	%rax, %rbx
.Ltmp566:
	movl	$mpeg2_width, %edi
	movl	$315, %esi              # imm = 0x13B
	movl	$4, %edx
	callq	_KLoad0
	.loc	1 11790 13 is_stmt 1    # mpeg2.c:11790:13
	movl	mpeg2_width(%rip), %eax
	movl	%eax, -264(%rbp)        # 4-byte Spill
	movl	$316, %esi              # imm = 0x13C
	movl	$4, %edx
	movq	%r14, %rdi
	callq	_KLoad0
	.loc	1 11790 26 is_stmt 0    # mpeg2.c:11790:26
	movl	-60(%rbp), %r12d
	andl	$1, %r12d
	movl	$317, %esi              # imm = 0x13D
	movl	$4, %edx
	movq	%r15, %rdi
	callq	_KLoad0
	movl	$415, %eax              # imm = 0x19F
	.loc	1 11790 37              # mpeg2.c:11790:37
	movq	%rax, -240(%rbp)        # 8-byte Spill
	movl	-64(%rbp), %r13d
	andl	$1, %r13d
	movl	$3, 168(%rsp)
	movl	$282, 160(%rsp)         # imm = 0x11A
	movl	$3, 152(%rsp)
	movl	$281, 144(%rsp)         # imm = 0x119
	movl	$4, 136(%rsp)
	movl	$267, 128(%rsp)         # imm = 0x10B
	movl	$4, 120(%rsp)
	movl	$266, 112(%rsp)         # imm = 0x10A
	movl	$5, 104(%rsp)
	movl	$219, 96(%rsp)
	movl	$7, 88(%rsp)
	movl	$171, 80(%rsp)
	movl	$6, 72(%rsp)
	movl	$151, 64(%rsp)
	movl	$1, 56(%rsp)
	movl	$317, 48(%rsp)          # imm = 0x13D
	movl	$2, 40(%rsp)
	movl	$311, 32(%rsp)          # imm = 0x137
	movl	$2, 24(%rsp)
	movl	$310, 16(%rsp)          # imm = 0x136
	movl	$8, 8(%rsp)
	movl	$12, (%rsp)
	xorl	%eax, %eax
	movq	%rax, -256(%rbp)        # 8-byte Spill
	movl	$320, %edi              # imm = 0x140
	movl	$13, %esi
	movl	$193, %edx
	movl	$7, %ecx
	movl	$10, %r8d
	movl	$9, %r9d
	xorl	%eax, %eax
	callq	_KTimestamp
	movabsq	$104995315403541104, %rdi # imm = 0x17504AEDDB54A70
	xorl	%esi, %esi
	callq	_KPrepCall
	callq	_KEnqArgConst
	movl	$320, %edi              # imm = 0x140
	callq	_KEnqArg
	movl	$3, 168(%rsp)
	movl	$282, 160(%rsp)         # imm = 0x11A
	movl	$3, 152(%rsp)
	movl	$281, 144(%rsp)         # imm = 0x119
	movl	$4, 136(%rsp)
	movl	$267, 128(%rsp)         # imm = 0x10B
	movl	$4, 120(%rsp)
	movl	$266, 112(%rsp)         # imm = 0x10A
	movl	$5, 104(%rsp)
	movl	$219, 96(%rsp)
	movl	$7, 88(%rsp)
	movl	$171, 80(%rsp)
	movl	$6, 72(%rsp)
	movl	$151, 64(%rsp)
	movl	$1, 56(%rsp)
	movl	$316, 48(%rsp)          # imm = 0x13C
	movl	$2, 40(%rsp)
	movl	$311, 32(%rsp)          # imm = 0x137
	movl	$2, 24(%rsp)
	movl	$310, 16(%rsp)          # imm = 0x136
	movl	$8, 8(%rsp)
	movl	$12, (%rsp)
	movl	$319, %edi              # imm = 0x13F
	movl	$13, %esi
	movl	$193, %edx
	movl	$7, %ecx
	movl	$10, %r8d
	movl	$9, %r9d
	xorl	%eax, %eax
	callq	_KTimestamp
	movl	$319, %edi              # imm = 0x13F
	callq	_KEnqArg
	movl	$315, %edi              # imm = 0x13B
	movl	$315, %esi              # imm = 0x13B
	xorl	%edx, %edx
	callq	_KTimestamp1
	movl	$315, %edi              # imm = 0x13B
	callq	_KEnqArg
	movl	$318, -296(%rbp)        # 4-byte Folded Spill
                                        # imm = 0x13E
	movl	$318, %edi              # imm = 0x13E
	callq	_KLinkReturn
	movl	$16, %r9d
	.loc	1 11788 11 is_stmt 1    # mpeg2.c:11788:11
	movq	%rbx, %rdi
	movq	-232(%rbp), %rsi        # 8-byte Reload
	movl	-264(%rbp), %edx        # 4-byte Reload
	movl	%r12d, %ecx
	movl	%r13d, %r8d
	callq	mpeg2_dist2
	movl	%eax, -264(%rbp)        # 4-byte Spill
	#DEBUG_VALUE: mpeg2_frame_ME:vmc <- [RBP+-264]
	movl	$318, %edi              # imm = 0x13E
	movl	$318, %esi              # imm = 0x13E
	xorl	%edx, %edx
	callq	_KTimestamp1
	callq	_KPopCDep
	movl	$430, %eax              # imm = 0x1AE
	movq	%rax, -328(%rbp)        # 8-byte Spill
	movl	$427, %eax              # imm = 0x1AB
	movq	%rax, -232(%rbp)        # 8-byte Spill
	movl	$432, %eax              # imm = 0x1B0
	movq	%rax, -312(%rbp)        # 8-byte Spill
	movl	$0, %eax
	movq	%rax, -320(%rbp)        # 8-byte Spill
	movl	$0, %r12d
	movl	$0, %eax
	movq	%rax, -304(%rbp)        # 8-byte Spill
	movl	$0, %ebx
	movl	$0, %eax
	movq	%rax, -336(%rbp)        # 8-byte Spill
	movl	$0, %r13d
	movl	$0, %eax
	movq	%rax, -280(%rbp)        # 8-byte Spill
	xorl	%eax, %eax
	movq	%rax, -288(%rbp)        # 8-byte Spill
	xorl	%r15d, %r15d
.Ltmp567:
	movl	$422, %r14d             # imm = 0x1A6
.Ltmp568:
	jmp	.LBB3_89
.Ltmp569:
.LBB3_27:                               # %if.else113
	#DEBUG_VALUE: mpeg2_frame_ME:i <- [RBP+-244]
	#DEBUG_VALUE: mpeg2_frame_ME:mbi <- R13
	#DEBUG_VALUE: mpeg2_frame_ME:j <- [RBP+-272]
	movl	$5, %edi
	callq	_KWork
	movl	$81, %esi
	movl	$4, %edx
	movq	%rbx, %rdi
	callq	_KLoad0
	.loc	1 11602 14              # mpeg2.c:11602:14
.Ltmp570:
	movl	(%rbx), %ebx
	callq	_KPopCDep
	movl	$9, 64(%rsp)
	movl	$11, 56(%rsp)
	movl	$6, 48(%rsp)
	movl	$74, 40(%rsp)
	movl	$10, 32(%rsp)
	movl	$10, 24(%rsp)
	movl	$8, 16(%rsp)
	movl	$9, 8(%rsp)
	movl	$1, (%rsp)
	movl	$78, %r15d
	movl	$440, %edi              # imm = 0x1B8
	movl	$75, %esi
	movl	$2, %edx
	movl	$78, %ecx
	movl	$8, %r8d
	movl	$81, %r9d
	callq	_KTimestamp7
	movl	$440, %edi              # imm = 0x1B8
	callq	_KPushCDep
.Ltmp571:
	.loc	1 11602 14 is_stmt 0    # mpeg2.c:11602:14
	cmpl	$3, %ebx
	jne	.LBB3_29
.Ltmp572:
# BB#28:                                # %if.then116
	#DEBUG_VALUE: mpeg2_frame_ME:i <- [RBP+-244]
	#DEBUG_VALUE: mpeg2_frame_ME:mbi <- R13
	#DEBUG_VALUE: mpeg2_frame_ME:j <- [RBP+-272]
	leaq	-196(%rbp), %rdi
.Ltmp573:
	#DEBUG_VALUE: mpeg2_frame_ME:imindp <- [RDI+0]
	movl	$82, %esi
	movl	$4, %edx
	callq	_KLoad0
	movl	$25, %edi
.Ltmp574:
	callq	_KWork
	.loc	1 11605 36 is_stmt 1    # mpeg2.c:11605:36
.Ltmp575:
	movl	-196(%rbp), %ebx
	movl	-244(%rbp), %eax        # 4-byte Reload
.Ltmp576:
	#DEBUG_VALUE: mpeg2_frame_ME:i <- EAX
	.loc	1 11605 47 is_stmt 0    # mpeg2.c:11605:47
	addl	%eax, %eax
.Ltmp577:
	.loc	1 11605 36              # mpeg2.c:11605:36
	subl	%eax, %ebx
	.loc	1 11605 11              # mpeg2.c:11605:11
	leaq	24(%r13), %r12
	movl	$11, 104(%rsp)
	movl	$11, 96(%rsp)
	movl	$8, 88(%rsp)
	movl	$74, 80(%rsp)
	movl	$12, 72(%rsp)
	movl	$10, 64(%rsp)
	movl	$10, 56(%rsp)
	movl	$9, 48(%rsp)
	movl	$2, 40(%rsp)
	movl	$1, 32(%rsp)
	movl	$1, 24(%rsp)
	movl	$82, 16(%rsp)
	movl	$3, 8(%rsp)
	movl	$81, (%rsp)
	xorl	%r14d, %r14d
	movl	$78, %r15d
	movl	$83, %edi
	movl	$9, %esi
	movl	$75, %edx
	movl	$4, %ecx
	movl	$78, %r8d
	movl	$10, %r9d
	xorl	%eax, %eax
	callq	_KTimestamp
	movl	$83, %edi
	movl	$4, %edx
	movq	%r12, %rsi
	callq	_KStore
	movl	%ebx, 24(%r13)
	leaq	-200(%rbp), %rdi
.Ltmp578:
	#DEBUG_VALUE: mpeg2_frame_ME:jmindp <- [RDI+0]
	movl	$84, %esi
	movl	$4, %edx
	callq	_KLoad0
	.loc	1 11606 38 is_stmt 1    # mpeg2.c:11606:38
	movl	-200(%rbp), %ebx
	.loc	1 11606 36 is_stmt 0    # mpeg2.c:11606:36
	movq	-272(%rbp), %rax        # 8-byte Reload
	subl	%eax, %ebx
	addl	%ebx, %ebx
	.loc	1 11606 11              # mpeg2.c:11606:11
	leaq	28(%r13), %r12
	movl	$11, 104(%rsp)
	movl	$11, 96(%rsp)
	movl	$8, 88(%rsp)
	movl	$74, 80(%rsp)
	movl	$12, 72(%rsp)
	movl	$10, 64(%rsp)
	movl	$10, 56(%rsp)
	movl	$9, 48(%rsp)
	movl	$2, 40(%rsp)
	movl	$2, 32(%rsp)
	movl	$3, 24(%rsp)
	movl	$81, 16(%rsp)
	movl	$10, 8(%rsp)
	movl	$78, (%rsp)
	movl	$85, %edi
.Ltmp579:
	movl	$9, %esi
	movl	$84, %edx
	movl	$2, %ecx
	movl	$75, %r8d
	movl	$4, %r9d
	xorl	%eax, %eax
	callq	_KTimestamp
	movl	$85, %edi
	movl	$4, %edx
	movq	%r12, %rsi
	callq	_KStore
	movl	%ebx, 28(%r13)
	leaq	-204(%rbp), %rdi
.Ltmp580:
	#DEBUG_VALUE: mpeg2_frame_ME:imindmv <- [RDI+0]
	movl	$86, %esi
	movl	$4, %edx
	callq	_KLoad0
	.loc	1 11609 32 is_stmt 1    # mpeg2.c:11609:32
	movl	-204(%rbp), %r12d
	.loc	1 11609 11 is_stmt 0    # mpeg2.c:11609:11
	leaq	72(%r13), %rbx
	movl	$86, %edi
.Ltmp581:
	movl	$86, %esi
	xorl	%edx, %edx
	callq	_KTimestamp1
	movl	$86, %edi
	movl	$4, %edx
	movq	%rbx, %rsi
	callq	_KStore
	movl	%r12d, 72(%r13)
	leaq	-208(%rbp), %rdi
.Ltmp582:
	#DEBUG_VALUE: mpeg2_frame_ME:jmindmv <- [RDI+0]
	movl	$87, %esi
	movl	$4, %edx
	callq	_KLoad0
	.loc	1 11610 32 is_stmt 1    # mpeg2.c:11610:32
	movl	-208(%rbp), %r12d
	.loc	1 11610 11 is_stmt 0    # mpeg2.c:11610:11
	leaq	76(%r13), %rbx
	movl	$87, %edi
.Ltmp583:
	movl	$87, %esi
	xorl	%edx, %edx
	callq	_KTimestamp1
	movl	$87, %edi
	movl	$4, %edx
	movq	%rbx, %rsi
	callq	_KStore
	movl	%r12d, 76(%r13)
	jmp	.LBB3_26
.Ltmp584:
.LBB3_84:                               # %if.else536
	#DEBUG_VALUE: mpeg2_frame_ME:newref <- [RBP+-256]
	#DEBUG_VALUE: mpeg2_frame_ME:cur <- [RBP+-288]
	#DEBUG_VALUE: mpeg2_frame_ME:i <- [RBP+-244]
	#DEBUG_VALUE: mpeg2_frame_ME:mbi <- R13
	#DEBUG_VALUE: mpeg2_frame_ME:mbi <- [RBP+-352]
	#DEBUG_VALUE: mpeg2_frame_ME:mb <- [RBP+-232]
	#DEBUG_VALUE: mpeg2_frame_ME:var <- [RBP+-224]
	#DEBUG_VALUE: mpeg2_frame_ME:j <- [RBP+-272]
	movl	$6, %edi
	callq	_KWork
	.loc	1 11794 9 is_stmt 1     # mpeg2.c:11794:9
.Ltmp585:
	movl	$1, (%rbx)
	leaq	-156(%rbp), %rdi
.Ltmp586:
	#DEBUG_VALUE: mpeg2_frame_ME:tselr <- [RDI+0]
	movl	$321, %esi              # imm = 0x141
	movl	$4, %edx
	callq	_KLoad0
	.loc	1 11797 24              # mpeg2.c:11797:24
	movl	-156(%rbp), %ebx
	movl	$3, 168(%rsp)
	movl	$282, 160(%rsp)         # imm = 0x11A
	movl	$3, 152(%rsp)
	movl	$281, 144(%rsp)         # imm = 0x119
	movl	$4, 136(%rsp)
	movl	$267, 128(%rsp)         # imm = 0x10B
	movl	$4, 120(%rsp)
	movl	$266, 112(%rsp)         # imm = 0x10A
	movl	$5, 104(%rsp)
	movl	$219, 96(%rsp)
	movl	$7, 88(%rsp)
	movl	$171, 80(%rsp)
	movl	$6, 72(%rsp)
	movl	$151, 64(%rsp)
	movl	$1, 56(%rsp)
	movl	$321, 48(%rsp)          # imm = 0x141
	movl	$2, 40(%rsp)
	movl	$311, 32(%rsp)          # imm = 0x137
	movl	$2, 24(%rsp)
	movl	$310, 16(%rsp)          # imm = 0x136
	movl	$8, 8(%rsp)
	movl	$12, (%rsp)
	movl	$416, %edi              # imm = 0x1A0
.Ltmp587:
	movl	$13, %esi
	movl	$193, %edx
	movl	$7, %ecx
	movl	$10, %r8d
	movl	$9, %r9d
	xorl	%eax, %eax
	callq	_KTimestamp
	callq	_KPopCDep
	cmpl	$0, %ebx
	movl	$0, %r12d
	je	.LBB3_86
# BB#85:                                # %cond.true540
	#DEBUG_VALUE: mpeg2_frame_ME:newref <- [RBP+-256]
	#DEBUG_VALUE: mpeg2_frame_ME:cur <- [RBP+-288]
	#DEBUG_VALUE: mpeg2_frame_ME:i <- [RBP+-244]
	#DEBUG_VALUE: mpeg2_frame_ME:mbi <- [RBP+-352]
	#DEBUG_VALUE: mpeg2_frame_ME:mb <- [RBP+-232]
	#DEBUG_VALUE: mpeg2_frame_ME:var <- [RBP+-224]
	#DEBUG_VALUE: mpeg2_frame_ME:j <- [RBP+-272]
	movl	$416, %edi              # imm = 0x1A0
	callq	_KPushCDep
	movl	$322, %r14d             # imm = 0x142
	movl	$mpeg2_width, %edi
	movl	$322, %esi              # imm = 0x142
	movl	$4, %edx
	callq	_KLoad0
	movl	$4, %edi
	callq	_KWork
	movslq	mpeg2_width(%rip), %r12
	movl	$322, %edi              # imm = 0x142
	movl	$322, %esi              # imm = 0x142
	xorl	%edx, %edx
	callq	_KTimestamp1
	callq	_KPopCDep
.LBB3_86:                               # %cond.end542
	#DEBUG_VALUE: mpeg2_frame_ME:newref <- [RBP+-256]
	#DEBUG_VALUE: mpeg2_frame_ME:cur <- [RBP+-288]
	#DEBUG_VALUE: mpeg2_frame_ME:i <- [RBP+-244]
	#DEBUG_VALUE: mpeg2_frame_ME:mbi <- [RBP+-352]
	#DEBUG_VALUE: mpeg2_frame_ME:mb <- [RBP+-232]
	#DEBUG_VALUE: mpeg2_frame_ME:var <- [RBP+-224]
	#DEBUG_VALUE: mpeg2_frame_ME:j <- [RBP+-272]
	movl	$415, %edi              # imm = 0x19F
	callq	_KPushCDep
	movl	$414, %edi              # imm = 0x19E
	movl	$415, %edx              # imm = 0x19F
	movl	$416, %ecx              # imm = 0x1A0
	movl	%r14d, %esi
	callq	_KPhi2To1
	movl	$37, %edi
	callq	_KWork
	leaq	-100(%rbp), %r15
.Ltmp588:
	#DEBUG_VALUE: mpeg2_frame_ME:imintr <- [R15+0]
	movl	$323, %esi              # imm = 0x143
	movl	$4, %edx
	movq	%r15, %rdi
	callq	_KLoad0
	.loc	1 11797 54 is_stmt 0    # mpeg2.c:11797:54
	movl	-100(%rbp), %eax
	sarl	%eax
	.loc	1 11797 13              # mpeg2.c:11797:13
	movslq	%eax, %rbx
	addq	%r12, %rbx
	movl	$mpeg2_width, %edi
	movl	$324, %esi              # imm = 0x144
	movl	$4, %edx
	callq	_KLoad0
	.loc	1 11798 24 is_stmt 1    # mpeg2.c:11798:24
	movl	mpeg2_width(%rip), %r14d
	leaq	-104(%rbp), %r12
.Ltmp589:
	#DEBUG_VALUE: mpeg2_frame_ME:jmintr <- [R12+0]
	movl	$325, %esi              # imm = 0x145
	movl	$4, %edx
	movq	%r12, %rdi
	callq	_KLoad0
	.loc	1 11798 47 is_stmt 0    # mpeg2.c:11798:47
	movl	-104(%rbp), %eax
	shrl	%eax
	.loc	1 11798 22              # mpeg2.c:11798:22
	imull	%r14d, %eax
	addl	%eax, %eax
	.loc	1 11797 13 is_stmt 1    # mpeg2.c:11797:13
	movslq	%eax, %r13
	addq	%rbx, %r13
	addq	-256(%rbp), %r13        # 8-byte Folded Reload
	movl	$mpeg2_width, %edi
	movl	$326, %esi              # imm = 0x146
	movl	$4, %edx
	callq	_KLoad0
	.loc	1 11799 17              # mpeg2.c:11799:17
	movl	mpeg2_width(%rip), %r14d
	addl	%r14d, %r14d
	movl	$327, %esi              # imm = 0x147
	movl	$4, %edx
	movq	%r15, %rdi
	callq	_KLoad0
	.loc	1 11799 35 is_stmt 0    # mpeg2.c:11799:35
	movl	-100(%rbp), %r15d
.Ltmp590:
	andl	$1, %r15d
	movl	$328, %esi              # imm = 0x148
	movl	$4, %edx
	movq	%r12, %rdi
	callq	_KLoad0
	.loc	1 11799 47              # mpeg2.c:11799:47
	movl	-104(%rbp), %r12d
.Ltmp591:
	andl	$1, %r12d
	movl	$3, 168(%rsp)
	movl	$282, 160(%rsp)         # imm = 0x11A
	movl	$3, 152(%rsp)
	movl	$281, 144(%rsp)         # imm = 0x119
	movl	$4, 136(%rsp)
	movl	$267, 128(%rsp)         # imm = 0x10B
	movl	$4, 120(%rsp)
	movl	$266, 112(%rsp)         # imm = 0x10A
	movl	$5, 104(%rsp)
	movl	$219, 96(%rsp)
	movl	$7, 88(%rsp)
	movl	$171, 80(%rsp)
	movl	$6, 72(%rsp)
	movl	$151, 64(%rsp)
	movl	$1, 56(%rsp)
	movl	$328, 48(%rsp)          # imm = 0x148
	movl	$2, 40(%rsp)
	movl	$311, 32(%rsp)          # imm = 0x137
	movl	$2, 24(%rsp)
	movl	$310, 16(%rsp)          # imm = 0x136
	movl	$8, 8(%rsp)
	movl	$12, (%rsp)
	movl	$332, %edi              # imm = 0x14C
	movl	$13, %esi
	movl	$193, %edx
	movl	$7, %ecx
	movl	$10, %r8d
	movl	$9, %r9d
	xorl	%eax, %eax
	callq	_KTimestamp
	movabsq	$-5585740672826198116, %rdi # imm = 0xB27B7673DCBE379C
	xorl	%esi, %esi
	callq	_KPrepCall
	callq	_KEnqArgConst
	movl	$332, %edi              # imm = 0x14C
	callq	_KEnqArg
	movl	$3, 168(%rsp)
	movl	$282, 160(%rsp)         # imm = 0x11A
	movl	$3, 152(%rsp)
	movl	$281, 144(%rsp)         # imm = 0x119
	movl	$4, 136(%rsp)
	movl	$267, 128(%rsp)         # imm = 0x10B
	movl	$4, 120(%rsp)
	movl	$266, 112(%rsp)         # imm = 0x10A
	movl	$5, 104(%rsp)
	movl	$219, 96(%rsp)
	movl	$7, 88(%rsp)
	movl	$171, 80(%rsp)
	movl	$6, 72(%rsp)
	movl	$151, 64(%rsp)
	movl	$1, 56(%rsp)
	movl	$327, 48(%rsp)          # imm = 0x147
	movl	$2, 40(%rsp)
	movl	$311, 32(%rsp)          # imm = 0x137
	movl	$2, 24(%rsp)
	movl	$310, 16(%rsp)          # imm = 0x136
	movl	$8, 8(%rsp)
	movl	$12, (%rsp)
	movl	$331, %edi              # imm = 0x14B
	movl	$13, %esi
	movl	$193, %edx
	movl	$7, %ecx
	movl	$10, %r8d
	movl	$9, %r9d
	xorl	%eax, %eax
	callq	_KTimestamp
	movl	$331, %edi              # imm = 0x14B
	callq	_KEnqArg
	movl	$3, 168(%rsp)
	movl	$282, 160(%rsp)         # imm = 0x11A
	movl	$3, 152(%rsp)
	movl	$281, 144(%rsp)         # imm = 0x119
	movl	$4, 136(%rsp)
	movl	$267, 128(%rsp)         # imm = 0x10B
	movl	$4, 120(%rsp)
	movl	$266, 112(%rsp)         # imm = 0x10A
	movl	$5, 104(%rsp)
	movl	$219, 96(%rsp)
	movl	$7, 88(%rsp)
	movl	$171, 80(%rsp)
	movl	$6, 72(%rsp)
	movl	$151, 64(%rsp)
	movl	$1, 56(%rsp)
	movl	$326, 48(%rsp)          # imm = 0x146
	movl	$2, 40(%rsp)
	movl	$311, 32(%rsp)          # imm = 0x137
	movl	$2, 24(%rsp)
	movl	$310, 16(%rsp)          # imm = 0x136
	movl	$8, 8(%rsp)
	movl	$12, (%rsp)
	movl	$330, %edi              # imm = 0x14A
	movl	$13, %esi
	movl	$193, %edx
	movl	$7, %ecx
	movl	$10, %r8d
	movl	$9, %r9d
	xorl	%eax, %eax
	callq	_KTimestamp
	movl	$330, %edi              # imm = 0x14A
	callq	_KEnqArg
	movl	$329, %edi              # imm = 0x149
	callq	_KLinkReturn
	movl	$8, %r9d
	.loc	1 11796 11 is_stmt 1    # mpeg2.c:11796:11
	movq	%r13, %rdi
	movq	-232(%rbp), %rsi        # 8-byte Reload
	movl	%r14d, %edx
	movl	%r15d, %ecx
	movl	%r12d, %r8d
	callq	mpeg2_dist2
	movl	%eax, -232(%rbp)        # 4-byte Spill
.Ltmp592:
	#DEBUG_VALUE: mpeg2_frame_ME:vmc <- [RBP+-232]
	leaq	-160(%rbp), %rdi
.Ltmp593:
	#DEBUG_VALUE: mpeg2_frame_ME:bselr <- [RDI+0]
	movl	$333, %esi              # imm = 0x14D
	movl	$4, %edx
	callq	_KLoad0
	.loc	1 11802 24              # mpeg2.c:11802:24
	movl	-160(%rbp), %ebx
	movl	$3, 168(%rsp)
	movl	$282, 160(%rsp)         # imm = 0x11A
	movl	$3, 152(%rsp)
	movl	$281, 144(%rsp)         # imm = 0x119
	movl	$4, 136(%rsp)
	movl	$267, 128(%rsp)         # imm = 0x10B
	movl	$4, 120(%rsp)
	movl	$266, 112(%rsp)         # imm = 0x10A
	movl	$5, 104(%rsp)
	movl	$219, 96(%rsp)
	movl	$7, 88(%rsp)
	movl	$171, 80(%rsp)
	movl	$6, 72(%rsp)
	movl	$151, 64(%rsp)
	movl	$1, 56(%rsp)
	movl	$333, 48(%rsp)          # imm = 0x14D
	movl	$2, 40(%rsp)
	movl	$311, 32(%rsp)          # imm = 0x137
	movl	$2, 24(%rsp)
	movl	$310, 16(%rsp)          # imm = 0x136
	movl	$8, 8(%rsp)
	movl	$12, (%rsp)
	movl	$418, %edi              # imm = 0x1A2
.Ltmp594:
	movl	$13, %esi
	movl	$193, %edx
	movl	$7, %ecx
	movl	$10, %r8d
	movl	$9, %r9d
	xorl	%eax, %eax
	callq	_KTimestamp
	callq	_KPopCDep
	cmpl	$0, %ebx
	movl	$0, %ebx
	movl	$0, %r15d
	je	.LBB3_88
# BB#87:                                # %cond.true559
	#DEBUG_VALUE: mpeg2_frame_ME:newref <- [RBP+-256]
	#DEBUG_VALUE: mpeg2_frame_ME:cur <- [RBP+-288]
	#DEBUG_VALUE: mpeg2_frame_ME:i <- [RBP+-244]
	#DEBUG_VALUE: mpeg2_frame_ME:mbi <- [RBP+-352]
	#DEBUG_VALUE: mpeg2_frame_ME:var <- [RBP+-224]
	#DEBUG_VALUE: mpeg2_frame_ME:j <- [RBP+-272]
	#DEBUG_VALUE: mpeg2_frame_ME:vmc <- [RBP+-232]
	movl	$418, %edi              # imm = 0x1A2
	callq	_KPushCDep
	movl	$334, %ebx              # imm = 0x14E
	movl	$mpeg2_width, %edi
	movl	$334, %esi              # imm = 0x14E
	movl	$4, %edx
	callq	_KLoad0
	movl	$4, %edi
	callq	_KWork
	movslq	mpeg2_width(%rip), %r15
	movl	$334, %edi              # imm = 0x14E
	movl	$334, %esi              # imm = 0x14E
	xorl	%edx, %edx
	callq	_KTimestamp1
	callq	_KPopCDep
.LBB3_88:                               # %cond.end561
	#DEBUG_VALUE: mpeg2_frame_ME:newref <- [RBP+-256]
	#DEBUG_VALUE: mpeg2_frame_ME:cur <- [RBP+-288]
	#DEBUG_VALUE: mpeg2_frame_ME:i <- [RBP+-244]
	#DEBUG_VALUE: mpeg2_frame_ME:mbi <- [RBP+-352]
	#DEBUG_VALUE: mpeg2_frame_ME:var <- [RBP+-224]
	#DEBUG_VALUE: mpeg2_frame_ME:j <- [RBP+-272]
	#DEBUG_VALUE: mpeg2_frame_ME:vmc <- [RBP+-232]
	movl	$415, %edi              # imm = 0x19F
	callq	_KPushCDep
	movl	$417, %edi              # imm = 0x1A1
	movl	$415, %edx              # imm = 0x19F
	movl	$418, %ecx              # imm = 0x1A2
	movl	%ebx, %esi
	callq	_KPhi2To1
	movl	$37, %edi
	callq	_KWork
	leaq	-108(%rbp), %r12
.Ltmp595:
	#DEBUG_VALUE: mpeg2_frame_ME:iminbr <- [R12+0]
	movl	$335, %esi              # imm = 0x14F
	movl	$4, %edx
	movq	%r12, %rdi
	callq	_KLoad0
	.loc	1 11802 54 is_stmt 0    # mpeg2.c:11802:54
	movl	-108(%rbp), %eax
	sarl	%eax
	.loc	1 11802 13              # mpeg2.c:11802:13
	movslq	%eax, %rbx
	addq	%r15, %rbx
	movl	$mpeg2_width, %edi
	movl	$336, %esi              # imm = 0x150
	movl	$4, %edx
	callq	_KLoad0
	.loc	1 11803 24 is_stmt 1    # mpeg2.c:11803:24
	movl	mpeg2_width(%rip), %r15d
	leaq	-112(%rbp), %r13
.Ltmp596:
	#DEBUG_VALUE: mpeg2_frame_ME:jminbr <- [R13+0]
	movl	$337, %esi              # imm = 0x151
	movl	$4, %edx
	movq	%r13, %rdi
	callq	_KLoad0
	.loc	1 11803 47 is_stmt 0    # mpeg2.c:11803:47
	movl	-112(%rbp), %eax
	shrl	%eax
	.loc	1 11803 22              # mpeg2.c:11803:22
	imull	%r15d, %eax
	addl	%eax, %eax
	.loc	1 11802 13 is_stmt 1    # mpeg2.c:11802:13
	cltq
	addq	%rbx, %rax
.Ltmp597:
	#DEBUG_VALUE: mpeg2_frame_ME:newref <- undef
	addq	%rax, -256(%rbp)        # 8-byte Folded Spill
	movl	$mpeg2_width, %edi
	movl	$338, %esi              # imm = 0x152
	movl	$4, %edx
	callq	_KLoad0
	.loc	1 11804 13              # mpeg2.c:11804:13
	movslq	mpeg2_width(%rip), %rax
	addq	-296(%rbp), %rax        # 8-byte Folded Reload
	movq	-288(%rbp), %r14        # 8-byte Reload
.Ltmp598:
	#DEBUG_VALUE: mpeg2_frame_ME:cur <- R14
	addq	%rax, %r14
.Ltmp599:
	movl	$mpeg2_width, %edi
	movl	$339, %esi              # imm = 0x153
	movl	$4, %edx
	callq	_KLoad0
	.loc	1 11804 31 is_stmt 0    # mpeg2.c:11804:31
	movl	mpeg2_width(%rip), %r15d
	addl	%r15d, %r15d
	movl	$340, %esi              # imm = 0x154
	movl	$4, %edx
	movq	%r12, %rdi
	callq	_KLoad0
	.loc	1 11804 49              # mpeg2.c:11804:49
	movl	-108(%rbp), %r12d
.Ltmp600:
	andl	$1, %r12d
	movl	$341, %esi              # imm = 0x155
	movl	$4, %edx
	movq	%r13, %rdi
	callq	_KLoad0
	.loc	1 11804 61              # mpeg2.c:11804:61
	movl	-112(%rbp), %ebx
	andl	$1, %ebx
	movl	$3, 168(%rsp)
	movl	$282, 160(%rsp)         # imm = 0x11A
	movl	$3, 152(%rsp)
	movl	$281, 144(%rsp)         # imm = 0x119
	movl	$4, 136(%rsp)
	movl	$267, 128(%rsp)         # imm = 0x10B
	movl	$4, 120(%rsp)
	movl	$266, 112(%rsp)         # imm = 0x10A
	movl	$5, 104(%rsp)
	movl	$219, 96(%rsp)
	movl	$7, 88(%rsp)
	movl	$171, 80(%rsp)
	movl	$6, 72(%rsp)
	movl	$151, 64(%rsp)
	movl	$1, 56(%rsp)
	movl	$341, 48(%rsp)          # imm = 0x155
	movl	$2, 40(%rsp)
	movl	$311, 32(%rsp)          # imm = 0x137
	movl	$2, 24(%rsp)
	movl	$310, 16(%rsp)          # imm = 0x136
	movl	$8, 8(%rsp)
	movl	$12, (%rsp)
	movl	$345, %edi              # imm = 0x159
	movl	$13, %esi
	movl	$193, %edx
	movl	$7, %ecx
	movl	$10, %r8d
	movl	$9, %r9d
	xorl	%eax, %eax
	callq	_KTimestamp
	movabsq	$2752811975414621558, %rdi # imm = 0x2633F3E81807A576
	xorl	%esi, %esi
	callq	_KPrepCall
	callq	_KEnqArgConst
	movl	$345, %edi              # imm = 0x159
	callq	_KEnqArg
	movl	$3, 168(%rsp)
	movl	$282, 160(%rsp)         # imm = 0x11A
	movl	$3, 152(%rsp)
	movl	$281, 144(%rsp)         # imm = 0x119
	movl	$4, 136(%rsp)
	movl	$267, 128(%rsp)         # imm = 0x10B
	movl	$4, 120(%rsp)
	movl	$266, 112(%rsp)         # imm = 0x10A
	movl	$5, 104(%rsp)
	movl	$219, 96(%rsp)
	movl	$7, 88(%rsp)
	movl	$171, 80(%rsp)
	movl	$6, 72(%rsp)
	movl	$151, 64(%rsp)
	movl	$1, 56(%rsp)
	movl	$340, 48(%rsp)          # imm = 0x154
	movl	$2, 40(%rsp)
	movl	$311, 32(%rsp)          # imm = 0x137
	movl	$2, 24(%rsp)
	movl	$310, 16(%rsp)          # imm = 0x136
	movl	$8, 8(%rsp)
	movl	$12, (%rsp)
	movl	$344, %edi              # imm = 0x158
