	.text
	.file	"cjpeg_wrbmp.simplifycfg.mem2reg.indvars.elimsinglephis.criticalpath.regioninstrument.renamemain.O3.bc"
	.text
	.globl	cjpeg_wrbmp_init
	.align	16, 0x90
	.type	cjpeg_wrbmp_init,@function
cjpeg_wrbmp_init:                       # @cjpeg_wrbmp_init
.Lfunc_begin0:
	.loc	1 80 0                  # cjpeg_wrbmp.c:80:0
	.cfi_startproc
# BB#0:                                 # %entry
	pushq	%rbp
.Ltmp0:
	.cfi_def_cfa_offset 16
.Ltmp1:
	.cfi_offset %rbp, -16
	movq	%rsp, %rbp
.Ltmp2:
	.cfi_def_cfa_register %rbp
	pushq	%rbx
	pushq	%rax
.Ltmp3:
	.cfi_offset %rbx, -24
	movabsq	$8784079066513392905, %rbx # imm = 0x79E7515EF679C509
	xorl	%esi, %esi
	movq	%rbx, %rdi
	callq	_KEnterRegion
	movl	$1, %edi
	xorl	%esi, %esi
	callq	_KPrepRTable
	movabsq	$-4015793557358291437, %rdi # imm = 0xC8450909425B5613
	xorl	%esi, %esi
	callq	_KPrepCall
	movl	$10, %edi
	callq	_KWork
	.loc	1 81 3 prologue_end     # cjpeg_wrbmp.c:81:3
.Ltmp4:
	callq	cjpeg_wrbmp_initInput
	movl	$cjpeg_wrbmp_jpeg_dec_1+16, %edi
	movl	$8, %esi
	callq	_KStoreConst
	.loc	1 83 3                  # cjpeg_wrbmp.c:83:3
	movq	$0, cjpeg_wrbmp_jpeg_dec_1+16(%rip)
	movl	$cjpeg_wrbmp_jpeg_dec_1+132, %edi
	movl	$4, %esi
	callq	_KStoreConst
	.loc	1 84 3                  # cjpeg_wrbmp.c:84:3
	movl	$30, cjpeg_wrbmp_jpeg_dec_1+132(%rip)
	movl	$cjpeg_wrbmp_jpeg_dec_1+148, %edi
	movl	$4, %esi
	callq	_KStoreConst
	.loc	1 85 3                  # cjpeg_wrbmp.c:85:3
	movl	$256, cjpeg_wrbmp_jpeg_dec_1+148(%rip) # imm = 0x100
	movl	$cjpeg_wrbmp_jpeg_dec_1+136, %edi
	movl	$4, %esi
	callq	_KStoreConst
	.loc	1 86 3                  # cjpeg_wrbmp.c:86:3
	movl	$2, cjpeg_wrbmp_jpeg_dec_1+136(%rip)
	movl	$cjpeg_wrbmp_jpeg_dec_2+16, %edi
	movl	$8, %esi
	callq	_KStoreConst
	.loc	1 88 3                  # cjpeg_wrbmp.c:88:3
	movq	$0, cjpeg_wrbmp_jpeg_dec_2+16(%rip)
	movl	$cjpeg_wrbmp_jpeg_dec_2+132, %edi
	movl	$4, %esi
	callq	_KStoreConst
	.loc	1 89 3                  # cjpeg_wrbmp.c:89:3
	movl	$30, cjpeg_wrbmp_jpeg_dec_2+132(%rip)
	movl	$cjpeg_wrbmp_jpeg_dec_2+148, %edi
	movl	$4, %esi
	callq	_KStoreConst
	.loc	1 90 3                  # cjpeg_wrbmp.c:90:3
	movl	$256, cjpeg_wrbmp_jpeg_dec_2+148(%rip) # imm = 0x100
	movl	$cjpeg_wrbmp_jpeg_dec_2+136, %edi
	movl	$4, %esi
	callq	_KStoreConst
	.loc	1 91 3                  # cjpeg_wrbmp.c:91:3
	movl	$3, cjpeg_wrbmp_jpeg_dec_2+136(%rip)
	movl	$cjpeg_wrbmp_jpeg_stream, %edi
	movl	$8, %esi
	callq	_KStoreConst
	.loc	1 93 3                  # cjpeg_wrbmp.c:93:3
	movq	$cjpeg_wrbmp_output_array, cjpeg_wrbmp_jpeg_stream(%rip)
	movl	$cjpeg_wrbmp_checksum, %edi
	movl	$4, %esi
	callq	_KStoreConst
	.loc	1 95 3                  # cjpeg_wrbmp.c:95:3
	movl	$0, cjpeg_wrbmp_checksum(%rip)
	xorl	%esi, %esi
	movq	%rbx, %rdi
	addq	$8, %rsp
	popq	%rbx
	popq	%rbp
	jmp	_KExitRegion            # TAILCALL
.Ltmp5:
.Ltmp6:
	.size	cjpeg_wrbmp_init, .Ltmp6-cjpeg_wrbmp_init
.Lfunc_end0:
	.cfi_endproc

	.globl	cjpeg_wrbmp_putc_modified
	.align	16, 0x90
	.type	cjpeg_wrbmp_putc_modified,@function
cjpeg_wrbmp_putc_modified:              # @cjpeg_wrbmp_putc_modified
.Lfunc_begin1:
	.loc	1 102 0                 # cjpeg_wrbmp.c:102:0
	.cfi_startproc
# BB#0:                                 # %entry
	pushq	%rbp
.Ltmp7:
	.cfi_def_cfa_offset 16
.Ltmp8:
	.cfi_offset %rbp, -16
	movq	%rsp, %rbp
.Ltmp9:
	.cfi_def_cfa_register %rbp
	pushq	%r15
	pushq	%r14
	pushq	%rbx
	pushq	%rax
.Ltmp10:
	.cfi_offset %rbx, -40
.Ltmp11:
	.cfi_offset %r14, -32
.Ltmp12:
	.cfi_offset %r15, -24
	#DEBUG_VALUE: cjpeg_wrbmp_putc_modified:character <- EDI
	movl	%edi, %r15d
.Ltmp13:
	#DEBUG_VALUE: cjpeg_wrbmp_putc_modified:character <- R15D
	movabsq	$-5359648309724549406, %r14 # imm = 0xB59EB44249D86EE2
	xorl	%esi, %esi
	movq	%r14, %rdi
	callq	_KEnterRegion
	movl	$8, %edi
	xorl	%esi, %esi
	callq	_KPrepRTable
	movl	$16, %edi
	callq	_KWork
	movl	$1, %edi
	callq	_KDeqArg
	movl	$cjpeg_wrbmp_jpeg_stream, %edi
	movl	$2, %esi
	movl	$8, %edx
	callq	_KLoad0
	.loc	1 103 6 prologue_end    # cjpeg_wrbmp.c:103:6
.Ltmp14:
	movq	cjpeg_wrbmp_jpeg_stream(%rip), %rbx
	movl	$3, %edi
	movl	$1, %esi
	xorl	%edx, %edx
	callq	_KTimestamp1
	movl	$3, %edi
	movl	$1, %edx
	movq	%rbx, %rsi
	callq	_KStore
	.loc	1 103 3 is_stmt 0       # cjpeg_wrbmp.c:103:3
	movb	%r15b, (%rbx)
	movl	$cjpeg_wrbmp_jpeg_stream, %edi
	movl	$4, %esi
	movl	$8, %edx
	callq	_KLoad0
	.loc	1 105 3 is_stmt 1       # cjpeg_wrbmp.c:105:3
	movq	cjpeg_wrbmp_jpeg_stream(%rip), %rbx
	incq	%rbx
	movl	$5, %edi
	movl	$4, %esi
	xorl	%edx, %edx
	callq	_KTimestamp1
	movl	$5, %edi
	movl	$cjpeg_wrbmp_jpeg_stream, %esi
	movl	$8, %edx
	callq	_KStore
	movq	%rbx, cjpeg_wrbmp_jpeg_stream(%rip)
	movl	$cjpeg_wrbmp_checksum, %edi
	movl	$6, %esi
	movl	$4, %edx
	callq	_KLoad0
	movl	cjpeg_wrbmp_checksum(%rip), %ebx
	.loc	1 107 3                 # cjpeg_wrbmp.c:107:3
	addl	%r15d, %ebx
	movl	$7, %edi
	movl	$1, %esi
	movl	$1, %edx
	movl	$6, %ecx
	movl	$1, %r8d
	callq	_KTimestamp2
	movl	$7, %edi
	movl	$cjpeg_wrbmp_checksum, %esi
	movl	$4, %edx
	callq	_KStore
	movl	%ebx, cjpeg_wrbmp_checksum(%rip)
	movl	$1, %edi
	movl	$1, %esi
	xorl	%edx, %edx
	callq	_KTimestamp1
	movl	$1, %edi
	callq	_KReturn
	xorl	%esi, %esi
	movq	%r14, %rdi
	callq	_KExitRegion
	.loc	1 109 3                 # cjpeg_wrbmp.c:109:3
	movl	%r15d, %eax
	addq	$8, %rsp
	popq	%rbx
	popq	%r14
	popq	%r15
.Ltmp15:
	popq	%rbp
	retq
.Ltmp16:
.Ltmp17:
	.size	cjpeg_wrbmp_putc_modified, .Ltmp17-cjpeg_wrbmp_putc_modified
.Lfunc_end1:
	.cfi_endproc

	.globl	cjpeg_wrbmp_finish_output_bmp
	.align	16, 0x90
	.type	cjpeg_wrbmp_finish_output_bmp,@function
cjpeg_wrbmp_finish_output_bmp:          # @cjpeg_wrbmp_finish_output_bmp
.Lfunc_begin2:
	.loc	1 113 0                 # cjpeg_wrbmp.c:113:0
	.cfi_startproc
# BB#0:                                 # %entry
	pushq	%rbp
.Ltmp18:
	.cfi_def_cfa_offset 16
.Ltmp19:
	.cfi_offset %rbp, -16
	movq	%rsp, %rbp
.Ltmp20:
	.cfi_def_cfa_register %rbp
	pushq	%r15
	pushq	%r14
	pushq	%r13
	pushq	%r12
	pushq	%rbx
	subq	$40, %rsp
.Ltmp21:
	.cfi_offset %rbx, -56
.Ltmp22:
	.cfi_offset %r12, -48
.Ltmp23:
	.cfi_offset %r13, -40
.Ltmp24:
	.cfi_offset %r14, -32
.Ltmp25:
	.cfi_offset %r15, -24
	#DEBUG_VALUE: cjpeg_wrbmp_finish_output_bmp:cinfo <- RDI
	movq	%rdi, %rbx
.Ltmp26:
	#DEBUG_VALUE: cjpeg_wrbmp_finish_output_bmp:cinfo <- RBX
	movabsq	$-5039829758593019697, %r15 # imm = 0xBA0EED89669ED0CF
	movabsq	$7575660929827452592, %rdi # imm = 0x6922277A652BB6B0
	xorl	%esi, %esi
	callq	_KEnterRegion
	movl	$2, %r12d
	movl	$14, %edi
	movl	$2, %esi
	callq	_KPrepRTable
	movl	$8, %edi
	callq	_KWork
	.loc	1 116 37 prologue_end   # cjpeg_wrbmp.c:116:37
.Ltmp27:
	leaq	16(%rbx), %rdi
	movl	$1, %esi
	movl	$8, %edx
	callq	_KLoad0
	movq	16(%rbx), %rax
.Ltmp28:
	#DEBUG_VALUE: cjpeg_wrbmp_finish_output_bmp:progress <- [RBP+-64]
	.loc	1 120 15                # cjpeg_wrbmp.c:120:15
	movq	%rax, -64(%rbp)         # 8-byte Spill
	leaq	132(%rbx), %r14
	movl	$2, %esi
	movl	$4, %edx
	movq	%r14, %rdi
	callq	_KLoad0
	movl	132(%rbx), %r13d
.Ltmp29:
	#DEBUG_VALUE: cjpeg_wrbmp_finish_output_bmp:row <- R13D
	movq	-64(%rbp), %rbx         # 8-byte Reload
.Ltmp30:
	#DEBUG_VALUE: cjpeg_wrbmp_finish_output_bmp:progress <- RBX
	movl	$6, %edi
	movl	$1, %esi
	xorl	%edx, %edx
	callq	_KTimestamp1
	movl	$2, %edi
	movl	$2, %esi
	xorl	%edx, %edx
	callq	_KTimestamp1
	movl	$1, %esi
	movabsq	$4848130776546515850, %rdi # imm = 0x4348054138B19B8A
	callq	_KEnterRegion
	.loc	1 121 10                # cjpeg_wrbmp.c:121:10
.Ltmp31:
	testq	%rbx, %rbx
	je	.LBB2_1
.Ltmp32:
# BB#4:                                 # %for.cond.us.preheader
	#DEBUG_VALUE: cjpeg_wrbmp_finish_output_bmp:progress <- RBX
	#DEBUG_VALUE: cjpeg_wrbmp_finish_output_bmp:row <- R13D
	.loc	1 122 7                 # cjpeg_wrbmp.c:122:7
	leaq	8(%rbx), %rax
	.loc	1 123 7                 # cjpeg_wrbmp.c:123:7
	movq	%rax, -48(%rbp)         # 8-byte Spill
	leaq	16(%rbx), %rax
	movq	%rax, -56(%rbp)         # 8-byte Spill
.Ltmp33:
	#DEBUG_VALUE: cjpeg_wrbmp_finish_output_bmp:progress <- [RBP+-64]
	negl	%r13d
.Ltmp34:
	xorl	%edx, %edx
	movl	$2, %r12d
	jmp	.LBB2_5
	.align	16, 0x90
.LBB2_6:                                # %for.inc.us
                                        #   in Loop: Header=BB2_5 Depth=1
	#DEBUG_VALUE: cjpeg_wrbmp_finish_output_bmp:progress <- [RBP+-64]
	movl	$2, %esi
	movq	%r15, %rdi
	callq	_KEnterRegion
	movl	$13, %edi
	callq	_KPushCDep
	callq	_KPopCDep
	movl	$7, %edi
	callq	_KPushCDep
	movl	$11, %edi
	callq	_KWork
	movl	$3, %esi
	movl	$4, %edx
	movq	%r14, %rdi
	callq	_KLoad0
	movl	(%r14), %r12d
	.loc	1 122 36                # cjpeg_wrbmp.c:122:36
	addl	%r13d, %r12d
	movl	$1, (%rsp)
	movl	$4, %edi
	movl	$7, %esi
	movl	$1, %edx
	movl	$5, %ecx
	movl	$1, %r8d
	movl	$3, %r9d
	callq	_KTimestamp3
	movl	$4, %edi
	movl	$8, %edx
	movq	-48(%rbp), %rbx         # 8-byte Reload
	movq	%rbx, %rsi
	callq	_KStore
	.loc	1 122 7 is_stmt 0       # cjpeg_wrbmp.c:122:7
	movq	%r12, (%rbx)
	movl	$8, %esi
	movl	$4, %edx
	movq	%r14, %rdi
	callq	_KLoad0
	.loc	1 123 34 is_stmt 1      # cjpeg_wrbmp.c:123:34
	movl	(%r14), %r12d
	movl	$9, %edi
	movl	$7, %esi
	xorl	%edx, %edx
	movl	$8, %ecx
	xorl	%r8d, %r8d
	callq	_KTimestamp2
	movl	$9, %edi
	movl	$8, %edx
	movq	-56(%rbp), %rbx         # 8-byte Reload
	movq	%rbx, %rsi
	callq	_KStore
	.loc	1 123 7 is_stmt 0       # cjpeg_wrbmp.c:123:7
	movq	%r12, (%rbx)
	callq	_KPopCDep
	movl	$13, %edi
	callq	_KPushCDep
	movl	$1, %edi
	callq	_KWork
	movl	$12, %r12d
	movl	$12, %edi
	movl	$13, %esi
	movl	$1, %edx
	movl	$5, %ecx
	movl	$1, %r8d
	callq	_KTimestamp2
	callq	_KPopCDep
	movl	$2, %esi
	movq	%r15, %rdi
	callq	_KExitRegion
	movl	$13, %edx
	incl	%r13d
.Ltmp35:
.LBB2_5:                                # %for.cond.us
                                        # =>This Inner Loop Header: Depth=1
	#DEBUG_VALUE: cjpeg_wrbmp_finish_output_bmp:progress <- [RBP+-64]
	movl	$5, %edi
	movl	%r12d, %esi
	callq	_KPhi1To1
	movl	$2, %edi
	callq	_KWork
	movl	$7, %edi
	movl	$6, %esi
	movl	$1, %edx
	callq	_KTimestamp1
	movl	$5, %edi
	movl	$5, %esi
	xorl	%edx, %edx
	callq	_KTimestamp1
	movl	$13, %edi
	movl	$5, %esi
	movl	$1, %edx
	callq	_KTimestamp1
	movl	$5, %edi
	movl	$13, %esi
	callq	_KPhiAddCond
	.loc	1 120 37 is_stmt 1 discriminator 2 # cjpeg_wrbmp.c:120:37
.Ltmp36:
	testl	%r13d, %r13d
	jne	.LBB2_6
	jmp	.LBB2_7
.LBB2_1:                                # %for.cond.preheader
.Ltmp37:
	#DEBUG_VALUE: cjpeg_wrbmp_finish_output_bmp:progress <- RBX
	#DEBUG_VALUE: cjpeg_wrbmp_finish_output_bmp:progress <- [RBP+-64]
	#DEBUG_VALUE: cjpeg_wrbmp_finish_output_bmp:row <- R13D
	notl	%r13d
.Ltmp38:
	xorl	%r14d, %r14d
	jmp	.LBB2_2
	.align	16, 0x90
.LBB2_3:                                # %for.inc
                                        #   in Loop: Header=BB2_2 Depth=1
	#DEBUG_VALUE: cjpeg_wrbmp_finish_output_bmp:progress <- [RBP+-64]
	movl	$2, %esi
	movq	%r15, %rdi
	callq	_KEnterRegion
	movl	$13, %r14d
	movl	$13, %edi
	callq	_KPushCDep
	callq	_KPopCDep
	movl	$13, %edi
	callq	_KPushCDep
	movl	$1, %edi
	callq	_KWork
	movl	$12, %r12d
	movl	$12, %edi
	movl	$13, %esi
	movl	$1, %edx
	movl	$5, %ecx
	movl	$1, %r8d
	callq	_KTimestamp2
	callq	_KPopCDep
	movl	$2, %esi
	movq	%r15, %rdi
	callq	_KExitRegion
.LBB2_2:                                # %for.cond
                                        # =>This Inner Loop Header: Depth=1
	#DEBUG_VALUE: cjpeg_wrbmp_finish_output_bmp:progress <- [RBP+-64]
	movl	$5, %edi
	movl	%r12d, %esi
	movl	%r14d, %edx
	callq	_KPhi1To1
	movl	$2, %edi
	callq	_KWork
	movl	$7, %edi
	movl	$6, %esi
	movl	$1, %edx
	callq	_KTimestamp1
	movl	$5, %edi
	movl	$5, %esi
	xorl	%edx, %edx
	callq	_KTimestamp1
	movl	$13, %edi
	movl	$5, %esi
	movl	$1, %edx
	callq	_KTimestamp1
	movl	$5, %edi
	movl	$13, %esi
	callq	_KPhiAddCond
	incl	%r13d
	jne	.LBB2_3
.Ltmp39:
.LBB2_7:                                # %for.cond.pre_exit.for.end
	#DEBUG_VALUE: cjpeg_wrbmp_finish_output_bmp:progress <- [RBP+-64]
	movl	$1, %esi
	movabsq	$4848130776546515850, %rdi # imm = 0x4348054138B19B8A
	callq	_KExitRegion
	movq	-64(%rbp), %rbx         # 8-byte Reload
.Ltmp40:
	#DEBUG_VALUE: cjpeg_wrbmp_finish_output_bmp:progress <- RBX
	.loc	1 127 8                 # cjpeg_wrbmp.c:127:8
	testq	%rbx, %rbx
	je	.LBB2_9
.Ltmp41:
# BB#8:                                 # %if.then9
	#DEBUG_VALUE: cjpeg_wrbmp_finish_output_bmp:progress <- RBX
	movl	$7, %edi
	callq	_KPushCDep
	movl	$6, %edi
	callq	_KWork
	.loc	1 128 6                 # cjpeg_wrbmp.c:128:6
.Ltmp42:
	leaq	32(%rbx), %r14
	movl	$10, %esi
	movl	$4, %edx
	movq	%r14, %rdi
	callq	_KLoad0
	movl	32(%rbx), %r15d
	incl	%r15d
	movl	$11, %edi
	movl	$6, %esi
	movl	$2, %edx
	movl	$10, %ecx
	movl	$1, %r8d
	callq	_KTimestamp2
	movl	$11, %edi
	movl	$4, %edx
	movq	%r14, %rsi
	callq	_KStore
	movl	%r15d, 32(%rbx)
	callq	_KPopCDep
.Ltmp43:
.LBB2_9:                                # %if.end10
	xorl	%esi, %esi
	movabsq	$7575660929827452592, %rdi # imm = 0x6922277A652BB6B0
	addq	$40, %rsp
	popq	%rbx
	popq	%r12
	popq	%r13
	popq	%r14
	popq	%r15
	popq	%rbp
	jmp	_KExitRegion            # TAILCALL
.Ltmp44:
	.size	cjpeg_wrbmp_finish_output_bmp, .Ltmp44-cjpeg_wrbmp_finish_output_bmp
.Lfunc_end2:
	.cfi_endproc

	.globl	cjpeg_wrbmp_write_colormap
	.align	16, 0x90
	.type	cjpeg_wrbmp_write_colormap,@function
cjpeg_wrbmp_write_colormap:             # @cjpeg_wrbmp_write_colormap
.Lfunc_begin3:
	.loc	1 134 0                 # cjpeg_wrbmp.c:134:0
	.cfi_startproc
# BB#0:                                 # %entry
	pushq	%rbp
.Ltmp45:
	.cfi_def_cfa_offset 16
.Ltmp46:
	.cfi_offset %rbp, -16
	movq	%rsp, %rbp
.Ltmp47:
	.cfi_def_cfa_register %rbp
	pushq	%r15
	pushq	%r14
	pushq	%r13
	pushq	%r12
	pushq	%rbx
	subq	$40, %rsp
.Ltmp48:
	.cfi_offset %rbx, -56
.Ltmp49:
	.cfi_offset %r12, -48
.Ltmp50:
	.cfi_offset %r13, -40
.Ltmp51:
	.cfi_offset %r14, -32
.Ltmp52:
	.cfi_offset %r15, -24
	#DEBUG_VALUE: cjpeg_wrbmp_write_colormap:cinfo <- RDI
	#DEBUG_VALUE: cjpeg_wrbmp_write_colormap:map_colors <- ESI
	#DEBUG_VALUE: cjpeg_wrbmp_write_colormap:map_entry_size <- EDX
	#DEBUG_VALUE: cjpeg_wrbmp_write_colormap:cMap <- ECX
	movl	%ecx, %r14d
.Ltmp53:
	#DEBUG_VALUE: cjpeg_wrbmp_write_colormap:cMap <- R14D
	movl	%edx, %r13d
.Ltmp54:
	#DEBUG_VALUE: cjpeg_wrbmp_write_colormap:map_entry_size <- R13D
	movl	%esi, -44(%rbp)         # 4-byte Spill
.Ltmp55:
	#DEBUG_VALUE: cjpeg_wrbmp_write_colormap:map_colors <- [RBP+-44]
	movq	%rdi, %rbx
.Ltmp56:
	#DEBUG_VALUE: cjpeg_wrbmp_write_colormap:cinfo <- RBX
	movabsq	$-2934188520441196709, %rdi # imm = 0xD747AB162F12CF5B
	xorl	%r12d, %r12d
	xorl	%esi, %esi
	callq	_KEnterRegion
	movl	$54, %edi
	movl	$2, %esi
	callq	_KPrepRTable
	movl	$5, %edi
	callq	_KWork
	movl	$3, %edi
	callq	_KDeqArg
	movl	$2, %edi
	callq	_KDeqArg
	movl	$1, %edi
	callq	_KDeqArg
	.loc	1 136 20 prologue_end   # cjpeg_wrbmp.c:136:20
.Ltmp57:
	leaq	148(%rbx), %rdi
	movl	$4, %esi
	movl	$4, %edx
	callq	_KLoad0
	movslq	148(%rbx), %r15
	movl	$45, %edi
	movl	$3, %esi
	movl	$1, %edx
	callq	_KTimestamp1
	movl	$45, %edi
	callq	_KPushCDep
	.loc	1 139 8                 # cjpeg_wrbmp.c:139:8
.Ltmp58:
	testl	%r14d, %r14d
.Ltmp59:
	.loc	1 139 8 is_stmt 0       # cjpeg_wrbmp.c:139:8
	je	.LBB3_16
.Ltmp60:
# BB#1:                                 # %if.then
	#DEBUG_VALUE: cjpeg_wrbmp_write_colormap:cinfo <- RBX
	#DEBUG_VALUE: cjpeg_wrbmp_write_colormap:map_colors <- [RBP+-44]
	#DEBUG_VALUE: cjpeg_wrbmp_write_colormap:map_entry_size <- R13D
	movl	%r13d, -48(%rbp)        # 4-byte Spill
.Ltmp61:
	#DEBUG_VALUE: cjpeg_wrbmp_write_colormap:map_entry_size <- [RBP+-48]
	movl	$5, %edi
	callq	_KWork
	.loc	1 141 10 is_stmt 1      # cjpeg_wrbmp.c:141:10
.Ltmp62:
	leaq	136(%rbx), %rdi
	movl	$5, %esi
	movl	$4, %edx
	callq	_KLoad0
	movl	136(%rbx), %ebx
.Ltmp63:
	#DEBUG_VALUE: cjpeg_wrbmp_write_colormap:i <- 0
	movl	$10, %edi
	movl	$5, %esi
	movl	$1, %edx
	movl	$3, %ecx
	movl	$2, %r8d
	callq	_KTimestamp2
	callq	_KPopCDep
	movl	$10, %edi
	callq	_KPushCDep
	movl	$1, %edi
	callq	_KWork
	testl	%r15d, %r15d
	cmovnsl	%r15d, %r12d
	cmpl	$3, %ebx
	jne	.LBB3_2
# BB#8:                                 # %for.cond.preheader
	#DEBUG_VALUE: cjpeg_wrbmp_write_colormap:map_colors <- [RBP+-44]
	#DEBUG_VALUE: cjpeg_wrbmp_write_colormap:map_entry_size <- [RBP+-48]
	#DEBUG_VALUE: cjpeg_wrbmp_write_colormap:i <- 0
	movabsq	$-8774444797407971176, %rbx # imm = 0x863AE8F21D393898
	movl	$0, (%rsp)
	movl	$9, %edi
	movl	$5, %esi
	movl	$1, %edx
	movl	$3, %ecx
	movl	$2, %r8d
	movl	$4, %r9d
	callq	_KTimestamp3
	movl	$12, %edi
	callq	_KInduction
	callq	_KPopCDep
	movl	$1, %esi
	movq	%rbx, %rdi
	callq	_KEnterRegion
	movl	$10, %edi
	callq	_KPushCDep
	movl	$1, %edi
	callq	_KWork
	movl	$1, (%rsp)
	movl	$11, %edi
	movl	$10, %esi
	movl	$1, %edx
	movl	$12, %ecx
	movl	$1, %r8d
	movl	$9, %r9d
	callq	_KTimestamp3
	callq	_KPopCDep
	.loc	1 144 7                 # cjpeg_wrbmp.c:144:7
.Ltmp64:
	testl	%r15d, %r15d
	jle	.LBB3_12
# BB#9:                                 # %for.body.lr.ph
	#DEBUG_VALUE: cjpeg_wrbmp_write_colormap:map_colors <- [RBP+-44]
	#DEBUG_VALUE: cjpeg_wrbmp_write_colormap:map_entry_size <- [RBP+-48]
	#DEBUG_VALUE: cjpeg_wrbmp_write_colormap:i <- 0
	movabsq	$4959751326450992252, %r14 # imm = 0x44D4938DB362447C
	.loc	1 152 14                # cjpeg_wrbmp.c:152:14
.Ltmp65:
	cmpl	$4, -48(%rbp)           # 4-byte Folded Reload
	jne	.LBB3_10
.Ltmp66:
# BB#14:                                # %for.inc.us.preheader
	#DEBUG_VALUE: cjpeg_wrbmp_write_colormap:map_colors <- [RBP+-44]
	#DEBUG_VALUE: cjpeg_wrbmp_write_colormap:map_entry_size <- [RBP+-48]
	#DEBUG_VALUE: cjpeg_wrbmp_write_colormap:i <- 0
	movl	$cjpeg_wrbmp_colormap+512, %ebx
	.align	16, 0x90
.LBB3_15:                               # %for.inc.us
                                        # =>This Inner Loop Header: Depth=1
	#DEBUG_VALUE: cjpeg_wrbmp_write_colormap:map_colors <- [RBP+-44]
	#DEBUG_VALUE: cjpeg_wrbmp_write_colormap:map_entry_size <- [RBP+-48]
	#DEBUG_VALUE: cjpeg_wrbmp_write_colormap:i <- 0
	movl	$2, %esi
	movq	%r14, %rdi
	callq	_KEnterRegion
	movl	$11, %edi
	callq	_KPushCDep
	movl	$13, %edi
	callq	_KWork
	movl	$6, %esi
	movl	$1, %edx
	movq	%rbx, %rdi
	callq	_KLoad0
	.loc	1 145 36                # cjpeg_wrbmp.c:145:36
	movzbl	(%rbx), %r13d
	xorl	%esi, %esi
	movabsq	$1949153160088916981, %rdi # imm = 0x1B0CC878D7EE13F5
	callq	_KPrepCall
	movl	$8, %edi
	movl	$11, %esi
	xorl	%edx, %edx
	movl	$6, %ecx
	xorl	%r8d, %r8d
	callq	_KTimestamp2
	movl	$8, %edi
	callq	_KEnqArg
	movl	$7, %edi
	callq	_KLinkReturn
	.loc	1 145 9 is_stmt 0       # cjpeg_wrbmp.c:145:9
	movl	%r13d, %edi
	callq	cjpeg_wrbmp_putc_modified
	leaq	-256(%rbx), %rdi
	movl	$13, %esi
	movl	$1, %edx
	callq	_KLoad0
	.loc	1 147 36 is_stmt 1      # cjpeg_wrbmp.c:147:36
	movzbl	-256(%rbx), %r13d
	xorl	%esi, %esi
	movabsq	$4530348185234655241, %rdi # imm = 0x3EDF07ABF1BF4809
	callq	_KPrepCall
	movl	$15, %edi
	movl	$13, %esi
	xorl	%edx, %edx
	movl	$11, %ecx
	xorl	%r8d, %r8d
	callq	_KTimestamp2
	movl	$15, %edi
	callq	_KEnqArg
	movl	$14, %edi
	callq	_KLinkReturn
	.loc	1 147 9 is_stmt 0       # cjpeg_wrbmp.c:147:9
	movl	%r13d, %edi
	callq	cjpeg_wrbmp_putc_modified
	leaq	-512(%rbx), %rdi
	movl	$16, %esi
	movl	$1, %edx
	callq	_KLoad0
	.loc	1 149 36 is_stmt 1      # cjpeg_wrbmp.c:149:36
	movzbl	-512(%rbx), %r13d
	xorl	%esi, %esi
	movabsq	$-2852269799271538698, %rdi # imm = 0xD86AB3BAC2D85FF6
	callq	_KPrepCall
	movl	$18, %edi
	movl	$16, %esi
	xorl	%edx, %edx
	movl	$11, %ecx
	xorl	%r8d, %r8d
	callq	_KTimestamp2
	movl	$18, %edi
	callq	_KEnqArg
	movl	$17, %edi
	callq	_KLinkReturn
	.loc	1 149 9 is_stmt 0       # cjpeg_wrbmp.c:149:9
	movl	%r13d, %edi
	callq	cjpeg_wrbmp_putc_modified
	movl	$49, %edi
	movl	$2, %esi
	movl	$1, %edx
	movl	$11, %ecx
	movl	$1, %r8d
	callq	_KTimestamp2
	callq	_KPopCDep
	movl	$49, %edi
	callq	_KPushCDep
	xorl	%esi, %esi
	movabsq	$-2834319804515602150, %rdi # imm = 0xD8AA792797FE311A
	callq	_KPrepCall
	callq	_KEnqArgConst
	movl	$19, %edi
	callq	_KLinkReturn
	xorl	%edi, %edi
	.loc	1 153 11 is_stmt 1      # cjpeg_wrbmp.c:153:11
.Ltmp67:
	callq	cjpeg_wrbmp_putc_modified
	callq	_KPopCDep
	movl	$11, %edi
	callq	_KPushCDep
	callq	_KPopCDep
	movl	$2, %esi
	movq	%r14, %rdi
	callq	_KExitRegion
	movl	$10, %edi
	callq	_KPushCDep
	movl	$1, %edi
	callq	_KWork
	movl	$1, (%rsp)
	movl	$11, %edi
	movl	$10, %esi
	movl	$1, %edx
	movl	$12, %ecx
	movl	$1, %r8d
	movl	$9, %r9d
	callq	_KTimestamp3
	callq	_KPopCDep
.Ltmp68:
	.loc	1 144 7                 # cjpeg_wrbmp.c:144:7
	incq	%rbx
	decq	%r15
	jne	.LBB3_15
	jmp	.LBB3_12
.Ltmp69:
.LBB3_16:                               # %if.else41
	#DEBUG_VALUE: cjpeg_wrbmp_write_colormap:map_colors <- [RBP+-44]
	#DEBUG_VALUE: cjpeg_wrbmp_write_colormap:map_entry_size <- R13D
	movabsq	$-3808801084578697261, %r15 # imm = 0xCB246B97ED906FD3
	movabsq	$4657277210241359796, %rbx # imm = 0x40A1F8F288F55FB4
	movabsq	$4027426615409921748, %r14 # imm = 0x37E44B2B22764ED4
	#DEBUG_VALUE: cjpeg_wrbmp_write_colormap:i <- 0
	movl	$34, %edi
	callq	_KInduction
	callq	_KPopCDep
	movl	$1, %esi
	movabsq	$-638509147008504218, %rdi # imm = 0xF7238F5052B86E66
	callq	_KEnterRegion
	cmpl	$4, %r13d
	jne	.LBB3_23
	jmp	.LBB3_17
.Ltmp70:
	.align	16, 0x90
.LBB3_18:                               # %for.inc54.us
                                        #   in Loop: Header=BB3_17 Depth=1
	#DEBUG_VALUE: cjpeg_wrbmp_write_colormap:map_colors <- [RBP+-44]
	#DEBUG_VALUE: cjpeg_wrbmp_write_colormap:map_entry_size <- R13D
	#DEBUG_VALUE: cjpeg_wrbmp_write_colormap:i <- 0
	movl	$2, %esi
	movq	%r15, %rdi
	callq	_KEnterRegion
	movl	$51, %edi
	callq	_KPushCDep
	xorl	%esi, %esi
	movq	%rbx, %rdi
	callq	_KPrepCall
	movl	$34, %edi
	callq	_KEnqArg
	movl	$33, %edi
	callq	_KLinkReturn
	movl	$1, %edi
	callq	_KWork
	.loc	1 175 7                 # cjpeg_wrbmp.c:175:7
.Ltmp71:
	movl	%r12d, %edi
	callq	cjpeg_wrbmp_putc_modified
	xorl	%esi, %esi
	movabsq	$-5873533265948999887, %rdi # imm = 0xAE7D049D2AAB7F31
	callq	_KPrepCall
	movl	$34, %edi
	callq	_KEnqArg
	movl	$35, %edi
	callq	_KLinkReturn
	.loc	1 176 7                 # cjpeg_wrbmp.c:176:7
	movl	%r12d, %edi
	callq	cjpeg_wrbmp_putc_modified
	xorl	%esi, %esi
	movq	%r14, %rdi
	callq	_KPrepCall
	movl	$34, %edi
	callq	_KEnqArg
	movl	$36, %edi
	callq	_KLinkReturn
	.loc	1 177 7                 # cjpeg_wrbmp.c:177:7
	movl	%r12d, %edi
	callq	cjpeg_wrbmp_putc_modified
	movl	$52, %edi
	movl	$2, %esi
	movl	$1, %edx
	movl	$51, %ecx
	movl	$1, %r8d
	callq	_KTimestamp2
	callq	_KPopCDep
	movl	$52, %edi
	callq	_KPushCDep
	xorl	%esi, %esi
	movabsq	$7529616663067171371, %rdi # imm = 0x687E927620FB1A2B
	callq	_KPrepCall
	callq	_KEnqArgConst
	movl	$37, %edi
	callq	_KLinkReturn
	xorl	%edi, %edi
	.loc	1 180 9                 # cjpeg_wrbmp.c:180:9
.Ltmp72:
	callq	cjpeg_wrbmp_putc_modified
	callq	_KPopCDep
	movl	$51, %edi
	callq	_KPushCDep
.Ltmp73:
	.loc	1 174 27                # cjpeg_wrbmp.c:174:27
	incl	%r12d
.Ltmp74:
	#DEBUG_VALUE: cjpeg_wrbmp_write_colormap:i <- R12D
	callq	_KPopCDep
	movl	$2, %esi
	movq	%r15, %rdi
	callq	_KExitRegion
.Ltmp75:
.LBB3_17:                               # %for.cond42.us
                                        # =>This Inner Loop Header: Depth=1
	#DEBUG_VALUE: cjpeg_wrbmp_write_colormap:map_colors <- [RBP+-44]
	#DEBUG_VALUE: cjpeg_wrbmp_write_colormap:map_entry_size <- R13D
	#DEBUG_VALUE: cjpeg_wrbmp_write_colormap:i <- 0
	movl	$45, %edi
	callq	_KPushCDep
	movl	$1, %edi
	callq	_KWork
	movl	$34, %edi
	movl	$34, %esi
	xorl	%edx, %edx
	callq	_KTimestamp1
	callq	_KPopCDep
	movl	$51, %edi
	movl	$45, %esi
	movl	$1, %edx
	movl	$34, %ecx
	movl	$1, %r8d
	callq	_KTimestamp2
	.loc	1 174 5 is_stmt 0       # cjpeg_wrbmp.c:174:5
	cmpl	$256, %r12d             # imm = 0x100
	jne	.LBB3_18
	jmp	.LBB3_24
.Ltmp76:
	.align	16, 0x90
.LBB3_22:                               # %for.inc54
                                        #   in Loop: Header=BB3_23 Depth=1
	#DEBUG_VALUE: cjpeg_wrbmp_write_colormap:map_colors <- [RBP+-44]
	#DEBUG_VALUE: cjpeg_wrbmp_write_colormap:map_entry_size <- R13D
	#DEBUG_VALUE: cjpeg_wrbmp_write_colormap:i <- 0
	movl	$2, %esi
	movq	%r15, %rdi
	callq	_KEnterRegion
	movl	$51, %edi
	callq	_KPushCDep
	xorl	%esi, %esi
	movq	%rbx, %rdi
	callq	_KPrepCall
	movl	$34, %edi
	callq	_KEnqArg
	movl	$33, %edi
	callq	_KLinkReturn
	movl	$1, %edi
	callq	_KWork
	.loc	1 175 7 is_stmt 1       # cjpeg_wrbmp.c:175:7
.Ltmp77:
	movl	%r12d, %edi
	callq	cjpeg_wrbmp_putc_modified
	xorl	%esi, %esi
	movabsq	$-5873533265948999887, %rdi # imm = 0xAE7D049D2AAB7F31
	callq	_KPrepCall
	movl	$34, %edi
	callq	_KEnqArg
	movl	$35, %edi
	callq	_KLinkReturn
	.loc	1 176 7                 # cjpeg_wrbmp.c:176:7
	movl	%r12d, %edi
	callq	cjpeg_wrbmp_putc_modified
	xorl	%esi, %esi
	movq	%r14, %rdi
	callq	_KPrepCall
	movl	$34, %edi
	callq	_KEnqArg
	movl	$36, %edi
	callq	_KLinkReturn
	.loc	1 177 7                 # cjpeg_wrbmp.c:177:7
	movl	%r12d, %edi
	callq	cjpeg_wrbmp_putc_modified
	movl	$52, %edi
	movl	$2, %esi
	movl	$1, %edx
	movl	$51, %ecx
	movl	$1, %r8d
	callq	_KTimestamp2
	callq	_KPopCDep
	movl	$51, %edi
	callq	_KPushCDep
.Ltmp78:
	.loc	1 174 27                # cjpeg_wrbmp.c:174:27
	incl	%r12d
.Ltmp79:
	#DEBUG_VALUE: cjpeg_wrbmp_write_colormap:i <- R12D
	callq	_KPopCDep
	movl	$2, %esi
	movq	%r15, %rdi
	callq	_KExitRegion
.Ltmp80:
.LBB3_23:                               # %for.cond42
                                        # =>This Inner Loop Header: Depth=1
	#DEBUG_VALUE: cjpeg_wrbmp_write_colormap:map_colors <- [RBP+-44]
	#DEBUG_VALUE: cjpeg_wrbmp_write_colormap:map_entry_size <- R13D
	#DEBUG_VALUE: cjpeg_wrbmp_write_colormap:i <- 0
	movl	$45, %edi
	callq	_KPushCDep
	movl	$1, %edi
	callq	_KWork
	movl	$34, %edi
	movl	$34, %esi
	xorl	%edx, %edx
	callq	_KTimestamp1
	callq	_KPopCDep
	movl	$51, %edi
	movl	$45, %esi
	movl	$1, %edx
	movl	$34, %ecx
	movl	$1, %r8d
	callq	_KTimestamp2
	.loc	1 174 5 is_stmt 0       # cjpeg_wrbmp.c:174:5
	cmpl	$256, %r12d             # imm = 0x100
	jne	.LBB3_22
.Ltmp81:
.LBB3_24:                               # %for.cond42.pre_exit.for.cond58.preheader.loopexit2
	#DEBUG_VALUE: cjpeg_wrbmp_write_colormap:map_colors <- [RBP+-44]
	#DEBUG_VALUE: cjpeg_wrbmp_write_colormap:map_entry_size <- R13D
	#DEBUG_VALUE: cjpeg_wrbmp_write_colormap:i <- 0
	movl	$1, %esi
	movabsq	$-638509147008504218, %rdi # imm = 0xF7238F5052B86E66
	callq	_KExitRegion
	movl	$45, %edi
	callq	_KPushCDep
	callq	_KPopCDep
	movl	$256, %r12d             # imm = 0x100
	xorl	%r15d, %r15d
	movl	$0, -52(%rbp)           # 4-byte Folded Spill
	movl	%r13d, -48(%rbp)        # 4-byte Spill
.Ltmp82:
	#DEBUG_VALUE: cjpeg_wrbmp_write_colormap:map_entry_size <- [RBP+-48]
	jmp	.LBB3_25
.LBB3_2:                                # %for.cond16.preheader
	#DEBUG_VALUE: cjpeg_wrbmp_write_colormap:map_colors <- [RBP+-44]
	#DEBUG_VALUE: cjpeg_wrbmp_write_colormap:map_entry_size <- [RBP+-48]
	#DEBUG_VALUE: cjpeg_wrbmp_write_colormap:i <- 0
	movabsq	$-5102616045454475530, %rbx # imm = 0xB92FDDBDD17A3EF6
	movl	$0, (%rsp)
	movl	$23, %edi
	movl	$5, %esi
	movl	$1, %edx
	movl	$3, %ecx
	movl	$2, %r8d
	movl	$4, %r9d
	callq	_KTimestamp3
	movl	$25, %edi
	callq	_KInduction
	callq	_KPopCDep
	movl	$1, %esi
	movq	%rbx, %rdi
	callq	_KEnterRegion
	movl	$10, %edi
	callq	_KPushCDep
	movl	$1, %edi
	callq	_KWork
	movl	$1, (%rsp)
	movl	$24, %edi
	movl	$10, %esi
	movl	$1, %edx
	movl	$23, %ecx
	movl	$1, %r8d
	movl	$25, %r9d
	callq	_KTimestamp3
	callq	_KPopCDep
	.loc	1 158 7 is_stmt 1       # cjpeg_wrbmp.c:158:7
.Ltmp83:
	testl	%r15d, %r15d
	jle	.LBB3_7
# BB#3:                                 # %for.body19.lr.ph
	#DEBUG_VALUE: cjpeg_wrbmp_write_colormap:map_colors <- [RBP+-44]
	#DEBUG_VALUE: cjpeg_wrbmp_write_colormap:map_entry_size <- [RBP+-48]
	#DEBUG_VALUE: cjpeg_wrbmp_write_colormap:i <- 0
	movabsq	$6851770800111399126, %r13 # imm = 0x5F16613D8F08B0D6
	movl	$cjpeg_wrbmp_colormap+512, %ebx
	.align	16, 0x90
.LBB3_4:                                # %for.body19
                                        # =>This Inner Loop Header: Depth=1
	#DEBUG_VALUE: cjpeg_wrbmp_write_colormap:map_colors <- [RBP+-44]
	#DEBUG_VALUE: cjpeg_wrbmp_write_colormap:map_entry_size <- [RBP+-48]
	#DEBUG_VALUE: cjpeg_wrbmp_write_colormap:i <- 0
	movl	$2, %esi
	movq	%r13, %rdi
	callq	_KEnterRegion
	movl	$24, %edi
	callq	_KPushCDep
	movl	$13, %edi
	callq	_KWork
	movl	$20, %esi
	movl	$1, %edx
	movq	%rbx, %rdi
	callq	_KLoad0
	.loc	1 160 36                # cjpeg_wrbmp.c:160:36
.Ltmp84:
	movzbl	(%rbx), %r14d
	xorl	%esi, %esi
	movabsq	$-2118645758880859004, %rdi # imm = 0xE2990EE84904BC84
	callq	_KPrepCall
	movl	$22, %edi
	movl	$20, %esi
	xorl	%edx, %edx
	movl	$24, %ecx
	xorl	%r8d, %r8d
	callq	_KTimestamp2
	movl	$22, %edi
	callq	_KEnqArg
	movl	$21, %edi
	callq	_KLinkReturn
	.loc	1 160 9 is_stmt 0       # cjpeg_wrbmp.c:160:9
	movl	%r14d, %edi
	callq	cjpeg_wrbmp_putc_modified
	leaq	-256(%rbx), %rdi
	movl	$26, %esi
	movl	$1, %edx
	callq	_KLoad0
	.loc	1 162 36 is_stmt 1      # cjpeg_wrbmp.c:162:36
	movzbl	-256(%rbx), %r14d
	xorl	%esi, %esi
	movabsq	$-8692201397073682444, %rdi # imm = 0x875F18E1F344DFF4
	callq	_KPrepCall
	movl	$28, %edi
	movl	$26, %esi
	xorl	%edx, %edx
	movl	$24, %ecx
	xorl	%r8d, %r8d
	callq	_KTimestamp2
	movl	$28, %edi
	callq	_KEnqArg
	movl	$27, %edi
	callq	_KLinkReturn
	.loc	1 162 9 is_stmt 0       # cjpeg_wrbmp.c:162:9
	movl	%r14d, %edi
	callq	cjpeg_wrbmp_putc_modified
	leaq	-512(%rbx), %rdi
	movl	$29, %esi
	movl	$1, %edx
	callq	_KLoad0
	.loc	1 164 36 is_stmt 1      # cjpeg_wrbmp.c:164:36
	movzbl	-512(%rbx), %r14d
	xorl	%esi, %esi
	movabsq	$1777048944651871472, %rdi # imm = 0x18A95899967524F0
	callq	_KPrepCall
	movl	$31, %edi
	movl	$29, %esi
	xorl	%edx, %edx
	movl	$24, %ecx
	xorl	%r8d, %r8d
	callq	_KTimestamp2
	movl	$31, %edi
	callq	_KEnqArg
	movl	$30, %edi
	callq	_KLinkReturn
	.loc	1 164 9 is_stmt 0       # cjpeg_wrbmp.c:164:9
	movl	%r14d, %edi
	callq	cjpeg_wrbmp_putc_modified
	movl	$50, %edi
	movl	$2, %esi
	movl	$1, %edx
	movl	$24, %ecx
	movl	$1, %r8d
	callq	_KTimestamp2
	callq	_KPopCDep
	.loc	1 167 14 is_stmt 1      # cjpeg_wrbmp.c:167:14
	cmpl	$4, -48(%rbp)           # 4-byte Folded Reload
	jne	.LBB3_6
# BB#5:                                 # %if.then34
                                        #   in Loop: Header=BB3_4 Depth=1
	#DEBUG_VALUE: cjpeg_wrbmp_write_colormap:map_colors <- [RBP+-44]
	#DEBUG_VALUE: cjpeg_wrbmp_write_colormap:map_entry_size <- [RBP+-48]
	#DEBUG_VALUE: cjpeg_wrbmp_write_colormap:i <- 0
	movl	$50, %edi
	callq	_KPushCDep
	xorl	%esi, %esi
	movabsq	$-919505360425614375, %rdi # imm = 0xF33D42BF16C383D9
	callq	_KPrepCall
	callq	_KEnqArgConst
	movl	$32, %edi
	callq	_KLinkReturn
	xorl	%edi, %edi
	.loc	1 168 11                # cjpeg_wrbmp.c:168:11
.Ltmp85:
	callq	cjpeg_wrbmp_putc_modified
	callq	_KPopCDep
.Ltmp86:
.LBB3_6:                                # %for.inc37
                                        #   in Loop: Header=BB3_4 Depth=1
	#DEBUG_VALUE: cjpeg_wrbmp_write_colormap:map_colors <- [RBP+-44]
	#DEBUG_VALUE: cjpeg_wrbmp_write_colormap:map_entry_size <- [RBP+-48]
	#DEBUG_VALUE: cjpeg_wrbmp_write_colormap:i <- 0
	movl	$24, %edi
	callq	_KPushCDep
	callq	_KPopCDep
	movl	$2, %esi
	movq	%r13, %rdi
	callq	_KExitRegion
	movl	$10, %edi
	callq	_KPushCDep
	movl	$1, %edi
	callq	_KWork
	movl	$1, (%rsp)
	movl	$24, %edi
	movl	$10, %esi
	movl	$1, %edx
	movl	$23, %ecx
	movl	$1, %r8d
	movl	$25, %r9d
	callq	_KTimestamp3
	callq	_KPopCDep
	.loc	1 158 7                 # cjpeg_wrbmp.c:158:7
	incq	%rbx
	decq	%r15
	jne	.LBB3_4
.Ltmp87:
.LBB3_7:                                # %for.cond16.pre_exit.for.cond58.preheader.loopexit1
	#DEBUG_VALUE: cjpeg_wrbmp_write_colormap:map_colors <- [RBP+-44]
	#DEBUG_VALUE: cjpeg_wrbmp_write_colormap:map_entry_size <- [RBP+-48]
	#DEBUG_VALUE: cjpeg_wrbmp_write_colormap:i <- 0
	movl	$1, %esi
	movabsq	$-5102616045454475530, %rdi # imm = 0xB92FDDBDD17A3EF6
	callq	_KExitRegion
	movl	$10, %edi
	callq	_KPushCDep
	movl	$1, (%rsp)
	movl	$44, -52(%rbp)          # 4-byte Folded Spill
	movl	$44, %edi
	jmp	.LBB3_13
.LBB3_10:                               # %for.inc.preheader
	#DEBUG_VALUE: cjpeg_wrbmp_write_colormap:map_colors <- [RBP+-44]
	#DEBUG_VALUE: cjpeg_wrbmp_write_colormap:map_entry_size <- [RBP+-48]
	#DEBUG_VALUE: cjpeg_wrbmp_write_colormap:i <- 0
	movl	$cjpeg_wrbmp_colormap+512, %ebx
	.align	16, 0x90
.LBB3_11:                               # %for.inc
                                        # =>This Inner Loop Header: Depth=1
	#DEBUG_VALUE: cjpeg_wrbmp_write_colormap:map_colors <- [RBP+-44]
	#DEBUG_VALUE: cjpeg_wrbmp_write_colormap:map_entry_size <- [RBP+-48]
	#DEBUG_VALUE: cjpeg_wrbmp_write_colormap:i <- 0
	movl	$2, %esi
	movq	%r14, %rdi
	callq	_KEnterRegion
	movl	$11, %edi
	callq	_KPushCDep
	movl	$13, %edi
	callq	_KWork
	movl	$6, %esi
	movl	$1, %edx
	movq	%rbx, %rdi
	callq	_KLoad0
	.loc	1 145 36                # cjpeg_wrbmp.c:145:36
.Ltmp88:
	movzbl	(%rbx), %r13d
	xorl	%esi, %esi
	movabsq	$1949153160088916981, %rdi # imm = 0x1B0CC878D7EE13F5
	callq	_KPrepCall
	movl	$8, %edi
	movl	$11, %esi
	xorl	%edx, %edx
	movl	$6, %ecx
	xorl	%r8d, %r8d
	callq	_KTimestamp2
	movl	$8, %edi
	callq	_KEnqArg
	movl	$7, %edi
	callq	_KLinkReturn
	.loc	1 145 9 is_stmt 0       # cjpeg_wrbmp.c:145:9
	movl	%r13d, %edi
	callq	cjpeg_wrbmp_putc_modified
	leaq	-256(%rbx), %rdi
	movl	$13, %esi
	movl	$1, %edx
	callq	_KLoad0
	.loc	1 147 36 is_stmt 1      # cjpeg_wrbmp.c:147:36
	movzbl	-256(%rbx), %r13d
	xorl	%esi, %esi
	movabsq	$4530348185234655241, %rdi # imm = 0x3EDF07ABF1BF4809
	callq	_KPrepCall
	movl	$15, %edi
	movl	$13, %esi
	xorl	%edx, %edx
	movl	$11, %ecx
	xorl	%r8d, %r8d
	callq	_KTimestamp2
	movl	$15, %edi
	callq	_KEnqArg
	movl	$14, %edi
	callq	_KLinkReturn
	.loc	1 147 9 is_stmt 0       # cjpeg_wrbmp.c:147:9
	movl	%r13d, %edi
	callq	cjpeg_wrbmp_putc_modified
	leaq	-512(%rbx), %rdi
	movl	$16, %esi
	movl	$1, %edx
	callq	_KLoad0
	.loc	1 149 36 is_stmt 1      # cjpeg_wrbmp.c:149:36
	movzbl	-512(%rbx), %r13d
	xorl	%esi, %esi
	movabsq	$-2852269799271538698, %rdi # imm = 0xD86AB3BAC2D85FF6
	callq	_KPrepCall
	movl	$18, %edi
	movl	$16, %esi
	xorl	%edx, %edx
	movl	$11, %ecx
	xorl	%r8d, %r8d
	callq	_KTimestamp2
	movl	$18, %edi
	callq	_KEnqArg
	movl	$17, %edi
	callq	_KLinkReturn
	.loc	1 149 9 is_stmt 0       # cjpeg_wrbmp.c:149:9
	movl	%r13d, %edi
	callq	cjpeg_wrbmp_putc_modified
	movl	$49, %edi
	movl	$2, %esi
	movl	$1, %edx
	movl	$11, %ecx
	movl	$1, %r8d
	callq	_KTimestamp2
	callq	_KPopCDep
	movl	$11, %edi
	callq	_KPushCDep
	callq	_KPopCDep
	movl	$2, %esi
	movq	%r14, %rdi
	callq	_KExitRegion
	movl	$10, %edi
	callq	_KPushCDep
	movl	$1, %edi
	callq	_KWork
	movl	$1, (%rsp)
	movl	$11, %edi
	movl	$10, %esi
	movl	$1, %edx
	movl	$12, %ecx
	movl	$1, %r8d
	movl	$9, %r9d
	callq	_KTimestamp3
	callq	_KPopCDep
.Ltmp89:
	.loc	1 144 7 is_stmt 1       # cjpeg_wrbmp.c:144:7
	incq	%rbx
	decq	%r15
	jne	.LBB3_11
.Ltmp90:
.LBB3_12:                               # %for.cond.pre_exit.for.cond58.preheader.loopexit
	#DEBUG_VALUE: cjpeg_wrbmp_write_colormap:map_colors <- [RBP+-44]
	#DEBUG_VALUE: cjpeg_wrbmp_write_colormap:map_entry_size <- [RBP+-48]
	#DEBUG_VALUE: cjpeg_wrbmp_write_colormap:i <- 0
	movl	$1, %esi
	movabsq	$-8774444797407971176, %rdi # imm = 0x863AE8F21D393898
	callq	_KExitRegion
	movl	$10, %edi
	callq	_KPushCDep
	movl	$1, (%rsp)
	movl	$43, -52(%rbp)          # 4-byte Folded Spill
	movl	$43, %edi
.LBB3_13:                               # %for.cond58.preheader
	movl	$5, %esi
	movl	$2, %edx
	movl	$3, %ecx
	movl	$3, %r8d
	movl	$4, %r9d
	callq	_KTimestamp3
	callq	_KPopCDep
	movl	$10, %r15d
.LBB3_25:                               # %for.cond58.preheader
	#DEBUG_VALUE: cjpeg_wrbmp_write_colormap:map_colors <- [RBP+-44]
	#DEBUG_VALUE: cjpeg_wrbmp_write_colormap:map_entry_size <- [RBP+-48]
	movabsq	$-9210891599107373320, %r14 # imm = 0x802C56E45A9346F8
	movl	$42, %ebx
	xorl	%r13d, %r13d
	movl	$42, %edi
	movl	$42, %esi
	xorl	%edx, %edx
	callq	_KTimestamp1
	movl	$42, %edi
	movl	$45, %edx
	movl	-52(%rbp), %esi         # 4-byte Reload
	movl	%r15d, %ecx
	callq	_KPhi2To1
	movl	$1, %esi
	movabsq	$-3183852112095142593, %rdi # imm = 0xD3D0AF5F71311D3F
	callq	_KEnterRegion
	.loc	1 191 10                # cjpeg_wrbmp.c:191:10
.Ltmp91:
	cmpl	$4, -48(%rbp)           # 4-byte Folded Reload
	jne	.LBB3_26
.Ltmp92:
# BB#19:                                # %for.cond58.us.preheader
	#DEBUG_VALUE: cjpeg_wrbmp_write_colormap:map_colors <- [RBP+-44]
	decl	%r12d
	movl	$42, %r15d
	xorl	%r13d, %r13d
	movabsq	$-7991332714867215558, %rbx # imm = 0x9119153C5861B33A
	jmp	.LBB3_20
	.align	16, 0x90
.LBB3_21:                               # %for.inc70.us
                                        #   in Loop: Header=BB3_20 Depth=1
.Ltmp93:
	#DEBUG_VALUE: cjpeg_wrbmp_write_colormap:map_colors <- EAX
	#DEBUG_VALUE: cjpeg_wrbmp_write_colormap:map_colors <- [RBP+-44]
	movl	$2, %esi
	movq	%r14, %rdi
	callq	_KEnterRegion
	movl	$48, %r13d
	movl	$48, %edi
	callq	_KPushCDep
	xorl	%esi, %esi
	movabsq	$-83159820118323108, %rdi # imm = 0xFED88E958E43105C
	callq	_KPrepCall
	callq	_KEnqArgConst
	movl	$38, %edi
	callq	_KLinkReturn
	movl	$1, %edi
	callq	_KWork
	xorl	%edi, %edi
	.loc	1 187 5                 # cjpeg_wrbmp.c:187:5
	callq	cjpeg_wrbmp_putc_modified
	xorl	%esi, %esi
	movabsq	$-5100820013802991434, %rdi # imm = 0xB9363F390611D0B6
	callq	_KPrepCall
	callq	_KEnqArgConst
	movl	$39, %edi
	callq	_KLinkReturn
	xorl	%edi, %edi
	.loc	1 188 5                 # cjpeg_wrbmp.c:188:5
	callq	cjpeg_wrbmp_putc_modified
	xorl	%esi, %esi
	movabsq	$-2246474610227207084, %rdi # imm = 0xE0D2EB3E8C792454
	callq	_KPrepCall
	callq	_KEnqArgConst
	movl	$40, %edi
	callq	_KLinkReturn
	xorl	%edi, %edi
	.loc	1 189 5                 # cjpeg_wrbmp.c:189:5
	callq	cjpeg_wrbmp_putc_modified
	callq	_KPopCDep
	movl	$53, %edi
	movl	$2, %esi
	movl	$1, %edx
	movl	$48, %ecx
	movl	$1, %r8d
	callq	_KTimestamp2
	movl	$53, %edi
	callq	_KPushCDep
	xorl	%esi, %esi
	movq	%rbx, %rdi
	callq	_KPrepCall
	callq	_KEnqArgConst
	movl	$41, %edi
	callq	_KLinkReturn
	xorl	%edi, %edi
	.loc	1 192 7                 # cjpeg_wrbmp.c:192:7
.Ltmp94:
	callq	cjpeg_wrbmp_putc_modified
	callq	_KPopCDep
	movl	$48, %edi
	callq	_KPushCDep
	movl	$1, %edi
	callq	_KWork
	movl	$47, %r15d
	movl	$47, %edi
	movl	$46, %esi
	movl	$1, %edx
	movl	$48, %ecx
	movl	$1, %r8d
	callq	_KTimestamp2
	callq	_KPopCDep
	movl	$2, %esi
	movq	%r14, %rdi
	callq	_KExitRegion
.Ltmp95:
.LBB3_20:                               # %for.cond58.us
                                        # =>This Inner Loop Header: Depth=1
	#DEBUG_VALUE: cjpeg_wrbmp_write_colormap:map_colors <- [RBP+-44]
	movl	$46, %edi
	movl	%r15d, %esi
	movl	%r13d, %edx
	callq	_KPhi1To1
	movl	$1, %edi
	callq	_KWork
	movl	$48, %edi
	movl	$1, %esi
	movl	$1, %edx
	movl	$46, %ecx
	movl	$1, %r8d
	callq	_KTimestamp2
	movl	$46, %edi
	movl	$48, %esi
	callq	_KPhiAddCond
	movl	$46, %edi
	movl	$46, %esi
	xorl	%edx, %edx
	callq	_KTimestamp1
	.loc	1 186 11                # cjpeg_wrbmp.c:186:11
	incl	%r12d
	movl	-44(%rbp), %eax         # 4-byte Reload
.Ltmp96:
	#DEBUG_VALUE: cjpeg_wrbmp_write_colormap:map_colors <- EAX
	.loc	1 186 3 is_stmt 0       # cjpeg_wrbmp.c:186:3
	cmpl	%eax, %r12d
	jl	.LBB3_21
	jmp	.LBB3_29
.Ltmp97:
.LBB3_26:                               # %for.cond58.preheader12
	#DEBUG_VALUE: cjpeg_wrbmp_write_colormap:map_colors <- [RBP+-44]
	decl	%r12d
	movl	-44(%rbp), %r15d        # 4-byte Reload
.Ltmp98:
	#DEBUG_VALUE: cjpeg_wrbmp_write_colormap:map_colors <- R15D
	jmp	.LBB3_27
.Ltmp99:
	.align	16, 0x90
.LBB3_28:                               # %for.inc70
                                        #   in Loop: Header=BB3_27 Depth=1
	#DEBUG_VALUE: cjpeg_wrbmp_write_colormap:map_colors <- R15D
	movl	$2, %esi
	movq	%r14, %rdi
	callq	_KEnterRegion
	movl	$48, %r13d
	movl	$48, %edi
	callq	_KPushCDep
	xorl	%esi, %esi
	movabsq	$-83159820118323108, %rdi # imm = 0xFED88E958E43105C
	callq	_KPrepCall
	callq	_KEnqArgConst
	movl	$38, %edi
	callq	_KLinkReturn
	movl	$1, %edi
	callq	_KWork
	xorl	%edi, %edi
	.loc	1 187 5 is_stmt 1       # cjpeg_wrbmp.c:187:5
.Ltmp100:
	callq	cjpeg_wrbmp_putc_modified
	xorl	%esi, %esi
	movabsq	$-5100820013802991434, %rdi # imm = 0xB9363F390611D0B6
	callq	_KPrepCall
	callq	_KEnqArgConst
	movl	$39, %edi
	callq	_KLinkReturn
	xorl	%edi, %edi
	.loc	1 188 5                 # cjpeg_wrbmp.c:188:5
	callq	cjpeg_wrbmp_putc_modified
	xorl	%esi, %esi
	movabsq	$-2246474610227207084, %rdi # imm = 0xE0D2EB3E8C792454
	callq	_KPrepCall
	callq	_KEnqArgConst
	movl	$40, %edi
	callq	_KLinkReturn
	xorl	%edi, %edi
	.loc	1 189 5                 # cjpeg_wrbmp.c:189:5
	callq	cjpeg_wrbmp_putc_modified
	callq	_KPopCDep
	movl	$53, %edi
	movl	$2, %esi
	movl	$1, %edx
	movl	$48, %ecx
	movl	$1, %r8d
	callq	_KTimestamp2
	movl	$48, %edi
	callq	_KPushCDep
	movl	$1, %edi
	callq	_KWork
	movl	$47, %ebx
	movl	$47, %edi
	movl	$46, %esi
	movl	$1, %edx
	movl	$48, %ecx
	movl	$1, %r8d
	callq	_KTimestamp2
	callq	_KPopCDep
	movl	$2, %esi
	movq	%r14, %rdi
	callq	_KExitRegion
.Ltmp101:
.LBB3_27:                               # %for.cond58
                                        # =>This Inner Loop Header: Depth=1
	#DEBUG_VALUE: cjpeg_wrbmp_write_colormap:map_colors <- R15D
	movl	$46, %edi
	movl	%ebx, %esi
	movl	%r13d, %edx
	callq	_KPhi1To1
	movl	$1, %edi
	callq	_KWork
	movl	$48, %edi
	movl	$1, %esi
	movl	$1, %edx
	movl	$46, %ecx
	movl	$1, %r8d
	callq	_KTimestamp2
	movl	$46, %edi
	movl	$48, %esi
	callq	_KPhiAddCond
	movl	$46, %edi
	movl	$46, %esi
	xorl	%edx, %edx
	callq	_KTimestamp1
	.loc	1 186 11                # cjpeg_wrbmp.c:186:11
	incl	%r12d
.Ltmp102:
	.loc	1 186 3 is_stmt 0       # cjpeg_wrbmp.c:186:3
	cmpl	%r15d, %r12d
	jl	.LBB3_28
.Ltmp103:
.LBB3_29:                               # %for.cond58.pre_exit.for.end72
	movl	$1, %esi
	movabsq	$-3183852112095142593, %rdi # imm = 0xD3D0AF5F71311D3F
	callq	_KExitRegion
	xorl	%esi, %esi
	movabsq	$-2934188520441196709, %rdi # imm = 0xD747AB162F12CF5B
	addq	$40, %rsp
	popq	%rbx
	popq	%r12
	popq	%r13
	popq	%r14
	popq	%r15
	popq	%rbp
	jmp	_KExitRegion            # TAILCALL
.Ltmp104:
	.size	cjpeg_wrbmp_write_colormap, .Ltmp104-cjpeg_wrbmp_write_colormap
.Lfunc_end3:
	.cfi_endproc

	.globl	cjpeg_wrbmp_main
	.align	16, 0x90
	.type	cjpeg_wrbmp_main,@function
cjpeg_wrbmp_main:                       # @cjpeg_wrbmp_main
.Lfunc_begin4:
	.loc	1 197 0 is_stmt 1       # cjpeg_wrbmp.c:197:0
	.cfi_startproc
# BB#0:                                 # %entry
	pushq	%rbp
.Ltmp105:
	.cfi_def_cfa_offset 16
.Ltmp106:
	.cfi_offset %rbp, -16
	movq	%rsp, %rbp
.Ltmp107:
	.cfi_def_cfa_register %rbp
	pushq	%rbx
	pushq	%rax
.Ltmp108:
	.cfi_offset %rbx, -24
	movabsq	$2197855866139260160, %rbx # imm = 0x1E805A43F8BD3500
	xorl	%esi, %esi
	movq	%rbx, %rdi
	callq	_KEnterRegion
	movl	$1, %edi
	xorl	%esi, %esi
	callq	_KPrepRTable
	movabsq	$-7387099374989347855, %rdi # imm = 0x997BC041C93FF3F1
	xorl	%esi, %esi
	callq	_KPrepCall
	.loc	1 198 3 prologue_end    # cjpeg_wrbmp.c:198:3
.Ltmp109:
	movl	$cjpeg_wrbmp_jpeg_dec_1, %edi
	callq	cjpeg_wrbmp_finish_output_bmp
	movabsq	$4734728883979690246, %rdi # imm = 0x41B522D595642106
	xorl	%esi, %esi
	callq	_KPrepCall
	callq	_KEnqArgConst
	callq	_KEnqArgConst
	callq	_KEnqArgConst
	movl	$cjpeg_wrbmp_jpeg_dec_1, %edi
	movl	$768, %esi              # imm = 0x300
	movl	$4, %edx
	movl	$1, %ecx
	.loc	1 199 3                 # cjpeg_wrbmp.c:199:3
	callq	cjpeg_wrbmp_write_colormap
	movabsq	$7747020787392778674, %rdi # imm = 0x6B82F25C541D11B2
	xorl	%esi, %esi
	callq	_KPrepCall
	.loc	1 201 3                 # cjpeg_wrbmp.c:201:3
	movl	$cjpeg_wrbmp_jpeg_dec_2, %edi
	callq	cjpeg_wrbmp_finish_output_bmp
	movabsq	$-896700632298213573, %rdi # imm = 0xF38E47869DFF2F3B
	xorl	%esi, %esi
	callq	_KPrepCall
	callq	_KEnqArgConst
	callq	_KEnqArgConst
	callq	_KEnqArgConst
	movl	$cjpeg_wrbmp_jpeg_dec_2, %edi
	movl	$768, %esi              # imm = 0x300
	movl	$4, %edx
	movl	$1, %ecx
	.loc	1 202 3                 # cjpeg_wrbmp.c:202:3
	callq	cjpeg_wrbmp_write_colormap
	xorl	%esi, %esi
	movq	%rbx, %rdi
	addq	$8, %rsp
	popq	%rbx
	popq	%rbp
	jmp	_KExitRegion            # TAILCALL
.Ltmp110:
.Ltmp111:
	.size	cjpeg_wrbmp_main, .Ltmp111-cjpeg_wrbmp_main
.Lfunc_end4:
	.cfi_endproc

	.globl	cjpeg_wrbmp_return
	.align	16, 0x90
	.type	cjpeg_wrbmp_return,@function
cjpeg_wrbmp_return:                     # @cjpeg_wrbmp_return
.Lfunc_begin5:
	.loc	1 206 0                 # cjpeg_wrbmp.c:206:0
	.cfi_startproc
# BB#0:                                 # %entry
	pushq	%rbp
.Ltmp112:
	.cfi_def_cfa_offset 16
.Ltmp113:
	.cfi_offset %rbp, -16
	movq	%rsp, %rbp
.Ltmp114:
	.cfi_def_cfa_register %rbp
	pushq	%r14
	pushq	%rbx
.Ltmp115:
	.cfi_offset %rbx, -32
.Ltmp116:
	.cfi_offset %r14, -24
	movabsq	$5051357597937205411, %r14 # imm = 0x461A06F8DA8480A3
	xorl	%esi, %esi
	movq	%r14, %rdi
	callq	_KEnterRegion
	movl	$3, %edi
	xorl	%esi, %esi
	callq	_KPrepRTable
	movl	$6, %edi
	callq	_KWork
	movl	$cjpeg_wrbmp_checksum, %edi
	movl	$1, %esi
	movl	$4, %edx
	callq	_KLoad0
	.loc	1 207 9 prologue_end    # cjpeg_wrbmp.c:207:9
.Ltmp117:
	cmpl	$209330, cjpeg_wrbmp_checksum(%rip) # imm = 0x331B2
	setne	%al
	movzbl	%al, %ebx
	movl	$2, %edi
	movl	$1, %esi
	movl	$2, %edx
	callq	_KTimestamp1
	movl	$2, %edi
	callq	_KReturn
	xorl	%esi, %esi
	movq	%r14, %rdi
	callq	_KExitRegion
	.loc	1 207 2 is_stmt 0       # cjpeg_wrbmp.c:207:2
	movl	%ebx, %eax
	popq	%rbx
	popq	%r14
	popq	%rbp
	retq
.Ltmp118:
.Ltmp119:
	.size	cjpeg_wrbmp_return, .Ltmp119-cjpeg_wrbmp_return
.Lfunc_end5:
	.cfi_endproc

	.globl	__main
	.align	16, 0x90
	.type	__main,@function
__main:                                 # @__main
.Lfunc_begin6:
	.loc	1 211 0 is_stmt 1       # cjpeg_wrbmp.c:211:0
	.cfi_startproc
# BB#0:                                 # %entry
	pushq	%rbp
.Ltmp120:
	.cfi_def_cfa_offset 16
.Ltmp121:
	.cfi_offset %rbp, -16
	movq	%rsp, %rbp
.Ltmp122:
	.cfi_def_cfa_register %rbp
	pushq	%r15
	pushq	%r14
	pushq	%rbx
	pushq	%rax
.Ltmp123:
	.cfi_offset %rbx, -40
.Ltmp124:
	.cfi_offset %r14, -32
.Ltmp125:
	.cfi_offset %r15, -24
	callq	_KInit
	movabsq	$-3677947425469889523, %r14 # imm = 0xCCF54E4D9A4E040D
	xorl	%esi, %esi
	movq	%r14, %rdi
	callq	_KEnterRegion
	movl	$2, %edi
	xorl	%esi, %esi
	callq	_KPrepRTable
	movabsq	$7760509885316788831, %rdi # imm = 0x6BB2DE9FAE36F25F
	xorl	%esi, %esi
	callq	_KPrepCall
	.loc	1 212 2 prologue_end    # cjpeg_wrbmp.c:212:2
.Ltmp126:
	callq	cjpeg_wrbmp_init
	movabsq	$1996402147807634280, %rdi # imm = 0x1BB4A52D10E6A368
	xorl	%esi, %esi
	callq	_KPrepCall
	.loc	1 213 4                 # cjpeg_wrbmp.c:213:4
	callq	cjpeg_wrbmp_main
	movabsq	$669808866262700003, %rdi # imm = 0x94BA39D74FECFE3
	xorl	%esi, %esi
	callq	_KPrepCall
	movl	$1, %edi
	callq	_KLinkReturn
	movabsq	$5051357597937205411, %r15 # imm = 0x461A06F8DA8480A3
	xorl	%esi, %esi
	.loc	1 215 14                # cjpeg_wrbmp.c:215:14
	movq	%r15, %rdi
	callq	_KEnterRegion
	movl	$3, %edi
	xorl	%esi, %esi
	callq	_KPrepRTable
	movl	$6, %edi
	callq	_KWork
	movl	$cjpeg_wrbmp_checksum, %edi
	movl	$1, %esi
	movl	$4, %edx
	callq	_KLoad0
	.loc	1 207 9                 # cjpeg_wrbmp.c:207:9
.Ltmp127:
	cmpl	$209330, cjpeg_wrbmp_checksum(%rip) # imm = 0x331B2
	setne	%al
	movzbl	%al, %ebx
	movl	$2, %edi
	movl	$1, %esi
	movl	$2, %edx
.Ltmp128:
	.loc	1 215 14                # cjpeg_wrbmp.c:215:14
	callq	_KTimestamp1
	movl	$2, %edi
	callq	_KReturn
	xorl	%esi, %esi
	movq	%r15, %rdi
	callq	_KExitRegion
	movl	$1, %edi
	movl	$1, %esi
	xorl	%edx, %edx
	callq	_KTimestamp1
	movl	$1, %edi
	callq	_KReturn
	xorl	%esi, %esi
	movq	%r14, %rdi
	callq	_KExitRegion
	callq	_KDeinit
	.loc	1 215 5 is_stmt 0       # cjpeg_wrbmp.c:215:5
	movl	%ebx, %eax
	addq	$8, %rsp
	popq	%rbx
	popq	%r14
	popq	%r15
	popq	%rbp
	retq
.Ltmp129:
.Ltmp130:
	.size	__main, .Ltmp130-__main
.Lfunc_end6:
	.cfi_endproc

	.type	cjpeg_wrbmp_jpeg_dec_1,@object # @cjpeg_wrbmp_jpeg_dec_1
	.comm	cjpeg_wrbmp_jpeg_dec_1,624,8
	.type	cjpeg_wrbmp_jpeg_dec_2,@object # @cjpeg_wrbmp_jpeg_dec_2
	.comm	cjpeg_wrbmp_jpeg_dec_2,624,8
	.type	cjpeg_wrbmp_output_array,@object # @cjpeg_wrbmp_output_array
	.comm	cjpeg_wrbmp_output_array,6144,16
	.type	cjpeg_wrbmp_jpeg_stream,@object # @cjpeg_wrbmp_jpeg_stream
	.comm	cjpeg_wrbmp_jpeg_stream,8,8
	.type	cjpeg_wrbmp_checksum,@object # @cjpeg_wrbmp_checksum
	.comm	cjpeg_wrbmp_checksum,4,4
	.type	cjpeg_wrbmp_djpeg_dest,@object # @cjpeg_wrbmp_djpeg_dest
	.comm	cjpeg_wrbmp_djpeg_dest,48,8
	.type	cjpeg_wrbmp_bmp_dest,@object # @cjpeg_wrbmp_bmp_dest
	.comm	cjpeg_wrbmp_bmp_dest,80,8
	.type	krem_prefixc8450909425b5613_krem_callsiteId_krem_cjpeg_wrbmp.c_krem_cjpeg_wrbmp_init_krem_81_krem_81_krem_,@object # @krem_prefixc8450909425b5613_krem_callsiteId_krem_cjpeg_wrbmp.c_krem_cjpeg_wrbmp_init_krem_81_krem_81_krem_
	.bss
	.globl	krem_prefixc8450909425b5613_krem_callsiteId_krem_cjpeg_wrbmp.c_krem_cjpeg_wrbmp_init_krem_81_krem_81_krem_
krem_prefixc8450909425b5613_krem_callsiteId_krem_cjpeg_wrbmp.c_krem_cjpeg_wrbmp_init_krem_81_krem_81_krem_:
	.byte	0                       # 0x0
	.size	krem_prefixc8450909425b5613_krem_callsiteId_krem_cjpeg_wrbmp.c_krem_cjpeg_wrbmp_init_krem_81_krem_81_krem_, 1

	.type	krem_prefix1b0cc878d7ee13f5_krem_callsiteId_krem_cjpeg_wrbmp.c_krem_cjpeg_wrbmp_write_colormap_krem_145_krem_145_krem_,@object # @krem_prefix1b0cc878d7ee13f5_krem_callsiteId_krem_cjpeg_wrbmp.c_krem_cjpeg_wrbmp_write_colormap_krem_145_krem_145_krem_
	.globl	krem_prefix1b0cc878d7ee13f5_krem_callsiteId_krem_cjpeg_wrbmp.c_krem_cjpeg_wrbmp_write_colormap_krem_145_krem_145_krem_
krem_prefix1b0cc878d7ee13f5_krem_callsiteId_krem_cjpeg_wrbmp.c_krem_cjpeg_wrbmp_write_colormap_krem_145_krem_145_krem_:
	.byte	0                       # 0x0
	.size	krem_prefix1b0cc878d7ee13f5_krem_callsiteId_krem_cjpeg_wrbmp.c_krem_cjpeg_wrbmp_write_colormap_krem_145_krem_145_krem_, 1

	.type	krem_prefix3edf07abf1bf4809_krem_callsiteId_krem_cjpeg_wrbmp.c_krem_cjpeg_wrbmp_write_colormap_krem_147_krem_147_krem_,@object # @krem_prefix3edf07abf1bf4809_krem_callsiteId_krem_cjpeg_wrbmp.c_krem_cjpeg_wrbmp_write_colormap_krem_147_krem_147_krem_
	.globl	krem_prefix3edf07abf1bf4809_krem_callsiteId_krem_cjpeg_wrbmp.c_krem_cjpeg_wrbmp_write_colormap_krem_147_krem_147_krem_
krem_prefix3edf07abf1bf4809_krem_callsiteId_krem_cjpeg_wrbmp.c_krem_cjpeg_wrbmp_write_colormap_krem_147_krem_147_krem_:
	.byte	0                       # 0x0
	.size	krem_prefix3edf07abf1bf4809_krem_callsiteId_krem_cjpeg_wrbmp.c_krem_cjpeg_wrbmp_write_colormap_krem_147_krem_147_krem_, 1

	.type	krem_prefixd86ab3bac2d85ff6_krem_callsiteId_krem_cjpeg_wrbmp.c_krem_cjpeg_wrbmp_write_colormap_krem_149_krem_149_krem_,@object # @krem_prefixd86ab3bac2d85ff6_krem_callsiteId_krem_cjpeg_wrbmp.c_krem_cjpeg_wrbmp_write_colormap_krem_149_krem_149_krem_
	.globl	krem_prefixd86ab3bac2d85ff6_krem_callsiteId_krem_cjpeg_wrbmp.c_krem_cjpeg_wrbmp_write_colormap_krem_149_krem_149_krem_
krem_prefixd86ab3bac2d85ff6_krem_callsiteId_krem_cjpeg_wrbmp.c_krem_cjpeg_wrbmp_write_colormap_krem_149_krem_149_krem_:
	.byte	0                       # 0x0
	.size	krem_prefixd86ab3bac2d85ff6_krem_callsiteId_krem_cjpeg_wrbmp.c_krem_cjpeg_wrbmp_write_colormap_krem_149_krem_149_krem_, 1

	.type	krem_prefixd8aa792797fe311a_krem_callsiteId_krem_cjpeg_wrbmp.c_krem_cjpeg_wrbmp_write_colormap_krem_153_krem_153_krem_,@object # @krem_prefixd8aa792797fe311a_krem_callsiteId_krem_cjpeg_wrbmp.c_krem_cjpeg_wrbmp_write_colormap_krem_153_krem_153_krem_
	.globl	krem_prefixd8aa792797fe311a_krem_callsiteId_krem_cjpeg_wrbmp.c_krem_cjpeg_wrbmp_write_colormap_krem_153_krem_153_krem_
krem_prefixd8aa792797fe311a_krem_callsiteId_krem_cjpeg_wrbmp.c_krem_cjpeg_wrbmp_write_colormap_krem_153_krem_153_krem_:
	.byte	0                       # 0x0
	.size	krem_prefixd8aa792797fe311a_krem_callsiteId_krem_cjpeg_wrbmp.c_krem_cjpeg_wrbmp_write_colormap_krem_153_krem_153_krem_, 1

	.type	krem_prefixe2990ee84904bc84_krem_callsiteId_krem_cjpeg_wrbmp.c_krem_cjpeg_wrbmp_write_colormap_krem_160_krem_160_krem_,@object # @krem_prefixe2990ee84904bc84_krem_callsiteId_krem_cjpeg_wrbmp.c_krem_cjpeg_wrbmp_write_colormap_krem_160_krem_160_krem_
	.globl	krem_prefixe2990ee84904bc84_krem_callsiteId_krem_cjpeg_wrbmp.c_krem_cjpeg_wrbmp_write_colormap_krem_160_krem_160_krem_
krem_prefixe2990ee84904bc84_krem_callsiteId_krem_cjpeg_wrbmp.c_krem_cjpeg_wrbmp_write_colormap_krem_160_krem_160_krem_:
	.byte	0                       # 0x0
	.size	krem_prefixe2990ee84904bc84_krem_callsiteId_krem_cjpeg_wrbmp.c_krem_cjpeg_wrbmp_write_colormap_krem_160_krem_160_krem_, 1

	.type	krem_prefix875f18e1f344dff4_krem_callsiteId_krem_cjpeg_wrbmp.c_krem_cjpeg_wrbmp_write_colormap_krem_162_krem_162_krem_,@object # @krem_prefix875f18e1f344dff4_krem_callsiteId_krem_cjpeg_wrbmp.c_krem_cjpeg_wrbmp_write_colormap_krem_162_krem_162_krem_
	.globl	krem_prefix875f18e1f344dff4_krem_callsiteId_krem_cjpeg_wrbmp.c_krem_cjpeg_wrbmp_write_colormap_krem_162_krem_162_krem_
krem_prefix875f18e1f344dff4_krem_callsiteId_krem_cjpeg_wrbmp.c_krem_cjpeg_wrbmp_write_colormap_krem_162_krem_162_krem_:
	.byte	0                       # 0x0
	.size	krem_prefix875f18e1f344dff4_krem_callsiteId_krem_cjpeg_wrbmp.c_krem_cjpeg_wrbmp_write_colormap_krem_162_krem_162_krem_, 1

	.type	krem_prefix18a95899967524f0_krem_callsiteId_krem_cjpeg_wrbmp.c_krem_cjpeg_wrbmp_write_colormap_krem_164_krem_164_krem_,@object # @krem_prefix18a95899967524f0_krem_callsiteId_krem_cjpeg_wrbmp.c_krem_cjpeg_wrbmp_write_colormap_krem_164_krem_164_krem_
	.globl	krem_prefix18a95899967524f0_krem_callsiteId_krem_cjpeg_wrbmp.c_krem_cjpeg_wrbmp_write_colormap_krem_164_krem_164_krem_
krem_prefix18a95899967524f0_krem_callsiteId_krem_cjpeg_wrbmp.c_krem_cjpeg_wrbmp_write_colormap_krem_164_krem_164_krem_:
	.byte	0                       # 0x0
	.size	krem_prefix18a95899967524f0_krem_callsiteId_krem_cjpeg_wrbmp.c_krem_cjpeg_wrbmp_write_colormap_krem_164_krem_164_krem_, 1

	.type	krem_prefixf33d42bf16c383d9_krem_callsiteId_krem_cjpeg_wrbmp.c_krem_cjpeg_wrbmp_write_colormap_krem_168_krem_168_krem_,@object # @krem_prefixf33d42bf16c383d9_krem_callsiteId_krem_cjpeg_wrbmp.c_krem_cjpeg_wrbmp_write_colormap_krem_168_krem_168_krem_
	.globl	krem_prefixf33d42bf16c383d9_krem_callsiteId_krem_cjpeg_wrbmp.c_krem_cjpeg_wrbmp_write_colormap_krem_168_krem_168_krem_
krem_prefixf33d42bf16c383d9_krem_callsiteId_krem_cjpeg_wrbmp.c_krem_cjpeg_wrbmp_write_colormap_krem_168_krem_168_krem_:
	.byte	0                       # 0x0
	.size	krem_prefixf33d42bf16c383d9_krem_callsiteId_krem_cjpeg_wrbmp.c_krem_cjpeg_wrbmp_write_colormap_krem_168_krem_168_krem_, 1

	.type	krem_prefix40a1f8f288f55fb4_krem_callsiteId_krem_cjpeg_wrbmp.c_krem_cjpeg_wrbmp_write_colormap_krem_175_krem_175_krem_,@object # @krem_prefix40a1f8f288f55fb4_krem_callsiteId_krem_cjpeg_wrbmp.c_krem_cjpeg_wrbmp_write_colormap_krem_175_krem_175_krem_
	.globl	krem_prefix40a1f8f288f55fb4_krem_callsiteId_krem_cjpeg_wrbmp.c_krem_cjpeg_wrbmp_write_colormap_krem_175_krem_175_krem_
krem_prefix40a1f8f288f55fb4_krem_callsiteId_krem_cjpeg_wrbmp.c_krem_cjpeg_wrbmp_write_colormap_krem_175_krem_175_krem_:
	.byte	0                       # 0x0
	.size	krem_prefix40a1f8f288f55fb4_krem_callsiteId_krem_cjpeg_wrbmp.c_krem_cjpeg_wrbmp_write_colormap_krem_175_krem_175_krem_, 1

	.type	krem_prefixae7d049d2aab7f31_krem_callsiteId_krem_cjpeg_wrbmp.c_krem_cjpeg_wrbmp_write_colormap_krem_176_krem_176_krem_,@object # @krem_prefixae7d049d2aab7f31_krem_callsiteId_krem_cjpeg_wrbmp.c_krem_cjpeg_wrbmp_write_colormap_krem_176_krem_176_krem_
	.globl	krem_prefixae7d049d2aab7f31_krem_callsiteId_krem_cjpeg_wrbmp.c_krem_cjpeg_wrbmp_write_colormap_krem_176_krem_176_krem_
krem_prefixae7d049d2aab7f31_krem_callsiteId_krem_cjpeg_wrbmp.c_krem_cjpeg_wrbmp_write_colormap_krem_176_krem_176_krem_:
	.byte	0                       # 0x0
	.size	krem_prefixae7d049d2aab7f31_krem_callsiteId_krem_cjpeg_wrbmp.c_krem_cjpeg_wrbmp_write_colormap_krem_176_krem_176_krem_, 1

	.type	krem_prefix37e44b2b22764ed4_krem_callsiteId_krem_cjpeg_wrbmp.c_krem_cjpeg_wrbmp_write_colormap_krem_177_krem_177_krem_,@object # @krem_prefix37e44b2b22764ed4_krem_callsiteId_krem_cjpeg_wrbmp.c_krem_cjpeg_wrbmp_write_colormap_krem_177_krem_177_krem_
	.globl	krem_prefix37e44b2b22764ed4_krem_callsiteId_krem_cjpeg_wrbmp.c_krem_cjpeg_wrbmp_write_colormap_krem_177_krem_177_krem_
krem_prefix37e44b2b22764ed4_krem_callsiteId_krem_cjpeg_wrbmp.c_krem_cjpeg_wrbmp_write_colormap_krem_177_krem_177_krem_:
	.byte	0                       # 0x0
	.size	krem_prefix37e44b2b22764ed4_krem_callsiteId_krem_cjpeg_wrbmp.c_krem_cjpeg_wrbmp_write_colormap_krem_177_krem_177_krem_, 1

	.type	krem_prefix687e927620fb1a2b_krem_callsiteId_krem_cjpeg_wrbmp.c_krem_cjpeg_wrbmp_write_colormap_krem_180_krem_180_krem_,@object # @krem_prefix687e927620fb1a2b_krem_callsiteId_krem_cjpeg_wrbmp.c_krem_cjpeg_wrbmp_write_colormap_krem_180_krem_180_krem_
	.globl	krem_prefix687e927620fb1a2b_krem_callsiteId_krem_cjpeg_wrbmp.c_krem_cjpeg_wrbmp_write_colormap_krem_180_krem_180_krem_
krem_prefix687e927620fb1a2b_krem_callsiteId_krem_cjpeg_wrbmp.c_krem_cjpeg_wrbmp_write_colormap_krem_180_krem_180_krem_:
	.byte	0                       # 0x0
	.size	krem_prefix687e927620fb1a2b_krem_callsiteId_krem_cjpeg_wrbmp.c_krem_cjpeg_wrbmp_write_colormap_krem_180_krem_180_krem_, 1

	.type	krem_prefixfed88e958e43105c_krem_callsiteId_krem_cjpeg_wrbmp.c_krem_cjpeg_wrbmp_write_colormap_krem_187_krem_187_krem_,@object # @krem_prefixfed88e958e43105c_krem_callsiteId_krem_cjpeg_wrbmp.c_krem_cjpeg_wrbmp_write_colormap_krem_187_krem_187_krem_
	.globl	krem_prefixfed88e958e43105c_krem_callsiteId_krem_cjpeg_wrbmp.c_krem_cjpeg_wrbmp_write_colormap_krem_187_krem_187_krem_
krem_prefixfed88e958e43105c_krem_callsiteId_krem_cjpeg_wrbmp.c_krem_cjpeg_wrbmp_write_colormap_krem_187_krem_187_krem_:
	.byte	0                       # 0x0
	.size	krem_prefixfed88e958e43105c_krem_callsiteId_krem_cjpeg_wrbmp.c_krem_cjpeg_wrbmp_write_colormap_krem_187_krem_187_krem_, 1

	.type	krem_prefixb9363f390611d0b6_krem_callsiteId_krem_cjpeg_wrbmp.c_krem_cjpeg_wrbmp_write_colormap_krem_188_krem_188_krem_,@object # @krem_prefixb9363f390611d0b6_krem_callsiteId_krem_cjpeg_wrbmp.c_krem_cjpeg_wrbmp_write_colormap_krem_188_krem_188_krem_
	.globl	krem_prefixb9363f390611d0b6_krem_callsiteId_krem_cjpeg_wrbmp.c_krem_cjpeg_wrbmp_write_colormap_krem_188_krem_188_krem_
krem_prefixb9363f390611d0b6_krem_callsiteId_krem_cjpeg_wrbmp.c_krem_cjpeg_wrbmp_write_colormap_krem_188_krem_188_krem_:
	.byte	0                       # 0x0
	.size	krem_prefixb9363f390611d0b6_krem_callsiteId_krem_cjpeg_wrbmp.c_krem_cjpeg_wrbmp_write_colormap_krem_188_krem_188_krem_, 1

	.type	krem_prefixe0d2eb3e8c792454_krem_callsiteId_krem_cjpeg_wrbmp.c_krem_cjpeg_wrbmp_write_colormap_krem_189_krem_189_krem_,@object # @krem_prefixe0d2eb3e8c792454_krem_callsiteId_krem_cjpeg_wrbmp.c_krem_cjpeg_wrbmp_write_colormap_krem_189_krem_189_krem_
	.globl	krem_prefixe0d2eb3e8c792454_krem_callsiteId_krem_cjpeg_wrbmp.c_krem_cjpeg_wrbmp_write_colormap_krem_189_krem_189_krem_
krem_prefixe0d2eb3e8c792454_krem_callsiteId_krem_cjpeg_wrbmp.c_krem_cjpeg_wrbmp_write_colormap_krem_189_krem_189_krem_:
	.byte	0                       # 0x0
	.size	krem_prefixe0d2eb3e8c792454_krem_callsiteId_krem_cjpeg_wrbmp.c_krem_cjpeg_wrbmp_write_colormap_krem_189_krem_189_krem_, 1

	.type	krem_prefix9119153c5861b33a_krem_callsiteId_krem_cjpeg_wrbmp.c_krem_cjpeg_wrbmp_write_colormap_krem_192_krem_192_krem_,@object # @krem_prefix9119153c5861b33a_krem_callsiteId_krem_cjpeg_wrbmp.c_krem_cjpeg_wrbmp_write_colormap_krem_192_krem_192_krem_
	.globl	krem_prefix9119153c5861b33a_krem_callsiteId_krem_cjpeg_wrbmp.c_krem_cjpeg_wrbmp_write_colormap_krem_192_krem_192_krem_
krem_prefix9119153c5861b33a_krem_callsiteId_krem_cjpeg_wrbmp.c_krem_cjpeg_wrbmp_write_colormap_krem_192_krem_192_krem_:
	.byte	0                       # 0x0
	.size	krem_prefix9119153c5861b33a_krem_callsiteId_krem_cjpeg_wrbmp.c_krem_cjpeg_wrbmp_write_colormap_krem_192_krem_192_krem_, 1

	.type	krem_prefix997bc041c93ff3f1_krem_callsiteId_krem_cjpeg_wrbmp.c_krem_cjpeg_wrbmp_main_krem_198_krem_198_krem_,@object # @krem_prefix997bc041c93ff3f1_krem_callsiteId_krem_cjpeg_wrbmp.c_krem_cjpeg_wrbmp_main_krem_198_krem_198_krem_
	.globl	krem_prefix997bc041c93ff3f1_krem_callsiteId_krem_cjpeg_wrbmp.c_krem_cjpeg_wrbmp_main_krem_198_krem_198_krem_
krem_prefix997bc041c93ff3f1_krem_callsiteId_krem_cjpeg_wrbmp.c_krem_cjpeg_wrbmp_main_krem_198_krem_198_krem_:
	.byte	0                       # 0x0
	.size	krem_prefix997bc041c93ff3f1_krem_callsiteId_krem_cjpeg_wrbmp.c_krem_cjpeg_wrbmp_main_krem_198_krem_198_krem_, 1

	.type	krem_prefix41b522d595642106_krem_callsiteId_krem_cjpeg_wrbmp.c_krem_cjpeg_wrbmp_main_krem_199_krem_199_krem_,@object # @krem_prefix41b522d595642106_krem_callsiteId_krem_cjpeg_wrbmp.c_krem_cjpeg_wrbmp_main_krem_199_krem_199_krem_
	.globl	krem_prefix41b522d595642106_krem_callsiteId_krem_cjpeg_wrbmp.c_krem_cjpeg_wrbmp_main_krem_199_krem_199_krem_
krem_prefix41b522d595642106_krem_callsiteId_krem_cjpeg_wrbmp.c_krem_cjpeg_wrbmp_main_krem_199_krem_199_krem_:
	.byte	0                       # 0x0
	.size	krem_prefix41b522d595642106_krem_callsiteId_krem_cjpeg_wrbmp.c_krem_cjpeg_wrbmp_main_krem_199_krem_199_krem_, 1

	.type	krem_prefix6b82f25c541d11b2_krem_callsiteId_krem_cjpeg_wrbmp.c_krem_cjpeg_wrbmp_main_krem_201_krem_201_krem_,@object # @krem_prefix6b82f25c541d11b2_krem_callsiteId_krem_cjpeg_wrbmp.c_krem_cjpeg_wrbmp_main_krem_201_krem_201_krem_
	.globl	krem_prefix6b82f25c541d11b2_krem_callsiteId_krem_cjpeg_wrbmp.c_krem_cjpeg_wrbmp_main_krem_201_krem_201_krem_
krem_prefix6b82f25c541d11b2_krem_callsiteId_krem_cjpeg_wrbmp.c_krem_cjpeg_wrbmp_main_krem_201_krem_201_krem_:
	.byte	0                       # 0x0
	.size	krem_prefix6b82f25c541d11b2_krem_callsiteId_krem_cjpeg_wrbmp.c_krem_cjpeg_wrbmp_main_krem_201_krem_201_krem_, 1

	.type	krem_prefixf38e47869dff2f3b_krem_callsiteId_krem_cjpeg_wrbmp.c_krem_cjpeg_wrbmp_main_krem_202_krem_202_krem_,@object # @krem_prefixf38e47869dff2f3b_krem_callsiteId_krem_cjpeg_wrbmp.c_krem_cjpeg_wrbmp_main_krem_202_krem_202_krem_
	.globl	krem_prefixf38e47869dff2f3b_krem_callsiteId_krem_cjpeg_wrbmp.c_krem_cjpeg_wrbmp_main_krem_202_krem_202_krem_
krem_prefixf38e47869dff2f3b_krem_callsiteId_krem_cjpeg_wrbmp.c_krem_cjpeg_wrbmp_main_krem_202_krem_202_krem_:
	.byte	0                       # 0x0
	.size	krem_prefixf38e47869dff2f3b_krem_callsiteId_krem_cjpeg_wrbmp.c_krem_cjpeg_wrbmp_main_krem_202_krem_202_krem_, 1

	.type	krem_prefix6bb2de9fae36f25f_krem_callsiteId_krem_cjpeg_wrbmp.c_krem_main_krem_212_krem_212_krem_,@object # @krem_prefix6bb2de9fae36f25f_krem_callsiteId_krem_cjpeg_wrbmp.c_krem_main_krem_212_krem_212_krem_
	.globl	krem_prefix6bb2de9fae36f25f_krem_callsiteId_krem_cjpeg_wrbmp.c_krem_main_krem_212_krem_212_krem_
krem_prefix6bb2de9fae36f25f_krem_callsiteId_krem_cjpeg_wrbmp.c_krem_main_krem_212_krem_212_krem_:
	.byte	0                       # 0x0
	.size	krem_prefix6bb2de9fae36f25f_krem_callsiteId_krem_cjpeg_wrbmp.c_krem_main_krem_212_krem_212_krem_, 1

	.type	krem_prefix1bb4a52d10e6a368_krem_callsiteId_krem_cjpeg_wrbmp.c_krem_main_krem_213_krem_213_krem_,@object # @krem_prefix1bb4a52d10e6a368_krem_callsiteId_krem_cjpeg_wrbmp.c_krem_main_krem_213_krem_213_krem_
	.globl	krem_prefix1bb4a52d10e6a368_krem_callsiteId_krem_cjpeg_wrbmp.c_krem_main_krem_213_krem_213_krem_
krem_prefix1bb4a52d10e6a368_krem_callsiteId_krem_cjpeg_wrbmp.c_krem_main_krem_213_krem_213_krem_:
	.byte	0                       # 0x0
	.size	krem_prefix1bb4a52d10e6a368_krem_callsiteId_krem_cjpeg_wrbmp.c_krem_main_krem_213_krem_213_krem_, 1

	.type	krem_prefix094ba39d74fecfe3_krem_callsiteId_krem_cjpeg_wrbmp.c_krem_main_krem_215_krem_215_krem_,@object # @krem_prefix094ba39d74fecfe3_krem_callsiteId_krem_cjpeg_wrbmp.c_krem_main_krem_215_krem_215_krem_
	.globl	krem_prefix094ba39d74fecfe3_krem_callsiteId_krem_cjpeg_wrbmp.c_krem_main_krem_215_krem_215_krem_
krem_prefix094ba39d74fecfe3_krem_callsiteId_krem_cjpeg_wrbmp.c_krem_main_krem_215_krem_215_krem_:
	.byte	0                       # 0x0
	.size	krem_prefix094ba39d74fecfe3_krem_callsiteId_krem_cjpeg_wrbmp.c_krem_main_krem_215_krem_215_krem_, 1

	.type	krem_prefix1e805a43f8bd3500_krem_func_krem_cjpeg_wrbmp.c_krem_cjpeg_wrbmp_main_krem_196_krem_196_krem_,@object # @krem_prefix1e805a43f8bd3500_krem_func_krem_cjpeg_wrbmp.c_krem_cjpeg_wrbmp_main_krem_196_krem_196_krem_
	.globl	krem_prefix1e805a43f8bd3500_krem_func_krem_cjpeg_wrbmp.c_krem_cjpeg_wrbmp_main_krem_196_krem_196_krem_
krem_prefix1e805a43f8bd3500_krem_func_krem_cjpeg_wrbmp.c_krem_cjpeg_wrbmp_main_krem_196_krem_196_krem_:
	.byte	0                       # 0x0
	.size	krem_prefix1e805a43f8bd3500_krem_func_krem_cjpeg_wrbmp.c_krem_cjpeg_wrbmp_main_krem_196_krem_196_krem_, 1

	.type	krem_prefix4348054138b19b8a_krem_loop_krem_cjpeg_wrbmp.c_krem_cjpeg_wrbmp_finish_output_bmp_krem_114_krem_124_krem_,@object # @krem_prefix4348054138b19b8a_krem_loop_krem_cjpeg_wrbmp.c_krem_cjpeg_wrbmp_finish_output_bmp_krem_114_krem_124_krem_
	.globl	krem_prefix4348054138b19b8a_krem_loop_krem_cjpeg_wrbmp.c_krem_cjpeg_wrbmp_finish_output_bmp_krem_114_krem_124_krem_
krem_prefix4348054138b19b8a_krem_loop_krem_cjpeg_wrbmp.c_krem_cjpeg_wrbmp_finish_output_bmp_krem_114_krem_124_krem_:
	.byte	0                       # 0x0
	.size	krem_prefix4348054138b19b8a_krem_loop_krem_cjpeg_wrbmp.c_krem_cjpeg_wrbmp_finish_output_bmp_krem_114_krem_124_krem_, 1

	.type	krem_prefix44d4938db362447c_krem_loop_body_krem_cjpeg_wrbmp.c_krem_cjpeg_wrbmp_write_colormap_krem_137_krem_153_krem_,@object # @krem_prefix44d4938db362447c_krem_loop_body_krem_cjpeg_wrbmp.c_krem_cjpeg_wrbmp_write_colormap_krem_137_krem_153_krem_
	.globl	krem_prefix44d4938db362447c_krem_loop_body_krem_cjpeg_wrbmp.c_krem_cjpeg_wrbmp_write_colormap_krem_137_krem_153_krem_
krem_prefix44d4938db362447c_krem_loop_body_krem_cjpeg_wrbmp.c_krem_cjpeg_wrbmp_write_colormap_krem_137_krem_153_krem_:
	.byte	0                       # 0x0
	.size	krem_prefix44d4938db362447c_krem_loop_body_krem_cjpeg_wrbmp.c_krem_cjpeg_wrbmp_write_colormap_krem_137_krem_153_krem_, 1

	.type	krem_prefix461a06f8da8480a3_krem_func_krem_cjpeg_wrbmp.c_krem_cjpeg_wrbmp_return_krem_205_krem_205_krem_,@object # @krem_prefix461a06f8da8480a3_krem_func_krem_cjpeg_wrbmp.c_krem_cjpeg_wrbmp_return_krem_205_krem_205_krem_
	.globl	krem_prefix461a06f8da8480a3_krem_func_krem_cjpeg_wrbmp.c_krem_cjpeg_wrbmp_return_krem_205_krem_205_krem_
krem_prefix461a06f8da8480a3_krem_func_krem_cjpeg_wrbmp.c_krem_cjpeg_wrbmp_return_krem_205_krem_205_krem_:
	.byte	0                       # 0x0
	.size	krem_prefix461a06f8da8480a3_krem_func_krem_cjpeg_wrbmp.c_krem_cjpeg_wrbmp_return_krem_205_krem_205_krem_, 1

	.type	krem_prefix5f16613d8f08b0d6_krem_loop_body_krem_cjpeg_wrbmp.c_krem_cjpeg_wrbmp_write_colormap_krem_137_krem_168_krem_,@object # @krem_prefix5f16613d8f08b0d6_krem_loop_body_krem_cjpeg_wrbmp.c_krem_cjpeg_wrbmp_write_colormap_krem_137_krem_168_krem_
	.globl	krem_prefix5f16613d8f08b0d6_krem_loop_body_krem_cjpeg_wrbmp.c_krem_cjpeg_wrbmp_write_colormap_krem_137_krem_168_krem_
krem_prefix5f16613d8f08b0d6_krem_loop_body_krem_cjpeg_wrbmp.c_krem_cjpeg_wrbmp_write_colormap_krem_137_krem_168_krem_:
	.byte	0                       # 0x0
	.size	krem_prefix5f16613d8f08b0d6_krem_loop_body_krem_cjpeg_wrbmp.c_krem_cjpeg_wrbmp_write_colormap_krem_137_krem_168_krem_, 1

	.type	krem_prefix6922277a652bb6b0_krem_func_krem_cjpeg_wrbmp.c_krem_cjpeg_wrbmp_finish_output_bmp_krem_112_krem_112_krem_,@object # @krem_prefix6922277a652bb6b0_krem_func_krem_cjpeg_wrbmp.c_krem_cjpeg_wrbmp_finish_output_bmp_krem_112_krem_112_krem_
	.globl	krem_prefix6922277a652bb6b0_krem_func_krem_cjpeg_wrbmp.c_krem_cjpeg_wrbmp_finish_output_bmp_krem_112_krem_112_krem_
krem_prefix6922277a652bb6b0_krem_func_krem_cjpeg_wrbmp.c_krem_cjpeg_wrbmp_finish_output_bmp_krem_112_krem_112_krem_:
	.byte	0                       # 0x0
	.size	krem_prefix6922277a652bb6b0_krem_func_krem_cjpeg_wrbmp.c_krem_cjpeg_wrbmp_finish_output_bmp_krem_112_krem_112_krem_, 1

	.type	krem_prefix79e7515ef679c509_krem_func_krem_cjpeg_wrbmp.c_krem_cjpeg_wrbmp_init_krem_79_krem_79_krem_,@object # @krem_prefix79e7515ef679c509_krem_func_krem_cjpeg_wrbmp.c_krem_cjpeg_wrbmp_init_krem_79_krem_79_krem_
	.globl	krem_prefix79e7515ef679c509_krem_func_krem_cjpeg_wrbmp.c_krem_cjpeg_wrbmp_init_krem_79_krem_79_krem_
krem_prefix79e7515ef679c509_krem_func_krem_cjpeg_wrbmp.c_krem_cjpeg_wrbmp_init_krem_79_krem_79_krem_:
	.byte	0                       # 0x0
	.size	krem_prefix79e7515ef679c509_krem_func_krem_cjpeg_wrbmp.c_krem_cjpeg_wrbmp_init_krem_79_krem_79_krem_, 1

	.type	krem_prefix802c56e45a9346f8_krem_loop_body_krem_cjpeg_wrbmp.c_krem_cjpeg_wrbmp_write_colormap_krem_137_krem_192_krem_,@object # @krem_prefix802c56e45a9346f8_krem_loop_body_krem_cjpeg_wrbmp.c_krem_cjpeg_wrbmp_write_colormap_krem_137_krem_192_krem_
	.globl	krem_prefix802c56e45a9346f8_krem_loop_body_krem_cjpeg_wrbmp.c_krem_cjpeg_wrbmp_write_colormap_krem_137_krem_192_krem_
krem_prefix802c56e45a9346f8_krem_loop_body_krem_cjpeg_wrbmp.c_krem_cjpeg_wrbmp_write_colormap_krem_137_krem_192_krem_:
	.byte	0                       # 0x0
	.size	krem_prefix802c56e45a9346f8_krem_loop_body_krem_cjpeg_wrbmp.c_krem_cjpeg_wrbmp_write_colormap_krem_137_krem_192_krem_, 1

	.type	krem_prefix863ae8f21d393898_krem_loop_krem_cjpeg_wrbmp.c_krem_cjpeg_wrbmp_write_colormap_krem_137_krem_153_krem_,@object # @krem_prefix863ae8f21d393898_krem_loop_krem_cjpeg_wrbmp.c_krem_cjpeg_wrbmp_write_colormap_krem_137_krem_153_krem_
	.globl	krem_prefix863ae8f21d393898_krem_loop_krem_cjpeg_wrbmp.c_krem_cjpeg_wrbmp_write_colormap_krem_137_krem_153_krem_
krem_prefix863ae8f21d393898_krem_loop_krem_cjpeg_wrbmp.c_krem_cjpeg_wrbmp_write_colormap_krem_137_krem_153_krem_:
	.byte	0                       # 0x0
	.size	krem_prefix863ae8f21d393898_krem_loop_krem_cjpeg_wrbmp.c_krem_cjpeg_wrbmp_write_colormap_krem_137_krem_153_krem_, 1

	.type	krem_prefixb59eb44249d86ee2_krem_func_krem_cjpeg_wrbmp.c_krem_cjpeg_wrbmp_putc_modified_krem_101_krem_101_krem_,@object # @krem_prefixb59eb44249d86ee2_krem_func_krem_cjpeg_wrbmp.c_krem_cjpeg_wrbmp_putc_modified_krem_101_krem_101_krem_
	.globl	krem_prefixb59eb44249d86ee2_krem_func_krem_cjpeg_wrbmp.c_krem_cjpeg_wrbmp_putc_modified_krem_101_krem_101_krem_
krem_prefixb59eb44249d86ee2_krem_func_krem_cjpeg_wrbmp.c_krem_cjpeg_wrbmp_putc_modified_krem_101_krem_101_krem_:
	.byte	0                       # 0x0
	.size	krem_prefixb59eb44249d86ee2_krem_func_krem_cjpeg_wrbmp.c_krem_cjpeg_wrbmp_putc_modified_krem_101_krem_101_krem_, 1

	.type	krem_prefixb92fddbdd17a3ef6_krem_loop_krem_cjpeg_wrbmp.c_krem_cjpeg_wrbmp_write_colormap_krem_137_krem_168_krem_,@object # @krem_prefixb92fddbdd17a3ef6_krem_loop_krem_cjpeg_wrbmp.c_krem_cjpeg_wrbmp_write_colormap_krem_137_krem_168_krem_
	.globl	krem_prefixb92fddbdd17a3ef6_krem_loop_krem_cjpeg_wrbmp.c_krem_cjpeg_wrbmp_write_colormap_krem_137_krem_168_krem_
krem_prefixb92fddbdd17a3ef6_krem_loop_krem_cjpeg_wrbmp.c_krem_cjpeg_wrbmp_write_colormap_krem_137_krem_168_krem_:
	.byte	0                       # 0x0
	.size	krem_prefixb92fddbdd17a3ef6_krem_loop_krem_cjpeg_wrbmp.c_krem_cjpeg_wrbmp_write_colormap_krem_137_krem_168_krem_, 1

	.type	krem_prefixba0eed89669ed0cf_krem_loop_body_krem_cjpeg_wrbmp.c_krem_cjpeg_wrbmp_finish_output_bmp_krem_114_krem_124_krem_,@object # @krem_prefixba0eed89669ed0cf_krem_loop_body_krem_cjpeg_wrbmp.c_krem_cjpeg_wrbmp_finish_output_bmp_krem_114_krem_124_krem_
	.globl	krem_prefixba0eed89669ed0cf_krem_loop_body_krem_cjpeg_wrbmp.c_krem_cjpeg_wrbmp_finish_output_bmp_krem_114_krem_124_krem_
krem_prefixba0eed89669ed0cf_krem_loop_body_krem_cjpeg_wrbmp.c_krem_cjpeg_wrbmp_finish_output_bmp_krem_114_krem_124_krem_:
	.byte	0                       # 0x0
	.size	krem_prefixba0eed89669ed0cf_krem_loop_body_krem_cjpeg_wrbmp.c_krem_cjpeg_wrbmp_finish_output_bmp_krem_114_krem_124_krem_, 1

	.type	krem_prefixcb246b97ed906fd3_krem_loop_body_krem_cjpeg_wrbmp.c_krem_cjpeg_wrbmp_write_colormap_krem_137_krem_180_krem_,@object # @krem_prefixcb246b97ed906fd3_krem_loop_body_krem_cjpeg_wrbmp.c_krem_cjpeg_wrbmp_write_colormap_krem_137_krem_180_krem_
	.globl	krem_prefixcb246b97ed906fd3_krem_loop_body_krem_cjpeg_wrbmp.c_krem_cjpeg_wrbmp_write_colormap_krem_137_krem_180_krem_
krem_prefixcb246b97ed906fd3_krem_loop_body_krem_cjpeg_wrbmp.c_krem_cjpeg_wrbmp_write_colormap_krem_137_krem_180_krem_:
	.byte	0                       # 0x0
	.size	krem_prefixcb246b97ed906fd3_krem_loop_body_krem_cjpeg_wrbmp.c_krem_cjpeg_wrbmp_write_colormap_krem_137_krem_180_krem_, 1

	.type	krem_prefixccf54e4d9a4e040d_krem_func_krem_cjpeg_wrbmp.c_krem_main_krem_210_krem_210_krem_,@object # @krem_prefixccf54e4d9a4e040d_krem_func_krem_cjpeg_wrbmp.c_krem_main_krem_210_krem_210_krem_
	.globl	krem_prefixccf54e4d9a4e040d_krem_func_krem_cjpeg_wrbmp.c_krem_main_krem_210_krem_210_krem_
krem_prefixccf54e4d9a4e040d_krem_func_krem_cjpeg_wrbmp.c_krem_main_krem_210_krem_210_krem_:
	.byte	0                       # 0x0
	.size	krem_prefixccf54e4d9a4e040d_krem_func_krem_cjpeg_wrbmp.c_krem_main_krem_210_krem_210_krem_, 1

	.type	krem_prefixd3d0af5f71311d3f_krem_loop_krem_cjpeg_wrbmp.c_krem_cjpeg_wrbmp_write_colormap_krem_137_krem_192_krem_,@object # @krem_prefixd3d0af5f71311d3f_krem_loop_krem_cjpeg_wrbmp.c_krem_cjpeg_wrbmp_write_colormap_krem_137_krem_192_krem_
	.globl	krem_prefixd3d0af5f71311d3f_krem_loop_krem_cjpeg_wrbmp.c_krem_cjpeg_wrbmp_write_colormap_krem_137_krem_192_krem_
krem_prefixd3d0af5f71311d3f_krem_loop_krem_cjpeg_wrbmp.c_krem_cjpeg_wrbmp_write_colormap_krem_137_krem_192_krem_:
	.byte	0                       # 0x0
	.size	krem_prefixd3d0af5f71311d3f_krem_loop_krem_cjpeg_wrbmp.c_krem_cjpeg_wrbmp_write_colormap_krem_137_krem_192_krem_, 1

	.type	krem_prefixd747ab162f12cf5b_krem_func_krem_cjpeg_wrbmp.c_krem_cjpeg_wrbmp_write_colormap_krem_131_krem_131_krem_,@object # @krem_prefixd747ab162f12cf5b_krem_func_krem_cjpeg_wrbmp.c_krem_cjpeg_wrbmp_write_colormap_krem_131_krem_131_krem_
	.globl	krem_prefixd747ab162f12cf5b_krem_func_krem_cjpeg_wrbmp.c_krem_cjpeg_wrbmp_write_colormap_krem_131_krem_131_krem_
krem_prefixd747ab162f12cf5b_krem_func_krem_cjpeg_wrbmp.c_krem_cjpeg_wrbmp_write_colormap_krem_131_krem_131_krem_:
	.byte	0                       # 0x0
	.size	krem_prefixd747ab162f12cf5b_krem_func_krem_cjpeg_wrbmp.c_krem_cjpeg_wrbmp_write_colormap_krem_131_krem_131_krem_, 1

	.type	krem_prefixf7238f5052b86e66_krem_loop_krem_cjpeg_wrbmp.c_krem_cjpeg_wrbmp_write_colormap_krem_137_krem_180_krem_,@object # @krem_prefixf7238f5052b86e66_krem_loop_krem_cjpeg_wrbmp.c_krem_cjpeg_wrbmp_write_colormap_krem_137_krem_180_krem_
	.globl	krem_prefixf7238f5052b86e66_krem_loop_krem_cjpeg_wrbmp.c_krem_cjpeg_wrbmp_write_colormap_krem_137_krem_180_krem_
krem_prefixf7238f5052b86e66_krem_loop_krem_cjpeg_wrbmp.c_krem_cjpeg_wrbmp_write_colormap_krem_137_krem_180_krem_:
	.byte	0                       # 0x0
	.size	krem_prefixf7238f5052b86e66_krem_loop_krem_cjpeg_wrbmp.c_krem_cjpeg_wrbmp_write_colormap_krem_137_krem_180_krem_, 1

	.text
.Ldebug_end1:
	.section	".note.GNU-stack","",@progbits