	.text
	.file	"bfs.simplifycfg.mem2reg.indvars.elimsinglephis.criticalpath.regioninstrument.renamemain.O3.bc"
	.text
	.globl	bfs
	.align	16, 0x90
	.type	bfs,@function
bfs:                                    # @bfs
.Lfunc_begin0:
	.file	1 "bfs.c"
	.loc	1 12 0                  # bfs.c:12:0
	.cfi_startproc
# BB#0:                                 # %entry
	pushq	%rbp
.Ltmp0:
	.cfi_def_cfa_offset 16
.Ltmp1:
	.cfi_offset %rbp, -16
	movq	%rsp, %rbp
.Ltmp2:
	.cfi_def_cfa_register %rbp
	pushq	%r15
	pushq	%r14
	pushq	%r13
	pushq	%r12
	pushq	%rbx
	subq	$88, %rsp
.Ltmp3:
	.cfi_offset %rbx, -56
.Ltmp4:
	.cfi_offset %r12, -48
.Ltmp5:
	.cfi_offset %r13, -40
.Ltmp6:
	.cfi_offset %r14, -32
.Ltmp7:
	.cfi_offset %r15, -24
	#DEBUG_VALUE: bfs:nodes <- RDI
	#DEBUG_VALUE: bfs:edges <- RSI
	#DEBUG_VALUE: bfs:starting_node <- RDX
	#DEBUG_VALUE: bfs:level <- RCX
	#DEBUG_VALUE: bfs:level_counts <- R8
	movq	%r8, %r12
.Ltmp8:
	#DEBUG_VALUE: bfs:level_counts <- R12
	movq	%r12, -120(%rbp)        # 8-byte Spill
	movq	%rcx, %rbx
.Ltmp9:
	#DEBUG_VALUE: bfs:level <- RBX
	movq	%rbx, -56(%rbp)         # 8-byte Spill
	movq	%rdx, %r15
.Ltmp10:
	#DEBUG_VALUE: bfs:starting_node <- R15
	movq	%rsi, -104(%rbp)        # 8-byte Spill
.Ltmp11:
	#DEBUG_VALUE: bfs:edges <- [RBP+-104]
	movq	%rdi, -112(%rbp)        # 8-byte Spill
.Ltmp12:
	#DEBUG_VALUE: bfs:nodes <- [RBP+-112]
	movabsq	$-9047677801545540353, %rdi # imm = 0x827030F9E4B0DCFF
	movabsq	$6765057173552567427, %r14 # imm = 0x5DE24FA812CF1483
	xorl	%r13d, %r13d
	xorl	%esi, %esi
	callq	_KEnterRegion
	movl	$23, %edi
	movl	$6, %esi
	callq	_KPrepRTable
	movl	$2, %edi
	callq	_KWork
	movl	$1, %edi
	callq	_KDeqArg
	.loc	1 18 3 prologue_end     # bfs.c:18:3
.Ltmp13:
	leaq	(%rbx,%r15), %rdi
	movl	$1, %esi
	callq	_KStoreConst
	movb	$0, (%rbx,%r15)
.Ltmp14:
	#DEBUG_VALUE: bfs:level <- [RBP+-56]
	movl	$8, %esi
	movq	%r12, %rdi
	callq	_KStoreConst
	.loc	1 19 3                  # bfs.c:19:3
	movq	$1, (%r12)
.Ltmp15:
	#DEBUG_VALUE: bfs:horizon <- 0
	#DEBUG_VALUE: bfs:level_counts <- [RBP+-120]
	movl	$8, %edi
	callq	_KInduction
	movl	$1, %esi
	movq	%r14, %rdi
	callq	_KEnterRegion
	movl	$1, %edi
	callq	_KWork
	movl	$9, %edi
	movl	$8, %esi
	movl	$1, %edx
	callq	_KTimestamp1
	movl	$8, %edi
	movl	$8, %esi
	xorl	%edx, %edx
	callq	_KTimestamp1
	movabsq	$1039152055419929521, %rbx # imm = 0xE6BCF49EAEC03B1
	movabsq	$-5308929434068709430, %r14 # imm = 0xB652E4CEC0B80FCA
	movabsq	$8773487298449358255, %r12 # imm = 0x79C1B036C979BDAF
.Ltmp16:
	.align	16, 0x90
.LBB0_1:                                # %for.body
                                        # =>This Loop Header: Depth=1
                                        #     Child Loop BB0_2 Depth 2
                                        #       Child Loop BB0_6 Depth 3
	#DEBUG_VALUE: bfs:nodes <- [RBP+-112]
	#DEBUG_VALUE: bfs:edges <- [RBP+-104]
	#DEBUG_VALUE: bfs:level <- [RBP+-56]
	#DEBUG_VALUE: bfs:level_counts <- [RBP+-120]
	#DEBUG_VALUE: bfs:horizon <- 0
	movq	%r13, -96(%rbp)         # 8-byte Spill
	movl	$2, %esi
	movq	%rbx, %rdi
	callq	_KEnterRegion
	movl	$9, %edi
	callq	_KPushCDep
.Ltmp17:
	#DEBUG_VALUE: bfs:n <- 0
	#DEBUG_VALUE: bfs:cnt <- 0
	movl	$11, %edi
	callq	_KInduction
	callq	_KPopCDep
	movl	$1, %esi
	movq	%r14, %rdi
	callq	_KEnterRegion
	.loc	1 21 18                 # bfs.c:21:18
.Ltmp18:
	leaq	1(%r13), %rax
	movq	%rax, -72(%rbp)         # 8-byte Spill
	xorl	%ebx, %ebx
	xorl	%r14d, %r14d
	xorl	%r15d, %r15d
	xorl	%eax, %eax
	movq	%rax, -80(%rbp)         # 8-byte Spill
	jmp	.LBB0_2
	.align	16, 0x90
.LBB0_11:                               # %for.inc29
                                        #   in Loop: Header=BB0_2 Depth=2
	#DEBUG_VALUE: bfs:nodes <- [RBP+-112]
	#DEBUG_VALUE: bfs:edges <- [RBP+-104]
	#DEBUG_VALUE: bfs:level <- [RBP+-56]
	#DEBUG_VALUE: bfs:level_counts <- [RBP+-120]
	#DEBUG_VALUE: bfs:horizon <- 0
	#DEBUG_VALUE: bfs:cnt <- 0
	#DEBUG_VALUE: bfs:n <- 0
	movl	$10, %r14d
	movl	$10, %edi
	callq	_KPushCDep
	movl	$16, %r15d
	movl	$16, %edi
	movl	$12, %edx
	movl	$10, %ecx
	movl	%ebx, %esi
	callq	_KPhi2To1
	movq	-88(%rbp), %rbx         # 8-byte Reload
	.loc	1 24 38                 # bfs.c:24:38
.Ltmp19:
	incq	%rbx
.Ltmp20:
	#DEBUG_VALUE: bfs:n <- RBX
	movl	$16, %edi
	movl	$16, %esi
	xorl	%edx, %edx
	callq	_KTimestamp1
	callq	_KPopCDep
	movl	$2, %esi
	movabsq	$-5458004193972277178, %rdi # imm = 0xB441461A73B0B046
	callq	_KExitRegion
.Ltmp21:
.LBB0_2:                                # %for.cond3
                                        #   Parent Loop BB0_1 Depth=1
                                        # =>  This Loop Header: Depth=2
                                        #       Child Loop BB0_6 Depth 3
	#DEBUG_VALUE: bfs:nodes <- [RBP+-112]
	#DEBUG_VALUE: bfs:edges <- [RBP+-104]
	#DEBUG_VALUE: bfs:level <- [RBP+-56]
	#DEBUG_VALUE: bfs:level_counts <- [RBP+-120]
	#DEBUG_VALUE: bfs:horizon <- 0
	#DEBUG_VALUE: bfs:cnt <- 0
	#DEBUG_VALUE: bfs:n <- 0
	movl	$9, %edi
	callq	_KPushCDep
	movl	$15, %edi
	movl	$9, %ecx
	movl	%r15d, %esi
	movl	%r14d, %edx
	callq	_KPhi2To1
	movl	$1, %edi
	callq	_KWork
	movl	$15, %edi
	movl	$15, %esi
	xorl	%edx, %edx
	callq	_KTimestamp1
	movl	$10, %edi
	movl	$11, %esi
	movl	$1, %edx
	movl	$9, %ecx
	movl	$1, %r8d
	callq	_KTimestamp2
	movl	$15, %edi
	movl	$10, %esi
	callq	_KPhiAddCond
	callq	_KPopCDep
	.loc	1 24 17 is_stmt 0       # bfs.c:24:17
	cmpq	$256, %rbx              # imm = 0x100
	movq	%rbx, %r15
	je	.LBB0_12
# BB#3:                                 # %for.body6
                                        #   in Loop: Header=BB0_2 Depth=2
	#DEBUG_VALUE: bfs:nodes <- [RBP+-112]
	#DEBUG_VALUE: bfs:edges <- [RBP+-104]
	#DEBUG_VALUE: bfs:level <- [RBP+-56]
	#DEBUG_VALUE: bfs:level_counts <- [RBP+-120]
	#DEBUG_VALUE: bfs:horizon <- 0
	#DEBUG_VALUE: bfs:cnt <- 0
	#DEBUG_VALUE: bfs:n <- 0
	movl	$2, %esi
	movabsq	$-5458004193972277178, %rdi # imm = 0xB441461A73B0B046
	callq	_KEnterRegion
	movl	$10, %edi
	callq	_KPushCDep
	movl	$5, %edi
	callq	_KWork
	movq	-56(%rbp), %rbx         # 8-byte Reload
.Ltmp22:
	#DEBUG_VALUE: bfs:level <- RBX
	.loc	1 25 11 is_stmt 1       # bfs.c:25:11
	leaq	(%rbx,%r15), %rdi
	movl	$2, %esi
	movl	$1, %edx
	callq	_KLoad0
.Ltmp23:
	.loc	1 25 11 is_stmt 0       # bfs.c:25:11
	movzbl	(%rbx,%r15), %r14d
.Ltmp24:
	#DEBUG_VALUE: bfs:level <- [RBP+-56]
	movl	$1, (%rsp)
	movl	$12, %edi
	movl	$2, %esi
	movl	$1, %edx
	movl	$10, %ecx
	movl	$1, %r8d
	movl	$8, %r9d
	callq	_KTimestamp3
	callq	_KPopCDep
	movl	$15, %ebx
	movzbl	%r13b, %eax
	cmpl	%eax, %r14d
	jne	.LBB0_4
# BB#5:                                 # %if.then
                                        #   in Loop: Header=BB0_2 Depth=2
	#DEBUG_VALUE: bfs:nodes <- [RBP+-112]
	#DEBUG_VALUE: bfs:edges <- [RBP+-104]
	#DEBUG_VALUE: bfs:level <- [RBP+-56]
	#DEBUG_VALUE: bfs:level_counts <- [RBP+-120]
	#DEBUG_VALUE: bfs:horizon <- 0
	#DEBUG_VALUE: bfs:cnt <- 0
	#DEBUG_VALUE: bfs:n <- 0
	movl	$12, %edi
	callq	_KPushCDep
	movl	$8, %edi
	callq	_KWork
	.loc	1 26 34 is_stmt 1       # bfs.c:26:34
.Ltmp25:
	movq	%r15, %rbx
	movq	%r15, -88(%rbp)         # 8-byte Spill
	shlq	$4, %rbx
	movq	-112(%rbp), %r15        # 8-byte Reload
.Ltmp26:
	#DEBUG_VALUE: bfs:nodes <- R15
	leaq	(%r15,%rbx), %rdi
	movl	$3, %r14d
	movl	$3, %esi
	movl	$8, %edx
	callq	_KLoad0
	movq	(%r15,%rbx), %r13
.Ltmp27:
	#DEBUG_VALUE: tmp_begin <- R13
	#DEBUG_VALUE: bfs:e <- R13
	.loc	1 27 32                 # bfs.c:27:32
	leaq	8(%r15,%rbx), %rdi
	movl	$4, %esi
	movl	$8, %edx
	callq	_KLoad0
	movq	8(%r15,%rbx), %rax
.Ltmp28:
	#DEBUG_VALUE: tmp_end <- [RBP+-64]
	movq	%rax, -64(%rbp)         # 8-byte Spill
.Ltmp29:
	#DEBUG_VALUE: bfs:nodes <- [RBP+-112]
	movq	%r13, %rbx
.Ltmp30:
	#DEBUG_VALUE: tmp_begin <- RBX
	#DEBUG_VALUE: bfs:e <- RBX
	xorl	%r15d, %r15d
	movl	$4, %edi
	movl	$4, %esi
	xorl	%edx, %edx
	callq	_KTimestamp1
	movl	$3, %edi
	movl	$3, %esi
	xorl	%edx, %edx
	callq	_KTimestamp1
	callq	_KPopCDep
	movl	$1, %esi
	movabsq	$-7665510801827749364, %rdi # imm = 0x959EA28A1323220C
	callq	_KEnterRegion
	movq	-104(%rbp), %rax        # 8-byte Reload
	leaq	(%rax,%rbx,8), %rax
	movq	%rax, -48(%rbp)         # 8-byte Spill
	movl	$15, %r13d
	jmp	.LBB0_6
.Ltmp31:
	.align	16, 0x90
.LBB0_9:                                # %for.inc
                                        #   in Loop: Header=BB0_6 Depth=3
	movq	%r13, %rbx
	#DEBUG_VALUE: bfs:nodes <- [RBP+-112]
	#DEBUG_VALUE: bfs:edges <- [RBP+-104]
	#DEBUG_VALUE: bfs:level <- [RBP+-56]
	#DEBUG_VALUE: bfs:level_counts <- [RBP+-120]
	#DEBUG_VALUE: bfs:horizon <- 0
	#DEBUG_VALUE: bfs:cnt <- 0
	#DEBUG_VALUE: bfs:n <- 0
	#DEBUG_VALUE: tmp_end <- [RBP+-64]
	movl	$13, %r15d
	movl	$13, %edi
	callq	_KPushCDep
	movl	$19, %r13d
	movl	$19, %edi
	movl	$13, %edx
	movl	$21, %ecx
	movl	%r12d, %esi
	callq	_KPhi2To1
	movl	$1, %edi
	callq	_KWork
	.loc	1 28 54                 # bfs.c:28:54
.Ltmp32:
	incq	%rbx
.Ltmp33:
	#DEBUG_VALUE: bfs:e <- RBX
	movl	$19, %edi
	movl	$19, %esi
	xorl	%edx, %edx
	callq	_KTimestamp1
	movl	$17, %r14d
	movl	$17, %edi
	movl	$13, %esi
	movl	$1, %edx
	movl	$14, %ecx
	movl	$1, %r8d
	callq	_KTimestamp2
	callq	_KPopCDep
	movl	$2, %esi
	movabsq	$8773487298449358255, %r12 # imm = 0x79C1B036C979BDAF
	movq	%r12, %rdi
	callq	_KExitRegion
	addq	$8, -48(%rbp)           # 8-byte Folded Spill
.Ltmp34:
.LBB0_6:                                # %for.cond14
                                        #   Parent Loop BB0_1 Depth=1
                                        #     Parent Loop BB0_2 Depth=2
                                        # =>    This Inner Loop Header: Depth=3
	#DEBUG_VALUE: bfs:nodes <- [RBP+-112]
	#DEBUG_VALUE: bfs:edges <- [RBP+-104]
	#DEBUG_VALUE: bfs:level <- [RBP+-56]
	#DEBUG_VALUE: bfs:level_counts <- [RBP+-120]
	#DEBUG_VALUE: bfs:horizon <- 0
	#DEBUG_VALUE: bfs:cnt <- 0
	#DEBUG_VALUE: bfs:n <- 0
	#DEBUG_VALUE: tmp_end <- [RBP+-64]
	movl	$12, %edi
	callq	_KPushCDep
	movl	$18, %edi
	movl	$12, %edx
	movl	%r13d, %esi
	movl	%r15d, %ecx
	callq	_KPhi2To1
	movl	$14, %edi
	movl	$12, %edx
	movl	%r14d, %esi
	movl	%r15d, %ecx
	callq	_KPhi2To1
	movl	$1, %edi
	callq	_KWork
	movl	$1, (%rsp)
	movl	$13, %edi
	movl	$14, %esi
	movl	$1, %edx
	movl	$12, %ecx
	movl	$1, %r8d
	movl	$4, %r9d
	callq	_KTimestamp3
	movl	$18, %edi
	movl	$18, %esi
	xorl	%edx, %edx
	callq	_KTimestamp1
	movl	$18, %edi
	movl	$13, %esi
	callq	_KPhiAddCond
	movl	$14, %edi
	movl	$13, %esi
	callq	_KPhiAddCond
	movl	$14, %edi
	movl	$14, %esi
	xorl	%edx, %edx
	callq	_KTimestamp1
	callq	_KPopCDep
	.loc	1 28 25 is_stmt 0       # bfs.c:28:25
	cmpq	-64(%rbp), %rbx         # 8-byte Folded Reload
	jae	.LBB0_10
# BB#7:                                 # %for.body17
                                        #   in Loop: Header=BB0_6 Depth=3
	#DEBUG_VALUE: bfs:nodes <- [RBP+-112]
	#DEBUG_VALUE: bfs:edges <- [RBP+-104]
	#DEBUG_VALUE: bfs:level <- [RBP+-56]
	#DEBUG_VALUE: bfs:level_counts <- [RBP+-120]
	#DEBUG_VALUE: bfs:horizon <- 0
	#DEBUG_VALUE: bfs:cnt <- 0
	#DEBUG_VALUE: bfs:n <- 0
	#DEBUG_VALUE: tmp_end <- [RBP+-64]
	movq	%rbx, %r13
	movl	$2, %esi
	movq	%r12, %rdi
	callq	_KEnterRegion
	movl	$13, %edi
	callq	_KPushCDep
	movl	$9, %edi
	callq	_KWork
	movl	$5, %esi
	movl	$8, %edx
	movq	-48(%rbp), %rbx         # 8-byte Reload
	movq	%rbx, %rdi
	callq	_KLoad0
	.loc	1 29 34 is_stmt 1       # bfs.c:29:34
.Ltmp35:
	movq	(%rbx), %r15
.Ltmp36:
	#DEBUG_VALUE: tmp_dst <- R15
	movq	-56(%rbp), %rbx         # 8-byte Reload
.Ltmp37:
	#DEBUG_VALUE: bfs:level <- RBX
	.loc	1 30 31                 # bfs.c:30:31
	leaq	(%rbx,%r15), %r14
	movl	$6, %esi
	movl	$5, %edx
	movl	$1, %ecx
	movq	%r14, %rdi
	callq	_KLoad1
	.loc	1 32 15                 # bfs.c:32:15
	movzbl	(%rbx,%r15), %ebx
.Ltmp38:
	#DEBUG_VALUE: bfs:level <- [RBP+-56]
	movl	$21, %edi
	movl	$13, %esi
	movl	$1, %edx
	movl	$6, %ecx
	movl	$1, %r8d
	callq	_KTimestamp2
	callq	_KPopCDep
	movl	$18, %r12d
	cmpl	$127, %ebx
	jne	.LBB0_9
.Ltmp39:
# BB#8:                                 # %if.then23
                                        #   in Loop: Header=BB0_6 Depth=3
	#DEBUG_VALUE: bfs:nodes <- [RBP+-112]
	#DEBUG_VALUE: bfs:edges <- [RBP+-104]
	#DEBUG_VALUE: bfs:level <- [RBP+-56]
	#DEBUG_VALUE: bfs:level_counts <- [RBP+-120]
	#DEBUG_VALUE: bfs:horizon <- 0
	#DEBUG_VALUE: bfs:cnt <- 0
	#DEBUG_VALUE: bfs:n <- 0
	#DEBUG_VALUE: tmp_end <- [RBP+-64]
	movl	$21, %edi
	callq	_KPushCDep
	movl	$3, %edi
	callq	_KWork
	movl	$1, (%rsp)
	movl	$7, %edi
	movl	$13, %esi
	movl	$2, %edx
	movl	$6, %ecx
	movl	$2, %r8d
	movl	$8, %r9d
	callq	_KTimestamp3
	movl	$7, %edi
	movl	$1, %edx
	movq	%r14, %rsi
	callq	_KStore
	.loc	1 33 13                 # bfs.c:33:13
.Ltmp40:
	movq	-72(%rbp), %rax         # 8-byte Reload
	movb	%al, (%r14)
	.loc	1 34 13                 # bfs.c:34:13
	incq	-80(%rbp)               # 8-byte Folded Spill
.Ltmp41:
	#DEBUG_VALUE: bfs:cnt <- [RBP+-80]
	movl	$2, (%rsp)
	movl	$20, %r12d
	movl	$20, %edi
	movl	$13, %esi
	movl	$2, %edx
	movl	$18, %ecx
	movl	$1, %r8d
	movl	$6, %r9d
	callq	_KTimestamp3
	callq	_KPopCDep
	jmp	.LBB0_9
.Ltmp42:
	.align	16, 0x90
.LBB0_4:                                #   in Loop: Header=BB0_2 Depth=2
	#DEBUG_VALUE: bfs:nodes <- [RBP+-112]
	#DEBUG_VALUE: bfs:edges <- [RBP+-104]
	#DEBUG_VALUE: bfs:level <- [RBP+-56]
	#DEBUG_VALUE: bfs:level_counts <- [RBP+-120]
	#DEBUG_VALUE: bfs:horizon <- 0
	#DEBUG_VALUE: bfs:cnt <- 0
	#DEBUG_VALUE: bfs:n <- 0
	movq	%r15, -88(%rbp)         # 8-byte Spill
	jmp	.LBB0_11
	.align	16, 0x90
.LBB0_10:                               # %for.cond14.pre_exit.for.inc29.loopexit
                                        #   in Loop: Header=BB0_2 Depth=2
	#DEBUG_VALUE: bfs:nodes <- [RBP+-112]
	#DEBUG_VALUE: bfs:edges <- [RBP+-104]
	#DEBUG_VALUE: bfs:level <- [RBP+-56]
	#DEBUG_VALUE: bfs:level_counts <- [RBP+-120]
	#DEBUG_VALUE: bfs:horizon <- 0
	#DEBUG_VALUE: bfs:cnt <- 0
	#DEBUG_VALUE: bfs:n <- 0
	movl	$1, %esi
	movabsq	$-7665510801827749364, %rdi # imm = 0x959EA28A1323220C
	callq	_KExitRegion
	movl	$12, %edi
	callq	_KPushCDep
	callq	_KPopCDep
	movl	$18, %ebx
	movq	-96(%rbp), %r13         # 8-byte Reload
	jmp	.LBB0_11
	.align	16, 0x90
.LBB0_12:                               # %for.cond3.pre_exit.for.end31
                                        #   in Loop: Header=BB0_1 Depth=1
	#DEBUG_VALUE: bfs:nodes <- [RBP+-112]
	#DEBUG_VALUE: bfs:edges <- [RBP+-104]
	#DEBUG_VALUE: bfs:level <- [RBP+-56]
	#DEBUG_VALUE: bfs:level_counts <- [RBP+-120]
	#DEBUG_VALUE: bfs:horizon <- 0
	#DEBUG_VALUE: bfs:cnt <- 0
	#DEBUG_VALUE: bfs:n <- 0
	movl	$1, %esi
	movabsq	$-5308929434068709430, %r14 # imm = 0xB652E4CEC0B80FCA
	movq	%r14, %rdi
	callq	_KExitRegion
	movl	$9, %edi
	callq	_KPushCDep
	movl	$3, %edi
	callq	_KWork
	movq	-120(%rbp), %rbx        # 8-byte Reload
.Ltmp43:
	#DEBUG_VALUE: bfs:level_counts <- RBX
	movq	-72(%rbp), %r15         # 8-byte Reload
	.loc	1 39 10                 # bfs.c:39:10
.Ltmp44:
	leaq	(%rbx,%r15,8), %rsi
	movl	$15, %edi
	movl	$8, %edx
	callq	_KStore
	movq	-80(%rbp), %rax         # 8-byte Reload
	movq	%rax, %r13
	movq	%r13, (%rbx,%r15,8)
.Ltmp45:
	#DEBUG_VALUE: bfs:level_counts <- [RBP+-120]
	movl	$22, %edi
	movl	$15, %esi
	movl	$1, %edx
	movl	$9, %ecx
	movl	$1, %r8d
	callq	_KTimestamp2
	callq	_KPopCDep
	.loc	1 39 9 is_stmt 0        # bfs.c:39:9
	testq	%r13, %r13
.Ltmp46:
	.loc	1 39 9                  # bfs.c:39:9
	je	.LBB0_14
.Ltmp47:
# BB#13:                                # %for.inc39
                                        #   in Loop: Header=BB0_1 Depth=1
	#DEBUG_VALUE: bfs:nodes <- [RBP+-112]
	#DEBUG_VALUE: bfs:edges <- [RBP+-104]
	#DEBUG_VALUE: bfs:level <- [RBP+-56]
	#DEBUG_VALUE: bfs:level_counts <- [RBP+-120]
	#DEBUG_VALUE: bfs:horizon <- 0
	#DEBUG_VALUE: bfs:cnt <- 0
	#DEBUG_VALUE: bfs:n <- 0
	movl	$22, %edi
	callq	_KPushCDep
	callq	_KPopCDep
	movl	$2, %esi
	movabsq	$1039152055419929521, %rbx # imm = 0xE6BCF49EAEC03B1
	movq	%rbx, %rdi
	callq	_KExitRegion
	movl	$1, %edi
	callq	_KWork
	movl	$9, %edi
	movl	$8, %esi
	movl	$1, %edx
	callq	_KTimestamp1
	movl	$8, %edi
	movl	$8, %esi
	xorl	%edx, %edx
	callq	_KTimestamp1
	.loc	1 21 34 is_stmt 1 discriminator 2 # bfs.c:21:34
.Ltmp48:
	cmpq	$10, %r15
	movq	%r15, %r13
	jl	.LBB0_1
	jmp	.LBB0_15
.Ltmp49:
.LBB0_14:                               # %for.end31.pre_exit.for.end41
	#DEBUG_VALUE: bfs:horizon <- 0
	#DEBUG_VALUE: bfs:cnt <- 0
	#DEBUG_VALUE: bfs:n <- 0
	movl	$2, %esi
	movabsq	$1039152055419929521, %rdi # imm = 0xE6BCF49EAEC03B1
	callq	_KExitRegion
.LBB0_15:                               # %for.end41
	movl	$1, %esi
	movabsq	$6765057173552567427, %rdi # imm = 0x5DE24FA812CF1483
	callq	_KExitRegion
	#DEBUG_VALUE: bfs:horizon <- 0
	#DEBUG_VALUE: bfs:cnt <- 0
	#DEBUG_VALUE: bfs:n <- 0
	xorl	%esi, %esi
	movabsq	$-9047677801545540353, %rdi # imm = 0x827030F9E4B0DCFF
	addq	$88, %rsp
	popq	%rbx
	popq	%r12
	popq	%r13
	popq	%r14
	popq	%r15
	popq	%rbp
	jmp	_KExitRegion            # TAILCALL
.Ltmp50:
	.size	bfs, .Ltmp50-bfs
.Lfunc_end0:
	.cfi_endproc

	.type	krem_prefix0e6bcf49eaec03b1_krem_loop_body_krem_bfs.c_krem_bfs_krem_13_krem_39_krem_,@object # @krem_prefix0e6bcf49eaec03b1_krem_loop_body_krem_bfs.c_krem_bfs_krem_13_krem_39_krem_
	.bss
	.globl	krem_prefix0e6bcf49eaec03b1_krem_loop_body_krem_bfs.c_krem_bfs_krem_13_krem_39_krem_
krem_prefix0e6bcf49eaec03b1_krem_loop_body_krem_bfs.c_krem_bfs_krem_13_krem_39_krem_:
	.byte	0                       # 0x0
	.size	krem_prefix0e6bcf49eaec03b1_krem_loop_body_krem_bfs.c_krem_bfs_krem_13_krem_39_krem_, 1

	.type	krem_prefix5de24fa812cf1483_krem_loop_krem_bfs.c_krem_bfs_krem_13_krem_39_krem_,@object # @krem_prefix5de24fa812cf1483_krem_loop_krem_bfs.c_krem_bfs_krem_13_krem_39_krem_
	.globl	krem_prefix5de24fa812cf1483_krem_loop_krem_bfs.c_krem_bfs_krem_13_krem_39_krem_
krem_prefix5de24fa812cf1483_krem_loop_krem_bfs.c_krem_bfs_krem_13_krem_39_krem_:
	.byte	0                       # 0x0
	.size	krem_prefix5de24fa812cf1483_krem_loop_krem_bfs.c_krem_bfs_krem_13_krem_39_krem_, 1

	.type	krem_prefix79c1b036c979bdaf_krem_loop_body_krem_bfs.c_krem_bfs_krem_14_krem_35_krem_,@object # @krem_prefix79c1b036c979bdaf_krem_loop_body_krem_bfs.c_krem_bfs_krem_14_krem_35_krem_
	.globl	krem_prefix79c1b036c979bdaf_krem_loop_body_krem_bfs.c_krem_bfs_krem_14_krem_35_krem_
krem_prefix79c1b036c979bdaf_krem_loop_body_krem_bfs.c_krem_bfs_krem_14_krem_35_krem_:
	.byte	0                       # 0x0
	.size	krem_prefix79c1b036c979bdaf_krem_loop_body_krem_bfs.c_krem_bfs_krem_14_krem_35_krem_, 1

	.type	krem_prefix827030f9e4b0dcff_krem_func_krem_bfs.c_krem_bfs_krem_9_krem_9_krem_,@object # @krem_prefix827030f9e4b0dcff_krem_func_krem_bfs.c_krem_bfs_krem_9_krem_9_krem_
	.globl	krem_prefix827030f9e4b0dcff_krem_func_krem_bfs.c_krem_bfs_krem_9_krem_9_krem_
krem_prefix827030f9e4b0dcff_krem_func_krem_bfs.c_krem_bfs_krem_9_krem_9_krem_:
	.byte	0                       # 0x0
	.size	krem_prefix827030f9e4b0dcff_krem_func_krem_bfs.c_krem_bfs_krem_9_krem_9_krem_, 1

	.type	krem_prefix959ea28a1323220c_krem_loop_krem_bfs.c_krem_bfs_krem_14_krem_35_krem_,@object # @krem_prefix959ea28a1323220c_krem_loop_krem_bfs.c_krem_bfs_krem_14_krem_35_krem_
	.globl	krem_prefix959ea28a1323220c_krem_loop_krem_bfs.c_krem_bfs_krem_14_krem_35_krem_
krem_prefix959ea28a1323220c_krem_loop_krem_bfs.c_krem_bfs_krem_14_krem_35_krem_:
	.byte	0                       # 0x0
	.size	krem_prefix959ea28a1323220c_krem_loop_krem_bfs.c_krem_bfs_krem_14_krem_35_krem_, 1

	.type	krem_prefixb441461a73b0b046_krem_loop_body_krem_bfs.c_krem_bfs_krem_13_krem_35_krem_,@object # @krem_prefixb441461a73b0b046_krem_loop_body_krem_bfs.c_krem_bfs_krem_13_krem_35_krem_
	.globl	krem_prefixb441461a73b0b046_krem_loop_body_krem_bfs.c_krem_bfs_krem_13_krem_35_krem_
krem_prefixb441461a73b0b046_krem_loop_body_krem_bfs.c_krem_bfs_krem_13_krem_35_krem_:
	.byte	0                       # 0x0
	.size	krem_prefixb441461a73b0b046_krem_loop_body_krem_bfs.c_krem_bfs_krem_13_krem_35_krem_, 1

	.type	krem_prefixb652e4cec0b80fca_krem_loop_krem_bfs.c_krem_bfs_krem_13_krem_35_krem_,@object # @krem_prefixb652e4cec0b80fca_krem_loop_krem_bfs.c_krem_bfs_krem_13_krem_35_krem_
	.globl	krem_prefixb652e4cec0b80fca_krem_loop_krem_bfs.c_krem_bfs_krem_13_krem_35_krem_
krem_prefixb652e4cec0b80fca_krem_loop_krem_bfs.c_krem_bfs_krem_13_krem_35_krem_:
	.byte	0                       # 0x0
	.size	krem_prefixb652e4cec0b80fca_krem_loop_krem_bfs.c_krem_bfs_krem_13_krem_35_krem_, 1

	.text
.Ldebug_end0:
	.file	2 "/usr/include/stdint.h"
	.file	3 "./bfs.h"
	.file	4 "/usr/include/x86_64-linux-gnu/sys/types.h"
	.section	".note.GNU-stack","",@progbits