	.text
	.file	"local_support.simplifycfg.mem2reg.indvars.elimsinglephis.criticalpath.regioninstrument.renamemain.O3.bc"
	.text
	.globl	run_benchmark
	.align	16, 0x90
	.type	run_benchmark,@function
run_benchmark:                          # @run_benchmark
.Lfunc_begin0:
	.loc	1 7 0                   # local_support.c:7:0
	.cfi_startproc
# BB#0:                                 # %entry
	pushq	%rbp
.Ltmp0:
	.cfi_def_cfa_offset 16
.Ltmp1:
	.cfi_offset %rbp, -16
	movq	%rsp, %rbp
.Ltmp2:
	.cfi_def_cfa_register %rbp
	pushq	%r15
	pushq	%r14
	pushq	%rbx
	pushq	%rax
.Ltmp3:
	.cfi_offset %rbx, -40
.Ltmp4:
	.cfi_offset %r14, -32
.Ltmp5:
	.cfi_offset %r15, -24
	#DEBUG_VALUE: run_benchmark:vargs <- RDI
	movq	%rdi, %rbx
.Ltmp6:
	#DEBUG_VALUE: run_benchmark:vargs <- RBX
	movabsq	$3862668819228705092, %r14 # imm = 0x359AF4D3671AC144
	xorl	%esi, %esi
	movq	%r14, %rdi
	callq	_KEnterRegion
	movl	$2, %edi
	xorl	%esi, %esi
	callq	_KPrepRTable
	movl	$4, %edi
	callq	_KWork
	.loc	1 9 33 prologue_end     # local_support.c:9:33
.Ltmp7:
	leaq	36864(%rbx), %rdi
	movl	$1, %esi
	movl	$8, %edx
	callq	_KLoad0
	movq	36864(%rbx), %r15
	movabsq	$8529996880469001576, %rdi # imm = 0x7660A2F80B8B8568
	xorl	%esi, %esi
	callq	_KPrepCall
	movl	$1, %edi
	movl	$1, %esi
	xorl	%edx, %edx
	callq	_KTimestamp1
	movl	$1, %edi
	callq	_KEnqArg
	.loc	1 9 20 is_stmt 0        # local_support.c:9:20
	leaq	4096(%rbx), %rsi
	.loc	1 9 54                  # local_support.c:9:54
	leaq	36872(%rbx), %rcx
	.loc	1 9 67                  # local_support.c:9:67
	leaq	37128(%rbx), %r8
	.loc	1 9 3                   # local_support.c:9:3
	movq	%rbx, %rdi
	movq	%r15, %rdx
	callq	bfs
	xorl	%esi, %esi
	movq	%r14, %rdi
	addq	$8, %rsp
	popq	%rbx
.Ltmp8:
	popq	%r14
	popq	%r15
	popq	%rbp
	jmp	_KExitRegion            # TAILCALL
.Ltmp9:
.Ltmp10:
	.size	run_benchmark, .Ltmp10-run_benchmark
.Lfunc_end0:
	.cfi_endproc

	.globl	input_to_data
	.align	16, 0x90
	.type	input_to_data,@function
input_to_data:                          # @input_to_data
.Lfunc_begin1:
	.loc	1 21 0 is_stmt 1        # local_support.c:21:0
	.cfi_startproc
# BB#0:                                 # %entry
	pushq	%rbp
.Ltmp11:
	.cfi_def_cfa_offset 16
.Ltmp12:
	.cfi_offset %rbp, -16
	movq	%rsp, %rbp
.Ltmp13:
	.cfi_def_cfa_register %rbp
	pushq	%r15
	pushq	%r14
	pushq	%r13
	pushq	%r12
	pushq	%rbx
	pushq	%rax
.Ltmp14:
	.cfi_offset %rbx, -56
.Ltmp15:
	.cfi_offset %r12, -48
.Ltmp16:
	.cfi_offset %r13, -40
.Ltmp17:
	.cfi_offset %r14, -32
.Ltmp18:
	.cfi_offset %r15, -24
	#DEBUG_VALUE: input_to_data:fd <- EDI
	#DEBUG_VALUE: input_to_data:vdata <- RSI
	movq	%rsi, %r13
.Ltmp19:
	#DEBUG_VALUE: input_to_data:vdata <- R13
	movl	%edi, -48(%rbp)         # 4-byte Spill
.Ltmp20:
	#DEBUG_VALUE: input_to_data:fd <- [RBP+-48]
	movabsq	$-1597638869346479856, %r14 # imm = 0xE9D40BE9B93F1110
	movabsq	$-6621481163062197625, %rdi # imm = 0xA41BC5F6DCBCC287
	xorl	%ebx, %ebx
	xorl	%esi, %esi
	callq	_KEnterRegion
	movl	$14, %edi
	movl	$2, %esi
	callq	_KPrepRTable
	movl	$1, %edi
	callq	_KDeqArg
	xorl	%esi, %esi
	movl	$37208, %edx            # imm = 0x9158
	.loc	1 28 3 prologue_end     # local_support.c:28:3
.Ltmp21:
	movq	%r13, %rdi
	callq	memset
.Ltmp22:
	#DEBUG_VALUE: input_to_data:i <- 0
	movl	$10, %edi
	callq	_KInduction
	movl	$1, %esi
	movq	%r14, %rdi
	callq	_KEnterRegion
	movl	$1, %edi
	callq	_KWork
	movl	$12, %edi
	movl	$10, %esi
	movl	$1, %edx
	callq	_KTimestamp1
	leaq	36872(%r13), %r15
	movabsq	$-3655208014562498479, %r12 # imm = 0xCD4617AD47D76851
.Ltmp23:
	.align	16, 0x90
.LBB1_1:                                # %for.body
                                        # =>This Inner Loop Header: Depth=1
	#DEBUG_VALUE: input_to_data:fd <- [RBP+-48]
	#DEBUG_VALUE: input_to_data:vdata <- R13
	#DEBUG_VALUE: input_to_data:i <- 0
	movl	$2, %esi
	movq	%r12, %rdi
	callq	_KEnterRegion
	movl	$12, %edi
	callq	_KPushCDep
	movl	$1, %edi
	callq	_KWork
	leaq	(%r15,%rbx), %rdi
	movl	$1, %esi
	callq	_KStoreConst
	.loc	1 31 5                  # local_support.c:31:5
.Ltmp24:
	movb	$127, (%r15,%rbx)
.Ltmp25:
	.loc	1 30 23                 # local_support.c:30:23
	incq	%rbx
.Ltmp26:
	#DEBUG_VALUE: input_to_data:i <- RBX
	callq	_KPopCDep
	movl	$2, %esi
	movq	%r12, %rdi
	callq	_KExitRegion
	movl	$1, %edi
	callq	_KWork
	movl	$12, %edi
	movl	$10, %esi
	movl	$1, %edx
	callq	_KTimestamp1
.Ltmp27:
	.loc	1 30 3 is_stmt 0        # local_support.c:30:3
	cmpq	$256, %rbx              # imm = 0x100
	jne	.LBB1_1
.Ltmp28:
# BB#2:                                 # %for.cond.pre_exit.for.end
	#DEBUG_VALUE: input_to_data:fd <- [RBP+-48]
	#DEBUG_VALUE: input_to_data:vdata <- R13
	movl	$1, %esi
	movq	%r14, %rdi
	callq	_KExitRegion
	xorl	%r12d, %r12d
	movabsq	$-8502678415045376731, %rdi # imm = 0x8A006B07D7D6C525
	xorl	%esi, %esi
	callq	_KPrepCall
	movl	$1, %edi
	movl	$1, %esi
	xorl	%edx, %edx
	callq	_KTimestamp1
	movl	$1, %edi
	callq	_KEnqArg
	.loc	1 34 7 is_stmt 1        # local_support.c:34:7
	movl	-48(%rbp), %edi         # 4-byte Reload
	callq	readfile
	movq	%rax, %rbx
.Ltmp29:
	#DEBUG_VALUE: input_to_data:p <- RBX
	movq	%rbx, -48(%rbp)         # 8-byte Spill
	movabsq	$-8374474731171629251, %rdi # imm = 0x8BC7E39A1407B73D
	xorl	%esi, %esi
	callq	_KPrepCall
	callq	_KEnqArgConst
	movl	$1, %esi
	.loc	1 36 7                  # local_support.c:36:7
	movq	%rbx, %rdi
	callq	find_section_start
	movq	%rax, %r14
.Ltmp30:
	#DEBUG_VALUE: input_to_data:s <- R14
	.loc	1 37 27                 # local_support.c:37:27
	leaq	36864(%r13), %r15
	movabsq	$-964880955545406111, %rdi # imm = 0xF29C0DE2122D3561
	xorl	%esi, %esi
	callq	_KPrepCall
	callq	_KEnqArgConst
	movl	$2, %edi
	callq	_KLinkReturn
	movl	$1, %edx
	.loc	1 37 3 is_stmt 0        # local_support.c:37:3
	movq	%r14, %rdi
	movq	%r15, %rsi
	callq	parse_uint64_t_array
	movabsq	$6895234360245781834, %rdi # imm = 0x5FB0CB1E3D84854A
	xorl	%esi, %esi
	callq	_KPrepCall
	callq	_KEnqArgConst
	movl	$2, %esi
	.loc	1 40 7 is_stmt 1        # local_support.c:40:7
	movq	%rbx, %rdi
.Ltmp31:
	#DEBUG_VALUE: input_to_data:p <- [RBP+-48]
	callq	find_section_start
	movq	%rax, %r14
.Ltmp32:
	#DEBUG_VALUE: input_to_data:s <- R14
	movl	$4096, %edi             # imm = 0x1000
	.loc	1 41 23                 # local_support.c:41:23
	callq	malloc
	movq	%rax, %r15
.Ltmp33:
	#DEBUG_VALUE: input_to_data:nodes <- R15
	movl	$4096, %esi             # imm = 0x1000
	movl	$3, %edx
	movq	%r15, %rdi
	callq	_KMalloc
	movabsq	$7959349761315295556, %rdi # imm = 0x6E754A6FFE49D144
	xorl	%esi, %esi
	callq	_KPrepCall
	callq	_KEnqArgConst
	movl	$4, %edi
	callq	_KLinkReturn
	movl	$512, %edx              # imm = 0x200
	.loc	1 42 3                  # local_support.c:42:3
	movq	%r14, %rdi
	movq	%r15, %rsi
	callq	parse_uint64_t_array
.Ltmp34:
	#DEBUG_VALUE: input_to_data:i <- 0
	movl	$11, %edi
	callq	_KInduction
	movl	$1, %esi
	movabsq	$3942913487924944582, %rdi # imm = 0x36B80AED43DCDEC6
	callq	_KEnterRegion
	movl	$1, %edi
	callq	_KWork
	movl	$13, %edi
	movl	$11, %esi
	movl	$1, %edx
	callq	_KTimestamp1
	movq	%r13, %r14
.Ltmp35:
	#DEBUG_VALUE: input_to_data:vdata <- R14
	movabsq	$-5663682203455584383, %r13 # imm = 0xB1668F0B1E540781
.Ltmp36:
	.align	16, 0x90
.LBB1_3:                                # %for.body8
                                        # =>This Inner Loop Header: Depth=1
	#DEBUG_VALUE: input_to_data:vdata <- R14
	#DEBUG_VALUE: input_to_data:i <- 0
	#DEBUG_VALUE: input_to_data:p <- [RBP+-48]
	#DEBUG_VALUE: input_to_data:nodes <- R15
	movl	$2, %esi
	movq	%r13, %rdi
	callq	_KEnterRegion
	movl	$13, %edi
	callq	_KPushCDep
	movl	$15, %edi
	callq	_KWork
	leaq	(%r15,%r12), %rdi
	movl	$5, %esi
	movl	$6, %edx
	movl	$8, %ecx
	callq	_KLoad1
	.loc	1 44 33                 # local_support.c:44:33
.Ltmp37:
	movq	(%r15,%r12), %rbx
	movl	$5, %edi
	movl	$5, %esi
	xorl	%edx, %edx
	callq	_KTimestamp1
	leaq	(%r14,%r12), %rsi
	movl	$5, %edi
	movl	$8, %edx
	callq	_KStore
	.loc	1 44 5 is_stmt 0        # local_support.c:44:5
	movq	%rbx, (%r14,%r12)
	leaq	8(%r15,%r12), %rdi
	movl	$7, %esi
	movl	$8, %edx
	movl	$8, %ecx
	callq	_KLoad1
	.loc	1 45 31 is_stmt 1       # local_support.c:45:31
	movq	8(%r15,%r12), %rbx
	movl	$7, %edi
	movl	$7, %esi
	xorl	%edx, %edx
	callq	_KTimestamp1
	leaq	8(%r14,%r12), %rsi
	movl	$7, %edi
	movl	$8, %edx
	callq	_KStore
	.loc	1 45 5 is_stmt 0        # local_support.c:45:5
	movq	%rbx, 8(%r14,%r12)
	callq	_KPopCDep
	movl	$2, %esi
	movq	%r13, %rdi
	callq	_KExitRegion
	movl	$1, %edi
	callq	_KWork
	movl	$13, %edi
	movl	$11, %esi
	movl	$1, %edx
	callq	_KTimestamp1
.Ltmp38:
	.loc	1 43 3 is_stmt 1        # local_support.c:43:3
	addq	$16, %r12
	cmpq	$4096, %r12             # imm = 0x1000
	jne	.LBB1_3
.Ltmp39:
# BB#4:                                 # %for.cond6.pre_exit.for.end18
	#DEBUG_VALUE: input_to_data:vdata <- R14
	#DEBUG_VALUE: input_to_data:i <- 0
	#DEBUG_VALUE: input_to_data:p <- [RBP+-48]
	#DEBUG_VALUE: input_to_data:nodes <- R15
	movl	$1, %esi
	movabsq	$3942913487924944582, %rdi # imm = 0x36B80AED43DCDEC6
	callq	_KExitRegion
	.loc	1 47 3                  # local_support.c:47:3
	movq	%r15, %rdi
	callq	free
	movabsq	$-2027966727635343845, %rdi # imm = 0xE3DB37017EFBE61B
	xorl	%esi, %esi
	callq	_KPrepCall
	callq	_KEnqArgConst
	movq	%r15, %rdi
	callq	_KFree
	movl	$3, %esi
	movq	-48(%rbp), %rbx         # 8-byte Reload
.Ltmp40:
	#DEBUG_VALUE: input_to_data:p <- RBX
	.loc	1 49 7                  # local_support.c:49:7
	movq	%rbx, %rdi
	callq	find_section_start
	movq	%rax, %r15
.Ltmp41:
	#DEBUG_VALUE: input_to_data:s <- R15
	.loc	1 50 39                 # local_support.c:50:39
	addq	$4096, %r14             # imm = 0x1000
.Ltmp42:
	movabsq	$7715094492455699566, %rdi # imm = 0x6B1185908765046E
	xorl	%esi, %esi
	callq	_KPrepCall
	callq	_KEnqArgConst
	movl	$9, %edi
	callq	_KLinkReturn
	movl	$4096, %edx             # imm = 0x1000
	.loc	1 50 3 is_stmt 0        # local_support.c:50:3
	movq	%r15, %rdi
	movq	%r14, %rsi
	callq	parse_uint64_t_array
	.loc	1 51 3 is_stmt 1        # local_support.c:51:3
	movq	%rbx, %rdi
	callq	free
	movq	%rbx, %rdi
	callq	_KFree
	xorl	%esi, %esi
	movabsq	$-6621481163062197625, %rdi # imm = 0xA41BC5F6DCBCC287
	addq	$8, %rsp
	popq	%rbx
.Ltmp43:
	popq	%r12
	popq	%r13
	popq	%r14
	popq	%r15
.Ltmp44:
	popq	%rbp
	jmp	_KExitRegion            # TAILCALL
.Ltmp45:
.Ltmp46:
	.size	input_to_data, .Ltmp46-input_to_data
.Lfunc_end1:
	.cfi_endproc

	.globl	data_to_input
	.align	16, 0x90
	.type	data_to_input,@function
data_to_input:                          # @data_to_input
.Lfunc_begin2:
	.loc	1 54 0                  # local_support.c:54:0
	.cfi_startproc
# BB#0:                                 # %entry
	pushq	%rbp
.Ltmp47:
	.cfi_def_cfa_offset 16
.Ltmp48:
	.cfi_offset %rbp, -16
	movq	%rsp, %rbp
.Ltmp49:
	.cfi_def_cfa_register %rbp
	pushq	%r15
	pushq	%r14
	pushq	%r13
	pushq	%r12
	pushq	%rbx
	pushq	%rax
.Ltmp50:
	.cfi_offset %rbx, -56
.Ltmp51:
	.cfi_offset %r12, -48
.Ltmp52:
	.cfi_offset %r13, -40
.Ltmp53:
	.cfi_offset %r14, -32
.Ltmp54:
	.cfi_offset %r15, -24
	#DEBUG_VALUE: data_to_input:fd <- EDI
	#DEBUG_VALUE: data_to_input:vdata <- RSI
	movq	%rsi, %r15
.Ltmp55:
	#DEBUG_VALUE: data_to_input:vdata <- R15
	movl	%edi, %ebx
.Ltmp56:
	#DEBUG_VALUE: data_to_input:fd <- EBX
	movl	%ebx, -44(%rbp)         # 4-byte Spill
	movabsq	$8265711678329185454, %rdi # imm = 0x72B5B4FA529BE4AE
	xorl	%r12d, %r12d
	xorl	%esi, %esi
	callq	_KEnterRegion
	movl	$13, %edi
	movl	$2, %esi
	callq	_KPrepRTable
	movl	$1, %edi
	callq	_KDeqArg
	movl	$1, %edi
	movl	$1, %esi
	xorl	%edx, %edx
	callq	_KTimestamp1
	movabsq	$-3681419575134453250, %rdi # imm = 0xCCE8F866C2F101FE
	xorl	%esi, %esi
	callq	_KPrepCall
	movl	$1, %edi
	callq	_KEnqArg
	movl	$2, %edi
	callq	_KLinkReturn
	.loc	1 60 3 prologue_end     # local_support.c:60:3
.Ltmp57:
	movl	%ebx, %edi
	callq	write_section_header
	.loc	1 61 28                 # local_support.c:61:28
	leaq	36864(%r15), %r14
	movabsq	$-6871032354335469159, %rdi # imm = 0xA0A5307A5F9E5199
	xorl	%esi, %esi
	callq	_KPrepCall
	callq	_KEnqArgConst
	movl	$1, %edi
	callq	_KEnqArg
	movl	$3, %edi
	callq	_KLinkReturn
	movl	$1, %edx
	.loc	1 61 3 is_stmt 0        # local_support.c:61:3
	movl	%ebx, %edi
	movq	%r14, %rsi
	callq	write_uint64_t_array
	movabsq	$-281345025543057582, %rdi # imm = 0xFC1876309D2ECF52
	xorl	%esi, %esi
	callq	_KPrepCall
	movl	$1, %edi
	callq	_KEnqArg
	movl	$4, %edi
	callq	_KLinkReturn
	.loc	1 63 3 is_stmt 1        # local_support.c:63:3
	movl	%ebx, %edi
.Ltmp58:
	#DEBUG_VALUE: data_to_input:fd <- [RBP+-44]
	callq	write_section_header
	movl	$4096, %edi             # imm = 0x1000
	.loc	1 64 23                 # local_support.c:64:23
	callq	malloc
	movq	%rax, %r14
	movl	$4096, %esi             # imm = 0x1000
	movl	$5, %edx
	movq	%r14, %rdi
	callq	_KMalloc
.Ltmp59:
	#DEBUG_VALUE: data_to_input:i <- 0
	movl	$11, %edi
	callq	_KInduction
	movl	$1, %esi
	movabsq	$5235132730030851030, %rdi # imm = 0x48A6ED7B258283D6
	callq	_KEnterRegion
	movl	$1, %edi
	callq	_KWork
	movl	$12, %edi
	movl	$11, %esi
	movl	$1, %edx
	callq	_KTimestamp1
	movabsq	$-4424543312561993335, %r13 # imm = 0xC298DD4CA9698989
.Ltmp60:
	.align	16, 0x90
.LBB2_1:                                # %for.body
                                        # =>This Inner Loop Header: Depth=1
	#DEBUG_VALUE: data_to_input:fd <- [RBP+-44]
	#DEBUG_VALUE: data_to_input:vdata <- R15
	#DEBUG_VALUE: data_to_input:i <- 0
	movl	$2, %esi
	movq	%r13, %rdi
	callq	_KEnterRegion
	movl	$12, %edi
	callq	_KPushCDep
	movl	$15, %edi
	callq	_KWork
	leaq	(%r15,%r12), %rdi
	movl	$6, %esi
	movl	$8, %edx
	callq	_KLoad0
	.loc	1 66 19                 # local_support.c:66:19
.Ltmp61:
	movq	(%r15,%r12), %rbx
	movl	$6, %edi
	movl	$6, %esi
	xorl	%edx, %edx
	callq	_KTimestamp1
	leaq	(%r14,%r12), %rsi
	movl	$6, %edi
	movl	$8, %edx
	callq	_KStore
	.loc	1 66 5 is_stmt 0        # local_support.c:66:5
	movq	%rbx, (%r14,%r12)
	leaq	8(%r15,%r12), %rdi
	movl	$7, %esi
	movl	$8, %edx
	callq	_KLoad0
	.loc	1 67 19 is_stmt 1       # local_support.c:67:19
	movq	8(%r15,%r12), %rbx
	movl	$7, %edi
	movl	$7, %esi
	xorl	%edx, %edx
	callq	_KTimestamp1
	leaq	8(%r14,%r12), %rsi
	movl	$7, %edi
	movl	$8, %edx
	callq	_KStore
	.loc	1 67 5 is_stmt 0        # local_support.c:67:5
	movq	%rbx, 8(%r14,%r12)
	callq	_KPopCDep
	movl	$2, %esi
	movq	%r13, %rdi
	callq	_KExitRegion
	movl	$1, %edi
	callq	_KWork
	movl	$12, %edi
	movl	$11, %esi
	movl	$1, %edx
	callq	_KTimestamp1
.Ltmp62:
	.loc	1 65 3 is_stmt 1        # local_support.c:65:3
	addq	$16, %r12
	cmpq	$4096, %r12             # imm = 0x1000
	jne	.LBB2_1
.Ltmp63:
# BB#2:                                 # %for.cond.pre_exit.for.end
	#DEBUG_VALUE: data_to_input:fd <- [RBP+-44]
	#DEBUG_VALUE: data_to_input:vdata <- R15
	#DEBUG_VALUE: data_to_input:i <- 0
	movl	$1, %esi
	movabsq	$5235132730030851030, %rdi # imm = 0x48A6ED7B258283D6
	callq	_KExitRegion
	movabsq	$7537380459259728397, %rdi # imm = 0x689A2797CB25920D
	xorl	%esi, %esi
	callq	_KPrepCall
	callq	_KEnqArgConst
	movl	$1, %edi
	callq	_KEnqArg
	movl	$8, %edi
	callq	_KLinkReturn
	movl	$512, %edx              # imm = 0x200
	movl	-44(%rbp), %r12d        # 4-byte Reload
.Ltmp64:
	#DEBUG_VALUE: data_to_input:fd <- R12D
	.loc	1 69 3                  # local_support.c:69:3
	movl	%r12d, %edi
	movq	%r14, %rsi
	callq	write_uint64_t_array
	.loc	1 70 3                  # local_support.c:70:3
	movq	%r14, %rdi
	callq	free
	movabsq	$-8854413175089048993, %rdi # imm = 0x851ECE214447525F
	xorl	%esi, %esi
	callq	_KPrepCall
	movl	$1, %edi
	callq	_KEnqArg
	movl	$9, %edi
	callq	_KLinkReturn
	movq	%r14, %rdi
	callq	_KFree
	.loc	1 72 3                  # local_support.c:72:3
	movl	%r12d, %edi
	callq	write_section_header
	.loc	1 73 41                 # local_support.c:73:41
	addq	$4096, %r15             # imm = 0x1000
.Ltmp65:
	movabsq	$-4990423473989383064, %rdi # imm = 0xBABE744A72178C68
	xorl	%esi, %esi
	callq	_KPrepCall
	callq	_KEnqArgConst
	movl	$1, %edi
	callq	_KEnqArg
	movl	$10, %edi
	callq	_KLinkReturn
	movl	$4096, %edx             # imm = 0x1000
	.loc	1 73 3 is_stmt 0        # local_support.c:73:3
	movl	%r12d, %edi
	movq	%r15, %rsi
	callq	write_uint64_t_array
	xorl	%esi, %esi
	movabsq	$8265711678329185454, %rdi # imm = 0x72B5B4FA529BE4AE
	addq	$8, %rsp
	popq	%rbx
	popq	%r12
.Ltmp66:
	popq	%r13
	popq	%r14
	popq	%r15
	popq	%rbp
	jmp	_KExitRegion            # TAILCALL
.Ltmp67:
.Ltmp68:
	.size	data_to_input, .Ltmp68-data_to_input
.Lfunc_end2:
	.cfi_endproc

	.globl	output_to_data
	.align	16, 0x90
	.type	output_to_data,@function
output_to_data:                         # @output_to_data
.Lfunc_begin3:
	.loc	1 81 0 is_stmt 1        # local_support.c:81:0
	.cfi_startproc
# BB#0:                                 # %entry
	pushq	%rbp
.Ltmp69:
	.cfi_def_cfa_offset 16
.Ltmp70:
	.cfi_offset %rbp, -16
	movq	%rsp, %rbp
.Ltmp71:
	.cfi_def_cfa_register %rbp
	pushq	%r15
	pushq	%r14
	pushq	%r12
	pushq	%rbx
.Ltmp72:
	.cfi_offset %rbx, -48
.Ltmp73:
	.cfi_offset %r12, -40
.Ltmp74:
	.cfi_offset %r14, -32
.Ltmp75:
	.cfi_offset %r15, -24
	#DEBUG_VALUE: output_to_data:fd <- EDI
	#DEBUG_VALUE: output_to_data:vdata <- RSI
	movq	%rsi, %r12
.Ltmp76:
	#DEBUG_VALUE: output_to_data:vdata <- R12
	movl	%edi, %r15d
.Ltmp77:
	#DEBUG_VALUE: output_to_data:fd <- R15D
	movabsq	$-4765534862784228176, %r14 # imm = 0xBDDD6B4A8B0194B0
	xorl	%esi, %esi
	movq	%r14, %rdi
	callq	_KEnterRegion
	movl	$3, %edi
	xorl	%esi, %esi
	callq	_KPrepRTable
	movl	$1, %edi
	callq	_KDeqArg
	xorl	%esi, %esi
	movl	$37208, %edx            # imm = 0x9158
	.loc	1 85 3 prologue_end     # local_support.c:85:3
.Ltmp78:
	movq	%r12, %rdi
	callq	memset
	movabsq	$-385552952406818665, %rdi # imm = 0xFAA63DA1EDB04097
	xorl	%esi, %esi
	callq	_KPrepCall
	movl	$1, %edi
	movl	$1, %esi
	xorl	%edx, %edx
	callq	_KTimestamp1
	movl	$1, %edi
	callq	_KEnqArg
	.loc	1 87 7                  # local_support.c:87:7
	movl	%r15d, %edi
.Ltmp79:
	#DEBUG_VALUE: output_to_data:fd <- EDI
	callq	readfile
	movq	%rax, %rbx
.Ltmp80:
	#DEBUG_VALUE: output_to_data:p <- RBX
	movabsq	$6643313995768179371, %rdi # imm = 0x5C31CAE1A124AAAB
.Ltmp81:
	xorl	%esi, %esi
	callq	_KPrepCall
	callq	_KEnqArgConst
	movl	$1, %esi
	.loc	1 89 7                  # local_support.c:89:7
	movq	%rbx, %rdi
	callq	find_section_start
	movq	%rax, %r15
.Ltmp82:
	#DEBUG_VALUE: output_to_data:s <- R15
	.loc	1 90 27                 # local_support.c:90:27
	addq	$37128, %r12            # imm = 0x9108
.Ltmp83:
	movabsq	$-3240041808338003435, %rdi # imm = 0xD3090F244C995A15
	xorl	%esi, %esi
	callq	_KPrepCall
	callq	_KEnqArgConst
	movl	$2, %edi
	callq	_KLinkReturn
	movl	$10, %edx
	.loc	1 90 3 is_stmt 0        # local_support.c:90:3
	movq	%r15, %rdi
	movq	%r12, %rsi
	callq	parse_uint64_t_array
	.loc	1 91 3 is_stmt 1        # local_support.c:91:3
	movq	%rbx, %rdi
	callq	free
	movq	%rbx, %rdi
	callq	_KFree
	xorl	%esi, %esi
	movq	%r14, %rdi
	popq	%rbx
.Ltmp84:
	popq	%r12
	popq	%r14
	popq	%r15
.Ltmp85:
	popq	%rbp
	jmp	_KExitRegion            # TAILCALL
.Ltmp86:
.Ltmp87:
	.size	output_to_data, .Ltmp87-output_to_data
.Lfunc_end3:
	.cfi_endproc

	.globl	data_to_output
	.align	16, 0x90
	.type	data_to_output,@function
data_to_output:                         # @data_to_output
.Lfunc_begin4:
	.loc	1 94 0                  # local_support.c:94:0
	.cfi_startproc
# BB#0:                                 # %entry
	pushq	%rbp
.Ltmp88:
	.cfi_def_cfa_offset 16
.Ltmp89:
	.cfi_offset %rbp, -16
	movq	%rsp, %rbp
.Ltmp90:
	.cfi_def_cfa_register %rbp
	pushq	%r15
	pushq	%r14
	pushq	%rbx
	pushq	%rax
.Ltmp91:
	.cfi_offset %rbx, -40
.Ltmp92:
	.cfi_offset %r14, -32
.Ltmp93:
	.cfi_offset %r15, -24
	#DEBUG_VALUE: data_to_output:fd <- EDI
	#DEBUG_VALUE: data_to_output:vdata <- RSI
	movq	%rsi, %rbx
.Ltmp94:
	#DEBUG_VALUE: data_to_output:vdata <- RBX
	movl	%edi, %r15d
.Ltmp95:
	#DEBUG_VALUE: data_to_output:fd <- R15D
	movabsq	$2262382145700601508, %r14 # imm = 0x1F6598932CAB9EA4
	xorl	%esi, %esi
	movq	%r14, %rdi
	callq	_KEnterRegion
	movl	$4, %edi
	xorl	%esi, %esi
	callq	_KPrepRTable
	movl	$1, %edi
	callq	_KDeqArg
	movabsq	$-3411391565196058204, %rdi # imm = 0xD0A84D721EB9A1A4
	xorl	%esi, %esi
	callq	_KPrepCall
	movl	$1, %edi
	movl	$1, %esi
	xorl	%edx, %edx
	callq	_KTimestamp1
	movl	$1, %edi
	callq	_KEnqArg
	movl	$2, %edi
	callq	_KLinkReturn
	.loc	1 97 3 prologue_end     # local_support.c:97:3
.Ltmp96:
	movl	%r15d, %edi
	callq	write_section_header
	.loc	1 98 28                 # local_support.c:98:28
	addq	$37128, %rbx            # imm = 0x9108
.Ltmp97:
	movabsq	$4983694839061206089, %rdi # imm = 0x4529A40D2730D449
	xorl	%esi, %esi
	callq	_KPrepCall
	callq	_KEnqArgConst
	movl	$1, %edi
	callq	_KEnqArg
	movl	$3, %edi
	callq	_KLinkReturn
	movl	$10, %edx
	.loc	1 98 3 is_stmt 0        # local_support.c:98:3
	movl	%r15d, %edi
	movq	%rbx, %rsi
	callq	write_uint64_t_array
	xorl	%esi, %esi
	movq	%r14, %rdi
	addq	$8, %rsp
	popq	%rbx
	popq	%r14
	popq	%r15
.Ltmp98:
	popq	%rbp
	jmp	_KExitRegion            # TAILCALL
.Ltmp99:
.Ltmp100:
	.size	data_to_output, .Ltmp100-data_to_output
.Lfunc_end4:
	.cfi_endproc

	.globl	check_data
	.align	16, 0x90
	.type	check_data,@function
check_data:                             # @check_data
.Lfunc_begin5:
	.loc	1 101 0 is_stmt 1       # local_support.c:101:0
	.cfi_startproc
# BB#0:                                 # %entry
	pushq	%rbp
.Ltmp101:
	.cfi_def_cfa_offset 16
.Ltmp102:
	.cfi_offset %rbp, -16
	movq	%rsp, %rbp
.Ltmp103:
	.cfi_def_cfa_register %rbp
	pushq	%r15
	pushq	%r14
	pushq	%r13
	pushq	%r12
	pushq	%rbx
	subq	$40, %rsp
.Ltmp104:
	.cfi_offset %rbx, -56
.Ltmp105:
	.cfi_offset %r12, -48
.Ltmp106:
	.cfi_offset %r13, -40
.Ltmp107:
	.cfi_offset %r14, -32
.Ltmp108:
	.cfi_offset %r15, -24
	#DEBUG_VALUE: check_data:vdata <- RDI
	#DEBUG_VALUE: check_data:vref <- RSI
	movq	%rsi, %r12
.Ltmp109:
	#DEBUG_VALUE: check_data:vref <- R12
	movq	%rdi, %r15
.Ltmp110:
	#DEBUG_VALUE: check_data:vdata <- R15
	movabsq	$-3548828170442917727, %r14 # imm = 0xCEC00794DBD9B8A1
	movabsq	$-5781956682475224108, %rdi # imm = 0xAFC25D080A5E43D4
	xorl	%r13d, %r13d
	xorl	%esi, %esi
	callq	_KEnterRegion
	movl	$8, %edi
	movl	$2, %esi
	callq	_KPrepRTable
.Ltmp111:
	#DEBUG_VALUE: check_data:i <- 0
	#DEBUG_VALUE: check_data:has_errors <- 0
	movl	$5, %edi
	callq	_KInduction
	movl	$1, %esi
	movq	%r14, %rdi
	callq	_KEnterRegion
	addq	$37128, %r12            # imm = 0x9108
.Ltmp112:
	addq	$37128, %r15            # imm = 0x9108
.Ltmp113:
	movq	%r15, -56(%rbp)         # 8-byte Spill
	movabsq	$-7393363606133996519, %r14 # imm = 0x99657EF8D1150419
	xorl	%edx, %edx
	xorl	%r15d, %r15d
	xorl	%eax, %eax
	movq	%rax, -48(%rbp)         # 8-byte Spill
	jmp	.LBB5_1
	.align	16, 0x90
.LBB5_2:                                # %for.body
                                        #   in Loop: Header=BB5_1 Depth=1
	#DEBUG_VALUE: check_data:has_errors <- 0
	#DEBUG_VALUE: check_data:i <- 0
	movl	$2, %esi
	movq	%r14, %rdi
	callq	_KEnterRegion
	movl	$7, %edi
	callq	_KPushCDep
	movl	$10, %edi
	callq	_KWork
	movq	-56(%rbp), %rbx         # 8-byte Reload
	leaq	(%rbx,%r13), %rdi
	movl	$1, %esi
	movl	$8, %edx
	callq	_KLoad0
	.loc	1 109 20 prologue_end   # local_support.c:109:20
.Ltmp114:
	movq	(%rbx,%r13), %rbx
	leaq	(%r12,%r13), %rdi
	movl	$2, %esi
	movl	$8, %edx
	callq	_KLoad0
	cmpq	(%r12,%r13), %rbx
	setne	%al
	movzbl	%al, %eax
	.loc	1 109 5 is_stmt 0       # local_support.c:109:5
	movq	-48(%rbp), %rcx         # 8-byte Reload
	orl	%eax, %ecx
.Ltmp115:
	#DEBUG_VALUE: check_data:has_errors <- [RBP+-48]
	movq	%rcx, -48(%rbp)         # 8-byte Spill
	movl	$2, 16(%rsp)
	movl	$2, 8(%rsp)
	movl	$2, (%rsp)
	movl	$6, %r15d
	movl	$6, %edi
	movl	$4, %esi
	movl	$1, %edx
	movl	$7, %ecx
	movl	$2, %r8d
	movl	$1, %r9d
	callq	_KTimestamp4
	callq	_KPopCDep
	movl	$2, %esi
	movq	%r14, %rdi
	callq	_KExitRegion
	movl	$7, %edx
	addq	$8, %r13
.Ltmp116:
.LBB5_1:                                # %for.cond
                                        # =>This Inner Loop Header: Depth=1
	#DEBUG_VALUE: check_data:has_errors <- 0
	#DEBUG_VALUE: check_data:i <- 0
	movl	$4, %edi
	movl	%r15d, %esi
                                        # kill: EDX<def> EDX<kill> RDX<kill>
	callq	_KPhi1To1
	movl	$1, %edi
	callq	_KWork
	movl	$7, %edi
	movl	$5, %esi
	movl	$1, %edx
	callq	_KTimestamp1
	movl	$4, %edi
	movl	$7, %esi
	callq	_KPhiAddCond
	movl	$4, %edi
	movl	$4, %esi
	xorl	%edx, %edx
	callq	_KTimestamp1
	.loc	1 108 3 is_stmt 1       # local_support.c:108:3
	cmpq	$80, %r13
	jne	.LBB5_2
.Ltmp117:
# BB#3:                                 # %for.cond.pre_exit.for.end
	#DEBUG_VALUE: check_data:has_errors <- 0
	#DEBUG_VALUE: check_data:i <- 0
	movl	$1, %esi
	movabsq	$-3548828170442917727, %rdi # imm = 0xCEC00794DBD9B8A1
	callq	_KExitRegion
	movl	$2, %edi
	callq	_KWork
	.loc	1 113 10                # local_support.c:113:10
	movq	-48(%rbp), %rax         # 8-byte Reload
	testl	%eax, %eax
	sete	%al
	movzbl	%al, %ebx
	movl	$3, %edi
	movl	$4, %esi
	movl	$2, %edx
	callq	_KTimestamp1
	movl	$3, %edi
	callq	_KReturn
	xorl	%esi, %esi
	movabsq	$-5781956682475224108, %rdi # imm = 0xAFC25D080A5E43D4
	callq	_KExitRegion
	.loc	1 113 3 is_stmt 0       # local_support.c:113:3
	movl	%ebx, %eax
	addq	$40, %rsp
	popq	%rbx
	popq	%r12
	popq	%r13
	popq	%r14
	popq	%r15
	popq	%rbp
	retq
.Ltmp118:
.Ltmp119:
	.size	check_data, .Ltmp119-check_data
.Lfunc_end5:
	.cfi_endproc

	.type	INPUT_SIZE,@object      # @INPUT_SIZE
	.data
	.globl	INPUT_SIZE
	.align	4
INPUT_SIZE:
	.long	37208                   # 0x9158
	.size	INPUT_SIZE, 4

	.type	krem_prefix7660a2f80b8b8568_krem_callsiteId_krem_local_support.c_krem_run_benchmark_krem_9_krem_9_krem_,@object # @krem_prefix7660a2f80b8b8568_krem_callsiteId_krem_local_support.c_krem_run_benchmark_krem_9_krem_9_krem_
	.bss
	.globl	krem_prefix7660a2f80b8b8568_krem_callsiteId_krem_local_support.c_krem_run_benchmark_krem_9_krem_9_krem_
krem_prefix7660a2f80b8b8568_krem_callsiteId_krem_local_support.c_krem_run_benchmark_krem_9_krem_9_krem_:
	.byte	0                       # 0x0
	.size	krem_prefix7660a2f80b8b8568_krem_callsiteId_krem_local_support.c_krem_run_benchmark_krem_9_krem_9_krem_, 1

	.type	krem_prefix8a006b07d7d6c525_krem_callsiteId_krem_local_support.c_krem_input_to_data_krem_34_krem_34_krem_,@object # @krem_prefix8a006b07d7d6c525_krem_callsiteId_krem_local_support.c_krem_input_to_data_krem_34_krem_34_krem_
	.globl	krem_prefix8a006b07d7d6c525_krem_callsiteId_krem_local_support.c_krem_input_to_data_krem_34_krem_34_krem_
krem_prefix8a006b07d7d6c525_krem_callsiteId_krem_local_support.c_krem_input_to_data_krem_34_krem_34_krem_:
	.byte	0                       # 0x0
	.size	krem_prefix8a006b07d7d6c525_krem_callsiteId_krem_local_support.c_krem_input_to_data_krem_34_krem_34_krem_, 1

	.type	krem_prefix8bc7e39a1407b73d_krem_callsiteId_krem_local_support.c_krem_input_to_data_krem_36_krem_36_krem_,@object # @krem_prefix8bc7e39a1407b73d_krem_callsiteId_krem_local_support.c_krem_input_to_data_krem_36_krem_36_krem_
	.globl	krem_prefix8bc7e39a1407b73d_krem_callsiteId_krem_local_support.c_krem_input_to_data_krem_36_krem_36_krem_
krem_prefix8bc7e39a1407b73d_krem_callsiteId_krem_local_support.c_krem_input_to_data_krem_36_krem_36_krem_:
	.byte	0                       # 0x0
	.size	krem_prefix8bc7e39a1407b73d_krem_callsiteId_krem_local_support.c_krem_input_to_data_krem_36_krem_36_krem_, 1

	.type	krem_prefixf29c0de2122d3561_krem_callsiteId_krem_local_support.c_krem_input_to_data_krem_37_krem_37_krem_,@object # @krem_prefixf29c0de2122d3561_krem_callsiteId_krem_local_support.c_krem_input_to_data_krem_37_krem_37_krem_
	.globl	krem_prefixf29c0de2122d3561_krem_callsiteId_krem_local_support.c_krem_input_to_data_krem_37_krem_37_krem_
krem_prefixf29c0de2122d3561_krem_callsiteId_krem_local_support.c_krem_input_to_data_krem_37_krem_37_krem_:
	.byte	0                       # 0x0
	.size	krem_prefixf29c0de2122d3561_krem_callsiteId_krem_local_support.c_krem_input_to_data_krem_37_krem_37_krem_, 1

	.type	krem_prefix5fb0cb1e3d84854a_krem_callsiteId_krem_local_support.c_krem_input_to_data_krem_40_krem_40_krem_,@object # @krem_prefix5fb0cb1e3d84854a_krem_callsiteId_krem_local_support.c_krem_input_to_data_krem_40_krem_40_krem_
	.globl	krem_prefix5fb0cb1e3d84854a_krem_callsiteId_krem_local_support.c_krem_input_to_data_krem_40_krem_40_krem_
krem_prefix5fb0cb1e3d84854a_krem_callsiteId_krem_local_support.c_krem_input_to_data_krem_40_krem_40_krem_:
	.byte	0                       # 0x0
	.size	krem_prefix5fb0cb1e3d84854a_krem_callsiteId_krem_local_support.c_krem_input_to_data_krem_40_krem_40_krem_, 1

	.type	krem_prefix6e754a6ffe49d144_krem_callsiteId_krem_local_support.c_krem_input_to_data_krem_42_krem_42_krem_,@object # @krem_prefix6e754a6ffe49d144_krem_callsiteId_krem_local_support.c_krem_input_to_data_krem_42_krem_42_krem_
	.globl	krem_prefix6e754a6ffe49d144_krem_callsiteId_krem_local_support.c_krem_input_to_data_krem_42_krem_42_krem_
krem_prefix6e754a6ffe49d144_krem_callsiteId_krem_local_support.c_krem_input_to_data_krem_42_krem_42_krem_:
	.byte	0                       # 0x0
	.size	krem_prefix6e754a6ffe49d144_krem_callsiteId_krem_local_support.c_krem_input_to_data_krem_42_krem_42_krem_, 1

	.type	krem_prefixe3db37017efbe61b_krem_callsiteId_krem_local_support.c_krem_input_to_data_krem_49_krem_49_krem_,@object # @krem_prefixe3db37017efbe61b_krem_callsiteId_krem_local_support.c_krem_input_to_data_krem_49_krem_49_krem_
	.globl	krem_prefixe3db37017efbe61b_krem_callsiteId_krem_local_support.c_krem_input_to_data_krem_49_krem_49_krem_
krem_prefixe3db37017efbe61b_krem_callsiteId_krem_local_support.c_krem_input_to_data_krem_49_krem_49_krem_:
	.byte	0                       # 0x0
	.size	krem_prefixe3db37017efbe61b_krem_callsiteId_krem_local_support.c_krem_input_to_data_krem_49_krem_49_krem_, 1

	.type	krem_prefix6b1185908765046e_krem_callsiteId_krem_local_support.c_krem_input_to_data_krem_50_krem_50_krem_,@object # @krem_prefix6b1185908765046e_krem_callsiteId_krem_local_support.c_krem_input_to_data_krem_50_krem_50_krem_
	.globl	krem_prefix6b1185908765046e_krem_callsiteId_krem_local_support.c_krem_input_to_data_krem_50_krem_50_krem_
krem_prefix6b1185908765046e_krem_callsiteId_krem_local_support.c_krem_input_to_data_krem_50_krem_50_krem_:
	.byte	0                       # 0x0
	.size	krem_prefix6b1185908765046e_krem_callsiteId_krem_local_support.c_krem_input_to_data_krem_50_krem_50_krem_, 1

	.type	krem_prefixcce8f866c2f101fe_krem_callsiteId_krem_local_support.c_krem_data_to_input_krem_60_krem_60_krem_,@object # @krem_prefixcce8f866c2f101fe_krem_callsiteId_krem_local_support.c_krem_data_to_input_krem_60_krem_60_krem_
	.globl	krem_prefixcce8f866c2f101fe_krem_callsiteId_krem_local_support.c_krem_data_to_input_krem_60_krem_60_krem_
krem_prefixcce8f866c2f101fe_krem_callsiteId_krem_local_support.c_krem_data_to_input_krem_60_krem_60_krem_:
	.byte	0                       # 0x0
	.size	krem_prefixcce8f866c2f101fe_krem_callsiteId_krem_local_support.c_krem_data_to_input_krem_60_krem_60_krem_, 1

	.type	krem_prefixa0a5307a5f9e5199_krem_callsiteId_krem_local_support.c_krem_data_to_input_krem_61_krem_61_krem_,@object # @krem_prefixa0a5307a5f9e5199_krem_callsiteId_krem_local_support.c_krem_data_to_input_krem_61_krem_61_krem_
	.globl	krem_prefixa0a5307a5f9e5199_krem_callsiteId_krem_local_support.c_krem_data_to_input_krem_61_krem_61_krem_
krem_prefixa0a5307a5f9e5199_krem_callsiteId_krem_local_support.c_krem_data_to_input_krem_61_krem_61_krem_:
	.byte	0                       # 0x0
	.size	krem_prefixa0a5307a5f9e5199_krem_callsiteId_krem_local_support.c_krem_data_to_input_krem_61_krem_61_krem_, 1

	.type	krem_prefixfc1876309d2ecf52_krem_callsiteId_krem_local_support.c_krem_data_to_input_krem_63_krem_63_krem_,@object # @krem_prefixfc1876309d2ecf52_krem_callsiteId_krem_local_support.c_krem_data_to_input_krem_63_krem_63_krem_
	.globl	krem_prefixfc1876309d2ecf52_krem_callsiteId_krem_local_support.c_krem_data_to_input_krem_63_krem_63_krem_
krem_prefixfc1876309d2ecf52_krem_callsiteId_krem_local_support.c_krem_data_to_input_krem_63_krem_63_krem_:
	.byte	0                       # 0x0
	.size	krem_prefixfc1876309d2ecf52_krem_callsiteId_krem_local_support.c_krem_data_to_input_krem_63_krem_63_krem_, 1

	.type	krem_prefix689a2797cb25920d_krem_callsiteId_krem_local_support.c_krem_data_to_input_krem_69_krem_69_krem_,@object # @krem_prefix689a2797cb25920d_krem_callsiteId_krem_local_support.c_krem_data_to_input_krem_69_krem_69_krem_
	.globl	krem_prefix689a2797cb25920d_krem_callsiteId_krem_local_support.c_krem_data_to_input_krem_69_krem_69_krem_
krem_prefix689a2797cb25920d_krem_callsiteId_krem_local_support.c_krem_data_to_input_krem_69_krem_69_krem_:
	.byte	0                       # 0x0
	.size	krem_prefix689a2797cb25920d_krem_callsiteId_krem_local_support.c_krem_data_to_input_krem_69_krem_69_krem_, 1

	.type	krem_prefix851ece214447525f_krem_callsiteId_krem_local_support.c_krem_data_to_input_krem_72_krem_72_krem_,@object # @krem_prefix851ece214447525f_krem_callsiteId_krem_local_support.c_krem_data_to_input_krem_72_krem_72_krem_
	.globl	krem_prefix851ece214447525f_krem_callsiteId_krem_local_support.c_krem_data_to_input_krem_72_krem_72_krem_
krem_prefix851ece214447525f_krem_callsiteId_krem_local_support.c_krem_data_to_input_krem_72_krem_72_krem_:
	.byte	0                       # 0x0
	.size	krem_prefix851ece214447525f_krem_callsiteId_krem_local_support.c_krem_data_to_input_krem_72_krem_72_krem_, 1

	.type	krem_prefixbabe744a72178c68_krem_callsiteId_krem_local_support.c_krem_data_to_input_krem_73_krem_73_krem_,@object # @krem_prefixbabe744a72178c68_krem_callsiteId_krem_local_support.c_krem_data_to_input_krem_73_krem_73_krem_
	.globl	krem_prefixbabe744a72178c68_krem_callsiteId_krem_local_support.c_krem_data_to_input_krem_73_krem_73_krem_
krem_prefixbabe744a72178c68_krem_callsiteId_krem_local_support.c_krem_data_to_input_krem_73_krem_73_krem_:
	.byte	0                       # 0x0
	.size	krem_prefixbabe744a72178c68_krem_callsiteId_krem_local_support.c_krem_data_to_input_krem_73_krem_73_krem_, 1

	.type	krem_prefixfaa63da1edb04097_krem_callsiteId_krem_local_support.c_krem_output_to_data_krem_87_krem_87_krem_,@object # @krem_prefixfaa63da1edb04097_krem_callsiteId_krem_local_support.c_krem_output_to_data_krem_87_krem_87_krem_
	.globl	krem_prefixfaa63da1edb04097_krem_callsiteId_krem_local_support.c_krem_output_to_data_krem_87_krem_87_krem_
krem_prefixfaa63da1edb04097_krem_callsiteId_krem_local_support.c_krem_output_to_data_krem_87_krem_87_krem_:
	.byte	0                       # 0x0
	.size	krem_prefixfaa63da1edb04097_krem_callsiteId_krem_local_support.c_krem_output_to_data_krem_87_krem_87_krem_, 1

	.type	krem_prefix5c31cae1a124aaab_krem_callsiteId_krem_local_support.c_krem_output_to_data_krem_89_krem_89_krem_,@object # @krem_prefix5c31cae1a124aaab_krem_callsiteId_krem_local_support.c_krem_output_to_data_krem_89_krem_89_krem_
	.globl	krem_prefix5c31cae1a124aaab_krem_callsiteId_krem_local_support.c_krem_output_to_data_krem_89_krem_89_krem_
krem_prefix5c31cae1a124aaab_krem_callsiteId_krem_local_support.c_krem_output_to_data_krem_89_krem_89_krem_:
	.byte	0                       # 0x0
	.size	krem_prefix5c31cae1a124aaab_krem_callsiteId_krem_local_support.c_krem_output_to_data_krem_89_krem_89_krem_, 1

	.type	krem_prefixd3090f244c995a15_krem_callsiteId_krem_local_support.c_krem_output_to_data_krem_90_krem_90_krem_,@object # @krem_prefixd3090f244c995a15_krem_callsiteId_krem_local_support.c_krem_output_to_data_krem_90_krem_90_krem_
	.globl	krem_prefixd3090f244c995a15_krem_callsiteId_krem_local_support.c_krem_output_to_data_krem_90_krem_90_krem_
krem_prefixd3090f244c995a15_krem_callsiteId_krem_local_support.c_krem_output_to_data_krem_90_krem_90_krem_:
	.byte	0                       # 0x0
	.size	krem_prefixd3090f244c995a15_krem_callsiteId_krem_local_support.c_krem_output_to_data_krem_90_krem_90_krem_, 1

	.type	krem_prefixd0a84d721eb9a1a4_krem_callsiteId_krem_local_support.c_krem_data_to_output_krem_97_krem_97_krem_,@object # @krem_prefixd0a84d721eb9a1a4_krem_callsiteId_krem_local_support.c_krem_data_to_output_krem_97_krem_97_krem_
	.globl	krem_prefixd0a84d721eb9a1a4_krem_callsiteId_krem_local_support.c_krem_data_to_output_krem_97_krem_97_krem_
krem_prefixd0a84d721eb9a1a4_krem_callsiteId_krem_local_support.c_krem_data_to_output_krem_97_krem_97_krem_:
	.byte	0                       # 0x0
	.size	krem_prefixd0a84d721eb9a1a4_krem_callsiteId_krem_local_support.c_krem_data_to_output_krem_97_krem_97_krem_, 1

	.type	krem_prefix4529a40d2730d449_krem_callsiteId_krem_local_support.c_krem_data_to_output_krem_98_krem_98_krem_,@object # @krem_prefix4529a40d2730d449_krem_callsiteId_krem_local_support.c_krem_data_to_output_krem_98_krem_98_krem_
	.globl	krem_prefix4529a40d2730d449_krem_callsiteId_krem_local_support.c_krem_data_to_output_krem_98_krem_98_krem_
krem_prefix4529a40d2730d449_krem_callsiteId_krem_local_support.c_krem_data_to_output_krem_98_krem_98_krem_:
	.byte	0                       # 0x0
	.size	krem_prefix4529a40d2730d449_krem_callsiteId_krem_local_support.c_krem_data_to_output_krem_98_krem_98_krem_, 1

	.type	krem_prefix1f6598932cab9ea4_krem_func_krem_local_support.c_krem_data_to_output_krem_94_krem_94_krem_,@object # @krem_prefix1f6598932cab9ea4_krem_func_krem_local_support.c_krem_data_to_output_krem_94_krem_94_krem_
	.globl	krem_prefix1f6598932cab9ea4_krem_func_krem_local_support.c_krem_data_to_output_krem_94_krem_94_krem_
krem_prefix1f6598932cab9ea4_krem_func_krem_local_support.c_krem_data_to_output_krem_94_krem_94_krem_:
	.byte	0                       # 0x0
	.size	krem_prefix1f6598932cab9ea4_krem_func_krem_local_support.c_krem_data_to_output_krem_94_krem_94_krem_, 1

	.type	krem_prefix359af4d3671ac144_krem_func_krem_local_support.c_krem_run_benchmark_krem_7_krem_7_krem_,@object # @krem_prefix359af4d3671ac144_krem_func_krem_local_support.c_krem_run_benchmark_krem_7_krem_7_krem_
	.globl	krem_prefix359af4d3671ac144_krem_func_krem_local_support.c_krem_run_benchmark_krem_7_krem_7_krem_
krem_prefix359af4d3671ac144_krem_func_krem_local_support.c_krem_run_benchmark_krem_7_krem_7_krem_:
	.byte	0                       # 0x0
	.size	krem_prefix359af4d3671ac144_krem_func_krem_local_support.c_krem_run_benchmark_krem_7_krem_7_krem_, 1

	.type	krem_prefix36b80aed43dcdec6_krem_loop_krem_local_support.c_krem_input_to_data_krem_25_krem_45_krem_,@object # @krem_prefix36b80aed43dcdec6_krem_loop_krem_local_support.c_krem_input_to_data_krem_25_krem_45_krem_
	.globl	krem_prefix36b80aed43dcdec6_krem_loop_krem_local_support.c_krem_input_to_data_krem_25_krem_45_krem_
krem_prefix36b80aed43dcdec6_krem_loop_krem_local_support.c_krem_input_to_data_krem_25_krem_45_krem_:
	.byte	0                       # 0x0
	.size	krem_prefix36b80aed43dcdec6_krem_loop_krem_local_support.c_krem_input_to_data_krem_25_krem_45_krem_, 1

	.type	krem_prefix48a6ed7b258283d6_krem_loop_krem_local_support.c_krem_data_to_input_krem_56_krem_67_krem_,@object # @krem_prefix48a6ed7b258283d6_krem_loop_krem_local_support.c_krem_data_to_input_krem_56_krem_67_krem_
	.globl	krem_prefix48a6ed7b258283d6_krem_loop_krem_local_support.c_krem_data_to_input_krem_56_krem_67_krem_
krem_prefix48a6ed7b258283d6_krem_loop_krem_local_support.c_krem_data_to_input_krem_56_krem_67_krem_:
	.byte	0                       # 0x0
	.size	krem_prefix48a6ed7b258283d6_krem_loop_krem_local_support.c_krem_data_to_input_krem_56_krem_67_krem_, 1

	.type	krem_prefix72b5b4fa529be4ae_krem_func_krem_local_support.c_krem_data_to_input_krem_54_krem_54_krem_,@object # @krem_prefix72b5b4fa529be4ae_krem_func_krem_local_support.c_krem_data_to_input_krem_54_krem_54_krem_
	.globl	krem_prefix72b5b4fa529be4ae_krem_func_krem_local_support.c_krem_data_to_input_krem_54_krem_54_krem_
krem_prefix72b5b4fa529be4ae_krem_func_krem_local_support.c_krem_data_to_input_krem_54_krem_54_krem_:
	.byte	0                       # 0x0
	.size	krem_prefix72b5b4fa529be4ae_krem_func_krem_local_support.c_krem_data_to_input_krem_54_krem_54_krem_, 1

	.type	krem_prefix99657ef8d1150419_krem_loop_body_krem_local_support.c_krem_check_data_krem_104_krem_109_krem_,@object # @krem_prefix99657ef8d1150419_krem_loop_body_krem_local_support.c_krem_check_data_krem_104_krem_109_krem_
	.globl	krem_prefix99657ef8d1150419_krem_loop_body_krem_local_support.c_krem_check_data_krem_104_krem_109_krem_
krem_prefix99657ef8d1150419_krem_loop_body_krem_local_support.c_krem_check_data_krem_104_krem_109_krem_:
	.byte	0                       # 0x0
	.size	krem_prefix99657ef8d1150419_krem_loop_body_krem_local_support.c_krem_check_data_krem_104_krem_109_krem_, 1

	.type	krem_prefixa41bc5f6dcbcc287_krem_func_krem_local_support.c_krem_input_to_data_krem_21_krem_21_krem_,@object # @krem_prefixa41bc5f6dcbcc287_krem_func_krem_local_support.c_krem_input_to_data_krem_21_krem_21_krem_
	.globl	krem_prefixa41bc5f6dcbcc287_krem_func_krem_local_support.c_krem_input_to_data_krem_21_krem_21_krem_
krem_prefixa41bc5f6dcbcc287_krem_func_krem_local_support.c_krem_input_to_data_krem_21_krem_21_krem_:
	.byte	0                       # 0x0
	.size	krem_prefixa41bc5f6dcbcc287_krem_func_krem_local_support.c_krem_input_to_data_krem_21_krem_21_krem_, 1

	.type	krem_prefixafc25d080a5e43d4_krem_func_krem_local_support.c_krem_check_data_krem_101_krem_101_krem_,@object # @krem_prefixafc25d080a5e43d4_krem_func_krem_local_support.c_krem_check_data_krem_101_krem_101_krem_
	.globl	krem_prefixafc25d080a5e43d4_krem_func_krem_local_support.c_krem_check_data_krem_101_krem_101_krem_
krem_prefixafc25d080a5e43d4_krem_func_krem_local_support.c_krem_check_data_krem_101_krem_101_krem_:
	.byte	0                       # 0x0
	.size	krem_prefixafc25d080a5e43d4_krem_func_krem_local_support.c_krem_check_data_krem_101_krem_101_krem_, 1

	.type	krem_prefixb1668f0b1e540781_krem_loop_body_krem_local_support.c_krem_input_to_data_krem_25_krem_45_krem_,@object # @krem_prefixb1668f0b1e540781_krem_loop_body_krem_local_support.c_krem_input_to_data_krem_25_krem_45_krem_
	.globl	krem_prefixb1668f0b1e540781_krem_loop_body_krem_local_support.c_krem_input_to_data_krem_25_krem_45_krem_
krem_prefixb1668f0b1e540781_krem_loop_body_krem_local_support.c_krem_input_to_data_krem_25_krem_45_krem_:
	.byte	0                       # 0x0
	.size	krem_prefixb1668f0b1e540781_krem_loop_body_krem_local_support.c_krem_input_to_data_krem_25_krem_45_krem_, 1

	.type	krem_prefixbddd6b4a8b0194b0_krem_func_krem_local_support.c_krem_output_to_data_krem_81_krem_81_krem_,@object # @krem_prefixbddd6b4a8b0194b0_krem_func_krem_local_support.c_krem_output_to_data_krem_81_krem_81_krem_
	.globl	krem_prefixbddd6b4a8b0194b0_krem_func_krem_local_support.c_krem_output_to_data_krem_81_krem_81_krem_
krem_prefixbddd6b4a8b0194b0_krem_func_krem_local_support.c_krem_output_to_data_krem_81_krem_81_krem_:
	.byte	0                       # 0x0
	.size	krem_prefixbddd6b4a8b0194b0_krem_func_krem_local_support.c_krem_output_to_data_krem_81_krem_81_krem_, 1

	.type	krem_prefixc298dd4ca9698989_krem_loop_body_krem_local_support.c_krem_data_to_input_krem_56_krem_67_krem_,@object # @krem_prefixc298dd4ca9698989_krem_loop_body_krem_local_support.c_krem_data_to_input_krem_56_krem_67_krem_
	.globl	krem_prefixc298dd4ca9698989_krem_loop_body_krem_local_support.c_krem_data_to_input_krem_56_krem_67_krem_
krem_prefixc298dd4ca9698989_krem_loop_body_krem_local_support.c_krem_data_to_input_krem_56_krem_67_krem_:
	.byte	0                       # 0x0
	.size	krem_prefixc298dd4ca9698989_krem_loop_body_krem_local_support.c_krem_data_to_input_krem_56_krem_67_krem_, 1

	.type	krem_prefixcd4617ad47d76851_krem_loop_body_krem_local_support.c_krem_input_to_data_krem_25_krem_31_krem_,@object # @krem_prefixcd4617ad47d76851_krem_loop_body_krem_local_support.c_krem_input_to_data_krem_25_krem_31_krem_
	.globl	krem_prefixcd4617ad47d76851_krem_loop_body_krem_local_support.c_krem_input_to_data_krem_25_krem_31_krem_
krem_prefixcd4617ad47d76851_krem_loop_body_krem_local_support.c_krem_input_to_data_krem_25_krem_31_krem_:
	.byte	0                       # 0x0
	.size	krem_prefixcd4617ad47d76851_krem_loop_body_krem_local_support.c_krem_input_to_data_krem_25_krem_31_krem_, 1

	.type	krem_prefixcec00794dbd9b8a1_krem_loop_krem_local_support.c_krem_check_data_krem_104_krem_109_krem_,@object # @krem_prefixcec00794dbd9b8a1_krem_loop_krem_local_support.c_krem_check_data_krem_104_krem_109_krem_
	.globl	krem_prefixcec00794dbd9b8a1_krem_loop_krem_local_support.c_krem_check_data_krem_104_krem_109_krem_
krem_prefixcec00794dbd9b8a1_krem_loop_krem_local_support.c_krem_check_data_krem_104_krem_109_krem_:
	.byte	0                       # 0x0
	.size	krem_prefixcec00794dbd9b8a1_krem_loop_krem_local_support.c_krem_check_data_krem_104_krem_109_krem_, 1

	.type	krem_prefixe9d40be9b93f1110_krem_loop_krem_local_support.c_krem_input_to_data_krem_25_krem_31_krem_,@object # @krem_prefixe9d40be9b93f1110_krem_loop_krem_local_support.c_krem_input_to_data_krem_25_krem_31_krem_
	.globl	krem_prefixe9d40be9b93f1110_krem_loop_krem_local_support.c_krem_input_to_data_krem_25_krem_31_krem_
krem_prefixe9d40be9b93f1110_krem_loop_krem_local_support.c_krem_input_to_data_krem_25_krem_31_krem_:
	.byte	0                       # 0x0
	.size	krem_prefixe9d40be9b93f1110_krem_loop_krem_local_support.c_krem_input_to_data_krem_25_krem_31_krem_, 1

	.data
.Ldebug_end0:
	.text
.Ldebug_end1:
	.section	".note.GNU-stack","",@progbits