	.text
	.file	"local_support.simplifycfg.mem2reg.indvars.elimsinglephis.criticalpath.regioninstrument.renamemain.O3.bc"
	.text
	.globl	run_benchmark
	.align	16, 0x90
	.type	run_benchmark,@function
run_benchmark:                          # @run_benchmark
.Lfunc_begin0:
	.loc	1 6 0                   # local_support.c:6:0
	.cfi_startproc
# BB#0:                                 # %entry
	pushq	%rbp
.Ltmp0:
	.cfi_def_cfa_offset 16
.Ltmp1:
	.cfi_offset %rbp, -16
	movq	%rsp, %rbp
.Ltmp2:
	.cfi_def_cfa_register %rbp
	pushq	%r14
	pushq	%rbx
.Ltmp3:
	.cfi_offset %rbx, -32
.Ltmp4:
	.cfi_offset %r14, -24
	#DEBUG_VALUE: run_benchmark:vargs <- RDI
	movq	%rdi, %rbx
.Ltmp5:
	#DEBUG_VALUE: run_benchmark:vargs <- RBX
	movabsq	$3862668819228705092, %r14 # imm = 0x359AF4D3671AC144
	xorl	%esi, %esi
	movq	%r14, %rdi
	callq	_KEnterRegion
	movl	$2, %edi
	xorl	%esi, %esi
	callq	_KPrepRTable
	movabsq	$8529996880469001576, %rdi # imm = 0x7660A2F80B8B8568
	xorl	%esi, %esi
	callq	_KPrepCall
	movl	$1, %edi
	callq	_KLinkReturn
	.loc	1 8 23 prologue_end     # local_support.c:8:23
.Ltmp6:
	leaq	144(%rbx), %rsi
	.loc	1 8 35 is_stmt 0        # local_support.c:8:35
	leaq	656(%rbx), %rdx
	.loc	1 8 53                  # local_support.c:8:53
	leaq	33424(%rbx), %rcx
	.loc	1 8 69                  # local_support.c:8:69
	leaq	66192(%rbx), %r8
	.loc	1 8 3                   # local_support.c:8:3
	movq	%rbx, %rdi
	callq	viterbi
	xorl	%esi, %esi
	movq	%r14, %rdi
	popq	%rbx
.Ltmp7:
	popq	%r14
	popq	%rbp
	jmp	_KExitRegion            # TAILCALL
.Ltmp8:
.Ltmp9:
	.size	run_benchmark, .Ltmp9-run_benchmark
.Lfunc_end0:
	.cfi_endproc

	.globl	input_to_data
	.align	16, 0x90
	.type	input_to_data,@function
input_to_data:                          # @input_to_data
.Lfunc_begin1:
	.loc	1 22 0 is_stmt 1        # local_support.c:22:0
	.cfi_startproc
# BB#0:                                 # %entry
	pushq	%rbp
.Ltmp10:
	.cfi_def_cfa_offset 16
.Ltmp11:
	.cfi_offset %rbp, -16
	movq	%rsp, %rbp
.Ltmp12:
	.cfi_def_cfa_register %rbp
	pushq	%r15
	pushq	%r14
	pushq	%r13
	pushq	%r12
	pushq	%rbx
	pushq	%rax
.Ltmp13:
	.cfi_offset %rbx, -56
.Ltmp14:
	.cfi_offset %r12, -48
.Ltmp15:
	.cfi_offset %r13, -40
.Ltmp16:
	.cfi_offset %r14, -32
.Ltmp17:
	.cfi_offset %r15, -24
	#DEBUG_VALUE: input_to_data:fd <- EDI
	#DEBUG_VALUE: input_to_data:vdata <- RSI
	movq	%rsi, %r15
.Ltmp18:
	#DEBUG_VALUE: input_to_data:vdata <- R15
	movl	%edi, %ebx
.Ltmp19:
	#DEBUG_VALUE: input_to_data:fd <- EBX
	movabsq	$-6621481163062197625, %r14 # imm = 0xA41BC5F6DCBCC287
	xorl	%esi, %esi
	movq	%r14, %rdi
	callq	_KEnterRegion
	movl	$6, %edi
	xorl	%esi, %esi
	callq	_KPrepRTable
	movl	$1, %edi
	callq	_KDeqArg
	xorl	%esi, %esi
	movl	$66336, %edx            # imm = 0x10320
	.loc	1 26 3 prologue_end     # local_support.c:26:3
.Ltmp20:
	movq	%r15, %rdi
	callq	memset
	movabsq	$-1993189723613795903, %rdi # imm = 0xE456C481BA0A69C1
	xorl	%esi, %esi
	callq	_KPrepCall
	movl	$1, %edi
	movl	$1, %esi
	xorl	%edx, %edx
	callq	_KTimestamp1
	movl	$1, %edi
	callq	_KEnqArg
	.loc	1 28 7                  # local_support.c:28:7
	movl	%ebx, %edi
.Ltmp21:
	#DEBUG_VALUE: input_to_data:fd <- EDI
	callq	readfile
	movq	%rax, %r12
.Ltmp22:
	#DEBUG_VALUE: input_to_data:p <- R12
	movabsq	$-7773845289601164280, %rdi # imm = 0x941DC0E58E7A9C08
.Ltmp23:
	xorl	%esi, %esi
	callq	_KPrepCall
	callq	_KEnqArgConst
	movl	$1, %esi
	.loc	1 30 7                  # local_support.c:30:7
	movq	%r12, %rdi
	callq	find_section_start
	movq	%rax, %rbx
.Ltmp24:
	#DEBUG_VALUE: input_to_data:s <- RBX
	movabsq	$782789933538655314, %rdi # imm = 0xADD074C1252BC52
	xorl	%esi, %esi
	callq	_KPrepCall
	callq	_KEnqArgConst
	movl	$2, %edi
	callq	_KLinkReturn
	movl	$140, %edx
	.loc	1 31 3                  # local_support.c:31:3
	movq	%rbx, %rdi
	movq	%r15, %rsi
	callq	parse_uint8_t_array
	movabsq	$-250842785628314898, %rdi # imm = 0xFC84D3D0C427A2EE
	xorl	%esi, %esi
	callq	_KPrepCall
	callq	_KEnqArgConst
	movl	$2, %esi
	.loc	1 33 7                  # local_support.c:33:7
	movq	%r12, %rdi
	callq	find_section_start
	movq	%rax, %r13
.Ltmp25:
	#DEBUG_VALUE: input_to_data:s <- R13
	.loc	1 34 31                 # local_support.c:34:31
	leaq	144(%r15), %rbx
	movabsq	$-324848532010284172, %rdi # imm = 0xFB7DE7FB33B84B74
	xorl	%esi, %esi
	callq	_KPrepCall
	callq	_KEnqArgConst
	movl	$3, %edi
	callq	_KLinkReturn
	movl	$64, %edx
	.loc	1 34 3 is_stmt 0        # local_support.c:34:3
	movq	%r13, %rdi
	movq	%rbx, %rsi
	callq	parse_double_array
	movabsq	$639560951924764922, %rdi # imm = 0x8E02D4C17AFB0FA
	xorl	%esi, %esi
	callq	_KPrepCall
	callq	_KEnqArgConst
	movl	$3, %esi
	.loc	1 36 7 is_stmt 1        # local_support.c:36:7
	movq	%r12, %rdi
	callq	find_section_start
	movq	%rax, %r13
.Ltmp26:
	#DEBUG_VALUE: input_to_data:s <- R13
	.loc	1 37 31                 # local_support.c:37:31
	leaq	656(%r15), %rbx
	movabsq	$6261751214579978508, %rdi # imm = 0x56E6358DB0E9110C
	xorl	%esi, %esi
	callq	_KPrepCall
	callq	_KEnqArgConst
	movl	$4, %edi
	callq	_KLinkReturn
	movl	$4096, %edx             # imm = 0x1000
	.loc	1 37 3 is_stmt 0        # local_support.c:37:3
	movq	%r13, %rdi
	movq	%rbx, %rsi
	callq	parse_double_array
	movabsq	$4608220420610024183, %rdi # imm = 0x3FF3B00EA12962F7
	xorl	%esi, %esi
	callq	_KPrepCall
	callq	_KEnqArgConst
	movl	$4, %esi
	.loc	1 39 7 is_stmt 1        # local_support.c:39:7
	movq	%r12, %rdi
	callq	find_section_start
	movq	%rax, %rbx
.Ltmp27:
	#DEBUG_VALUE: input_to_data:s <- RBX
	.loc	1 40 31                 # local_support.c:40:31
	addq	$33424, %r15            # imm = 0x8290
.Ltmp28:
	movabsq	$-4986422461802104113, %rdi # imm = 0xBACCAB30B041BACF
	xorl	%esi, %esi
	callq	_KPrepCall
	callq	_KEnqArgConst
	movl	$5, %edi
	callq	_KLinkReturn
	movl	$4096, %edx             # imm = 0x1000
	.loc	1 40 3 is_stmt 0        # local_support.c:40:3
	movq	%rbx, %rdi
	movq	%r15, %rsi
	callq	parse_double_array
	.loc	1 41 3 is_stmt 1        # local_support.c:41:3
	movq	%r12, %rdi
	callq	free
	movq	%r12, %rdi
	callq	_KFree
	xorl	%esi, %esi
	movq	%r14, %rdi
	addq	$8, %rsp
	popq	%rbx
.Ltmp29:
	popq	%r12
.Ltmp30:
	popq	%r13
	popq	%r14
	popq	%r15
	popq	%rbp
	jmp	_KExitRegion            # TAILCALL
.Ltmp31:
.Ltmp32:
	.size	input_to_data, .Ltmp32-input_to_data
.Lfunc_end1:
	.cfi_endproc

	.globl	data_to_input
	.align	16, 0x90
	.type	data_to_input,@function
data_to_input:                          # @data_to_input
.Lfunc_begin2:
	.loc	1 44 0                  # local_support.c:44:0
	.cfi_startproc
# BB#0:                                 # %entry
	pushq	%rbp
.Ltmp33:
	.cfi_def_cfa_offset 16
.Ltmp34:
	.cfi_offset %rbp, -16
	movq	%rsp, %rbp
.Ltmp35:
	.cfi_def_cfa_register %rbp
	pushq	%r15
	pushq	%r14
	pushq	%r12
	pushq	%rbx
.Ltmp36:
	.cfi_offset %rbx, -48
.Ltmp37:
	.cfi_offset %r12, -40
.Ltmp38:
	.cfi_offset %r14, -32
.Ltmp39:
	.cfi_offset %r15, -24
	#DEBUG_VALUE: data_to_input:fd <- EDI
	#DEBUG_VALUE: data_to_input:vdata <- RSI
	movq	%rsi, %r15
.Ltmp40:
	#DEBUG_VALUE: data_to_input:vdata <- R15
	movl	%edi, %r12d
.Ltmp41:
	#DEBUG_VALUE: data_to_input:fd <- R12D
	movabsq	$8265711678329185454, %r14 # imm = 0x72B5B4FA529BE4AE
	xorl	%esi, %esi
	movq	%r14, %rdi
	callq	_KEnterRegion
	movl	$10, %edi
	xorl	%esi, %esi
	callq	_KPrepRTable
	movl	$1, %edi
	callq	_KDeqArg
	movabsq	$-3681419575134453250, %rdi # imm = 0xCCE8F866C2F101FE
	xorl	%esi, %esi
	callq	_KPrepCall
	movl	$1, %edi
	movl	$1, %esi
	xorl	%edx, %edx
	callq	_KTimestamp1
	movl	$1, %edi
	callq	_KEnqArg
	movl	$2, %edi
	callq	_KLinkReturn
	.loc	1 47 3 prologue_end     # local_support.c:47:3
.Ltmp42:
	movl	%r12d, %edi
	callq	write_section_header
	movabsq	$-6871032354335469159, %rdi # imm = 0xA0A5307A5F9E5199
	xorl	%esi, %esi
	callq	_KPrepCall
	callq	_KEnqArgConst
	movl	$1, %edi
	callq	_KEnqArg
	movl	$3, %edi
	callq	_KLinkReturn
	movl	$140, %edx
	.loc	1 48 3                  # local_support.c:48:3
	movl	%r12d, %edi
	movq	%r15, %rsi
	callq	write_uint8_t_array
	movabsq	$-281345025543057582, %rdi # imm = 0xFC1876309D2ECF52
	xorl	%esi, %esi
	callq	_KPrepCall
	movl	$1, %edi
	callq	_KEnqArg
	movl	$4, %edi
	callq	_KLinkReturn
	.loc	1 50 3                  # local_support.c:50:3
	movl	%r12d, %edi
	callq	write_section_header
	.loc	1 51 32                 # local_support.c:51:32
	leaq	144(%r15), %rbx
	movabsq	$9071652641761594328, %rdi # imm = 0x7DE4FC0395EF0BD8
	xorl	%esi, %esi
	callq	_KPrepCall
	callq	_KEnqArgConst
	movl	$1, %edi
	callq	_KEnqArg
	movl	$5, %edi
	callq	_KLinkReturn
	movl	$64, %edx
	.loc	1 51 3 is_stmt 0        # local_support.c:51:3
	movl	%r12d, %edi
	movq	%rbx, %rsi
	callq	write_double_array
	movabsq	$-2777157036804193447, %rdi # imm = 0xD9758E6397CF4359
	xorl	%esi, %esi
	callq	_KPrepCall
	movl	$1, %edi
	callq	_KEnqArg
	movl	$6, %edi
	callq	_KLinkReturn
	.loc	1 53 3 is_stmt 1        # local_support.c:53:3
	movl	%r12d, %edi
	callq	write_section_header
	.loc	1 54 32                 # local_support.c:54:32
	leaq	656(%r15), %rbx
	movabsq	$-1810479037067467287, %rdi # imm = 0xE6DFE2E87A4D65E9
	xorl	%esi, %esi
	callq	_KPrepCall
	callq	_KEnqArgConst
	movl	$1, %edi
	callq	_KEnqArg
	movl	$7, %edi
	callq	_KLinkReturn
	movl	$4096, %edx             # imm = 0x1000
	.loc	1 54 3 is_stmt 0        # local_support.c:54:3
	movl	%r12d, %edi
	movq	%rbx, %rsi
	callq	write_double_array
	movabsq	$-7542649601036250531, %rdi # imm = 0x9753202688FE125D
	xorl	%esi, %esi
	callq	_KPrepCall
	movl	$1, %edi
	callq	_KEnqArg
	movl	$8, %edi
	callq	_KLinkReturn
	.loc	1 56 3 is_stmt 1        # local_support.c:56:3
	movl	%r12d, %edi
	callq	write_section_header
	.loc	1 57 32                 # local_support.c:57:32
	addq	$33424, %r15            # imm = 0x8290
.Ltmp43:
	movabsq	$-2791975935060237500, %rdi # imm = 0xD940E8ADF94BA344
	xorl	%esi, %esi
	callq	_KPrepCall
	callq	_KEnqArgConst
	movl	$1, %edi
	callq	_KEnqArg
	movl	$9, %edi
	callq	_KLinkReturn
	movl	$4096, %edx             # imm = 0x1000
	.loc	1 57 3 is_stmt 0        # local_support.c:57:3
	movl	%r12d, %edi
	movq	%r15, %rsi
	callq	write_double_array
	xorl	%esi, %esi
	movq	%r14, %rdi
	popq	%rbx
	popq	%r12
.Ltmp44:
	popq	%r14
	popq	%r15
	popq	%rbp
	jmp	_KExitRegion            # TAILCALL
.Ltmp45:
.Ltmp46:
	.size	data_to_input, .Ltmp46-data_to_input
.Lfunc_end2:
	.cfi_endproc

	.globl	output_to_data
	.align	16, 0x90
	.type	output_to_data,@function
output_to_data:                         # @output_to_data
.Lfunc_begin3:
	.loc	1 65 0 is_stmt 1        # local_support.c:65:0
	.cfi_startproc
# BB#0:                                 # %entry
	pushq	%rbp
.Ltmp47:
	.cfi_def_cfa_offset 16
.Ltmp48:
	.cfi_offset %rbp, -16
	movq	%rsp, %rbp
.Ltmp49:
	.cfi_def_cfa_register %rbp
	pushq	%r15
	pushq	%r14
	pushq	%r12
	pushq	%rbx
.Ltmp50:
	.cfi_offset %rbx, -48
.Ltmp51:
	.cfi_offset %r12, -40
.Ltmp52:
	.cfi_offset %r14, -32
.Ltmp53:
	.cfi_offset %r15, -24
	#DEBUG_VALUE: output_to_data:fd <- EDI
	#DEBUG_VALUE: output_to_data:vdata <- RSI
	movq	%rsi, %r12
.Ltmp54:
	#DEBUG_VALUE: output_to_data:vdata <- R12
	movl	%edi, %r15d
.Ltmp55:
	#DEBUG_VALUE: output_to_data:fd <- R15D
	movabsq	$-4765534862784228176, %r14 # imm = 0xBDDD6B4A8B0194B0
	xorl	%esi, %esi
	movq	%r14, %rdi
	callq	_KEnterRegion
	movl	$3, %edi
	xorl	%esi, %esi
	callq	_KPrepRTable
	movl	$1, %edi
	callq	_KDeqArg
	xorl	%esi, %esi
	movl	$66336, %edx            # imm = 0x10320
	.loc	1 69 3 prologue_end     # local_support.c:69:3
.Ltmp56:
	movq	%r12, %rdi
	callq	memset
	movabsq	$-385552952406818665, %rdi # imm = 0xFAA63DA1EDB04097
	xorl	%esi, %esi
	callq	_KPrepCall
	movl	$1, %edi
	movl	$1, %esi
	xorl	%edx, %edx
	callq	_KTimestamp1
	movl	$1, %edi
	callq	_KEnqArg
	.loc	1 71 7                  # local_support.c:71:7
	movl	%r15d, %edi
.Ltmp57:
	#DEBUG_VALUE: output_to_data:fd <- EDI
	callq	readfile
	movq	%rax, %rbx
.Ltmp58:
	#DEBUG_VALUE: output_to_data:p <- RBX
	movabsq	$6643313995768179371, %rdi # imm = 0x5C31CAE1A124AAAB
.Ltmp59:
	xorl	%esi, %esi
	callq	_KPrepCall
	callq	_KEnqArgConst
	movl	$1, %esi
	.loc	1 73 7                  # local_support.c:73:7
	movq	%rbx, %rdi
	callq	find_section_start
	movq	%rax, %r15
.Ltmp60:
	#DEBUG_VALUE: output_to_data:s <- R15
	.loc	1 74 26                 # local_support.c:74:26
	addq	$66192, %r12            # imm = 0x10290
.Ltmp61:
	movabsq	$-3240041808338003435, %rdi # imm = 0xD3090F244C995A15
	xorl	%esi, %esi
	callq	_KPrepCall
	callq	_KEnqArgConst
	movl	$2, %edi
	callq	_KLinkReturn
	movl	$140, %edx
	.loc	1 74 3 is_stmt 0        # local_support.c:74:3
	movq	%r15, %rdi
	movq	%r12, %rsi
	callq	parse_uint8_t_array
	.loc	1 75 3 is_stmt 1        # local_support.c:75:3
	movq	%rbx, %rdi
	callq	free
	movq	%rbx, %rdi
	callq	_KFree
	xorl	%esi, %esi
	movq	%r14, %rdi
	popq	%rbx
.Ltmp62:
	popq	%r12
	popq	%r14
	popq	%r15
.Ltmp63:
	popq	%rbp
	jmp	_KExitRegion            # TAILCALL
.Ltmp64:
.Ltmp65:
	.size	output_to_data, .Ltmp65-output_to_data
.Lfunc_end3:
	.cfi_endproc

	.globl	data_to_output
	.align	16, 0x90
	.type	data_to_output,@function
data_to_output:                         # @data_to_output
.Lfunc_begin4:
	.loc	1 78 0                  # local_support.c:78:0
	.cfi_startproc
# BB#0:                                 # %entry
	pushq	%rbp
.Ltmp66:
	.cfi_def_cfa_offset 16
.Ltmp67:
	.cfi_offset %rbp, -16
	movq	%rsp, %rbp
.Ltmp68:
	.cfi_def_cfa_register %rbp
	pushq	%r15
	pushq	%r14
	pushq	%rbx
	pushq	%rax
.Ltmp69:
	.cfi_offset %rbx, -40
.Ltmp70:
	.cfi_offset %r14, -32
.Ltmp71:
	.cfi_offset %r15, -24
	#DEBUG_VALUE: data_to_output:fd <- EDI
	#DEBUG_VALUE: data_to_output:vdata <- RSI
	movq	%rsi, %rbx
.Ltmp72:
	#DEBUG_VALUE: data_to_output:vdata <- RBX
	movl	%edi, %r15d
.Ltmp73:
	#DEBUG_VALUE: data_to_output:fd <- R15D
	movabsq	$2262382145700601508, %r14 # imm = 0x1F6598932CAB9EA4
	xorl	%esi, %esi
	movq	%r14, %rdi
	callq	_KEnterRegion
	movl	$4, %edi
	xorl	%esi, %esi
	callq	_KPrepRTable
	movl	$1, %edi
	callq	_KDeqArg
	movl	$1, %edi
	movl	$1, %esi
	xorl	%edx, %edx
	callq	_KTimestamp1
	movabsq	$-3411391565196058204, %rdi # imm = 0xD0A84D721EB9A1A4
	xorl	%esi, %esi
	callq	_KPrepCall
	movl	$1, %edi
	callq	_KEnqArg
	movl	$2, %edi
	callq	_KLinkReturn
	.loc	1 81 3 prologue_end     # local_support.c:81:3
.Ltmp74:
	movl	%r15d, %edi
	callq	write_section_header
	.loc	1 82 27                 # local_support.c:82:27
	addq	$66192, %rbx            # imm = 0x10290
.Ltmp75:
	movabsq	$4983694839061206089, %rdi # imm = 0x4529A40D2730D449
	xorl	%esi, %esi
	callq	_KPrepCall
	callq	_KEnqArgConst
	movl	$1, %edi
	callq	_KEnqArg
	movl	$3, %edi
	callq	_KLinkReturn
	movl	$140, %edx
	.loc	1 82 3 is_stmt 0        # local_support.c:82:3
	movl	%r15d, %edi
	movq	%rbx, %rsi
	callq	write_uint8_t_array
	xorl	%esi, %esi
	movq	%r14, %rdi
	addq	$8, %rsp
	popq	%rbx
	popq	%r14
	popq	%r15
.Ltmp76:
	popq	%rbp
	jmp	_KExitRegion            # TAILCALL
.Ltmp77:
.Ltmp78:
	.size	data_to_output, .Ltmp78-data_to_output
.Lfunc_end4:
	.cfi_endproc

	.globl	check_data
	.align	16, 0x90
	.type	check_data,@function
check_data:                             # @check_data
.Lfunc_begin5:
	.loc	1 85 0 is_stmt 1        # local_support.c:85:0
	.cfi_startproc
# BB#0:                                 # %entry
	pushq	%rbp
.Ltmp79:
	.cfi_def_cfa_offset 16
.Ltmp80:
	.cfi_offset %rbp, -16
	movq	%rsp, %rbp
.Ltmp81:
	.cfi_def_cfa_register %rbp
	pushq	%r15
	pushq	%r14
	pushq	%r13
	pushq	%r12
	pushq	%rbx
	subq	$40, %rsp
.Ltmp82:
	.cfi_offset %rbx, -56
.Ltmp83:
	.cfi_offset %r12, -48
.Ltmp84:
	.cfi_offset %r13, -40
.Ltmp85:
	.cfi_offset %r14, -32
.Ltmp86:
	.cfi_offset %r15, -24
	#DEBUG_VALUE: check_data:vdata <- RDI
	#DEBUG_VALUE: check_data:vref <- RSI
	movq	%rsi, %r12
.Ltmp87:
	#DEBUG_VALUE: check_data:vref <- R12
	movq	%rdi, %r15
.Ltmp88:
	#DEBUG_VALUE: check_data:vdata <- R15
	movabsq	$-3548828170442917727, %r14 # imm = 0xCEC00794DBD9B8A1
	movabsq	$-5781956682475224108, %rdi # imm = 0xAFC25D080A5E43D4
	xorl	%r13d, %r13d
	xorl	%esi, %esi
	callq	_KEnterRegion
	movl	$8, %edi
	movl	$2, %esi
	callq	_KPrepRTable
.Ltmp89:
	#DEBUG_VALUE: check_data:i <- 0
	#DEBUG_VALUE: check_data:has_errors <- 0
	movl	$5, %edi
	callq	_KInduction
	movl	$1, %esi
	movq	%r14, %rdi
	callq	_KEnterRegion
	addq	$66192, %r12            # imm = 0x10290
.Ltmp90:
	addq	$66192, %r15            # imm = 0x10290
.Ltmp91:
	movq	%r15, -56(%rbp)         # 8-byte Spill
	movabsq	$-7393363606133996519, %r14 # imm = 0x99657EF8D1150419
	xorl	%r15d, %r15d
	xorl	%edx, %edx
	xorl	%eax, %eax
	movq	%rax, -48(%rbp)         # 8-byte Spill
	jmp	.LBB5_1
	.align	16, 0x90
.LBB5_2:                                # %for.body
                                        #   in Loop: Header=BB5_1 Depth=1
	#DEBUG_VALUE: check_data:has_errors <- 0
	#DEBUG_VALUE: check_data:i <- 0
	movl	$2, %esi
	movq	%r14, %rdi
	callq	_KEnterRegion
	movl	$7, %edi
	callq	_KPushCDep
	movl	$10, %edi
	callq	_KWork
	movq	-56(%rbp), %rbx         # 8-byte Reload
	leaq	(%rbx,%r13), %rdi
	movl	$1, %esi
	movl	$1, %edx
	callq	_KLoad0
	leaq	(%r12,%r13), %rdi
	.loc	1 92 20 prologue_end    # local_support.c:92:20
.Ltmp92:
	movzbl	(%rbx,%r13), %ebx
	movl	$2, %esi
	movl	$1, %edx
	callq	_KLoad0
	movzbl	(%r12,%r13), %eax
	cmpl	%eax, %ebx
	setne	%al
	movzbl	%al, %eax
	.loc	1 92 5 is_stmt 0        # local_support.c:92:5
	movq	-48(%rbp), %rcx         # 8-byte Reload
	orl	%eax, %ecx
.Ltmp93:
	#DEBUG_VALUE: check_data:has_errors <- [RBP+-48]
	.loc	1 91 3 is_stmt 1        # local_support.c:91:3
	movq	%rcx, -48(%rbp)         # 8-byte Spill
	incq	%r13
	movl	$2, 16(%rsp)
	movl	$2, 8(%rsp)
	movl	$2, (%rsp)
	movl	$6, %r15d
	movl	$6, %edi
	movl	$4, %esi
	movl	$1, %edx
	movl	$7, %ecx
	movl	$2, %r8d
	movl	$1, %r9d
	callq	_KTimestamp4
	callq	_KPopCDep
	movl	$2, %esi
	movq	%r14, %rdi
	callq	_KExitRegion
	movl	$7, %edx
.Ltmp94:
.LBB5_1:                                # %for.cond
                                        # =>This Inner Loop Header: Depth=1
	#DEBUG_VALUE: check_data:has_errors <- 0
	#DEBUG_VALUE: check_data:i <- 0
	movl	$4, %edi
	movl	%r15d, %esi
                                        # kill: EDX<def> EDX<kill> RDX<kill>
	callq	_KPhi1To1
	movl	$1, %edi
	callq	_KWork
	movl	$7, %edi
	movl	$5, %esi
	movl	$1, %edx
	callq	_KTimestamp1
	movl	$4, %edi
	movl	$7, %esi
	callq	_KPhiAddCond
	movl	$4, %edi
	movl	$4, %esi
	xorl	%edx, %edx
	callq	_KTimestamp1
	.loc	1 91 3 is_stmt 0        # local_support.c:91:3
	cmpq	$140, %r13
	jne	.LBB5_2
.Ltmp95:
# BB#3:                                 # %for.cond.pre_exit.for.end
	#DEBUG_VALUE: check_data:has_errors <- 0
	#DEBUG_VALUE: check_data:i <- 0
	movl	$1, %esi
	movabsq	$-3548828170442917727, %rdi # imm = 0xCEC00794DBD9B8A1
	callq	_KExitRegion
	movl	$2, %edi
	callq	_KWork
	.loc	1 96 10 is_stmt 1       # local_support.c:96:10
	movq	-48(%rbp), %rax         # 8-byte Reload
	testl	%eax, %eax
	sete	%al
	movzbl	%al, %ebx
	movl	$3, %edi
	movl	$4, %esi
	movl	$2, %edx
	callq	_KTimestamp1
	movl	$3, %edi
	callq	_KReturn
	xorl	%esi, %esi
	movabsq	$-5781956682475224108, %rdi # imm = 0xAFC25D080A5E43D4
	callq	_KExitRegion
	.loc	1 96 3 is_stmt 0        # local_support.c:96:3
	movl	%ebx, %eax
	addq	$40, %rsp
	popq	%rbx
	popq	%r12
	popq	%r13
	popq	%r14
	popq	%r15
	popq	%rbp
	retq
.Ltmp96:
.Ltmp97:
	.size	check_data, .Ltmp97-check_data
.Lfunc_end5:
	.cfi_endproc

	.type	INPUT_SIZE,@object      # @INPUT_SIZE
	.data
	.globl	INPUT_SIZE
	.align	4
INPUT_SIZE:
	.long	66336                   # 0x10320
	.size	INPUT_SIZE, 4

	.type	krem_prefix7660a2f80b8b8568_krem_callsiteId_krem_local_support.c_krem_run_benchmark_krem_8_krem_8_krem_,@object # @krem_prefix7660a2f80b8b8568_krem_callsiteId_krem_local_support.c_krem_run_benchmark_krem_8_krem_8_krem_
	.bss
	.globl	krem_prefix7660a2f80b8b8568_krem_callsiteId_krem_local_support.c_krem_run_benchmark_krem_8_krem_8_krem_
krem_prefix7660a2f80b8b8568_krem_callsiteId_krem_local_support.c_krem_run_benchmark_krem_8_krem_8_krem_:
	.byte	0                       # 0x0
	.size	krem_prefix7660a2f80b8b8568_krem_callsiteId_krem_local_support.c_krem_run_benchmark_krem_8_krem_8_krem_, 1

	.type	krem_prefixe456c481ba0a69c1_krem_callsiteId_krem_local_support.c_krem_input_to_data_krem_28_krem_28_krem_,@object # @krem_prefixe456c481ba0a69c1_krem_callsiteId_krem_local_support.c_krem_input_to_data_krem_28_krem_28_krem_
	.globl	krem_prefixe456c481ba0a69c1_krem_callsiteId_krem_local_support.c_krem_input_to_data_krem_28_krem_28_krem_
krem_prefixe456c481ba0a69c1_krem_callsiteId_krem_local_support.c_krem_input_to_data_krem_28_krem_28_krem_:
	.byte	0                       # 0x0
	.size	krem_prefixe456c481ba0a69c1_krem_callsiteId_krem_local_support.c_krem_input_to_data_krem_28_krem_28_krem_, 1

	.type	krem_prefix941dc0e58e7a9c08_krem_callsiteId_krem_local_support.c_krem_input_to_data_krem_30_krem_30_krem_,@object # @krem_prefix941dc0e58e7a9c08_krem_callsiteId_krem_local_support.c_krem_input_to_data_krem_30_krem_30_krem_
	.globl	krem_prefix941dc0e58e7a9c08_krem_callsiteId_krem_local_support.c_krem_input_to_data_krem_30_krem_30_krem_
krem_prefix941dc0e58e7a9c08_krem_callsiteId_krem_local_support.c_krem_input_to_data_krem_30_krem_30_krem_:
	.byte	0                       # 0x0
	.size	krem_prefix941dc0e58e7a9c08_krem_callsiteId_krem_local_support.c_krem_input_to_data_krem_30_krem_30_krem_, 1

	.type	krem_prefix0add074c1252bc52_krem_callsiteId_krem_local_support.c_krem_input_to_data_krem_31_krem_31_krem_,@object # @krem_prefix0add074c1252bc52_krem_callsiteId_krem_local_support.c_krem_input_to_data_krem_31_krem_31_krem_
	.globl	krem_prefix0add074c1252bc52_krem_callsiteId_krem_local_support.c_krem_input_to_data_krem_31_krem_31_krem_
krem_prefix0add074c1252bc52_krem_callsiteId_krem_local_support.c_krem_input_to_data_krem_31_krem_31_krem_:
	.byte	0                       # 0x0
	.size	krem_prefix0add074c1252bc52_krem_callsiteId_krem_local_support.c_krem_input_to_data_krem_31_krem_31_krem_, 1

	.type	krem_prefixfc84d3d0c427a2ee_krem_callsiteId_krem_local_support.c_krem_input_to_data_krem_33_krem_33_krem_,@object # @krem_prefixfc84d3d0c427a2ee_krem_callsiteId_krem_local_support.c_krem_input_to_data_krem_33_krem_33_krem_
	.globl	krem_prefixfc84d3d0c427a2ee_krem_callsiteId_krem_local_support.c_krem_input_to_data_krem_33_krem_33_krem_
krem_prefixfc84d3d0c427a2ee_krem_callsiteId_krem_local_support.c_krem_input_to_data_krem_33_krem_33_krem_:
	.byte	0                       # 0x0
	.size	krem_prefixfc84d3d0c427a2ee_krem_callsiteId_krem_local_support.c_krem_input_to_data_krem_33_krem_33_krem_, 1

	.type	krem_prefixfb7de7fb33b84b74_krem_callsiteId_krem_local_support.c_krem_input_to_data_krem_34_krem_34_krem_,@object # @krem_prefixfb7de7fb33b84b74_krem_callsiteId_krem_local_support.c_krem_input_to_data_krem_34_krem_34_krem_
	.globl	krem_prefixfb7de7fb33b84b74_krem_callsiteId_krem_local_support.c_krem_input_to_data_krem_34_krem_34_krem_
krem_prefixfb7de7fb33b84b74_krem_callsiteId_krem_local_support.c_krem_input_to_data_krem_34_krem_34_krem_:
	.byte	0                       # 0x0
	.size	krem_prefixfb7de7fb33b84b74_krem_callsiteId_krem_local_support.c_krem_input_to_data_krem_34_krem_34_krem_, 1

	.type	krem_prefix08e02d4c17afb0fa_krem_callsiteId_krem_local_support.c_krem_input_to_data_krem_36_krem_36_krem_,@object # @krem_prefix08e02d4c17afb0fa_krem_callsiteId_krem_local_support.c_krem_input_to_data_krem_36_krem_36_krem_
	.globl	krem_prefix08e02d4c17afb0fa_krem_callsiteId_krem_local_support.c_krem_input_to_data_krem_36_krem_36_krem_
krem_prefix08e02d4c17afb0fa_krem_callsiteId_krem_local_support.c_krem_input_to_data_krem_36_krem_36_krem_:
	.byte	0                       # 0x0
	.size	krem_prefix08e02d4c17afb0fa_krem_callsiteId_krem_local_support.c_krem_input_to_data_krem_36_krem_36_krem_, 1

	.type	krem_prefix56e6358db0e9110c_krem_callsiteId_krem_local_support.c_krem_input_to_data_krem_37_krem_37_krem_,@object # @krem_prefix56e6358db0e9110c_krem_callsiteId_krem_local_support.c_krem_input_to_data_krem_37_krem_37_krem_
	.globl	krem_prefix56e6358db0e9110c_krem_callsiteId_krem_local_support.c_krem_input_to_data_krem_37_krem_37_krem_
krem_prefix56e6358db0e9110c_krem_callsiteId_krem_local_support.c_krem_input_to_data_krem_37_krem_37_krem_:
	.byte	0                       # 0x0
	.size	krem_prefix56e6358db0e9110c_krem_callsiteId_krem_local_support.c_krem_input_to_data_krem_37_krem_37_krem_, 1

	.type	krem_prefix3ff3b00ea12962f7_krem_callsiteId_krem_local_support.c_krem_input_to_data_krem_39_krem_39_krem_,@object # @krem_prefix3ff3b00ea12962f7_krem_callsiteId_krem_local_support.c_krem_input_to_data_krem_39_krem_39_krem_
	.globl	krem_prefix3ff3b00ea12962f7_krem_callsiteId_krem_local_support.c_krem_input_to_data_krem_39_krem_39_krem_
krem_prefix3ff3b00ea12962f7_krem_callsiteId_krem_local_support.c_krem_input_to_data_krem_39_krem_39_krem_:
	.byte	0                       # 0x0
	.size	krem_prefix3ff3b00ea12962f7_krem_callsiteId_krem_local_support.c_krem_input_to_data_krem_39_krem_39_krem_, 1

	.type	krem_prefixbaccab30b041bacf_krem_callsiteId_krem_local_support.c_krem_input_to_data_krem_40_krem_40_krem_,@object # @krem_prefixbaccab30b041bacf_krem_callsiteId_krem_local_support.c_krem_input_to_data_krem_40_krem_40_krem_
	.globl	krem_prefixbaccab30b041bacf_krem_callsiteId_krem_local_support.c_krem_input_to_data_krem_40_krem_40_krem_
krem_prefixbaccab30b041bacf_krem_callsiteId_krem_local_support.c_krem_input_to_data_krem_40_krem_40_krem_:
	.byte	0                       # 0x0
	.size	krem_prefixbaccab30b041bacf_krem_callsiteId_krem_local_support.c_krem_input_to_data_krem_40_krem_40_krem_, 1

	.type	krem_prefixcce8f866c2f101fe_krem_callsiteId_krem_local_support.c_krem_data_to_input_krem_47_krem_47_krem_,@object # @krem_prefixcce8f866c2f101fe_krem_callsiteId_krem_local_support.c_krem_data_to_input_krem_47_krem_47_krem_
	.globl	krem_prefixcce8f866c2f101fe_krem_callsiteId_krem_local_support.c_krem_data_to_input_krem_47_krem_47_krem_
krem_prefixcce8f866c2f101fe_krem_callsiteId_krem_local_support.c_krem_data_to_input_krem_47_krem_47_krem_:
	.byte	0                       # 0x0
	.size	krem_prefixcce8f866c2f101fe_krem_callsiteId_krem_local_support.c_krem_data_to_input_krem_47_krem_47_krem_, 1

	.type	krem_prefixa0a5307a5f9e5199_krem_callsiteId_krem_local_support.c_krem_data_to_input_krem_48_krem_48_krem_,@object # @krem_prefixa0a5307a5f9e5199_krem_callsiteId_krem_local_support.c_krem_data_to_input_krem_48_krem_48_krem_
	.globl	krem_prefixa0a5307a5f9e5199_krem_callsiteId_krem_local_support.c_krem_data_to_input_krem_48_krem_48_krem_
krem_prefixa0a5307a5f9e5199_krem_callsiteId_krem_local_support.c_krem_data_to_input_krem_48_krem_48_krem_:
	.byte	0                       # 0x0
	.size	krem_prefixa0a5307a5f9e5199_krem_callsiteId_krem_local_support.c_krem_data_to_input_krem_48_krem_48_krem_, 1

	.type	krem_prefixfc1876309d2ecf52_krem_callsiteId_krem_local_support.c_krem_data_to_input_krem_50_krem_50_krem_,@object # @krem_prefixfc1876309d2ecf52_krem_callsiteId_krem_local_support.c_krem_data_to_input_krem_50_krem_50_krem_
	.globl	krem_prefixfc1876309d2ecf52_krem_callsiteId_krem_local_support.c_krem_data_to_input_krem_50_krem_50_krem_
krem_prefixfc1876309d2ecf52_krem_callsiteId_krem_local_support.c_krem_data_to_input_krem_50_krem_50_krem_:
	.byte	0                       # 0x0
	.size	krem_prefixfc1876309d2ecf52_krem_callsiteId_krem_local_support.c_krem_data_to_input_krem_50_krem_50_krem_, 1

	.type	krem_prefix7de4fc0395ef0bd8_krem_callsiteId_krem_local_support.c_krem_data_to_input_krem_51_krem_51_krem_,@object # @krem_prefix7de4fc0395ef0bd8_krem_callsiteId_krem_local_support.c_krem_data_to_input_krem_51_krem_51_krem_
	.globl	krem_prefix7de4fc0395ef0bd8_krem_callsiteId_krem_local_support.c_krem_data_to_input_krem_51_krem_51_krem_
krem_prefix7de4fc0395ef0bd8_krem_callsiteId_krem_local_support.c_krem_data_to_input_krem_51_krem_51_krem_:
	.byte	0                       # 0x0
	.size	krem_prefix7de4fc0395ef0bd8_krem_callsiteId_krem_local_support.c_krem_data_to_input_krem_51_krem_51_krem_, 1

	.type	krem_prefixd9758e6397cf4359_krem_callsiteId_krem_local_support.c_krem_data_to_input_krem_53_krem_53_krem_,@object # @krem_prefixd9758e6397cf4359_krem_callsiteId_krem_local_support.c_krem_data_to_input_krem_53_krem_53_krem_
	.globl	krem_prefixd9758e6397cf4359_krem_callsiteId_krem_local_support.c_krem_data_to_input_krem_53_krem_53_krem_
krem_prefixd9758e6397cf4359_krem_callsiteId_krem_local_support.c_krem_data_to_input_krem_53_krem_53_krem_:
	.byte	0                       # 0x0
	.size	krem_prefixd9758e6397cf4359_krem_callsiteId_krem_local_support.c_krem_data_to_input_krem_53_krem_53_krem_, 1

	.type	krem_prefixe6dfe2e87a4d65e9_krem_callsiteId_krem_local_support.c_krem_data_to_input_krem_54_krem_54_krem_,@object # @krem_prefixe6dfe2e87a4d65e9_krem_callsiteId_krem_local_support.c_krem_data_to_input_krem_54_krem_54_krem_
	.globl	krem_prefixe6dfe2e87a4d65e9_krem_callsiteId_krem_local_support.c_krem_data_to_input_krem_54_krem_54_krem_
krem_prefixe6dfe2e87a4d65e9_krem_callsiteId_krem_local_support.c_krem_data_to_input_krem_54_krem_54_krem_:
	.byte	0                       # 0x0
	.size	krem_prefixe6dfe2e87a4d65e9_krem_callsiteId_krem_local_support.c_krem_data_to_input_krem_54_krem_54_krem_, 1

	.type	krem_prefix9753202688fe125d_krem_callsiteId_krem_local_support.c_krem_data_to_input_krem_56_krem_56_krem_,@object # @krem_prefix9753202688fe125d_krem_callsiteId_krem_local_support.c_krem_data_to_input_krem_56_krem_56_krem_
	.globl	krem_prefix9753202688fe125d_krem_callsiteId_krem_local_support.c_krem_data_to_input_krem_56_krem_56_krem_
krem_prefix9753202688fe125d_krem_callsiteId_krem_local_support.c_krem_data_to_input_krem_56_krem_56_krem_:
	.byte	0                       # 0x0
	.size	krem_prefix9753202688fe125d_krem_callsiteId_krem_local_support.c_krem_data_to_input_krem_56_krem_56_krem_, 1

	.type	krem_prefixd940e8adf94ba344_krem_callsiteId_krem_local_support.c_krem_data_to_input_krem_57_krem_57_krem_,@object # @krem_prefixd940e8adf94ba344_krem_callsiteId_krem_local_support.c_krem_data_to_input_krem_57_krem_57_krem_
	.globl	krem_prefixd940e8adf94ba344_krem_callsiteId_krem_local_support.c_krem_data_to_input_krem_57_krem_57_krem_
krem_prefixd940e8adf94ba344_krem_callsiteId_krem_local_support.c_krem_data_to_input_krem_57_krem_57_krem_:
	.byte	0                       # 0x0
	.size	krem_prefixd940e8adf94ba344_krem_callsiteId_krem_local_support.c_krem_data_to_input_krem_57_krem_57_krem_, 1

	.type	krem_prefixfaa63da1edb04097_krem_callsiteId_krem_local_support.c_krem_output_to_data_krem_71_krem_71_krem_,@object # @krem_prefixfaa63da1edb04097_krem_callsiteId_krem_local_support.c_krem_output_to_data_krem_71_krem_71_krem_
	.globl	krem_prefixfaa63da1edb04097_krem_callsiteId_krem_local_support.c_krem_output_to_data_krem_71_krem_71_krem_
krem_prefixfaa63da1edb04097_krem_callsiteId_krem_local_support.c_krem_output_to_data_krem_71_krem_71_krem_:
	.byte	0                       # 0x0
	.size	krem_prefixfaa63da1edb04097_krem_callsiteId_krem_local_support.c_krem_output_to_data_krem_71_krem_71_krem_, 1

	.type	krem_prefix5c31cae1a124aaab_krem_callsiteId_krem_local_support.c_krem_output_to_data_krem_73_krem_73_krem_,@object # @krem_prefix5c31cae1a124aaab_krem_callsiteId_krem_local_support.c_krem_output_to_data_krem_73_krem_73_krem_
	.globl	krem_prefix5c31cae1a124aaab_krem_callsiteId_krem_local_support.c_krem_output_to_data_krem_73_krem_73_krem_
krem_prefix5c31cae1a124aaab_krem_callsiteId_krem_local_support.c_krem_output_to_data_krem_73_krem_73_krem_:
	.byte	0                       # 0x0
	.size	krem_prefix5c31cae1a124aaab_krem_callsiteId_krem_local_support.c_krem_output_to_data_krem_73_krem_73_krem_, 1

	.type	krem_prefixd3090f244c995a15_krem_callsiteId_krem_local_support.c_krem_output_to_data_krem_74_krem_74_krem_,@object # @krem_prefixd3090f244c995a15_krem_callsiteId_krem_local_support.c_krem_output_to_data_krem_74_krem_74_krem_
	.globl	krem_prefixd3090f244c995a15_krem_callsiteId_krem_local_support.c_krem_output_to_data_krem_74_krem_74_krem_
krem_prefixd3090f244c995a15_krem_callsiteId_krem_local_support.c_krem_output_to_data_krem_74_krem_74_krem_:
	.byte	0                       # 0x0
	.size	krem_prefixd3090f244c995a15_krem_callsiteId_krem_local_support.c_krem_output_to_data_krem_74_krem_74_krem_, 1

	.type	krem_prefixd0a84d721eb9a1a4_krem_callsiteId_krem_local_support.c_krem_data_to_output_krem_81_krem_81_krem_,@object # @krem_prefixd0a84d721eb9a1a4_krem_callsiteId_krem_local_support.c_krem_data_to_output_krem_81_krem_81_krem_
	.globl	krem_prefixd0a84d721eb9a1a4_krem_callsiteId_krem_local_support.c_krem_data_to_output_krem_81_krem_81_krem_
krem_prefixd0a84d721eb9a1a4_krem_callsiteId_krem_local_support.c_krem_data_to_output_krem_81_krem_81_krem_:
	.byte	0                       # 0x0
	.size	krem_prefixd0a84d721eb9a1a4_krem_callsiteId_krem_local_support.c_krem_data_to_output_krem_81_krem_81_krem_, 1

	.type	krem_prefix4529a40d2730d449_krem_callsiteId_krem_local_support.c_krem_data_to_output_krem_82_krem_82_krem_,@object # @krem_prefix4529a40d2730d449_krem_callsiteId_krem_local_support.c_krem_data_to_output_krem_82_krem_82_krem_
	.globl	krem_prefix4529a40d2730d449_krem_callsiteId_krem_local_support.c_krem_data_to_output_krem_82_krem_82_krem_
krem_prefix4529a40d2730d449_krem_callsiteId_krem_local_support.c_krem_data_to_output_krem_82_krem_82_krem_:
	.byte	0                       # 0x0
	.size	krem_prefix4529a40d2730d449_krem_callsiteId_krem_local_support.c_krem_data_to_output_krem_82_krem_82_krem_, 1

	.type	krem_prefix1f6598932cab9ea4_krem_func_krem_local_support.c_krem_data_to_output_krem_78_krem_78_krem_,@object # @krem_prefix1f6598932cab9ea4_krem_func_krem_local_support.c_krem_data_to_output_krem_78_krem_78_krem_
	.globl	krem_prefix1f6598932cab9ea4_krem_func_krem_local_support.c_krem_data_to_output_krem_78_krem_78_krem_
krem_prefix1f6598932cab9ea4_krem_func_krem_local_support.c_krem_data_to_output_krem_78_krem_78_krem_:
	.byte	0                       # 0x0
	.size	krem_prefix1f6598932cab9ea4_krem_func_krem_local_support.c_krem_data_to_output_krem_78_krem_78_krem_, 1

	.type	krem_prefix359af4d3671ac144_krem_func_krem_local_support.c_krem_run_benchmark_krem_6_krem_6_krem_,@object # @krem_prefix359af4d3671ac144_krem_func_krem_local_support.c_krem_run_benchmark_krem_6_krem_6_krem_
	.globl	krem_prefix359af4d3671ac144_krem_func_krem_local_support.c_krem_run_benchmark_krem_6_krem_6_krem_
krem_prefix359af4d3671ac144_krem_func_krem_local_support.c_krem_run_benchmark_krem_6_krem_6_krem_:
	.byte	0                       # 0x0
	.size	krem_prefix359af4d3671ac144_krem_func_krem_local_support.c_krem_run_benchmark_krem_6_krem_6_krem_, 1

	.type	krem_prefix72b5b4fa529be4ae_krem_func_krem_local_support.c_krem_data_to_input_krem_44_krem_44_krem_,@object # @krem_prefix72b5b4fa529be4ae_krem_func_krem_local_support.c_krem_data_to_input_krem_44_krem_44_krem_
	.globl	krem_prefix72b5b4fa529be4ae_krem_func_krem_local_support.c_krem_data_to_input_krem_44_krem_44_krem_
krem_prefix72b5b4fa529be4ae_krem_func_krem_local_support.c_krem_data_to_input_krem_44_krem_44_krem_:
	.byte	0                       # 0x0
	.size	krem_prefix72b5b4fa529be4ae_krem_func_krem_local_support.c_krem_data_to_input_krem_44_krem_44_krem_, 1

	.type	krem_prefix99657ef8d1150419_krem_loop_body_krem_local_support.c_krem_check_data_krem_88_krem_92_krem_,@object # @krem_prefix99657ef8d1150419_krem_loop_body_krem_local_support.c_krem_check_data_krem_88_krem_92_krem_
	.globl	krem_prefix99657ef8d1150419_krem_loop_body_krem_local_support.c_krem_check_data_krem_88_krem_92_krem_
krem_prefix99657ef8d1150419_krem_loop_body_krem_local_support.c_krem_check_data_krem_88_krem_92_krem_:
	.byte	0                       # 0x0
	.size	krem_prefix99657ef8d1150419_krem_loop_body_krem_local_support.c_krem_check_data_krem_88_krem_92_krem_, 1

	.type	krem_prefixa41bc5f6dcbcc287_krem_func_krem_local_support.c_krem_input_to_data_krem_22_krem_22_krem_,@object # @krem_prefixa41bc5f6dcbcc287_krem_func_krem_local_support.c_krem_input_to_data_krem_22_krem_22_krem_
	.globl	krem_prefixa41bc5f6dcbcc287_krem_func_krem_local_support.c_krem_input_to_data_krem_22_krem_22_krem_
krem_prefixa41bc5f6dcbcc287_krem_func_krem_local_support.c_krem_input_to_data_krem_22_krem_22_krem_:
	.byte	0                       # 0x0
	.size	krem_prefixa41bc5f6dcbcc287_krem_func_krem_local_support.c_krem_input_to_data_krem_22_krem_22_krem_, 1

	.type	krem_prefixafc25d080a5e43d4_krem_func_krem_local_support.c_krem_check_data_krem_85_krem_85_krem_,@object # @krem_prefixafc25d080a5e43d4_krem_func_krem_local_support.c_krem_check_data_krem_85_krem_85_krem_
	.globl	krem_prefixafc25d080a5e43d4_krem_func_krem_local_support.c_krem_check_data_krem_85_krem_85_krem_
krem_prefixafc25d080a5e43d4_krem_func_krem_local_support.c_krem_check_data_krem_85_krem_85_krem_:
	.byte	0                       # 0x0
	.size	krem_prefixafc25d080a5e43d4_krem_func_krem_local_support.c_krem_check_data_krem_85_krem_85_krem_, 1

	.type	krem_prefixbddd6b4a8b0194b0_krem_func_krem_local_support.c_krem_output_to_data_krem_65_krem_65_krem_,@object # @krem_prefixbddd6b4a8b0194b0_krem_func_krem_local_support.c_krem_output_to_data_krem_65_krem_65_krem_
	.globl	krem_prefixbddd6b4a8b0194b0_krem_func_krem_local_support.c_krem_output_to_data_krem_65_krem_65_krem_
krem_prefixbddd6b4a8b0194b0_krem_func_krem_local_support.c_krem_output_to_data_krem_65_krem_65_krem_:
	.byte	0                       # 0x0
	.size	krem_prefixbddd6b4a8b0194b0_krem_func_krem_local_support.c_krem_output_to_data_krem_65_krem_65_krem_, 1

	.type	krem_prefixcec00794dbd9b8a1_krem_loop_krem_local_support.c_krem_check_data_krem_88_krem_92_krem_,@object # @krem_prefixcec00794dbd9b8a1_krem_loop_krem_local_support.c_krem_check_data_krem_88_krem_92_krem_
	.globl	krem_prefixcec00794dbd9b8a1_krem_loop_krem_local_support.c_krem_check_data_krem_88_krem_92_krem_
krem_prefixcec00794dbd9b8a1_krem_loop_krem_local_support.c_krem_check_data_krem_88_krem_92_krem_:
	.byte	0                       # 0x0
	.size	krem_prefixcec00794dbd9b8a1_krem_loop_krem_local_support.c_krem_check_data_krem_88_krem_92_krem_, 1

	.data
.Ldebug_end0:
	.text
.Ldebug_end1:
	.section	".note.GNU-stack","",@progbits