	.text
	.file	"ammunition.simplifycfg.mem2reg.indvars.elimsinglephis.criticalpath.regioninstrument.renamemain.O3.bc"
	.text
	.globl	ammunition_reset_str_bits
	.align	16, 0x90
	.type	ammunition_reset_str_bits,@function
ammunition_reset_str_bits:              # @ammunition_reset_str_bits
.Lfunc_begin0:
	.loc	1 60 0                  # ammunition.c:60:0
	.cfi_startproc
# BB#0:                                 # %entry
	pushq	%rbp
.Ltmp0:
	.cfi_def_cfa_offset 16
.Ltmp1:
	.cfi_offset %rbp, -16
	movq	%rsp, %rbp
.Ltmp2:
	.cfi_def_cfa_register %rbp
	pushq	%r15
	pushq	%r14
	pushq	%r13
	pushq	%r12
	pushq	%rbx
	pushq	%rax
.Ltmp3:
	.cfi_offset %rbx, -56
.Ltmp4:
	.cfi_offset %r12, -48
.Ltmp5:
	.cfi_offset %r13, -40
.Ltmp6:
	.cfi_offset %r14, -32
.Ltmp7:
	.cfi_offset %r15, -24
	#DEBUG_VALUE: ammunition_reset_str_bits:str <- RDI
	#DEBUG_VALUE: ammunition_reset_str_bits:s <- RSI
	movq	%rsi, %r12
.Ltmp8:
	#DEBUG_VALUE: ammunition_reset_str_bits:s <- R12
	movq	%rdi, %rbx
.Ltmp9:
	#DEBUG_VALUE: ammunition_reset_str_bits:str <- RBX
	movabsq	$-7203597609955823767, %rdi # imm = 0x9C07AE23D9BAEF69
	movabsq	$6260624233155964549, %r15 # imm = 0x56E23491E176AE85
	xorl	%r14d, %r14d
	xorl	%esi, %esi
	callq	_KEnterRegion
	movl	$3, %edi
	movl	$2, %esi
	callq	_KPrepRTable
.Ltmp10:
	#DEBUG_VALUE: ammunition_reset_str_bits:i <- 0
	movl	$1, %edi
	callq	_KInduction
	movl	$1, %esi
	movq	%r15, %rdi
	callq	_KEnterRegion
	movl	$1, %edi
	callq	_KWork
	movl	$2, %edi
	movl	$1, %esi
	movl	$1, %edx
	callq	_KTimestamp1
	movabsq	$-8900690423251778771, %r13 # imm = 0x847A6537CA5B432D
.Ltmp11:
	.align	16, 0x90
.LBB0_1:                                # %for.body
                                        # =>This Inner Loop Header: Depth=1
	#DEBUG_VALUE: ammunition_reset_str_bits:str <- RBX
	#DEBUG_VALUE: ammunition_reset_str_bits:s <- R12
	#DEBUG_VALUE: ammunition_reset_str_bits:i <- 0
	movl	$2, %esi
	movq	%r13, %rdi
	callq	_KEnterRegion
	movl	$2, %edi
	callq	_KPushCDep
	movl	$2, %edi
	callq	_KWork
	leaq	(%rbx,%r14), %rdi
	movl	$1, %esi
	callq	_KStoreConst
	.loc	1 64 5 prologue_end     # ammunition.c:64:5
.Ltmp12:
	movb	$0, (%rbx,%r14)
	leaq	(%r12,%r14), %rdi
	movl	$1, %esi
	callq	_KStoreConst
	.loc	1 65 5                  # ammunition.c:65:5
	movb	$0, (%r12,%r14)
.Ltmp13:
	.loc	1 63 3                  # ammunition.c:63:3
	incq	%r14
	callq	_KPopCDep
	movl	$2, %esi
	movq	%r13, %rdi
	callq	_KExitRegion
	movl	$1, %edi
	callq	_KWork
	movl	$2, %edi
	movl	$1, %esi
	movl	$1, %edx
	callq	_KTimestamp1
.Ltmp14:
	.loc	1 63 3 is_stmt 0        # ammunition.c:63:3
	cmpq	$8, %r14
	jne	.LBB0_1
.Ltmp15:
# BB#2:                                 # %for.cond.pre_exit.for.end
	#DEBUG_VALUE: ammunition_reset_str_bits:i <- 0
	movl	$1, %esi
	movq	%r15, %rdi
	callq	_KExitRegion
	xorl	%esi, %esi
	movabsq	$-7203597609955823767, %rdi # imm = 0x9C07AE23D9BAEF69
	addq	$8, %rsp
	popq	%rbx
	popq	%r12
	popq	%r13
	popq	%r14
	popq	%r15
	popq	%rbp
	jmp	_KExitRegion            # TAILCALL
.Ltmp16:
	.size	ammunition_reset_str_bits, .Ltmp16-ammunition_reset_str_bits
.Lfunc_end0:
	.cfi_endproc

	.globl	ammunition_reset_str_arithm
	.align	16, 0x90
	.type	ammunition_reset_str_arithm,@function
ammunition_reset_str_arithm:            # @ammunition_reset_str_arithm
.Lfunc_begin1:
	.loc	1 72 0 is_stmt 1        # ammunition.c:72:0
	.cfi_startproc
# BB#0:                                 # %entry
	pushq	%rbp
.Ltmp17:
	.cfi_def_cfa_offset 16
.Ltmp18:
	.cfi_offset %rbp, -16
	movq	%rsp, %rbp
.Ltmp19:
	.cfi_def_cfa_register %rbp
	pushq	%r15
	pushq	%r14
	pushq	%r13
	pushq	%r12
	pushq	%rbx
	subq	$24, %rsp
.Ltmp20:
	.cfi_offset %rbx, -56
.Ltmp21:
	.cfi_offset %r12, -48
.Ltmp22:
	.cfi_offset %r13, -40
.Ltmp23:
	.cfi_offset %r14, -32
.Ltmp24:
	.cfi_offset %r15, -24
	#DEBUG_VALUE: ammunition_reset_str_arithm:str <- RDI
	#DEBUG_VALUE: ammunition_reset_str_arithm:s <- RSI
	#DEBUG_VALUE: ammunition_reset_str_arithm:d <- RDX
	#DEBUG_VALUE: ammunition_reset_str_arithm:e <- RCX
	#DEBUG_VALUE: ammunition_reset_str_arithm:g <- R8
	movq	%r8, -48(%rbp)          # 8-byte Spill
.Ltmp25:
	#DEBUG_VALUE: ammunition_reset_str_arithm:g <- [RBP+-48]
	movq	%rcx, -56(%rbp)         # 8-byte Spill
.Ltmp26:
	#DEBUG_VALUE: ammunition_reset_str_arithm:e <- [RBP+-56]
	movq	%rdx, %r13
.Ltmp27:
	#DEBUG_VALUE: ammunition_reset_str_arithm:d <- R13
	movq	%rsi, %rbx
.Ltmp28:
	#DEBUG_VALUE: ammunition_reset_str_arithm:s <- RBX
	movq	%rdi, %r14
.Ltmp29:
	#DEBUG_VALUE: ammunition_reset_str_arithm:str <- R14
	movabsq	$-4978992846176769945, %r15 # imm = 0xBAE71062E06C2867
	movabsq	$-7610742967134483955, %rdi # imm = 0x9661359847258A0D
	xorl	%r12d, %r12d
	xorl	%esi, %esi
	callq	_KEnterRegion
	movl	$7, %edi
	movl	$2, %esi
	callq	_KPrepRTable
.Ltmp30:
	#DEBUG_VALUE: ammunition_reset_str_arithm:i <- 0
	movl	$1, %edi
	callq	_KInduction
	movl	$1, %esi
	movq	%r15, %rdi
	callq	_KEnterRegion
	movl	$1, %edi
	callq	_KWork
	movl	$4, %edi
	movl	$1, %esi
	movl	$1, %edx
	callq	_KTimestamp1
	movabsq	$4729886550659213048, %r15 # imm = 0x41A3EEC1FFF0A6F8
.Ltmp31:
	.align	16, 0x90
.LBB1_1:                                # %for.body
                                        # =>This Inner Loop Header: Depth=1
	#DEBUG_VALUE: ammunition_reset_str_arithm:str <- R14
	#DEBUG_VALUE: ammunition_reset_str_arithm:s <- RBX
	#DEBUG_VALUE: ammunition_reset_str_arithm:d <- R13
	#DEBUG_VALUE: ammunition_reset_str_arithm:e <- [RBP+-56]
	#DEBUG_VALUE: ammunition_reset_str_arithm:g <- [RBP+-48]
	#DEBUG_VALUE: ammunition_reset_str_arithm:i <- 0
	movl	$2, %esi
	movq	%r15, %rdi
	callq	_KEnterRegion
	movl	$4, %edi
	callq	_KPushCDep
	movl	$2, %edi
	callq	_KWork
	leaq	(%r14,%r12), %rdi
	movl	$1, %esi
	callq	_KStoreConst
	.loc	1 76 5 prologue_end     # ammunition.c:76:5
.Ltmp32:
	movb	$0, (%r14,%r12)
	leaq	(%rbx,%r12), %rdi
	movl	$1, %esi
	callq	_KStoreConst
	.loc	1 77 5                  # ammunition.c:77:5
	movb	$0, (%rbx,%r12)
.Ltmp33:
	.loc	1 75 3                  # ammunition.c:75:3
	incq	%r12
	callq	_KPopCDep
	movl	$2, %esi
	movq	%r15, %rdi
	callq	_KExitRegion
	movl	$1, %edi
	callq	_KWork
	movl	$4, %edi
	movl	$1, %esi
	movl	$1, %edx
	callq	_KTimestamp1
.Ltmp34:
	.loc	1 75 3 is_stmt 0        # ammunition.c:75:3
	cmpq	$20, %r12
	jne	.LBB1_1
.Ltmp35:
# BB#2:                                 # %for.cond.pre_exit.for.end
	#DEBUG_VALUE: ammunition_reset_str_arithm:d <- R13
	#DEBUG_VALUE: ammunition_reset_str_arithm:e <- [RBP+-56]
	#DEBUG_VALUE: ammunition_reset_str_arithm:g <- [RBP+-48]
	#DEBUG_VALUE: ammunition_reset_str_arithm:i <- 0
	movl	$1, %esi
	movabsq	$-4978992846176769945, %rdi # imm = 0xBAE71062E06C2867
	callq	_KExitRegion
	movl	$2, %edi
	callq	_KInduction
	movabsq	$7486670843837340550, %r15 # imm = 0x67E5FF776532DB86
	movl	$1, %esi
	movq	%r15, %rdi
	callq	_KEnterRegion
	movl	$1, %edi
	callq	_KWork
	movl	$5, %edi
	movl	$2, %esi
	movl	$1, %edx
	callq	_KTimestamp1
	movabsq	$-7677514020714312491, %r14 # imm = 0x9573FDACE53E0CD5
	movl	$2, %esi
	movq	%r14, %rdi
	callq	_KEnterRegion
	movl	$5, %edi
	callq	_KPushCDep
	movl	$2, %edi
	callq	_KWork
	movl	$1, %esi
	movq	%r13, %rdi
	callq	_KStoreConst
	.loc	1 82 5 is_stmt 1        # ammunition.c:82:5
.Ltmp36:
	movb	$0, (%r13)
	movl	$1, %esi
	movq	-56(%rbp), %rbx         # 8-byte Reload
.Ltmp37:
	#DEBUG_VALUE: ammunition_reset_str_arithm:e <- RBX
	movq	%rbx, %rdi
	callq	_KStoreConst
	.loc	1 83 5                  # ammunition.c:83:5
	movb	$0, (%rbx)
	callq	_KPopCDep
	movl	$2, %esi
	movq	%r14, %rdi
	callq	_KExitRegion
	movl	$1, %edi
	callq	_KWork
	movl	$5, %edi
	movl	$2, %esi
	movl	$1, %edx
	callq	_KTimestamp1
	movl	$2, %esi
	movq	%r14, %rdi
	callq	_KEnterRegion
	movl	$5, %edi
	callq	_KPushCDep
	movl	$2, %edi
	callq	_KWork
	.loc	1 82 5                  # ammunition.c:82:5
	leaq	1(%r13), %rdi
	movl	$1, %esi
	callq	_KStoreConst
	movb	$0, 1(%r13)
	.loc	1 83 5                  # ammunition.c:83:5
	leaq	1(%rbx), %rdi
	movl	$1, %esi
	callq	_KStoreConst
	movb	$0, 1(%rbx)
	callq	_KPopCDep
	movl	$2, %esi
	movq	%r14, %rdi
	callq	_KExitRegion
	movl	$1, %edi
	callq	_KWork
	movl	$5, %edi
	movl	$2, %esi
	movl	$1, %edx
	callq	_KTimestamp1
	movl	$2, %esi
	movq	%r14, %rdi
	callq	_KEnterRegion
	movl	$5, %edi
	callq	_KPushCDep
	movl	$2, %edi
	callq	_KWork
	.loc	1 82 5                  # ammunition.c:82:5
	leaq	2(%r13), %rdi
	movl	$1, %esi
	callq	_KStoreConst
	movb	$0, 2(%r13)
	.loc	1 83 5                  # ammunition.c:83:5
	leaq	2(%rbx), %rdi
	movl	$1, %esi
	callq	_KStoreConst
	movb	$0, 2(%rbx)
	callq	_KPopCDep
	movl	$2, %esi
	movq	%r14, %rdi
	callq	_KExitRegion
	movl	$1, %edi
	callq	_KWork
	movl	$5, %edi
	movl	$2, %esi
	movl	$1, %edx
	callq	_KTimestamp1
	movl	$2, %esi
	movq	%r14, %rdi
	callq	_KEnterRegion
	movl	$5, %edi
	callq	_KPushCDep
	movl	$2, %edi
	callq	_KWork
	.loc	1 82 5                  # ammunition.c:82:5
	leaq	3(%r13), %rdi
	movl	$1, %esi
	callq	_KStoreConst
	movb	$0, 3(%r13)
	.loc	1 83 5                  # ammunition.c:83:5
	leaq	3(%rbx), %rdi
	movl	$1, %esi
	callq	_KStoreConst
	movb	$0, 3(%rbx)
	callq	_KPopCDep
	movl	$2, %esi
	movq	%r14, %rdi
	callq	_KExitRegion
	movl	$1, %edi
	callq	_KWork
	movl	$5, %edi
	movl	$2, %esi
	movl	$1, %edx
	callq	_KTimestamp1
	movl	$1, %esi
	movq	%r15, %rdi
	callq	_KExitRegion
	movl	$3, %edi
	callq	_KInduction
	movabsq	$3281519325868525538, %r12 # imm = 0x2D8A4C70CDF907E2
	movl	$1, %esi
	movq	%r12, %rdi
	callq	_KEnterRegion
	movl	$1, %edi
	callq	_KWork
	movl	$6, %edi
	movl	$3, %esi
	movl	$1, %edx
	callq	_KTimestamp1
	movabsq	$-1873888680957417354, %r14 # imm = 0xE5FE9C2C46E86876
	movl	$2, %esi
	movq	%r14, %rdi
	callq	_KEnterRegion
	movl	$6, %edi
	callq	_KPushCDep
	movl	$1, %edi
	callq	_KWork
	movl	$1, %esi
	movq	-48(%rbp), %rbx         # 8-byte Reload
.Ltmp38:
	#DEBUG_VALUE: ammunition_reset_str_arithm:g <- RBX
	movq	%rbx, %rdi
	callq	_KStoreConst
.Ltmp39:
	.loc	1 88 5                  # ammunition.c:88:5
	movb	$0, (%rbx)
	callq	_KPopCDep
	movl	$2, %esi
	movq	%r14, %rdi
	callq	_KExitRegion
	movl	$1, %edi
	callq	_KWork
	movl	$6, %edi
	movl	$3, %esi
	movl	$1, %edx
	callq	_KTimestamp1
	movl	$2, %esi
	movq	%r14, %rdi
	callq	_KEnterRegion
	movl	$6, %edi
	callq	_KPushCDep
	movl	$1, %edi
	callq	_KWork
	leaq	1(%rbx), %rdi
	movl	$1, %esi
	callq	_KStoreConst
	movb	$0, 1(%rbx)
	callq	_KPopCDep
	movl	$2, %esi
	movq	%r14, %rdi
	callq	_KExitRegion
	movl	$1, %edi
	callq	_KWork
	movl	$6, %edi
	movl	$3, %esi
	movl	$1, %edx
	callq	_KTimestamp1
	movl	$2, %esi
	movq	%r14, %rdi
	callq	_KEnterRegion
	movl	$6, %edi
	callq	_KPushCDep
	movl	$1, %edi
	callq	_KWork
	leaq	2(%rbx), %rdi
	movl	$1, %esi
	callq	_KStoreConst
	movb	$0, 2(%rbx)
	callq	_KPopCDep
	movl	$2, %esi
	movq	%r14, %rdi
	callq	_KExitRegion
	movl	$1, %edi
	callq	_KWork
	movl	$6, %edi
	movl	$3, %esi
	movl	$1, %edx
	callq	_KTimestamp1
	movl	$2, %esi
	movq	%r14, %rdi
	callq	_KEnterRegion
	movl	$6, %edi
	callq	_KPushCDep
	movl	$1, %edi
	callq	_KWork
	leaq	3(%rbx), %rdi
	movl	$1, %esi
	callq	_KStoreConst
	movb	$0, 3(%rbx)
	callq	_KPopCDep
	movl	$2, %esi
	movq	%r14, %rdi
	callq	_KExitRegion
	movl	$1, %edi
	callq	_KWork
	movl	$6, %edi
	movl	$3, %esi
	movl	$1, %edx
	callq	_KTimestamp1
	movl	$2, %esi
	movq	%r14, %rdi
	callq	_KEnterRegion
	movl	$6, %edi
	callq	_KPushCDep
	movl	$1, %edi
	callq	_KWork
	leaq	4(%rbx), %rdi
	movl	$1, %esi
	callq	_KStoreConst
	movb	$0, 4(%rbx)
	callq	_KPopCDep
	movl	$2, %esi
	movq	%r14, %rdi
	callq	_KExitRegion
	movl	$1, %edi
	callq	_KWork
	movl	$6, %edi
	movl	$3, %esi
	movl	$1, %edx
	callq	_KTimestamp1
	movl	$2, %esi
	movq	%r14, %rdi
	callq	_KEnterRegion
	movl	$6, %edi
	callq	_KPushCDep
	movl	$1, %edi
	callq	_KWork
	leaq	5(%rbx), %rdi
	movl	$1, %esi
	callq	_KStoreConst
	movb	$0, 5(%rbx)
	callq	_KPopCDep
	movl	$2, %esi
	movq	%r14, %rdi
	callq	_KExitRegion
	movl	$1, %edi
	callq	_KWork
	movl	$6, %edi
	movl	$3, %esi
	movl	$1, %edx
	callq	_KTimestamp1
	movl	$1, %esi
	movq	%r12, %rdi
	callq	_KExitRegion
	xorl	%esi, %esi
	movabsq	$-7610742967134483955, %rdi # imm = 0x9661359847258A0D
	addq	$24, %rsp
	popq	%rbx
.Ltmp40:
	popq	%r12
	popq	%r13
.Ltmp41:
	popq	%r14
	popq	%r15
	popq	%rbp
	jmp	_KExitRegion            # TAILCALL
.Ltmp42:
.Ltmp43:
	.size	ammunition_reset_str_arithm, .Ltmp43-ammunition_reset_str_arithm
.Lfunc_end1:
	.cfi_endproc

	.globl	ammunition_bits_test
	.align	16, 0x90
	.type	ammunition_bits_test,@function
ammunition_bits_test:                   # @ammunition_bits_test
.Lfunc_begin2:
	.loc	1 93 0                  # ammunition.c:93:0
	.cfi_startproc
# BB#0:                                 # %entry
	pushq	%rbp
.Ltmp44:
	.cfi_def_cfa_offset 16
.Ltmp45:
	.cfi_offset %rbp, -16
	movq	%rsp, %rbp
.Ltmp46:
	.cfi_def_cfa_register %rbp
	pushq	%r15
	pushq	%r14
	pushq	%r13
	pushq	%r12
	pushq	%rbx
	subq	$88, %rsp
.Ltmp47:
	.cfi_offset %rbx, -56
.Ltmp48:
	.cfi_offset %r12, -48
.Ltmp49:
	.cfi_offset %r13, -40
.Ltmp50:
	.cfi_offset %r14, -32
.Ltmp51:
	.cfi_offset %r15, -24
	movabsq	$8874495400394360819, %rdi # imm = 0x7B288A8C2D5807F3
	movabsq	$4676716339188926716, %rbx # imm = 0x40E708BB709F08FC
	xorl	%r14d, %r14d
	xorl	%esi, %esi
	callq	_KEnterRegion
	movl	$135, %edi
	movl	$4, %esi
	callq	_KPrepRTable
.Ltmp52:
	#DEBUG_VALUE: ammunition_bits_test:result <- 0
	movabsq	$4269724318769019064, %rdi # imm = 0x3B411BA55D12F8B8
	xorl	%esi, %esi
	callq	_KPrepCall
	leaq	-48(%rbp), %rdi
	leaq	-56(%rbp), %rsi
	.loc	1 101 3 prologue_end    # ammunition.c:101:3
.Ltmp53:
	callq	ammunition_reset_str_bits
.Ltmp54:
	#DEBUG_VALUE: ammunition_bits_test:i <- 0
	movl	$81, %edi
	callq	_KInduction
	movl	$1, %esi
	movq	%rbx, %rdi
	callq	_KEnterRegion
	movabsq	$-1362580554682092883, %r15 # imm = 0xED1724346C51B2AD
	xorl	%r12d, %r12d
	xorl	%r13d, %r13d
	xorl	%eax, %eax
	movq	%rax, -64(%rbp)         # 8-byte Spill
	jmp	.LBB2_1
	.align	16, 0x90
.LBB2_4:                                # %for.inc
                                        #   in Loop: Header=BB2_1 Depth=1
	#DEBUG_VALUE: ammunition_bits_test:result <- 0
	#DEBUG_VALUE: ammunition_bits_test:i <- 0
	movl	$84, %r12d
	movl	$84, %edi
	callq	_KPushCDep
	movl	$83, %r13d
	movl	$83, %edi
	movl	$84, %edx
	movl	$85, %ecx
	movl	%ebx, %esi
	callq	_KPhi2To1
	.loc	1 104 47                # ammunition.c:104:47
.Ltmp55:
	incl	%r14d
.Ltmp56:
	#DEBUG_VALUE: ammunition_bits_test:i <- R14D
	movl	$83, %edi
	movl	$83, %esi
	xorl	%edx, %edx
	callq	_KTimestamp1
	callq	_KPopCDep
	movl	$2, %esi
	movq	%r15, %rdi
	callq	_KExitRegion
.Ltmp57:
.LBB2_1:                                # %for.cond
                                        # =>This Inner Loop Header: Depth=1
	#DEBUG_VALUE: ammunition_bits_test:result <- 0
	#DEBUG_VALUE: ammunition_bits_test:i <- 0
	movl	$82, %edi
	movl	%r13d, %esi
	movl	%r12d, %edx
	callq	_KPhi1To1
	movl	$1, %edi
	callq	_KWork
	movl	$82, %edi
	movl	$82, %esi
	xorl	%edx, %edx
	callq	_KTimestamp1
	movl	$84, %edi
	movl	$81, %esi
	movl	$1, %edx
	callq	_KTimestamp1
	movl	$82, %edi
	movl	$84, %esi
	callq	_KPhiAddCond
	movl	$81, %edi
	movl	$81, %esi
	xorl	%edx, %edx
	callq	_KTimestamp1
	.loc	1 104 3 is_stmt 0       # ammunition.c:104:3
	cmpl	$64, %r14d
	je	.LBB2_5
# BB#2:                                 # %for.body
                                        #   in Loop: Header=BB2_1 Depth=1
	#DEBUG_VALUE: ammunition_bits_test:result <- 0
	#DEBUG_VALUE: ammunition_bits_test:i <- 0
	movl	$2, %esi
	movq	%r15, %rdi
	callq	_KEnterRegion
	movl	$84, %edi
	callq	_KPushCDep
	movl	$28, %edi
	callq	_KWork
	.loc	1 105 10 is_stmt 1      # ammunition.c:105:10
.Ltmp58:
	movl	%r14d, %ebx
	notl	%ebx
	movl	%r14d, %r12d
	shrl	$3, %r12d
	leaq	-48(%rbp,%r12), %rdi
	movl	$1, %esi
	movl	$2, %edx
	movl	$1, %ecx
	callq	_KLoad1
	movsbl	-48(%rbp,%r12), %r12d
.Ltmp59:
	.loc	1 105 10 is_stmt 0      # ammunition.c:105:10
	andb	$7, %bl
	movzbl	%bl, %ebx
	movl	$3, (%rsp)
	movl	$85, %edi
	movl	$81, %esi
	movl	$14, %edx
	movl	$84, %ecx
	movl	$14, %r8d
	movl	$1, %r9d
	callq	_KTimestamp3
	callq	_KPopCDep
	btl	%ebx, %r12d
	movl	$82, %ebx
	jae	.LBB2_4
.Ltmp60:
# BB#3:                                 # %if.then
                                        #   in Loop: Header=BB2_1 Depth=1
	#DEBUG_VALUE: ammunition_bits_test:result <- 0
	#DEBUG_VALUE: ammunition_bits_test:i <- 0
	movl	$85, %edi
	callq	_KPushCDep
.Ltmp61:
	#DEBUG_VALUE: ammunition_bits_test:result <- 1
	callq	_KPopCDep
	movl	$1, %eax
	movq	%rax, -64(%rbp)         # 8-byte Spill
	xorl	%ebx, %ebx
	jmp	.LBB2_4
.LBB2_5:                                # %for.cond.pre_exit.for.end
.Ltmp62:
	#DEBUG_VALUE: ammunition_bits_test:result <- 0
	#DEBUG_VALUE: ammunition_bits_test:i <- 0
	movl	$1, %esi
	movabsq	$4676716339188926716, %rdi # imm = 0x40E708BB709F08FC
	callq	_KExitRegion
	movl	$7, %edi
	callq	_KInduction
	movl	$1, %esi
	movabsq	$-4363382269987105855, %rdi # imm = 0xC37226F1922E53C1
	callq	_KEnterRegion
	movl	$82, %esi
	xorl	%r13d, %r13d
	movabsq	$-5213824306146685691, %r12 # imm = 0xB7A4C66AE6D44D05
	movabsq	$-6482758181356994467, %rbx # imm = 0xA6089DC7FB75805D
	xorl	%r14d, %r14d
	jmp	.LBB2_6
	.align	16, 0x90
.LBB2_16:                               # %for.cond26.pre_exit.for.inc63
                                        #   in Loop: Header=BB2_6 Depth=1
	#DEBUG_VALUE: ammunition_bits_test:result <- 0
	#DEBUG_VALUE: ammunition_bits_test:i <- 0
.Ltmp63:
	#DEBUG_VALUE: ammunition_bits_test:j <- 0
	movl	$1, %esi
	movabsq	$-5213824306146685691, %r12 # imm = 0xB7A4C66AE6D44D05
	movq	%r12, %rdi
	callq	_KExitRegion
	movl	$6, %r14d
	movl	$6, %edi
	callq	_KPushCDep
	.loc	1 110 47 is_stmt 1      # ammunition.c:110:47
.Ltmp64:
	incl	%r13d
.Ltmp65:
	#DEBUG_VALUE: ammunition_bits_test:i <- R13D
	callq	_KPopCDep
	movl	$2, %esi
	movabsq	$-6482758181356994467, %rbx # imm = 0xA6089DC7FB75805D
	movq	%rbx, %rdi
	callq	_KExitRegion
	movl	$87, %esi
.Ltmp66:
.LBB2_6:                                # %for.cond5
                                        # =>This Loop Header: Depth=1
                                        #     Child Loop BB2_8 Depth 2
	#DEBUG_VALUE: ammunition_bits_test:result <- 0
	#DEBUG_VALUE: ammunition_bits_test:i <- 0
	movl	$86, %edi
	movl	%r14d, %edx
	callq	_KPhi1To1
	movl	$1, %edi
	callq	_KWork
	movl	$7, %edi
	movl	$7, %esi
	xorl	%edx, %edx
	callq	_KTimestamp1
	movl	$6, %edi
	movl	$7, %esi
	movl	$1, %edx
	callq	_KTimestamp1
	movl	$86, %edi
	movl	$6, %esi
	callq	_KPhiAddCond
	movl	$86, %edi
	movl	$86, %esi
	xorl	%edx, %edx
	callq	_KTimestamp1
	.loc	1 110 3 is_stmt 0       # ammunition.c:110:3
	cmpl	$64, %r13d
	je	.LBB2_17
# BB#7:                                 # %for.body9
                                        #   in Loop: Header=BB2_6 Depth=1
	#DEBUG_VALUE: ammunition_bits_test:result <- 0
	#DEBUG_VALUE: ammunition_bits_test:i <- 0
	movl	$2, %esi
	movq	%rbx, %rdi
	callq	_KEnterRegion
	movl	$6, %edi
	callq	_KPushCDep
	movl	$52, %edi
	callq	_KWork
	.loc	1 111 5 is_stmt 1       # ammunition.c:111:5
.Ltmp67:
	movl	%r13d, %ebx
	notl	%ebx
	movl	%r13d, %r15d
	shrl	$3, %r15d
	leaq	-48(%rbp,%r15), %r14
	movl	$3, %esi
	movl	$4, %edx
	movl	$1, %ecx
	movq	%r14, %rdi
	callq	_KLoad1
	movzbl	-48(%rbp,%r15), %eax
	andb	$7, %bl
	movl	$1, %edx
	movb	%bl, %cl
	shll	%cl, %edx
	movl	%edx, %ebx
	notl	%ebx
	andl	%eax, %ebx
	orl	%edx, %ebx
	movl	$15, (%rsp)
	movl	$5, %edi
	movl	$3, %esi
	movl	$2, %edx
	movl	$7, %ecx
	movl	$15, %r8d
	movl	$6, %r9d
	callq	_KTimestamp3
	movl	$5, %edi
	movl	$1, %edx
	movq	%r14, %rsi
	callq	_KStore
	movb	%bl, -48(%rbp,%r15)
	#DEBUG_VALUE: ammunition_bits_test:j <- 0
	movl	$88, %edi
	callq	_KInduction
	callq	_KPopCDep
	movl	$1, %esi
	movq	%r12, %rdi
	callq	_KEnterRegion
	movl	$86, %r12d
	xorl	%r15d, %r15d
	xorl	%ebx, %ebx
	jmp	.LBB2_8
	.align	16, 0x90
.LBB2_15:                               # %for.inc60
                                        #   in Loop: Header=BB2_8 Depth=2
	#DEBUG_VALUE: ammunition_bits_test:result <- 0
	#DEBUG_VALUE: ammunition_bits_test:i <- 0
	#DEBUG_VALUE: ammunition_bits_test:j <- 0
	movl	$90, %ebx
	movl	$90, %edi
	callq	_KPushCDep
	movl	$89, %r12d
	movl	$89, %edi
	movl	$90, %edx
	movl	%r14d, %esi
	callq	_KPhi1To1
	.loc	1 113 49                # ammunition.c:113:49
.Ltmp68:
	incl	%r15d
.Ltmp69:
	#DEBUG_VALUE: ammunition_bits_test:j <- R15D
	movl	$89, %edi
	movl	$89, %esi
	xorl	%edx, %edx
	callq	_KTimestamp1
	callq	_KPopCDep
	movl	$2, %esi
	movabsq	$-8193398403719759982, %rdi # imm = 0x8E4B338FF307F792
	callq	_KExitRegion
.Ltmp70:
.LBB2_8:                                # %for.cond26
                                        #   Parent Loop BB2_6 Depth=1
                                        # =>  This Inner Loop Header: Depth=2
	#DEBUG_VALUE: ammunition_bits_test:result <- 0
	#DEBUG_VALUE: ammunition_bits_test:i <- 0
	#DEBUG_VALUE: ammunition_bits_test:j <- 0
	movl	$6, %edi
	callq	_KPushCDep
	movl	$87, %edi
	movl	$6, %edx
	movl	%r12d, %esi
	movl	%ebx, %ecx
	callq	_KPhi2To1
	movl	$1, %edi
	callq	_KWork
	movl	$90, %edi
	movl	$88, %esi
	movl	$1, %edx
	movl	$6, %ecx
	movl	$1, %r8d
	callq	_KTimestamp2
	movl	$87, %edi
	movl	$90, %esi
	callq	_KPhiAddCond
	movl	$87, %edi
	movl	$87, %esi
	xorl	%edx, %edx
	callq	_KTimestamp1
	callq	_KPopCDep
	movl	$88, %edi
	movl	$88, %esi
	xorl	%edx, %edx
	callq	_KTimestamp1
	.loc	1 113 5 is_stmt 0       # ammunition.c:113:5
	cmpl	$64, %r15d
	je	.LBB2_16
# BB#9:                                 # %for.body30
                                        #   in Loop: Header=BB2_8 Depth=2
	#DEBUG_VALUE: ammunition_bits_test:result <- 0
	#DEBUG_VALUE: ammunition_bits_test:i <- 0
	#DEBUG_VALUE: ammunition_bits_test:j <- 0
	movl	$2, %esi
	movabsq	$-8193398403719759982, %rdi # imm = 0x8E4B338FF307F792
	callq	_KEnterRegion
	movl	$90, %edi
	callq	_KPushCDep
	movl	$28, %edi
	callq	_KWork
	.loc	1 114 12 is_stmt 1      # ammunition.c:114:12
.Ltmp71:
	movl	%r15d, %r14d
	notl	%r14d
	.loc	1 115 14                # ammunition.c:115:14
.Ltmp72:
	movl	%r15d, %ebx
	shrl	$3, %ebx
	leaq	-48(%rbp,%rbx), %rdi
	movl	$8, %esi
	movl	$9, %edx
	movl	$1, %ecx
	callq	_KLoad1
	movsbl	-48(%rbp,%rbx), %ebx
	callq	_KPopCDep
	movl	$1, (%rsp)
	movl	$132, %edi
	movl	$88, %esi
	movl	$1, %edx
	movl	$90, %ecx
	movl	$1, %r8d
	movl	$7, %r9d
	callq	_KTimestamp3
	movl	$132, %edi
	callq	_KPushCDep
	movl	$1, %edi
	callq	_KWork
.Ltmp73:
	.loc	1 118 14                # ammunition.c:118:14
	andb	$7, %r14b
	movl	$1, %r12d
	movb	%r14b, %cl
	shll	%cl, %r12d
	andl	%ebx, %r12d
	.loc	1 114 12                # ammunition.c:114:12
	cmpl	%r13d, %r15d
	jbe	.LBB2_10
# BB#12:                                # %if.else
                                        #   in Loop: Header=BB2_8 Depth=2
	#DEBUG_VALUE: ammunition_bits_test:result <- 0
	#DEBUG_VALUE: ammunition_bits_test:i <- 0
	#DEBUG_VALUE: ammunition_bits_test:j <- 0
	movl	$3, 16(%rsp)
	movl	$8, 8(%rsp)
	movl	$2, (%rsp)
	movl	$134, %edi
	movl	$88, %esi
	movl	$14, %edx
	movl	$90, %ecx
	movl	$14, %r8d
	movl	$7, %r9d
	callq	_KTimestamp4
	callq	_KPopCDep
	testl	%r12d, %r12d
	movl	$87, %r14d
	je	.LBB2_15
# BB#13:                                # %if.then57
                                        #   in Loop: Header=BB2_8 Depth=2
	#DEBUG_VALUE: ammunition_bits_test:result <- 0
	#DEBUG_VALUE: ammunition_bits_test:i <- 0
	#DEBUG_VALUE: ammunition_bits_test:j <- 0
	movl	$134, %edi
	jmp	.LBB2_14
	.align	16, 0x90
.LBB2_10:                               # %if.then33
                                        #   in Loop: Header=BB2_8 Depth=2
	#DEBUG_VALUE: ammunition_bits_test:result <- 0
	#DEBUG_VALUE: ammunition_bits_test:i <- 0
	#DEBUG_VALUE: ammunition_bits_test:j <- 0
	movl	$3, 16(%rsp)
	movl	$8, 8(%rsp)
	movl	$2, (%rsp)
	movl	$133, %edi
	movl	$88, %esi
	movl	$14, %edx
	movl	$90, %ecx
	movl	$14, %r8d
	movl	$7, %r9d
	callq	_KTimestamp4
	callq	_KPopCDep
	movl	$87, %r14d
	.loc	1 115 14                # ammunition.c:115:14
.Ltmp74:
	testl	%r12d, %r12d
	jne	.LBB2_15
.Ltmp75:
# BB#11:                                # %if.then45
                                        #   in Loop: Header=BB2_8 Depth=2
	#DEBUG_VALUE: ammunition_bits_test:result <- 0
	#DEBUG_VALUE: ammunition_bits_test:i <- 0
	#DEBUG_VALUE: ammunition_bits_test:j <- 0
	movl	$133, %edi
.LBB2_14:                               # %for.inc60
                                        #   in Loop: Header=BB2_8 Depth=2
	callq	_KPushCDep
.Ltmp76:
	#DEBUG_VALUE: ammunition_bits_test:result <- 1
	callq	_KPopCDep
	movl	$1, %eax
	movq	%rax, -64(%rbp)         # 8-byte Spill
	xorl	%r14d, %r14d
	jmp	.LBB2_15
.LBB2_17:                               # %for.cond5.pre_exit.for.end65
.Ltmp77:
	#DEBUG_VALUE: ammunition_bits_test:result <- 0
	#DEBUG_VALUE: ammunition_bits_test:i <- 0
	movl	$1, %esi
	movabsq	$-4363382269987105855, %rdi # imm = 0xC37226F1922E53C1
	callq	_KExitRegion
	xorl	%r12d, %r12d
	movabsq	$3410106494310713180, %rdi # imm = 0x2F5321C9FFA4875C
	xorl	%esi, %esi
	callq	_KPrepCall
	leaq	-48(%rbp), %rdi
	leaq	-56(%rbp), %rsi
	.loc	1 123 3                 # ammunition.c:123:3
	callq	ammunition_reset_str_bits
	movl	$11, %edi
	callq	_KInduction
	movl	$1, %esi
	movabsq	$3503210879012709602, %rdi # imm = 0x309DE7BBD0D624E2
	callq	_KEnterRegion
	movl	$86, %esi
	movl	$64, %r13d
	movabsq	$3446056363324025075, %r15 # imm = 0x2FD2DA0123E728F3
	xorl	%ebx, %ebx
	jmp	.LBB2_18
	.align	16, 0x90
.LBB2_21:                               # %for.inc81
                                        #   in Loop: Header=BB2_18 Depth=1
	#DEBUG_VALUE: ammunition_bits_test:result <- 0
	#DEBUG_VALUE: ammunition_bits_test:i <- 0
	movl	$13, %ebx
	movl	$13, %edi
	callq	_KPushCDep
	movl	$92, %edi
	movl	$13, %edx
	movl	$93, %ecx
	movl	%r14d, %esi
	callq	_KPhi2To1
	movl	$92, %edi
	movl	$92, %esi
	xorl	%edx, %edx
	callq	_KTimestamp1
	callq	_KPopCDep
	movl	$2, %esi
	movq	%r15, %rdi
	callq	_KExitRegion
	movl	$92, %esi
	incl	%r12d
	decq	%r13
.LBB2_18:                               # %for.cond68
                                        # =>This Inner Loop Header: Depth=1
	#DEBUG_VALUE: ammunition_bits_test:result <- 0
	#DEBUG_VALUE: ammunition_bits_test:i <- 0
	movl	$91, %edi
	movl	%ebx, %edx
	callq	_KPhi1To1
	movl	$1, %edi
	callq	_KWork
	movl	$13, %edi
	movl	$11, %esi
	movl	$1, %edx
	callq	_KTimestamp1
	movl	$11, %edi
	movl	$11, %esi
	xorl	%edx, %edx
	callq	_KTimestamp1
	movl	$91, %edi
	movl	$91, %esi
	xorl	%edx, %edx
	callq	_KTimestamp1
	movl	$91, %edi
	movl	$13, %esi
	callq	_KPhiAddCond
	.loc	1 126 3                 # ammunition.c:126:3
.Ltmp78:
	testq	%r13, %r13
	je	.LBB2_22
# BB#19:                                # %for.body72
                                        #   in Loop: Header=BB2_18 Depth=1
	#DEBUG_VALUE: ammunition_bits_test:result <- 0
	#DEBUG_VALUE: ammunition_bits_test:i <- 0
	movl	$2, %esi
	movq	%r15, %rdi
	callq	_KEnterRegion
	movl	$13, %edi
	callq	_KPushCDep
	movl	$13, %edi
	callq	_KWork
	.loc	1 128 20                # ammunition.c:128:20
.Ltmp79:
	movq	%r13, %rbx
	shrq	%rbx
	incl	%ebx
	xorl	%esi, %esi
	movabsq	$-1813128549675110674, %rdi # imm = 0xE6D67930C07EEEEE
	callq	_KPrepCall
	movl	$12, %edi
	movl	$11, %esi
	movl	$12, %edx
	movl	$13, %ecx
	movl	$12, %r8d
	callq	_KTimestamp2
	movl	$12, %edi
	callq	_KEnqArg
	movl	$11, %edi
	callq	_KEnqArg
	movl	$10, %edi
	callq	_KLinkReturn
	leaq	-48(%rbp), %rdi
	.loc	1 127 11                # ammunition.c:127:11
	movl	%r12d, %esi
	movl	%ebx, %edx
	callq	ammunition_is_zero_bit_string
	movl	%eax, %ebx
	movl	$93, %edi
	movl	$13, %esi
	movl	$1, %edx
	movl	$10, %ecx
	movl	$1, %r8d
	callq	_KTimestamp2
	callq	_KPopCDep
	movl	$91, %r14d
.Ltmp80:
	.loc	1 127 10 is_stmt 0      # ammunition.c:127:10
	testl	%ebx, %ebx
	jne	.LBB2_21
.Ltmp81:
# BB#20:                                # %if.then79
                                        #   in Loop: Header=BB2_18 Depth=1
	#DEBUG_VALUE: ammunition_bits_test:result <- 0
	#DEBUG_VALUE: ammunition_bits_test:i <- 0
	movl	$93, %edi
	callq	_KPushCDep
.Ltmp82:
	#DEBUG_VALUE: ammunition_bits_test:result <- 1
	callq	_KPopCDep
	movl	$1, %eax
	movq	%rax, -64(%rbp)         # 8-byte Spill
	xorl	%r14d, %r14d
	jmp	.LBB2_21
.LBB2_22:                               # %for.cond68.pre_exit.for.end83
.Ltmp83:
	#DEBUG_VALUE: ammunition_bits_test:result <- 0
	#DEBUG_VALUE: ammunition_bits_test:i <- 0
	movl	$1, %esi
	movabsq	$3503210879012709602, %rdi # imm = 0x309DE7BBD0D624E2
	callq	_KExitRegion
	xorl	%r13d, %r13d
	movabsq	$-2469114945059757878, %rdi # imm = 0xDDBBF10A161AE0CA
	xorl	%esi, %esi
	callq	_KPrepCall
	callq	_KEnqArgConst
	callq	_KEnqArgConst
	callq	_KEnqArgConst
	leaq	-48(%rbp), %rdi
	movl	$13, %r12d
	movl	$13, %esi
	movl	$1, %edx
	movl	$35, %ecx
	.loc	1 130 3 is_stmt 1       # ammunition.c:130:3
	callq	ammunition_bit_string_set
	movl	$15, %edi
	callq	_KInduction
	movl	$1, %esi
	movabsq	$830972204557017781, %rdi # imm = 0xB8834D13ED822B5
	callq	_KEnterRegion
	movl	$91, %esi
	movabsq	$-3558549994382609098, %r15 # imm = 0xCE9D7DA2555B3536
	xorl	%ebx, %ebx
	jmp	.LBB2_23
	.align	16, 0x90
.LBB2_26:                               # %for.inc95
                                        #   in Loop: Header=BB2_23 Depth=1
	#DEBUG_VALUE: ammunition_bits_test:result <- 0
	#DEBUG_VALUE: ammunition_bits_test:i <- 0
	movl	$17, %ebx
	movl	$17, %edi
	callq	_KPushCDep
	movl	$95, %edi
	movl	$17, %edx
	movl	$96, %ecx
	movl	%r14d, %esi
	callq	_KPhi2To1
	.loc	1 132 24                # ammunition.c:132:24
.Ltmp84:
	incl	%r13d
.Ltmp85:
	#DEBUG_VALUE: ammunition_bits_test:i <- R13D
	movl	$95, %edi
	movl	$95, %esi
	xorl	%edx, %edx
	callq	_KTimestamp1
	callq	_KPopCDep
	movl	$2, %esi
	movq	%r15, %rdi
	callq	_KExitRegion
	movl	$95, %esi
	decl	%r12d
.Ltmp86:
.LBB2_23:                               # %for.cond85
                                        # =>This Inner Loop Header: Depth=1
	#DEBUG_VALUE: ammunition_bits_test:result <- 0
	#DEBUG_VALUE: ammunition_bits_test:i <- 0
	movl	$94, %edi
	movl	%ebx, %edx
	callq	_KPhi1To1
	movl	$1, %edi
	callq	_KWork
	movl	$17, %edi
	movl	$15, %esi
	movl	$1, %edx
	callq	_KTimestamp1
	movl	$15, %edi
	movl	$15, %esi
	xorl	%edx, %edx
	callq	_KTimestamp1
	movl	$94, %edi
	movl	$17, %esi
	callq	_KPhiAddCond
	movl	$94, %edi
	movl	$94, %esi
	xorl	%edx, %edx
	callq	_KTimestamp1
	.loc	1 132 3 is_stmt 0       # ammunition.c:132:3
	testl	%r12d, %r12d
	je	.LBB2_27
# BB#24:                                # %for.body88
                                        #   in Loop: Header=BB2_23 Depth=1
	#DEBUG_VALUE: ammunition_bits_test:result <- 0
	#DEBUG_VALUE: ammunition_bits_test:i <- 0
	movl	$2, %esi
	movq	%r15, %rdi
	callq	_KEnterRegion
	movl	$17, %edi
	callq	_KPushCDep
	movl	$2, %edi
	callq	_KWork
	xorl	%esi, %esi
	movabsq	$-4815395007449651412, %rdi # imm = 0xBD2C47C0F7C6272C
	callq	_KPrepCall
	movl	$16, %edi
	movl	$15, %esi
	movl	$1, %edx
	movl	$17, %ecx
	movl	$1, %r8d
	callq	_KTimestamp2
	movl	$16, %edi
	callq	_KEnqArg
	movl	$15, %edi
	callq	_KEnqArg
	movl	$14, %edi
	callq	_KLinkReturn
	leaq	-48(%rbp), %rdi
	.loc	1 133 11 is_stmt 1      # ammunition.c:133:11
.Ltmp87:
	movl	%r13d, %esi
	movl	%r12d, %edx
	callq	ammunition_is_zero_bit_string
	movl	%eax, %ebx
	movl	$96, %edi
	movl	$17, %esi
	movl	$1, %edx
	movl	$14, %ecx
	movl	$1, %r8d
	callq	_KTimestamp2
	callq	_KPopCDep
	movl	$94, %r14d
.Ltmp88:
	.loc	1 133 10 is_stmt 0      # ammunition.c:133:10
	testl	%ebx, %ebx
	jne	.LBB2_26
.Ltmp89:
# BB#25:                                # %if.then93
                                        #   in Loop: Header=BB2_23 Depth=1
	#DEBUG_VALUE: ammunition_bits_test:result <- 0
	#DEBUG_VALUE: ammunition_bits_test:i <- 0
	movl	$96, %edi
	callq	_KPushCDep
.Ltmp90:
	#DEBUG_VALUE: ammunition_bits_test:result <- 1
	callq	_KPopCDep
	movl	$1, %eax
	movq	%rax, -64(%rbp)         # 8-byte Spill
	xorl	%r14d, %r14d
	jmp	.LBB2_26
.LBB2_27:                               # %for.cond85.pre_exit.for.end97
.Ltmp91:
	#DEBUG_VALUE: ammunition_bits_test:result <- 0
	#DEBUG_VALUE: ammunition_bits_test:i <- 0
	movl	$1, %esi
	movabsq	$830972204557017781, %rdi # imm = 0xB8834D13ED822B5
	callq	_KExitRegion
.Ltmp92:
	#DEBUG_VALUE: ammunition_bits_test:i <- 13
	movl	$1, %esi
	movabsq	$-7559184953746900587, %rdi # imm = 0x97186155B8703995
	callq	_KEnterRegion
	movl	$94, %r12d
	movl	$13, %ebx
	xorl	%r14d, %r14d
	movl	$35, %r13d
	xorl	%r15d, %r15d
	jmp	.LBB2_28
	.align	16, 0x90
.LBB2_31:                               # %for.inc108
                                        #   in Loop: Header=BB2_28 Depth=1
	#DEBUG_VALUE: ammunition_bits_test:result <- 0
	#DEBUG_VALUE: ammunition_bits_test:i <- 13
	movl	$21, %r15d
	movl	$21, %edi
	callq	_KPushCDep
	movl	$99, %r12d
	movl	$99, %edi
	movl	$21, %edx
	movl	$100, %ecx
	movl	%ebx, %esi
	callq	_KPhi2To1
	movl	$1, %edi
	callq	_KWork
	movl	%r14d, %ebx
	.loc	1 136 25 is_stmt 1      # ammunition.c:136:25
.Ltmp93:
	incl	%ebx
.Ltmp94:
	#DEBUG_VALUE: ammunition_bits_test:i <- EBX
	movl	$99, %edi
	movl	$99, %esi
	xorl	%edx, %edx
	callq	_KTimestamp1
	movl	$97, %r14d
	movl	$97, %edi
	movl	$19, %esi
	movl	$1, %edx
	movl	$21, %ecx
	movl	$1, %r8d
	callq	_KTimestamp2
	callq	_KPopCDep
	movl	$2, %esi
	movabsq	$-73643301571650110, %rdi # imm = 0xFEFA5DCEB1BC1DC2
	callq	_KExitRegion
	decl	%r13d
.Ltmp95:
.LBB2_28:                               # %for.cond98
                                        # =>This Inner Loop Header: Depth=1
	#DEBUG_VALUE: ammunition_bits_test:result <- 0
	#DEBUG_VALUE: ammunition_bits_test:i <- 13
	movl	$19, %edi
	movl	%r14d, %esi
	movl	%r15d, %edx
	callq	_KPhi1To1
	movl	$98, %edi
	movl	%r12d, %esi
	movl	%r15d, %edx
	callq	_KPhi1To1
	movl	$1, %edi
	callq	_KWork
	movl	$21, %edi
	movl	$19, %esi
	movl	$1, %edx
	callq	_KTimestamp1
	movl	$19, %edi
	movl	$19, %esi
	xorl	%edx, %edx
	callq	_KTimestamp1
	movl	$98, %edi
	movl	$98, %esi
	xorl	%edx, %edx
	callq	_KTimestamp1
	movl	$19, %edi
	movl	$21, %esi
	callq	_KPhiAddCond
	movl	$98, %edi
	movl	$21, %esi
	callq	_KPhiAddCond
	.loc	1 136 3 is_stmt 0       # ammunition.c:136:3
	testl	%r13d, %r13d
	je	.LBB2_32
# BB#29:                                # %for.body101
                                        #   in Loop: Header=BB2_28 Depth=1
	#DEBUG_VALUE: ammunition_bits_test:result <- 0
	#DEBUG_VALUE: ammunition_bits_test:i <- 13
	movl	$2, %esi
	movabsq	$-73643301571650110, %rdi # imm = 0xFEFA5DCEB1BC1DC2
	callq	_KEnterRegion
	movl	$21, %edi
	callq	_KPushCDep
	movl	$2, %edi
	callq	_KWork
	xorl	%esi, %esi
	movabsq	$-7665221544701077268, %rdi # imm = 0x959FA99DFF6BD8EC
	callq	_KPrepCall
	movl	$20, %edi
	movl	$19, %esi
	movl	$1, %edx
	movl	$21, %ecx
	movl	$1, %r8d
	callq	_KTimestamp2
	movl	$20, %edi
	callq	_KEnqArg
	movl	$19, %edi
	callq	_KEnqArg
	movl	$18, %edi
	callq	_KLinkReturn
	leaq	-48(%rbp), %rdi
	.loc	1 137 10 is_stmt 1      # ammunition.c:137:10
.Ltmp96:
	movl	%ebx, %esi
	movl	%ebx, %r14d
	movl	%r13d, %edx
	callq	ammunition_is_zero_bit_string
	movl	%eax, %ebx
	movl	$100, %edi
	movl	$21, %esi
	movl	$1, %edx
	movl	$18, %ecx
	movl	$1, %r8d
	callq	_KTimestamp2
	callq	_KPopCDep
.Ltmp97:
	.loc	1 137 10 is_stmt 0      # ammunition.c:137:10
	testl	%ebx, %ebx
	movl	$98, %ebx
	je	.LBB2_31
.Ltmp98:
# BB#30:                                # %if.then106
                                        #   in Loop: Header=BB2_28 Depth=1
	#DEBUG_VALUE: ammunition_bits_test:result <- 0
	#DEBUG_VALUE: ammunition_bits_test:i <- 13
	movl	$100, %edi
	callq	_KPushCDep
.Ltmp99:
	#DEBUG_VALUE: ammunition_bits_test:result <- 1
	callq	_KPopCDep
	movl	$1, %eax
	movq	%rax, -64(%rbp)         # 8-byte Spill
	xorl	%ebx, %ebx
	jmp	.LBB2_31
.LBB2_32:                               # %for.cond98.pre_exit.for.end110
.Ltmp100:
	#DEBUG_VALUE: ammunition_bits_test:result <- 0
	#DEBUG_VALUE: ammunition_bits_test:i <- 13
	movl	$1, %esi
	movabsq	$-7559184953746900587, %rdi # imm = 0x97186155B8703995
	callq	_KExitRegion
.Ltmp101:
	#DEBUG_VALUE: ammunition_bits_test:i <- 48
	movl	$1, %esi
	movabsq	$-6666747714427323759, %rdi # imm = 0xA37AF44692697A91
	callq	_KEnterRegion
	movl	$98, %ebx
	movl	$48, %r13d
	xorl	%r14d, %r14d
	movl	$16, %r15d
	xorl	%r12d, %r12d
	jmp	.LBB2_33
	.align	16, 0x90
.LBB2_36:                               # %for.inc124
                                        #   in Loop: Header=BB2_33 Depth=1
	#DEBUG_VALUE: ammunition_bits_test:result <- 0
	#DEBUG_VALUE: ammunition_bits_test:i <- 48
	movl	$25, %r12d
	movl	$25, %edi
	callq	_KPushCDep
	movl	$103, %edi
	movl	$25, %edx
	movl	$104, %ecx
	movl	%r14d, %esi
	callq	_KPhi2To1
	movl	$1, %edi
	callq	_KWork
	.loc	1 140 48 is_stmt 1      # ammunition.c:140:48
.Ltmp102:
	incl	%r13d
.Ltmp103:
	#DEBUG_VALUE: ammunition_bits_test:i <- R13D
	movl	$103, %edi
	movl	$103, %esi
	xorl	%edx, %edx
	callq	_KTimestamp1
	movl	$101, %r14d
	movl	$101, %edi
	movl	$25, %esi
	movl	$1, %edx
	movl	$23, %ecx
	movl	$1, %r8d
	callq	_KTimestamp2
	callq	_KPopCDep
	movl	$2, %esi
	movabsq	$-9000596864842526286, %rdi # imm = 0x831774D6B09111B2
	callq	_KExitRegion
	decl	%r15d
	movl	$103, %ebx
.Ltmp104:
.LBB2_33:                               # %for.cond111
                                        # =>This Inner Loop Header: Depth=1
	#DEBUG_VALUE: ammunition_bits_test:result <- 0
	#DEBUG_VALUE: ammunition_bits_test:i <- 48
	movl	$23, %edi
	movl	%r14d, %esi
	movl	%r12d, %edx
	callq	_KPhi1To1
	movl	$102, %edi
	movl	%ebx, %esi
	movl	%r12d, %edx
	callq	_KPhi1To1
	movl	$1, %edi
	callq	_KWork
	movl	$25, %edi
	movl	$23, %esi
	movl	$1, %edx
	callq	_KTimestamp1
	movl	$23, %edi
	movl	$23, %esi
	xorl	%edx, %edx
	callq	_KTimestamp1
	movl	$102, %edi
	movl	$102, %esi
	xorl	%edx, %edx
	callq	_KTimestamp1
	movl	$23, %edi
	movl	$25, %esi
	callq	_KPhiAddCond
	movl	$102, %edi
	movl	$25, %esi
	callq	_KPhiAddCond
	.loc	1 140 3 is_stmt 0       # ammunition.c:140:3
	testl	%r15d, %r15d
	je	.LBB2_37
# BB#34:                                # %for.body115
                                        #   in Loop: Header=BB2_33 Depth=1
	#DEBUG_VALUE: ammunition_bits_test:result <- 0
	#DEBUG_VALUE: ammunition_bits_test:i <- 48
	movl	$2, %esi
	movabsq	$-9000596864842526286, %rax # imm = 0x831774D6B09111B2
	movq	%rax, %rdi
	callq	_KEnterRegion
	movl	$25, %edi
	callq	_KPushCDep
	movl	$2, %edi
	callq	_KWork
	xorl	%esi, %esi
	movabsq	$8824368582885276762, %rdi # imm = 0x7A767478FDFE7C5A
	callq	_KPrepCall
	movl	$24, %edi
	movl	$25, %esi
	movl	$1, %edx
	movl	$23, %ecx
	movl	$1, %r8d
	callq	_KTimestamp2
	movl	$24, %edi
	callq	_KEnqArg
	movl	$23, %edi
	callq	_KEnqArg
	movl	$22, %edi
	callq	_KLinkReturn
	leaq	-48(%rbp), %rdi
	.loc	1 141 11 is_stmt 1      # ammunition.c:141:11
.Ltmp105:
	movl	%r13d, %esi
	movl	%r15d, %edx
	callq	ammunition_is_zero_bit_string
	movl	%eax, %ebx
	movl	$104, %edi
	movl	$25, %esi
	movl	$1, %edx
	movl	$22, %ecx
	movl	$1, %r8d
	callq	_KTimestamp2
	callq	_KPopCDep
	movl	$102, %r14d
.Ltmp106:
	.loc	1 141 10 is_stmt 0      # ammunition.c:141:10
	testl	%ebx, %ebx
	jne	.LBB2_36
.Ltmp107:
# BB#35:                                # %if.then122
                                        #   in Loop: Header=BB2_33 Depth=1
	#DEBUG_VALUE: ammunition_bits_test:result <- 0
	#DEBUG_VALUE: ammunition_bits_test:i <- 48
	movl	$104, %edi
	callq	_KPushCDep
.Ltmp108:
	#DEBUG_VALUE: ammunition_bits_test:result <- 1
	callq	_KPopCDep
	movl	$1, %eax
	movq	%rax, -64(%rbp)         # 8-byte Spill
	xorl	%r14d, %r14d
	jmp	.LBB2_36
.LBB2_37:                               # %for.cond111.pre_exit.for.end126
.Ltmp109:
	#DEBUG_VALUE: ammunition_bits_test:result <- 0
	#DEBUG_VALUE: ammunition_bits_test:i <- 48
	movl	$1, -72(%rbp)           # 4-byte Folded Spill
	movl	$1, %esi
	movabsq	$-6666747714427323759, %rdi # imm = 0xA37AF44692697A91
	callq	_KExitRegion
	xorl	%r15d, %r15d
	movabsq	$-4339762881617881759, %rdi # imm = 0xC3C610A6F7BD9561
	xorl	%esi, %esi
	callq	_KPrepCall
	leaq	-48(%rbp), %r14
	leaq	-56(%rbp), %rsi
	.loc	1 146 3 is_stmt 1       # ammunition.c:146:3
	movq	%r14, %rdi
	callq	ammunition_reset_str_bits
.Ltmp110:
	#DEBUG_VALUE: ammunition_bits_test:i <- 0
	movl	$26, %edi
	callq	_KInduction
	movl	$1, %esi
	movabsq	$2267032808358822089, %rdi # imm = 0x1F761E53F46240C9
	callq	_KEnterRegion
	movl	$102, %esi
	movl	$63, -80(%rbp)          # 4-byte Folded Spill
	movabsq	$5459591287350689297, %rbx # imm = 0x4BC45D59855AFE11
	xorl	%r12d, %r12d
	jmp	.LBB2_38
	.align	16, 0x90
.LBB2_45:                               # %if.end166
                                        #   in Loop: Header=BB2_38 Depth=1
	#DEBUG_VALUE: ammunition_bits_test:result <- 0
	#DEBUG_VALUE: ammunition_bits_test:i <- 0
	movl	$28, %r12d
	movl	$28, %edi
	callq	_KPushCDep
	movl	$106, %edi
	movl	$28, %edx
	movl	$111, %ecx
	movl	%r15d, %esi
	callq	_KPhi2To1
	xorl	%esi, %esi
	movabsq	$-1783955395462143177, %rdi # imm = 0xE73E1E0506566337
	callq	_KPrepCall
	callq	_KEnqArgConst
	callq	_KEnqArgConst
	callq	_KEnqArgConst
	xorl	%esi, %esi
	xorl	%edx, %edx
	movl	$64, %ecx
	.loc	1 158 5                 # ammunition.c:158:5
.Ltmp111:
	movq	%r14, %rdi
	callq	ammunition_bit_string_set
	movl	$106, %edi
	movl	$106, %esi
	xorl	%edx, %edx
	callq	_KTimestamp1
	callq	_KPopCDep
	movl	$2, %esi
	movabsq	$5459591287350689297, %r13 # imm = 0x4BC45D59855AFE11
	movq	%r13, %rbx
	movq	%rbx, %rdi
	callq	_KExitRegion
	movl	$106, %esi
	decl	-80(%rbp)               # 4-byte Folded Spill
	incl	-72(%rbp)               # 4-byte Folded Spill
	movq	-88(%rbp), %r15         # 8-byte Reload
	incl	%r15d
.Ltmp112:
.LBB2_38:                               # %for.cond129
                                        # =>This Inner Loop Header: Depth=1
	#DEBUG_VALUE: ammunition_bits_test:result <- 0
	#DEBUG_VALUE: ammunition_bits_test:i <- 0
	movl	$105, %edi
	movl	%r12d, %edx
	callq	_KPhi1To1
	movl	$1, %edi
	callq	_KWork
	movl	$28, %edi
	movl	$26, %esi
	movl	$1, %edx
	callq	_KTimestamp1
	movl	$26, %edi
	movl	$26, %esi
	xorl	%edx, %edx
	callq	_KTimestamp1
	movl	$105, %edi
	movl	$28, %esi
	callq	_KPhiAddCond
	movl	$105, %edi
	movl	$105, %esi
	xorl	%edx, %edx
	callq	_KTimestamp1
	.loc	1 149 3                 # ammunition.c:149:3
	cmpl	$42, %r15d
	je	.LBB2_46
# BB#39:                                # %for.body136
                                        #   in Loop: Header=BB2_38 Depth=1
	#DEBUG_VALUE: ammunition_bits_test:result <- 0
	#DEBUG_VALUE: ammunition_bits_test:i <- 0
	movl	%r15d, %r13d
	shrl	%r13d
	movl	$2, %esi
	movq	%rbx, %rdi
	callq	_KEnterRegion
	movl	$28, %edi
	callq	_KPushCDep
	movl	$13, %edi
	callq	_KWork
	.loc	1 150 44                # ammunition.c:150:44
.Ltmp113:
	leal	1(%r13), %ebx
	movl	%ebx, -92(%rbp)         # 4-byte Spill
	xorl	%esi, %esi
	movabsq	$8005389183436261511, %rdi # imm = 0x6F18DB0C47790887
	callq	_KPrepCall
	movl	$27, %edi
	movl	$26, %esi
	movl	$11, %edx
	movl	$28, %ecx
	movl	$11, %r8d
	callq	_KTimestamp2
	movl	$27, %edi
	callq	_KEnqArg
	callq	_KEnqArgConst
	movl	$26, %edi
	callq	_KEnqArg
	movl	$1, %edx
	.loc	1 150 5 is_stmt 0       # ammunition.c:150:5
	movq	%r14, %rdi
	movl	%r15d, %esi
	movl	%ebx, %ecx
	callq	ammunition_bit_string_set
	.loc	1 151 51 is_stmt 1      # ammunition.c:151:51
.Ltmp114:
	decl	%r15d
	xorl	%esi, %esi
	movabsq	$-907414217511507666, %rdi # imm = 0xF3683793AD16692E
	callq	_KPrepCall
	movl	$30, %edi
	movl	$26, %esi
	movl	$1, %edx
	movl	$28, %ecx
	movl	$1, %r8d
	callq	_KTimestamp2
	movl	$30, %edi
	callq	_KEnqArg
	callq	_KEnqArgConst
	movl	$29, %edi
	callq	_KLinkReturn
	xorl	%esi, %esi
	.loc	1 151 11 is_stmt 0      # ammunition.c:151:11
	movq	%r14, %rdi
	movl	%r15d, %edx
	callq	ammunition_is_zero_bit_string
	movq	%r14, %rbx
	movq	%r15, %r14
	movl	%eax, %r12d
	movl	$108, %edi
	movl	$28, %esi
	movl	$1, %edx
	movl	$29, %ecx
	movl	$1, %r8d
	callq	_KTimestamp2
	callq	_KPopCDep
	movl	$105, %r15d
.Ltmp115:
	.loc	1 151 10                # ammunition.c:151:10
	testl	%r12d, %r12d
	jne	.LBB2_41
# BB#40:                                # %if.then144
                                        #   in Loop: Header=BB2_38 Depth=1
	#DEBUG_VALUE: ammunition_bits_test:result <- 0
	#DEBUG_VALUE: ammunition_bits_test:i <- 0
	movl	$108, %edi
	callq	_KPushCDep
.Ltmp116:
	#DEBUG_VALUE: ammunition_bits_test:result <- 1
	callq	_KPopCDep
	movl	$1, %eax
	movq	%rax, -64(%rbp)         # 8-byte Spill
	xorl	%r15d, %r15d
.LBB2_41:                               # %if.end145
                                        #   in Loop: Header=BB2_38 Depth=1
.Ltmp117:
	#DEBUG_VALUE: ammunition_bits_test:result <- 0
	#DEBUG_VALUE: ammunition_bits_test:i <- 0
	movl	-80(%rbp), %eax         # 4-byte Reload
	subl	%r13d, %eax
	movl	%eax, -96(%rbp)         # 4-byte Spill
	addl	-72(%rbp), %r13d        # 4-byte Folded Reload
	movl	$28, %edi
	callq	_KPushCDep
	movl	$107, %edi
	movl	$28, %edx
	movl	$108, %ecx
	movl	%r15d, %esi
	callq	_KPhi2To1
	movl	$12, %edi
	callq	_KWork
	xorl	%esi, %esi
	movabsq	$-3128138923835413413, %rdi # imm = 0xD4969E38ECB7AC5B
	callq	_KPrepCall
	movl	$32, %edi
	movl	$26, %esi
	movl	$11, %edx
	movl	$28, %ecx
	movl	$11, %r8d
	callq	_KTimestamp2
	movl	$32, %edi
	callq	_KEnqArg
	movl	$26, %edi
	callq	_KEnqArg
	movl	$31, %edi
	callq	_KLinkReturn
	.loc	1 153 10 is_stmt 1      # ammunition.c:153:10
.Ltmp118:
	incl	%r14d
	movq	%r14, -88(%rbp)         # 8-byte Spill
	movq	%rbx, %rdi
	movq	%rbx, %r12
	movl	%r14d, %esi
	movl	$107, %r14d
	movl	-92(%rbp), %edx         # 4-byte Reload
	callq	ammunition_is_zero_bit_string
	movl	%eax, %ebx
	movl	$110, %edi
	movl	$28, %esi
	movl	$1, %edx
	movl	$31, %ecx
	movl	$1, %r8d
	callq	_KTimestamp2
	movl	$107, %edi
	movl	$107, %esi
	xorl	%edx, %edx
	callq	_KTimestamp1
	callq	_KPopCDep
.Ltmp119:
	.loc	1 153 10 is_stmt 0      # ammunition.c:153:10
	testl	%ebx, %ebx
	je	.LBB2_43
# BB#42:                                # %if.then151
                                        #   in Loop: Header=BB2_38 Depth=1
	#DEBUG_VALUE: ammunition_bits_test:result <- 0
	#DEBUG_VALUE: ammunition_bits_test:i <- 0
	movl	$110, %edi
	callq	_KPushCDep
.Ltmp120:
	#DEBUG_VALUE: ammunition_bits_test:result <- 1
	callq	_KPopCDep
	movl	$1, %eax
	movq	%rax, -64(%rbp)         # 8-byte Spill
	xorl	%r14d, %r14d
.LBB2_43:                               # %if.end152
                                        #   in Loop: Header=BB2_38 Depth=1
.Ltmp121:
	#DEBUG_VALUE: ammunition_bits_test:result <- 0
	#DEBUG_VALUE: ammunition_bits_test:i <- 0
	movl	$28, %edi
	callq	_KPushCDep
	movl	$109, %r15d
	movl	$109, %edi
	movl	$28, %edx
	movl	$110, %ecx
	movl	%r14d, %esi
	callq	_KPhi2To1
	movl	$26, %edi
	callq	_KWork
	xorl	%esi, %esi
	movabsq	$-5497727998968732792, %rdi # imm = 0xB3B425835DBFE388
	callq	_KPrepCall
	movl	$35, %edi
	movl	$26, %esi
	movl	$13, %edx
	movl	$28, %ecx
	movl	$13, %r8d
	callq	_KTimestamp2
	movl	$35, %edi
	callq	_KEnqArg
	movl	$34, %edi
	movl	$26, %esi
	movl	$12, %edx
	movl	$28, %ecx
	movl	$12, %r8d
	callq	_KTimestamp2
	movl	$34, %edi
	callq	_KEnqArg
	movl	$33, %edi
	callq	_KLinkReturn
	movq	%r12, %r14
	.loc	1 155 11 is_stmt 1      # ammunition.c:155:11
.Ltmp122:
	movq	%r14, %rdi
	movl	%r13d, %esi
	movl	-96(%rbp), %edx         # 4-byte Reload
	callq	ammunition_is_zero_bit_string
	movl	%eax, %ebx
	movl	$111, %edi
	movl	$28, %esi
	movl	$1, %edx
	movl	$33, %ecx
	movl	$1, %r8d
	callq	_KTimestamp2
	movl	$109, %edi
	movl	$109, %esi
	xorl	%edx, %edx
	callq	_KTimestamp1
	callq	_KPopCDep
.Ltmp123:
	.loc	1 155 10 is_stmt 0      # ammunition.c:155:10
	testl	%ebx, %ebx
	jne	.LBB2_45
.Ltmp124:
# BB#44:                                # %if.then165
                                        #   in Loop: Header=BB2_38 Depth=1
	#DEBUG_VALUE: ammunition_bits_test:result <- 0
	#DEBUG_VALUE: ammunition_bits_test:i <- 0
	movl	$111, %edi
	callq	_KPushCDep
.Ltmp125:
	#DEBUG_VALUE: ammunition_bits_test:result <- 1
	callq	_KPopCDep
	movl	$1, %eax
	movq	%rax, -64(%rbp)         # 8-byte Spill
	xorl	%r15d, %r15d
	jmp	.LBB2_45
.LBB2_46:                               # %for.cond129.pre_exit.for.end170
.Ltmp126:
	#DEBUG_VALUE: ammunition_bits_test:result <- 0
	#DEBUG_VALUE: ammunition_bits_test:i <- 0
	movl	$1, %esi
	movabsq	$2267032808358822089, %rdi # imm = 0x1F761E53F46240C9
	callq	_KExitRegion
	movabsq	$-8557527722772073484, %rdi # imm = 0x893D8DE0389CF3F4
	xorl	%esi, %esi
	callq	_KPrepCall
	leaq	-48(%rbp), %rbx
	leaq	-56(%rbp), %r14
	.loc	1 162 3 is_stmt 1       # ammunition.c:162:3
	movq	%rbx, %rdi
	movq	%r14, %rsi
	callq	ammunition_reset_str_bits
	movabsq	$8880331328257948376, %rdi # imm = 0x7B3D464B04967AD8
	xorl	%esi, %esi
	callq	_KPrepCall
	callq	_KEnqArgConst
	callq	_KEnqArgConst
	callq	_KEnqArgConst
	movl	$2, %esi
	movl	$1, %edx
	movl	$43, %ecx
	.loc	1 164 3                 # ammunition.c:164:3
	movq	%rbx, %rdi
	callq	ammunition_bit_string_set
	movabsq	$-6493100387312004437, %rdi # imm = 0xA5E3DF99835112AB
	xorl	%esi, %esi
	callq	_KPrepCall
	callq	_KEnqArgConst
	callq	_KEnqArgConst
	callq	_KEnqArgConst
	movl	$2, %esi
	movl	$1, %edx
	movl	$40, %ecx
	.loc	1 165 3                 # ammunition.c:165:3
	movq	%r14, %rdi
	xorl	%r14d, %r14d
	callq	ammunition_bit_string_set
	movl	$37, %edi
	callq	_KInduction
	movl	$1, %esi
	movabsq	$4910846525263343371, %rdi # imm = 0x4426D4E55CC86F0B
	callq	_KEnterRegion
	movl	$105, %r15d
	movl	$42, %r13d
	movabsq	$7359269222878965483, %rbx # imm = 0x6621605DFC2A6EEB
	xorl	%r12d, %r12d
	jmp	.LBB2_47
	.align	16, 0x90
.LBB2_50:                               # %for.inc187
                                        #   in Loop: Header=BB2_47 Depth=1
	#DEBUG_VALUE: ammunition_bits_test:result <- 0
	#DEBUG_VALUE: ammunition_bits_test:i <- 0
	movl	$39, %r12d
	movl	$39, %edi
	callq	_KPushCDep
	movl	$113, %r15d
	movl	$113, %edi
	movl	$39, %edx
	movl	$114, %ecx
	movl	%r14d, %esi
	callq	_KPhi2To1
	movq	%r13, %r14
	.loc	1 167 24                # ammunition.c:167:24
.Ltmp127:
	incl	%r14d
.Ltmp128:
	#DEBUG_VALUE: ammunition_bits_test:i <- R14D
	movl	$113, %edi
	movl	$113, %esi
	xorl	%edx, %edx
	callq	_KTimestamp1
	callq	_KPopCDep
	movl	$2, %esi
	movabsq	$7359269222878965483, %rbx # imm = 0x6621605DFC2A6EEB
	movq	%rbx, %rdi
	callq	_KExitRegion
	movl	-72(%rbp), %r13d        # 4-byte Reload
	decl	%r13d
.Ltmp129:
.LBB2_47:                               # %for.cond175
                                        # =>This Inner Loop Header: Depth=1
	#DEBUG_VALUE: ammunition_bits_test:result <- 0
	#DEBUG_VALUE: ammunition_bits_test:i <- 0
	movl	$112, %edi
	movl	%r15d, %esi
	movl	%r12d, %edx
	callq	_KPhi1To1
	movl	$1, %edi
	callq	_KWork
	movl	$39, %edi
	movl	$37, %esi
	movl	$1, %edx
	callq	_KTimestamp1
	movl	$37, %edi
	movl	$37, %esi
	xorl	%edx, %edx
	callq	_KTimestamp1
	movl	$112, %edi
	movl	$39, %esi
	callq	_KPhiAddCond
	movl	$112, %edi
	movl	$112, %esi
	xorl	%edx, %edx
	callq	_KTimestamp1
	.loc	1 167 3 is_stmt 0       # ammunition.c:167:3
	testl	%r13d, %r13d
	je	.LBB2_51
# BB#48:                                # %for.body178
                                        #   in Loop: Header=BB2_47 Depth=1
	#DEBUG_VALUE: ammunition_bits_test:result <- 0
	#DEBUG_VALUE: ammunition_bits_test:i <- 0
	movl	$2, %esi
	movq	%rbx, %rdi
	callq	_KEnterRegion
	movl	$39, %edi
	callq	_KPushCDep
	movl	$2, %edi
	callq	_KWork
	xorl	%esi, %esi
	movabsq	$468791638334101316, %rdi # imm = 0x6817B82E493D744
	callq	_KPrepCall
	movl	$38, %edi
	movl	$37, %esi
	movl	$1, %edx
	movl	$39, %ecx
	movl	$1, %r8d
	callq	_KTimestamp2
	movl	$38, %edi
	callq	_KEnqArg
	movl	$37, %edi
	callq	_KEnqArg
	movl	$37, %edi
	callq	_KEnqArg
	movl	$36, %edi
	callq	_KLinkReturn
	leaq	-48(%rbp), %rdi
	.loc	1 168 10 is_stmt 1      # ammunition.c:168:10
.Ltmp130:
	movl	%r14d, %esi
	leaq	-56(%rbp), %rdx
	movl	%r14d, %ecx
	movl	%r13d, %r8d
	movl	%r8d, -72(%rbp)         # 4-byte Spill
	movq	%r14, %r13
	callq	ammunition_bit_string_comparison
	movl	%eax, %ebx
	movl	$114, %edi
	movl	$39, %esi
	movl	$1, %edx
	movl	$36, %ecx
	movl	$1, %r8d
	callq	_KTimestamp2
	callq	_KPopCDep
	testl	%ebx, %ebx
	movl	$112, %r14d
	je	.LBB2_50
.Ltmp131:
# BB#49:                                # %if.then185
                                        #   in Loop: Header=BB2_47 Depth=1
	#DEBUG_VALUE: ammunition_bits_test:result <- 0
	#DEBUG_VALUE: ammunition_bits_test:i <- 0
	movl	$114, %edi
	callq	_KPushCDep
.Ltmp132:
	#DEBUG_VALUE: ammunition_bits_test:result <- 1
	callq	_KPopCDep
	movl	$1, %eax
	movq	%rax, -64(%rbp)         # 8-byte Spill
	xorl	%r14d, %r14d
	jmp	.LBB2_50
.LBB2_51:                               # %for.cond175.pre_exit.for.end189
.Ltmp133:
	#DEBUG_VALUE: ammunition_bits_test:result <- 0
	#DEBUG_VALUE: ammunition_bits_test:i <- 0
	movl	$1, %esi
	movabsq	$4910846525263343371, %rdi # imm = 0x4426D4E55CC86F0B
	callq	_KExitRegion
	movl	$42, %edi
	callq	_KInduction
	movl	$1, %esi
	movabsq	$4669580369209669264, %rdi # imm = 0x40CDAE9AF4E13690
	callq	_KEnterRegion
	xorl	%r12d, %r12d
	movl	$112, %esi
	movl	$64, %r13d
	movabsq	$-8173766481719541895, %r15 # imm = 0x8E90F2B0FC1CBF79
	xorl	%ebx, %ebx
	jmp	.LBB2_52
	.align	16, 0x90
.LBB2_55:                               # %for.inc204
                                        #   in Loop: Header=BB2_52 Depth=1
	#DEBUG_VALUE: ammunition_bits_test:result <- 0
	#DEBUG_VALUE: ammunition_bits_test:i <- 0
	movl	$43, %ebx
	movl	$43, %edi
	callq	_KPushCDep
	movl	$116, %edi
	movl	$43, %edx
	movl	$117, %ecx
	movl	%r14d, %esi
	callq	_KPhi2To1
	.loc	1 171 3                 # ammunition.c:171:3
.Ltmp134:
	incq	%r12
	movl	$116, %edi
	movl	$116, %esi
	xorl	%edx, %edx
	callq	_KTimestamp1
	callq	_KPopCDep
	movl	$2, %esi
	movq	%r15, %rdi
	callq	_KExitRegion
	movl	$116, %esi
	decl	%r13d
.Ltmp135:
.LBB2_52:                               # %for.cond190
                                        # =>This Inner Loop Header: Depth=1
	#DEBUG_VALUE: ammunition_bits_test:result <- 0
	#DEBUG_VALUE: ammunition_bits_test:i <- 0
	movl	$115, %edi
	movl	%ebx, %edx
	callq	_KPhi1To1
	movl	$1, %edi
	callq	_KWork
	movl	$43, %edi
	movl	$42, %esi
	movl	$1, %edx
	callq	_KTimestamp1
	movl	$42, %edi
	movl	$42, %esi
	xorl	%edx, %edx
	callq	_KTimestamp1
	movl	$115, %edi
	movl	$43, %esi
	callq	_KPhiAddCond
	movl	$115, %edi
	movl	$115, %esi
	xorl	%edx, %edx
	callq	_KTimestamp1
	.loc	1 171 3 is_stmt 0       # ammunition.c:171:3
	cmpq	$43, %r12
	je	.LBB2_56
# BB#53:                                # %for.body193
                                        #   in Loop: Header=BB2_52 Depth=1
	#DEBUG_VALUE: ammunition_bits_test:result <- 0
	#DEBUG_VALUE: ammunition_bits_test:i <- 0
	movl	$2, %esi
	movq	%r15, %rdi
	callq	_KEnterRegion
	movl	$43, %edi
	callq	_KPushCDep
	movl	$2, %edi
	callq	_KWork
	movl	$41, %edi
	movl	$42, %esi
	xorl	%edx, %edx
	movl	$43, %ecx
	xorl	%r8d, %r8d
	callq	_KTimestamp2
	xorl	%esi, %esi
	movabsq	$881940468497262126, %rdi # imm = 0xC3D482EF1D2262E
	callq	_KPrepCall
	movl	$44, %edi
	movl	$42, %esi
	movl	$1, %edx
	movl	$43, %ecx
	movl	$1, %r8d
	callq	_KTimestamp2
	movl	$44, %edi
	callq	_KEnqArg
	movl	$41, %edi
	callq	_KEnqArg
	movl	$41, %edi
	callq	_KEnqArg
	movl	$40, %edi
	callq	_KLinkReturn
	leaq	-48(%rbp), %rdi
	.loc	1 172 10 is_stmt 1      # ammunition.c:172:10
.Ltmp136:
	movl	%r12d, %esi
	leaq	-56(%rbp), %rdx
	movl	%r12d, %ecx
	movl	%r13d, %r8d
	callq	ammunition_bit_string_comparison
	movl	%eax, %ebx
	movl	$117, %edi
	movl	$43, %esi
	movl	$1, %edx
	movl	$40, %ecx
	movl	$1, %r8d
	callq	_KTimestamp2
	callq	_KPopCDep
	movl	$115, %r14d
.Ltmp137:
	.loc	1 172 10 is_stmt 0      # ammunition.c:172:10
	testl	%ebx, %ebx
	jg	.LBB2_55
.Ltmp138:
# BB#54:                                # %if.then202
                                        #   in Loop: Header=BB2_52 Depth=1
	#DEBUG_VALUE: ammunition_bits_test:result <- 0
	#DEBUG_VALUE: ammunition_bits_test:i <- 0
	movl	$117, %edi
	callq	_KPushCDep
.Ltmp139:
	#DEBUG_VALUE: ammunition_bits_test:result <- 1
	callq	_KPopCDep
	movl	$1, %eax
	movq	%rax, -64(%rbp)         # 8-byte Spill
	xorl	%r14d, %r14d
	jmp	.LBB2_55
.LBB2_56:                               # %for.cond190.pre_exit.for.end206
.Ltmp140:
	#DEBUG_VALUE: ammunition_bits_test:result <- 0
	#DEBUG_VALUE: ammunition_bits_test:i <- 0
	movl	$1, %esi
	movabsq	$4669580369209669264, %rdi # imm = 0x40CDAE9AF4E13690
	callq	_KExitRegion
	movl	$47, %edi
	callq	_KInduction
	movl	$1, %esi
	movabsq	$-2102364745546753933, %rdi # imm = 0xE2D2E66719619873
	callq	_KEnterRegion
	xorl	%r13d, %r13d
	movl	$115, %r15d
	movl	$64, %r14d
	movabsq	$-1458590317522395646, %rbx # imm = 0xEBC20BD58B40DE02
	xorl	%r12d, %r12d
	jmp	.LBB2_57
	.align	16, 0x90
.LBB2_60:                               # %for.inc221
                                        #   in Loop: Header=BB2_57 Depth=1
	#DEBUG_VALUE: ammunition_bits_test:result <- 0
	#DEBUG_VALUE: ammunition_bits_test:i <- 0
	movl	$48, %r12d
	movl	$48, %edi
	callq	_KPushCDep
	movl	$119, %r15d
	movl	$119, %edi
	movl	$48, %edx
	movl	$120, %ecx
	movl	%r14d, %esi
	callq	_KPhi2To1
	.loc	1 177 3 is_stmt 1       # ammunition.c:177:3
.Ltmp141:
	incq	%r13
	movl	$119, %edi
	movl	$119, %esi
	xorl	%edx, %edx
	callq	_KTimestamp1
	callq	_KPopCDep
	movl	$2, %esi
	movabsq	$-1458590317522395646, %rbx # imm = 0xEBC20BD58B40DE02
	movq	%rbx, %rdi
	callq	_KExitRegion
	movl	-72(%rbp), %r14d        # 4-byte Reload
	decl	%r14d
.Ltmp142:
.LBB2_57:                               # %for.cond207
                                        # =>This Inner Loop Header: Depth=1
	#DEBUG_VALUE: ammunition_bits_test:result <- 0
	#DEBUG_VALUE: ammunition_bits_test:i <- 0
	movl	$118, %edi
	movl	%r15d, %esi
	movl	%r12d, %edx
	callq	_KPhi1To1
	movl	$1, %edi
	callq	_KWork
	movl	$48, %edi
	movl	$47, %esi
	movl	$1, %edx
	callq	_KTimestamp1
	movl	$47, %edi
	movl	$47, %esi
	xorl	%edx, %edx
	callq	_KTimestamp1
	movl	$118, %edi
	movl	$48, %esi
	callq	_KPhiAddCond
	movl	$118, %edi
	movl	$118, %esi
	xorl	%edx, %edx
	callq	_KTimestamp1
	.loc	1 177 3 is_stmt 0       # ammunition.c:177:3
	cmpq	$43, %r13
	je	.LBB2_61
# BB#58:                                # %for.body210
                                        #   in Loop: Header=BB2_57 Depth=1
	#DEBUG_VALUE: ammunition_bits_test:result <- 0
	#DEBUG_VALUE: ammunition_bits_test:i <- 0
	movl	$2, %esi
	movq	%rbx, %rdi
	callq	_KEnterRegion
	movl	$48, %edi
	callq	_KPushCDep
	movl	$2, %edi
	callq	_KWork
	xorl	%esi, %esi
	movabsq	$6255649034339748184, %rdi # imm = 0x56D087A723560958
	callq	_KPrepCall
	movl	$49, %edi
	movl	$47, %esi
	movl	$1, %edx
	movl	$48, %ecx
	movl	$1, %r8d
	callq	_KTimestamp2
	movl	$49, %edi
	callq	_KEnqArg
	movl	$46, %edi
	movl	$47, %esi
	xorl	%edx, %edx
	movl	$48, %ecx
	xorl	%r8d, %r8d
	callq	_KTimestamp2
	movl	$46, %edi
	callq	_KEnqArg
	movl	$46, %edi
	callq	_KEnqArg
	movl	$45, %edi
	callq	_KLinkReturn
	leaq	-56(%rbp), %rdi
	.loc	1 178 10 is_stmt 1      # ammunition.c:178:10
.Ltmp143:
	movl	%r13d, %esi
	leaq	-48(%rbp), %rdx
	movl	%r13d, %ecx
	movl	%r14d, %r8d
	movl	%r14d, -72(%rbp)        # 4-byte Spill
	callq	ammunition_bit_string_comparison
	movl	%eax, %ebx
	movl	$120, %edi
	movl	$48, %esi
	movl	$1, %edx
	movl	$45, %ecx
	movl	$1, %r8d
	callq	_KTimestamp2
	callq	_KPopCDep
	movl	$118, %r14d
.Ltmp144:
	.loc	1 178 10 is_stmt 0      # ammunition.c:178:10
	testl	%ebx, %ebx
	js	.LBB2_60
.Ltmp145:
# BB#59:                                # %if.then219
                                        #   in Loop: Header=BB2_57 Depth=1
	#DEBUG_VALUE: ammunition_bits_test:result <- 0
	#DEBUG_VALUE: ammunition_bits_test:i <- 0
	movl	$120, %edi
	callq	_KPushCDep
.Ltmp146:
	#DEBUG_VALUE: ammunition_bits_test:result <- 1
	callq	_KPopCDep
	movl	$1, %eax
	movq	%rax, -64(%rbp)         # 8-byte Spill
	xorl	%r14d, %r14d
	jmp	.LBB2_60
.LBB2_61:                               # %for.cond207.pre_exit.for.end223
.Ltmp147:
	#DEBUG_VALUE: ammunition_bits_test:result <- 0
	#DEBUG_VALUE: ammunition_bits_test:i <- 0
	movl	$1, %esi
	movabsq	$-2102364745546753933, %rdi # imm = 0xE2D2E66719619873
	callq	_KExitRegion
	xorl	%ebx, %ebx
	movabsq	$-9182105359688906584, %rdi # imm = 0x80929BD3018848A8
	xorl	%esi, %esi
	callq	_KPrepCall
	leaq	-48(%rbp), %r14
	leaq	-56(%rbp), %rsi
	.loc	1 184 3 is_stmt 1       # ammunition.c:184:3
	movq	%r14, %rdi
	callq	ammunition_reset_str_bits
	movabsq	$-670005028809111385, %rdi # imm = 0xF6B3A9F9E41B88A7
	xorl	%esi, %esi
	callq	_KPrepCall
	callq	_KEnqArgConst
	callq	_KEnqArgConst
	callq	_KEnqArgConst
	movl	$2, %esi
	movl	$1, %edx
	movl	$43, %ecx
	.loc	1 186 3                 # ammunition.c:186:3
	movq	%r14, %rdi
	callq	ammunition_bit_string_set
	movl	$53, %edi
	callq	_KInduction
	movl	$1, %esi
	movabsq	$8882351517733747314, %rdi # imm = 0x7B4473A508ABFA72
	callq	_KEnterRegion
	movl	$118, %r15d
	movl	$59, %r13d
	xorl	%r12d, %r12d
	xorl	%r14d, %r14d
	jmp	.LBB2_62
	.align	16, 0x90
.LBB2_65:                               # %for.inc252
                                        #   in Loop: Header=BB2_62 Depth=1
	#DEBUG_VALUE: ammunition_bits_test:result <- 0
	#DEBUG_VALUE: ammunition_bits_test:i <- 0
	movl	$52, %r12d
	movl	$52, %edi
	callq	_KPushCDep
	movl	$123, %r15d
	movl	$123, %edi
	movl	$52, %edx
	movl	$124, %ecx
	movl	%ebx, %esi
	callq	_KPhi2To1
	movl	$1, %edi
	callq	_KWork
	.loc	1 188 51                # ammunition.c:188:51
.Ltmp148:
	incl	%r14d
.Ltmp149:
	#DEBUG_VALUE: ammunition_bits_test:i <- R14D
	movl	$121, %ebx
	movl	$121, %edi
	movl	$51, %esi
	movl	$1, %edx
	movl	$52, %ecx
	movl	$1, %r8d
	callq	_KTimestamp2
	movl	$123, %edi
	movl	$123, %esi
	xorl	%edx, %edx
	callq	_KTimestamp1
	callq	_KPopCDep
	movl	$2, %esi
	movabsq	$1165350403203773368, %rdi # imm = 0x102C280475D1B3B8
	callq	_KExitRegion
	decq	%r13
.Ltmp150:
.LBB2_62:                               # %for.cond227
                                        # =>This Inner Loop Header: Depth=1
	#DEBUG_VALUE: ammunition_bits_test:result <- 0
	#DEBUG_VALUE: ammunition_bits_test:i <- 0
	movl	$51, %edi
	movl	%ebx, %esi
	movl	%r12d, %edx
	callq	_KPhi1To1
	movl	$122, %edi
	movl	%r15d, %esi
	movl	%r12d, %edx
	callq	_KPhi1To1
	movl	$1, %edi
	callq	_KWork
	movl	$53, %edi
	movl	$53, %esi
	xorl	%edx, %edx
	callq	_KTimestamp1
	movl	$52, %edi
	movl	$53, %esi
	movl	$1, %edx
	callq	_KTimestamp1
	movl	$51, %edi
	movl	$51, %esi
	xorl	%edx, %edx
	callq	_KTimestamp1
	movl	$51, %edi
	movl	$52, %esi
	callq	_KPhiAddCond
	movl	$122, %edi
	movl	$52, %esi
	callq	_KPhiAddCond
	movl	$122, %edi
	movl	$122, %esi
	xorl	%edx, %edx
	callq	_KTimestamp1
	.loc	1 188 3 is_stmt 0       # ammunition.c:188:3
	testq	%r13, %r13
	je	.LBB2_66
# BB#63:                                # %for.body232
                                        #   in Loop: Header=BB2_62 Depth=1
	#DEBUG_VALUE: ammunition_bits_test:result <- 0
	#DEBUG_VALUE: ammunition_bits_test:i <- 0
	movl	$2, %esi
	movabsq	$1165350403203773368, %rdi # imm = 0x102C280475D1B3B8
	callq	_KEnterRegion
	movl	$52, %edi
	callq	_KPushCDep
	movl	$9, %edi
	callq	_KWork
	xorl	%esi, %esi
	movabsq	$6976379758771791778, %rdi # imm = 0x60D1146D9BD167A2
	callq	_KPrepCall
	movl	$55, %edi
	movl	$53, %esi
	movl	$2, %edx
	movl	$52, %ecx
	movl	$2, %r8d
	callq	_KTimestamp2
	movl	$55, %edi
	callq	_KEnqArg
	movl	$54, %edi
	movl	$53, %esi
	xorl	%edx, %edx
	movl	$52, %ecx
	xorl	%r8d, %r8d
	callq	_KTimestamp2
	movl	$54, %edi
	callq	_KEnqArg
	movl	$50, %edi
	movl	$51, %esi
	movl	$1, %edx
	movl	$52, %ecx
	movl	$1, %r8d
	callq	_KTimestamp2
	movl	$50, %edi
	callq	_KEnqArg
	.loc	1 189 5 is_stmt 1       # ammunition.c:189:5
.Ltmp151:
	leal	5(%r14), %r15d
	leaq	-56(%rbp), %r12
	movq	%r12, %rdi
	movl	%r15d, %esi
	leaq	-48(%rbp), %rbx
	movq	%rbx, %rdx
	movl	%r14d, %ecx
	movl	%r13d, %r8d
	callq	ammunition_bit_string_copy
	xorl	%esi, %esi
	movabsq	$5308549917327424157, %rdi # imm = 0x49ABC2061EBAFA9D
	callq	_KPrepCall
	movl	$59, %edi
	movl	$53, %esi
	movl	$2, %edx
	movl	$52, %ecx
	movl	$2, %r8d
	callq	_KTimestamp2
	movl	$59, %edi
	callq	_KEnqArg
	movl	$58, %edi
	movl	$53, %esi
	xorl	%edx, %edx
	movl	$52, %ecx
	xorl	%r8d, %r8d
	callq	_KTimestamp2
	movl	$58, %edi
	callq	_KEnqArg
	movl	$57, %edi
	movl	$51, %esi
	movl	$1, %edx
	movl	$52, %ecx
	movl	$1, %r8d
	callq	_KTimestamp2
	movl	$57, %edi
	callq	_KEnqArg
	movl	$56, %edi
	callq	_KLinkReturn
	.loc	1 191 10                # ammunition.c:191:10
.Ltmp152:
	movq	%r12, %rdi
	movl	%r15d, %esi
	movq	%rbx, %rdx
	movl	%r14d, %ecx
	movl	%r13d, %r8d
	callq	ammunition_bit_string_comparison
	movl	%eax, %ebx
	movl	$124, %edi
	movl	$52, %esi
	movl	$1, %edx
	movl	$56, %ecx
	movl	$1, %r8d
	callq	_KTimestamp2
	callq	_KPopCDep
	testl	%ebx, %ebx
	movl	$122, %ebx
	je	.LBB2_65
.Ltmp153:
# BB#64:                                # %if.then250
                                        #   in Loop: Header=BB2_62 Depth=1
	#DEBUG_VALUE: ammunition_bits_test:result <- 0
	#DEBUG_VALUE: ammunition_bits_test:i <- 0
	movl	$124, %edi
	callq	_KPushCDep
.Ltmp154:
	#DEBUG_VALUE: ammunition_bits_test:result <- 1
	callq	_KPopCDep
	movl	$1, %eax
	movq	%rax, -64(%rbp)         # 8-byte Spill
	xorl	%ebx, %ebx
	jmp	.LBB2_65
.LBB2_66:                               # %for.cond227.pre_exit.for.end254
.Ltmp155:
	#DEBUG_VALUE: ammunition_bits_test:result <- 0
	#DEBUG_VALUE: ammunition_bits_test:i <- 0
	movl	$1, %esi
	movabsq	$8882351517733747314, %rdi # imm = 0x7B4473A508ABFA72
	callq	_KExitRegion
	xorl	%ebx, %ebx
	movabsq	$-8848582976791565230, %rdi # imm = 0x853384AA16C52C52
	xorl	%esi, %esi
	callq	_KPrepCall
	leaq	-48(%rbp), %r14
	leaq	-56(%rbp), %r15
	.loc	1 197 3                 # ammunition.c:197:3
	movq	%r14, %rdi
	movq	%r15, %rsi
	callq	ammunition_reset_str_bits
	movabsq	$4473872422703605437, %rdi # imm = 0x3E166343CDAA26BD
	xorl	%esi, %esi
	callq	_KPrepCall
	callq	_KEnqArgConst
	callq	_KEnqArgConst
	callq	_KEnqArgConst
	movl	$2, %esi
	movl	$1, %edx
	movl	$43, %ecx
	.loc	1 199 3                 # ammunition.c:199:3
	movq	%r14, %rdi
	callq	ammunition_bit_string_set
	movabsq	$1438252312315280600, %rdi # imm = 0x13F5B2DB9CEFBCD8
	xorl	%esi, %esi
	callq	_KPrepCall
	callq	_KEnqArgConst
	callq	_KEnqArgConst
	callq	_KEnqArgConst
	movl	$2, %esi
	movl	$1, %edx
	movl	$43, %ecx
	.loc	1 200 3                 # ammunition.c:200:3
	movq	%r15, %rdi
	callq	ammunition_bit_string_set
	movl	$63, %edi
	callq	_KInduction
	movl	$1, %esi
	movabsq	$3651420207140832660, %rdi # imm = 0x32AC735514500594
	callq	_KEnterRegion
	movl	$122, %r12d
	movl	$59, %r15d
	xorl	%r13d, %r13d
	xorl	%r14d, %r14d
	jmp	.LBB2_67
	.align	16, 0x90
.LBB2_70:                               # %for.inc286
                                        #   in Loop: Header=BB2_67 Depth=1
	#DEBUG_VALUE: ammunition_bits_test:result <- 0
	#DEBUG_VALUE: ammunition_bits_test:i <- 0
	movl	$62, %r13d
	movl	$62, %edi
	callq	_KPushCDep
	movl	$127, %r12d
	movl	$127, %edi
	movl	$62, %edx
	movl	$128, %ecx
	movl	%ebx, %esi
	callq	_KPhi2To1
	movl	$1, %edi
	callq	_KWork
	.loc	1 202 51                # ammunition.c:202:51
.Ltmp156:
	incl	%r14d
.Ltmp157:
	#DEBUG_VALUE: ammunition_bits_test:i <- R14D
	movl	$127, %edi
	movl	$127, %esi
	xorl	%edx, %edx
	callq	_KTimestamp1
	movl	$125, %ebx
	movl	$125, %edi
	movl	$61, %esi
	movl	$1, %edx
	movl	$62, %ecx
	movl	$1, %r8d
	callq	_KTimestamp2
	callq	_KPopCDep
	movl	$2, %esi
	movabsq	$-729507488719762767, %rdi # imm = 0xF5E044CDD9DF0AB1
	callq	_KExitRegion
	decq	%r15
.Ltmp158:
.LBB2_67:                               # %for.cond259
                                        # =>This Inner Loop Header: Depth=1
	#DEBUG_VALUE: ammunition_bits_test:result <- 0
	#DEBUG_VALUE: ammunition_bits_test:i <- 0
	movl	$126, %edi
	movl	%r12d, %esi
	movl	%r13d, %edx
	callq	_KPhi1To1
	movl	$61, %edi
	movl	%ebx, %esi
	movl	%r13d, %edx
	callq	_KPhi1To1
	movl	$1, %edi
	callq	_KWork
	movl	$61, %edi
	movl	$61, %esi
	xorl	%edx, %edx
	callq	_KTimestamp1
	movl	$63, %edi
	movl	$63, %esi
	xorl	%edx, %edx
	callq	_KTimestamp1
	movl	$62, %edi
	movl	$63, %esi
	movl	$1, %edx
	callq	_KTimestamp1
	movl	$126, %edi
	movl	$62, %esi
	callq	_KPhiAddCond
	movl	$61, %edi
	movl	$62, %esi
	callq	_KPhiAddCond
	movl	$126, %edi
	movl	$126, %esi
	xorl	%edx, %edx
	callq	_KTimestamp1
	.loc	1 202 3 is_stmt 0       # ammunition.c:202:3
	testq	%r15, %r15
	je	.LBB2_71
# BB#68:                                # %for.body264
                                        #   in Loop: Header=BB2_67 Depth=1
	#DEBUG_VALUE: ammunition_bits_test:result <- 0
	#DEBUG_VALUE: ammunition_bits_test:i <- 0
	movl	$2, %esi
	movabsq	$-729507488719762767, %rdi # imm = 0xF5E044CDD9DF0AB1
	callq	_KEnterRegion
	movl	$62, %edi
	callq	_KPushCDep
	xorl	%esi, %esi
	movabsq	$5403365518574300748, %rdi # imm = 0x4AFC9C4F96372E4C
	callq	_KPrepCall
	callq	_KEnqArgConst
	callq	_KEnqArgConst
	callq	_KEnqArgConst
	movl	$9, %edi
	callq	_KWork
	xorl	%esi, %esi
	xorl	%edx, %edx
	movl	$64, %ecx
	leaq	-48(%rbp), %rbx
	.loc	1 203 5 is_stmt 1       # ammunition.c:203:5
.Ltmp159:
	movq	%rbx, %rdi
	callq	ammunition_bit_string_set
	xorl	%esi, %esi
	movabsq	$3236354316813853964, %rdi # imm = 0x2CE9D71AACFDE50C
	callq	_KPrepCall
	callq	_KEnqArgConst
	callq	_KEnqArgConst
	callq	_KEnqArgConst
	movl	$2, %esi
	movl	$1, %edx
	movl	$43, %ecx
	.loc	1 204 5                 # ammunition.c:204:5
	movq	%rbx, %rdi
	callq	ammunition_bit_string_set
	xorl	%esi, %esi
	movabsq	$-7450657667143631846, %rdi # imm = 0x9899F253B6DCFC1A
	callq	_KPrepCall
	movl	$65, %edi
	movl	$63, %esi
	movl	$2, %edx
	movl	$62, %ecx
	movl	$2, %r8d
	callq	_KTimestamp2
	movl	$65, %edi
	callq	_KEnqArg
	movl	$64, %edi
	movl	$63, %esi
	xorl	%edx, %edx
	movl	$62, %ecx
	xorl	%r8d, %r8d
	callq	_KTimestamp2
	movl	$64, %edi
	callq	_KEnqArg
	movl	$60, %edi
	movl	$61, %esi
	movl	$1, %edx
	movl	$62, %ecx
	movl	$1, %r8d
	callq	_KTimestamp2
	movl	$60, %edi
	callq	_KEnqArg
	.loc	1 205 5                 # ammunition.c:205:5
	leal	5(%r14), %r12d
	movq	%rbx, %rdi
	movl	%r12d, %esi
	movq	%rbx, %rdx
	movl	%r14d, %ecx
	movl	%r15d, %r8d
	callq	ammunition_bit_string_move
	xorl	%esi, %esi
	movabsq	$-856558925876469696, %rdi # imm = 0xF41CE431F5F16040
	callq	_KPrepCall
	movl	$69, %edi
	movl	$63, %esi
	movl	$2, %edx
	movl	$62, %ecx
	movl	$2, %r8d
	callq	_KTimestamp2
	movl	$69, %edi
	callq	_KEnqArg
	movl	$68, %edi
	movl	$63, %esi
	xorl	%edx, %edx
	movl	$62, %ecx
	xorl	%r8d, %r8d
	callq	_KTimestamp2
	movl	$68, %edi
	callq	_KEnqArg
	movl	$67, %edi
	movl	$61, %esi
	movl	$1, %edx
	movl	$62, %ecx
	movl	$1, %r8d
	callq	_KTimestamp2
	movl	$67, %edi
	callq	_KEnqArg
	movl	$66, %edi
	callq	_KLinkReturn
	.loc	1 207 10                # ammunition.c:207:10
.Ltmp160:
	movq	%rbx, %rdi
	movl	%r12d, %esi
	leaq	-56(%rbp), %rdx
	movl	%r14d, %ecx
	movl	%r15d, %r8d
	callq	ammunition_bit_string_comparison
	movl	%eax, %ebx
	movl	$128, %edi
	movl	$66, %esi
	movl	$1, %edx
	movl	$62, %ecx
	movl	$1, %r8d
	callq	_KTimestamp2
	callq	_KPopCDep
	testl	%ebx, %ebx
	movl	$126, %ebx
	je	.LBB2_70
.Ltmp161:
# BB#69:                                # %if.then284
                                        #   in Loop: Header=BB2_67 Depth=1
	#DEBUG_VALUE: ammunition_bits_test:result <- 0
	#DEBUG_VALUE: ammunition_bits_test:i <- 0
	movl	$128, %edi
	callq	_KPushCDep
.Ltmp162:
	#DEBUG_VALUE: ammunition_bits_test:result <- 1
	callq	_KPopCDep
	movl	$1, %eax
	movq	%rax, -64(%rbp)         # 8-byte Spill
	xorl	%ebx, %ebx
	jmp	.LBB2_70
.LBB2_71:                               # %for.cond259.pre_exit.for.end288
.Ltmp163:
	#DEBUG_VALUE: ammunition_bits_test:result <- 0
	#DEBUG_VALUE: ammunition_bits_test:i <- 0
	movl	$1, %esi
	movabsq	$3651420207140832660, %rdi # imm = 0x32AC735514500594
	callq	_KExitRegion
	xorl	%r14d, %r14d
	movabsq	$-3540762311349809075, %rdi # imm = 0xCEDCAF7005E7504D
	xorl	%esi, %esi
	callq	_KPrepCall
	leaq	-48(%rbp), %rbx
	leaq	-56(%rbp), %r15
	.loc	1 213 3                 # ammunition.c:213:3
	movq	%rbx, %rdi
	movq	%r15, %rsi
	callq	ammunition_reset_str_bits
	movabsq	$5072249598796277486, %rdi # imm = 0x46644022DC5EA6EE
	xorl	%esi, %esi
	callq	_KPrepCall
	callq	_KEnqArgConst
	callq	_KEnqArgConst
	callq	_KEnqArgConst
	movl	$2, %esi
	movl	$1, %edx
	movl	$43, %ecx
	.loc	1 215 3                 # ammunition.c:215:3
	movq	%rbx, %rdi
	callq	ammunition_bit_string_set
	movabsq	$-4304724937871263594, %rdi # imm = 0xC4428B79F66AF896
	xorl	%esi, %esi
	callq	_KPrepCall
	callq	_KEnqArgConst
	callq	_KEnqArgConst
	callq	_KEnqArgConst
	movl	$2, %esi
	movl	$1, %edx
	movl	$43, %ecx
	.loc	1 216 3                 # ammunition.c:216:3
	movq	%r15, %rdi
	callq	ammunition_bit_string_set
	movl	$71, %edi
	callq	_KInduction
	movl	$1, %esi
	movabsq	$6775274772225489639, %rdi # imm = 0x5E069C82262A7AE7
	callq	_KEnterRegion
	movl	$126, %r13d
	movl	$59, %r12d
	xorl	%r15d, %r15d
	xorl	%eax, %eax
	movq	%rax, -72(%rbp)         # 8-byte Spill
	jmp	.LBB2_72
	.align	16, 0x90
.LBB2_75:                               # %for.inc320
                                        #   in Loop: Header=BB2_72 Depth=1
	#DEBUG_VALUE: ammunition_bits_test:result <- 0
	#DEBUG_VALUE: ammunition_bits_test:i <- 0
	movl	$72, %r14d
	movl	$72, %edi
	callq	_KPushCDep
	movl	$130, %r13d
	movl	$130, %edi
	movl	$72, %edx
	movl	$131, %ecx
	movl	%ebx, %esi
	callq	_KPhi2To1
	movl	$1, %edi
	callq	_KWork
	.loc	1 218 51                # ammunition.c:218:51
.Ltmp164:
	movq	-72(%rbp), %rax         # 8-byte Reload
	incl	%eax
.Ltmp165:
	#DEBUG_VALUE: ammunition_bits_test:i <- [RBP+-72]
	movq	%rax, -72(%rbp)         # 8-byte Spill
	movl	$130, %edi
	movl	$130, %esi
	xorl	%edx, %edx
	callq	_KTimestamp1
	movl	$129, %r15d
	movl	$129, %edi
	movl	$74, %esi
	movl	$1, %edx
	movl	$72, %ecx
	movl	$1, %r8d
	callq	_KTimestamp2
	callq	_KPopCDep
	movl	$2, %esi
	movabsq	$1746731223104800654, %rdi # imm = 0x183DA2CAF73EC78E
	callq	_KExitRegion
	decq	%r12
.Ltmp166:
.LBB2_72:                               # %for.cond293
                                        # =>This Inner Loop Header: Depth=1
	#DEBUG_VALUE: ammunition_bits_test:result <- 0
	#DEBUG_VALUE: ammunition_bits_test:i <- 0
	movl	$80, %edi
	movl	%r13d, %esi
	movl	%r14d, %edx
	callq	_KPhi1To1
	movl	$74, %edi
	movl	%r15d, %esi
	movl	%r14d, %edx
	callq	_KPhi1To1
	movl	$1, %edi
	callq	_KWork
	movl	$80, %edi
	movl	$80, %esi
	xorl	%edx, %edx
	callq	_KTimestamp1
	movl	$74, %edi
	movl	$74, %esi
	xorl	%edx, %edx
	callq	_KTimestamp1
	movl	$72, %edi
	movl	$71, %esi
	movl	$1, %edx
	callq	_KTimestamp1
	movl	$71, %edi
	movl	$71, %esi
	xorl	%edx, %edx
	callq	_KTimestamp1
	movl	$80, %edi
	movl	$72, %esi
	callq	_KPhiAddCond
	movl	$74, %edi
	movl	$72, %esi
	callq	_KPhiAddCond
	.loc	1 218 3 is_stmt 0       # ammunition.c:218:3
	testq	%r12, %r12
	je	.LBB2_76
# BB#73:                                # %for.body298
                                        #   in Loop: Header=BB2_72 Depth=1
	#DEBUG_VALUE: ammunition_bits_test:result <- 0
	#DEBUG_VALUE: ammunition_bits_test:i <- 0
	movl	$2, %esi
	movabsq	$1746731223104800654, %rdi # imm = 0x183DA2CAF73EC78E
	callq	_KEnterRegion
	movl	$72, %edi
	callq	_KPushCDep
	movl	$9, %edi
	callq	_KWork
	xorl	%esi, %esi
	movabsq	$-8939109389445919289, %rdi # imm = 0x83F1E75F29B78DC7
	callq	_KPrepCall
	callq	_KEnqArgConst
	callq	_KEnqArgConst
	callq	_KEnqArgConst
	xorl	%esi, %esi
	xorl	%edx, %edx
	movl	$64, %ecx
	leaq	-48(%rbp), %rbx
	movq	%rbx, %r14
	.loc	1 219 5 is_stmt 1       # ammunition.c:219:5
.Ltmp167:
	movq	%r14, %rdi
	callq	ammunition_bit_string_set
	xorl	%esi, %esi
	movabsq	$8690932870808659161, %rdi # imm = 0x789C65664350E4D9
	callq	_KPrepCall
	callq	_KEnqArgConst
	callq	_KEnqArgConst
	callq	_KEnqArgConst
	movl	$2, %esi
	movl	$1, %edx
	movl	$43, %ecx
	.loc	1 220 5                 # ammunition.c:220:5
	movq	%r14, %rdi
	callq	ammunition_bit_string_set
	xorl	%esi, %esi
	movabsq	$-989971073664920980, %rdi # imm = 0xF242EA8DB84A526C
	callq	_KPrepCall
	movl	$75, %edi
	movl	$71, %esi
	movl	$2, %edx
	movl	$72, %ecx
	movl	$2, %r8d
	callq	_KTimestamp2
	movl	$75, %edi
	callq	_KEnqArg
	movl	$73, %edi
	movl	$74, %esi
	movl	$1, %edx
	movl	$72, %ecx
	movl	$1, %r8d
	callq	_KTimestamp2
	movl	$73, %edi
	callq	_KEnqArg
	movl	$70, %edi
	movl	$71, %esi
	xorl	%edx, %edx
	movl	$72, %ecx
	xorl	%r8d, %r8d
	callq	_KTimestamp2
	movl	$70, %edi
	callq	_KEnqArg
	movq	-72(%rbp), %rbx         # 8-byte Reload
	.loc	1 221 5                 # ammunition.c:221:5
	leal	5(%rbx), %r15d
	movq	%r14, %rdi
	movl	%ebx, %esi
	movq	%r14, %rdx
	movl	%r15d, %ecx
	movl	%r12d, %r8d
	callq	ammunition_bit_string_move
	xorl	%esi, %esi
	movabsq	$5721917112476944164, %rdi # imm = 0x4F68554C3B6AC724
	callq	_KPrepCall
	movl	$79, %edi
	movl	$71, %esi
	movl	$2, %edx
	movl	$72, %ecx
	movl	$2, %r8d
	callq	_KTimestamp2
	movl	$79, %edi
	callq	_KEnqArg
	movl	$78, %edi
	movl	$74, %esi
	movl	$1, %edx
	movl	$72, %ecx
	movl	$1, %r8d
	callq	_KTimestamp2
	movl	$78, %edi
	callq	_KEnqArg
	movl	$77, %edi
	movl	$71, %esi
	xorl	%edx, %edx
	movl	$72, %ecx
	xorl	%r8d, %r8d
	callq	_KTimestamp2
	movl	$77, %edi
	callq	_KEnqArg
	movl	$76, %edi
	callq	_KLinkReturn
	.loc	1 223 10                # ammunition.c:223:10
.Ltmp168:
	movq	%r14, %rdi
	movl	%ebx, %esi
	leaq	-56(%rbp), %rdx
	movl	%r15d, %ecx
	movl	%r12d, %r8d
	callq	ammunition_bit_string_comparison
	movl	%eax, %ebx
	movl	$131, %edi
	movl	$72, %esi
	movl	$1, %edx
	movl	$76, %ecx
	movl	$1, %r8d
	callq	_KTimestamp2
	callq	_KPopCDep
	testl	%ebx, %ebx
	movl	$80, %ebx
	je	.LBB2_75
.Ltmp169:
# BB#74:                                # %if.then318
                                        #   in Loop: Header=BB2_72 Depth=1
	#DEBUG_VALUE: ammunition_bits_test:result <- 0
	#DEBUG_VALUE: ammunition_bits_test:i <- 0
	movl	$131, %edi
	callq	_KPushCDep
.Ltmp170:
	#DEBUG_VALUE: ammunition_bits_test:result <- 1
	callq	_KPopCDep
	movl	$1, %eax
	movq	%rax, -64(%rbp)         # 8-byte Spill
	xorl	%ebx, %ebx
	jmp	.LBB2_75
.LBB2_76:                               # %for.cond293.pre_exit.for.end322
.Ltmp171:
	#DEBUG_VALUE: ammunition_bits_test:result <- 0
	#DEBUG_VALUE: ammunition_bits_test:i <- 0
	movl	$1, %esi
	movabsq	$6775274772225489639, %rdi # imm = 0x5E069C82262A7AE7
	callq	_KExitRegion
	movl	$80, %edi
	callq	_KReturn
	xorl	%esi, %esi
	movabsq	$8874495400394360819, %rdi # imm = 0x7B288A8C2D5807F3
	callq	_KExitRegion
	.loc	1 228 3                 # ammunition.c:228:3
	movq	-64(%rbp), %rax         # 8-byte Reload
                                        # kill: EAX<def> EAX<kill> RAX<kill>
	addq	$88, %rsp
	popq	%rbx
	popq	%r12
	popq	%r13
	popq	%r14
	popq	%r15
	popq	%rbp
	retq
.Ltmp172:
.Ltmp173:
	.size	ammunition_bits_test, .Ltmp173-ammunition_bits_test
.Lfunc_end2:
	.cfi_endproc

	.globl	ammunition_arithm_test
	.align	16, 0x90
	.type	ammunition_arithm_test,@function
ammunition_arithm_test:                 # @ammunition_arithm_test
.Lfunc_begin3:
	.loc	1 233 0                 # ammunition.c:233:0
	.cfi_startproc
# BB#0:                                 # %entry
	pushq	%rbp
.Ltmp174:
	.cfi_def_cfa_offset 16
.Ltmp175:
	.cfi_offset %rbp, -16
	movq	%rsp, %rbp
.Ltmp176:
	.cfi_def_cfa_register %rbp
	pushq	%r15
	pushq	%r14
	pushq	%r13
	pushq	%r12
	pushq	%rbx
	subq	$136, %rsp
.Ltmp177:
	.cfi_offset %rbx, -56
.Ltmp178:
	.cfi_offset %r12, -48
.Ltmp179:
	.cfi_offset %r13, -40
.Ltmp180:
	.cfi_offset %r14, -32
.Ltmp181:
	.cfi_offset %r15, -24
	movabsq	$-5337743578314997173, %rdi # imm = 0xB5EC867F0069824B
	xorl	%r15d, %r15d
	xorl	%esi, %esi
	callq	_KEnterRegion
	movl	$628, %edi              # imm = 0x274
	movl	$2, %esi
	callq	_KPrepRTable
	movl	$5, %edi
	callq	_KWork
.Ltmp182:
	#DEBUG_VALUE: ammunition_arithm_test:result <- 0
	movabsq	$8317815694904151629, %rdi # imm = 0x736ED14E09EE4E4D
	xorl	%esi, %esi
	callq	_KPrepCall
	callq	_KEnqArgConst
	leaq	-100(%rbp), %rdx
	movl	$4, %edi
	.loc	1 240 3 prologue_end    # ammunition.c:240:3
.Ltmp183:
	movl	$.L.str, %esi
	callq	ammunition_integer_from_string
	movl	$ammunition_overflow_bit, %edi
	movl	$1, %esi
	movl	$4, %edx
	callq	_KLoad0
	.loc	1 241 8                 # ammunition.c:241:8
	movl	ammunition_overflow_bit(%rip), %ebx
	movl	$271, %edi              # imm = 0x10F
	movl	$1, %esi
	movl	$1, %edx
	callq	_KTimestamp1
	cmpl	$0, %ebx
	jne	.LBB3_2
# BB#1:                                 # %if.then
	#DEBUG_VALUE: ammunition_arithm_test:result <- 0
	movl	$271, %edi              # imm = 0x10F
	callq	_KPushCDep
.Ltmp184:
	#DEBUG_VALUE: ammunition_arithm_test:result <- 1
	callq	_KPopCDep
	movl	$1, %r15d
.LBB3_2:                                # %if.end
.Ltmp185:
	#DEBUG_VALUE: ammunition_arithm_test:result <- 0
	movl	$270, %r14d             # imm = 0x10E
	movl	$270, %edi              # imm = 0x10E
	xorl	%esi, %esi
	movl	$271, %edx              # imm = 0x10F
	callq	_KPhi1To1
	movl	$5, %edi
	callq	_KWork
	movabsq	$-6646589883118887103, %rdi # imm = 0xA3C291B768FE5F41
	xorl	%esi, %esi
	callq	_KPrepCall
	callq	_KEnqArgConst
	movl	$2, %edi
	callq	_KLinkReturn
	leaq	-64(%rbp), %rbx
	movl	$-2147483648, %esi      # imm = 0xFFFFFFFF80000000
	.loc	1 243 3                 # ammunition.c:243:3
	movq	%rbx, %rdi
	callq	ammunition_sprintf_d
	movabsq	$-9166412659143235879, %rdi # imm = 0x80CA5C40931FA6D9
	xorl	%esi, %esi
	callq	_KPrepCall
	callq	_KEnqArgConst
	leaq	-100(%rbp), %rdx
	movl	$4, %edi
	.loc	1 244 3                 # ammunition.c:244:3
	movq	%rbx, %rsi
	callq	ammunition_integer_from_string
	movl	$ammunition_overflow_bit, %edi
	movl	$3, %esi
	movl	$4, %edx
	callq	_KLoad0
	.loc	1 245 8                 # ammunition.c:245:8
	movl	ammunition_overflow_bit(%rip), %ebx
	movl	$273, %edi              # imm = 0x111
	movl	$3, %esi
	movl	$1, %edx
	callq	_KTimestamp1
	movl	$270, %edi              # imm = 0x10E
	movl	$270, %esi              # imm = 0x10E
	xorl	%edx, %edx
	callq	_KTimestamp1
	cmpl	$0, %ebx
	je	.LBB3_4
# BB#3:                                 # %if.then7
	#DEBUG_VALUE: ammunition_arithm_test:result <- 0
	movl	$273, %edi              # imm = 0x111
	callq	_KPushCDep
.Ltmp186:
	#DEBUG_VALUE: ammunition_arithm_test:result <- 1
	callq	_KPopCDep
	xorl	%r14d, %r14d
	movl	$1, %r15d
.LBB3_4:                                # %if.end8
.Ltmp187:
	#DEBUG_VALUE: ammunition_arithm_test:result <- 0
	movq	%r15, %r13
	movl	$272, %r12d             # imm = 0x110
	movl	$272, %edi              # imm = 0x110
	movl	$273, %edx              # imm = 0x111
	movl	%r14d, %esi
	callq	_KPhi1To1
	movl	$1, %edi
	callq	_KWork
	movabsq	$-6542673218503698162, %rdi # imm = 0xA533C15F51A0190E
	xorl	%esi, %esi
	callq	_KPrepCall
	callq	_KEnqArgConst
	leaq	-100(%rbp), %rsi
	leaq	-96(%rbp), %rbx
	movl	$4, %edi
	.loc	1 247 3                 # ammunition.c:247:3
	movq	%rbx, %rdx
	callq	ammunition_integer_to_string
	movabsq	$-4145575659805701003, %rdi # imm = 0xC677F4E6CFC68C75
	xorl	%esi, %esi
	callq	_KPrepCall
	movl	$4, %edi
	callq	_KLinkReturn
	leaq	-64(%rbp), %rsi
	.loc	1 248 8                 # ammunition.c:248:8
.Ltmp188:
	movq	%rbx, %rdi
	callq	ammunition_strcmp
	movl	%eax, %ebx
	movl	$275, %edi              # imm = 0x113
	movl	$4, %esi
	movl	$1, %edx
	callq	_KTimestamp1
	movl	$272, %edi              # imm = 0x110
	movl	$272, %esi              # imm = 0x110
	xorl	%edx, %edx
	callq	_KTimestamp1
	testl	%ebx, %ebx
	je	.LBB3_6
.Ltmp189:
# BB#5:                                 # %if.then15
	#DEBUG_VALUE: ammunition_arithm_test:result <- 0
	movl	$275, %edi              # imm = 0x113
	callq	_KPushCDep
.Ltmp190:
	#DEBUG_VALUE: ammunition_arithm_test:result <- 1
	callq	_KPopCDep
	xorl	%r12d, %r12d
	movl	$1, %r13d
.LBB3_6:                                # %if.end16
.Ltmp191:
	#DEBUG_VALUE: ammunition_arithm_test:result <- 0
	movl	$274, %r15d             # imm = 0x112
	movl	$274, %edi              # imm = 0x112
	movl	$275, %edx              # imm = 0x113
	movl	%r12d, %esi
	callq	_KPhi1To1
	movl	$5, %edi
	callq	_KWork
	movabsq	$8471808903223047976, %rdi # imm = 0x7591E94FD999F728
	xorl	%esi, %esi
	callq	_KPrepCall
	callq	_KEnqArgConst
	leaq	-100(%rbp), %rdx
	movl	$4, %edi
	.loc	1 250 3                 # ammunition.c:250:3
	movl	$.L.str1, %esi
	callq	ammunition_integer_from_string
	movl	$ammunition_overflow_bit, %edi
	movl	$5, %esi
	movl	$4, %edx
	callq	_KLoad0
	.loc	1 251 8                 # ammunition.c:251:8
	movl	ammunition_overflow_bit(%rip), %ebx
	movl	$277, %edi              # imm = 0x115
	movl	$5, %esi
	movl	$1, %edx
	callq	_KTimestamp1
	movl	$274, %edi              # imm = 0x112
	movl	$274, %esi              # imm = 0x112
	xorl	%edx, %edx
	callq	_KTimestamp1
	cmpl	$0, %ebx
	movq	%r13, %r12
	jne	.LBB3_8
# BB#7:                                 # %if.then20
	#DEBUG_VALUE: ammunition_arithm_test:result <- 0
	movl	$277, %edi              # imm = 0x115
	callq	_KPushCDep
.Ltmp192:
	#DEBUG_VALUE: ammunition_arithm_test:result <- 1
	callq	_KPopCDep
	xorl	%r15d, %r15d
	movl	$1, %r12d
.LBB3_8:                                # %if.end21
.Ltmp193:
	#DEBUG_VALUE: ammunition_arithm_test:result <- 0
	movl	$276, %r14d             # imm = 0x114
	movl	$276, %edi              # imm = 0x114
	movl	$277, %edx              # imm = 0x115
	movl	%r15d, %esi
	callq	_KPhi1To1
	movl	$5, %edi
	callq	_KWork
	movabsq	$2295540543725980622, %rdi # imm = 0x1FDB65F6544B4BCE
	xorl	%esi, %esi
	callq	_KPrepCall
	callq	_KEnqArgConst
	movl	$6, %edi
	callq	_KLinkReturn
	leaq	-64(%rbp), %rbx
	movl	$2147483647, %esi       # imm = 0x7FFFFFFF
	.loc	1 253 3                 # ammunition.c:253:3
	movq	%rbx, %rdi
	callq	ammunition_sprintf_d
	movabsq	$-404928221699238056, %rdi # imm = 0xFA6167ED82161758
	xorl	%esi, %esi
	callq	_KPrepCall
	callq	_KEnqArgConst
	leaq	-100(%rbp), %rdx
	movl	$4, %edi
	.loc	1 254 3                 # ammunition.c:254:3
	movq	%rbx, %rsi
	callq	ammunition_integer_from_string
	movl	$ammunition_overflow_bit, %edi
	movl	$7, %esi
	movl	$4, %edx
	callq	_KLoad0
	.loc	1 255 8                 # ammunition.c:255:8
	movl	ammunition_overflow_bit(%rip), %ebx
	movl	$279, %edi              # imm = 0x117
	movl	$7, %esi
	movl	$1, %edx
	callq	_KTimestamp1
	movl	$276, %edi              # imm = 0x114
	movl	$276, %esi              # imm = 0x114
	xorl	%edx, %edx
	callq	_KTimestamp1
	cmpl	$0, %ebx
	je	.LBB3_10
# BB#9:                                 # %if.then28
	#DEBUG_VALUE: ammunition_arithm_test:result <- 0
	movl	$279, %edi              # imm = 0x117
	callq	_KPushCDep
.Ltmp194:
	#DEBUG_VALUE: ammunition_arithm_test:result <- 1
	callq	_KPopCDep
	xorl	%r14d, %r14d
	movl	$1, %r12d
.LBB3_10:                               # %if.end29
.Ltmp195:
	#DEBUG_VALUE: ammunition_arithm_test:result <- 0
	movl	$278, %r13d             # imm = 0x116
	movl	$278, %edi              # imm = 0x116
	movl	$279, %edx              # imm = 0x117
	movl	%r14d, %esi
	callq	_KPhi1To1
	movl	$1, %edi
	callq	_KWork
	xorl	%r15d, %r15d
	movabsq	$7993708513804526795, %rdi # imm = 0x6EEF5B8A7355A4CB
	xorl	%esi, %esi
	callq	_KPrepCall
	callq	_KEnqArgConst
	leaq	-100(%rbp), %rsi
	leaq	-96(%rbp), %rbx
	movl	$4, %edi
	.loc	1 257 3                 # ammunition.c:257:3
	movq	%rbx, %rdx
	callq	ammunition_integer_to_string
	movabsq	$8864951080062198040, %rdi # imm = 0x7B06A209EE52A118
	xorl	%esi, %esi
	callq	_KPrepCall
	movl	$8, %edi
	callq	_KLinkReturn
	leaq	-64(%rbp), %rsi
	.loc	1 258 8                 # ammunition.c:258:8
.Ltmp196:
	movq	%rbx, %rdi
	callq	ammunition_strcmp
	movl	%eax, %ebx
	movl	$281, %edi              # imm = 0x119
	movl	$8, %esi
	movl	$1, %edx
	callq	_KTimestamp1
	movl	$278, %edi              # imm = 0x116
	movl	$278, %esi              # imm = 0x116
	xorl	%edx, %edx
	callq	_KTimestamp1
	testl	%ebx, %ebx
	movabsq	$5574834773082150300, %rbx # imm = 0x4D5DCAB07B0E959C
	je	.LBB3_12
.Ltmp197:
# BB#11:                                # %if.then37
	#DEBUG_VALUE: ammunition_arithm_test:result <- 0
	movl	$281, %edi              # imm = 0x119
	callq	_KPushCDep
.Ltmp198:
	#DEBUG_VALUE: ammunition_arithm_test:result <- 1
	callq	_KPopCDep
	xorl	%r13d, %r13d
	movl	$1, %r12d
.LBB3_12:                               # %if.end38
.Ltmp199:
	#DEBUG_VALUE: ammunition_arithm_test:result <- 0
	movq	%r12, -120(%rbp)        # 8-byte Spill
	movl	$280, %r12d             # imm = 0x118
	movl	$280, %edi              # imm = 0x118
	movl	$281, %edx              # imm = 0x119
	movl	%r13d, %esi
	callq	_KPhi1To1
.Ltmp200:
	#DEBUG_VALUE: ammunition_arithm_test:i <- -2000
	movl	$280, %edi              # imm = 0x118
	movl	$280, %esi              # imm = 0x118
	xorl	%edx, %edx
	callq	_KTimestamp1
	movl	$1, %esi
	movq	%rbx, %rdi
	callq	_KEnterRegion
	movl	$-2000, %r14d           # imm = 0xFFFFFFFFFFFFF830
	movabsq	$-6411136766581985034, %rbx # imm = 0xA7071114156F30F6
	xorl	%r13d, %r13d
	jmp	.LBB3_13
	.align	16, 0x90
.LBB3_18:                               # %for.inc
                                        #   in Loop: Header=BB3_13 Depth=1
	#DEBUG_VALUE: ammunition_arithm_test:result <- 0
	#DEBUG_VALUE: ammunition_arithm_test:i <- -2000
	movq	%r12, -120(%rbp)        # 8-byte Spill
	movl	$283, %r13d             # imm = 0x11B
	movl	$283, %edi              # imm = 0x11B
	callq	_KPushCDep
	movl	$285, %r12d             # imm = 0x11D
	movl	$285, %edi              # imm = 0x11D
	movl	$283, %edx              # imm = 0x11B
	movl	$288, %ecx              # imm = 0x120
	movl	%r15d, %esi
	callq	_KPhi2To1
	movl	$1, %edi
	callq	_KWork
	.loc	1 261 31                # ammunition.c:261:31
.Ltmp201:
	incl	%r14d
.Ltmp202:
	#DEBUG_VALUE: ammunition_arithm_test:i <- R14D
	movl	$285, %edi              # imm = 0x11D
	movl	$285, %esi              # imm = 0x11D
	xorl	%edx, %edx
	callq	_KTimestamp1
	movl	$282, %r15d             # imm = 0x11A
	movl	$282, %edi              # imm = 0x11A
	movl	$10, %esi
	movl	$1, %edx
	movl	$283, %ecx              # imm = 0x11B
	movl	$1, %r8d
	callq	_KTimestamp2
	callq	_KPopCDep
	movl	$2, %esi
	movabsq	$-6411136766581985034, %rbx # imm = 0xA7071114156F30F6
	movq	%rbx, %rdi
	callq	_KExitRegion
.Ltmp203:
.LBB3_13:                               # %for.cond
                                        # =>This Inner Loop Header: Depth=1
	#DEBUG_VALUE: ammunition_arithm_test:result <- 0
	#DEBUG_VALUE: ammunition_arithm_test:i <- -2000
	movl	$284, %edi              # imm = 0x11C
	movl	%r12d, %esi
	movl	%r13d, %edx
	callq	_KPhi1To1
	movl	$10, %edi
	movl	%r15d, %esi
	movl	%r13d, %edx
	callq	_KPhi1To1
	movl	$1, %edi
	callq	_KWork
	movl	$10, %edi
	movl	$10, %esi
	xorl	%edx, %edx
	callq	_KTimestamp1
	movl	$284, %edi              # imm = 0x11C
	movl	$284, %esi              # imm = 0x11C
	xorl	%edx, %edx
	callq	_KTimestamp1
	movl	$283, %edi              # imm = 0x11B
	movl	$10, %esi
	movl	$1, %edx
	callq	_KTimestamp1
	movl	$284, %edi              # imm = 0x11C
	movl	$283, %esi              # imm = 0x11B
	callq	_KPhiAddCond
	movl	$10, %edi
	movl	$283, %esi              # imm = 0x11B
	callq	_KPhiAddCond
	.loc	1 261 3 is_stmt 0       # ammunition.c:261:3
	cmpl	$2000, %r14d            # imm = 0x7D0
	je	.LBB3_19
# BB#14:                                # %for.body
                                        #   in Loop: Header=BB3_13 Depth=1
	#DEBUG_VALUE: ammunition_arithm_test:result <- 0
	#DEBUG_VALUE: ammunition_arithm_test:i <- -2000
	movl	$2, %esi
	movq	%rbx, %rdi
	callq	_KEnterRegion
	movl	$283, %edi              # imm = 0x11B
	callq	_KPushCDep
	xorl	%esi, %esi
	movabsq	$-5562666347715835065, %rdi # imm = 0xB2CD706DD460CB47
	callq	_KPrepCall
	movl	$10, %edi
	callq	_KEnqArg
	movl	$9, %edi
	callq	_KLinkReturn
	movl	$5, %edi
	callq	_KWork
	leaq	-64(%rbp), %rbx
	.loc	1 262 5 is_stmt 1       # ammunition.c:262:5
.Ltmp204:
	movq	%rbx, %rdi
	movl	%r14d, %esi
	callq	ammunition_sprintf_d
	xorl	%esi, %esi
	movabsq	$-3371421741105371794, %rdi # imm = 0xD1364DC9FD62A56E
	callq	_KPrepCall
	callq	_KEnqArgConst
	movl	$4, %edi
	.loc	1 263 5                 # ammunition.c:263:5
	movq	%rbx, %rsi
	leaq	-100(%rbp), %rdx
	callq	ammunition_integer_from_string
	movl	$ammunition_overflow_bit, %edi
	movl	$11, %esi
	movl	$4, %edx
	callq	_KLoad0
	.loc	1 264 10                # ammunition.c:264:10
	movl	ammunition_overflow_bit(%rip), %ebx
	movl	$287, %edi              # imm = 0x11F
	movl	$283, %esi              # imm = 0x11B
	movl	$1, %edx
	movl	$11, %ecx
	movl	$1, %r8d
	callq	_KTimestamp2
	callq	_KPopCDep
	cmpl	$0, %ebx
	movl	$284, %ebx              # imm = 0x11C
	movq	-120(%rbp), %r12        # 8-byte Reload
	je	.LBB3_16
# BB#15:                                # %if.then46
                                        #   in Loop: Header=BB3_13 Depth=1
	#DEBUG_VALUE: ammunition_arithm_test:result <- 0
	#DEBUG_VALUE: ammunition_arithm_test:i <- -2000
	movl	$287, %edi              # imm = 0x11F
	callq	_KPushCDep
.Ltmp205:
	#DEBUG_VALUE: ammunition_arithm_test:result <- 1
	callq	_KPopCDep
	movl	$1, %r12d
	xorl	%ebx, %ebx
.LBB3_16:                               # %if.end47
                                        #   in Loop: Header=BB3_13 Depth=1
.Ltmp206:
	#DEBUG_VALUE: ammunition_arithm_test:result <- 0
	#DEBUG_VALUE: ammunition_arithm_test:i <- -2000
	movl	$283, %edi              # imm = 0x11B
	callq	_KPushCDep
	movl	$286, %r15d             # imm = 0x11E
	movl	$286, %edi              # imm = 0x11E
	movl	$283, %edx              # imm = 0x11B
	movl	$287, %ecx              # imm = 0x11F
	movl	%ebx, %esi
	callq	_KPhi2To1
	movl	$1, %edi
	callq	_KWork
	xorl	%esi, %esi
	movabsq	$-4228092816402573568, %rdi # imm = 0xC552CBFC20F19700
	callq	_KPrepCall
	callq	_KEnqArgConst
	movl	$4, %edi
	leaq	-100(%rbp), %rsi
	leaq	-96(%rbp), %rbx
	.loc	1 266 5                 # ammunition.c:266:5
	movq	%rbx, %rdx
	callq	ammunition_integer_to_string
	xorl	%esi, %esi
	movabsq	$4673152537881488865, %rdi # imm = 0x40DA5F7949A42DE1
	callq	_KPrepCall
	movl	$12, %edi
	callq	_KLinkReturn
	.loc	1 267 10                # ammunition.c:267:10
.Ltmp207:
	movq	%rbx, %rdi
	leaq	-64(%rbp), %rsi
	callq	ammunition_strcmp
	movl	%eax, %ebx
	movl	$286, %edi              # imm = 0x11E
	movl	$286, %esi              # imm = 0x11E
	xorl	%edx, %edx
	callq	_KTimestamp1
	movl	$288, %edi              # imm = 0x120
	movl	$283, %esi              # imm = 0x11B
	movl	$1, %edx
	movl	$12, %ecx
	movl	$1, %r8d
	callq	_KTimestamp2
	callq	_KPopCDep
	testl	%ebx, %ebx
	je	.LBB3_18
.Ltmp208:
# BB#17:                                # %if.then55
                                        #   in Loop: Header=BB3_13 Depth=1
	#DEBUG_VALUE: ammunition_arithm_test:result <- 0
	#DEBUG_VALUE: ammunition_arithm_test:i <- -2000
	movl	$288, %edi              # imm = 0x120
	callq	_KPushCDep
.Ltmp209:
	#DEBUG_VALUE: ammunition_arithm_test:result <- 1
	callq	_KPopCDep
	movl	$1, %r12d
	xorl	%r15d, %r15d
	jmp	.LBB3_18
.LBB3_19:                               # %for.cond.pre_exit.for.end
.Ltmp210:
	#DEBUG_VALUE: ammunition_arithm_test:result <- 0
	#DEBUG_VALUE: ammunition_arithm_test:i <- -2000
	movl	$1, %esi
	movabsq	$5574834773082150300, %rdi # imm = 0x4D5DCAB07B0E959C
	callq	_KExitRegion
	movl	$5, %edi
	callq	_KWork
	movabsq	$6273096066852097159, %rdi # imm = 0x570E83A2F29E8C87
	xorl	%esi, %esi
	callq	_KPrepCall
	leaq	-64(%rbp), %rdi
	leaq	-96(%rbp), %rsi
	leaq	-100(%rbp), %rbx
	leaq	-104(%rbp), %rcx
	leaq	-110(%rbp), %r8
	.loc	1 272 3                 # ammunition.c:272:3
	movq	%rbx, %rdx
	callq	ammunition_reset_str_arithm
	movabsq	$7418263494692135221, %rdi # imm = 0x66F2F758435F6135
	xorl	%esi, %esi
	callq	_KPrepCall
	callq	_KEnqArgConst
	movl	$4, %edi
	.loc	1 274 3                 # ammunition.c:274:3
	movl	$.L.str2, %esi
	movq	%rbx, %rdx
	callq	ammunition_unsigned_integer_from_string
	movl	$ammunition_overflow_bit, %edi
	movl	$13, %esi
	movl	$4, %edx
	callq	_KLoad0
	.loc	1 275 8                 # ammunition.c:275:8
	movl	ammunition_overflow_bit(%rip), %ebx
	movl	$290, %edi              # imm = 0x122
	movl	$13, %esi
	movl	$1, %edx
	callq	_KTimestamp1
	cmpl	$0, %ebx
	movl	$284, %esi              # imm = 0x11C
	movq	-120(%rbp), %r12        # 8-byte Reload
	jne	.LBB3_21
# BB#20:                                # %if.then65
	#DEBUG_VALUE: ammunition_arithm_test:result <- 0
	#DEBUG_VALUE: ammunition_arithm_test:i <- -2000
	movl	$290, %edi              # imm = 0x122
	callq	_KPushCDep
.Ltmp211:
	#DEBUG_VALUE: ammunition_arithm_test:result <- 1
	callq	_KPopCDep
	xorl	%esi, %esi
	movl	$1, %r12d
.LBB3_21:                               # %if.end66
.Ltmp212:
	#DEBUG_VALUE: ammunition_arithm_test:result <- 0
	#DEBUG_VALUE: ammunition_arithm_test:i <- -2000
	movl	$289, %r15d             # imm = 0x121
	movl	$289, %edi              # imm = 0x121
	movl	$290, %edx              # imm = 0x122
                                        # kill: ESI<def> ESI<kill> RSI<kill>
	callq	_KPhi1To1
	movl	$5, %edi
	callq	_KWork
	movabsq	$-712264938255687701, %rdi # imm = 0xF61D86CFF94DDFEB
	xorl	%esi, %esi
	callq	_KPrepCall
	callq	_KEnqArgConst
	movl	$14, %edi
	callq	_KLinkReturn
	leaq	-64(%rbp), %rbx
	movl	$-1, %esi
	.loc	1 277 3                 # ammunition.c:277:3
	movq	%rbx, %rdi
	callq	ammunition_sprintf_u
	movabsq	$6586448367419651425, %rdi # imm = 0x5B67C3E4C77FF561
	xorl	%esi, %esi
	callq	_KPrepCall
	callq	_KEnqArgConst
	leaq	-100(%rbp), %rdx
	movl	$4, %edi
	.loc	1 278 3                 # ammunition.c:278:3
	movq	%rbx, %rsi
	callq	ammunition_unsigned_integer_from_string
	movl	$ammunition_overflow_bit, %edi
	movl	$15, %esi
	movl	$4, %edx
	callq	_KLoad0
	.loc	1 279 8                 # ammunition.c:279:8
	movl	ammunition_overflow_bit(%rip), %ebx
	movl	$292, %edi              # imm = 0x124
	movl	$15, %esi
	movl	$1, %edx
	callq	_KTimestamp1
	movl	$289, %edi              # imm = 0x121
	movl	$289, %esi              # imm = 0x121
	xorl	%edx, %edx
	callq	_KTimestamp1
	cmpl	$0, %ebx
	je	.LBB3_23
# BB#22:                                # %if.then73
	#DEBUG_VALUE: ammunition_arithm_test:result <- 0
	#DEBUG_VALUE: ammunition_arithm_test:i <- -2000
	movl	$292, %edi              # imm = 0x124
	callq	_KPushCDep
.Ltmp213:
	#DEBUG_VALUE: ammunition_arithm_test:result <- 1
	callq	_KPopCDep
	xorl	%r15d, %r15d
	movl	$1, %r12d
.LBB3_23:                               # %if.end74
.Ltmp214:
	#DEBUG_VALUE: ammunition_arithm_test:result <- 0
	#DEBUG_VALUE: ammunition_arithm_test:i <- -2000
	movl	$291, %r14d             # imm = 0x123
	movl	$291, %edi              # imm = 0x123
	movl	$292, %edx              # imm = 0x124
	movl	%r15d, %esi
	callq	_KPhi1To1
	movl	$1, %edi
	callq	_KWork
	movabsq	$866832293037005508, %rdi # imm = 0xC079B60BA4EDAC4
	xorl	%esi, %esi
	callq	_KPrepCall
	callq	_KEnqArgConst
	leaq	-100(%rbp), %rsi
	leaq	-96(%rbp), %rbx
	movl	$4, %edi
	.loc	1 281 3                 # ammunition.c:281:3
	movq	%rbx, %rdx
	callq	ammunition_unsigned_integer_to_string
	movabsq	$7094763039428697713, %rdi # imm = 0x6275A9650AB7DE71
	xorl	%esi, %esi
	callq	_KPrepCall
	movl	$16, %edi
	callq	_KLinkReturn
	leaq	-64(%rbp), %rsi
	.loc	1 282 8                 # ammunition.c:282:8
.Ltmp215:
	movq	%rbx, %rdi
	callq	ammunition_strcmp
	movl	%eax, %ebx
	movl	$291, %edi              # imm = 0x123
	movl	$291, %esi              # imm = 0x123
	xorl	%edx, %edx
	callq	_KTimestamp1
	movl	$294, %edi              # imm = 0x126
	movl	$16, %esi
	movl	$1, %edx
	callq	_KTimestamp1
	testl	%ebx, %ebx
	je	.LBB3_25
.Ltmp216:
# BB#24:                                # %if.then82
	#DEBUG_VALUE: ammunition_arithm_test:result <- 0
	#DEBUG_VALUE: ammunition_arithm_test:i <- -2000
	movl	$294, %edi              # imm = 0x126
	callq	_KPushCDep
.Ltmp217:
	#DEBUG_VALUE: ammunition_arithm_test:result <- 1
	callq	_KPopCDep
	xorl	%r14d, %r14d
	movl	$1, %r12d
.LBB3_25:                               # %if.end83
.Ltmp218:
	#DEBUG_VALUE: ammunition_arithm_test:result <- 0
	#DEBUG_VALUE: ammunition_arithm_test:i <- -2000
	movq	%r12, -120(%rbp)        # 8-byte Spill
	movl	$293, %r15d             # imm = 0x125
	movl	$293, %edi              # imm = 0x125
	movl	$294, %edx              # imm = 0x126
	movl	%r14d, %esi
	callq	_KPhi1To1
.Ltmp219:
	#DEBUG_VALUE: ammunition_arithm_test:i <- 0
	movl	$293, %edi              # imm = 0x125
	movl	$293, %esi              # imm = 0x125
	xorl	%edx, %edx
	callq	_KTimestamp1
	movl	$18, %edi
	callq	_KInduction
	movl	$1, %esi
	movabsq	$4249058562038188, %rdi # imm = 0xF187F0A3859AC
	callq	_KEnterRegion
	movabsq	$-1280562697460219094, %rbx # imm = 0xEE3A8702E944832A
	xorl	%r14d, %r14d
	xorl	%r13d, %r13d
	jmp	.LBB3_26
	.align	16, 0x90
.LBB3_31:                               # %for.inc104
                                        #   in Loop: Header=BB3_26 Depth=1
	#DEBUG_VALUE: ammunition_arithm_test:result <- 0
	#DEBUG_VALUE: ammunition_arithm_test:i <- 0
	movl	$297, %r14d             # imm = 0x129
	movl	$297, %edi              # imm = 0x129
	callq	_KPushCDep
	movl	$296, %r15d             # imm = 0x128
	movl	$296, %edi              # imm = 0x128
	movl	$297, %edx              # imm = 0x129
	movl	$300, %ecx              # imm = 0x12C
	movl	%r12d, %esi
	callq	_KPhi2To1
	.loc	1 285 27                # ammunition.c:285:27
.Ltmp220:
	incl	%r13d
.Ltmp221:
	#DEBUG_VALUE: ammunition_arithm_test:i <- R13D
	movl	$296, %edi              # imm = 0x128
	movl	$296, %esi              # imm = 0x128
	xorl	%edx, %edx
	callq	_KTimestamp1
	callq	_KPopCDep
	movl	$2, %esi
	movabsq	$-1280562697460219094, %rbx # imm = 0xEE3A8702E944832A
	movq	%rbx, %rdi
	callq	_KExitRegion
.Ltmp222:
.LBB3_26:                               # %for.cond84
                                        # =>This Inner Loop Header: Depth=1
	#DEBUG_VALUE: ammunition_arithm_test:result <- 0
	#DEBUG_VALUE: ammunition_arithm_test:i <- 0
	movl	$295, %edi              # imm = 0x127
	movl	%r15d, %esi
	movl	%r14d, %edx
	callq	_KPhi1To1
	movl	$1, %edi
	callq	_KWork
	movl	$18, %edi
	movl	$18, %esi
	xorl	%edx, %edx
	callq	_KTimestamp1
	movl	$295, %edi              # imm = 0x127
	movl	$295, %esi              # imm = 0x127
	xorl	%edx, %edx
	callq	_KTimestamp1
	movl	$297, %edi              # imm = 0x129
	movl	$18, %esi
	movl	$1, %edx
	callq	_KTimestamp1
	movl	$295, %edi              # imm = 0x127
	movl	$297, %esi              # imm = 0x129
	callq	_KPhiAddCond
	.loc	1 285 3 is_stmt 0       # ammunition.c:285:3
	cmpl	$4000, %r13d            # imm = 0xFA0
	je	.LBB3_32
# BB#27:                                # %for.body86
                                        #   in Loop: Header=BB3_26 Depth=1
	#DEBUG_VALUE: ammunition_arithm_test:result <- 0
	#DEBUG_VALUE: ammunition_arithm_test:i <- 0
	movl	$2, %esi
	movq	%rbx, %rdi
	callq	_KEnterRegion
	movl	$297, %edi              # imm = 0x129
	callq	_KPushCDep
	xorl	%esi, %esi
	movabsq	$-1045657700361162650, %rdi # imm = 0xF17D13DC95523066
	callq	_KPrepCall
	movl	$18, %edi
	callq	_KEnqArg
	movl	$17, %edi
	callq	_KLinkReturn
	movl	$5, %edi
	callq	_KWork
	leaq	-64(%rbp), %rbx
	.loc	1 286 5 is_stmt 1       # ammunition.c:286:5
.Ltmp223:
	movq	%rbx, %rdi
	movl	%r13d, %esi
	callq	ammunition_sprintf_u
	xorl	%esi, %esi
	movabsq	$-2305847490244293418, %rdi # imm = 0xDFFFFBECADC34CD6
	callq	_KPrepCall
	callq	_KEnqArgConst
	movl	$4, %edi
	.loc	1 287 5                 # ammunition.c:287:5
	movq	%rbx, %rsi
	leaq	-100(%rbp), %rdx
	callq	ammunition_unsigned_integer_from_string
	movl	$ammunition_overflow_bit, %edi
	movl	$19, %esi
	movl	$4, %edx
	callq	_KLoad0
	.loc	1 288 10                # ammunition.c:288:10
	movl	ammunition_overflow_bit(%rip), %ebx
	movl	$299, %edi              # imm = 0x12B
	movl	$297, %esi              # imm = 0x129
	movl	$1, %edx
	movl	$19, %ecx
	movl	$1, %r8d
	callq	_KTimestamp2
	callq	_KPopCDep
	cmpl	$0, %ebx
	movl	$295, %ebx              # imm = 0x127
	je	.LBB3_29
# BB#28:                                # %if.then93
                                        #   in Loop: Header=BB3_26 Depth=1
	#DEBUG_VALUE: ammunition_arithm_test:result <- 0
	#DEBUG_VALUE: ammunition_arithm_test:i <- 0
	movl	$299, %edi              # imm = 0x12B
	callq	_KPushCDep
.Ltmp224:
	#DEBUG_VALUE: ammunition_arithm_test:result <- 1
	callq	_KPopCDep
	movl	$1, %eax
	movq	%rax, -120(%rbp)        # 8-byte Spill
	xorl	%ebx, %ebx
.LBB3_29:                               # %if.end94
                                        #   in Loop: Header=BB3_26 Depth=1
.Ltmp225:
	#DEBUG_VALUE: ammunition_arithm_test:result <- 0
	#DEBUG_VALUE: ammunition_arithm_test:i <- 0
	movl	$297, %edi              # imm = 0x129
	callq	_KPushCDep
	movl	$298, %r12d             # imm = 0x12A
	movl	$298, %edi              # imm = 0x12A
	movl	$297, %edx              # imm = 0x129
	movl	$299, %ecx              # imm = 0x12B
	movl	%ebx, %esi
	callq	_KPhi2To1
	movl	$1, %edi
	callq	_KWork
	xorl	%esi, %esi
	movabsq	$1348616111472954641, %rdi # imm = 0x12B73F3546B6CD11
	callq	_KPrepCall
	callq	_KEnqArgConst
	movl	$4, %edi
	leaq	-100(%rbp), %rsi
	leaq	-96(%rbp), %rbx
	.loc	1 290 5                 # ammunition.c:290:5
	movq	%rbx, %rdx
	callq	ammunition_unsigned_integer_to_string
	xorl	%esi, %esi
	movabsq	$7861167888895782730, %rdi # imm = 0x6D187A8B71572F4A
	callq	_KPrepCall
	movl	$20, %edi
	callq	_KLinkReturn
	.loc	1 291 10                # ammunition.c:291:10
.Ltmp226:
	movq	%rbx, %rdi
	leaq	-64(%rbp), %rsi
	callq	ammunition_strcmp
	movl	%eax, %ebx
	movl	$300, %edi              # imm = 0x12C
	movl	$297, %esi              # imm = 0x129
	movl	$1, %edx
	movl	$20, %ecx
	movl	$1, %r8d
	callq	_KTimestamp2
	movl	$298, %edi              # imm = 0x12A
	movl	$298, %esi              # imm = 0x12A
	xorl	%edx, %edx
	callq	_KTimestamp1
	callq	_KPopCDep
	testl	%ebx, %ebx
	je	.LBB3_31
.Ltmp227:
# BB#30:                                # %if.then102
                                        #   in Loop: Header=BB3_26 Depth=1
	#DEBUG_VALUE: ammunition_arithm_test:result <- 0
	#DEBUG_VALUE: ammunition_arithm_test:i <- 0
	movl	$300, %edi              # imm = 0x12C
	callq	_KPushCDep
.Ltmp228:
	#DEBUG_VALUE: ammunition_arithm_test:result <- 1
	callq	_KPopCDep
	movl	$1, %eax
	movq	%rax, -120(%rbp)        # 8-byte Spill
	xorl	%r12d, %r12d
	jmp	.LBB3_31
.LBB3_32:                               # %for.cond84.pre_exit.for.end106
.Ltmp229:
	#DEBUG_VALUE: ammunition_arithm_test:result <- 0
	#DEBUG_VALUE: ammunition_arithm_test:i <- 0
	movl	$1, %esi
	movabsq	$4249058562038188, %rdi # imm = 0xF187F0A3859AC
	callq	_KExitRegion
	movl	$5, %edi
	callq	_KWork
	movabsq	$6330418481862743997, %rdi # imm = 0x57DA2A11BAFF17BD
	xorl	%esi, %esi
	callq	_KPrepCall
	leaq	-64(%rbp), %rbx
	leaq	-96(%rbp), %rsi
	leaq	-100(%rbp), %r15
	leaq	-104(%rbp), %r14
	leaq	-110(%rbp), %r8
	.loc	1 296 3                 # ammunition.c:296:3
	movq	%rbx, %rdi
	movq	%r15, %rdx
	movq	%r14, %rcx
	callq	ammunition_reset_str_arithm
	movabsq	$-7830609331320821162, %rdi # imm = 0x9354164D2FC36A56
	xorl	%esi, %esi
	callq	_KPrepCall
	callq	_KEnqArgConst
	movl	$21, %edi
	callq	_KLinkReturn
	movl	$2147483647, %esi       # imm = 0x7FFFFFFF
	.loc	1 298 3                 # ammunition.c:298:3
	movq	%rbx, %rdi
	callq	ammunition_sprintf_d
	movabsq	$-5848473902972435660, %rdi # imm = 0xAED60BF8C72F8334
	xorl	%esi, %esi
	callq	_KPrepCall
	callq	_KEnqArgConst
	movl	$4, %edi
	.loc	1 299 3                 # ammunition.c:299:3
	movq	%rbx, %rsi
	movq	%r15, %rdx
	callq	ammunition_integer_from_string
	movabsq	$4181975319386165909, %rdi # imm = 0x3A095C655B769295
	xorl	%esi, %esi
	callq	_KPrepCall
	callq	_KEnqArgConst
	movl	$4, %edi
	.loc	1 300 3                 # ammunition.c:300:3
	movl	$.L.str3, %esi
	movq	%r14, %rdx
	callq	ammunition_integer_from_string
	movabsq	$-2893407934810969380, %rdi # imm = 0xD7D88CD02F4BAADC
	xorl	%esi, %esi
	callq	_KPrepCall
	callq	_KEnqArgConst
	movl	$4, %edi
	.loc	1 301 3                 # ammunition.c:301:3
	movq	%r15, %rsi
	movq	%r14, %rdx
	movq	%r15, %rcx
	callq	ammunition_add_integer
	movl	$ammunition_overflow_bit, %edi
	movl	$22, %esi
	movl	$4, %edx
	callq	_KLoad0
	.loc	1 302 8                 # ammunition.c:302:8
	movl	ammunition_overflow_bit(%rip), %ebx
	movl	$302, %edi              # imm = 0x12E
	movl	$22, %esi
	movl	$1, %edx
	callq	_KTimestamp1
	cmpl	$0, %ebx
	movl	$295, %esi              # imm = 0x127
	jne	.LBB3_34
# BB#33:                                # %if.then123
	#DEBUG_VALUE: ammunition_arithm_test:result <- 0
	#DEBUG_VALUE: ammunition_arithm_test:i <- 0
	movl	$302, %edi              # imm = 0x12E
	callq	_KPushCDep
.Ltmp230:
	#DEBUG_VALUE: ammunition_arithm_test:result <- 1
	callq	_KPopCDep
	xorl	%esi, %esi
	movl	$1, %eax
	movq	%rax, -120(%rbp)        # 8-byte Spill
.LBB3_34:                               # %if.end124
.Ltmp231:
	#DEBUG_VALUE: ammunition_arithm_test:result <- 0
	#DEBUG_VALUE: ammunition_arithm_test:i <- 0
	movl	$301, %r14d             # imm = 0x12D
	movl	$301, %edi              # imm = 0x12D
	movl	$302, %edx              # imm = 0x12E
                                        # kill: ESI<def> ESI<kill> RSI<kill>
	callq	_KPhi1To1
	movl	$5, %edi
	callq	_KWork
	movabsq	$-5969416616597024435, %rdi # imm = 0xAD285F36EB6B914D
	xorl	%esi, %esi
	callq	_KPrepCall
	callq	_KEnqArgConst
	movl	$23, %edi
	callq	_KLinkReturn
	leaq	-64(%rbp), %r12
	movl	$2147483643, %esi       # imm = 0x7FFFFFFB
	.loc	1 304 3                 # ammunition.c:304:3
	movq	%r12, %rdi
	callq	ammunition_sprintf_d
	movabsq	$5097831997903888197, %rdi # imm = 0x46BF23314FAE5F45
	xorl	%esi, %esi
	callq	_KPrepCall
	callq	_KEnqArgConst
	leaq	-100(%rbp), %r15
	movl	$4, %edi
	.loc	1 305 3                 # ammunition.c:305:3
	movq	%r12, %rsi
	movq	%r15, %rdx
	callq	ammunition_integer_from_string
	movabsq	$-3658966709251481574, %rdi # imm = 0xCD38BD29FA15E01A
	xorl	%esi, %esi
	callq	_KPrepCall
	callq	_KEnqArgConst
	movl	$24, %edi
	callq	_KLinkReturn
	movl	$4, %esi
	.loc	1 306 3                 # ammunition.c:306:3
	movq	%r12, %rdi
	callq	ammunition_sprintf_d
	movabsq	$-2725635667315773413, %rdi # imm = 0xDA2C98CD3682301B
	xorl	%esi, %esi
	callq	_KPrepCall
	callq	_KEnqArgConst
	leaq	-104(%rbp), %rbx
	movl	$4, %edi
	.loc	1 307 3                 # ammunition.c:307:3
	movq	%r12, %rsi
	movq	%rbx, %rdx
	callq	ammunition_integer_from_string
	movabsq	$5316692595453236766, %rdi # imm = 0x49C8AFBF1BF0961E
	xorl	%esi, %esi
	callq	_KPrepCall
	callq	_KEnqArgConst
	movl	$4, %edi
	.loc	1 308 3                 # ammunition.c:308:3
	movq	%r15, %rsi
	movq	%rbx, %rdx
	movq	%r15, %rcx
	callq	ammunition_add_integer
	movl	$ammunition_overflow_bit, %edi
	movl	$25, %esi
	movl	$4, %edx
	callq	_KLoad0
	.loc	1 309 8                 # ammunition.c:309:8
	movl	ammunition_overflow_bit(%rip), %ebx
	movl	$301, %edi              # imm = 0x12D
	movl	$301, %esi              # imm = 0x12D
	xorl	%edx, %edx
	callq	_KTimestamp1
	movl	$304, %edi              # imm = 0x130
	movl	$25, %esi
	movl	$1, %edx
	callq	_KTimestamp1
	cmpl	$0, %ebx
	je	.LBB3_36
# BB#35:                                # %if.then139
	#DEBUG_VALUE: ammunition_arithm_test:result <- 0
	#DEBUG_VALUE: ammunition_arithm_test:i <- 0
	movl	$304, %edi              # imm = 0x130
	callq	_KPushCDep
.Ltmp232:
	#DEBUG_VALUE: ammunition_arithm_test:result <- 1
	callq	_KPopCDep
	xorl	%r14d, %r14d
	movl	$1, %eax
	movq	%rax, -120(%rbp)        # 8-byte Spill
.LBB3_36:                               # %if.end140
.Ltmp233:
	#DEBUG_VALUE: ammunition_arithm_test:result <- 0
	#DEBUG_VALUE: ammunition_arithm_test:i <- 0
	movl	$303, %r13d             # imm = 0x12F
	movl	$303, %edi              # imm = 0x12F
	movl	$304, %edx              # imm = 0x130
	movl	%r14d, %esi
	callq	_KPhi1To1
	movl	$1, %edi
	callq	_KWork
	xorl	%r12d, %r12d
	movabsq	$-5342489995280416601, %rdi # imm = 0xB5DBA9A7AF3B80A7
	xorl	%esi, %esi
	callq	_KPrepCall
	callq	_KEnqArgConst
	leaq	-100(%rbp), %rsi
	leaq	-96(%rbp), %r15
	movl	$4, %edi
	.loc	1 311 3                 # ammunition.c:311:3
	movq	%r15, %rdx
	callq	ammunition_integer_to_string
	movabsq	$670610532700195986, %rdi # imm = 0x94E7CB9F83B0C92
	xorl	%esi, %esi
	callq	_KPrepCall
	callq	_KEnqArgConst
	movl	$26, %edi
	callq	_KLinkReturn
	leaq	-64(%rbp), %rbx
	movl	$2147483647, %esi       # imm = 0x7FFFFFFF
	.loc	1 312 3                 # ammunition.c:312:3
	movq	%rbx, %rdi
	callq	ammunition_sprintf_d
	movabsq	$5988843860619613643, %rdi # imm = 0x531CA5C2CF82D5CB
	xorl	%esi, %esi
	callq	_KPrepCall
	movl	$27, %edi
	callq	_KLinkReturn
	.loc	1 313 8                 # ammunition.c:313:8
.Ltmp234:
	movq	%r15, %rdi
	movq	%rbx, %rsi
	callq	ammunition_strcmp
	movl	%eax, %ebx
	movl	$306, %edi              # imm = 0x132
	movl	$27, %esi
	movl	$1, %edx
	callq	_KTimestamp1
	movl	$303, %edi              # imm = 0x12F
	movl	$303, %esi              # imm = 0x12F
	xorl	%edx, %edx
	callq	_KTimestamp1
	testl	%ebx, %ebx
	movabsq	$-3002645497983447966, %rbx # imm = 0xD65475D40A454C62
	je	.LBB3_38
.Ltmp235:
# BB#37:                                # %if.then150
	#DEBUG_VALUE: ammunition_arithm_test:result <- 0
	#DEBUG_VALUE: ammunition_arithm_test:i <- 0
	movl	$306, %edi              # imm = 0x132
	callq	_KPushCDep
.Ltmp236:
	#DEBUG_VALUE: ammunition_arithm_test:result <- 1
	callq	_KPopCDep
	xorl	%r13d, %r13d
	movl	$1, %eax
	movq	%rax, -120(%rbp)        # 8-byte Spill
.LBB3_38:                               # %if.end151
.Ltmp237:
	#DEBUG_VALUE: ammunition_arithm_test:result <- 0
	#DEBUG_VALUE: ammunition_arithm_test:i <- 0
	movl	$305, %r15d             # imm = 0x131
	movl	$305, %edi              # imm = 0x131
	movl	$306, %edx              # imm = 0x132
	movl	%r13d, %esi
	callq	_KPhi1To1
.Ltmp238:
	#DEBUG_VALUE: ammunition_arithm_test:i <- -2000
	movl	$305, %edi              # imm = 0x131
	movl	$305, %esi              # imm = 0x131
	xorl	%edx, %edx
	callq	_KTimestamp1
	movl	$1, %esi
	movq	%rbx, %rdi
	callq	_KEnterRegion
	movl	$-2000, -128(%rbp)      # 4-byte Folded Spill
                                        # imm = 0xFFFFFFFFFFFFF830
	movl	$-3999, %r14d           # imm = 0xFFFFFFFFFFFFF061
	xorl	%ebx, %ebx
	jmp	.LBB3_39
	.align	16, 0x90
.LBB3_44:                               # %for.inc181
                                        #   in Loop: Header=BB3_39 Depth=1
	#DEBUG_VALUE: ammunition_arithm_test:result <- 0
.Ltmp239:
	#DEBUG_VALUE: ammunition_arithm_test:i <- [RBP+-128]
	movl	$32, %r12d
	movl	$32, %edi
	callq	_KPushCDep
	movl	$309, %r15d             # imm = 0x135
	movl	$309, %edi              # imm = 0x135
	movl	$32, %edx
	movl	$312, %ecx              # imm = 0x138
	movl	%r13d, %esi
	callq	_KPhi2To1
	movl	$1, %edi
	callq	_KWork
	movl	$309, %edi              # imm = 0x135
	movl	$309, %esi              # imm = 0x135
	xorl	%edx, %edx
	callq	_KTimestamp1
	movl	$307, %ebx              # imm = 0x133
	movl	$307, %edi              # imm = 0x133
	movl	$29, %esi
	movl	$1, %edx
	movl	$32, %ecx
	movl	$1, %r8d
	callq	_KTimestamp2
	callq	_KPopCDep
	movl	$2, %esi
	movabsq	$3448277382257121381, %rdi # imm = 0x2FDABE0268731865
	callq	_KExitRegion
	addl	$2, %r14d
.LBB3_39:                               # %for.cond152
                                        # =>This Inner Loop Header: Depth=1
	#DEBUG_VALUE: ammunition_arithm_test:result <- 0
.Ltmp240:
	#DEBUG_VALUE: ammunition_arithm_test:i <- -2000
	movl	$308, %edi              # imm = 0x134
	movl	%r15d, %esi
	movl	%r12d, %edx
	callq	_KPhi1To1
	movl	$29, %edi
	movl	%ebx, %esi
	movl	%r12d, %edx
	callq	_KPhi1To1
	movl	$1, %edi
	callq	_KWork
	movl	$32, %edi
	movl	$29, %esi
	movl	$1, %edx
	callq	_KTimestamp1
	movl	$29, %edi
	movl	$29, %esi
	xorl	%edx, %edx
	callq	_KTimestamp1
	movl	$308, %edi              # imm = 0x134
	movl	$308, %esi              # imm = 0x134
	xorl	%edx, %edx
	callq	_KTimestamp1
	movl	$308, %edi              # imm = 0x134
	movl	$32, %esi
	callq	_KPhiAddCond
	movl	$29, %edi
	movl	$32, %esi
	callq	_KPhiAddCond
	movl	-128(%rbp), %ebx        # 4-byte Reload
	.loc	1 316 3                 # ammunition.c:316:3
.Ltmp241:
	cmpl	$2000, %ebx             # imm = 0x7D0
	je	.LBB3_45
# BB#40:                                # %for.body154
                                        #   in Loop: Header=BB3_39 Depth=1
	#DEBUG_VALUE: ammunition_arithm_test:result <- 0
	#DEBUG_VALUE: ammunition_arithm_test:i <- -2000
	movl	$2, %esi
	movabsq	$3448277382257121381, %rdi # imm = 0x2FDABE0268731865
	callq	_KEnterRegion
	movl	$32, %edi
	callq	_KPushCDep
	movl	$6, %edi
	callq	_KWork
	xorl	%esi, %esi
	movabsq	$4370997386053436093, %rdi # imm = 0x3CA8E6F6CDE042BD
	callq	_KPrepCall
	movl	$29, %edi
	callq	_KEnqArg
	movl	$28, %edi
	callq	_KLinkReturn
	leaq	-64(%rbp), %r15
	.loc	1 317 5                 # ammunition.c:317:5
.Ltmp242:
	movq	%r15, %rdi
	movl	%ebx, %esi
	callq	ammunition_sprintf_d
	xorl	%esi, %esi
	movabsq	$-5632660086734440498, %rdi # imm = 0xB1D4C57E85AC37CE
	callq	_KPrepCall
	callq	_KEnqArgConst
	movl	$4, %edi
	.loc	1 318 5                 # ammunition.c:318:5
	movq	%r15, %rsi
	leaq	-100(%rbp), %r12
	movq	%r12, %rdx
	callq	ammunition_integer_from_string
	.loc	1 319 32                # ammunition.c:319:32
	incl	%ebx
.Ltmp243:
	#DEBUG_VALUE: ammunition_arithm_test:i <- EBX
	movl	%ebx, -128(%rbp)        # 4-byte Spill
	xorl	%esi, %esi
	movabsq	$-5833136025667703403, %rdi # imm = 0xAF0C89B09F8AED95
	callq	_KPrepCall
	movl	$31, %edi
	movl	$29, %esi
	movl	$1, %edx
	movl	$32, %ecx
	movl	$1, %r8d
	callq	_KTimestamp2
	movl	$31, %edi
	callq	_KEnqArg
	movl	$30, %edi
	callq	_KLinkReturn
	.loc	1 319 5 is_stmt 0       # ammunition.c:319:5
	movq	%r15, %rdi
	movl	%ebx, %esi
.Ltmp244:
	#DEBUG_VALUE: ammunition_arithm_test:i <- [RBP+-128]
	callq	ammunition_sprintf_d
	xorl	%esi, %esi
	movabsq	$2380620907477729863, %rdi # imm = 0x2109AA1A2F140247
	callq	_KPrepCall
	callq	_KEnqArgConst
	movl	$4, %edi
	.loc	1 320 5 is_stmt 1       # ammunition.c:320:5
	movq	%r15, %rsi
	leaq	-104(%rbp), %rbx
	movq	%rbx, %rdx
	callq	ammunition_integer_from_string
	xorl	%esi, %esi
	movabsq	$-7815708137016026514, %rdi # imm = 0x938906DBD9079A6E
	callq	_KPrepCall
	callq	_KEnqArgConst
	movl	$4, %edi
	.loc	1 321 5                 # ammunition.c:321:5
	movq	%r12, %rsi
	movq	%rbx, %rdx
	movq	%r12, %rcx
	callq	ammunition_add_integer
	movl	$ammunition_overflow_bit, %edi
	movl	$33, %esi
	movl	$4, %edx
	callq	_KLoad0
	.loc	1 322 10                # ammunition.c:322:10
	movl	ammunition_overflow_bit(%rip), %ebx
	movl	$311, %edi              # imm = 0x137
	movl	$32, %esi
	movl	$1, %edx
	movl	$33, %ecx
	movl	$1, %r8d
	callq	_KTimestamp2
	callq	_KPopCDep
	cmpl	$0, %ebx
	movl	$308, %ebx              # imm = 0x134
	je	.LBB3_42
# BB#41:                                # %if.then169
                                        #   in Loop: Header=BB3_39 Depth=1
	#DEBUG_VALUE: ammunition_arithm_test:result <- 0
	#DEBUG_VALUE: ammunition_arithm_test:i <- [RBP+-128]
	movl	$311, %edi              # imm = 0x137
	callq	_KPushCDep
.Ltmp245:
	#DEBUG_VALUE: ammunition_arithm_test:result <- 1
	callq	_KPopCDep
	movl	$1, %eax
	movq	%rax, -120(%rbp)        # 8-byte Spill
	xorl	%ebx, %ebx
.LBB3_42:                               # %if.end170
                                        #   in Loop: Header=BB3_39 Depth=1
.Ltmp246:
	#DEBUG_VALUE: ammunition_arithm_test:result <- 0
	#DEBUG_VALUE: ammunition_arithm_test:i <- [RBP+-128]
	movl	$32, %edi
	callq	_KPushCDep
	movl	$310, %r13d             # imm = 0x136
	movl	$310, %edi              # imm = 0x136
	movl	$32, %edx
	movl	$311, %ecx              # imm = 0x137
	movl	%ebx, %esi
	callq	_KPhi2To1
	movl	$3, %edi
	callq	_KWork
	xorl	%esi, %esi
	movabsq	$-919626214380357962, %rdi # imm = 0xF33CD4D495B8B6B6
	callq	_KPrepCall
	callq	_KEnqArgConst
	movl	$4, %edi
	leaq	-100(%rbp), %rsi
	leaq	-96(%rbp), %rbx
	.loc	1 324 5                 # ammunition.c:324:5
	movq	%rbx, %rdx
	callq	ammunition_integer_to_string
	xorl	%esi, %esi
	movabsq	$7490268761049954951, %rdi # imm = 0x67F2C7C0C6967A87
	callq	_KPrepCall
	movl	$34, %edi
	callq	_KLinkReturn
	.loc	1 325 10                # ammunition.c:325:10
.Ltmp247:
	movq	%rbx, %rdi
	callq	ammunition_atoi
	movl	%eax, %ebx
	movl	$310, %edi              # imm = 0x136
	movl	$310, %esi              # imm = 0x136
	xorl	%edx, %edx
	callq	_KTimestamp1
	movl	$1, (%rsp)
	movl	$312, %edi              # imm = 0x138
	movl	$29, %esi
	movl	$3, %edx
	movl	$32, %ecx
	movl	$3, %r8d
	movl	$34, %r9d
	callq	_KTimestamp3
	callq	_KPopCDep
	cmpl	%ebx, %r14d
	je	.LBB3_44
.Ltmp248:
# BB#43:                                # %if.then179
                                        #   in Loop: Header=BB3_39 Depth=1
	#DEBUG_VALUE: ammunition_arithm_test:result <- 0
	#DEBUG_VALUE: ammunition_arithm_test:i <- [RBP+-128]
	movl	$312, %edi              # imm = 0x138
	callq	_KPushCDep
.Ltmp249:
	#DEBUG_VALUE: ammunition_arithm_test:result <- 1
	callq	_KPopCDep
	movl	$1, %eax
	movq	%rax, -120(%rbp)        # 8-byte Spill
	xorl	%r13d, %r13d
	jmp	.LBB3_44
.LBB3_45:                               # %for.cond152.pre_exit.for.end183
.Ltmp250:
	#DEBUG_VALUE: ammunition_arithm_test:result <- 0
	#DEBUG_VALUE: ammunition_arithm_test:i <- -2000
	movl	$1, %esi
	movabsq	$-3002645497983447966, %rdi # imm = 0xD65475D40A454C62
	callq	_KExitRegion
	movl	$5, %edi
	callq	_KWork
	movabsq	$500953132671268980, %rdi # imm = 0x6F3BE3851FD7874
	xorl	%esi, %esi
	callq	_KPrepCall
	leaq	-64(%rbp), %rbx
	leaq	-96(%rbp), %rsi
	leaq	-100(%rbp), %r15
	leaq	-104(%rbp), %r14
	leaq	-110(%rbp), %r8
	.loc	1 330 3                 # ammunition.c:330:3
	movq	%rbx, %rdi
	movq	%r15, %rdx
	movq	%r14, %rcx
	callq	ammunition_reset_str_arithm
	movabsq	$-2252490879414152206, %rdi # imm = 0xE0BD8B7AB8B653F2
	xorl	%esi, %esi
	callq	_KPrepCall
	callq	_KEnqArgConst
	movl	$35, %edi
	callq	_KLinkReturn
	movl	$-1, %esi
	.loc	1 332 3                 # ammunition.c:332:3
	movq	%rbx, %rdi
	callq	ammunition_sprintf_u
	movabsq	$-5677254909362467061, %rdi # imm = 0xB13656BD441B8F0B
	xorl	%esi, %esi
	callq	_KPrepCall
	callq	_KEnqArgConst
	movl	$4, %edi
	.loc	1 333 3                 # ammunition.c:333:3
	movq	%rbx, %rsi
	movq	%r15, %rdx
	callq	ammunition_unsigned_integer_from_string
	movabsq	$4544945092778979350, %rdi # imm = 0x3F12E37B52BEF016
	xorl	%esi, %esi
	callq	_KPrepCall
	callq	_KEnqArgConst
	movl	$4, %edi
	.loc	1 334 3                 # ammunition.c:334:3
	movl	$.L.str3, %esi
	movq	%r14, %rdx
	callq	ammunition_unsigned_integer_from_string
	movabsq	$8336321454524212105, %rdi # imm = 0x73B09031F6622389
	xorl	%esi, %esi
	callq	_KPrepCall
	callq	_KEnqArgConst
	movl	$4, %edi
	.loc	1 335 3                 # ammunition.c:335:3
	movq	%r15, %rsi
	movq	%r14, %rdx
	movq	%r15, %rcx
	callq	ammunition_add_unsigned_integer
	movl	$ammunition_overflow_bit, %edi
	movl	$36, %esi
	movl	$4, %edx
	callq	_KLoad0
	.loc	1 336 8                 # ammunition.c:336:8
	movl	ammunition_overflow_bit(%rip), %ebx
	movl	$314, %edi              # imm = 0x13A
	movl	$36, %esi
	movl	$1, %edx
	callq	_KTimestamp1
	cmpl	$0, %ebx
	movl	$308, %esi              # imm = 0x134
	jne	.LBB3_47
# BB#46:                                # %if.then200
	#DEBUG_VALUE: ammunition_arithm_test:result <- 0
	#DEBUG_VALUE: ammunition_arithm_test:i <- -2000
	movl	$314, %edi              # imm = 0x13A
	callq	_KPushCDep
.Ltmp251:
	#DEBUG_VALUE: ammunition_arithm_test:result <- 1
	callq	_KPopCDep
	xorl	%esi, %esi
	movl	$1, %eax
	movq	%rax, -120(%rbp)        # 8-byte Spill
.LBB3_47:                               # %if.end201
.Ltmp252:
	#DEBUG_VALUE: ammunition_arithm_test:result <- 0
	#DEBUG_VALUE: ammunition_arithm_test:i <- -2000
	movl	$313, %r14d             # imm = 0x139
	movl	$313, %edi              # imm = 0x139
	movl	$314, %edx              # imm = 0x13A
                                        # kill: ESI<def> ESI<kill> RSI<kill>
	callq	_KPhi1To1
	movl	$5, %edi
	callq	_KWork
	movabsq	$5163762242277433864, %rdi # imm = 0x47A95E668B856208
	xorl	%esi, %esi
	callq	_KPrepCall
	callq	_KEnqArgConst
	movl	$37, %edi
	callq	_KLinkReturn
	leaq	-64(%rbp), %r12
	movl	$-5, %esi
	.loc	1 338 3                 # ammunition.c:338:3
	movq	%r12, %rdi
	callq	ammunition_sprintf_u
	movabsq	$5849106726721470071, %rdi # imm = 0x512C3393FB94BE77
	xorl	%esi, %esi
	callq	_KPrepCall
	callq	_KEnqArgConst
	leaq	-100(%rbp), %r15
	movl	$4, %edi
	.loc	1 339 3                 # ammunition.c:339:3
	movq	%r12, %rsi
	movq	%r15, %rdx
	callq	ammunition_unsigned_integer_from_string
	movabsq	$-4256057702627487053, %rdi # imm = 0xC4EF7211AB52D2B3
	xorl	%esi, %esi
	callq	_KPrepCall
	callq	_KEnqArgConst
	movl	$38, %edi
	callq	_KLinkReturn
	movl	$4, %esi
	.loc	1 340 3                 # ammunition.c:340:3
	movq	%r12, %rdi
	callq	ammunition_sprintf_u
	movabsq	$8389852000173311142, %rdi # imm = 0x746EBDF15C6E44A6
	xorl	%esi, %esi
	callq	_KPrepCall
	callq	_KEnqArgConst
	leaq	-104(%rbp), %rbx
	movl	$4, %edi
	.loc	1 341 3                 # ammunition.c:341:3
	movq	%r12, %rsi
	movq	%rbx, %rdx
	callq	ammunition_unsigned_integer_from_string
	movabsq	$-2397306101953780374, %rdi # imm = 0xDEBB0ECD3F2B256A
	xorl	%esi, %esi
	callq	_KPrepCall
	callq	_KEnqArgConst
	movl	$4, %edi
	.loc	1 342 3                 # ammunition.c:342:3
	movq	%r15, %rsi
	movq	%rbx, %rdx
	movq	%r15, %rcx
	callq	ammunition_add_unsigned_integer
	movl	$ammunition_overflow_bit, %edi
	movl	$39, %esi
	movl	$4, %edx
	callq	_KLoad0
	.loc	1 343 8                 # ammunition.c:343:8
	movl	ammunition_overflow_bit(%rip), %ebx
	movl	$316, %edi              # imm = 0x13C
	movl	$39, %esi
	movl	$1, %edx
	callq	_KTimestamp1
	movl	$313, %edi              # imm = 0x139
	movl	$313, %esi              # imm = 0x139
	xorl	%edx, %edx
	callq	_KTimestamp1
	cmpl	$0, %ebx
	je	.LBB3_49
# BB#48:                                # %if.then216
	#DEBUG_VALUE: ammunition_arithm_test:result <- 0
	#DEBUG_VALUE: ammunition_arithm_test:i <- -2000
	movl	$316, %edi              # imm = 0x13C
	callq	_KPushCDep
.Ltmp253:
	#DEBUG_VALUE: ammunition_arithm_test:result <- 1
	callq	_KPopCDep
	xorl	%r14d, %r14d
	movl	$1, %eax
	movq	%rax, -120(%rbp)        # 8-byte Spill
.LBB3_49:                               # %if.end217
.Ltmp254:
	#DEBUG_VALUE: ammunition_arithm_test:result <- 0
	#DEBUG_VALUE: ammunition_arithm_test:i <- -2000
	movl	$315, %r13d             # imm = 0x13B
	movl	$315, %edi              # imm = 0x13B
	movl	$316, %edx              # imm = 0x13C
	movl	%r14d, %esi
	callq	_KPhi1To1
	movl	$1, %r12d
	movl	$1, %edi
	callq	_KWork
	xorl	%r14d, %r14d
	movabsq	$-7062658829861589958, %rdi # imm = 0x9DFC6536BC52EC3A
	xorl	%esi, %esi
	callq	_KPrepCall
	callq	_KEnqArgConst
	leaq	-100(%rbp), %rsi
	leaq	-96(%rbp), %r15
	movl	$4, %edi
	.loc	1 345 3                 # ammunition.c:345:3
	movq	%r15, %rdx
	callq	ammunition_unsigned_integer_to_string
	movabsq	$1108737959601965916, %rdi # imm = 0xF63074CC7110B5C
	xorl	%esi, %esi
	callq	_KPrepCall
	callq	_KEnqArgConst
	movl	$40, %edi
	callq	_KLinkReturn
	leaq	-64(%rbp), %rbx
	movl	$-1, %esi
	.loc	1 346 3                 # ammunition.c:346:3
	movq	%rbx, %rdi
	callq	ammunition_sprintf_u
	movabsq	$-7496152909398091439, %rdi # imm = 0x97F850A52D50D951
	xorl	%esi, %esi
	callq	_KPrepCall
	movl	$41, %edi
	callq	_KLinkReturn
	.loc	1 347 8                 # ammunition.c:347:8
.Ltmp255:
	movq	%r15, %rdi
	movq	%rbx, %rsi
	callq	ammunition_strcmp
	movl	%eax, %ebx
	movl	$318, %edi              # imm = 0x13E
	movl	$41, %esi
	movl	$1, %edx
	callq	_KTimestamp1
	movl	$315, %edi              # imm = 0x13B
	movl	$315, %esi              # imm = 0x13B
	xorl	%edx, %edx
	callq	_KTimestamp1
	testl	%ebx, %ebx
	je	.LBB3_51
.Ltmp256:
# BB#50:                                # %if.then227
	#DEBUG_VALUE: ammunition_arithm_test:result <- 0
	#DEBUG_VALUE: ammunition_arithm_test:i <- -2000
	movl	$318, %edi              # imm = 0x13E
	callq	_KPushCDep
.Ltmp257:
	#DEBUG_VALUE: ammunition_arithm_test:result <- 1
	callq	_KPopCDep
	xorl	%r13d, %r13d
	movl	$1, %eax
	movq	%rax, -120(%rbp)        # 8-byte Spill
.LBB3_51:                               # %if.end228
.Ltmp258:
	#DEBUG_VALUE: ammunition_arithm_test:result <- 0
	#DEBUG_VALUE: ammunition_arithm_test:i <- -2000
	movl	$317, %r15d             # imm = 0x13D
	movl	$317, %edi              # imm = 0x13D
	movl	$318, %edx              # imm = 0x13E
	movl	%r13d, %esi
	callq	_KPhi1To1
.Ltmp259:
	#DEBUG_VALUE: ammunition_arithm_test:i <- 0
	movl	$317, %edi              # imm = 0x13D
	movl	$317, %esi              # imm = 0x13D
	xorl	%edx, %edx
	callq	_KTimestamp1
	movl	$43, %edi
	callq	_KInduction
	movl	$1, %esi
	movabsq	$-1947822758015158200, %rdi # imm = 0xE4F7F1858715B848
	callq	_KEnterRegion
	movabsq	$-1771201159024130538, %r13 # imm = 0xE76B6DEE1A9B4616
	movl	$1, %ebx
	jmp	.LBB3_52
	.align	16, 0x90
.LBB3_57:                               # %for.inc259
                                        #   in Loop: Header=BB3_52 Depth=1
	#DEBUG_VALUE: ammunition_arithm_test:result <- 0
	#DEBUG_VALUE: ammunition_arithm_test:i <- 0
	movl	$46, %r14d
	movl	$46, %edi
	callq	_KPushCDep
	movl	$320, %r15d             # imm = 0x140
	movl	$320, %edi              # imm = 0x140
	movl	$46, %edx
	movl	$323, %ecx              # imm = 0x143
	movl	%r13d, %esi
	callq	_KPhi2To1
	movl	$320, %edi              # imm = 0x140
	movl	$320, %esi              # imm = 0x140
	xorl	%edx, %edx
	callq	_KTimestamp1
	callq	_KPopCDep
	movl	$2, %esi
	movabsq	$-1771201159024130538, %r13 # imm = 0xE76B6DEE1A9B4616
	movq	%r13, %rdi
	callq	_KExitRegion
	addl	$2, %ebx
	incl	%r12d
.LBB3_52:                               # %for.cond229
                                        # =>This Inner Loop Header: Depth=1
	#DEBUG_VALUE: ammunition_arithm_test:result <- 0
	#DEBUG_VALUE: ammunition_arithm_test:i <- 0
	movl	$319, %edi              # imm = 0x13F
	movl	%r15d, %esi
	movl	%r14d, %edx
	callq	_KPhi1To1
	movl	$1, %edi
	callq	_KWork
	movl	$46, %edi
	movl	$43, %esi
	movl	$1, %edx
	callq	_KTimestamp1
	movl	$43, %edi
	movl	$43, %esi
	xorl	%edx, %edx
	callq	_KTimestamp1
	movl	$319, %edi              # imm = 0x13F
	movl	$319, %esi              # imm = 0x13F
	xorl	%edx, %edx
	callq	_KTimestamp1
	movl	$319, %edi              # imm = 0x13F
	movl	$46, %esi
	callq	_KPhiAddCond
	.loc	1 350 3                 # ammunition.c:350:3
.Ltmp260:
	cmpl	$4001, %r12d            # imm = 0xFA1
	je	.LBB3_58
# BB#53:                                # %for.body231
                                        #   in Loop: Header=BB3_52 Depth=1
	#DEBUG_VALUE: ammunition_arithm_test:result <- 0
	#DEBUG_VALUE: ammunition_arithm_test:i <- 0
	movq	%rbx, %r15
	leal	-1(%r12), %r14d
	movl	$2, %esi
	movq	%r13, %rdi
	callq	_KEnterRegion
	movl	$46, %edi
	callq	_KPushCDep
	xorl	%esi, %esi
	movabsq	$6712912866014499595, %rdi # imm = 0x5D290EAF62F1930B
	callq	_KPrepCall
	movl	$43, %edi
	callq	_KEnqArg
	movl	$42, %edi
	callq	_KLinkReturn
	movl	$6, %edi
	callq	_KWork
	leaq	-64(%rbp), %rbx
	.loc	1 351 5                 # ammunition.c:351:5
.Ltmp261:
	movq	%rbx, %rdi
	movl	%r14d, %esi
	callq	ammunition_sprintf_u
	xorl	%esi, %esi
	movabsq	$7294442502191515972, %rdi # imm = 0x653B10CEE1A30944
	callq	_KPrepCall
	callq	_KEnqArgConst
	movl	$4, %edi
	.loc	1 352 5                 # ammunition.c:352:5
	movq	%rbx, %rsi
	leaq	-100(%rbp), %r14
	movq	%r14, %rdx
	callq	ammunition_unsigned_integer_from_string
	movl	$45, %edi
	movl	$43, %esi
	movl	$1, %edx
	movl	$46, %ecx
	movl	$1, %r8d
	callq	_KTimestamp2
	xorl	%esi, %esi
	movabsq	$4259486862758188755, %rdi # imm = 0x3B1CBCBBE42516D3
	callq	_KPrepCall
	movl	$45, %edi
	callq	_KEnqArg
	movl	$44, %edi
	callq	_KLinkReturn
	.loc	1 353 5                 # ammunition.c:353:5
	movq	%rbx, %rdi
	movl	%r12d, %esi
	callq	ammunition_sprintf_u
	xorl	%esi, %esi
	movabsq	$6379697960290439280, %rdi # imm = 0x58893D7E69655070
	callq	_KPrepCall
	callq	_KEnqArgConst
	movl	$4, %edi
	.loc	1 354 5                 # ammunition.c:354:5
	movq	%rbx, %rsi
	leaq	-104(%rbp), %rbx
	movq	%rbx, %rdx
	callq	ammunition_unsigned_integer_from_string
	xorl	%esi, %esi
	movabsq	$-7228684401543800076, %rdi # imm = 0x9BAE8DD604931AF4
	callq	_KPrepCall
	callq	_KEnqArgConst
	movl	$4, %edi
	.loc	1 355 5                 # ammunition.c:355:5
	movq	%r14, %rsi
	movq	%rbx, %rdx
	movq	%r14, %rcx
	callq	ammunition_add_unsigned_integer
	movl	$ammunition_overflow_bit, %edi
	movl	$47, %esi
	movl	$4, %edx
	callq	_KLoad0
	.loc	1 356 10                # ammunition.c:356:10
	movl	ammunition_overflow_bit(%rip), %ebx
	movl	$322, %edi              # imm = 0x142
	movl	$46, %esi
	movl	$1, %edx
	movl	$47, %ecx
	movl	$1, %r8d
	callq	_KTimestamp2
	callq	_KPopCDep
	cmpl	$0, %ebx
	movl	$319, %ebx              # imm = 0x13F
	je	.LBB3_55
# BB#54:                                # %if.then247
                                        #   in Loop: Header=BB3_52 Depth=1
	#DEBUG_VALUE: ammunition_arithm_test:result <- 0
	#DEBUG_VALUE: ammunition_arithm_test:i <- 0
	movl	$322, %edi              # imm = 0x142
	callq	_KPushCDep
.Ltmp262:
	#DEBUG_VALUE: ammunition_arithm_test:result <- 1
	callq	_KPopCDep
	movl	$1, %eax
	movq	%rax, -120(%rbp)        # 8-byte Spill
	xorl	%ebx, %ebx
.LBB3_55:                               # %if.end248
                                        #   in Loop: Header=BB3_52 Depth=1
.Ltmp263:
	#DEBUG_VALUE: ammunition_arithm_test:result <- 0
	#DEBUG_VALUE: ammunition_arithm_test:i <- 0
	movl	$46, %edi
	callq	_KPushCDep
	movl	$321, %r13d             # imm = 0x141
	movl	$321, %edi              # imm = 0x141
	movl	$46, %edx
	movl	$322, %ecx              # imm = 0x142
	movl	%ebx, %esi
	callq	_KPhi2To1
	movl	$3, %edi
	callq	_KWork
	xorl	%esi, %esi
	movabsq	$-7025714137686682506, %rdi # imm = 0x9E7FA63731BED476
	callq	_KPrepCall
	callq	_KEnqArgConst
	movl	$4, %edi
	leaq	-100(%rbp), %rsi
	leaq	-96(%rbp), %rbx
	.loc	1 358 5                 # ammunition.c:358:5
	movq	%rbx, %rdx
	callq	ammunition_unsigned_integer_to_string
	xorl	%esi, %esi
	movabsq	$-2635280794496412001, %rdi # imm = 0xDB6D9A1468A1D69F
	callq	_KPrepCall
	movl	$48, %edi
	callq	_KLinkReturn
	.loc	1 359 10                # ammunition.c:359:10
.Ltmp264:
	movq	%rbx, %rdi
	callq	ammunition_atoi
	movl	%eax, %ebx
	movl	$1, (%rsp)
	movl	$323, %edi              # imm = 0x143
	movl	$43, %esi
	movl	$3, %edx
	movl	$46, %ecx
	movl	$3, %r8d
	movl	$48, %r9d
	callq	_KTimestamp3
	movl	$321, %edi              # imm = 0x141
	movl	$321, %esi              # imm = 0x141
	xorl	%edx, %edx
	callq	_KTimestamp1
	callq	_KPopCDep
	cmpl	%ebx, %r15d
	movq	%r15, %rbx
	je	.LBB3_57
.Ltmp265:
# BB#56:                                # %if.then257
                                        #   in Loop: Header=BB3_52 Depth=1
	#DEBUG_VALUE: ammunition_arithm_test:result <- 0
	#DEBUG_VALUE: ammunition_arithm_test:i <- 0
	movl	$323, %edi              # imm = 0x143
	callq	_KPushCDep
.Ltmp266:
	#DEBUG_VALUE: ammunition_arithm_test:result <- 1
	callq	_KPopCDep
	movl	$1, %eax
	movq	%rax, -120(%rbp)        # 8-byte Spill
	xorl	%r13d, %r13d
	jmp	.LBB3_57
.LBB3_58:                               # %for.cond229.pre_exit.for.end261
.Ltmp267:
	#DEBUG_VALUE: ammunition_arithm_test:result <- 0
	#DEBUG_VALUE: ammunition_arithm_test:i <- 0
	movl	$1, %esi
	movabsq	$-1947822758015158200, %rdi # imm = 0xE4F7F1858715B848
	callq	_KExitRegion
	movl	$5, %edi
	callq	_KWork
	movabsq	$-1713530211929644362, %rdi # imm = 0xE8385159D608A2B6
	xorl	%esi, %esi
	callq	_KPrepCall
	leaq	-64(%rbp), %rbx
	leaq	-96(%rbp), %rsi
	leaq	-100(%rbp), %r15
	leaq	-104(%rbp), %r14
	leaq	-110(%rbp), %r8
	.loc	1 364 3                 # ammunition.c:364:3
	movq	%rbx, %rdi
	movq	%r15, %rdx
	movq	%r14, %rcx
	callq	ammunition_reset_str_arithm
	movabsq	$-8562620614720467207, %rdi # imm = 0x892B75EAE9264EF9
	xorl	%esi, %esi
	callq	_KPrepCall
	callq	_KEnqArgConst
	movl	$49, %edi
	callq	_KLinkReturn
	movl	$-2147483648, %esi      # imm = 0xFFFFFFFF80000000
	.loc	1 366 3                 # ammunition.c:366:3
	movq	%rbx, %rdi
	callq	ammunition_sprintf_d
	movabsq	$-2200563640560452722, %rdi # imm = 0xE17607072AC0FB8E
	xorl	%esi, %esi
	callq	_KPrepCall
	callq	_KEnqArgConst
	movl	$4, %edi
	.loc	1 367 3                 # ammunition.c:367:3
	movq	%rbx, %rsi
	movq	%r15, %rdx
	callq	ammunition_integer_from_string
	movabsq	$796325338102166302, %rdi # imm = 0xB0D1DAD0738F31E
	xorl	%esi, %esi
	callq	_KPrepCall
	callq	_KEnqArgConst
	movl	$4, %edi
	.loc	1 368 3                 # ammunition.c:368:3
	movl	$.L.str3, %esi
	movq	%r14, %rdx
	callq	ammunition_integer_from_string
	movabsq	$4037041562102066849, %rdi # imm = 0x380673E95C94EEA1
	xorl	%esi, %esi
	callq	_KPrepCall
	callq	_KEnqArgConst
	movl	$4, %edi
	.loc	1 369 3                 # ammunition.c:369:3
	movq	%r15, %rsi
	movq	%r14, %rdx
	movq	%r15, %rcx
	callq	ammunition_subtract_integer
	movl	$ammunition_overflow_bit, %edi
	movl	$50, %esi
	movl	$4, %edx
	callq	_KLoad0
	.loc	1 370 8                 # ammunition.c:370:8
	movl	ammunition_overflow_bit(%rip), %ebx
	movl	$325, %edi              # imm = 0x145
	movl	$50, %esi
	movl	$1, %edx
	callq	_KTimestamp1
	cmpl	$0, %ebx
	movl	$319, %esi              # imm = 0x13F
	jne	.LBB3_60
# BB#59:                                # %if.then278
	#DEBUG_VALUE: ammunition_arithm_test:result <- 0
	#DEBUG_VALUE: ammunition_arithm_test:i <- 0
	movl	$325, %edi              # imm = 0x145
	callq	_KPushCDep
.Ltmp268:
	#DEBUG_VALUE: ammunition_arithm_test:result <- 1
	callq	_KPopCDep
	xorl	%esi, %esi
	movl	$1, %eax
	movq	%rax, -120(%rbp)        # 8-byte Spill
.LBB3_60:                               # %if.end279
.Ltmp269:
	#DEBUG_VALUE: ammunition_arithm_test:result <- 0
	#DEBUG_VALUE: ammunition_arithm_test:i <- 0
	movl	$324, %r14d             # imm = 0x144
	movl	$324, %edi              # imm = 0x144
	movl	$325, %edx              # imm = 0x145
                                        # kill: ESI<def> ESI<kill> RSI<kill>
	callq	_KPhi1To1
	movl	$5, %edi
	callq	_KWork
	movabsq	$-1386195084155622300, %rdi # imm = 0xECC33EEA5382EC64
	xorl	%esi, %esi
	callq	_KPrepCall
	callq	_KEnqArgConst
	movl	$51, %edi
	callq	_KLinkReturn
	leaq	-64(%rbp), %r12
	movl	$-2147483644, %esi      # imm = 0xFFFFFFFF80000004
	.loc	1 372 3                 # ammunition.c:372:3
	movq	%r12, %rdi
	callq	ammunition_sprintf_d
	movabsq	$6722008240775985507, %rdi # imm = 0x5D495EE158B37963
	xorl	%esi, %esi
	callq	_KPrepCall
	callq	_KEnqArgConst
	leaq	-100(%rbp), %r15
	movl	$4, %edi
	.loc	1 373 3                 # ammunition.c:373:3
	movq	%r12, %rsi
	movq	%r15, %rdx
	callq	ammunition_integer_from_string
	movabsq	$3990306796744590670, %rdi # imm = 0x37606AE3DCC9C54E
	xorl	%esi, %esi
	callq	_KPrepCall
	callq	_KEnqArgConst
	movl	$52, %edi
	callq	_KLinkReturn
	movl	$4, %esi
	.loc	1 374 3                 # ammunition.c:374:3
	movq	%r12, %rdi
	callq	ammunition_sprintf_d
	movabsq	$-1012188080580872288, %rdi # imm = 0xF1F3FC4DB317B7A0
	xorl	%esi, %esi
	callq	_KPrepCall
	callq	_KEnqArgConst
	leaq	-104(%rbp), %rbx
	movl	$4, %edi
	.loc	1 375 3                 # ammunition.c:375:3
	movq	%r12, %rsi
	movq	%rbx, %rdx
	callq	ammunition_integer_from_string
	movabsq	$8053777282552163549, %rdi # imm = 0x6FC4C3C48AA1ECDD
	xorl	%esi, %esi
	callq	_KPrepCall
	callq	_KEnqArgConst
	movl	$4, %edi
	.loc	1 376 3                 # ammunition.c:376:3
	movq	%r15, %rsi
	movq	%rbx, %rdx
	movq	%r15, %rcx
	callq	ammunition_subtract_integer
	movl	$ammunition_overflow_bit, %edi
	movl	$53, %esi
	movl	$4, %edx
	callq	_KLoad0
	.loc	1 377 8                 # ammunition.c:377:8
	movl	ammunition_overflow_bit(%rip), %ebx
	movl	$327, %edi              # imm = 0x147
	movl	$53, %esi
	movl	$1, %edx
	callq	_KTimestamp1
	movl	$324, %edi              # imm = 0x144
	movl	$324, %esi              # imm = 0x144
	xorl	%edx, %edx
	callq	_KTimestamp1
	cmpl	$0, %ebx
	je	.LBB3_62
# BB#61:                                # %if.then294
	#DEBUG_VALUE: ammunition_arithm_test:result <- 0
	#DEBUG_VALUE: ammunition_arithm_test:i <- 0
	movl	$327, %edi              # imm = 0x147
	callq	_KPushCDep
.Ltmp270:
	#DEBUG_VALUE: ammunition_arithm_test:result <- 1
	callq	_KPopCDep
	xorl	%r14d, %r14d
	movl	$1, %eax
	movq	%rax, -120(%rbp)        # 8-byte Spill
.LBB3_62:                               # %if.end295
.Ltmp271:
	#DEBUG_VALUE: ammunition_arithm_test:result <- 0
	#DEBUG_VALUE: ammunition_arithm_test:i <- 0
	movl	$326, %r15d             # imm = 0x146
	movl	$326, %edi              # imm = 0x146
	movl	$327, %edx              # imm = 0x147
	movl	%r14d, %esi
	callq	_KPhi1To1
	movl	$1, %edi
	callq	_KWork
	xorl	%r12d, %r12d
	movabsq	$-3619542533135843101, %rdi # imm = 0xCDC4CD3E470540E3
	xorl	%esi, %esi
	callq	_KPrepCall
	callq	_KEnqArgConst
	leaq	-100(%rbp), %rsi
	leaq	-96(%rbp), %r14
	movl	$4, %edi
	.loc	1 379 3                 # ammunition.c:379:3
	movq	%r14, %rdx
	callq	ammunition_integer_to_string
	movabsq	$-8016894662794973137, %rdi # imm = 0x90BE44C78E61702F
	xorl	%esi, %esi
	callq	_KPrepCall
	callq	_KEnqArgConst
	movl	$54, %edi
	callq	_KLinkReturn
	leaq	-64(%rbp), %rbx
	movl	$-2147483648, %esi      # imm = 0xFFFFFFFF80000000
	.loc	1 380 3                 # ammunition.c:380:3
	movq	%rbx, %rdi
	callq	ammunition_sprintf_d
	movabsq	$7613445396315735590, %rdi # imm = 0x69A864400C3B8626
	xorl	%esi, %esi
	callq	_KPrepCall
	movl	$55, %edi
	callq	_KLinkReturn
	.loc	1 381 8                 # ammunition.c:381:8
.Ltmp272:
	movq	%r14, %rdi
	movq	%rbx, %rsi
	callq	ammunition_strcmp
	movl	%eax, %ebx
	movl	$329, %edi              # imm = 0x149
	movl	$55, %esi
	movl	$1, %edx
	callq	_KTimestamp1
	movl	$326, %edi              # imm = 0x146
	movl	$326, %esi              # imm = 0x146
	xorl	%edx, %edx
	callq	_KTimestamp1
	testl	%ebx, %ebx
	movabsq	$71216610774356497, %rbx # imm = 0xFD032153501211
	je	.LBB3_64
.Ltmp273:
# BB#63:                                # %if.then305
	#DEBUG_VALUE: ammunition_arithm_test:result <- 0
	#DEBUG_VALUE: ammunition_arithm_test:i <- 0
	movl	$329, %edi              # imm = 0x149
	callq	_KPushCDep
.Ltmp274:
	#DEBUG_VALUE: ammunition_arithm_test:result <- 1
	callq	_KPopCDep
	xorl	%r15d, %r15d
	movl	$1, %eax
	movq	%rax, -120(%rbp)        # 8-byte Spill
.LBB3_64:                               # %if.end306
.Ltmp275:
	#DEBUG_VALUE: ammunition_arithm_test:result <- 0
	#DEBUG_VALUE: ammunition_arithm_test:i <- 0
	movl	$328, %r14d             # imm = 0x148
	movl	$328, %edi              # imm = 0x148
	movl	$329, %edx              # imm = 0x149
	movl	%r15d, %esi
	callq	_KPhi1To1
.Ltmp276:
	#DEBUG_VALUE: ammunition_arithm_test:i <- -2000
	movl	$328, %edi              # imm = 0x148
	movl	$328, %esi              # imm = 0x148
	xorl	%edx, %edx
	callq	_KTimestamp1
	movl	$1, %esi
	movq	%rbx, %rdi
	callq	_KEnterRegion
	movl	$-2000, %r13d           # imm = 0xFFFFFFFFFFFFF830
	movl	$-4010, %ebx            # imm = 0xFFFFFFFFFFFFF056
	movl	$2010, -128(%rbp)       # 4-byte Folded Spill
                                        # imm = 0x7DA
	xorl	%r15d, %r15d
	jmp	.LBB3_65
	.align	16, 0x90
.LBB3_70:                               # %for.inc336
                                        #   in Loop: Header=BB3_65 Depth=1
	#DEBUG_VALUE: ammunition_arithm_test:result <- 0
	#DEBUG_VALUE: ammunition_arithm_test:i <- -2000
	movl	$60, %r15d
	movl	$60, %edi
	callq	_KPushCDep
	movl	$332, %r14d             # imm = 0x14C
	movl	$332, %edi              # imm = 0x14C
	movl	$60, %edx
	movl	$335, %ecx              # imm = 0x14F
	movl	%r12d, %esi
	callq	_KPhi2To1
	movl	$1, %edi
	callq	_KWork
	.loc	1 384 31                # ammunition.c:384:31
.Ltmp277:
	incl	%r13d
.Ltmp278:
	#DEBUG_VALUE: ammunition_arithm_test:i <- R13D
	movl	$332, %edi              # imm = 0x14C
	movl	$332, %esi              # imm = 0x14C
	xorl	%edx, %edx
	callq	_KTimestamp1
	movl	$330, %r12d             # imm = 0x14A
	movl	$330, %edi              # imm = 0x14A
	movl	$57, %esi
	movl	$1, %edx
	movl	$60, %ecx
	movl	$1, %r8d
	callq	_KTimestamp2
	callq	_KPopCDep
	movl	$2, %esi
	movabsq	$5537292494722354389, %rdi # imm = 0x4CD86A2FA55CCCD5
	callq	_KExitRegion
	addl	$2, %ebx
	decl	-128(%rbp)              # 4-byte Folded Spill
.Ltmp279:
.LBB3_65:                               # %for.cond307
                                        # =>This Inner Loop Header: Depth=1
	#DEBUG_VALUE: ammunition_arithm_test:result <- 0
	#DEBUG_VALUE: ammunition_arithm_test:i <- -2000
	movl	$331, %edi              # imm = 0x14B
	movl	%r14d, %esi
	movl	%r15d, %edx
	callq	_KPhi1To1
	movl	$57, %edi
	movl	%r12d, %esi
	movl	%r15d, %edx
	callq	_KPhi1To1
	movl	$1, %edi
	callq	_KWork
	movl	$60, %edi
	movl	$57, %esi
	movl	$1, %edx
	callq	_KTimestamp1
	movl	$57, %edi
	movl	$57, %esi
	xorl	%edx, %edx
	callq	_KTimestamp1
	movl	$331, %edi              # imm = 0x14B
	movl	$331, %esi              # imm = 0x14B
	xorl	%edx, %edx
	callq	_KTimestamp1
	movl	$331, %edi              # imm = 0x14B
	movl	$60, %esi
	callq	_KPhiAddCond
	movl	$57, %edi
	movl	$60, %esi
	callq	_KPhiAddCond
	.loc	1 384 3 is_stmt 0       # ammunition.c:384:3
	cmpl	$2000, %r13d            # imm = 0x7D0
	je	.LBB3_71
# BB#66:                                # %for.body309
                                        #   in Loop: Header=BB3_65 Depth=1
	#DEBUG_VALUE: ammunition_arithm_test:result <- 0
	#DEBUG_VALUE: ammunition_arithm_test:i <- -2000
	movl	%ebx, %r14d
	movl	$2, %esi
	movabsq	$5537292494722354389, %rdi # imm = 0x4CD86A2FA55CCCD5
	callq	_KEnterRegion
	movl	$60, %edi
	callq	_KPushCDep
	xorl	%esi, %esi
	movabsq	$3555352765325869403, %rdi # imm = 0x31572680C473815B
	callq	_KPrepCall
	movl	$57, %edi
	callq	_KEnqArg
	movl	$56, %edi
	callq	_KLinkReturn
	movl	$6, %edi
	callq	_KWork
	leaq	-64(%rbp), %rbx
	.loc	1 385 5 is_stmt 1       # ammunition.c:385:5
.Ltmp280:
	movq	%rbx, %rdi
	movl	%r13d, %esi
	callq	ammunition_sprintf_d
	xorl	%esi, %esi
	movabsq	$7044483615819270386, %rdi # imm = 0x61C308867AF788F2
	callq	_KPrepCall
	callq	_KEnqArgConst
	movl	$4, %edi
	.loc	1 386 5                 # ammunition.c:386:5
	movq	%rbx, %rsi
	leaq	-100(%rbp), %r15
	movq	%r15, %rdx
	callq	ammunition_integer_from_string
	xorl	%esi, %esi
	movabsq	$-2659916626519129261, %rdi # imm = 0xDB1613EBC82C0353
	callq	_KPrepCall
	movl	$59, %edi
	movl	$57, %esi
	movl	$1, %edx
	movl	$60, %ecx
	movl	$1, %r8d
	callq	_KTimestamp2
	movl	$59, %edi
	callq	_KEnqArg
	movl	$58, %edi
	callq	_KLinkReturn
	.loc	1 387 5                 # ammunition.c:387:5
	movq	%rbx, %rdi
	movl	-128(%rbp), %esi        # 4-byte Reload
	callq	ammunition_sprintf_d
	xorl	%esi, %esi
	movabsq	$3537955315424214884, %rdi # imm = 0x3119579D4F10BF64
	callq	_KPrepCall
	callq	_KEnqArgConst
	movl	$4, %edi
	.loc	1 388 5                 # ammunition.c:388:5
	movq	%rbx, %rsi
	leaq	-104(%rbp), %rbx
	movq	%rbx, %rdx
	callq	ammunition_integer_from_string
	xorl	%esi, %esi
	movabsq	$-4994240824294384558, %rdi # imm = 0xBAB0E46E512DDC52
	callq	_KPrepCall
	callq	_KEnqArgConst
	movl	$4, %edi
	.loc	1 389 5                 # ammunition.c:389:5
	movq	%r15, %rsi
	movq	%rbx, %rdx
	movq	%r15, %rcx
	callq	ammunition_subtract_integer
	movl	$ammunition_overflow_bit, %edi
	movl	$61, %esi
	movl	$4, %edx
	callq	_KLoad0
	.loc	1 390 10                # ammunition.c:390:10
	movl	ammunition_overflow_bit(%rip), %ebx
	movl	$334, %edi              # imm = 0x14E
	movl	$60, %esi
	movl	$1, %edx
	movl	$61, %ecx
	movl	$1, %r8d
	callq	_KTimestamp2
	callq	_KPopCDep
	cmpl	$0, %ebx
	movl	$331, %ebx              # imm = 0x14B
	je	.LBB3_68
# BB#67:                                # %if.then324
                                        #   in Loop: Header=BB3_65 Depth=1
	#DEBUG_VALUE: ammunition_arithm_test:result <- 0
	#DEBUG_VALUE: ammunition_arithm_test:i <- -2000
	movl	$334, %edi              # imm = 0x14E
	callq	_KPushCDep
.Ltmp281:
	#DEBUG_VALUE: ammunition_arithm_test:result <- 1
	callq	_KPopCDep
	movl	$1, %eax
	movq	%rax, -120(%rbp)        # 8-byte Spill
	xorl	%ebx, %ebx
.LBB3_68:                               # %if.end325
                                        #   in Loop: Header=BB3_65 Depth=1
.Ltmp282:
	#DEBUG_VALUE: ammunition_arithm_test:result <- 0
	#DEBUG_VALUE: ammunition_arithm_test:i <- -2000
	movl	$60, %edi
	callq	_KPushCDep
	movl	$333, %r12d             # imm = 0x14D
	movl	$333, %edi              # imm = 0x14D
	movl	$60, %edx
	movl	$334, %ecx              # imm = 0x14E
	movl	%ebx, %esi
	callq	_KPhi2To1
	movl	$3, %edi
	callq	_KWork
	xorl	%esi, %esi
	movabsq	$-8022389882947766514, %rdi # imm = 0x90AABEE7E935F70E
	callq	_KPrepCall
	callq	_KEnqArgConst
	movl	$4, %edi
	leaq	-100(%rbp), %rsi
	leaq	-96(%rbp), %rbx
	.loc	1 392 5                 # ammunition.c:392:5
	movq	%rbx, %rdx
	callq	ammunition_integer_to_string
	xorl	%esi, %esi
	movabsq	$-4451753189746955987, %rdi # imm = 0xC238320F716BA92D
	callq	_KPrepCall
	movl	$62, %edi
	callq	_KLinkReturn
	.loc	1 393 10                # ammunition.c:393:10
.Ltmp283:
	movq	%rbx, %rdi
	callq	ammunition_atoi
	movl	%eax, %ebx
	movl	$333, %edi              # imm = 0x14D
	movl	$333, %esi              # imm = 0x14D
	xorl	%edx, %edx
	callq	_KTimestamp1
	movl	$1, (%rsp)
	movl	$335, %edi              # imm = 0x14F
	movl	$57, %esi
	movl	$3, %edx
	movl	$60, %ecx
	movl	$3, %r8d
	movl	$62, %r9d
	callq	_KTimestamp3
	callq	_KPopCDep
	cmpl	%ebx, %r14d
	movl	%r14d, %ebx
	je	.LBB3_70
.Ltmp284:
# BB#69:                                # %if.then334
                                        #   in Loop: Header=BB3_65 Depth=1
	#DEBUG_VALUE: ammunition_arithm_test:result <- 0
	#DEBUG_VALUE: ammunition_arithm_test:i <- -2000
	movl	$335, %edi              # imm = 0x14F
	callq	_KPushCDep
.Ltmp285:
	#DEBUG_VALUE: ammunition_arithm_test:result <- 1
	callq	_KPopCDep
	movl	$1, %eax
	movq	%rax, -120(%rbp)        # 8-byte Spill
	xorl	%r12d, %r12d
	jmp	.LBB3_70
.LBB3_71:                               # %for.cond307.pre_exit.for.end338
.Ltmp286:
	#DEBUG_VALUE: ammunition_arithm_test:result <- 0
	#DEBUG_VALUE: ammunition_arithm_test:i <- -2000
	movl	$1, %esi
	movabsq	$71216610774356497, %rdi # imm = 0xFD032153501211
	callq	_KExitRegion
	movl	$5, %edi
	callq	_KWork
	movabsq	$-1247261362465216109, %rdi # imm = 0xEEB0D6662C30E993
	xorl	%esi, %esi
	callq	_KPrepCall
	leaq	-64(%rbp), %rbx
	leaq	-96(%rbp), %rsi
	leaq	-100(%rbp), %r15
	leaq	-104(%rbp), %r14
	leaq	-110(%rbp), %r8
	.loc	1 398 3                 # ammunition.c:398:3
	movq	%rbx, %rdi
	movq	%r15, %rdx
	movq	%r14, %rcx
	callq	ammunition_reset_str_arithm
	movabsq	$-8957031570601740020, %rdi # imm = 0x83B23B3E3052F90C
	xorl	%esi, %esi
	callq	_KPrepCall
	callq	_KEnqArgConst
	movl	$63, %edi
	callq	_KLinkReturn
	movl	$-3, %esi
	.loc	1 400 3                 # ammunition.c:400:3
	movq	%rbx, %rdi
	callq	ammunition_sprintf_u
	movabsq	$-8150235145022282582, %rdi # imm = 0x8EE48C51410AE4AA
	xorl	%esi, %esi
	callq	_KPrepCall
	callq	_KEnqArgConst
	movl	$4, %edi
	.loc	1 401 3                 # ammunition.c:401:3
	movq	%rbx, %rsi
	movq	%r15, %rdx
	callq	ammunition_unsigned_integer_from_string
	movabsq	$-1672381727508427721, %rdi # imm = 0xE8CA81ADF3018C37
	xorl	%esi, %esi
	callq	_KPrepCall
	callq	_KEnqArgConst
	movl	$64, %edi
	callq	_KLinkReturn
	movl	$-2, %esi
	.loc	1 402 3                 # ammunition.c:402:3
	movq	%rbx, %rdi
	callq	ammunition_sprintf_u
	movabsq	$6565280956009453187, %rdi # imm = 0x5B1C903EC1949683
	xorl	%esi, %esi
	callq	_KPrepCall
	callq	_KEnqArgConst
	movl	$4, %edi
	.loc	1 403 3                 # ammunition.c:403:3
	movq	%rbx, %rsi
	movq	%r14, %rdx
	callq	ammunition_unsigned_integer_from_string
	movabsq	$-44891554636782557, %rdi # imm = 0xFF60835E7075A423
	xorl	%esi, %esi
	callq	_KPrepCall
	callq	_KEnqArgConst
	movl	$4, %edi
	.loc	1 404 3                 # ammunition.c:404:3
	movq	%r15, %rsi
	movq	%r14, %rdx
	movq	%r15, %rcx
	callq	ammunition_subtract_unsigned_integer
	movl	$ammunition_overflow_bit, %edi
	movl	$65, %esi
	movl	$4, %edx
	callq	_KLoad0
	.loc	1 405 8                 # ammunition.c:405:8
	movl	ammunition_overflow_bit(%rip), %ebx
	movl	$337, %edi              # imm = 0x151
	movl	$65, %esi
	movl	$1, %edx
	callq	_KTimestamp1
	cmpl	$0, %ebx
	movl	$331, %esi              # imm = 0x14B
	movq	-120(%rbp), %r12        # 8-byte Reload
	jne	.LBB3_73
# BB#72:                                # %if.then358
	#DEBUG_VALUE: ammunition_arithm_test:result <- 0
	#DEBUG_VALUE: ammunition_arithm_test:i <- -2000
	movl	$337, %edi              # imm = 0x151
	callq	_KPushCDep
.Ltmp287:
	#DEBUG_VALUE: ammunition_arithm_test:result <- 1
	callq	_KPopCDep
	xorl	%esi, %esi
	movl	$1, %r12d
.LBB3_73:                               # %if.end359
.Ltmp288:
	#DEBUG_VALUE: ammunition_arithm_test:result <- 0
	#DEBUG_VALUE: ammunition_arithm_test:i <- -2000
	movl	$336, %r14d             # imm = 0x150
	movl	$336, %edi              # imm = 0x150
	movl	$337, %edx              # imm = 0x151
                                        # kill: ESI<def> ESI<kill> RSI<kill>
	callq	_KPhi1To1
	movl	$5, %edi
	callq	_KWork
	movabsq	$-1097929448677915494, %rdi # imm = 0xF0C35EFBC71CC49A
	xorl	%esi, %esi
	callq	_KPrepCall
	callq	_KEnqArgConst
	movl	$66, %edi
	callq	_KLinkReturn
	leaq	-64(%rbp), %r15
	movl	$-1, %esi
	.loc	1 407 3                 # ammunition.c:407:3
	movq	%r15, %rdi
	callq	ammunition_sprintf_u
	movabsq	$-4107516385197735726, %rdi # imm = 0xC6FF2B9C373140D2
	xorl	%esi, %esi
	callq	_KPrepCall
	callq	_KEnqArgConst
	leaq	-100(%rbp), %rbx
	movl	$4, %edi
	.loc	1 408 3                 # ammunition.c:408:3
	movq	%r15, %rsi
	movq	%rbx, %rdx
	callq	ammunition_unsigned_integer_from_string
	movabsq	$2200524726794842837, %rdi # imm = 0x1E89D5948411F2D5
	xorl	%esi, %esi
	callq	_KPrepCall
	callq	_KEnqArgConst
	movl	$4, %edi
	.loc	1 409 3                 # ammunition.c:409:3
	movq	%rbx, %rsi
	movq	%rbx, %rdx
	movq	%rbx, %rcx
	callq	ammunition_subtract_unsigned_integer
	movl	$ammunition_overflow_bit, %edi
	movl	$67, %esi
	movl	$4, %edx
	callq	_KLoad0
	.loc	1 410 8                 # ammunition.c:410:8
	movl	ammunition_overflow_bit(%rip), %ebx
	movl	$339, %edi              # imm = 0x153
	movl	$67, %esi
	movl	$1, %edx
	callq	_KTimestamp1
	movl	$336, %edi              # imm = 0x150
	movl	$336, %esi              # imm = 0x150
	xorl	%edx, %edx
	callq	_KTimestamp1
	cmpl	$0, %ebx
	je	.LBB3_75
# BB#74:                                # %if.then369
	#DEBUG_VALUE: ammunition_arithm_test:result <- 0
	#DEBUG_VALUE: ammunition_arithm_test:i <- -2000
	movl	$339, %edi              # imm = 0x153
	callq	_KPushCDep
.Ltmp289:
	#DEBUG_VALUE: ammunition_arithm_test:result <- 1
	callq	_KPopCDep
	xorl	%r14d, %r14d
	movl	$1, %r12d
.LBB3_75:                               # %if.end370
.Ltmp290:
	#DEBUG_VALUE: ammunition_arithm_test:result <- 0
	#DEBUG_VALUE: ammunition_arithm_test:i <- -2000
	movq	%r12, -120(%rbp)        # 8-byte Spill
	movl	$338, %r12d             # imm = 0x152
	movl	$338, %edi              # imm = 0x152
	movl	$339, %edx              # imm = 0x153
	movl	%r14d, %esi
	callq	_KPhi1To1
	movl	$1, %edi
	callq	_KWork
	xorl	%r15d, %r15d
	movabsq	$5721289995688092942, %rdi # imm = 0x4F661AF039FC250E
	xorl	%esi, %esi
	callq	_KPrepCall
	callq	_KEnqArgConst
	leaq	-100(%rbp), %rsi
	leaq	-96(%rbp), %rbx
	movl	$4, %edi
	.loc	1 412 3                 # ammunition.c:412:3
	movq	%rbx, %rdx
	callq	ammunition_unsigned_integer_to_string
	movabsq	$4183284158467937413, %rdi # imm = 0x3A0E02C734001485
	xorl	%esi, %esi
	callq	_KPrepCall
	movl	$68, %edi
	callq	_KLinkReturn
	.loc	1 413 8                 # ammunition.c:413:8
.Ltmp291:
	movl	$.L.str4, %esi
	movq	%rbx, %rdi
	callq	ammunition_strcmp
	movl	%eax, %ebx
	movl	$341, %edi              # imm = 0x155
	movl	$68, %esi
	movl	$1, %edx
	callq	_KTimestamp1
	movl	$338, %edi              # imm = 0x152
	movl	$338, %esi              # imm = 0x152
	xorl	%edx, %edx
	callq	_KTimestamp1
	testl	%ebx, %ebx
	movabsq	$-5264337347771378316, %rbx # imm = 0xB6F15112E843D574
	je	.LBB3_77
.Ltmp292:
# BB#76:                                # %if.then377
	#DEBUG_VALUE: ammunition_arithm_test:result <- 0
	#DEBUG_VALUE: ammunition_arithm_test:i <- -2000
	movl	$341, %edi              # imm = 0x155
	callq	_KPushCDep
.Ltmp293:
	#DEBUG_VALUE: ammunition_arithm_test:result <- 1
	callq	_KPopCDep
	xorl	%r12d, %r12d
	movl	$1, %eax
	movq	%rax, -120(%rbp)        # 8-byte Spill
.LBB3_77:                               # %if.end378
.Ltmp294:
	#DEBUG_VALUE: ammunition_arithm_test:result <- 0
	#DEBUG_VALUE: ammunition_arithm_test:i <- -2000
	movl	$340, %r14d             # imm = 0x154
	movl	$340, %edi              # imm = 0x154
	movl	$341, %edx              # imm = 0x155
	movl	%r12d, %esi
	callq	_KPhi1To1
.Ltmp295:
	#DEBUG_VALUE: ammunition_arithm_test:i <- 0
	movl	$70, %edi
	callq	_KInduction
	movl	$340, %edi              # imm = 0x154
	movl	$340, %esi              # imm = 0x154
	xorl	%edx, %edx
	callq	_KTimestamp1
	movl	$1, %esi
	movq	%rbx, %rdi
	callq	_KEnterRegion
	movabsq	$-2923006044044344370, %rbx # imm = 0xD76F657D5C6AC3CE
	xorl	%r12d, %r12d
	jmp	.LBB3_78
	.align	16, 0x90
.LBB3_83:                               # %for.inc408
                                        #   in Loop: Header=BB3_78 Depth=1
	#DEBUG_VALUE: ammunition_arithm_test:result <- 0
	#DEBUG_VALUE: ammunition_arithm_test:i <- 0
	movl	$73, %r12d
	movl	$73, %edi
	callq	_KPushCDep
	movl	$343, %r14d             # imm = 0x157
	movl	$343, %edi              # imm = 0x157
	movl	$73, %edx
	movl	$346, %ecx              # imm = 0x15A
	movl	%r13d, %esi
	callq	_KPhi2To1
	.loc	1 416 27                # ammunition.c:416:27
.Ltmp296:
	incl	%r15d
.Ltmp297:
	#DEBUG_VALUE: ammunition_arithm_test:i <- R15D
	movl	$343, %edi              # imm = 0x157
	movl	$343, %esi              # imm = 0x157
	xorl	%edx, %edx
	callq	_KTimestamp1
	callq	_KPopCDep
	movl	$2, %esi
	movabsq	$-2923006044044344370, %rbx # imm = 0xD76F657D5C6AC3CE
	movq	%rbx, %rdi
	callq	_KExitRegion
.Ltmp298:
.LBB3_78:                               # %for.cond379
                                        # =>This Inner Loop Header: Depth=1
	#DEBUG_VALUE: ammunition_arithm_test:result <- 0
	#DEBUG_VALUE: ammunition_arithm_test:i <- 0
	movl	$342, %edi              # imm = 0x156
	movl	%r14d, %esi
	movl	%r12d, %edx
	callq	_KPhi1To1
	movl	$1, %edi
	callq	_KWork
	movl	$73, %edi
	movl	$70, %esi
	movl	$1, %edx
	callq	_KTimestamp1
	movl	$70, %edi
	movl	$70, %esi
	xorl	%edx, %edx
	callq	_KTimestamp1
	movl	$342, %edi              # imm = 0x156
	movl	$73, %esi
	callq	_KPhiAddCond
	movl	$342, %edi              # imm = 0x156
	movl	$342, %esi              # imm = 0x156
	xorl	%edx, %edx
	callq	_KTimestamp1
	.loc	1 416 3 is_stmt 0       # ammunition.c:416:3
	cmpl	$4000, %r15d            # imm = 0xFA0
	je	.LBB3_84
# BB#79:                                # %for.body381
                                        #   in Loop: Header=BB3_78 Depth=1
	#DEBUG_VALUE: ammunition_arithm_test:result <- 0
	#DEBUG_VALUE: ammunition_arithm_test:i <- 0
	movl	$2, %esi
	movq	%rbx, %rdi
	callq	_KEnterRegion
	movl	$73, %edi
	callq	_KPushCDep
	xorl	%esi, %esi
	movabsq	$2496576255926164525, %rdi # imm = 0x22A59EE099275C2D
	callq	_KPrepCall
	movl	$70, %edi
	callq	_KEnqArg
	movl	$69, %edi
	callq	_KLinkReturn
	movl	$15, %edi
	callq	_KWork
	leaq	-64(%rbp), %rbx
	.loc	1 417 5 is_stmt 1       # ammunition.c:417:5
.Ltmp299:
	movq	%rbx, %rdi
	movl	%r15d, %esi
	callq	ammunition_sprintf_u
	xorl	%esi, %esi
	movabsq	$9021625711026057099, %rdi # imm = 0x7D3340C91A3D2F8B
	callq	_KPrepCall
	callq	_KEnqArgConst
	movl	$4, %edi
	.loc	1 418 5                 # ammunition.c:418:5
	movq	%rbx, %rsi
	leaq	-100(%rbp), %r12
	movq	%r12, %rdx
	callq	ammunition_unsigned_integer_from_string
	.loc	1 419 32                # ammunition.c:419:32
	movl	%r15d, %r14d
	shrl	$31, %r14d
	addl	%r15d, %r14d
	sarl	%r14d
	xorl	%esi, %esi
	movabsq	$1417481408008083862, %rdi # imm = 0x13ABE7D4980AD996
	callq	_KPrepCall
	movl	$72, %edi
	movl	$70, %esi
	movl	$10, %edx
	movl	$73, %ecx
	movl	$10, %r8d
	callq	_KTimestamp2
	movl	$72, %edi
	callq	_KEnqArg
	movl	$71, %edi
	callq	_KLinkReturn
	.loc	1 419 5 is_stmt 0       # ammunition.c:419:5
	movq	%rbx, %rdi
	movl	%r14d, %esi
	callq	ammunition_sprintf_u
	xorl	%esi, %esi
	movabsq	$-3915451620400474877, %rdi # imm = 0xC9A9857F06CD5503
	callq	_KPrepCall
	callq	_KEnqArgConst
	movl	$4, %edi
	.loc	1 420 5 is_stmt 1       # ammunition.c:420:5
	movq	%rbx, %rsi
	leaq	-104(%rbp), %rbx
	movq	%rbx, %rdx
	callq	ammunition_unsigned_integer_from_string
	xorl	%esi, %esi
	movabsq	$-263025067741611893, %rdi # imm = 0xFC598C182E3CF88B
	callq	_KPrepCall
	callq	_KEnqArgConst
	movl	$4, %edi
	.loc	1 421 5                 # ammunition.c:421:5
	movq	%r12, %rsi
	movq	%rbx, %rdx
	movq	%r12, %rcx
	callq	ammunition_subtract_unsigned_integer
	movl	$ammunition_overflow_bit, %edi
	movl	$74, %esi
	movl	$4, %edx
	callq	_KLoad0
	.loc	1 422 10                # ammunition.c:422:10
	movl	ammunition_overflow_bit(%rip), %ebx
	movl	$345, %edi              # imm = 0x159
	movl	$74, %esi
	movl	$1, %edx
	movl	$73, %ecx
	movl	$1, %r8d
	callq	_KTimestamp2
	callq	_KPopCDep
	cmpl	$0, %ebx
	movl	$342, %ebx              # imm = 0x156
	je	.LBB3_81
# BB#80:                                # %if.then396
                                        #   in Loop: Header=BB3_78 Depth=1
	#DEBUG_VALUE: ammunition_arithm_test:result <- 0
	#DEBUG_VALUE: ammunition_arithm_test:i <- 0
	movl	$345, %edi              # imm = 0x159
	callq	_KPushCDep
.Ltmp300:
	#DEBUG_VALUE: ammunition_arithm_test:result <- 1
	callq	_KPopCDep
	movl	$1, %eax
	movq	%rax, -120(%rbp)        # 8-byte Spill
	xorl	%ebx, %ebx
.LBB3_81:                               # %if.end397
                                        #   in Loop: Header=BB3_78 Depth=1
.Ltmp301:
	#DEBUG_VALUE: ammunition_arithm_test:result <- 0
	#DEBUG_VALUE: ammunition_arithm_test:i <- 0
	movl	$73, %edi
	callq	_KPushCDep
	movl	$344, %r13d             # imm = 0x158
	movl	$344, %edi              # imm = 0x158
	movl	$73, %edx
	movl	$345, %ecx              # imm = 0x159
	movl	%ebx, %esi
	callq	_KPhi2To1
	movl	$12, %edi
	callq	_KWork
	xorl	%esi, %esi
	movabsq	$-2608919135516778541, %rdi # imm = 0xDBCB41DE6FCD9FD3
	callq	_KPrepCall
	callq	_KEnqArgConst
	movl	$4, %edi
	leaq	-100(%rbp), %rsi
	leaq	-96(%rbp), %rbx
	.loc	1 424 5                 # ammunition.c:424:5
	movq	%rbx, %rdx
	callq	ammunition_unsigned_integer_to_string
	xorl	%esi, %esi
	movabsq	$7120422593783088510, %rdi # imm = 0x62D0D29F991B457E
	callq	_KPrepCall
	movl	$75, %edi
	callq	_KLinkReturn
	.loc	1 425 10                # ammunition.c:425:10
.Ltmp302:
	movq	%rbx, %rdi
	callq	ammunition_atoi
	movl	%eax, %ebx
	movl	%r15d, %r12d
	subl	%r14d, %r12d
	movl	$344, %edi              # imm = 0x158
	movl	$344, %esi              # imm = 0x158
	xorl	%edx, %edx
	callq	_KTimestamp1
	movl	$1, (%rsp)
	movl	$346, %edi              # imm = 0x15A
	movl	$70, %esi
	movl	$12, %edx
	movl	$73, %ecx
	movl	$12, %r8d
	movl	$75, %r9d
	callq	_KTimestamp3
	callq	_KPopCDep
	cmpl	%ebx, %r12d
	je	.LBB3_83
.Ltmp303:
# BB#82:                                # %if.then406
                                        #   in Loop: Header=BB3_78 Depth=1
	#DEBUG_VALUE: ammunition_arithm_test:result <- 0
	#DEBUG_VALUE: ammunition_arithm_test:i <- 0
	movl	$346, %edi              # imm = 0x15A
	callq	_KPushCDep
.Ltmp304:
	#DEBUG_VALUE: ammunition_arithm_test:result <- 1
	callq	_KPopCDep
	movl	$1, %eax
	movq	%rax, -120(%rbp)        # 8-byte Spill
	xorl	%r13d, %r13d
	jmp	.LBB3_83
.LBB3_84:                               # %for.cond379.pre_exit.for.end410
.Ltmp305:
	#DEBUG_VALUE: ammunition_arithm_test:result <- 0
	#DEBUG_VALUE: ammunition_arithm_test:i <- 0
	movl	$1, %esi
	movabsq	$-5264337347771378316, %rdi # imm = 0xB6F15112E843D574
	callq	_KExitRegion
	movl	$5, %edi
	callq	_KWork
	movabsq	$4346741298303735740, %rdi # imm = 0x3C52BA2E47EA17BC
	xorl	%esi, %esi
	callq	_KPrepCall
	leaq	-64(%rbp), %rbx
	leaq	-96(%rbp), %rsi
	leaq	-100(%rbp), %r15
	leaq	-104(%rbp), %r14
	leaq	-110(%rbp), %r8
	.loc	1 430 3                 # ammunition.c:430:3
	movq	%rbx, %rdi
	movq	%r15, %rdx
	movq	%r14, %rcx
	callq	ammunition_reset_str_arithm
	movabsq	$748644651483683059, %rdi # imm = 0xA63B85812AE58F3
	xorl	%esi, %esi
	callq	_KPrepCall
	callq	_KEnqArgConst
	movl	$76, %edi
	callq	_KLinkReturn
	movl	$1073741824, %esi       # imm = 0x40000000
	.loc	1 432 3                 # ammunition.c:432:3
	movq	%rbx, %rdi
	callq	ammunition_sprintf_d
	movabsq	$-5498379299147695369, %rdi # imm = 0xB3B1D528B9F0BAF7
	xorl	%esi, %esi
	callq	_KPrepCall
	callq	_KEnqArgConst
	movl	$4, %edi
	.loc	1 433 3                 # ammunition.c:433:3
	movq	%rbx, %rsi
	movq	%r15, %rdx
	callq	ammunition_integer_from_string
	movabsq	$8593042730716014928, %rdi # imm = 0x77409ED5F014A950
	xorl	%esi, %esi
	callq	_KPrepCall
	callq	_KEnqArgConst
	movl	$4, %edi
	.loc	1 434 3                 # ammunition.c:434:3
	movl	$.L.str5, %esi
	movq	%r14, %rdx
	callq	ammunition_integer_from_string
	movabsq	$5372309176028949572, %rdi # imm = 0x4A8E46BB5CC6EC44
	xorl	%esi, %esi
	callq	_KPrepCall
	callq	_KEnqArgConst
	movl	$4, %edi
	.loc	1 435 3                 # ammunition.c:435:3
	movq	%r15, %rsi
	movq	%r14, %rdx
	movq	%r15, %rcx
	callq	ammunition_multiply_integer
	movl	$ammunition_overflow_bit, %edi
	movl	$77, %esi
	movl	$4, %edx
	callq	_KLoad0
	.loc	1 436 8                 # ammunition.c:436:8
	movl	ammunition_overflow_bit(%rip), %ebx
	movl	$348, %edi              # imm = 0x15C
	movl	$77, %esi
	movl	$1, %edx
	callq	_KTimestamp1
	cmpl	$0, %ebx
	movl	$342, %esi              # imm = 0x156
	movq	-120(%rbp), %r12        # 8-byte Reload
	jne	.LBB3_86
# BB#85:                                # %if.then427
	#DEBUG_VALUE: ammunition_arithm_test:result <- 0
	#DEBUG_VALUE: ammunition_arithm_test:i <- 0
	movl	$348, %edi              # imm = 0x15C
	callq	_KPushCDep
.Ltmp306:
	#DEBUG_VALUE: ammunition_arithm_test:result <- 1
	callq	_KPopCDep
	xorl	%esi, %esi
	movl	$1, %r12d
.LBB3_86:                               # %if.end428
.Ltmp307:
	#DEBUG_VALUE: ammunition_arithm_test:result <- 0
	#DEBUG_VALUE: ammunition_arithm_test:i <- 0
	movl	$347, %r15d             # imm = 0x15B
	movl	$347, %edi              # imm = 0x15B
	movl	$348, %edx              # imm = 0x15C
                                        # kill: ESI<def> ESI<kill> RSI<kill>
	callq	_KPhi1To1
	movl	$5, %edi
	callq	_KWork
	movabsq	$-278552510930836114, %rdi # imm = 0xFC2261F796ACA56E
	xorl	%esi, %esi
	callq	_KPrepCall
	callq	_KEnqArgConst
	movl	$78, %edi
	callq	_KLinkReturn
	leaq	-64(%rbp), %rbx
	movl	$-1073741825, %esi      # imm = 0xFFFFFFFFBFFFFFFF
	.loc	1 438 3                 # ammunition.c:438:3
	movq	%rbx, %rdi
	callq	ammunition_sprintf_d
	movabsq	$-8336691986184299265, %rdi # imm = 0x8C4E1ECEE9A39CFF
	xorl	%esi, %esi
	callq	_KPrepCall
	callq	_KEnqArgConst
	leaq	-100(%rbp), %r14
	movl	$4, %edi
	.loc	1 439 3                 # ammunition.c:439:3
	movq	%rbx, %rsi
	movq	%r14, %rdx
	callq	ammunition_integer_from_string
	movabsq	$-8432888327451024081, %rdi # imm = 0x8AF85CBEDBBE652F
	xorl	%esi, %esi
	callq	_KPrepCall
	callq	_KEnqArgConst
	leaq	-104(%rbp), %rbx
	movl	$4, %edi
	.loc	1 440 3                 # ammunition.c:440:3
	movl	$.L.str5, %esi
	movq	%rbx, %rdx
	callq	ammunition_integer_from_string
	movabsq	$3216549783979459044, %rdi # imm = 0x2CA37AFC8C7481E4
	xorl	%esi, %esi
	callq	_KPrepCall
	callq	_KEnqArgConst
	movl	$4, %edi
	.loc	1 441 3                 # ammunition.c:441:3
	movq	%r14, %rsi
	movq	%rbx, %rdx
	movq	%r14, %rcx
	callq	ammunition_multiply_integer
	movl	$ammunition_overflow_bit, %edi
	movl	$79, %esi
	movl	$4, %edx
	callq	_KLoad0
	.loc	1 442 8                 # ammunition.c:442:8
	movl	ammunition_overflow_bit(%rip), %ebx
	movl	$350, %edi              # imm = 0x15E
	movl	$79, %esi
	movl	$1, %edx
	callq	_KTimestamp1
	movl	$347, %edi              # imm = 0x15B
	movl	$347, %esi              # imm = 0x15B
	xorl	%edx, %edx
	callq	_KTimestamp1
	cmpl	$0, %ebx
	jne	.LBB3_88
# BB#87:                                # %if.then440
	#DEBUG_VALUE: ammunition_arithm_test:result <- 0
	#DEBUG_VALUE: ammunition_arithm_test:i <- 0
	movl	$350, %edi              # imm = 0x15E
	callq	_KPushCDep
.Ltmp308:
	#DEBUG_VALUE: ammunition_arithm_test:result <- 1
	callq	_KPopCDep
	xorl	%r15d, %r15d
	movl	$1, %r12d
.LBB3_88:                               # %if.end441
.Ltmp309:
	#DEBUG_VALUE: ammunition_arithm_test:result <- 0
	#DEBUG_VALUE: ammunition_arithm_test:i <- 0
	movq	%r12, -120(%rbp)        # 8-byte Spill
	movl	$349, %r14d             # imm = 0x15D
	movl	$349, %edi              # imm = 0x15D
	movl	$350, %edx              # imm = 0x15E
	movl	%r15d, %esi
	callq	_KPhi1To1
	movl	$5, %edi
	callq	_KWork
	movabsq	$-375921508243326734, %rdi # imm = 0xFAC8756145BA38F2
	xorl	%esi, %esi
	callq	_KPrepCall
	callq	_KEnqArgConst
	movl	$80, %edi
	callq	_KLinkReturn
	leaq	-64(%rbp), %r12
	movl	$715827882, %esi        # imm = 0x2AAAAAAA
	.loc	1 444 3                 # ammunition.c:444:3
	movq	%r12, %rdi
	callq	ammunition_sprintf_d
	movabsq	$-7704140437869972684, %rdi # imm = 0x951565170D09B334
	xorl	%esi, %esi
	callq	_KPrepCall
	callq	_KEnqArgConst
	leaq	-100(%rbp), %r15
	movl	$4, %edi
	.loc	1 445 3                 # ammunition.c:445:3
	movq	%r12, %rsi
	movq	%r15, %rdx
	callq	ammunition_integer_from_string
	movabsq	$7322750817922008450, %rdi # imm = 0x659FA31240F14582
	xorl	%esi, %esi
	callq	_KPrepCall
	callq	_KEnqArgConst
	movl	$81, %edi
	callq	_KLinkReturn
	movl	$3, %esi
	.loc	1 446 3                 # ammunition.c:446:3
	movq	%r12, %rdi
	callq	ammunition_sprintf_d
	movabsq	$-1140475952178991139, %rdi # imm = 0xF02C3729FB7EEFDD
	xorl	%esi, %esi
	callq	_KPrepCall
	callq	_KEnqArgConst
	leaq	-104(%rbp), %rbx
	movl	$4, %edi
	.loc	1 447 3                 # ammunition.c:447:3
	movq	%r12, %rsi
	movq	%rbx, %rdx
	callq	ammunition_integer_from_string
	movabsq	$-616978253942154348, %rdi # imm = 0xF7700D8C03A31B94
	xorl	%esi, %esi
	callq	_KPrepCall
	callq	_KEnqArgConst
	movl	$4, %edi
	.loc	1 448 3                 # ammunition.c:448:3
	movq	%r15, %rsi
	movq	%rbx, %rdx
	movq	%r15, %rcx
	callq	ammunition_multiply_integer
	movl	$ammunition_overflow_bit, %edi
	movl	$82, %esi
	movl	$4, %edx
	callq	_KLoad0
	.loc	1 449 8                 # ammunition.c:449:8
	movl	ammunition_overflow_bit(%rip), %ebx
	movl	$352, %edi              # imm = 0x160
	movl	$82, %esi
	movl	$1, %edx
	callq	_KTimestamp1
	movl	$349, %edi              # imm = 0x15D
	movl	$349, %esi              # imm = 0x15D
	xorl	%edx, %edx
	callq	_KTimestamp1
	cmpl	$0, %ebx
	je	.LBB3_90
# BB#89:                                # %if.then456
	#DEBUG_VALUE: ammunition_arithm_test:result <- 0
	#DEBUG_VALUE: ammunition_arithm_test:i <- 0
	movl	$352, %edi              # imm = 0x160
	callq	_KPushCDep
.Ltmp310:
	#DEBUG_VALUE: ammunition_arithm_test:result <- 1
	callq	_KPopCDep
	xorl	%r14d, %r14d
	movl	$1, %eax
	movq	%rax, -120(%rbp)        # 8-byte Spill
.LBB3_90:                               # %if.end457
.Ltmp311:
	#DEBUG_VALUE: ammunition_arithm_test:result <- 0
	#DEBUG_VALUE: ammunition_arithm_test:i <- 0
	movl	$351, %r12d             # imm = 0x15F
	movl	$351, %edi              # imm = 0x15F
	movl	$352, %edx              # imm = 0x160
	movl	%r14d, %esi
	callq	_KPhi1To1
	movl	$1, %edi
	callq	_KWork
	movabsq	$3451382782058207477, %rdi # imm = 0x2FE5C65AA47A98F5
	xorl	%esi, %esi
	callq	_KPrepCall
	callq	_KEnqArgConst
	leaq	-100(%rbp), %rsi
	leaq	-96(%rbp), %r14
	movl	$4, %edi
	.loc	1 451 3                 # ammunition.c:451:3
	movq	%r14, %rdx
	callq	ammunition_integer_to_string
	movabsq	$2819110547149960826, %rdi # imm = 0x271F7E1B396E367A
	xorl	%esi, %esi
	callq	_KPrepCall
	callq	_KEnqArgConst
	movl	$83, %edi
	callq	_KLinkReturn
	leaq	-64(%rbp), %rbx
	movl	$2147483646, %esi       # imm = 0x7FFFFFFE
	.loc	1 452 3                 # ammunition.c:452:3
	movq	%rbx, %rdi
	callq	ammunition_sprintf_d
	movabsq	$-6716031128230295369, %rdi # imm = 0xA2CBDD459D5E08B7
	xorl	%esi, %esi
	callq	_KPrepCall
	movl	$84, %edi
	callq	_KLinkReturn
	.loc	1 453 8                 # ammunition.c:453:8
.Ltmp312:
	movq	%r14, %rdi
	movq	%rbx, %rsi
	callq	ammunition_strcmp
	movl	%eax, %ebx
	movl	$354, %edi              # imm = 0x162
	movl	$84, %esi
	movl	$1, %edx
	callq	_KTimestamp1
	movl	$351, %edi              # imm = 0x15F
	movl	$351, %esi              # imm = 0x15F
	xorl	%edx, %edx
	callq	_KTimestamp1
	testl	%ebx, %ebx
	je	.LBB3_92
.Ltmp313:
# BB#91:                                # %if.then467
	#DEBUG_VALUE: ammunition_arithm_test:result <- 0
	#DEBUG_VALUE: ammunition_arithm_test:i <- 0
	movl	$354, %edi              # imm = 0x162
	callq	_KPushCDep
.Ltmp314:
	#DEBUG_VALUE: ammunition_arithm_test:result <- 1
	callq	_KPopCDep
	xorl	%r12d, %r12d
	movl	$1, %eax
	movq	%rax, -120(%rbp)        # 8-byte Spill
.LBB3_92:                               # %if.end468
.Ltmp315:
	#DEBUG_VALUE: ammunition_arithm_test:result <- 0
	#DEBUG_VALUE: ammunition_arithm_test:i <- 0
	movl	$353, %r15d             # imm = 0x161
	movl	$353, %edi              # imm = 0x161
	movl	$354, %edx              # imm = 0x162
	movl	%r12d, %esi
	callq	_KPhi1To1
	movl	$5, %edi
	callq	_KWork
	movabsq	$9065970604619581641, %rdi # imm = 0x7DD0CC3B387BC8C9
	xorl	%esi, %esi
	callq	_KPrepCall
	callq	_KEnqArgConst
	movl	$85, %edi
	callq	_KLinkReturn
	leaq	-64(%rbp), %r12
	movl	$-1073741824, %esi      # imm = 0xFFFFFFFFC0000000
	.loc	1 455 3                 # ammunition.c:455:3
	movq	%r12, %rdi
	callq	ammunition_sprintf_d
	movabsq	$-7972198834538265956, %rdi # imm = 0x915D0F660490429C
	xorl	%esi, %esi
	callq	_KPrepCall
	callq	_KEnqArgConst
	leaq	-100(%rbp), %r14
	movl	$4, %edi
	.loc	1 456 3                 # ammunition.c:456:3
	movq	%r12, %rsi
	movq	%r14, %rdx
	callq	ammunition_integer_from_string
	movabsq	$7655750727458661915, %rdi # imm = 0x6A3EB0B9871CA61B
	xorl	%esi, %esi
	callq	_KPrepCall
	callq	_KEnqArgConst
	movl	$86, %edi
	callq	_KLinkReturn
	movl	$2, %esi
	.loc	1 457 3                 # ammunition.c:457:3
	movq	%r12, %rdi
	callq	ammunition_sprintf_d
	movabsq	$-5873906127528820781, %rdi # imm = 0xAE7BB17F90A77FD3
	xorl	%esi, %esi
	callq	_KPrepCall
	callq	_KEnqArgConst
	leaq	-104(%rbp), %rbx
	movl	$4, %edi
	.loc	1 458 3                 # ammunition.c:458:3
	movq	%r12, %rsi
	movq	%rbx, %rdx
	callq	ammunition_integer_from_string
	movabsq	$2861926130207766194, %rdi # imm = 0x27B79AA6FC7136B2
	xorl	%esi, %esi
	callq	_KPrepCall
	callq	_KEnqArgConst
	movl	$4, %edi
	.loc	1 459 3                 # ammunition.c:459:3
	movq	%r14, %rsi
	movq	%rbx, %rdx
	movq	%r14, %rcx
	callq	ammunition_multiply_integer
	movl	$ammunition_overflow_bit, %edi
	movl	$87, %esi
	movl	$4, %edx
	callq	_KLoad0
	.loc	1 460 8                 # ammunition.c:460:8
	movl	ammunition_overflow_bit(%rip), %ebx
	movl	$356, %edi              # imm = 0x164
	movl	$87, %esi
	movl	$1, %edx
	callq	_KTimestamp1
	movl	$353, %edi              # imm = 0x161
	movl	$353, %esi              # imm = 0x161
	xorl	%edx, %edx
	callq	_KTimestamp1
	cmpl	$0, %ebx
	je	.LBB3_94
# BB#93:                                # %if.then483
	#DEBUG_VALUE: ammunition_arithm_test:result <- 0
	#DEBUG_VALUE: ammunition_arithm_test:i <- 0
	movl	$356, %edi              # imm = 0x164
	callq	_KPushCDep
.Ltmp316:
	#DEBUG_VALUE: ammunition_arithm_test:result <- 1
	callq	_KPopCDep
	xorl	%r15d, %r15d
	movl	$1, %eax
	movq	%rax, -120(%rbp)        # 8-byte Spill
.LBB3_94:                               # %if.end484
.Ltmp317:
	#DEBUG_VALUE: ammunition_arithm_test:result <- 0
	#DEBUG_VALUE: ammunition_arithm_test:i <- 0
	movl	$355, %r12d             # imm = 0x163
	movl	$355, %edi              # imm = 0x163
	movl	$356, %edx              # imm = 0x164
	movl	%r15d, %esi
	callq	_KPhi1To1
	movl	$1, %edi
	callq	_KWork
	xorl	%r14d, %r14d
	movabsq	$6097307073107075953, %rdi # imm = 0x549DFC7A63062371
	xorl	%esi, %esi
	callq	_KPrepCall
	callq	_KEnqArgConst
	leaq	-100(%rbp), %rsi
	leaq	-96(%rbp), %r15
	movl	$4, %edi
	.loc	1 462 3                 # ammunition.c:462:3
	movq	%r15, %rdx
	callq	ammunition_integer_to_string
	movabsq	$-6834024465753743888, %rdi # imm = 0xA128AAF4E46B5DF0
	xorl	%esi, %esi
	callq	_KPrepCall
	callq	_KEnqArgConst
	movl	$88, %edi
	callq	_KLinkReturn
	leaq	-64(%rbp), %rbx
	movl	$-2147483648, %esi      # imm = 0xFFFFFFFF80000000
	.loc	1 463 3                 # ammunition.c:463:3
	movq	%rbx, %rdi
	callq	ammunition_sprintf_d
	movabsq	$5799871079384577798, %rdi # imm = 0x507D480485C77706
	xorl	%esi, %esi
	callq	_KPrepCall
	movl	$89, %edi
	callq	_KLinkReturn
	.loc	1 464 8                 # ammunition.c:464:8
.Ltmp318:
	movq	%r15, %rdi
	movq	%rbx, %rsi
	callq	ammunition_strcmp
	movl	%eax, %ebx
	movl	$358, %edi              # imm = 0x166
	movl	$89, %esi
	movl	$1, %edx
	callq	_KTimestamp1
	movl	$355, %edi              # imm = 0x163
	movl	$355, %esi              # imm = 0x163
	xorl	%edx, %edx
	callq	_KTimestamp1
	testl	%ebx, %ebx
	movabsq	$-4302606621811732, %r15 # imm = 0xFFF0B6CD54B2DBEC
	je	.LBB3_96
.Ltmp319:
# BB#95:                                # %if.then494
	#DEBUG_VALUE: ammunition_arithm_test:result <- 0
	#DEBUG_VALUE: ammunition_arithm_test:i <- 0
	movl	$358, %edi              # imm = 0x166
	callq	_KPushCDep
.Ltmp320:
	#DEBUG_VALUE: ammunition_arithm_test:result <- 1
	callq	_KPopCDep
	xorl	%r12d, %r12d
	movl	$1, %eax
	movq	%rax, -120(%rbp)        # 8-byte Spill
.LBB3_96:                               # %if.end495
.Ltmp321:
	#DEBUG_VALUE: ammunition_arithm_test:result <- 0
	#DEBUG_VALUE: ammunition_arithm_test:i <- 0
	movl	$357, %ebx              # imm = 0x165
	movl	$357, %edi              # imm = 0x165
	movl	$358, %edx              # imm = 0x166
	movl	%r12d, %esi
	callq	_KPhi1To1
.Ltmp322:
	#DEBUG_VALUE: ammunition_arithm_test:i <- -2000
	movl	$357, %edi              # imm = 0x165
	movl	$357, %esi              # imm = 0x165
	xorl	%edx, %edx
	callq	_KTimestamp1
	movl	$1, %esi
	movq	%r15, %rdi
	callq	_KEnterRegion
	movl	$-2000, %r12d           # imm = 0xFFFFFFFFFFFFF830
	xorl	%r13d, %r13d
	jmp	.LBB3_97
	.align	16, 0x90
.LBB3_102:                              # %for.inc525
                                        #   in Loop: Header=BB3_97 Depth=1
	#DEBUG_VALUE: ammunition_arithm_test:result <- 0
	#DEBUG_VALUE: ammunition_arithm_test:i <- -2000
	movl	$94, %r13d
	movl	$94, %edi
	callq	_KPushCDep
	movl	$361, %ebx              # imm = 0x169
	movl	$361, %edi              # imm = 0x169
	movl	$94, %edx
	movl	$364, %ecx              # imm = 0x16C
	movl	%r14d, %esi
	callq	_KPhi2To1
	movl	$1, %edi
	callq	_KWork
	movl	$361, %edi              # imm = 0x169
	movl	$361, %esi              # imm = 0x169
	xorl	%edx, %edx
	callq	_KTimestamp1
	movl	$359, %r14d             # imm = 0x167
	movl	$359, %edi              # imm = 0x167
	movl	$91, %esi
	movl	$1, %edx
	movl	$94, %ecx
	movl	$1, %r8d
	callq	_KTimestamp2
	callq	_KPopCDep
	movl	$2, %esi
	movabsq	$-6508254314562159469, %rdi # imm = 0xA5AE092EE09E7C93
	callq	_KExitRegion
	addl	$-999, %r15d            # imm = 0xFFFFFFFFFFFFFC19
	movl	%r15d, %r12d
.LBB3_97:                               # %for.cond496
                                        # =>This Inner Loop Header: Depth=1
	#DEBUG_VALUE: ammunition_arithm_test:result <- 0
	#DEBUG_VALUE: ammunition_arithm_test:i <- -2000
	movl	$360, %edi              # imm = 0x168
	movl	%ebx, %esi
	movl	%r13d, %edx
	callq	_KPhi1To1
	movl	$91, %edi
	movl	%r14d, %esi
	movl	%r13d, %edx
	callq	_KPhi1To1
	movl	$1, %edi
	callq	_KWork
	movl	$94, %edi
	movl	$91, %esi
	movl	$1, %edx
	callq	_KTimestamp1
	movl	$91, %edi
	movl	$91, %esi
	xorl	%edx, %edx
	callq	_KTimestamp1
	movl	$360, %edi              # imm = 0x168
	movl	$94, %esi
	callq	_KPhiAddCond
	movl	$91, %edi
	movl	$94, %esi
	callq	_KPhiAddCond
	movl	$360, %edi              # imm = 0x168
	movl	$360, %esi              # imm = 0x168
	xorl	%edx, %edx
	callq	_KTimestamp1
	.loc	1 467 3                 # ammunition.c:467:3
.Ltmp323:
	cmpl	$2000, %r12d            # imm = 0x7D0
	je	.LBB3_103
# BB#98:                                # %for.body498
                                        #   in Loop: Header=BB3_97 Depth=1
	#DEBUG_VALUE: ammunition_arithm_test:result <- 0
	#DEBUG_VALUE: ammunition_arithm_test:i <- -2000
	movl	$2, %esi
	movabsq	$-6508254314562159469, %rdi # imm = 0xA5AE092EE09E7C93
	callq	_KEnterRegion
	movl	$94, %edi
	callq	_KPushCDep
	xorl	%esi, %esi
	movabsq	$576205065402728137, %rdi # imm = 0x7FF1774411C3EC9
	callq	_KPrepCall
	movl	$91, %edi
	callq	_KEnqArg
	movl	$90, %edi
	callq	_KLinkReturn
	movl	$6, %edi
	callq	_KWork
	leaq	-64(%rbp), %rbx
	.loc	1 468 5                 # ammunition.c:468:5
.Ltmp324:
	movq	%rbx, %rdi
	movl	%r12d, %esi
	callq	ammunition_sprintf_d
	xorl	%esi, %esi
	movabsq	$4086319390105571926, %rdi # imm = 0x38B585D5C6089256
	callq	_KPrepCall
	callq	_KEnqArgConst
	movl	$4, %edi
	.loc	1 469 5                 # ammunition.c:469:5
	movq	%rbx, %rsi
	leaq	-100(%rbp), %r14
	movq	%r14, %rdx
	callq	ammunition_integer_from_string
	.loc	1 470 32                # ammunition.c:470:32
	leal	1000(%r12), %r15d
	xorl	%esi, %esi
	movabsq	$8155633744626083866, %rdi # imm = 0x712EA1AE2AA0681A
	callq	_KPrepCall
	movl	$93, %edi
	movl	$91, %esi
	movl	$1, %edx
	movl	$94, %ecx
	movl	$1, %r8d
	callq	_KTimestamp2
	movl	$93, %edi
	callq	_KEnqArg
	movl	$92, %edi
	callq	_KLinkReturn
	.loc	1 470 5 is_stmt 0       # ammunition.c:470:5
	movq	%rbx, %rdi
	movl	%r15d, %esi
	callq	ammunition_sprintf_d
	xorl	%esi, %esi
	movabsq	$-4622910024603154940, %rdi # imm = 0xBFD81FD36AEFC604
	callq	_KPrepCall
	callq	_KEnqArgConst
	movl	$4, %edi
	.loc	1 471 5 is_stmt 1       # ammunition.c:471:5
	movq	%rbx, %rsi
	leaq	-104(%rbp), %rbx
	movq	%rbx, %rdx
	callq	ammunition_integer_from_string
	xorl	%esi, %esi
	movabsq	$3963031671306218032, %rdi # imm = 0x36FF844ED9D46A30
	callq	_KPrepCall
	callq	_KEnqArgConst
	movl	$4, %edi
	.loc	1 472 5                 # ammunition.c:472:5
	movq	%r14, %rsi
	movq	%rbx, %rdx
	movq	%r14, %rcx
	callq	ammunition_multiply_integer
	movl	$ammunition_overflow_bit, %edi
	movl	$95, %esi
	movl	$4, %edx
	callq	_KLoad0
	.loc	1 473 10                # ammunition.c:473:10
	movl	ammunition_overflow_bit(%rip), %ebx
	movl	$363, %edi              # imm = 0x16B
	movl	$94, %esi
	movl	$1, %edx
	movl	$95, %ecx
	movl	$1, %r8d
	callq	_KTimestamp2
	callq	_KPopCDep
	cmpl	$0, %ebx
	movl	$360, %ebx              # imm = 0x168
	je	.LBB3_100
# BB#99:                                # %if.then514
                                        #   in Loop: Header=BB3_97 Depth=1
	#DEBUG_VALUE: ammunition_arithm_test:result <- 0
	#DEBUG_VALUE: ammunition_arithm_test:i <- -2000
	movl	$363, %edi              # imm = 0x16B
	callq	_KPushCDep
.Ltmp325:
	#DEBUG_VALUE: ammunition_arithm_test:result <- 1
	callq	_KPopCDep
	movl	$1, %eax
	movq	%rax, -120(%rbp)        # 8-byte Spill
	xorl	%ebx, %ebx
.LBB3_100:                              # %if.end515
                                        #   in Loop: Header=BB3_97 Depth=1
.Ltmp326:
	#DEBUG_VALUE: ammunition_arithm_test:result <- 0
	#DEBUG_VALUE: ammunition_arithm_test:i <- -2000
	movl	$94, %edi
	callq	_KPushCDep
	movl	$362, %r14d             # imm = 0x16A
	movl	$362, %edi              # imm = 0x16A
	movl	$94, %edx
	movl	$363, %ecx              # imm = 0x16B
	movl	%ebx, %esi
	callq	_KPhi2To1
	movl	$4, %edi
	callq	_KWork
	xorl	%esi, %esi
	movabsq	$-3131472497869851419, %rdi # imm = 0xD48AC65ABC8FF4E5
	callq	_KPrepCall
	callq	_KEnqArgConst
	movl	$4, %edi
	leaq	-100(%rbp), %rsi
	leaq	-96(%rbp), %rbx
	.loc	1 475 5                 # ammunition.c:475:5
	movq	%rbx, %rdx
	callq	ammunition_integer_to_string
	xorl	%esi, %esi
	movabsq	$-4509342541800606042, %rdi # imm = 0xC16B98D9896AF6A6
	callq	_KPrepCall
	movl	$96, %edi
	callq	_KLinkReturn
	.loc	1 476 10                # ammunition.c:476:10
.Ltmp327:
	movq	%rbx, %rdi
	callq	ammunition_atoi
	movl	%eax, %ebx
	.loc	1 476 35 is_stmt 0      # ammunition.c:476:35
	imull	%r15d, %r12d
	movl	$4, (%rsp)
	movl	$364, %edi              # imm = 0x16C
	movl	$96, %esi
	movl	$1, %edx
	movl	$91, %ecx
	movl	$4, %r8d
	movl	$94, %r9d
	callq	_KTimestamp3
	movl	$362, %edi              # imm = 0x16A
	movl	$362, %esi              # imm = 0x16A
	xorl	%edx, %edx
	callq	_KTimestamp1
	callq	_KPopCDep
	.loc	1 476 10                # ammunition.c:476:10
	cmpl	%r12d, %ebx
	je	.LBB3_102
.Ltmp328:
# BB#101:                               # %if.then523
                                        #   in Loop: Header=BB3_97 Depth=1
	#DEBUG_VALUE: ammunition_arithm_test:result <- 0
	#DEBUG_VALUE: ammunition_arithm_test:i <- -2000
	movl	$364, %edi              # imm = 0x16C
	callq	_KPushCDep
.Ltmp329:
	#DEBUG_VALUE: ammunition_arithm_test:result <- 1
	callq	_KPopCDep
	movl	$1, %eax
	movq	%rax, -120(%rbp)        # 8-byte Spill
	xorl	%r14d, %r14d
	jmp	.LBB3_102
.LBB3_103:                              # %for.cond496.pre_exit.for.end527
.Ltmp330:
	#DEBUG_VALUE: ammunition_arithm_test:result <- 0
	#DEBUG_VALUE: ammunition_arithm_test:i <- -2000
	movl	$1, %esi
	movabsq	$-4302606621811732, %rdi # imm = 0xFFF0B6CD54B2DBEC
	callq	_KExitRegion
	movl	$5, %edi
	callq	_KWork
	movabsq	$-120399548111187220, %rdi # imm = 0xFE54413FB7B712EC
	xorl	%esi, %esi
	callq	_KPrepCall
	leaq	-64(%rbp), %rbx
	leaq	-96(%rbp), %rsi
	leaq	-100(%rbp), %r15
	leaq	-104(%rbp), %r14
	leaq	-110(%rbp), %r8
	.loc	1 481 3 is_stmt 1       # ammunition.c:481:3
	movq	%rbx, %rdi
	movq	%r15, %rdx
	movq	%r14, %rcx
	callq	ammunition_reset_str_arithm
	movabsq	$1624710968424743468, %rdi # imm = 0x168C220487A3422C
	xorl	%esi, %esi
	callq	_KPrepCall
	callq	_KEnqArgConst
	movl	$97, %edi
	callq	_KLinkReturn
	movl	$858993460, %esi        # imm = 0x33333334
	.loc	1 483 3                 # ammunition.c:483:3
	movq	%rbx, %rdi
	callq	ammunition_sprintf_u
	movabsq	$-7538755834817214747, %rdi # imm = 0x9760F582A15106E5
	xorl	%esi, %esi
	callq	_KPrepCall
	callq	_KEnqArgConst
	movl	$4, %edi
	.loc	1 484 3                 # ammunition.c:484:3
	movq	%rbx, %rsi
	movq	%r15, %rdx
	callq	ammunition_unsigned_integer_from_string
	movabsq	$-8501834946641354224, %rdi # imm = 0x8A036A292270A210
	xorl	%esi, %esi
	callq	_KPrepCall
	callq	_KEnqArgConst
	movl	$98, %edi
	callq	_KLinkReturn
	movl	$5, %esi
	.loc	1 485 3                 # ammunition.c:485:3
	movq	%rbx, %rdi
	callq	ammunition_sprintf_u
	movabsq	$-7671025637325837377, %rdi # imm = 0x958B0AD360476BBF
	xorl	%esi, %esi
	callq	_KPrepCall
	callq	_KEnqArgConst
	movl	$4, %edi
	.loc	1 486 3                 # ammunition.c:486:3
	movq	%rbx, %rsi
	movq	%r14, %rdx
	callq	ammunition_unsigned_integer_from_string
	movabsq	$7580922895118319779, %rdi # imm = 0x6934D935292740A3
	xorl	%esi, %esi
	callq	_KPrepCall
	callq	_KEnqArgConst
	movl	$4, %edi
	.loc	1 487 3                 # ammunition.c:487:3
	movq	%r15, %rsi
	movq	%r14, %rdx
	movq	%r15, %rcx
	callq	ammunition_multiply_unsigned_integer
	movl	$ammunition_overflow_bit, %edi
	movl	$99, %esi
	movl	$4, %edx
	callq	_KLoad0
	.loc	1 488 8                 # ammunition.c:488:8
	movl	ammunition_overflow_bit(%rip), %ebx
	movl	$366, %edi              # imm = 0x16E
	movl	$99, %esi
	movl	$1, %edx
	callq	_KTimestamp1
	cmpl	$0, %ebx
	movl	$360, %esi              # imm = 0x168
	jne	.LBB3_105
# BB#104:                               # %if.then547
	#DEBUG_VALUE: ammunition_arithm_test:result <- 0
	#DEBUG_VALUE: ammunition_arithm_test:i <- -2000
	movl	$366, %edi              # imm = 0x16E
	callq	_KPushCDep
.Ltmp331:
	#DEBUG_VALUE: ammunition_arithm_test:result <- 1
	callq	_KPopCDep
	xorl	%esi, %esi
	movl	$1, %eax
	movq	%rax, -120(%rbp)        # 8-byte Spill
.LBB3_105:                              # %if.end548
.Ltmp332:
	#DEBUG_VALUE: ammunition_arithm_test:result <- 0
	#DEBUG_VALUE: ammunition_arithm_test:i <- -2000
	movl	$365, %r14d             # imm = 0x16D
	movl	$365, %edi              # imm = 0x16D
	movl	$366, %edx              # imm = 0x16E
                                        # kill: ESI<def> ESI<kill> RSI<kill>
	callq	_KPhi1To1
	movl	$5, %edi
	callq	_KWork
	movabsq	$-3273019606552296195, %rdi # imm = 0xD293E602508FC4FD
	xorl	%esi, %esi
	callq	_KPrepCall
	callq	_KEnqArgConst
	movl	$100, %edi
	callq	_KLinkReturn
	leaq	-64(%rbp), %r12
	movl	$2147483647, %esi       # imm = 0x7FFFFFFF
	.loc	1 490 3                 # ammunition.c:490:3
	movq	%r12, %rdi
	callq	ammunition_sprintf_u
	movabsq	$5845914940343083855, %rdi # imm = 0x5120DCAA4E4C634F
	xorl	%esi, %esi
	callq	_KPrepCall
	callq	_KEnqArgConst
	leaq	-100(%rbp), %r15
	movl	$4, %edi
	.loc	1 491 3                 # ammunition.c:491:3
	movq	%r12, %rsi
	movq	%r15, %rdx
	callq	ammunition_unsigned_integer_from_string
	movabsq	$4083442677967070434, %rdi # imm = 0x38AB4D7B08E5A4E2
	xorl	%esi, %esi
	callq	_KPrepCall
	callq	_KEnqArgConst
	movl	$101, %edi
	callq	_KLinkReturn
	movl	$2, %esi
	.loc	1 492 3                 # ammunition.c:492:3
	movq	%r12, %rdi
	callq	ammunition_sprintf_u
	movabsq	$5670229798434029963, %rdi # imm = 0x4EB0B3F5A27EC18B
	xorl	%esi, %esi
	callq	_KPrepCall
	callq	_KEnqArgConst
	leaq	-104(%rbp), %rbx
	movl	$4, %edi
	.loc	1 493 3                 # ammunition.c:493:3
	movq	%r12, %rsi
	movq	%rbx, %rdx
	callq	ammunition_unsigned_integer_from_string
	movabsq	$3055376464514720790, %rdi # imm = 0x2A66E0B4D67D2416
	xorl	%esi, %esi
	callq	_KPrepCall
	callq	_KEnqArgConst
	movl	$4, %edi
	.loc	1 494 3                 # ammunition.c:494:3
	movq	%r15, %rsi
	movq	%rbx, %rdx
	movq	%r15, %rcx
	callq	ammunition_multiply_unsigned_integer
	movl	$ammunition_overflow_bit, %edi
	movl	$102, %esi
	movl	$4, %edx
	callq	_KLoad0
	.loc	1 495 8                 # ammunition.c:495:8
	movl	ammunition_overflow_bit(%rip), %ebx
	movl	$368, %edi              # imm = 0x170
	movl	$102, %esi
	movl	$1, %edx
	callq	_KTimestamp1
	movl	$365, %edi              # imm = 0x16D
	movl	$365, %esi              # imm = 0x16D
	xorl	%edx, %edx
	callq	_KTimestamp1
	cmpl	$0, %ebx
	je	.LBB3_107
# BB#106:                               # %if.then563
	#DEBUG_VALUE: ammunition_arithm_test:result <- 0
	#DEBUG_VALUE: ammunition_arithm_test:i <- -2000
	movl	$368, %edi              # imm = 0x170
	callq	_KPushCDep
.Ltmp333:
	#DEBUG_VALUE: ammunition_arithm_test:result <- 1
	callq	_KPopCDep
	xorl	%r14d, %r14d
	movl	$1, %eax
	movq	%rax, -120(%rbp)        # 8-byte Spill
.LBB3_107:                              # %if.end564
.Ltmp334:
	#DEBUG_VALUE: ammunition_arithm_test:result <- 0
	#DEBUG_VALUE: ammunition_arithm_test:i <- -2000
	movl	$367, %r15d             # imm = 0x16F
	movl	$367, %edi              # imm = 0x16F
	movl	$368, %edx              # imm = 0x170
	movl	%r14d, %esi
	callq	_KPhi1To1
	movl	$1, %edi
	callq	_KWork
	xorl	%r12d, %r12d
	movabsq	$-3256881131851897580, %rdi # imm = 0xD2CD3BDDC44BA514
	xorl	%esi, %esi
	callq	_KPrepCall
	callq	_KEnqArgConst
	leaq	-100(%rbp), %rsi
	leaq	-96(%rbp), %r14
	movl	$4, %edi
	.loc	1 497 3                 # ammunition.c:497:3
	movq	%r14, %rdx
	callq	ammunition_unsigned_integer_to_string
	movabsq	$6355007594247821445, %rdi # imm = 0x583185BC980D1885
	xorl	%esi, %esi
	callq	_KPrepCall
	callq	_KEnqArgConst
	movl	$103, %edi
	callq	_KLinkReturn
	leaq	-64(%rbp), %rbx
	movl	$-2, %esi
	.loc	1 498 3                 # ammunition.c:498:3
	movq	%rbx, %rdi
	callq	ammunition_sprintf_u
	movabsq	$8527228999874519340, %rdi # imm = 0x7656CD989FEE212C
	xorl	%esi, %esi
	callq	_KPrepCall
	movl	$104, %edi
	callq	_KLinkReturn
	.loc	1 499 8                 # ammunition.c:499:8
.Ltmp335:
	movq	%r14, %rdi
	movq	%rbx, %rsi
	callq	ammunition_strcmp
	movl	%eax, %ebx
	movl	$370, %edi              # imm = 0x172
	movl	$104, %esi
	movl	$1, %edx
	callq	_KTimestamp1
	movl	$367, %edi              # imm = 0x16F
	movl	$367, %esi              # imm = 0x16F
	xorl	%edx, %edx
	callq	_KTimestamp1
	testl	%ebx, %ebx
	movabsq	$-4487036418272689176, %rbx # imm = 0xC1BAD826A29D83E8
	je	.LBB3_109
.Ltmp336:
# BB#108:                               # %if.then574
	#DEBUG_VALUE: ammunition_arithm_test:result <- 0
	#DEBUG_VALUE: ammunition_arithm_test:i <- -2000
	movl	$370, %edi              # imm = 0x172
	callq	_KPushCDep
.Ltmp337:
	#DEBUG_VALUE: ammunition_arithm_test:result <- 1
	callq	_KPopCDep
	xorl	%r15d, %r15d
	movl	$1, %eax
	movq	%rax, -120(%rbp)        # 8-byte Spill
.LBB3_109:                              # %if.end575
.Ltmp338:
	#DEBUG_VALUE: ammunition_arithm_test:result <- 0
	#DEBUG_VALUE: ammunition_arithm_test:i <- -2000
	movl	$369, %r14d             # imm = 0x171
	movl	$369, %edi              # imm = 0x171
	movl	$370, %edx              # imm = 0x172
	movl	%r15d, %esi
	callq	_KPhi1To1
.Ltmp339:
	#DEBUG_VALUE: ammunition_arithm_test:i <- 0
	movl	$369, %edi              # imm = 0x171
	movl	$369, %esi              # imm = 0x171
	xorl	%edx, %edx
	callq	_KTimestamp1
	movl	$106, %edi
	callq	_KInduction
	movl	$1, %esi
	movq	%rbx, %rdi
	callq	_KEnterRegion
	movabsq	$7014653151625128009, %rbx # imm = 0x61590DE04D30A849
	xorl	%r13d, %r13d
	jmp	.LBB3_110
	.align	16, 0x90
.LBB3_115:                              # %for.inc606
                                        #   in Loop: Header=BB3_110 Depth=1
	#DEBUG_VALUE: ammunition_arithm_test:result <- 0
	#DEBUG_VALUE: ammunition_arithm_test:i <- 0
	movl	$109, %r13d
	movl	$109, %edi
	callq	_KPushCDep
	movl	$372, %r14d             # imm = 0x174
	movl	$372, %edi              # imm = 0x174
	movl	$109, %edx
	movl	$375, %ecx              # imm = 0x177
	movl	%r15d, %esi
	callq	_KPhi2To1
	.loc	1 502 27                # ammunition.c:502:27
.Ltmp340:
	incl	%r12d
.Ltmp341:
	#DEBUG_VALUE: ammunition_arithm_test:i <- R12D
	movl	$372, %edi              # imm = 0x174
	movl	$372, %esi              # imm = 0x174
	xorl	%edx, %edx
	callq	_KTimestamp1
	callq	_KPopCDep
	movl	$2, %esi
	movabsq	$7014653151625128009, %rbx # imm = 0x61590DE04D30A849
	movq	%rbx, %rdi
	callq	_KExitRegion
.Ltmp342:
.LBB3_110:                              # %for.cond576
                                        # =>This Inner Loop Header: Depth=1
	#DEBUG_VALUE: ammunition_arithm_test:result <- 0
	#DEBUG_VALUE: ammunition_arithm_test:i <- 0
	movl	$371, %edi              # imm = 0x173
	movl	%r14d, %esi
	movl	%r13d, %edx
	callq	_KPhi1To1
	movl	$1, %edi
	callq	_KWork
	movl	$109, %edi
	movl	$106, %esi
	movl	$1, %edx
	callq	_KTimestamp1
	movl	$106, %edi
	movl	$106, %esi
	xorl	%edx, %edx
	callq	_KTimestamp1
	movl	$371, %edi              # imm = 0x173
	movl	$109, %esi
	callq	_KPhiAddCond
	movl	$371, %edi              # imm = 0x173
	movl	$371, %esi              # imm = 0x173
	xorl	%edx, %edx
	callq	_KTimestamp1
	.loc	1 502 3 is_stmt 0       # ammunition.c:502:3
	cmpl	$4000, %r12d            # imm = 0xFA0
	je	.LBB3_116
# BB#111:                               # %for.body578
                                        #   in Loop: Header=BB3_110 Depth=1
	#DEBUG_VALUE: ammunition_arithm_test:result <- 0
	#DEBUG_VALUE: ammunition_arithm_test:i <- 0
	movl	$2, %esi
	movq	%rbx, %rdi
	callq	_KEnterRegion
	movl	$109, %edi
	callq	_KPushCDep
	xorl	%esi, %esi
	movabsq	$8300822951480045024, %rdi # imm = 0x7332727EA660ADE0
	callq	_KPrepCall
	movl	$106, %edi
	callq	_KEnqArg
	movl	$105, %edi
	callq	_KLinkReturn
	movl	$15, %edi
	callq	_KWork
	leaq	-64(%rbp), %rbx
	.loc	1 503 5 is_stmt 1       # ammunition.c:503:5
.Ltmp343:
	movq	%rbx, %rdi
	movl	%r12d, %esi
	callq	ammunition_sprintf_u
	xorl	%esi, %esi
	movabsq	$892794906566197178, %rdi # imm = 0xC63D83CBF27FFBA
	callq	_KPrepCall
	callq	_KEnqArgConst
	movl	$4, %edi
	.loc	1 504 5                 # ammunition.c:504:5
	movq	%rbx, %rsi
	leaq	-100(%rbp), %r15
	movq	%r15, %rdx
	callq	ammunition_unsigned_integer_from_string
	.loc	1 505 32                # ammunition.c:505:32
	movl	%r12d, %r14d
	shrl	$31, %r14d
	addl	%r12d, %r14d
	sarl	%r14d
	xorl	%esi, %esi
	movabsq	$-5158105236193184299, %rdi # imm = 0xB86ABA9DD29F75D5
	callq	_KPrepCall
	movl	$108, %edi
	movl	$106, %esi
	movl	$10, %edx
	movl	$109, %ecx
	movl	$10, %r8d
	callq	_KTimestamp2
	movl	$108, %edi
	callq	_KEnqArg
	movl	$107, %edi
	callq	_KLinkReturn
	.loc	1 505 5 is_stmt 0       # ammunition.c:505:5
	movq	%rbx, %rdi
	movl	%r14d, %esi
	callq	ammunition_sprintf_u
	xorl	%esi, %esi
	movabsq	$-8341419316283902244, %rdi # imm = 0x8C3D53539A50F6DC
	callq	_KPrepCall
	callq	_KEnqArgConst
	movl	$4, %edi
	.loc	1 506 5 is_stmt 1       # ammunition.c:506:5
	movq	%rbx, %rsi
	leaq	-104(%rbp), %rbx
	movq	%rbx, %rdx
	callq	ammunition_unsigned_integer_from_string
	xorl	%esi, %esi
	movabsq	$-1667831093314691456, %rdi # imm = 0xE8DAAC7509A05E80
	callq	_KPrepCall
	callq	_KEnqArgConst
	movl	$4, %edi
	.loc	1 507 5                 # ammunition.c:507:5
	movq	%r15, %rsi
	movq	%rbx, %rdx
	movq	%r15, %rcx
	callq	ammunition_multiply_unsigned_integer
	movl	$ammunition_overflow_bit, %edi
	movl	$110, %esi
	movl	$4, %edx
	callq	_KLoad0
	.loc	1 508 10                # ammunition.c:508:10
	movl	ammunition_overflow_bit(%rip), %ebx
	movl	$374, %edi              # imm = 0x176
	movl	$110, %esi
	movl	$1, %edx
	movl	$109, %ecx
	movl	$1, %r8d
	callq	_KTimestamp2
	callq	_KPopCDep
	cmpl	$0, %ebx
	movl	$371, %ebx              # imm = 0x173
	je	.LBB3_113
# BB#112:                               # %if.then594
                                        #   in Loop: Header=BB3_110 Depth=1
	#DEBUG_VALUE: ammunition_arithm_test:result <- 0
	#DEBUG_VALUE: ammunition_arithm_test:i <- 0
	movl	$374, %edi              # imm = 0x176
	callq	_KPushCDep
.Ltmp344:
	#DEBUG_VALUE: ammunition_arithm_test:result <- 1
	callq	_KPopCDep
	movl	$1, %eax
	movq	%rax, -120(%rbp)        # 8-byte Spill
	xorl	%ebx, %ebx
.LBB3_113:                              # %if.end595
                                        #   in Loop: Header=BB3_110 Depth=1
.Ltmp345:
	#DEBUG_VALUE: ammunition_arithm_test:result <- 0
	#DEBUG_VALUE: ammunition_arithm_test:i <- 0
	movl	$109, %edi
	callq	_KPushCDep
	movl	$373, %r15d             # imm = 0x175
	movl	$373, %edi              # imm = 0x175
	movl	$109, %edx
	movl	$374, %ecx              # imm = 0x176
	movl	%ebx, %esi
	callq	_KPhi2To1
	movl	$13, %edi
	callq	_KWork
	xorl	%esi, %esi
	movabsq	$-5944840234436890745, %rdi # imm = 0xAD7FAF4DCBF06F87
	callq	_KPrepCall
	callq	_KEnqArgConst
	movl	$4, %edi
	leaq	-100(%rbp), %rsi
	leaq	-96(%rbp), %rbx
	.loc	1 510 5                 # ammunition.c:510:5
	movq	%rbx, %rdx
	callq	ammunition_unsigned_integer_to_string
	xorl	%esi, %esi
	movabsq	$7547761340181494082, %rdi # imm = 0x68BF08F2FAF1B942
	callq	_KPrepCall
	movl	$111, %edi
	callq	_KLinkReturn
	.loc	1 511 10                # ammunition.c:511:10
.Ltmp346:
	movq	%rbx, %rdi
	callq	ammunition_atoi
	movl	%eax, %ebx
	.loc	1 511 35 is_stmt 0      # ammunition.c:511:35
	imull	%r12d, %r14d
	movl	$373, %edi              # imm = 0x175
	movl	$373, %esi              # imm = 0x175
	xorl	%edx, %edx
	callq	_KTimestamp1
	movl	$13, (%rsp)
	movl	$375, %edi              # imm = 0x177
	movl	$111, %esi
	movl	$1, %edx
	movl	$106, %ecx
	movl	$13, %r8d
	movl	$109, %r9d
	callq	_KTimestamp3
	callq	_KPopCDep
	.loc	1 511 10                # ammunition.c:511:10
	cmpl	%r14d, %ebx
	je	.LBB3_115
.Ltmp347:
# BB#114:                               # %if.then604
                                        #   in Loop: Header=BB3_110 Depth=1
	#DEBUG_VALUE: ammunition_arithm_test:result <- 0
	#DEBUG_VALUE: ammunition_arithm_test:i <- 0
	movl	$375, %edi              # imm = 0x177
	callq	_KPushCDep
.Ltmp348:
	#DEBUG_VALUE: ammunition_arithm_test:result <- 1
	callq	_KPopCDep
	movl	$1, %eax
	movq	%rax, -120(%rbp)        # 8-byte Spill
	xorl	%r15d, %r15d
	jmp	.LBB3_115
.LBB3_116:                              # %for.cond576.pre_exit.for.end608
.Ltmp349:
	#DEBUG_VALUE: ammunition_arithm_test:result <- 0
	#DEBUG_VALUE: ammunition_arithm_test:i <- 0
	movl	$1, %esi
	movabsq	$-4487036418272689176, %rdi # imm = 0xC1BAD826A29D83E8
	callq	_KExitRegion
	movl	$5, %edi
	callq	_KWork
	xorl	%r13d, %r13d
	movabsq	$-3678261156211745808, %rdi # imm = 0xCCF430F778E19BF0
	xorl	%esi, %esi
	callq	_KPrepCall
	leaq	-64(%rbp), %rdi
	leaq	-96(%rbp), %rsi
	leaq	-100(%rbp), %rbx
	leaq	-104(%rbp), %r14
	leaq	-110(%rbp), %r8
	.loc	1 516 3 is_stmt 1       # ammunition.c:516:3
	movq	%rbx, %rdx
	movq	%r14, %rcx
	callq	ammunition_reset_str_arithm
	movabsq	$-8497700562871487830, %rdi # imm = 0x8A121A5C5E6872AA
	xorl	%esi, %esi
	callq	_KPrepCall
	callq	_KEnqArgConst
	movl	$4, %edi
	.loc	1 518 3                 # ammunition.c:518:3
	movl	$.L.str6, %esi
	movq	%rbx, %rdx
	callq	ammunition_integer_from_string
	movabsq	$4057725082838861717, %rdi # imm = 0x384FEF76CECD8795
	xorl	%esi, %esi
	callq	_KPrepCall
	callq	_KEnqArgConst
	movl	$4, %edi
	.loc	1 519 3                 # ammunition.c:519:3
	movl	$.L.str4, %esi
	movq	%r14, %rdx
	callq	ammunition_integer_from_string
	movabsq	$-7986356180240117883, %rdi # imm = 0x912AC35E1B0ACF85
	xorl	%esi, %esi
	callq	_KPrepCall
	callq	_KEnqArgConst
	movl	$4, %edi
	.loc	1 520 3                 # ammunition.c:520:3
	movq	%rbx, %rsi
	movq	%r14, %rdx
	movq	%rbx, %rcx
	callq	ammunition_divide_integer
	movl	$ammunition_overflow_bit, %edi
	movl	$112, %esi
	movl	$4, %edx
	callq	_KLoad0
	.loc	1 521 8                 # ammunition.c:521:8
	movl	ammunition_overflow_bit(%rip), %ebx
	movl	$377, %edi              # imm = 0x179
	movl	$112, %esi
	movl	$1, %edx
	callq	_KTimestamp1
	cmpl	$0, %ebx
	movl	$371, %esi              # imm = 0x173
	movabsq	$3028278217107145122, %rbx # imm = 0x2A069AFE73B981A2
	jne	.LBB3_118
# BB#117:                               # %if.then622
	#DEBUG_VALUE: ammunition_arithm_test:result <- 0
	#DEBUG_VALUE: ammunition_arithm_test:i <- 0
	movl	$377, %edi              # imm = 0x179
	callq	_KPushCDep
.Ltmp350:
	#DEBUG_VALUE: ammunition_arithm_test:result <- 1
	callq	_KPopCDep
	xorl	%esi, %esi
	movl	$1, %eax
	movq	%rax, -120(%rbp)        # 8-byte Spill
.LBB3_118:                              # %if.end623
.Ltmp351:
	#DEBUG_VALUE: ammunition_arithm_test:result <- 0
	#DEBUG_VALUE: ammunition_arithm_test:i <- 0
	movl	$376, %r15d             # imm = 0x178
	movl	$376, %edi              # imm = 0x178
	movl	$377, %edx              # imm = 0x179
	callq	_KPhi1To1
.Ltmp352:
	#DEBUG_VALUE: ammunition_arithm_test:i <- -2000
	movl	$376, %edi              # imm = 0x178
	movl	$376, %esi              # imm = 0x178
	xorl	%edx, %edx
	callq	_KTimestamp1
	movl	$1, %esi
	movq	%rbx, %rdi
	callq	_KEnterRegion
	movl	$-2000, %r12d           # imm = 0xFFFFFFFFFFFFF830
	movabsq	$4207008949121325227, %r14 # imm = 0x3A624C597B4418AB
	xorl	%ebx, %ebx
	jmp	.LBB3_119
	.align	16, 0x90
.LBB3_128:                              # %for.inc701
                                        #   in Loop: Header=BB3_119 Depth=1
	#DEBUG_VALUE: ammunition_arithm_test:result <- 0
	#DEBUG_VALUE: ammunition_arithm_test:i <- -2000
	movl	$117, %ebx
	movl	$117, %edi
	callq	_KPushCDep
	movl	$380, %r15d             # imm = 0x17C
	movl	$380, %edi              # imm = 0x17C
	movl	$117, %edx
	movl	$387, %ecx              # imm = 0x183
	movl	%r13d, %esi
	callq	_KPhi2To1
	movl	$1, %edi
	callq	_KWork
	movl	%r14d, %r12d
	.loc	1 524 31                # ammunition.c:524:31
.Ltmp353:
	incl	%r12d
.Ltmp354:
	#DEBUG_VALUE: ammunition_arithm_test:i <- R12D
	movl	$380, %edi              # imm = 0x17C
	movl	$380, %esi              # imm = 0x17C
	xorl	%edx, %edx
	callq	_KTimestamp1
	movl	$378, %r13d             # imm = 0x17A
	movl	$378, %edi              # imm = 0x17A
	movl	$114, %esi
	movl	$1, %edx
	movl	$117, %ecx
	movl	$1, %r8d
	callq	_KTimestamp2
	callq	_KPopCDep
	movl	$2, %esi
	movabsq	$4207008949121325227, %r14 # imm = 0x3A624C597B4418AB
	movq	%r14, %rdi
	callq	_KExitRegion
.Ltmp355:
.LBB3_119:                              # %for.cond624
                                        # =>This Inner Loop Header: Depth=1
	#DEBUG_VALUE: ammunition_arithm_test:result <- 0
	#DEBUG_VALUE: ammunition_arithm_test:i <- -2000
	movl	$379, %edi              # imm = 0x17B
	movl	%r15d, %esi
	movl	%ebx, %edx
	callq	_KPhi1To1
	movl	$114, %edi
	movl	%r13d, %esi
	movl	%ebx, %edx
	callq	_KPhi1To1
	movl	$1, %edi
	callq	_KWork
	movl	$117, %edi
	movl	$114, %esi
	movl	$1, %edx
	callq	_KTimestamp1
	movl	$114, %edi
	movl	$114, %esi
	xorl	%edx, %edx
	callq	_KTimestamp1
	movl	$114, %edi
	movl	$117, %esi
	callq	_KPhiAddCond
	movl	$379, %edi              # imm = 0x17B
	movl	$379, %esi              # imm = 0x17B
	xorl	%edx, %edx
	callq	_KTimestamp1
	movl	$379, %edi              # imm = 0x17B
	movl	$117, %esi
	callq	_KPhiAddCond
	.loc	1 524 3 is_stmt 0       # ammunition.c:524:3
	cmpl	$2000, %r12d            # imm = 0x7D0
	je	.LBB3_129
# BB#120:                               # %for.body626
                                        #   in Loop: Header=BB3_119 Depth=1
	#DEBUG_VALUE: ammunition_arithm_test:result <- 0
	#DEBUG_VALUE: ammunition_arithm_test:i <- -2000
	movl	$2, %esi
	movq	%r14, %rdi
	callq	_KEnterRegion
	movl	$117, %edi
	callq	_KPushCDep
	xorl	%esi, %esi
	movabsq	$-6267452874011924896, %rdi # imm = 0xA90588D14604A660
	callq	_KPrepCall
	movl	$114, %edi
	callq	_KEnqArg
	movl	$113, %edi
	callq	_KLinkReturn
	movl	$19, %edi
	callq	_KWork
	leaq	-64(%rbp), %rbx
	.loc	1 525 5 is_stmt 1       # ammunition.c:525:5
.Ltmp356:
	movq	%rbx, %rdi
	movl	%r12d, %esi
	callq	ammunition_sprintf_d
	xorl	%esi, %esi
	movabsq	$-3339147964682610792, %rdi # imm = 0xD1A8F69E209FD798
	callq	_KPrepCall
	callq	_KEnqArgConst
	movl	$4, %edi
	.loc	1 526 5                 # ammunition.c:526:5
	movq	%rbx, %rsi
	leaq	-100(%rbp), %r13
	movq	%r13, %rdx
	callq	ammunition_integer_from_string
	.loc	1 527 42                # ammunition.c:527:42
	movslq	%r12d, %rax
	imulq	$-1717986919, %rax, %rax # imm = 0xFFFFFFFF99999999
	movq	%rax, %rcx
	shrq	$63, %rcx
	sarq	$35, %rax
	addl	%ecx, %eax
	.loc	1 527 34 is_stmt 0      # ammunition.c:527:34
	movl	%r12d, %ecx
	movl	%r12d, %r14d
	shrl	$31, %ecx
	leal	-1(%rax,%rcx,2), %r12d
	movl	%r12d, -128(%rbp)       # 4-byte Spill
	xorl	%esi, %esi
	movabsq	$5638971582491832082, %rdi # imm = 0x4E41A6C718F2AF12
	callq	_KPrepCall
	movl	$116, %edi
	movl	$114, %esi
	movl	$12, %edx
	movl	$117, %ecx
	movl	$12, %r8d
	callq	_KTimestamp2
	movl	$116, %edi
	callq	_KEnqArg
	movl	$115, %edi
	callq	_KLinkReturn
	.loc	1 527 5 discriminator 4 # ammunition.c:527:5
.Ltmp357:
	movq	%rbx, %rdi
	movl	%r12d, %esi
	callq	ammunition_sprintf_d
	xorl	%esi, %esi
	movabsq	$3364274714060081953, %rdi # imm = 0x2EB04E071A614B21
	callq	_KPrepCall
	callq	_KEnqArgConst
	movl	$4, %edi
.Ltmp358:
	.loc	1 528 5 is_stmt 1       # ammunition.c:528:5
	movq	%rbx, %rsi
	leaq	-104(%rbp), %rbx
	movq	%rbx, %rdx
	callq	ammunition_integer_from_string
	xorl	%esi, %esi
	movabsq	$-1445894656520593233, %rdi # imm = 0xEBEF2678777460AF
	callq	_KPrepCall
	callq	_KEnqArgConst
	movl	$4, %edi
	.loc	1 529 5                 # ammunition.c:529:5
	movq	%r13, %rsi
	movq	%rbx, %rdx
	movq	%r13, %rcx
	callq	ammunition_divide_integer
	movl	$ammunition_overflow_bit, %edi
	movl	$118, %esi
	movl	$4, %edx
	callq	_KLoad0
	.loc	1 530 10                # ammunition.c:530:10
	movl	ammunition_overflow_bit(%rip), %ebx
	movl	$382, %edi              # imm = 0x17E
	movl	$117, %esi
	movl	$1, %edx
	movl	$118, %ecx
	movl	$1, %r8d
	callq	_KTimestamp2
	callq	_KPopCDep
	cmpl	$0, %ebx
	movl	$379, %ebx              # imm = 0x17B
	je	.LBB3_122
# BB#121:                               # %if.then648
                                        #   in Loop: Header=BB3_119 Depth=1
	#DEBUG_VALUE: ammunition_arithm_test:result <- 0
	#DEBUG_VALUE: ammunition_arithm_test:i <- -2000
	movl	$382, %edi              # imm = 0x17E
	callq	_KPushCDep
.Ltmp359:
	#DEBUG_VALUE: ammunition_arithm_test:result <- 1
	callq	_KPopCDep
	movl	$1, %eax
	movq	%rax, -120(%rbp)        # 8-byte Spill
	xorl	%ebx, %ebx
.LBB3_122:                              # %if.end649
                                        #   in Loop: Header=BB3_119 Depth=1
.Ltmp360:
	#DEBUG_VALUE: ammunition_arithm_test:result <- 0
	#DEBUG_VALUE: ammunition_arithm_test:i <- -2000
	movl	$117, %edi
	callq	_KPushCDep
	movl	$381, %r15d             # imm = 0x17D
	movl	$381, %edi              # imm = 0x17D
	movl	$117, %edx
	movl	$382, %ecx              # imm = 0x17E
	movl	%ebx, %esi
	callq	_KPhi2To1
	movl	$25, %edi
	callq	_KWork
	xorl	%esi, %esi
	movabsq	$219274494001885525, %rdi # imm = 0x30B04FD93493155
	callq	_KPrepCall
	callq	_KEnqArgConst
	movl	$4, %edi
	.loc	1 532 5                 # ammunition.c:532:5
	movq	%r13, %rsi
	leaq	-96(%rbp), %rbx
	movq	%rbx, %rdx
	callq	ammunition_integer_to_string
	xorl	%esi, %esi
	movabsq	$6764825334529751638, %rdi # imm = 0x5DE17CCCD8357A56
	callq	_KPrepCall
	movl	$119, %edi
	callq	_KLinkReturn
	.loc	1 533 10                # ammunition.c:533:10
.Ltmp361:
	movq	%rbx, %rdi
	callq	ammunition_atoi
	movl	%eax, %r12d
	.loc	1 533 35 is_stmt 0 discriminator 4 # ammunition.c:533:35
.Ltmp362:
	movl	%r14d, %eax
	cltd
	idivl	-128(%rbp)              # 4-byte Folded Reload
	movl	%eax, %ebx
	movl	%ebx, -128(%rbp)        # 4-byte Spill
	movl	$1, (%rsp)
	movl	$384, %edi              # imm = 0x180
	movl	$114, %esi
	movl	$23, %edx
	movl	$117, %ecx
	movl	$23, %r8d
	movl	$119, %r9d
	callq	_KTimestamp3
	movl	$381, %edi              # imm = 0x17D
	movl	$381, %esi              # imm = 0x17D
	xorl	%edx, %edx
	callq	_KTimestamp1
	callq	_KPopCDep
.Ltmp363:
	.loc	1 533 10                # ammunition.c:533:10
	cmpl	%ebx, %r12d
	je	.LBB3_124
.Ltmp364:
# BB#123:                               # %if.then668
                                        #   in Loop: Header=BB3_119 Depth=1
	#DEBUG_VALUE: ammunition_arithm_test:result <- 0
	#DEBUG_VALUE: ammunition_arithm_test:i <- -2000
	movl	$384, %edi              # imm = 0x180
	callq	_KPushCDep
.Ltmp365:
	#DEBUG_VALUE: ammunition_arithm_test:result <- 1
	callq	_KPopCDep
	movl	$1, %eax
	movq	%rax, -120(%rbp)        # 8-byte Spill
	xorl	%r15d, %r15d
.LBB3_124:                              # %if.end669
                                        #   in Loop: Header=BB3_119 Depth=1
.Ltmp366:
	#DEBUG_VALUE: ammunition_arithm_test:result <- 0
	#DEBUG_VALUE: ammunition_arithm_test:i <- -2000
	movl	$117, %edi
	callq	_KPushCDep
	movl	$383, %r12d             # imm = 0x17F
	movl	$383, %edi              # imm = 0x17F
	movl	$117, %edx
	movl	$384, %ecx              # imm = 0x180
	movl	%r15d, %esi
	callq	_KPhi2To1
	movl	$5, %edi
	callq	_KWork
	xorl	%esi, %esi
	movabsq	$-5891361877702153662, %rdi # imm = 0xAE3DAD960448EA42
	callq	_KPrepCall
	movl	$114, %edi
	callq	_KEnqArg
	movl	$120, %edi
	callq	_KLinkReturn
	leaq	-64(%rbp), %rbx
	.loc	1 535 5 is_stmt 1       # ammunition.c:535:5
	movq	%rbx, %rdi
	movl	%r14d, %esi
	callq	ammunition_sprintf_d
	xorl	%esi, %esi
	movabsq	$-5915825643767872629, %rdi # imm = 0xADE6C3EB9E11C38B
	callq	_KPrepCall
	callq	_KEnqArgConst
	movl	$4, %edi
	.loc	1 536 5                 # ammunition.c:536:5
	movq	%rbx, %rsi
	movq	%r13, %rdx
	callq	ammunition_integer_from_string
	xorl	%esi, %esi
	movabsq	$-4294194936035401123, %rdi # imm = 0xC467F4751154225D
	callq	_KPrepCall
	callq	_KEnqArgConst
	movl	$4, %edi
	.loc	1 537 5                 # ammunition.c:537:5
	movq	%r13, %rsi
	leaq	-104(%rbp), %rdx
	movq	%rdx, %rcx
	callq	ammunition_divide_integer
	movl	$ammunition_overflow_bit, %edi
	movl	$121, %esi
	movl	$4, %edx
	callq	_KLoad0
	.loc	1 538 10                # ammunition.c:538:10
	movl	ammunition_overflow_bit(%rip), %ebx
	movl	$386, %edi              # imm = 0x182
	movl	$117, %esi
	movl	$1, %edx
	movl	$121, %ecx
	movl	$1, %r8d
	callq	_KTimestamp2
	movl	$383, %edi              # imm = 0x17F
	movl	$383, %esi              # imm = 0x17F
	xorl	%edx, %edx
	callq	_KTimestamp1
	callq	_KPopCDep
	cmpl	$0, %ebx
	je	.LBB3_126
# BB#125:                               # %if.then679
                                        #   in Loop: Header=BB3_119 Depth=1
	#DEBUG_VALUE: ammunition_arithm_test:result <- 0
	#DEBUG_VALUE: ammunition_arithm_test:i <- -2000
	movl	$386, %edi              # imm = 0x182
	callq	_KPushCDep
.Ltmp367:
	#DEBUG_VALUE: ammunition_arithm_test:result <- 1
	callq	_KPopCDep
	movl	$1, %eax
	movq	%rax, -120(%rbp)        # 8-byte Spill
	xorl	%r12d, %r12d
.LBB3_126:                              # %if.end680
                                        #   in Loop: Header=BB3_119 Depth=1
.Ltmp368:
	#DEBUG_VALUE: ammunition_arithm_test:result <- 0
	#DEBUG_VALUE: ammunition_arithm_test:i <- -2000
	movl	$117, %edi
	callq	_KPushCDep
	movl	$385, %r13d             # imm = 0x181
	movl	$385, %edi              # imm = 0x181
	movl	$117, %edx
	movl	$386, %ecx              # imm = 0x182
	movl	%r12d, %esi
	callq	_KPhi2To1
	movl	$25, %edi
	callq	_KWork
	xorl	%esi, %esi
	movabsq	$-3165977646173960818, %rdi # imm = 0xD410301AD8F9458E
	callq	_KPrepCall
	callq	_KEnqArgConst
	movl	$4, %edi
	leaq	-104(%rbp), %rsi
	leaq	-96(%rbp), %rbx
	.loc	1 540 5                 # ammunition.c:540:5
	movq	%rbx, %rdx
	callq	ammunition_integer_to_string
	xorl	%esi, %esi
	movabsq	$3003415155571754746, %rdi # imm = 0x29AE462BD4E106FA
	callq	_KPrepCall
	movl	$122, %edi
	callq	_KLinkReturn
	.loc	1 541 10                # ammunition.c:541:10
.Ltmp369:
	movq	%rbx, %rdi
	callq	ammunition_atoi
	movl	%eax, %ebx
	movl	$1, (%rsp)
	movl	$387, %edi              # imm = 0x183
	movl	$114, %esi
	movl	$23, %edx
	movl	$117, %ecx
	movl	$23, %r8d
	movl	$122, %r9d
	callq	_KTimestamp3
	movl	$385, %edi              # imm = 0x181
	movl	$385, %esi              # imm = 0x181
	xorl	%edx, %edx
	callq	_KTimestamp1
	callq	_KPopCDep
	cmpl	-128(%rbp), %ebx        # 4-byte Folded Reload
	je	.LBB3_128
.Ltmp370:
# BB#127:                               # %if.then699
                                        #   in Loop: Header=BB3_119 Depth=1
	#DEBUG_VALUE: ammunition_arithm_test:result <- 0
	#DEBUG_VALUE: ammunition_arithm_test:i <- -2000
	movl	$387, %edi              # imm = 0x183
	callq	_KPushCDep
.Ltmp371:
	#DEBUG_VALUE: ammunition_arithm_test:result <- 1
	callq	_KPopCDep
	movl	$1, %eax
	movq	%rax, -120(%rbp)        # 8-byte Spill
	xorl	%r13d, %r13d
	jmp	.LBB3_128
.LBB3_129:                              # %for.cond624.pre_exit.for.end703
.Ltmp372:
	#DEBUG_VALUE: ammunition_arithm_test:result <- 0
	#DEBUG_VALUE: ammunition_arithm_test:i <- -2000
	movl	$1, %esi
	movabsq	$3028278217107145122, %rdi # imm = 0x2A069AFE73B981A2
	callq	_KExitRegion
	movl	$5, %edi
	callq	_KWork
	xorl	%r15d, %r15d
	movabsq	$-7253017798442455081, %rdi # imm = 0x9B581ABD8E406FD7
	xorl	%esi, %esi
	callq	_KPrepCall
	leaq	-64(%rbp), %rdi
	leaq	-96(%rbp), %rsi
	leaq	-100(%rbp), %rbx
	leaq	-104(%rbp), %r14
	leaq	-110(%rbp), %r8
	.loc	1 546 3                 # ammunition.c:546:3
	movq	%rbx, %rdx
	movq	%r14, %rcx
	callq	ammunition_reset_str_arithm
	movabsq	$-1594270735020708137, %rdi # imm = 0xE9E003369B4A2ED7
	xorl	%esi, %esi
	callq	_KPrepCall
	callq	_KEnqArgConst
	movl	$4, %edi
	.loc	1 548 3                 # ammunition.c:548:3
	movl	$.L.str6, %esi
	movq	%rbx, %rdx
	callq	ammunition_unsigned_integer_from_string
	movabsq	$123242532903293704, %rdi # imm = 0x1B5D86E42EB9308
	xorl	%esi, %esi
	callq	_KPrepCall
	callq	_KEnqArgConst
	movl	$4, %edi
	.loc	1 549 3                 # ammunition.c:549:3
	movl	$.L.str4, %esi
	movq	%r14, %rdx
	callq	ammunition_unsigned_integer_from_string
	movabsq	$-6142179492773647604, %rdi # imm = 0xAAC2984B4289AB0C
	xorl	%esi, %esi
	callq	_KPrepCall
	callq	_KEnqArgConst
	movl	$4, %edi
	.loc	1 550 3                 # ammunition.c:550:3
	movq	%rbx, %rsi
	movq	%r14, %rdx
	movq	%rbx, %rcx
	callq	ammunition_divide_unsigned_integer
	movl	$ammunition_overflow_bit, %edi
	movl	$123, %esi
	movl	$4, %edx
	callq	_KLoad0
	.loc	1 551 8                 # ammunition.c:551:8
	movl	ammunition_overflow_bit(%rip), %ebx
	movl	$389, %edi              # imm = 0x185
	movl	$123, %esi
	movl	$1, %edx
	callq	_KTimestamp1
	cmpl	$0, %ebx
	movl	$379, %esi              # imm = 0x17B
	movabsq	$7288950110865029193, %rbx # imm = 0x65278D81DFA77849
	jne	.LBB3_131
# BB#130:                               # %if.then717
	#DEBUG_VALUE: ammunition_arithm_test:result <- 0
	#DEBUG_VALUE: ammunition_arithm_test:i <- -2000
	movl	$389, %edi              # imm = 0x185
	callq	_KPushCDep
.Ltmp373:
	#DEBUG_VALUE: ammunition_arithm_test:result <- 1
	callq	_KPopCDep
	xorl	%esi, %esi
	movl	$1, %eax
	movq	%rax, -120(%rbp)        # 8-byte Spill
.LBB3_131:                              # %if.end718
.Ltmp374:
	#DEBUG_VALUE: ammunition_arithm_test:result <- 0
	#DEBUG_VALUE: ammunition_arithm_test:i <- -2000
	movl	$388, %r14d             # imm = 0x184
	movl	$388, %edi              # imm = 0x184
	movl	$389, %edx              # imm = 0x185
	callq	_KPhi1To1
.Ltmp375:
	#DEBUG_VALUE: ammunition_arithm_test:i <- 0
	movl	$388, %edi              # imm = 0x184
	movl	$388, %esi              # imm = 0x184
	xorl	%edx, %edx
	callq	_KTimestamp1
	movl	$125, %edi
	callq	_KInduction
	movl	$1, %esi
	movq	%rbx, %rdi
	callq	_KEnterRegion
	movabsq	$7038192993169820857, %rbx # imm = 0x61ACAF3CC287CCB9
	xorl	%r12d, %r12d
	jmp	.LBB3_132
	.align	16, 0x90
.LBB3_137:                              # %for.inc751
                                        #   in Loop: Header=BB3_132 Depth=1
	#DEBUG_VALUE: ammunition_arithm_test:result <- 0
	#DEBUG_VALUE: ammunition_arithm_test:i <- 0
	movl	$128, %r12d
	movl	$128, %edi
	callq	_KPushCDep
	movl	$391, %r14d             # imm = 0x187
	movl	$391, %edi              # imm = 0x187
	movl	$128, %edx
	movl	$394, %ecx              # imm = 0x18A
	movl	%r13d, %esi
	callq	_KPhi2To1
	.loc	1 554 27                # ammunition.c:554:27
.Ltmp376:
	incl	%r15d
.Ltmp377:
	#DEBUG_VALUE: ammunition_arithm_test:i <- R15D
	movl	$391, %edi              # imm = 0x187
	movl	$391, %esi              # imm = 0x187
	xorl	%edx, %edx
	callq	_KTimestamp1
	callq	_KPopCDep
	movl	$2, %esi
	movabsq	$7038192993169820857, %rbx # imm = 0x61ACAF3CC287CCB9
	movq	%rbx, %rdi
	callq	_KExitRegion
.Ltmp378:
.LBB3_132:                              # %for.cond719
                                        # =>This Inner Loop Header: Depth=1
	#DEBUG_VALUE: ammunition_arithm_test:result <- 0
	#DEBUG_VALUE: ammunition_arithm_test:i <- 0
	movl	$390, %edi              # imm = 0x186
	movl	%r14d, %esi
	movl	%r12d, %edx
	callq	_KPhi1To1
	movl	$1, %edi
	callq	_KWork
	movl	$128, %edi
	movl	$125, %esi
	movl	$1, %edx
	callq	_KTimestamp1
	movl	$125, %edi
	movl	$125, %esi
	xorl	%edx, %edx
	callq	_KTimestamp1
	movl	$390, %edi              # imm = 0x186
	movl	$390, %esi              # imm = 0x186
	xorl	%edx, %edx
	callq	_KTimestamp1
	movl	$390, %edi              # imm = 0x186
	movl	$128, %esi
	callq	_KPhiAddCond
	.loc	1 554 3 is_stmt 0       # ammunition.c:554:3
	cmpl	$4000, %r15d            # imm = 0xFA0
	je	.LBB3_138
# BB#133:                               # %for.body721
                                        #   in Loop: Header=BB3_132 Depth=1
	#DEBUG_VALUE: ammunition_arithm_test:result <- 0
	#DEBUG_VALUE: ammunition_arithm_test:i <- 0
	movl	$2, %esi
	movq	%rbx, %rdi
	callq	_KEnterRegion
	movl	$128, %edi
	callq	_KPushCDep
	xorl	%esi, %esi
	movabsq	$-9016928999711001660, %rdi # imm = 0x82DD6ED9374EB3C4
	callq	_KPrepCall
	movl	$125, %edi
	callq	_KEnqArg
	movl	$124, %edi
	callq	_KLinkReturn
	movl	$16, %edi
	callq	_KWork
	leaq	-64(%rbp), %rbx
	.loc	1 555 5 is_stmt 1       # ammunition.c:555:5
.Ltmp379:
	movq	%rbx, %rdi
	movl	%r15d, %esi
	callq	ammunition_sprintf_u
	xorl	%esi, %esi
	movabsq	$4807803644970330889, %rdi # imm = 0x42B8BFF13848EB09
	callq	_KPrepCall
	callq	_KEnqArgConst
	movl	$4, %edi
	.loc	1 556 5                 # ammunition.c:556:5
	movq	%rbx, %rsi
	leaq	-100(%rbp), %r12
	movq	%r12, %rdx
	callq	ammunition_unsigned_integer_from_string
	.loc	1 557 32                # ammunition.c:557:32
	movslq	%r15d, %rax
	imulq	$1717986919, %rax, %rax # imm = 0x66666667
	movq	%rax, %rcx
	sarq	$35, %rcx
	shrq	$63, %rax
	leal	1(%rcx,%rax), %r14d
	xorl	%esi, %esi
	movabsq	$8845681484599978020, %rdi # imm = 0x7AC22C719DD4E824
	callq	_KPrepCall
	movl	$127, %edi
	movl	$125, %esi
	movl	$11, %edx
	movl	$128, %ecx
	movl	$11, %r8d
	callq	_KTimestamp2
	movl	$127, %edi
	callq	_KEnqArg
	movl	$126, %edi
	callq	_KLinkReturn
	.loc	1 557 5 is_stmt 0       # ammunition.c:557:5
	movq	%rbx, %rdi
	movl	%r14d, %esi
	callq	ammunition_sprintf_u
	xorl	%esi, %esi
	movabsq	$-6762363643195047386, %rdi # imm = 0xA22742185557C226
	callq	_KPrepCall
	callq	_KEnqArgConst
	movl	$4, %edi
	.loc	1 558 5 is_stmt 1       # ammunition.c:558:5
	movq	%rbx, %rsi
	leaq	-104(%rbp), %rbx
	movq	%rbx, %rdx
	callq	ammunition_unsigned_integer_from_string
	xorl	%esi, %esi
	movabsq	$-1933981229397155011, %rdi # imm = 0xE5291E518B82633D
	callq	_KPrepCall
	callq	_KEnqArgConst
	movl	$4, %edi
	.loc	1 559 5                 # ammunition.c:559:5
	movq	%r12, %rsi
	movq	%rbx, %rdx
	movq	%r12, %rcx
	callq	ammunition_divide_unsigned_integer
	movl	$ammunition_overflow_bit, %edi
	movl	$129, %esi
	movl	$4, %edx
	callq	_KLoad0
	.loc	1 560 10                # ammunition.c:560:10
	movl	ammunition_overflow_bit(%rip), %ebx
	movl	$393, %edi              # imm = 0x189
	movl	$128, %esi
	movl	$1, %edx
	movl	$129, %ecx
	movl	$1, %r8d
	callq	_KTimestamp2
	callq	_KPopCDep
	cmpl	$0, %ebx
	movl	$390, %ebx              # imm = 0x186
	je	.LBB3_135
# BB#134:                               # %if.then738
                                        #   in Loop: Header=BB3_132 Depth=1
	#DEBUG_VALUE: ammunition_arithm_test:result <- 0
	#DEBUG_VALUE: ammunition_arithm_test:i <- 0
	movl	$393, %edi              # imm = 0x189
	callq	_KPushCDep
.Ltmp380:
	#DEBUG_VALUE: ammunition_arithm_test:result <- 1
	callq	_KPopCDep
	movl	$1, %eax
	movq	%rax, -120(%rbp)        # 8-byte Spill
	xorl	%ebx, %ebx
.LBB3_135:                              # %if.end739
                                        #   in Loop: Header=BB3_132 Depth=1
.Ltmp381:
	#DEBUG_VALUE: ammunition_arithm_test:result <- 0
	#DEBUG_VALUE: ammunition_arithm_test:i <- 0
	movl	$128, %edi
	callq	_KPushCDep
	movl	$392, %r13d             # imm = 0x188
	movl	$392, %edi              # imm = 0x188
	movl	$128, %edx
	movl	$393, %ecx              # imm = 0x189
	movl	%ebx, %esi
	callq	_KPhi2To1
	movl	$22, %edi
	callq	_KWork
	xorl	%esi, %esi
	movabsq	$4345293672596325850, %rdi # imm = 0x3C4D9592A7DB45DA
	callq	_KPrepCall
	callq	_KEnqArgConst
	movl	$4, %edi
	leaq	-100(%rbp), %rsi
	leaq	-96(%rbp), %rbx
	.loc	1 562 5                 # ammunition.c:562:5
	movq	%rbx, %rdx
	callq	ammunition_unsigned_integer_to_string
	xorl	%esi, %esi
	movabsq	$6729529478930849603, %rdi # imm = 0x5D64176811315F43
	callq	_KPrepCall
	movl	$130, %edi
	callq	_KLinkReturn
	.loc	1 563 10                # ammunition.c:563:10
.Ltmp382:
	movq	%rbx, %rdi
	callq	ammunition_atoi
	movl	%eax, %r12d
	.loc	1 563 35 is_stmt 0      # ammunition.c:563:35
	movl	%r15d, %eax
	cltd
	idivl	%r14d
	movl	%eax, %ebx
	movl	$392, %edi              # imm = 0x188
	movl	$392, %esi              # imm = 0x188
	xorl	%edx, %edx
	callq	_KTimestamp1
	movl	$1, (%rsp)
	movl	$394, %edi              # imm = 0x18A
	movl	$125, %esi
	movl	$22, %edx
	movl	$128, %ecx
	movl	$22, %r8d
	movl	$130, %r9d
	callq	_KTimestamp3
	callq	_KPopCDep
	.loc	1 563 10                # ammunition.c:563:10
	cmpl	%ebx, %r12d
	je	.LBB3_137
.Ltmp383:
# BB#136:                               # %if.then749
                                        #   in Loop: Header=BB3_132 Depth=1
	#DEBUG_VALUE: ammunition_arithm_test:result <- 0
	#DEBUG_VALUE: ammunition_arithm_test:i <- 0
	movl	$394, %edi              # imm = 0x18A
	callq	_KPushCDep
.Ltmp384:
	#DEBUG_VALUE: ammunition_arithm_test:result <- 1
	callq	_KPopCDep
	movl	$1, %eax
	movq	%rax, -120(%rbp)        # 8-byte Spill
	xorl	%r13d, %r13d
	jmp	.LBB3_137
.LBB3_138:                              # %for.cond719.pre_exit.for.end753
.Ltmp385:
	#DEBUG_VALUE: ammunition_arithm_test:result <- 0
	#DEBUG_VALUE: ammunition_arithm_test:i <- 0
	movl	$1, %esi
	movabsq	$7288950110865029193, %rdi # imm = 0x65278D81DFA77849
	callq	_KExitRegion
	movl	$5, %edi
	callq	_KWork
	xorl	%r15d, %r15d
	movabsq	$3353145068134969962, %rdi # imm = 0x2E88C3AC7A89B26A
	xorl	%esi, %esi
	callq	_KPrepCall
	leaq	-64(%rbp), %rdi
	leaq	-96(%rbp), %rsi
	leaq	-100(%rbp), %rbx
	leaq	-104(%rbp), %r14
	leaq	-110(%rbp), %r8
	.loc	1 568 3 is_stmt 1       # ammunition.c:568:3
	movq	%rbx, %rdx
	movq	%r14, %rcx
	callq	ammunition_reset_str_arithm
	movabsq	$4250152459684987677, %rdi # imm = 0x3AFB9324D0C6C31D
	xorl	%esi, %esi
	callq	_KPrepCall
	callq	_KEnqArgConst
	movl	$4, %edi
	.loc	1 570 3                 # ammunition.c:570:3
	movl	$.L.str6, %esi
	movq	%rbx, %rdx
	callq	ammunition_unsigned_integer_from_string
	movabsq	$6924800759419767380, %rdi # imm = 0x6019D599FD920A54
	xorl	%esi, %esi
	callq	_KPrepCall
	callq	_KEnqArgConst
	movl	$4, %edi
	.loc	1 571 3                 # ammunition.c:571:3
	movl	$.L.str4, %esi
	movq	%r14, %rdx
	callq	ammunition_unsigned_integer_from_string
	movabsq	$-1110807574232973216, %rdi # imm = 0xF0959E658407C060
	xorl	%esi, %esi
	callq	_KPrepCall
	callq	_KEnqArgConst
	movl	$4, %edi
	.loc	1 572 3                 # ammunition.c:572:3
	movq	%rbx, %rsi
	movq	%r14, %rdx
	movq	%rbx, %rcx
	callq	ammunition_unsigned_integer_remainder
	movl	$ammunition_overflow_bit, %edi
	movl	$131, %esi
	movl	$4, %edx
	callq	_KLoad0
	.loc	1 573 8                 # ammunition.c:573:8
	movl	ammunition_overflow_bit(%rip), %ebx
	movl	$396, %edi              # imm = 0x18C
	movl	$131, %esi
	movl	$1, %edx
	callq	_KTimestamp1
	cmpl	$0, %ebx
	movl	$390, %esi              # imm = 0x186
	movabsq	$-5380251725626454915, %rbx # imm = 0xB555818FB3DA4C7D
	jne	.LBB3_140
# BB#139:                               # %if.then767
	#DEBUG_VALUE: ammunition_arithm_test:result <- 0
	#DEBUG_VALUE: ammunition_arithm_test:i <- 0
	movl	$396, %edi              # imm = 0x18C
	callq	_KPushCDep
.Ltmp386:
	#DEBUG_VALUE: ammunition_arithm_test:result <- 1
	callq	_KPopCDep
	xorl	%esi, %esi
	movl	$1, %eax
	movq	%rax, -120(%rbp)        # 8-byte Spill
.LBB3_140:                              # %if.end768
.Ltmp387:
	#DEBUG_VALUE: ammunition_arithm_test:result <- 0
	#DEBUG_VALUE: ammunition_arithm_test:i <- 0
	movl	$395, %r14d             # imm = 0x18B
	movl	$395, %edi              # imm = 0x18B
	movl	$396, %edx              # imm = 0x18C
	callq	_KPhi1To1
	movl	$395, %edi              # imm = 0x18B
	movl	$395, %esi              # imm = 0x18B
	xorl	%edx, %edx
	callq	_KTimestamp1
	movl	$133, %edi
	callq	_KInduction
	movl	$1, %esi
	movq	%rbx, %rdi
	callq	_KEnterRegion
	movabsq	$1048534711192011806, %rbx # imm = 0xE8D24C3B344441E
	xorl	%r12d, %r12d
	jmp	.LBB3_141
	.align	16, 0x90
.LBB3_146:                              # %for.inc800
                                        #   in Loop: Header=BB3_141 Depth=1
	#DEBUG_VALUE: ammunition_arithm_test:result <- 0
	#DEBUG_VALUE: ammunition_arithm_test:i <- 0
	movl	$136, %r12d
	movl	$136, %edi
	callq	_KPushCDep
	movl	$398, %r14d             # imm = 0x18E
	movl	$398, %edi              # imm = 0x18E
	movl	$136, %edx
	movl	$401, %ecx              # imm = 0x191
	movl	%r13d, %esi
	callq	_KPhi2To1
	.loc	1 576 27                # ammunition.c:576:27
.Ltmp388:
	incl	%r15d
.Ltmp389:
	#DEBUG_VALUE: ammunition_arithm_test:i <- R15D
	movl	$398, %edi              # imm = 0x18E
	movl	$398, %esi              # imm = 0x18E
	xorl	%edx, %edx
	callq	_KTimestamp1
	callq	_KPopCDep
	movl	$2, %esi
	movabsq	$1048534711192011806, %rbx # imm = 0xE8D24C3B344441E
	movq	%rbx, %rdi
	callq	_KExitRegion
.Ltmp390:
.LBB3_141:                              # %for.cond769
                                        # =>This Inner Loop Header: Depth=1
	#DEBUG_VALUE: ammunition_arithm_test:result <- 0
	#DEBUG_VALUE: ammunition_arithm_test:i <- 0
	movl	$397, %edi              # imm = 0x18D
	movl	%r14d, %esi
	movl	%r12d, %edx
	callq	_KPhi1To1
	movl	$1, %edi
	callq	_KWork
	movl	$136, %edi
	movl	$133, %esi
	movl	$1, %edx
	callq	_KTimestamp1
	movl	$133, %edi
	movl	$133, %esi
	xorl	%edx, %edx
	callq	_KTimestamp1
	movl	$397, %edi              # imm = 0x18D
	movl	$136, %esi
	callq	_KPhiAddCond
	movl	$397, %edi              # imm = 0x18D
	movl	$397, %esi              # imm = 0x18D
	xorl	%edx, %edx
	callq	_KTimestamp1
	.loc	1 576 3 is_stmt 0       # ammunition.c:576:3
	cmpl	$4000, %r15d            # imm = 0xFA0
	je	.LBB3_147
# BB#142:                               # %for.body771
                                        #   in Loop: Header=BB3_141 Depth=1
	#DEBUG_VALUE: ammunition_arithm_test:result <- 0
	#DEBUG_VALUE: ammunition_arithm_test:i <- 0
	movl	$2, %esi
	movq	%rbx, %rdi
	callq	_KEnterRegion
	movl	$136, %edi
	callq	_KPushCDep
	xorl	%esi, %esi
	movabsq	$4026311496190105140, %rdi # imm = 0x37E054F9357B9634
	callq	_KPrepCall
	movl	$133, %edi
	callq	_KEnqArg
	movl	$132, %edi
	callq	_KLinkReturn
	movl	$16, %edi
	callq	_KWork
	leaq	-64(%rbp), %rbx
	.loc	1 577 5 is_stmt 1       # ammunition.c:577:5
.Ltmp391:
	movq	%rbx, %rdi
	movl	%r15d, %esi
	callq	ammunition_sprintf_u
	xorl	%esi, %esi
	movabsq	$3962838749223008396, %rdi # imm = 0x36FED4D8AD97388C
	callq	_KPrepCall
	callq	_KEnqArgConst
	movl	$4, %edi
	.loc	1 578 5                 # ammunition.c:578:5
	movq	%rbx, %rsi
	leaq	-100(%rbp), %r12
	movq	%r12, %rdx
	callq	ammunition_unsigned_integer_from_string
	.loc	1 579 32                # ammunition.c:579:32
	movslq	%r15d, %rax
	imulq	$1717986919, %rax, %rax # imm = 0x66666667
	movq	%rax, %rcx
	sarq	$35, %rcx
	shrq	$63, %rax
	leal	1(%rcx,%rax), %r14d
	xorl	%esi, %esi
	movabsq	$-4596977395858692175, %rdi # imm = 0xC034416A0F57A7B1
	callq	_KPrepCall
	movl	$135, %edi
	movl	$133, %esi
	movl	$11, %edx
	movl	$136, %ecx
	movl	$11, %r8d
	callq	_KTimestamp2
	movl	$135, %edi
	callq	_KEnqArg
	movl	$134, %edi
	callq	_KLinkReturn
	.loc	1 579 5 is_stmt 0       # ammunition.c:579:5
	movq	%rbx, %rdi
	movl	%r14d, %esi
	callq	ammunition_sprintf_u
	xorl	%esi, %esi
	movabsq	$-4234077783444586820, %rdi # imm = 0xC53D88B066697EBC
	callq	_KPrepCall
	callq	_KEnqArgConst
	movl	$4, %edi
	.loc	1 580 5 is_stmt 1       # ammunition.c:580:5
	movq	%rbx, %rsi
	leaq	-104(%rbp), %rbx
	movq	%rbx, %rdx
	callq	ammunition_unsigned_integer_from_string
	xorl	%esi, %esi
	movabsq	$7081435435297841381, %rdi # imm = 0x6246500264CAA0E5
	callq	_KPrepCall
	callq	_KEnqArgConst
	movl	$4, %edi
	.loc	1 581 5                 # ammunition.c:581:5
	movq	%r12, %rsi
	movq	%rbx, %rdx
	movq	%r12, %rcx
	callq	ammunition_unsigned_integer_remainder
	movl	$ammunition_overflow_bit, %edi
	movl	$137, %esi
	movl	$4, %edx
	callq	_KLoad0
	.loc	1 582 10                # ammunition.c:582:10
	movl	ammunition_overflow_bit(%rip), %ebx
	movl	$400, %edi              # imm = 0x190
	movl	$136, %esi
	movl	$1, %edx
	movl	$137, %ecx
	movl	$1, %r8d
	callq	_KTimestamp2
	callq	_KPopCDep
	cmpl	$0, %ebx
	movl	$397, %ebx              # imm = 0x18D
	je	.LBB3_144
# BB#143:                               # %if.then788
                                        #   in Loop: Header=BB3_141 Depth=1
	#DEBUG_VALUE: ammunition_arithm_test:result <- 0
	#DEBUG_VALUE: ammunition_arithm_test:i <- 0
	movl	$400, %edi              # imm = 0x190
	callq	_KPushCDep
.Ltmp392:
	#DEBUG_VALUE: ammunition_arithm_test:result <- 1
	callq	_KPopCDep
	movl	$1, %eax
	movq	%rax, -120(%rbp)        # 8-byte Spill
	xorl	%ebx, %ebx
.LBB3_144:                              # %if.end789
                                        #   in Loop: Header=BB3_141 Depth=1
.Ltmp393:
	#DEBUG_VALUE: ammunition_arithm_test:result <- 0
	#DEBUG_VALUE: ammunition_arithm_test:i <- 0
	movl	$136, %edi
	callq	_KPushCDep
	movl	$399, %r13d             # imm = 0x18F
	movl	$399, %edi              # imm = 0x18F
	movl	$136, %edx
	movl	$400, %ecx              # imm = 0x190
	movl	%ebx, %esi
	callq	_KPhi2To1
	movl	$22, %edi
	callq	_KWork
	xorl	%esi, %esi
	movabsq	$2409435294850563583, %rdi # imm = 0x217008A28ADB3DFF
	callq	_KPrepCall
	callq	_KEnqArgConst
	movl	$4, %edi
	leaq	-100(%rbp), %rsi
	leaq	-96(%rbp), %rbx
	.loc	1 584 5                 # ammunition.c:584:5
	movq	%rbx, %rdx
	callq	ammunition_unsigned_integer_to_string
	xorl	%esi, %esi
	movabsq	$-6002097028155890395, %rdi # imm = 0xACB4448DA9572525
	callq	_KPrepCall
	movl	$138, %edi
	callq	_KLinkReturn
	.loc	1 585 10                # ammunition.c:585:10
.Ltmp394:
	movq	%rbx, %rdi
	callq	ammunition_atoi
	movl	%eax, %r12d
	.loc	1 585 35 is_stmt 0      # ammunition.c:585:35
	movl	%r15d, %eax
	cltd
	idivl	%r14d
	movl	%edx, %ebx
	movl	$1, (%rsp)
	movl	$401, %edi              # imm = 0x191
	movl	$133, %esi
	movl	$22, %edx
	movl	$136, %ecx
	movl	$22, %r8d
	movl	$138, %r9d
	callq	_KTimestamp3
	movl	$399, %edi              # imm = 0x18F
	movl	$399, %esi              # imm = 0x18F
	xorl	%edx, %edx
	callq	_KTimestamp1
	callq	_KPopCDep
	.loc	1 585 10                # ammunition.c:585:10
	cmpl	%ebx, %r12d
	je	.LBB3_146
.Ltmp395:
# BB#145:                               # %if.then798
                                        #   in Loop: Header=BB3_141 Depth=1
	#DEBUG_VALUE: ammunition_arithm_test:result <- 0
	#DEBUG_VALUE: ammunition_arithm_test:i <- 0
	movl	$401, %edi              # imm = 0x191
	callq	_KPushCDep
.Ltmp396:
	#DEBUG_VALUE: ammunition_arithm_test:result <- 1
	callq	_KPopCDep
	movl	$1, %eax
	movq	%rax, -120(%rbp)        # 8-byte Spill
	xorl	%r13d, %r13d
	jmp	.LBB3_146
.LBB3_147:                              # %for.cond769.pre_exit.for.end802
.Ltmp397:
	#DEBUG_VALUE: ammunition_arithm_test:result <- 0
	#DEBUG_VALUE: ammunition_arithm_test:i <- 0
	movl	$1, %esi
	movabsq	$-5380251725626454915, %rdi # imm = 0xB555818FB3DA4C7D
	callq	_KExitRegion
	movl	$5, %edi
	callq	_KWork
	movabsq	$5034721253736666327, %rdi # imm = 0x45DEEC4E201554D7
	xorl	%esi, %esi
	callq	_KPrepCall
	leaq	-64(%rbp), %rdi
	leaq	-96(%rbp), %r14
	leaq	-100(%rbp), %rbx
	leaq	-104(%rbp), %rcx
	leaq	-110(%rbp), %r8
	.loc	1 590 3 is_stmt 1       # ammunition.c:590:3
	movq	%r14, %rsi
	movq	%rbx, %rdx
	callq	ammunition_reset_str_arithm
	movabsq	$1038955737946005307, %rdi # imm = 0xE6B1CBD31A01F3B
	xorl	%esi, %esi
	callq	_KPrepCall
	callq	_KEnqArgConst
	movl	$4, %edi
	.loc	1 592 3                 # ammunition.c:592:3
	movl	$.L.str7, %esi
	movq	%rbx, %rdx
	callq	ammunition_unsigned_integer_from_string
	movabsq	$-5187281301028738795, %rdi # imm = 0xB8031323DE27E915
	xorl	%esi, %esi
	callq	_KPrepCall
	callq	_KEnqArgConst
	callq	_KEnqArgConst
	movl	$4, %edi
	xorl	%edx, %edx
	.loc	1 593 3                 # ammunition.c:593:3
	movq	%rbx, %rsi
	movq	%rbx, %rcx
	callq	ammunition_unsigned_integer_shift_right
	movabsq	$8465155808561931860, %rdi # imm = 0x757A465B89AB2654
	xorl	%esi, %esi
	callq	_KPrepCall
	callq	_KEnqArgConst
	movl	$4, %edi
	.loc	1 594 3                 # ammunition.c:594:3
	movq	%rbx, %rsi
	movq	%r14, %rdx
	callq	ammunition_unsigned_integer_to_string
	movl	$ammunition_overflow_bit, %edi
	movl	$139, %esi
	movl	$4, %edx
	callq	_KLoad0
	.loc	1 595 8                 # ammunition.c:595:8
	movl	ammunition_overflow_bit(%rip), %ebx
	movl	$403, %edi              # imm = 0x193
	movl	$139, %esi
	movl	$1, %edx
	callq	_KTimestamp1
	cmpl	$0, %ebx
	movq	-120(%rbp), %r12        # 8-byte Reload
	jne	.LBB3_149
# BB#148:                               # %lor.lhs.false
	#DEBUG_VALUE: ammunition_arithm_test:result <- 0
	#DEBUG_VALUE: ammunition_arithm_test:i <- 0
	movl	$403, %edi              # imm = 0x193
	callq	_KPushCDep
	movl	$1, %edi
	callq	_KWork
	movabsq	$8034459764693943594, %rdi # imm = 0x6F8022966CC0452A
	xorl	%esi, %esi
	callq	_KPrepCall
	movl	$140, %edi
	callq	_KLinkReturn
	leaq	-96(%rbp), %rdi
	.loc	1 595 35 is_stmt 0      # ammunition.c:595:35
.Ltmp398:
	movl	$.L.str7, %esi
	callq	ammunition_strcmp
	movl	%eax, %ebx
	movl	$595, %edi              # imm = 0x253
	movl	$139, %esi
	movl	$2, %edx
	movl	$140, %ecx
	movl	$1, %r8d
	callq	_KTimestamp2
	callq	_KPopCDep
	testl	%ebx, %ebx
	movl	$397, %esi              # imm = 0x18D
	je	.LBB3_150
.Ltmp399:
.LBB3_149:                              # %if.then819
	#DEBUG_VALUE: ammunition_arithm_test:result <- 0
	#DEBUG_VALUE: ammunition_arithm_test:i <- 0
	movl	$403, %edi              # imm = 0x193
	callq	_KPushCDep
.Ltmp400:
	#DEBUG_VALUE: ammunition_arithm_test:result <- 1
	callq	_KPopCDep
	xorl	%esi, %esi
	movl	$1, %r12d
.LBB3_150:                              # %if.end820
.Ltmp401:
	#DEBUG_VALUE: ammunition_arithm_test:result <- 0
	#DEBUG_VALUE: ammunition_arithm_test:i <- 0
	movl	$402, %r15d             # imm = 0x192
	movl	$402, %edi              # imm = 0x192
	movl	$403, %edx              # imm = 0x193
                                        # kill: ESI<def> ESI<kill> RSI<kill>
	callq	_KPhi1To1
	movl	$5, %edi
	callq	_KWork
	movabsq	$-2241194811607197634, %rdi # imm = 0xE0E5AD3175B4583E
	xorl	%esi, %esi
	callq	_KPrepCall
	callq	_KEnqArgConst
	leaq	-100(%rbp), %rbx
	movl	$4, %edi
	.loc	1 597 3 is_stmt 1       # ammunition.c:597:3
	movl	$.L.str7, %esi
	movq	%rbx, %rdx
	callq	ammunition_unsigned_integer_from_string
	movabsq	$-8328491757375045168, %rdi # imm = 0x8C6B40DF76E441D0
	xorl	%esi, %esi
	callq	_KPrepCall
	callq	_KEnqArgConst
	callq	_KEnqArgConst
	movl	$4, %edi
	movl	$32, %edx
	.loc	1 598 3                 # ammunition.c:598:3
	movq	%rbx, %rsi
	movq	%rbx, %rcx
	callq	ammunition_unsigned_integer_shift_right
	movabsq	$-8614801118406112146, %rdi # imm = 0x88721406A6C40C6E
	xorl	%esi, %esi
	callq	_KPrepCall
	callq	_KEnqArgConst
	leaq	-96(%rbp), %rdx
	movl	$4, %edi
	.loc	1 599 3                 # ammunition.c:599:3
	movq	%rbx, %rsi
	callq	ammunition_unsigned_integer_to_string
	movl	$ammunition_overflow_bit, %edi
	movl	$141, %esi
	movl	$4, %edx
	callq	_KLoad0
	.loc	1 600 8                 # ammunition.c:600:8
	movl	ammunition_overflow_bit(%rip), %ebx
	movl	$405, %edi              # imm = 0x195
	movl	$141, %esi
	movl	$1, %edx
	callq	_KTimestamp1
	movl	$402, %edi              # imm = 0x192
	movl	$402, %esi              # imm = 0x192
	xorl	%edx, %edx
	callq	_KTimestamp1
	cmpl	$0, %ebx
	je	.LBB3_152
# BB#151:                               # %lor.lhs.false829
	#DEBUG_VALUE: ammunition_arithm_test:result <- 0
	#DEBUG_VALUE: ammunition_arithm_test:i <- 0
	movl	$405, %edi              # imm = 0x195
	callq	_KPushCDep
	movl	$1, %edi
	callq	_KWork
	movabsq	$-7391798503935929769, %rdi # imm = 0x996B0E6C91A29257
	xorl	%esi, %esi
	callq	_KPrepCall
	movl	$142, %edi
	callq	_KLinkReturn
	leaq	-96(%rbp), %rdi
	.loc	1 600 36 is_stmt 0      # ammunition.c:600:36
.Ltmp402:
	movl	$.L.str4, %esi
	callq	ammunition_strcmp
	movl	%eax, %ebx
	movl	$596, %edi              # imm = 0x254
	movl	$141, %esi
	movl	$2, %edx
	movl	$142, %ecx
	movl	$1, %r8d
	callq	_KTimestamp2
	callq	_KPopCDep
	testl	%ebx, %ebx
	je	.LBB3_153
.Ltmp403:
.LBB3_152:                              # %if.then833
	#DEBUG_VALUE: ammunition_arithm_test:result <- 0
	#DEBUG_VALUE: ammunition_arithm_test:i <- 0
	movl	$405, %edi              # imm = 0x195
	callq	_KPushCDep
.Ltmp404:
	#DEBUG_VALUE: ammunition_arithm_test:result <- 1
	callq	_KPopCDep
	xorl	%r15d, %r15d
	movl	$1, %r12d
.LBB3_153:                              # %if.end834
.Ltmp405:
	#DEBUG_VALUE: ammunition_arithm_test:result <- 0
	#DEBUG_VALUE: ammunition_arithm_test:i <- 0
	movl	$404, %r14d             # imm = 0x194
	movl	$404, %edi              # imm = 0x194
	movl	$405, %edx              # imm = 0x195
	movl	%r15d, %esi
	callq	_KPhi1To1
	movl	$5, %edi
	callq	_KWork
	movabsq	$-7335482160816561425, %rdi # imm = 0x9A3321D6FC5062EF
	xorl	%esi, %esi
	callq	_KPrepCall
	callq	_KEnqArgConst
	leaq	-100(%rbp), %rbx
	movl	$4, %edi
	.loc	1 602 3 is_stmt 1       # ammunition.c:602:3
	movl	$.L.str7, %esi
	movq	%rbx, %rdx
	callq	ammunition_unsigned_integer_from_string
	movabsq	$4218504069672783563, %rdi # imm = 0x3A8B2319CC62CECB
	xorl	%esi, %esi
	callq	_KPrepCall
	callq	_KEnqArgConst
	callq	_KEnqArgConst
	movl	$4, %edi
	movl	$8, %edx
	.loc	1 603 3                 # ammunition.c:603:3
	movq	%rbx, %rsi
	movq	%rbx, %rcx
	callq	ammunition_unsigned_integer_shift_right
	movabsq	$-3404916437658346585, %rdi # imm = 0xD0BF4E8A3B7C5BA7
	xorl	%esi, %esi
	callq	_KPrepCall
	callq	_KEnqArgConst
	leaq	-96(%rbp), %rdx
	movl	$4, %edi
	.loc	1 604 3                 # ammunition.c:604:3
	movq	%rbx, %rsi
	callq	ammunition_unsigned_integer_to_string
	movl	$ammunition_overflow_bit, %edi
	movl	$143, %esi
	movl	$4, %edx
	callq	_KLoad0
	.loc	1 605 8                 # ammunition.c:605:8
	movl	ammunition_overflow_bit(%rip), %ebx
	movl	$407, %edi              # imm = 0x197
	movl	$143, %esi
	movl	$1, %edx
	callq	_KTimestamp1
	movl	$404, %edi              # imm = 0x194
	movl	$404, %esi              # imm = 0x194
	xorl	%edx, %edx
	callq	_KTimestamp1
	cmpl	$0, %ebx
	je	.LBB3_155
# BB#154:                               # %lor.lhs.false843
	#DEBUG_VALUE: ammunition_arithm_test:result <- 0
	#DEBUG_VALUE: ammunition_arithm_test:i <- 0
	movl	$407, %edi              # imm = 0x197
	callq	_KPushCDep
	movl	$1, %edi
	callq	_KWork
	movabsq	$-7341989717942946836, %rdi # imm = 0x9A1C03404570B3EC
	xorl	%esi, %esi
	callq	_KPrepCall
	movl	$144, %edi
	callq	_KLinkReturn
	leaq	-96(%rbp), %rdi
	.loc	1 605 36 is_stmt 0      # ammunition.c:605:36
.Ltmp406:
	movl	$.L.str8, %esi
	callq	ammunition_strcmp
	movl	%eax, %ebx
	movl	$597, %edi              # imm = 0x255
	movl	$143, %esi
	movl	$2, %edx
	movl	$144, %ecx
	movl	$1, %r8d
	callq	_KTimestamp2
	callq	_KPopCDep
	testl	%ebx, %ebx
	je	.LBB3_156
.Ltmp407:
.LBB3_155:                              # %if.then847
	#DEBUG_VALUE: ammunition_arithm_test:result <- 0
	#DEBUG_VALUE: ammunition_arithm_test:i <- 0
	movl	$407, %edi              # imm = 0x197
	callq	_KPushCDep
.Ltmp408:
	#DEBUG_VALUE: ammunition_arithm_test:result <- 1
	callq	_KPopCDep
	xorl	%r14d, %r14d
	movl	$1, %r12d
.LBB3_156:                              # %if.end848
.Ltmp409:
	#DEBUG_VALUE: ammunition_arithm_test:result <- 0
	#DEBUG_VALUE: ammunition_arithm_test:i <- 0
	movl	$406, %r15d             # imm = 0x196
	movl	$406, %edi              # imm = 0x196
	movl	$407, %edx              # imm = 0x197
	movl	%r14d, %esi
	callq	_KPhi1To1
	movl	$5, %edi
	callq	_KWork
	movabsq	$-4423523208275642546, %rdi # imm = 0xC29C7D143308B74E
	xorl	%esi, %esi
	callq	_KPrepCall
	callq	_KEnqArgConst
	leaq	-100(%rbp), %rbx
	movl	$4, %edi
	.loc	1 607 3 is_stmt 1       # ammunition.c:607:3
	movl	$.L.str9, %esi
	movq	%rbx, %rdx
	callq	ammunition_unsigned_integer_from_string
	movabsq	$5481866438699407249, %rdi # imm = 0x4C13807B58D05791
	xorl	%esi, %esi
	callq	_KPrepCall
	callq	_KEnqArgConst
	callq	_KEnqArgConst
	movl	$4, %edi
	movl	$13, %edx
	.loc	1 608 3                 # ammunition.c:608:3
	movq	%rbx, %rsi
	movq	%rbx, %rcx
	callq	ammunition_unsigned_integer_shift_right
	movabsq	$4689997269151793923, %rdi # imm = 0x411637AAE9584303
	xorl	%esi, %esi
	callq	_KPrepCall
	callq	_KEnqArgConst
	leaq	-96(%rbp), %rdx
	movl	$4, %edi
	.loc	1 609 3                 # ammunition.c:609:3
	movq	%rbx, %rsi
	callq	ammunition_unsigned_integer_to_string
	movl	$ammunition_overflow_bit, %edi
	movl	$145, %esi
	movl	$4, %edx
	callq	_KLoad0
	.loc	1 610 8                 # ammunition.c:610:8
	movl	ammunition_overflow_bit(%rip), %ebx
	movl	$409, %edi              # imm = 0x199
	movl	$145, %esi
	movl	$1, %edx
	callq	_KTimestamp1
	movl	$406, %edi              # imm = 0x196
	movl	$406, %esi              # imm = 0x196
	xorl	%edx, %edx
	callq	_KTimestamp1
	cmpl	$0, %ebx
	je	.LBB3_158
# BB#157:                               # %lor.lhs.false857
	#DEBUG_VALUE: ammunition_arithm_test:result <- 0
	#DEBUG_VALUE: ammunition_arithm_test:i <- 0
	movl	$409, %edi              # imm = 0x199
	callq	_KPushCDep
	movl	$1, %edi
	callq	_KWork
	movabsq	$5193446103794594703, %rdi # imm = 0x4812D3B720D0338F
	xorl	%esi, %esi
	callq	_KPrepCall
	movl	$146, %edi
	callq	_KLinkReturn
	leaq	-96(%rbp), %rdi
	.loc	1 610 36 is_stmt 0      # ammunition.c:610:36
.Ltmp410:
	movl	$.L.str10, %esi
	callq	ammunition_strcmp
	movl	%eax, %ebx
	movl	$598, %edi              # imm = 0x256
	movl	$145, %esi
	movl	$2, %edx
	movl	$146, %ecx
	movl	$1, %r8d
	callq	_KTimestamp2
	callq	_KPopCDep
	testl	%ebx, %ebx
	je	.LBB3_159
.Ltmp411:
.LBB3_158:                              # %if.then861
	#DEBUG_VALUE: ammunition_arithm_test:result <- 0
	#DEBUG_VALUE: ammunition_arithm_test:i <- 0
	movl	$409, %edi              # imm = 0x199
	callq	_KPushCDep
.Ltmp412:
	#DEBUG_VALUE: ammunition_arithm_test:result <- 1
	callq	_KPopCDep
	xorl	%r15d, %r15d
	movl	$1, %r12d
.LBB3_159:                              # %if.end862
.Ltmp413:
	#DEBUG_VALUE: ammunition_arithm_test:result <- 0
	#DEBUG_VALUE: ammunition_arithm_test:i <- 0
	movl	$408, %r14d             # imm = 0x198
	movl	$408, %edi              # imm = 0x198
	movl	$409, %edx              # imm = 0x199
	movl	%r15d, %esi
	callq	_KPhi1To1
	movl	$5, %edi
	callq	_KWork
	movabsq	$-5183530126112783441, %rdi # imm = 0xB81066D0568303AF
	xorl	%esi, %esi
	callq	_KPrepCall
	callq	_KEnqArgConst
	leaq	-100(%rbp), %rbx
	movl	$4, %edi
	.loc	1 612 3 is_stmt 1       # ammunition.c:612:3
	movl	$.L.str9, %esi
	movq	%rbx, %rdx
	callq	ammunition_unsigned_integer_from_string
	movabsq	$-342611135845084054, %rdi # imm = 0xFB3ECCFCB7DC546A
	xorl	%esi, %esi
	callq	_KPrepCall
	callq	_KEnqArgConst
	callq	_KEnqArgConst
	movl	$4, %edi
	movl	$-13, %edx
	.loc	1 613 3                 # ammunition.c:613:3
	movq	%rbx, %rsi
	movq	%rbx, %rcx
	callq	ammunition_unsigned_integer_shift_left
	movabsq	$-5139876741883860973, %rdi # imm = 0xB8AB7D55E2B86813
	xorl	%esi, %esi
	callq	_KPrepCall
	callq	_KEnqArgConst
	leaq	-96(%rbp), %rdx
	movl	$4, %edi
	.loc	1 614 3                 # ammunition.c:614:3
	movq	%rbx, %rsi
	callq	ammunition_unsigned_integer_to_string
	movl	$ammunition_overflow_bit, %edi
	movl	$147, %esi
	movl	$4, %edx
	callq	_KLoad0
	.loc	1 615 8                 # ammunition.c:615:8
	movl	ammunition_overflow_bit(%rip), %ebx
	movl	$411, %edi              # imm = 0x19B
	movl	$147, %esi
	movl	$1, %edx
	callq	_KTimestamp1
	movl	$408, %edi              # imm = 0x198
	movl	$408, %esi              # imm = 0x198
	xorl	%edx, %edx
	callq	_KTimestamp1
	cmpl	$0, %ebx
	je	.LBB3_161
# BB#160:                               # %lor.lhs.false871
	#DEBUG_VALUE: ammunition_arithm_test:result <- 0
	#DEBUG_VALUE: ammunition_arithm_test:i <- 0
	movl	$411, %edi              # imm = 0x19B
	callq	_KPushCDep
	movl	$1, %edi
	callq	_KWork
	movabsq	$-5890402917173002263, %rdi # imm = 0xAE4115C169FA7FE9
	xorl	%esi, %esi
	callq	_KPrepCall
	movl	$148, %edi
	callq	_KLinkReturn
	leaq	-96(%rbp), %rdi
	.loc	1 615 36 is_stmt 0      # ammunition.c:615:36
.Ltmp414:
	movl	$.L.str10, %esi
	callq	ammunition_strcmp
	movl	%eax, %ebx
	movl	$599, %edi              # imm = 0x257
	movl	$147, %esi
	movl	$2, %edx
	movl	$148, %ecx
	movl	$1, %r8d
	callq	_KTimestamp2
	callq	_KPopCDep
	testl	%ebx, %ebx
	je	.LBB3_162
.Ltmp415:
.LBB3_161:                              # %if.then875
	#DEBUG_VALUE: ammunition_arithm_test:result <- 0
	#DEBUG_VALUE: ammunition_arithm_test:i <- 0
	movl	$411, %edi              # imm = 0x19B
	callq	_KPushCDep
.Ltmp416:
	#DEBUG_VALUE: ammunition_arithm_test:result <- 1
	callq	_KPopCDep
	xorl	%r14d, %r14d
	movl	$1, %r12d
.LBB3_162:                              # %if.end876
.Ltmp417:
	#DEBUG_VALUE: ammunition_arithm_test:result <- 0
	#DEBUG_VALUE: ammunition_arithm_test:i <- 0
	movl	$410, %r15d             # imm = 0x19A
	movl	$410, %edi              # imm = 0x19A
	movl	$411, %edx              # imm = 0x19B
	movl	%r14d, %esi
	callq	_KPhi1To1
	movl	$5, %edi
	callq	_KWork
	movabsq	$-7572045024883486311, %rdi # imm = 0x96EAB12B148E5199
	xorl	%esi, %esi
	callq	_KPrepCall
	leaq	-64(%rbp), %rdi
	leaq	-96(%rbp), %r14
	leaq	-100(%rbp), %rbx
	leaq	-104(%rbp), %rcx
	leaq	-110(%rbp), %r8
	.loc	1 619 3 is_stmt 1       # ammunition.c:619:3
	movq	%r14, %rsi
	movq	%rbx, %rdx
	callq	ammunition_reset_str_arithm
	movabsq	$1700025998047664485, %rdi # imm = 0x1797B4A35A8F5965
	xorl	%esi, %esi
	callq	_KPrepCall
	callq	_KEnqArgConst
	movl	$4, %edi
	.loc	1 621 3                 # ammunition.c:621:3
	movl	$.L.str7, %esi
	movq	%rbx, %rdx
	callq	ammunition_integer_from_string
	movabsq	$-4489252479966670521, %rdi # imm = 0xC1B2F8A7908B9147
	xorl	%esi, %esi
	callq	_KPrepCall
	callq	_KEnqArgConst
	callq	_KEnqArgConst
	movl	$4, %edi
	xorl	%edx, %edx
	.loc	1 622 3                 # ammunition.c:622:3
	movq	%rbx, %rsi
	movq	%rbx, %rcx
	callq	ammunition_integer_shift_right
	movabsq	$-8522821840983662295, %rdi # imm = 0x89B8DAB1043A6129
	xorl	%esi, %esi
	callq	_KPrepCall
	callq	_KEnqArgConst
	movl	$4, %edi
	.loc	1 623 3                 # ammunition.c:623:3
	movq	%rbx, %rsi
	movq	%r14, %rdx
	callq	ammunition_integer_to_string
	movl	$ammunition_overflow_bit, %edi
	movl	$149, %esi
	movl	$4, %edx
	callq	_KLoad0
	.loc	1 624 8                 # ammunition.c:624:8
	movl	ammunition_overflow_bit(%rip), %ebx
	movl	$413, %edi              # imm = 0x19D
	movl	$149, %esi
	movl	$1, %edx
	callq	_KTimestamp1
	movl	$410, %edi              # imm = 0x19A
	movl	$410, %esi              # imm = 0x19A
	xorl	%edx, %edx
	callq	_KTimestamp1
	cmpl	$0, %ebx
	jne	.LBB3_164
# BB#163:                               # %lor.lhs.false890
	#DEBUG_VALUE: ammunition_arithm_test:result <- 0
	#DEBUG_VALUE: ammunition_arithm_test:i <- 0
	movl	$413, %edi              # imm = 0x19D
	callq	_KPushCDep
	movl	$1, %edi
	callq	_KWork
	movabsq	$-4889537160947192593, %rdi # imm = 0xBC24DFDBA5ABACEF
	xorl	%esi, %esi
	callq	_KPrepCall
	movl	$150, %edi
	callq	_KLinkReturn
	leaq	-96(%rbp), %rdi
	.loc	1 624 35 is_stmt 0      # ammunition.c:624:35
.Ltmp418:
	movl	$.L.str7, %esi
	callq	ammunition_strcmp
	movl	%eax, %ebx
	movl	$600, %edi              # imm = 0x258
	movl	$149, %esi
	movl	$2, %edx
	movl	$150, %ecx
	movl	$1, %r8d
	callq	_KTimestamp2
	callq	_KPopCDep
	testl	%ebx, %ebx
	je	.LBB3_165
.Ltmp419:
.LBB3_164:                              # %if.then894
	#DEBUG_VALUE: ammunition_arithm_test:result <- 0
	#DEBUG_VALUE: ammunition_arithm_test:i <- 0
	movl	$413, %edi              # imm = 0x19D
	callq	_KPushCDep
.Ltmp420:
	#DEBUG_VALUE: ammunition_arithm_test:result <- 1
	callq	_KPopCDep
	xorl	%r15d, %r15d
	movl	$1, %r12d
.LBB3_165:                              # %if.end895
.Ltmp421:
	#DEBUG_VALUE: ammunition_arithm_test:result <- 0
	#DEBUG_VALUE: ammunition_arithm_test:i <- 0
	movq	%r12, %r13
	movl	$412, %r12d             # imm = 0x19C
	movl	$412, %edi              # imm = 0x19C
	movl	$413, %edx              # imm = 0x19D
	movl	%r15d, %esi
	callq	_KPhi1To1
	movl	$5, %edi
	callq	_KWork
	movabsq	$3938954442727598968, %rdi # imm = 0x36A9FA323939AB78
	xorl	%esi, %esi
	callq	_KPrepCall
	callq	_KEnqArgConst
	leaq	-100(%rbp), %rbx
	movl	$4, %edi
	.loc	1 626 3 is_stmt 1       # ammunition.c:626:3
	movl	$.L.str7, %esi
	movq	%rbx, %rdx
	callq	ammunition_integer_from_string
	movabsq	$-7198468239337326336, %rdi # imm = 0x9C19E746835DF900
	xorl	%esi, %esi
	callq	_KPrepCall
	callq	_KEnqArgConst
	callq	_KEnqArgConst
	movl	$4, %edi
	movl	$32, %edx
	.loc	1 627 3                 # ammunition.c:627:3
	movq	%rbx, %rsi
	movq	%rbx, %rcx
	callq	ammunition_integer_shift_right
	movabsq	$-6012782523173145718, %rdi # imm = 0xAC8E4E26FA96738A
	xorl	%esi, %esi
	callq	_KPrepCall
	callq	_KEnqArgConst
	leaq	-96(%rbp), %rdx
	movl	$4, %edi
	.loc	1 628 3                 # ammunition.c:628:3
	movq	%rbx, %rsi
	callq	ammunition_integer_to_string
	movl	$ammunition_overflow_bit, %edi
	movl	$151, %esi
	movl	$4, %edx
	callq	_KLoad0
	.loc	1 629 8                 # ammunition.c:629:8
	movl	ammunition_overflow_bit(%rip), %ebx
	movl	$415, %edi              # imm = 0x19F
	movl	$151, %esi
	movl	$1, %edx
	callq	_KTimestamp1
	movl	$412, %edi              # imm = 0x19C
	movl	$412, %esi              # imm = 0x19C
	xorl	%edx, %edx
	callq	_KTimestamp1
	cmpl	$0, %ebx
	je	.LBB3_167
# BB#166:                               # %lor.lhs.false904
	#DEBUG_VALUE: ammunition_arithm_test:result <- 0
	#DEBUG_VALUE: ammunition_arithm_test:i <- 0
	movl	$415, %edi              # imm = 0x19F
	callq	_KPushCDep
	movl	$1, %edi
	callq	_KWork
	movabsq	$-3210616730405927545, %rdi # imm = 0xD3719918223A8587
	xorl	%esi, %esi
	callq	_KPrepCall
	movl	$152, %edi
	callq	_KLinkReturn
	leaq	-96(%rbp), %rdi
	.loc	1 629 36 is_stmt 0      # ammunition.c:629:36
.Ltmp422:
	movl	$.L.str4, %esi
	callq	ammunition_strcmp
	movl	%eax, %ebx
	movl	$601, %edi              # imm = 0x259
	movl	$151, %esi
	movl	$2, %edx
	movl	$152, %ecx
	movl	$1, %r8d
	callq	_KTimestamp2
	callq	_KPopCDep
	testl	%ebx, %ebx
	je	.LBB3_168
.Ltmp423:
.LBB3_167:                              # %if.then908
	#DEBUG_VALUE: ammunition_arithm_test:result <- 0
	#DEBUG_VALUE: ammunition_arithm_test:i <- 0
	movl	$415, %edi              # imm = 0x19F
	callq	_KPushCDep
.Ltmp424:
	#DEBUG_VALUE: ammunition_arithm_test:result <- 1
	callq	_KPopCDep
	xorl	%r12d, %r12d
	movl	$1, %r13d
.LBB3_168:                              # %if.end909
.Ltmp425:
	#DEBUG_VALUE: ammunition_arithm_test:result <- 0
	#DEBUG_VALUE: ammunition_arithm_test:i <- 0
	movl	$414, %r14d             # imm = 0x19E
	movl	$414, %edi              # imm = 0x19E
	movl	$415, %edx              # imm = 0x19F
	movl	%r12d, %esi
	callq	_KPhi1To1
	movl	$5, %edi
	callq	_KWork
	movabsq	$-8760136335411496705, %rdi # imm = 0x866DBE6A87CE38FF
	xorl	%esi, %esi
	callq	_KPrepCall
	callq	_KEnqArgConst
	leaq	-100(%rbp), %rbx
	movl	$4, %edi
	.loc	1 631 3 is_stmt 1       # ammunition.c:631:3
	movl	$.L.str7, %esi
	movq	%rbx, %rdx
	callq	ammunition_integer_from_string
	movabsq	$-848983720500521196, %rdi # imm = 0xF437CDCDE77A1714
	xorl	%esi, %esi
	callq	_KPrepCall
	callq	_KEnqArgConst
	callq	_KEnqArgConst
	movl	$4, %edi
	movl	$8, %edx
	.loc	1 632 3                 # ammunition.c:632:3
	movq	%rbx, %rsi
	movq	%rbx, %rcx
	callq	ammunition_integer_shift_right
	movabsq	$-2172482678968803828, %rdi # imm = 0xE1D9CA8387601E0C
	xorl	%esi, %esi
	callq	_KPrepCall
	callq	_KEnqArgConst
	leaq	-96(%rbp), %rdx
	movl	$4, %edi
