	.text
	.file	"bits.simplifycfg.mem2reg.indvars.elimsinglephis.criticalpath.regioninstrument.renamemain.O3.bc"
	.text
	.globl	ammunition_is_zero_bit_string
	.align	16, 0x90
	.type	ammunition_is_zero_bit_string,@function
ammunition_is_zero_bit_string:          # @ammunition_is_zero_bit_string
.Lfunc_begin0:
	.file	1 "bits.c"
	.loc	1 27 0                  # bits.c:27:0
	.cfi_startproc
# BB#0:                                 # %entry
	pushq	%rbp
.Ltmp0:
	.cfi_def_cfa_offset 16
.Ltmp1:
	.cfi_offset %rbp, -16
	movq	%rsp, %rbp
.Ltmp2:
	.cfi_def_cfa_register %rbp
	pushq	%r15
	pushq	%r14
	pushq	%r13
	pushq	%r12
	pushq	%rbx
	subq	$56, %rsp
.Ltmp3:
	.cfi_offset %rbx, -56
.Ltmp4:
	.cfi_offset %r12, -48
.Ltmp5:
	.cfi_offset %r13, -40
.Ltmp6:
	.cfi_offset %r14, -32
.Ltmp7:
	.cfi_offset %r15, -24
	#DEBUG_VALUE: ammunition_is_zero_bit_string:start_byte <- RDI
	#DEBUG_VALUE: ammunition_is_zero_bit_string:bit_displacement <- ESI
	#DEBUG_VALUE: ammunition_is_zero_bit_string:bit_length <- EDX
.Ltmp8:
	#DEBUG_VALUE: ammunition_is_zero_bit_string:current_byte <- RDI
	movl	%edx, %r13d
.Ltmp9:
	#DEBUG_VALUE: ammunition_is_zero_bit_string:bit_length <- R13D
	movl	%esi, %r14d
.Ltmp10:
	#DEBUG_VALUE: ammunition_is_zero_bit_string:bit_displacement <- R14D
	movq	%rdi, %r12
.Ltmp11:
	#DEBUG_VALUE: ammunition_is_zero_bit_string:current_byte <- R12
	#DEBUG_VALUE: ammunition_is_zero_bit_string:start_byte <- R12
	movabsq	$637341436849372043, %rbx # imm = 0x8D84AA8F80B3B8B
	xorl	%esi, %esi
	movq	%rbx, %rdi
	callq	_KEnterRegion
	movl	$28, %edi
	movl	$2, %esi
	callq	_KPrepRTable
	movl	$1, %r15d
	movl	$1, %edi
	callq	_KWork
	movl	$2, %edi
	callq	_KDeqArg
	movl	$1, %edi
	callq	_KDeqArg
	movl	$25, %edi
	movl	$2, %esi
	movl	$1, %edx
	callq	_KTimestamp1
	movl	$25, %edi
	callq	_KPushCDep
	.loc	1 30 8 prologue_end     # bits.c:30:8
.Ltmp12:
	testl	%r13d, %r13d
	jle	.LBB0_1
.Ltmp13:
# BB#2:                                 # %if.end
	#DEBUG_VALUE: ammunition_is_zero_bit_string:start_byte <- R12
	#DEBUG_VALUE: ammunition_is_zero_bit_string:bit_displacement <- R14D
	#DEBUG_VALUE: ammunition_is_zero_bit_string:bit_length <- R13D
	#DEBUG_VALUE: ammunition_is_zero_bit_string:current_byte <- R12
	movl	$22, %edi
	callq	_KWork
	.loc	1 32 19                 # bits.c:32:19
	movl	%r14d, %eax
	sarl	$31, %eax
	shrl	$29, %eax
	addl	%r14d, %eax
	movl	%eax, %ecx
	andl	$-8, %ecx
	sarl	$3, %eax
	.loc	1 32 3 is_stmt 0        # bits.c:32:3
	cltq
	movq	%rax, -56(%rbp)         # 8-byte Spill
	movq	%r12, -48(%rbp)         # 8-byte Spill
	leaq	(%r12,%rax), %r12
.Ltmp14:
	#DEBUG_VALUE: ammunition_is_zero_bit_string:start_byte <- [RBP+-48]
	.loc	1 33 3 is_stmt 1        # bits.c:33:3
	subl	%ecx, %r14d
.Ltmp15:
	movl	$8, %ebx
	movl	$8, %r15d
	.loc	1 34 21                 # bits.c:34:21
.Ltmp16:
	subl	%r14d, %r15d
	movl	$11, (%rsp)
	movl	$0, -60(%rbp)           # 4-byte Folded Spill
	movl	$15, %edi
	movl	$16, %esi
	xorl	%edx, %edx
	movl	$1, %ecx
	movl	$10, %r8d
	movl	$2, %r9d
	callq	_KTimestamp3
	movl	$11, %edi
	movl	$1, %esi
	movl	$12, %edx
	movl	$2, %ecx
	movl	$13, %r8d
	callq	_KTimestamp2
	callq	_KPopCDep
	movl	$11, %edi
	callq	_KPushCDep
.Ltmp17:
	.loc	1 34 8 is_stmt 0        # bits.c:34:8
	cmpl	%r13d, %r15d
	jle	.LBB0_4
.Ltmp18:
# BB#3:                                 # %if.then2
	#DEBUG_VALUE: ammunition_is_zero_bit_string:bit_displacement <- R14D
	#DEBUG_VALUE: ammunition_is_zero_bit_string:bit_length <- R13D
	#DEBUG_VALUE: ammunition_is_zero_bit_string:current_byte <- R12
	movl	$3, %esi
	movl	$4, %edx
	movl	$1, %ecx
	movq	%r12, %rdi
	callq	_KLoad1
	movl	$10, %edi
	callq	_KWork
	.loc	1 35 18 is_stmt 1       # bits.c:35:18
.Ltmp19:
	movzbl	(%r12), %eax
	movb	%r14b, %cl
	shll	%cl, %eax
	.loc	1 36 35                 # bits.c:36:35
	subl	%r13d, %ebx
	movl	$255, %edx
	.loc	1 36 20 is_stmt 0       # bits.c:36:20
	movb	%bl, %cl
	shll	%cl, %edx
	.loc	1 35 12 is_stmt 1       # bits.c:35:12
	andb	%dl, %al
	sete	%al
	movzbl	%al, %r15d
	movl	$4, (%rsp)
	movl	$24, %r14d
.Ltmp20:
	movl	$24, %edi
	movl	$1, %esi
	movl	$17, %edx
	movl	$2, %ecx
	movl	$18, %r8d
	movl	$3, %r9d
	callq	_KTimestamp3
	callq	_KPopCDep
	movabsq	$637341436849372043, %rbx # imm = 0x8D84AA8F80B3B8B
	movl	$11, %ecx
	jmp	.LBB0_20
.Ltmp21:
.LBB0_1:                                # %if.then
	callq	_KPopCDep
	xorl	%r14d, %r14d
	xorl	%ecx, %ecx
	jmp	.LBB0_20
.LBB0_4:                                # %if.else
	#DEBUG_VALUE: ammunition_is_zero_bit_string:start_byte <- [RBP+-48]
.Ltmp22:
	#DEBUG_VALUE: ammunition_is_zero_bit_string:bit_displacement <- R14D
	#DEBUG_VALUE: ammunition_is_zero_bit_string:bit_length <- R13D
	#DEBUG_VALUE: ammunition_is_zero_bit_string:current_byte <- R12
	movl	%r13d, -64(%rbp)        # 4-byte Spill
.Ltmp23:
	#DEBUG_VALUE: ammunition_is_zero_bit_string:bit_length <- [RBP+-64]
	movl	$1, %edi
	callq	_KWork
	movl	$2, %edi
	movl	$2, %esi
	xorl	%edx, %edx
	callq	_KTimestamp1
	movl	$12, %edi
	movl	$1, %esi
	movl	$13, %edx
	movl	$2, %ecx
	movl	$14, %r8d
	callq	_KTimestamp2
	callq	_KPopCDep
	.loc	1 39 10                 # bits.c:39:10
.Ltmp24:
	testl	%r14d, %r14d
	je	.LBB0_5
.Ltmp25:
# BB#6:                                 # %if.then10
	#DEBUG_VALUE: ammunition_is_zero_bit_string:start_byte <- [RBP+-48]
	#DEBUG_VALUE: ammunition_is_zero_bit_string:bit_displacement <- R14D
	#DEBUG_VALUE: ammunition_is_zero_bit_string:bit_length <- [RBP+-64]
	#DEBUG_VALUE: ammunition_is_zero_bit_string:current_byte <- R12
	movl	$12, %edi
	callq	_KPushCDep
	movl	$5, %esi
	movl	$4, %edx
	movl	$1, %ecx
	movq	%r12, %rdi
	callq	_KLoad1
	movl	$7, %edi
	callq	_KWork
	.loc	1 40 16                 # bits.c:40:16
.Ltmp26:
	movzbl	(%r12), %r13d
	movl	$255, %r12d
.Ltmp27:
	.loc	1 40 12 is_stmt 0       # bits.c:40:12
	movb	%r14b, %cl
	shrl	%cl, %r12d
	movl	$3, (%rsp)
	movl	$13, %edi
	movl	$1, %esi
	movl	$16, %edx
	movl	$2, %ecx
	movl	$17, %r8d
	movl	$5, %r9d
	callq	_KTimestamp3
	callq	_KPopCDep
	movl	$13, %edi
	callq	_KPushCDep
	testl	%r12d, %r13d
	jne	.LBB0_7
.Ltmp28:
# BB#8:                                 # %if.end17
	#DEBUG_VALUE: ammunition_is_zero_bit_string:start_byte <- [RBP+-48]
	#DEBUG_VALUE: ammunition_is_zero_bit_string:bit_length <- [RBP+-64]
	movl	$13, -60(%rbp)          # 4-byte Folded Spill
	movl	$2, %edi
	callq	_KWork
	.loc	1 42 7 is_stmt 1        # bits.c:42:7
	movq	-48(%rbp), %rax         # 8-byte Reload
	movq	-56(%rbp), %rcx         # 8-byte Reload
	leaq	1(%rcx,%rax), %rax
.Ltmp29:
	#DEBUG_VALUE: ammunition_is_zero_bit_string:current_byte <- [RBP+-56]
	.loc	1 43 7                  # bits.c:43:7
	movq	%rax, -56(%rbp)         # 8-byte Spill
	subl	%r15d, -64(%rbp)        # 4-byte Folded Spill
	movl	$3, 16(%rsp)
	movl	$5, 8(%rsp)
	movl	$17, (%rsp)
	movl	$17, %edi
	movl	$16, %esi
	xorl	%edx, %edx
	movl	$1, %ecx
	movl	$16, %r8d
	movl	$2, %r9d
	callq	_KTimestamp4
	movl	$5, (%rsp)
	movl	$10, %r12d
	movl	$10, %edi
	movl	$1, %esi
	movl	$18, %edx
	movl	$2, %ecx
	movl	$19, %r8d
	movl	$5, %r9d
	callq	_KTimestamp3
	callq	_KPopCDep
	movl	$17, %ebx
	jmp	.LBB0_9
.Ltmp30:
.LBB0_5:
	#DEBUG_VALUE: ammunition_is_zero_bit_string:bit_length <- [RBP+-64]
	#DEBUG_VALUE: ammunition_is_zero_bit_string:current_byte <- R12
	movq	%r12, -56(%rbp)         # 8-byte Spill
.Ltmp31:
	#DEBUG_VALUE: ammunition_is_zero_bit_string:current_byte <- [RBP+-56]
	movl	$15, %ebx
	movl	$2, %r12d
.LBB0_9:                                # %while.cond.preheader
	movabsq	$7180360395233057256, %r14 # imm = 0x63A5C3BC7D2659E8
	movl	$12, %edi
	callq	_KPushCDep
	xorl	%r13d, %r13d
	movl	$14, %edi
	movl	$14, %esi
	xorl	%edx, %edx
	callq	_KTimestamp1
	movl	$9, -48(%rbp)           # 4-byte Folded Spill
	movl	$9, %edi
	movl	$9, %esi
	xorl	%edx, %edx
	callq	_KTimestamp1
	movl	$14, %edi
	movl	$11, %edx
	movl	$12, %ecx
	movl	%ebx, %esi
	movl	-60(%rbp), %r15d        # 4-byte Reload
	movl	%r15d, %r8d
	callq	_KPhi3To1
	movl	$9, %edi
	movl	$11, %edx
	movl	$12, %ecx
	movl	%r12d, %esi
	movl	%r15d, %r8d
	callq	_KPhi3To1
	callq	_KPopCDep
	movl	$1, %esi
	movq	%r14, %rdi
	callq	_KEnterRegion
	movabsq	$1793117234962913331, %rbx # imm = 0x18E26E9FF6985833
	xorl	%r15d, %r15d
	movl	-64(%rbp), %r14d        # 4-byte Reload
	movl	$14, %r12d
	jmp	.LBB0_10
	.align	16, 0x90
.LBB0_13:                               # %if.end29
                                        #   in Loop: Header=BB0_10 Depth=1
	movl	$21, %r13d
	movl	$21, %edi
	callq	_KPushCDep
	movl	$1, %edi
	callq	_KWork
	.loc	1 49 5                  # bits.c:49:5
.Ltmp32:
	incq	%rbx
.Ltmp33:
	#DEBUG_VALUE: ammunition_is_zero_bit_string:current_byte <- RBX
	movq	%rbx, -56(%rbp)         # 8-byte Spill
.Ltmp34:
	#DEBUG_VALUE: ammunition_is_zero_bit_string:current_byte <- [RBP+-56]
	.loc	1 50 5                  # bits.c:50:5
	addl	$-8, %r14d
.Ltmp35:
	#DEBUG_VALUE: ammunition_is_zero_bit_string:bit_length <- R14D
	movl	$1, (%rsp)
	movq	%r12, %rbx
	movl	$23, %r12d
	movl	$20, %r15d
	movl	$23, %edi
	movl	$22, %esi
	xorl	%edx, %edx
	movl	$20, %ecx
	movl	$1, %r8d
	movl	$6, %r9d
	callq	_KTimestamp3
	movl	$2, (%rsp)
	movl	$19, -48(%rbp)          # 4-byte Folded Spill
	movl	$19, %edi
	movl	$18, %esi
	movl	$1, %edx
	movl	$20, %ecx
	movl	$2, %r8d
	movl	$6, %r9d
	callq	_KTimestamp3
	callq	_KPopCDep
	movl	$2, %esi
	movq	%rbx, %rdi
	callq	_KExitRegion
.Ltmp36:
.LBB0_10:                               # %while.cond
                                        # =>This Inner Loop Header: Depth=1
	movl	$12, %edi
	callq	_KPushCDep
	movl	$22, %edi
	movl	$12, %edx
	movl	%r12d, %esi
	movl	%r15d, %ecx
	movl	%r13d, %r8d
	callq	_KPhi3To1
	movl	$18, %edi
	movl	$12, %edx
	movl	-48(%rbp), %esi         # 4-byte Reload
	movl	%r15d, %ecx
	movl	%r13d, %r8d
	callq	_KPhi3To1
	movl	$1, %edi
	callq	_KWork
	movl	$20, %edi
	movl	$18, %esi
	movl	$1, %edx
	movl	$12, %ecx
	movl	$1, %r8d
	callq	_KTimestamp2
	movl	$22, %edi
	movl	$20, %esi
	callq	_KPhiAddCond
	movl	$22, %edi
	movl	$22, %esi
	xorl	%edx, %edx
	callq	_KTimestamp1
	movl	$18, %edi
	movl	$20, %esi
	callq	_KPhiAddCond
	movl	$18, %edi
	movl	$18, %esi
	xorl	%edx, %edx
	callq	_KTimestamp1
	callq	_KPopCDep
	.loc	1 46 3                  # bits.c:46:3
	cmpl	$8, %r14d
	jl	.LBB0_14
# BB#11:                                # %while.body
                                        #   in Loop: Header=BB0_10 Depth=1
	movl	$2, %esi
	movq	%rbx, %r12
	movq	%r12, %rdi
	callq	_KEnterRegion
	movl	$20, %edi
	callq	_KPushCDep
	movl	$6, %esi
	movl	$1, %edx
	movq	-56(%rbp), %rbx         # 8-byte Reload
	movq	%rbx, %rdi
	callq	_KLoad0
	movl	$5, %edi
	callq	_KWork
	.loc	1 47 10                 # bits.c:47:10
.Ltmp37:
	movb	(%rbx), %r15b
	movl	$21, %edi
	movl	$20, %esi
	movl	$1, %edx
	movl	$6, %ecx
	movl	$1, %r8d
	callq	_KTimestamp2
	callq	_KPopCDep
	cmpb	$0, %r15b
.Ltmp38:
	.loc	1 47 10 is_stmt 0       # bits.c:47:10
	je	.LBB0_13
.Ltmp39:
# BB#12:                                # %while.body.pre_exit.if.then28
	movl	$2, %esi
	movq	%r12, %rdi
	callq	_KExitRegion
	movl	$1, %esi
	movabsq	$7180360395233057256, %rdi # imm = 0x63A5C3BC7D2659E8
	callq	_KExitRegion
	movl	$21, %edi
	callq	_KPushCDep
	jmp	.LBB0_7
.LBB0_14:                               # %while.cond.pre_exit.while.end
	movl	$1, %r15d
	movl	$1, %esi
	movabsq	$7180360395233057256, %rdi # imm = 0x63A5C3BC7D2659E8
	callq	_KExitRegion
	movl	$20, %edi
	callq	_KPushCDep
	movl	$1, %edi
	callq	_KWork
	movl	$26, %edi
	movl	$18, %esi
	movl	$2, %edx
	movl	$12, %ecx
	movl	$2, %r8d
	callq	_KTimestamp2
	callq	_KPopCDep
	.loc	1 52 8 is_stmt 1        # bits.c:52:8
	testl	%r14d, %r14d
	jle	.LBB0_18
# BB#15:                                # %land.lhs.true
	movl	$26, %edi
	callq	_KPushCDep
	movl	$7, %esi
	movl	$1, %edx
	movq	-56(%rbp), %rbx         # 8-byte Reload
	movq	%rbx, %rdi
	callq	_KLoad0
	movl	$7, %edi
	callq	_KWork
	.loc	1 52 28 is_stmt 0       # bits.c:52:28
.Ltmp40:
	movzbl	(%rbx), %ebx
	movl	$8, %ecx
	.loc	1 52 47                 # bits.c:52:47
	subl	%r14d, %ecx
	.loc	1 52 28                 # bits.c:52:28
                                        # kill: CL<def> CL<kill> ECX<kill>
	shrl	%cl, %ebx
	callq	_KPopCDep
	movl	$2, (%rsp)
	movl	$27, %edi
	movl	$18, %esi
	movl	$5, %edx
	movl	$12, %ecx
	movl	$5, %r8d
	movl	$7, %r9d
	callq	_KTimestamp3
	.loc	1 52 26                 # bits.c:52:26
	testl	%ebx, %ebx
	je	.LBB0_18
.Ltmp41:
# BB#16:                                # %if.then37
	movl	$27, %edi
	callq	_KPushCDep
.LBB0_7:                                # %if.then16
	callq	_KPopCDep
	xorl	%r14d, %r14d
	movl	$11, %ecx
	xorl	%r15d, %r15d
	jmp	.LBB0_19
.LBB0_18:                               # %if.end38
	movl	$26, %edi
	callq	_KPushCDep
	callq	_KPopCDep
	xorl	%r14d, %r14d
	movl	$11, %ecx
.LBB0_19:                               # %return
	movabsq	$637341436849372043, %rbx # imm = 0x8D84AA8F80B3B8B
.LBB0_20:                               # %return
	movl	$8, %edi
	movl	$25, %edx
	movl	%r14d, %esi
	callq	_KPhi2To1
	movl	$8, %edi
	movl	$8, %esi
	xorl	%edx, %edx
	callq	_KTimestamp1
	movl	$8, %edi
	callq	_KReturn
	xorl	%esi, %esi
	movq	%rbx, %rdi
	callq	_KExitRegion
	.loc	1 55 1 is_stmt 1        # bits.c:55:1
	movl	%r15d, %eax
	addq	$56, %rsp
	popq	%rbx
	popq	%r12
	popq	%r13
	popq	%r14
	popq	%r15
	popq	%rbp
	retq
.Ltmp42:
.Ltmp43:
	.size	ammunition_is_zero_bit_string, .Ltmp43-ammunition_is_zero_bit_string
.Lfunc_end0:
	.cfi_endproc

	.globl	ammunition_bit_string_set
	.align	16, 0x90
	.type	ammunition_bit_string_set,@function
ammunition_bit_string_set:              # @ammunition_bit_string_set
.Lfunc_begin1:
	.loc	1 65 0                  # bits.c:65:0
	.cfi_startproc
# BB#0:                                 # %entry
	pushq	%rbp
.Ltmp44:
	.cfi_def_cfa_offset 16
.Ltmp45:
	.cfi_offset %rbp, -16
	movq	%rsp, %rbp
.Ltmp46:
	.cfi_def_cfa_register %rbp
	pushq	%r15
	pushq	%r14
	pushq	%r13
	pushq	%r12
	pushq	%rbx
	subq	$104, %rsp
.Ltmp47:
	.cfi_offset %rbx, -56
.Ltmp48:
	.cfi_offset %r12, -48
.Ltmp49:
	.cfi_offset %r13, -40
.Ltmp50:
	.cfi_offset %r14, -32
.Ltmp51:
	.cfi_offset %r15, -24
	#DEBUG_VALUE: ammunition_bit_string_set:start_byte <- RDI
	#DEBUG_VALUE: ammunition_bit_string_set:bit_displacement <- ESI
	#DEBUG_VALUE: ammunition_bit_string_set:bit <- EDX
	#DEBUG_VALUE: ammunition_bit_string_set:bit_length <- ECX
.Ltmp52:
	#DEBUG_VALUE: ammunition_bit_string_set:current_byte <- RDI
	movl	%ecx, %ebx
.Ltmp53:
	#DEBUG_VALUE: ammunition_bit_string_set:bit_length <- EBX
	movl	%edx, %r13d
.Ltmp54:
	#DEBUG_VALUE: ammunition_bit_string_set:bit <- R13D
	movl	%esi, %r15d
.Ltmp55:
	#DEBUG_VALUE: ammunition_bit_string_set:bit_displacement <- R15D
	movq	%rdi, %r12
.Ltmp56:
	#DEBUG_VALUE: ammunition_bit_string_set:current_byte <- R12
	#DEBUG_VALUE: ammunition_bit_string_set:start_byte <- R12
	movabsq	$1139441872790648812, %r14 # imm = 0xFD01C58A5E477EC
	xorl	%esi, %esi
	movq	%r14, %rdi
	callq	_KEnterRegion
	movl	$29, %edi
	movl	$2, %esi
	callq	_KPrepRTable
	movl	$3, %edi
	callq	_KDeqArg
	movl	$2, %edi
	callq	_KDeqArg
	movl	$1, %edi
	callq	_KDeqArg
	movl	$1, %edi
	callq	_KWork
	movl	$21, %edi
	movl	$3, %esi
	movl	$1, %edx
	callq	_KTimestamp1
	.loc	1 70 8 prologue_end     # bits.c:70:8
.Ltmp57:
	testl	%ebx, %ebx
	jle	.LBB1_12
.Ltmp58:
# BB#1:                                 # %if.end
	#DEBUG_VALUE: ammunition_bit_string_set:start_byte <- R12
	#DEBUG_VALUE: ammunition_bit_string_set:bit_displacement <- R15D
	#DEBUG_VALUE: ammunition_bit_string_set:bit <- R13D
	#DEBUG_VALUE: ammunition_bit_string_set:bit_length <- EBX
	#DEBUG_VALUE: ammunition_bit_string_set:current_byte <- R12
	movq	%rbx, -64(%rbp)         # 8-byte Spill
.Ltmp59:
	#DEBUG_VALUE: ammunition_bit_string_set:bit_length <- [RBP+-64]
	movl	$21, %edi
	callq	_KPushCDep
	movl	$23, %edi
	callq	_KWork
	.loc	1 73 18                 # bits.c:73:18
	negl	%r13d
.Ltmp60:
	sbbb	%al, %al
.Ltmp61:
	#DEBUG_VALUE: ammunition_bit_string_set:filling_byte <- [RBP+-49]
	.loc	1 74 19                 # bits.c:74:19
	movb	%al, -49(%rbp)          # 1-byte Spill
	movl	%r15d, %eax
	sarl	$31, %eax
	shrl	$29, %eax
	addl	%r15d, %eax
	movl	%eax, %r14d
	andl	$-8, %r14d
	sarl	$3, %eax
	.loc	1 74 3 is_stmt 0        # bits.c:74:3
	cltq
	movq	%rax, -80(%rbp)         # 8-byte Spill
	leaq	(%r12,%rax), %rbx
.Ltmp62:
	#DEBUG_VALUE: ammunition_bit_string_set:current_byte <- RBX
	movq	%r12, %r13
.Ltmp63:
	#DEBUG_VALUE: ammunition_bit_string_set:start_byte <- R13
	movl	$8, %r12d
	movl	$8, %edi
	movl	$2, %esi
	movl	$2, %edx
	movl	$3, %ecx
	movl	$3, %r8d
	callq	_KTimestamp2
	movl	$15, %edi
	movl	$1, %esi
	movl	$11, %edx
	movl	$3, %ecx
	movl	$12, %r8d
	callq	_KTimestamp2
	movl	$11, (%rsp)
	movl	$18, %edi
	movl	$19, %esi
	xorl	%edx, %edx
	movl	$1, %ecx
	movl	$10, %r8d
	movl	$3, %r9d
	callq	_KTimestamp3
	movl	$3, %edi
	movl	$3, %esi
	xorl	%edx, %edx
	callq	_KTimestamp1
	callq	_KPopCDep
	.loc	1 76 8 is_stmt 1        # bits.c:76:8
.Ltmp64:
	subl	%r14d, %r15d
.Ltmp65:
	je	.LBB1_2
.Ltmp66:
# BB#3:                                 # %if.then5
	#DEBUG_VALUE: ammunition_bit_string_set:start_byte <- R13
	#DEBUG_VALUE: ammunition_bit_string_set:bit_length <- [RBP+-64]
	#DEBUG_VALUE: ammunition_bit_string_set:current_byte <- RBX
	#DEBUG_VALUE: ammunition_bit_string_set:filling_byte <- [RBP+-49]
	movq	%rbx, -48(%rbp)         # 8-byte Spill
.Ltmp67:
	#DEBUG_VALUE: ammunition_bit_string_set:current_byte <- [RBP+-48]
	movq	%r13, -72(%rbp)         # 8-byte Spill
.Ltmp68:
	#DEBUG_VALUE: ammunition_bit_string_set:start_byte <- [RBP+-72]
	movl	$15, %edi
	callq	_KPushCDep
	movl	$4, %edi
	callq	_KWork
	.loc	1 77 27                 # bits.c:77:27
.Ltmp69:
	subl	%r15d, %r12d
	movl	%r12d, -84(%rbp)        # 4-byte Spill
	movl	$255, %r13d
	movl	$255, %r14d
	.loc	1 77 12 is_stmt 0       # bits.c:77:12
	movb	%r12b, %cl
	shll	%cl, %r14d
.Ltmp70:
	#DEBUG_VALUE: ammunition_bit_string_set:mask <- R14D
	movl	$14, %edi
	movl	$1, %esi
	movl	$13, %edx
	movl	$3, %ecx
	movl	$14, %r8d
	callq	_KTimestamp2
	movl	$16, %edi
	movl	$1, %esi
	movl	$13, %edx
	movl	$3, %ecx
	movl	$14, %r8d
	callq	_KTimestamp2
	callq	_KPopCDep
	movq	-64(%rbp), %rax         # 8-byte Reload
.Ltmp71:
	#DEBUG_VALUE: ammunition_bit_string_set:bit_length <- EAX
	.loc	1 78 10 is_stmt 1       # bits.c:78:10
	cmpl	%eax, %r12d
	movq	%rax, %rbx
.Ltmp72:
	#DEBUG_VALUE: ammunition_bit_string_set:bit_length <- EBX
	jle	.LBB1_4
.Ltmp73:
# BB#5:                                 # %if.then9
	#DEBUG_VALUE: ammunition_bit_string_set:start_byte <- [RBP+-72]
	#DEBUG_VALUE: ammunition_bit_string_set:bit_length <- EBX
	#DEBUG_VALUE: ammunition_bit_string_set:current_byte <- [RBP+-48]
	#DEBUG_VALUE: ammunition_bit_string_set:filling_byte <- [RBP+-49]
	#DEBUG_VALUE: ammunition_bit_string_set:mask <- R14D
	movl	$16, %edi
	callq	_KPushCDep
	movl	$3, %edi
	callq	_KWork
	.loc	1 79 30                 # bits.c:79:30
.Ltmp74:
	addl	%ebx, %r15d
	.loc	1 79 15 is_stmt 0       # bits.c:79:15
	movb	%r15b, %cl
	shrl	%cl, %r13d
	.loc	1 79 7                  # bits.c:79:7
	orl	%r13d, %r14d
.Ltmp75:
	movl	$13, %edi
	movl	$1, %esi
	movl	$16, %edx
	movl	$3, %ecx
	movl	$17, %r8d
	callq	_KTimestamp2
	callq	_KPopCDep
	movq	-72(%rbp), %r15         # 8-byte Reload
.Ltmp76:
	#DEBUG_VALUE: ammunition_bit_string_set:start_byte <- R15
	movl	$13, %r13d
.Ltmp77:
	#DEBUG_VALUE: ammunition_bit_string_set:bit_length <- [RBP+-64]
	jmp	.LBB1_6
.Ltmp78:
.LBB1_2:
	#DEBUG_VALUE: ammunition_bit_string_set:start_byte <- R13
	#DEBUG_VALUE: ammunition_bit_string_set:bit_length <- [RBP+-64]
	#DEBUG_VALUE: ammunition_bit_string_set:current_byte <- RBX
	#DEBUG_VALUE: ammunition_bit_string_set:filling_byte <- [RBP+-49]
	movq	%rbx, -48(%rbp)         # 8-byte Spill
.Ltmp79:
	#DEBUG_VALUE: ammunition_bit_string_set:current_byte <- [RBP+-48]
	movq	%r13, -72(%rbp)         # 8-byte Spill
.Ltmp80:
	#DEBUG_VALUE: ammunition_bit_string_set:start_byte <- [RBP+-72]
	movq	-64(%rbp), %r15         # 8-byte Reload
.Ltmp81:
	#DEBUG_VALUE: ammunition_bit_string_set:bit_length <- R15D
	movl	$3, %r14d
	movl	$18, %r12d
	jmp	.LBB1_7
.Ltmp82:
.LBB1_4:
	#DEBUG_VALUE: ammunition_bit_string_set:start_byte <- [RBP+-72]
	#DEBUG_VALUE: ammunition_bit_string_set:bit_length <- EBX
	#DEBUG_VALUE: ammunition_bit_string_set:current_byte <- [RBP+-48]
	#DEBUG_VALUE: ammunition_bit_string_set:filling_byte <- [RBP+-49]
	#DEBUG_VALUE: ammunition_bit_string_set:mask <- R14D
	movl	$14, %r13d
	movq	-72(%rbp), %r15         # 8-byte Reload
.Ltmp83:
	#DEBUG_VALUE: ammunition_bit_string_set:bit_length <- [RBP+-64]
	#DEBUG_VALUE: ammunition_bit_string_set:start_byte <- R15
.LBB1_6:                                # %if.end10
	#DEBUG_VALUE: ammunition_bit_string_set:start_byte <- R15
	#DEBUG_VALUE: ammunition_bit_string_set:bit_length <- [RBP+-64]
	#DEBUG_VALUE: ammunition_bit_string_set:current_byte <- [RBP+-48]
	#DEBUG_VALUE: ammunition_bit_string_set:filling_byte <- [RBP+-49]
	movq	%r15, -72(%rbp)         # 8-byte Spill
	movl	$15, %edi
	callq	_KPushCDep
	movl	$7, %edi
	movl	$15, %edx
	movl	$16, %ecx
	movl	%r13d, %esi
	callq	_KPhi2To1
	movl	$4, %esi
	movl	$5, %edx
	movl	$1, %ecx
	movq	-48(%rbp), %rbx         # 8-byte Reload
.Ltmp84:
	#DEBUG_VALUE: ammunition_bit_string_set:current_byte <- RBX
	movq	%rbx, %rdi
	callq	_KLoad1
	movl	$11, %edi
	callq	_KWork
	movq	-80(%rbp), %r12         # 8-byte Reload
	.loc	1 80 23 is_stmt 1       # bits.c:80:23
	movzbl	(%r15,%r12), %eax
	andl	%r14d, %eax
	.loc	1 80 50 is_stmt 0       # bits.c:80:50
	movzbl	-49(%rbp), %ecx         # 1-byte Folded Reload
	.loc	1 80 65                 # bits.c:80:65
	notl	%r14d
	.loc	1 80 50                 # bits.c:80:50
	andl	%ecx, %r14d
	.loc	1 80 21                 # bits.c:80:21
	orl	%eax, %r14d
	movl	$2, 32(%rsp)
	movl	$4, 24(%rsp)
	movl	$3, 16(%rsp)
	movl	$7, 8(%rsp)
	movl	$15, (%rsp)
	movl	$6, %edi
	movl	$1, %esi
	movl	$14, %edx
	movl	$2, %ecx
	movl	$4, %r8d
	movl	$3, %r9d
	callq	_KTimestamp5
	movl	$6, %edi
	movl	$1, %edx
	movq	%rbx, %rsi
	callq	_KStore
	.loc	1 80 5                  # bits.c:80:5
	movb	%r14b, (%r15,%r12)
	.loc	1 81 5 is_stmt 1        # bits.c:81:5
	leaq	1(%r15,%r12), %rax
	movq	%rax, -48(%rbp)         # 8-byte Spill
.Ltmp85:
	#DEBUG_VALUE: ammunition_bit_string_set:start_byte <- [RBP+-72]
	incq	%r12
.Ltmp86:
	#DEBUG_VALUE: ammunition_bit_string_set:current_byte <- [RBP+-48]
	movq	%r12, -80(%rbp)         # 8-byte Spill
	movq	-64(%rbp), %rbx         # 8-byte Reload
.Ltmp87:
	#DEBUG_VALUE: ammunition_bit_string_set:bit_length <- EBX
	.loc	1 82 5                  # bits.c:82:5
	subl	-84(%rbp), %ebx         # 4-byte Folded Reload
.Ltmp88:
	movl	$22, %r14d
	movl	$22, %edi
	movl	$1, %esi
	movl	$13, %edx
	movl	$3, %ecx
	movl	$14, %r8d
	callq	_KTimestamp2
	movl	$12, (%rsp)
	movl	$20, %r12d
	movl	$20, %edi
	movl	$19, %esi
	xorl	%edx, %edx
	movl	$1, %ecx
	movl	$11, %r8d
	movl	$3, %r9d
	callq	_KTimestamp3
	callq	_KPopCDep
	movq	%rbx, %r15
.Ltmp89:
	#DEBUG_VALUE: ammunition_bit_string_set:bit_length <- R15D
.LBB1_7:                                # %while.cond.preheader
	#DEBUG_VALUE: ammunition_bit_string_set:start_byte <- [RBP+-72]
	#DEBUG_VALUE: ammunition_bit_string_set:filling_byte <- [RBP+-49]
	movq	%r15, -64(%rbp)         # 8-byte Spill
	movl	$21, %edi
	callq	_KPushCDep
	movl	$17, %ebx
	movl	$17, %edi
	movl	$21, %edx
	movl	$15, %ecx
	movl	%r12d, %esi
	callq	_KPhi2To1
	movl	$12, %edi
	movl	$21, %edx
	movl	$15, %ecx
	movl	%r14d, %esi
	callq	_KPhi2To1
	movl	$7, %edi
	callq	_KWork
	.loc	1 85 11 discriminator 2 # bits.c:85:11
.Ltmp90:
	movl	%r15d, %eax
	notl	%eax
	cmpl	$-9, %eax
	movl	$-8, %ecx
	cmovgl	%eax, %ecx
	leal	8(%r15), %r14d
	leal	8(%r15,%rcx), %eax
	shrl	$3, %eax
	movq	%rax, -96(%rbp)         # 8-byte Spill
	leal	(,%rax,8), %eax
	movl	%eax, -84(%rbp)         # 4-byte Spill
	movl	$12, %edi
	movl	$12, %esi
	xorl	%edx, %edx
	callq	_KTimestamp1
	movl	$17, %edi
	movl	$17, %esi
	xorl	%edx, %edx
	callq	_KTimestamp1
	callq	_KPopCDep
	movl	$1, %esi
	movabsq	$-7001531511387324220, %rdi # imm = 0x9ED5902FA40E00C4
	callq	_KEnterRegion
	movabsq	$-7158779437636545139, %r13 # imm = 0x9CA6E807C24D958D
	movl	$12, %r15d
	xorl	%r12d, %r12d
	jmp	.LBB1_8
.Ltmp91:
	.align	16, 0x90
.LBB1_9:                                # %while.body
                                        #   in Loop: Header=BB1_8 Depth=1
	#DEBUG_VALUE: ammunition_bit_string_set:start_byte <- [RBP+-72]
	#DEBUG_VALUE: ammunition_bit_string_set:current_byte <- [RBP+-48]
	#DEBUG_VALUE: ammunition_bit_string_set:filling_byte <- [RBP+-49]
	movl	$2, %esi
	movq	%r13, %rdi
	callq	_KEnterRegion
	movl	$25, %r12d
	movl	$25, %edi
	callq	_KPushCDep
	movl	$2, %edi
	callq	_KWork
	movl	$8, %edi
	movl	$1, %edx
	movq	-48(%rbp), %rbx         # 8-byte Reload
.Ltmp92:
	#DEBUG_VALUE: ammunition_bit_string_set:current_byte <- RBX
	movq	%rbx, %rsi
	callq	_KStore
	.loc	1 86 5                  # bits.c:86:5
.Ltmp93:
	movb	-49(%rbp), %al          # 1-byte Reload
	movb	%al, (%rbx)
	.loc	1 87 5                  # bits.c:87:5
	leaq	1(%rbx), %rbx
.Ltmp94:
	movq	%rbx, -48(%rbp)         # 8-byte Spill
	movl	$27, %r15d
	movl	$27, %edi
	movl	$26, %esi
	movl	$1, %edx
	movl	$25, %ecx
	movl	$1, %r8d
	callq	_KTimestamp2
	movl	$24, %ebx
	movl	$24, %edi
	movl	$23, %esi
	xorl	%edx, %edx
	movl	$25, %ecx
	xorl	%r8d, %r8d
	callq	_KTimestamp2
	callq	_KPopCDep
	movl	$2, %esi
	movq	%r13, %rdi
	callq	_KExitRegion
.Ltmp95:
.LBB1_8:                                # %while.cond
                                        # =>This Inner Loop Header: Depth=1
	#DEBUG_VALUE: ammunition_bit_string_set:start_byte <- [RBP+-72]
	#DEBUG_VALUE: ammunition_bit_string_set:filling_byte <- [RBP+-49]
	movl	$21, %edi
	callq	_KPushCDep
	movl	$26, %edi
	movl	$21, %edx
	movl	%r15d, %esi
	movl	%r12d, %ecx
	callq	_KPhi2To1
	movl	$23, %edi
	movl	$21, %edx
	movl	%ebx, %esi
	movl	%r12d, %ecx
	callq	_KPhi2To1
	movl	$1, %edi
	callq	_KWork
	movl	$25, %edi
	movl	$21, %esi
	movl	$1, %edx
	movl	$26, %ecx
	movl	$1, %r8d
	callq	_KTimestamp2
	movl	$26, %edi
	movl	$25, %esi
	callq	_KPhiAddCond
	movl	$23, %edi
	movl	$25, %esi
	callq	_KPhiAddCond
	movl	$23, %edi
	movl	$23, %esi
	xorl	%edx, %edx
	callq	_KTimestamp1
	movl	$26, %edi
	movl	$26, %esi
	xorl	%edx, %edx
	callq	_KTimestamp1
	callq	_KPopCDep
	.loc	1 85 11 discriminator 2 # bits.c:85:11
.Ltmp96:
	addl	$-8, %r14d
.Ltmp97:
	.loc	1 85 3 is_stmt 0        # bits.c:85:3
	cmpl	$8, %r14d
	jge	.LBB1_9
# BB#10:                                # %while.cond.pre_exit.while.end
	#DEBUG_VALUE: ammunition_bit_string_set:start_byte <- [RBP+-72]
	#DEBUG_VALUE: ammunition_bit_string_set:filling_byte <- [RBP+-49]
	movq	-96(%rbp), %rax         # 8-byte Reload
	movl	%eax, %r12d
	movl	$1, %esi
	movabsq	$-7001531511387324220, %rdi # imm = 0x9ED5902FA40E00C4
	callq	_KExitRegion
	movl	$21, %edi
	callq	_KPushCDep
	movl	$2, %edi
	callq	_KWork
	movq	-64(%rbp), %rbx         # 8-byte Reload
	.loc	1 85 11 discriminator 2 # bits.c:85:11
.Ltmp98:
	subl	-84(%rbp), %ebx         # 4-byte Folded Reload
	callq	_KPopCDep
	movl	$28, %edi
	movl	$3, %esi
	movl	$10, %edx
	movl	$12, %ecx
	movl	$9, %r8d
	callq	_KTimestamp2
.Ltmp99:
	.loc	1 90 8 is_stmt 1        # bits.c:90:8
	testl	%ebx, %ebx
	movabsq	$1139441872790648812, %r14 # imm = 0xFD01C58A5E477EC
	movq	-72(%rbp), %r15         # 8-byte Reload
.Ltmp100:
	#DEBUG_VALUE: ammunition_bit_string_set:start_byte <- R15
	jle	.LBB1_12
.Ltmp101:
# BB#11:                                # %if.then25
	#DEBUG_VALUE: ammunition_bit_string_set:start_byte <- R15
	#DEBUG_VALUE: ammunition_bit_string_set:filling_byte <- [RBP+-49]
	addq	-80(%rbp), %r12         # 8-byte Folded Reload
	addq	%r12, %r15
.Ltmp102:
	movl	$28, %edi
	callq	_KPushCDep
	movl	$13, %edi
	callq	_KWork
	movl	$9, %esi
	movl	$10, %edx
	movl	$1, %ecx
	movq	%r15, %rdi
	callq	_KLoad1
	.loc	1 92 11                 # bits.c:92:11
.Ltmp103:
	movzbl	(%r15), %eax
	movl	$8, %ecx
	.loc	1 92 45 is_stmt 0       # bits.c:92:45
	subl	%ebx, %ecx
	movl	$255, %edx
	.loc	1 92 30                 # bits.c:92:30
                                        # kill: CL<def> CL<kill> ECX<kill>
	shll	%cl, %edx
	.loc	1 92 27                 # bits.c:92:27
	movl	%edx, %ecx
	notl	%ecx
	.loc	1 92 11                 # bits.c:92:11
	andl	%eax, %ecx
	.loc	1 93 13 is_stmt 1       # bits.c:93:13
	movzbl	-49(%rbp), %ebx         # 1-byte Folded Reload
	andl	%edx, %ebx
	.loc	1 92 9                  # bits.c:92:9
	orl	%ecx, %ebx
	movl	$2, 16(%rsp)
	movl	$9, 8(%rsp)
	movl	$14, (%rsp)
	movl	$11, %edi
	movl	$2, %esi
	movl	$4, %edx
	movl	$3, %ecx
	movl	$15, %r8d
	movl	$12, %r9d
	callq	_KTimestamp4
	movl	$11, %edi
	movl	$1, %edx
	movq	%r15, %rsi
	callq	_KStore
	.loc	1 91 5                  # bits.c:91:5
	movb	%bl, (%r15)
	callq	_KPopCDep
.Ltmp104:
.LBB1_12:                               # %if.end37
	xorl	%esi, %esi
	movq	%r14, %rdi
	addq	$104, %rsp
	popq	%rbx
	popq	%r12
	popq	%r13
	popq	%r14
	popq	%r15
	popq	%rbp
	jmp	_KExitRegion            # TAILCALL
.Ltmp105:
	.size	ammunition_bit_string_set, .Ltmp105-ammunition_bit_string_set
.Lfunc_end1:
	.cfi_endproc

	.globl	ammunition_bit_string_copy
	.align	16, 0x90
	.type	ammunition_bit_string_copy,@function
ammunition_bit_string_copy:             # @ammunition_bit_string_copy
.Lfunc_begin2:
	.loc	1 106 0                 # bits.c:106:0
	.cfi_startproc
# BB#0:                                 # %entry
	pushq	%rbp
.Ltmp106:
	.cfi_def_cfa_offset 16
.Ltmp107:
	.cfi_offset %rbp, -16
	movq	%rsp, %rbp
.Ltmp108:
	.cfi_def_cfa_register %rbp
	pushq	%r15
	pushq	%r14
	pushq	%r13
	pushq	%r12
	pushq	%rbx
	subq	$152, %rsp
.Ltmp109:
	.cfi_offset %rbx, -56
.Ltmp110:
	.cfi_offset %r12, -48
.Ltmp111:
	.cfi_offset %r13, -40
.Ltmp112:
	.cfi_offset %r14, -32
.Ltmp113:
	.cfi_offset %r15, -24
	#DEBUG_VALUE: ammunition_bit_string_copy:to <- RDI
	#DEBUG_VALUE: ammunition_bit_string_copy:to_bit_displacement <- ESI
	#DEBUG_VALUE: ammunition_bit_string_copy:from <- RDX
	#DEBUG_VALUE: ammunition_bit_string_copy:from_bit_displacement <- ECX
	#DEBUG_VALUE: ammunition_bit_string_copy:bit_length <- R8D
.Ltmp114:
	#DEBUG_VALUE: ammunition_bit_string_copy:current_to_byte <- RDI
	#DEBUG_VALUE: ammunition_bit_string_copy:current_from_byte <- RDX
	movl	%r8d, %r14d
.Ltmp115:
	#DEBUG_VALUE: ammunition_bit_string_copy:bit_length <- R14D
	movl	%ecx, %r12d
.Ltmp116:
	#DEBUG_VALUE: ammunition_bit_string_copy:from_bit_displacement <- R12D
	movq	%rdx, -104(%rbp)        # 8-byte Spill
.Ltmp117:
	#DEBUG_VALUE: ammunition_bit_string_copy:current_from_byte <- [RBP+-104]
	#DEBUG_VALUE: ammunition_bit_string_copy:from <- [RBP+-104]
	movl	%esi, %r13d
.Ltmp118:
	#DEBUG_VALUE: ammunition_bit_string_copy:to_bit_displacement <- R13D
	movq	%rdi, %r15
.Ltmp119:
	#DEBUG_VALUE: ammunition_bit_string_copy:current_to_byte <- R15
	#DEBUG_VALUE: ammunition_bit_string_copy:to <- R15
	movabsq	$8826317833729718824, %rdi # imm = 0x7A7D614E5227BA28
	xorl	%esi, %esi
	callq	_KEnterRegion
	movl	$35, %edi
	movl	$2, %esi
	callq	_KPrepRTable
	movl	$3, %edi
	callq	_KDeqArg
	movl	$2, %edi
	callq	_KDeqArg
	movl	$1, %edi
	callq	_KDeqArg
	movl	$1, %edi
	callq	_KWork
	movl	$9, %edi
	movl	$3, %esi
	movl	$1, %edx
	callq	_KTimestamp1
	.loc	1 112 8 prologue_end    # bits.c:112:8
.Ltmp120:
	testl	%r14d, %r14d
	jle	.LBB2_22
.Ltmp121:
# BB#1:                                 # %if.end
	#DEBUG_VALUE: ammunition_bit_string_copy:to <- R15
	#DEBUG_VALUE: ammunition_bit_string_copy:to_bit_displacement <- R13D
	#DEBUG_VALUE: ammunition_bit_string_copy:from <- [RBP+-104]
	#DEBUG_VALUE: ammunition_bit_string_copy:from_bit_displacement <- R12D
	#DEBUG_VALUE: ammunition_bit_string_copy:bit_length <- R14D
	#DEBUG_VALUE: ammunition_bit_string_copy:current_to_byte <- R15
	#DEBUG_VALUE: ammunition_bit_string_copy:current_from_byte <- [RBP+-104]
	movq	%r14, -48(%rbp)         # 8-byte Spill
.Ltmp122:
	#DEBUG_VALUE: ammunition_bit_string_copy:bit_length <- [RBP+-48]
	movl	$9, %edi
	callq	_KPushCDep
	movl	$40, %edi
	callq	_KWork
	.loc	1 114 22                # bits.c:114:22
	movl	%r13d, %eax
	sarl	$31, %eax
	shrl	$29, %eax
	addl	%r13d, %eax
	movl	%eax, %ecx
	andl	$-8, %ecx
	sarl	$3, %eax
	.loc	1 114 3 is_stmt 0       # bits.c:114:3
	movslq	%eax, %rbx
	leaq	(%r15,%rbx), %rax
.Ltmp123:
	#DEBUG_VALUE: ammunition_bit_string_copy:current_to_byte <- [RBP+-56]
	movq	%r15, -112(%rbp)        # 8-byte Spill
.Ltmp124:
	#DEBUG_VALUE: ammunition_bit_string_copy:to <- [RBP+-112]
	.loc	1 115 3 is_stmt 1       # bits.c:115:3
	movq	%rax, -56(%rbp)         # 8-byte Spill
	subl	%ecx, %r13d
.Ltmp125:
	.loc	1 116 24                # bits.c:116:24
	movl	%r12d, %eax
	sarl	$31, %eax
	shrl	$29, %eax
	addl	%r12d, %eax
	movl	%eax, %r14d
	andl	$-8, %r14d
	sarl	$3, %eax
	.loc	1 116 3 is_stmt 0       # bits.c:116:3
	cltq
	movq	%rax, -80(%rbp)         # 8-byte Spill
	movl	$10, %edi
	movl	$1, %esi
	movl	$10, %edx
	movl	$3, %ecx
	movl	$11, %r8d
	callq	_KTimestamp2
	movl	$11, %edi
	movl	$2, %esi
	movl	$10, %edx
	movl	$3, %ecx
	movl	$11, %r8d
	callq	_KTimestamp2
	movl	$11, (%rsp)
	movl	%r12d, %r15d
.Ltmp126:
	#DEBUG_VALUE: ammunition_bit_string_copy:from_bit_displacement <- R15D
	movl	$28, %edi
	movl	$29, %esi
	xorl	%edx, %edx
	movl	$2, %ecx
	movl	$10, %r8d
	movl	$3, %r9d
	callq	_KTimestamp3
	movl	$11, (%rsp)
	movl	$24, %edi
	movl	$25, %esi
	xorl	%edx, %edx
	movl	$1, %ecx
	movl	$10, %r8d
	movl	$3, %r9d
	callq	_KTimestamp3
	movl	$3, %edi
	movl	$3, %esi
	xorl	%edx, %edx
	callq	_KTimestamp1
	callq	_KPopCDep
	movabsq	$4359374920008851474, %rdi # imm = 0x3C7F9C648DDFE012
	movl	$1, %esi
	callq	_KEnterRegion
	.loc	1 121 18 is_stmt 1      # bits.c:121:18
.Ltmp127:
	movl	%r15d, %eax
	subl	%r14d, %eax
	movl	$8, %esi
	movl	$8, %ecx
	.loc	1 131 30                # bits.c:131:30
	subl	%r13d, %ecx
	movl	%ecx, -84(%rbp)         # 4-byte Spill
	movl	$255, %edi
	movl	$255, %edx
	.loc	1 131 15 is_stmt 0      # bits.c:131:15
                                        # kill: CL<def> CL<kill> ECX<kill>
	shll	%cl, %edx
	movl	%edx, -60(%rbp)         # 4-byte Spill
	.loc	1 135 37 is_stmt 1      # bits.c:135:37
.Ltmp128:
	movb	%r13b, %cl
	shrl	%cl, %edi
	movl	%edi, -92(%rbp)         # 4-byte Spill
.Ltmp129:
	.loc	1 121 18                # bits.c:121:18
	subl	%r14d, %r15d
.Ltmp130:
	movl	%r15d, -88(%rbp)        # 4-byte Spill
	movabsq	$5557747103689205077, %rdi # imm = 0x4D21158B6AD9E555
	je	.LBB2_2
# BB#5:                                 # %if.end.if.end.split_crit_edge
	#DEBUG_VALUE: ammunition_bit_string_copy:to <- [RBP+-112]
.Ltmp131:
	#DEBUG_VALUE: ammunition_bit_string_copy:to_bit_displacement <- R13D
	#DEBUG_VALUE: ammunition_bit_string_copy:from <- [RBP+-104]
	#DEBUG_VALUE: ammunition_bit_string_copy:bit_length <- [RBP+-48]
	#DEBUG_VALUE: ammunition_bit_string_copy:current_to_byte <- [RBP+-56]
	#DEBUG_VALUE: ammunition_bit_string_copy:current_from_byte <- [RBP+-104]
	movq	-80(%rbp), %rcx         # 8-byte Reload
	.loc	1 122 36                # bits.c:122:36
	subl	%eax, %esi
	movl	%esi, -64(%rbp)         # 4-byte Spill
	testl	%r13d, %r13d
	movq	%r13, -72(%rbp)         # 8-byte Spill
.Ltmp132:
	#DEBUG_VALUE: ammunition_bit_string_copy:to_bit_displacement <- [RBP+-72]
	je	.LBB2_15
# BB#6:                                 # %land.lhs.true.preheader
	#DEBUG_VALUE: ammunition_bit_string_copy:to <- [RBP+-112]
	#DEBUG_VALUE: ammunition_bit_string_copy:to_bit_displacement <- [RBP+-72]
	#DEBUG_VALUE: ammunition_bit_string_copy:from <- [RBP+-104]
	#DEBUG_VALUE: ammunition_bit_string_copy:bit_length <- [RBP+-48]
	#DEBUG_VALUE: ammunition_bit_string_copy:current_from_byte <- [RBP+-104]
	addq	%rbx, -112(%rbp)        # 8-byte Folded Spill
	movq	-104(%rbp), %r15        # 8-byte Reload
.Ltmp133:
	#DEBUG_VALUE: ammunition_bit_string_copy:current_from_byte <- R15
	#DEBUG_VALUE: ammunition_bit_string_copy:from <- R15
	addq	%rcx, %r15
.Ltmp134:
	movq	%r15, -104(%rbp)        # 8-byte Spill
	movl	$28, %r12d
	movl	$24, -56(%rbp)          # 4-byte Folded Spill
	xorl	%ebx, %ebx
	movl	$3, -80(%rbp)           # 4-byte Folded Spill
	xorl	%r14d, %r14d
	movq	-48(%rbp), %r13         # 8-byte Reload
.Ltmp135:
	#DEBUG_VALUE: ammunition_bit_string_copy:bit_length <- R13D
	jmp	.LBB2_7
.Ltmp136:
	.align	16, 0x90
.LBB2_24:                               # %if.end34
                                        #   in Loop: Header=BB2_7 Depth=1
	#DEBUG_VALUE: ammunition_bit_string_copy:to_bit_displacement <- [RBP+-72]
	#DEBUG_VALUE: ammunition_bit_string_copy:byte <- R13D
	movl	$21, %edi
	callq	_KPushCDep
	movl	$11, %edi
	callq	_KWork
	movl	$6, %esi
	movl	$1, %edx
	movq	%r14, %rdi
	callq	_KLoad0
	movq	%rbx, %r12
	.loc	1 130 11                # bits.c:130:11
	movzbl	(%r15,%r12), %eax
	andl	-60(%rbp), %eax         # 4-byte Folded Reload
	.loc	1 132 13                # bits.c:132:13
	movl	%r13d, %ebx
	movq	-72(%rbp), %rcx         # 8-byte Reload
                                        # kill: CL<def> CL<kill> RCX<kill>
	sarl	%cl, %ebx
	.loc	1 130 9                 # bits.c:130:9
	orl	%eax, %ebx
	movl	$2, 48(%rsp)
	movl	$6, 40(%rsp)
	movl	$3, 32(%rsp)
	movl	$13, 24(%rsp)
	movl	$5, 16(%rsp)
	movl	$8, 8(%rsp)
	movl	$5, (%rsp)
	movl	$7, %edi
	movl	$10, %esi
	movl	$4, %edx
	movl	$12, %ecx
	movl	$3, %r8d
	movl	$9, %r9d
	callq	_KTimestamp6
	movl	$7, %edi
	movl	$1, %edx
	movq	%r14, %rsi
	callq	_KStore
	.loc	1 129 5                 # bits.c:129:5
	movb	%bl, (%r15,%r12)
	movl	$2, (%rsp)
	movl	$33, %edi
	movl	$10, %esi
	movl	$1, %edx
	movl	$9, %ecx
	movl	$2, %r8d
	movl	$8, %r9d
	callq	_KTimestamp3
	callq	_KPopCDep
	movl	$33, %edi
	callq	_KPushCDep
	movl	$10, %edi
	callq	_KWork
	leaq	1(%r15,%r12), %rbx
	movl	$14, %esi
	movl	$1, %edx
	movq	%rbx, %rdi
	callq	_KLoad0
	.loc	1 135 13                # bits.c:135:13
.Ltmp137:
	movzbl	1(%r15,%r12), %eax
	andl	-92(%rbp), %eax         # 4-byte Folded Reload
	.loc	1 136 15                # bits.c:136:15
	movl	-84(%rbp), %ecx         # 4-byte Reload
                                        # kill: CL<def> CL<kill> ECX<kill>
	shll	%cl, %r13d
.Ltmp138:
	.loc	1 135 11                # bits.c:135:11
	orl	%eax, %r13d
	movl	$2, 48(%rsp)
	movl	$14, 40(%rsp)
	movl	$3, 32(%rsp)
	movl	$13, 24(%rsp)
	movl	$5, 16(%rsp)
	movl	$8, 8(%rsp)
	movl	$5, (%rsp)
	movl	$15, %edi
	movl	$10, %esi
	movl	$4, %edx
	movl	$12, %ecx
	movl	$3, %r8d
	movl	$9, %r9d
	callq	_KTimestamp6
	movl	$15, %edi
	movl	$1, %edx
	movq	%rbx, %rsi
	callq	_KStore
	.loc	1 134 7                 # bits.c:134:7
	movb	%r13b, 1(%r15,%r12)
	callq	_KPopCDep
	movl	$21, %edi
	callq	_KPushCDep
	movl	$1, %edi
	callq	_KWork
	movq	-48(%rbp), %r13         # 8-byte Reload
	movq	%r12, %rbx
.Ltmp139:
	.loc	1 137 5                 # bits.c:137:5
	addl	$-8, %r13d
.Ltmp140:
	#DEBUG_VALUE: ammunition_bit_string_copy:bit_length <- R13D
	movl	$0, (%rsp)
	movl	$30, %edi
	movl	$9, %esi
	movl	$1, %edx
	movl	$8, %ecx
	movl	$1, %r8d
	movl	$27, %r9d
	callq	_KTimestamp3
	movl	$0, (%rsp)
	movl	$26, -56(%rbp)          # 4-byte Folded Spill
	movl	$26, %edi
	movl	$9, %esi
	movl	$1, %edx
	movl	$8, %ecx
	movl	$1, %r8d
	movl	$23, %r9d
	callq	_KTimestamp3
	movl	$20, -80(%rbp)          # 4-byte Folded Spill
	movl	$20, %edi
	movl	$9, %esi
	movl	$2, %edx
	movl	$8, %ecx
	movl	$2, %r8d
	callq	_KTimestamp2
	callq	_KPopCDep
	movl	$2, %esi
	movabsq	$5557747103689205077, %r12 # imm = 0x4D21158B6AD9E555
	movq	%r12, %rdi
	callq	_KExitRegion
	movq	%r12, %rdi
	movl	$30, %r12d
	movl	$21, %r14d
	incq	%rbx
	movq	-104(%rbp), %r15        # 8-byte Reload
.Ltmp141:
.LBB2_7:                                # %land.lhs.true
                                        # =>This Inner Loop Header: Depth=1
	#DEBUG_VALUE: ammunition_bit_string_copy:to_bit_displacement <- [RBP+-72]
	movq	%r13, -48(%rbp)         # 8-byte Spill
	movl	$2, %esi
	callq	_KEnterRegion
	movl	$9, %edi
	callq	_KPushCDep
	movl	$27, %edi
	movl	$9, %edx
	movl	%r12d, %esi
	movl	%r14d, %ecx
	callq	_KPhi2To1
	movl	$23, %edi
	movl	$9, %edx
	movl	-56(%rbp), %esi         # 4-byte Reload
	movl	%r14d, %ecx
	callq	_KPhi2To1
	movl	$8, %edi
	movl	$9, %edx
	movl	-80(%rbp), %esi         # 4-byte Reload
	movl	%r14d, %ecx
	callq	_KPhi2To1
	leaq	(%r15,%rbx), %rdi
	movl	$4, %esi
	movl	$1, %edx
	callq	_KLoad0
	movl	$7, %edi
	callq	_KWork
	.loc	1 120 18                # bits.c:120:18
	movzbl	(%r15,%rbx), %eax
	movl	-88(%rbp), %ecx         # 4-byte Reload
                                        # kill: CL<def> CL<kill> ECX<kill>
	shll	%cl, %eax
	.loc	1 120 16 is_stmt 0      # bits.c:120:16
	movzbl	%al, %eax
	movl	%eax, -56(%rbp)         # 4-byte Spill
	movl	$2, (%rsp)
	movl	$12, %edi
	movl	$9, %esi
	movl	$2, %edx
	movl	$11, %ecx
	movl	$2, %r8d
	movl	$4, %r9d
	callq	_KTimestamp3
	movl	$8, %edi
	movl	$8, %esi
	xorl	%edx, %edx
	callq	_KTimestamp1
	movl	$22, %edi
	movl	$9, %esi
	movl	$1, %edx
	movl	$11, %ecx
	movl	$1, %r8d
	callq	_KTimestamp2
	movl	$27, %edi
	movl	$27, %esi
	xorl	%edx, %edx
	callq	_KTimestamp1
	movl	$23, %edi
	movl	$23, %esi
	xorl	%edx, %edx
	callq	_KTimestamp1
	callq	_KPopCDep
	movl	$22, %edi
	callq	_KPushCDep
	movl	$2, %edi
	callq	_KWork
	movl	$1, (%rsp)
	movl	$32, %edi
	movl	$22, %esi
	movl	$2, %edx
	movl	$11, %ecx
	movl	$2, %r8d
	movl	$8, %r9d
	callq	_KTimestamp3
	callq	_KPopCDep
	.loc	1 121 18 is_stmt 1      # bits.c:121:18
	cmpl	-64(%rbp), %r13d        # 4-byte Folded Reload
	movl	$0, %r12d
	movl	$0, %r13d
	jle	.LBB2_9
# BB#8:                                 # %cond.true
                                        #   in Loop: Header=BB2_7 Depth=1
	#DEBUG_VALUE: ammunition_bit_string_copy:to_bit_displacement <- [RBP+-72]
	movl	$32, %edi
	callq	_KPushCDep
	movl	$6, %edi
	callq	_KWork
	leaq	1(%r15,%rbx), %rdi
	movl	$5, %esi
	movl	$1, %edx
	callq	_KLoad0
	.loc	1 123 20                # bits.c:123:20
	movzbl	1(%r15,%rbx), %r13d
	movl	-64(%rbp), %ecx         # 4-byte Reload
                                        # kill: CL<def> CL<kill> ECX<kill>
	shrl	%cl, %r13d
	movl	$3, 16(%rsp)
	movl	$8, 8(%rsp)
	movl	$4, (%rsp)
	movl	$31, %r12d
	movl	$31, %edi
	movl	$22, %esi
	movl	$4, %edx
	movl	$5, %ecx
	movl	$1, %r8d
	movl	$11, %r9d
	callq	_KTimestamp4
	callq	_KPopCDep
.LBB2_9:                                # %cond.end
                                        #   in Loop: Header=BB2_7 Depth=1
	#DEBUG_VALUE: ammunition_bit_string_copy:to_bit_displacement <- [RBP+-72]
	movq	-112(%rbp), %r15        # 8-byte Reload
	leaq	(%r15,%rbx), %r14
	movl	$9, %edi
	callq	_KPushCDep
	movl	$13, %edi
	movl	$9, %edx
	movl	$22, %ecx
	movl	$32, %r8d
	movl	%r12d, %esi
	callq	_KPhi3To1
	movl	$2, %edi
	callq	_KWork
	.loc	1 120 14                # bits.c:120:14
	orl	-56(%rbp), %r13d        # 4-byte Folded Reload
.Ltmp142:
	#DEBUG_VALUE: ammunition_bit_string_copy:byte <- R13D
	movl	$21, %edi
	movl	$9, %esi
	movl	$1, %edx
	movl	$8, %ecx
	movl	$1, %r8d
	callq	_KTimestamp2
	callq	_KPopCDep
	.loc	1 125 10                # bits.c:125:10
.Ltmp143:
	movq	-48(%rbp), %rax         # 8-byte Reload
	cmpl	$9, %eax
	jge	.LBB2_24
.Ltmp144:
# BB#10:
	#DEBUG_VALUE: ammunition_bit_string_copy:to_bit_displacement <- [RBP+-72]
	#DEBUG_VALUE: ammunition_bit_string_copy:byte <- R13D
	movq	%r14, -56(%rbp)         # 8-byte Spill
	movq	-48(%rbp), %r15         # 8-byte Reload
	jmp	.LBB2_19
.Ltmp145:
.LBB2_2:
	#DEBUG_VALUE: ammunition_bit_string_copy:to_bit_displacement <- R13D
	#DEBUG_VALUE: ammunition_bit_string_copy:from <- [RBP+-104]
	#DEBUG_VALUE: ammunition_bit_string_copy:bit_length <- [RBP+-48]
	#DEBUG_VALUE: ammunition_bit_string_copy:current_to_byte <- [RBP+-56]
	#DEBUG_VALUE: ammunition_bit_string_copy:current_from_byte <- [RBP+-104]
	movl	$24, -64(%rbp)          # 4-byte Folded Spill
	xorl	%ebx, %ebx
	movl	$28, %r14d
	movq	-104(%rbp), %r12        # 8-byte Reload
.Ltmp146:
	#DEBUG_VALUE: ammunition_bit_string_copy:current_from_byte <- R12
	#DEBUG_VALUE: ammunition_bit_string_copy:from <- R12
	.loc	1 116 3                 # bits.c:116:3
	addq	-80(%rbp), %r12         # 8-byte Folded Reload
.Ltmp147:
	movq	-48(%rbp), %r15         # 8-byte Reload
.Ltmp148:
	#DEBUG_VALUE: ammunition_bit_string_copy:bit_length <- R15D
	movq	%r13, -72(%rbp)         # 8-byte Spill
.Ltmp149:
	#DEBUG_VALUE: ammunition_bit_string_copy:to_bit_displacement <- [RBP+-72]
	movl	$3, %r13d
	jmp	.LBB2_3
.Ltmp150:
	.align	16, 0x90
.LBB2_14:                               # %if.end34.us
                                        #   in Loop: Header=BB2_3 Depth=1
	movq	%r15, %r12
	movq	-48(%rbp), %r15         # 8-byte Reload
	#DEBUG_VALUE: ammunition_bit_string_copy:to_bit_displacement <- [RBP+-72]
	movl	$21, %ebx
	movl	$21, %edi
	callq	_KPushCDep
	movl	$1, %edi
	callq	_KWork
	.loc	1 137 5                 # bits.c:137:5
.Ltmp151:
	addl	$-8, %r15d
.Ltmp152:
	#DEBUG_VALUE: ammunition_bit_string_copy:bit_length <- R15D
	.loc	1 138 5                 # bits.c:138:5
	incq	%r12
.Ltmp153:
	#DEBUG_VALUE: ammunition_bit_string_copy:current_from_byte <- R12
	movl	$0, (%rsp)
	movl	$30, %edi
	movl	$9, %esi
	movl	$1, %edx
	movl	$8, %ecx
	movl	$1, %r8d
	movl	$27, %r9d
	callq	_KTimestamp3
	movl	$0, (%rsp)
	movl	$26, -64(%rbp)          # 4-byte Folded Spill
	movl	$26, %edi
	movl	$9, %esi
	movl	$1, %edx
	movl	$8, %ecx
	movl	$1, %r8d
	movl	$23, %r9d
	callq	_KTimestamp3
	movl	$20, %r13d
	movl	$20, %edi
	movl	$9, %esi
	movl	$2, %edx
	movl	$8, %ecx
	movl	$2, %r8d
	callq	_KTimestamp2
	callq	_KPopCDep
	movl	$2, %esi
	movabsq	$5557747103689205077, %r14 # imm = 0x4D21158B6AD9E555
	movq	%r14, %rdi
	callq	_KExitRegion
	movq	%r14, %rdi
	movl	$30, %r14d
.Ltmp154:
.LBB2_3:                                # %cond.end.us
                                        # =>This Inner Loop Header: Depth=1
	#DEBUG_VALUE: ammunition_bit_string_copy:to_bit_displacement <- [RBP+-72]
	movl	$2, %esi
	callq	_KEnterRegion
	movl	$9, %edi
	callq	_KPushCDep
	movl	$27, %edi
	movl	$9, %edx
	movl	%r14d, %esi
	movl	%ebx, %ecx
	callq	_KPhi2To1
	movl	$23, %edi
	movl	$9, %edx
	movl	-64(%rbp), %esi         # 4-byte Reload
	movl	%ebx, %ecx
	callq	_KPhi2To1
	movl	$8, %edi
	movl	$9, %edx
	movl	%r13d, %esi
	movl	%ebx, %ecx
	callq	_KPhi2To1
	movl	$4, %esi
	movl	$1, %edx
	movq	%r12, %rdi
	callq	_KLoad0
	movl	$7, %edi
	callq	_KWork
	.loc	1 120 18                # bits.c:120:18
	movzbl	(%r12), %r13d
	movl	$2, (%rsp)
	movl	$12, %edi
	movl	$9, %esi
	movl	$2, %edx
	movl	$11, %ecx
	movl	$2, %r8d
	movl	$4, %r9d
	callq	_KTimestamp3
	movl	$8, %edi
	movl	$8, %esi
	xorl	%edx, %edx
	callq	_KTimestamp1
	movl	$22, %edi
	movl	$9, %esi
	movl	$1, %edx
	movl	$11, %ecx
	movl	$1, %r8d
	callq	_KTimestamp2
	movl	$27, %edi
	movl	$27, %esi
	xorl	%edx, %edx
	callq	_KTimestamp1
	movl	$23, %edi
	movl	$23, %esi
	xorl	%edx, %edx
	callq	_KTimestamp1
	callq	_KPopCDep
	movl	$9, %edi
	callq	_KPushCDep
	movl	$13, %edi
	xorl	%esi, %esi
	movl	$9, %edx
	movl	$22, %ecx
	xorl	%r8d, %r8d
	callq	_KPhi3To1
	movl	$2, %edi
	callq	_KWork
	movl	$21, %edi
	movl	$9, %esi
	movl	$1, %edx
	movl	$8, %ecx
	movl	$1, %r8d
	callq	_KTimestamp2
	callq	_KPopCDep
	.loc	1 125 10                # bits.c:125:10
.Ltmp155:
	cmpl	$9, %r15d
	jl	.LBB2_4
.Ltmp156:
# BB#11:                                # %if.end14.us
                                        #   in Loop: Header=BB2_3 Depth=1
	#DEBUG_VALUE: ammunition_bit_string_copy:to_bit_displacement <- [RBP+-72]
	movq	%r15, -48(%rbp)         # 8-byte Spill
	movq	%r12, %r15
	movl	$21, %edi
	callq	_KPushCDep
	movl	$11, %edi
	callq	_KWork
	movl	$6, %esi
	movl	$1, %edx
	movq	-56(%rbp), %r12         # 8-byte Reload
	movq	%r12, %rdi
	callq	_KLoad0
	.loc	1 130 11                # bits.c:130:11
	movzbl	(%r12), %eax
	andl	-60(%rbp), %eax         # 4-byte Folded Reload
	.loc	1 132 13                # bits.c:132:13
	movl	%r13d, %ebx
	movq	-72(%rbp), %r14         # 8-byte Reload
.Ltmp157:
	#DEBUG_VALUE: ammunition_bit_string_copy:to_bit_displacement <- R14D
	movb	%r14b, %cl
	shrl	%cl, %ebx
	.loc	1 130 9                 # bits.c:130:9
	orl	%eax, %ebx
	movl	$2, 48(%rsp)
	movl	$6, 40(%rsp)
	movl	$3, 32(%rsp)
	movl	$13, 24(%rsp)
	movl	$5, 16(%rsp)
	movl	$8, 8(%rsp)
	movl	$5, (%rsp)
	movl	$7, %edi
	movl	$10, %esi
	movl	$4, %edx
	movl	$12, %ecx
	movl	$3, %r8d
	movl	$9, %r9d
	callq	_KTimestamp6
	movl	$7, %edi
	movl	$1, %edx
	movq	%r12, %rsi
	callq	_KStore
	.loc	1 129 5                 # bits.c:129:5
	movb	%bl, (%r12)
	movl	$2, (%rsp)
	movl	$33, %edi
	movl	$10, %esi
	movl	$1, %edx
	movl	$9, %ecx
	movl	$2, %r8d
	movl	$8, %r9d
	callq	_KTimestamp3
	callq	_KPopCDep
	.loc	1 133 10                # bits.c:133:10
	testl	%r14d, %r14d
.Ltmp158:
	#DEBUG_VALUE: ammunition_bit_string_copy:to_bit_displacement <- [RBP+-72]
	je	.LBB2_12
# BB#13:                                # %if.then24.us
                                        #   in Loop: Header=BB2_3 Depth=1
	#DEBUG_VALUE: ammunition_bit_string_copy:to_bit_displacement <- [RBP+-72]
	movl	$33, %edi
	callq	_KPushCDep
	movl	$10, %edi
	callq	_KWork
	.loc	1 135 13                # bits.c:135:13
.Ltmp159:
	leaq	1(%r12), %rbx
	movl	$14, %esi
	movl	$1, %edx
	movq	%rbx, %rdi
	callq	_KLoad0
	movzbl	1(%r12), %eax
	andl	-92(%rbp), %eax         # 4-byte Folded Reload
	.loc	1 136 15                # bits.c:136:15
	movl	-84(%rbp), %ecx         # 4-byte Reload
                                        # kill: CL<def> CL<kill> ECX<kill>
	shll	%cl, %r13d
	.loc	1 135 11                # bits.c:135:11
	orl	%eax, %r13d
	movl	$2, 48(%rsp)
	movl	$14, 40(%rsp)
	movl	$3, 32(%rsp)
	movl	$13, 24(%rsp)
	movl	$5, 16(%rsp)
	movl	$8, 8(%rsp)
	movl	$5, (%rsp)
	movl	$15, %edi
	movl	$10, %esi
	movl	$4, %edx
	movl	$12, %ecx
	movl	$3, %r8d
	movl	$9, %r9d
	callq	_KTimestamp6
	movl	$15, %edi
	movl	$1, %edx
	movq	%rbx, %rsi
	callq	_KStore
	.loc	1 134 7                 # bits.c:134:7
	movb	%r13b, 1(%r12)
	callq	_KPopCDep
.Ltmp160:
	.loc	1 139 5                 # bits.c:139:5
	movq	%rbx, -56(%rbp)         # 8-byte Spill
	jmp	.LBB2_14
	.align	16, 0x90
.LBB2_12:                               # %if.end14.us.if.end34.us_crit_edge
                                        #   in Loop: Header=BB2_3 Depth=1
	#DEBUG_VALUE: ammunition_bit_string_copy:to_bit_displacement <- [RBP+-72]
	incq	%r12
	movq	%r12, -56(%rbp)         # 8-byte Spill
	jmp	.LBB2_14
.LBB2_4:
	#DEBUG_VALUE: ammunition_bit_string_copy:to_bit_displacement <- [RBP+-72]
	movabsq	$4359374920008851474, %rbx # imm = 0x3C7F9C648DDFE012
	movabsq	$5557747103689205077, %rdi # imm = 0x4D21158B6AD9E555
	movq	-72(%rbp), %r14         # 8-byte Reload
.Ltmp161:
	#DEBUG_VALUE: ammunition_bit_string_copy:to_bit_displacement <- R14D
	jmp	.LBB2_20
.Ltmp162:
.LBB2_15:                               # %land.lhs.true.us12.preheader
	#DEBUG_VALUE: ammunition_bit_string_copy:to_bit_displacement <- [RBP+-72]
	#DEBUG_VALUE: ammunition_bit_string_copy:from <- [RBP+-104]
	#DEBUG_VALUE: ammunition_bit_string_copy:bit_length <- [RBP+-48]
	#DEBUG_VALUE: ammunition_bit_string_copy:current_to_byte <- [RBP+-56]
	#DEBUG_VALUE: ammunition_bit_string_copy:current_from_byte <- [RBP+-104]
	movq	-104(%rbp), %rax        # 8-byte Reload
	leaq	1(%rcx,%rax), %rbx
	movl	$28, %r14d
	movl	$24, %r13d
	xorl	%r12d, %r12d
	movl	$3, %r15d
	jmp	.LBB2_16
	.align	16, 0x90
.LBB2_23:                               # %if.end34.us37
                                        #   in Loop: Header=BB2_16 Depth=1
	#DEBUG_VALUE: ammunition_bit_string_copy:to_bit_displacement <- [RBP+-72]
.Ltmp163:
	#DEBUG_VALUE: ammunition_bit_string_copy:byte <- R13D
	movl	$21, %r12d
	movl	$21, %edi
	callq	_KPushCDep
	movl	$11, %edi
	callq	_KWork
	movl	$6, %esi
	movl	$1, %edx
	movq	-56(%rbp), %r14         # 8-byte Reload
	movq	%r14, %rdi
	callq	_KLoad0
	.loc	1 130 11                # bits.c:130:11
	movzbl	(%r14), %ebx
	andl	-60(%rbp), %ebx         # 4-byte Folded Reload
	.loc	1 130 9 is_stmt 0       # bits.c:130:9
	orl	%r13d, %ebx
	movl	$2, 48(%rsp)
	movl	$6, 40(%rsp)
	movl	$3, 32(%rsp)
	movl	$13, 24(%rsp)
	movl	$5, 16(%rsp)
	movl	$8, 8(%rsp)
	movl	$5, (%rsp)
	movl	$7, %edi
	movl	$10, %esi
	movl	$4, %edx
	movl	$12, %ecx
	movl	$3, %r8d
	movl	$9, %r9d
	callq	_KTimestamp6
	movl	$7, %edi
	movl	$1, %edx
	movq	%r14, %rsi
	callq	_KStore
	.loc	1 129 5 is_stmt 1       # bits.c:129:5
	movb	%bl, (%r14)
	movl	$2, (%rsp)
	movl	$33, %edi
	movl	$10, %esi
	movl	$1, %edx
	movl	$9, %ecx
	movl	$2, %r8d
	movl	$8, %r9d
	callq	_KTimestamp3
	callq	_KPopCDep
	movl	$21, %edi
	callq	_KPushCDep
	movl	$1, %edi
	callq	_KWork
	.loc	1 137 5                 # bits.c:137:5
	addl	$-8, %r15d
.Ltmp164:
	#DEBUG_VALUE: ammunition_bit_string_copy:bit_length <- R15D
	.loc	1 139 5                 # bits.c:139:5
	movq	%r15, -48(%rbp)         # 8-byte Spill
	incq	%r14
.Ltmp165:
	#DEBUG_VALUE: ammunition_bit_string_copy:current_to_byte <- R14
	movq	%r14, -56(%rbp)         # 8-byte Spill
.Ltmp166:
	#DEBUG_VALUE: ammunition_bit_string_copy:current_to_byte <- [RBP+-56]
	movl	$0, (%rsp)
	movl	$30, %edi
	movl	$9, %esi
	movl	$1, %edx
	movl	$8, %ecx
	movl	$1, %r8d
	movl	$27, %r9d
	callq	_KTimestamp3
	movl	$0, (%rsp)
	movl	$26, %r13d
.Ltmp167:
	movl	$26, %edi
	movl	$9, %esi
	movl	$1, %edx
	movl	$8, %ecx
	movl	$1, %r8d
	movl	$23, %r9d
	callq	_KTimestamp3
.Ltmp168:
	#DEBUG_VALUE: ammunition_bit_string_copy:bit_length <- [RBP+-48]
	movl	$20, %r15d
	movl	$20, %edi
	movl	$9, %esi
	movl	$2, %edx
	movl	$8, %ecx
	movl	$2, %r8d
	callq	_KTimestamp2
	callq	_KPopCDep
	movl	$2, %esi
	movabsq	$5557747103689205077, %r14 # imm = 0x4D21158B6AD9E555
	movq	%r14, %rdi
	callq	_KExitRegion
	movq	%r14, %rdi
	movl	$30, %r14d
	movq	-80(%rbp), %rbx         # 8-byte Reload
	incq	%rbx
.LBB2_16:                               # %land.lhs.true.us12
                                        # =>This Inner Loop Header: Depth=1
	#DEBUG_VALUE: ammunition_bit_string_copy:to_bit_displacement <- [RBP+-72]
	movq	%rbx, -80(%rbp)         # 8-byte Spill
	movl	$2, %esi
	callq	_KEnterRegion
	movl	$9, %edi
	callq	_KPushCDep
	movl	$27, %edi
	movl	$9, %edx
	movl	%r14d, %esi
	movl	%r12d, %ecx
	callq	_KPhi2To1
	movl	$23, %edi
	movl	$9, %edx
	movl	%r13d, %esi
	movl	%r12d, %ecx
	callq	_KPhi2To1
	movl	$8, %edi
	movl	$9, %edx
	movl	%r15d, %esi
	movl	%r12d, %ecx
	callq	_KPhi2To1
	leaq	-1(%rbx), %rdi
	movl	$4, %esi
	movl	$1, %edx
	callq	_KLoad0
	movl	$7, %edi
	callq	_KWork
	.loc	1 120 18                # bits.c:120:18
	movzbl	-1(%rbx), %eax
	movl	-88(%rbp), %ecx         # 4-byte Reload
                                        # kill: CL<def> CL<kill> ECX<kill>
	shll	%cl, %eax
	.loc	1 120 16 is_stmt 0      # bits.c:120:16
	movzbl	%al, %r15d
	movl	$2, (%rsp)
	movl	$12, %edi
	movl	$9, %esi
	movl	$2, %edx
	movl	$11, %ecx
	movl	$2, %r8d
	movl	$4, %r9d
	callq	_KTimestamp3
	movl	$8, %edi
	movl	$8, %esi
	xorl	%edx, %edx
	callq	_KTimestamp1
	movl	$22, %edi
	movl	$9, %esi
	movl	$1, %edx
	movl	$11, %ecx
	movl	$1, %r8d
	callq	_KTimestamp2
	movl	$27, %edi
	movl	$27, %esi
	xorl	%edx, %edx
	callq	_KTimestamp1
	movl	$23, %edi
	movl	$23, %esi
	xorl	%edx, %edx
	callq	_KTimestamp1
	callq	_KPopCDep
	movl	$22, %edi
	callq	_KPushCDep
	movl	$2, %edi
	callq	_KWork
	movl	$1, (%rsp)
	movl	$32, %edi
	movl	$22, %esi
	movl	$2, %edx
	movl	$11, %ecx
	movl	$2, %r8d
	movl	$8, %r9d
	callq	_KTimestamp3
	callq	_KPopCDep
	movl	-64(%rbp), %r14d        # 4-byte Reload
	movq	-48(%rbp), %rax         # 8-byte Reload
	.loc	1 121 18 is_stmt 1      # bits.c:121:18
	cmpl	%r14d, %eax
	movl	$0, %ebx
	movl	$0, %r13d
	movq	%rax, %r12
	jle	.LBB2_18
# BB#17:                                # %cond.true.us14
                                        #   in Loop: Header=BB2_16 Depth=1
	#DEBUG_VALUE: ammunition_bit_string_copy:to_bit_displacement <- [RBP+-72]
	movl	$32, %edi
	callq	_KPushCDep
	movl	$6, %edi
	callq	_KWork
	movl	$5, %esi
	movl	$1, %edx
	movq	-80(%rbp), %rbx         # 8-byte Reload
	movq	%rbx, %rdi
	callq	_KLoad0
	.loc	1 123 20                # bits.c:123:20
	movzbl	(%rbx), %r13d
	movb	%r14b, %cl
	shrl	%cl, %r13d
	movl	$3, 16(%rsp)
	movl	$8, 8(%rsp)
	movl	$4, (%rsp)
	movl	$31, %ebx
	movl	$31, %edi
	movl	$22, %esi
	movl	$4, %edx
	movl	$5, %ecx
	movl	$1, %r8d
	movl	$11, %r9d
	callq	_KTimestamp4
	callq	_KPopCDep
.LBB2_18:                               # %cond.end.us18
                                        #   in Loop: Header=BB2_16 Depth=1
	#DEBUG_VALUE: ammunition_bit_string_copy:to_bit_displacement <- [RBP+-72]
	movl	$9, %edi
	callq	_KPushCDep
	movl	$13, %edi
	movl	$9, %edx
	movl	$22, %ecx
	movl	$32, %r8d
	movl	%ebx, %esi
	callq	_KPhi3To1
	movl	$2, %edi
	callq	_KWork
	.loc	1 120 14                # bits.c:120:14
	orl	%r15d, %r13d
.Ltmp169:
	#DEBUG_VALUE: ammunition_bit_string_copy:byte <- R13D
	movl	$21, %edi
	movl	$9, %esi
	movl	$1, %edx
	movl	$8, %ecx
	movl	$1, %r8d
	callq	_KTimestamp2
	callq	_KPopCDep
	.loc	1 125 10                # bits.c:125:10
.Ltmp170:
	cmpl	$9, %r12d
	movq	%r12, %r15
	jge	.LBB2_23
.Ltmp171:
.LBB2_19:
	#DEBUG_VALUE: ammunition_bit_string_copy:to_bit_displacement <- [RBP+-72]
	#DEBUG_VALUE: ammunition_bit_string_copy:byte <- R13D
	movq	-72(%rbp), %r14         # 8-byte Reload
.Ltmp172:
	#DEBUG_VALUE: ammunition_bit_string_copy:to_bit_displacement <- R14D
	movabsq	$4359374920008851474, %rbx # imm = 0x3C7F9C648DDFE012
	movabsq	$5557747103689205077, %rdi # imm = 0x4D21158B6AD9E555
.Ltmp173:
.LBB2_20:                               # %cond.end.pre_exit.while.end
	#DEBUG_VALUE: ammunition_bit_string_copy:to_bit_displacement <- R14D
	movl	$2, %esi
	callq	_KExitRegion
	movl	$1, %esi
	movq	%rbx, %rdi
	callq	_KExitRegion
	movl	$9, %edi
	callq	_KPushCDep
	movl	$18, %edi
	callq	_KWork
	.loc	1 144 31                # bits.c:144:31
	leal	(%r15,%r14), %ecx
	movl	$255, %ebx
	.loc	1 144 16 is_stmt 0      # bits.c:144:16
                                        # kill: CL<def> CL<kill> ECX<kill>
	shrl	%cl, %ebx
	.loc	1 143 12 is_stmt 1      # bits.c:143:12
	orl	-60(%rbp), %ebx         # 4-byte Folded Reload
.Ltmp174:
	#DEBUG_VALUE: ammunition_bit_string_copy:mask <- EBX
	movl	$16, %esi
	movl	$1, %edx
	movq	-56(%rbp), %r12         # 8-byte Reload
	movq	%r12, %rdi
	callq	_KLoad0
	.loc	1 146 9                 # bits.c:146:9
	movzbl	(%r12), %eax
	andl	%ebx, %eax
	.loc	1 146 41 is_stmt 0      # bits.c:146:41
	movl	%r13d, %edx
	movb	%r14b, %cl
	sarl	%cl, %edx
	.loc	1 146 73                # bits.c:146:73
	notl	%ebx
.Ltmp175:
	.loc	1 146 39                # bits.c:146:39
	andl	%edx, %ebx
	.loc	1 146 7                 # bits.c:146:7
	orl	%eax, %ebx
	movl	$2, 64(%rsp)
	movl	$16, 56(%rsp)
	movl	$4, 48(%rsp)
	movl	$13, 40(%rsp)
	movl	$6, 32(%rsp)
	movl	$8, 24(%rsp)
	movl	$4, 16(%rsp)
	movl	$9, 8(%rsp)
	movl	$17, (%rsp)
	movl	$17, %edi
	movl	$12, %esi
	movl	$4, %edx
	movl	$1, %ecx
	movl	$16, %r8d
	movl	$3, %r9d
	callq	_KTimestamp7
	movl	$17, %edi
	movl	$1, %edx
	movq	%r12, %rsi
	callq	_KStore
	.loc	1 145 3 is_stmt 1       # bits.c:145:3
	movb	%bl, (%r12)
	callq	_KPopCDep
	movl	$2, (%rsp)
	movl	$8, %r14d
.Ltmp176:
	movl	$34, %edi
	movl	$1, %esi
	movl	$13, %edx
	movl	$3, %ecx
	movl	$14, %r8d
	movl	$8, %r9d
	callq	_KTimestamp3
	movl	-84(%rbp), %ebx         # 4-byte Reload
	.loc	1 148 8                 # bits.c:148:8
	subl	%ebx, %r15d
	jle	.LBB2_22
# BB#21:                                # %if.then51
	movl	$34, %edi
	callq	_KPushCDep
	movl	$13, %edi
	callq	_KWork
	.loc	1 150 11                # bits.c:150:11
.Ltmp177:
	leaq	1(%r12), %rdi
	movq	%rdi, -48(%rbp)         # 8-byte Spill
	movl	$18, %esi
	movl	$1, %edx
	callq	_KLoad0
	movzbl	1(%r12), %eax
	movl	$255, %edx
	.loc	1 150 35 is_stmt 0      # bits.c:150:35
	movb	%r15b, %cl
	shrl	%cl, %edx
	.loc	1 150 11                # bits.c:150:11
	andl	%eax, %edx
	.loc	1 151 15 is_stmt 1      # bits.c:151:15
	movb	%bl, %cl
	shll	%cl, %r13d
	.loc	1 152 32                # bits.c:152:32
	subl	%r15d, %r14d
	.loc	1 152 17 is_stmt 0      # bits.c:152:17
	movb	%r14b, %cl
	movl	$255, %ebx
	shll	%cl, %ebx
	.loc	1 151 13 is_stmt 1      # bits.c:151:13
	andl	%r13d, %ebx
	.loc	1 150 9                 # bits.c:150:9
	orl	%edx, %ebx
	movl	$2, 64(%rsp)
	movl	$18, 56(%rsp)
	movl	$4, 48(%rsp)
	movl	$13, 40(%rsp)
	movl	$6, 32(%rsp)
	movl	$8, 24(%rsp)
	movl	$4, 16(%rsp)
	movl	$9, 8(%rsp)
	movl	$18, (%rsp)
	movl	$19, %edi
	movl	$12, %esi
	movl	$4, %edx
	movl	$1, %ecx
	movl	$17, %r8d
	movl	$3, %r9d
	callq	_KTimestamp7
	movl	$19, %edi
	movl	$1, %edx
	movq	-48(%rbp), %rsi         # 8-byte Reload
	callq	_KStore
	.loc	1 149 5                 # bits.c:149:5
	movb	%bl, 1(%r12)
	callq	_KPopCDep
.Ltmp178:
.LBB2_22:                               # %if.end64
	xorl	%esi, %esi
	movabsq	$8826317833729718824, %rdi # imm = 0x7A7D614E5227BA28
	addq	$152, %rsp
	popq	%rbx
	popq	%r12
	popq	%r13
	popq	%r14
	popq	%r15
	popq	%rbp
	jmp	_KExitRegion            # TAILCALL
.Ltmp179:
	.size	ammunition_bit_string_copy, .Ltmp179-ammunition_bit_string_copy
.Lfunc_end2:
	.cfi_endproc

	.globl	ammunition_reverse_bit_string_copy
	.align	16, 0x90
	.type	ammunition_reverse_bit_string_copy,@function
ammunition_reverse_bit_string_copy:     # @ammunition_reverse_bit_string_copy
.Lfunc_begin3:
	.loc	1 165 0                 # bits.c:165:0
	.cfi_startproc
# BB#0:                                 # %entry
	pushq	%rbp
.Ltmp180:
	.cfi_def_cfa_offset 16
.Ltmp181:
	.cfi_offset %rbp, -16
	movq	%rsp, %rbp
.Ltmp182:
	.cfi_def_cfa_register %rbp
	pushq	%r15
	pushq	%r14
	pushq	%r13
	pushq	%r12
	pushq	%rbx
	subq	$152, %rsp
.Ltmp183:
	.cfi_offset %rbx, -56
.Ltmp184:
	.cfi_offset %r12, -48
.Ltmp185:
	.cfi_offset %r13, -40
.Ltmp186:
	.cfi_offset %r14, -32
.Ltmp187:
	.cfi_offset %r15, -24
	#DEBUG_VALUE: ammunition_reverse_bit_string_copy:to <- RDI
	#DEBUG_VALUE: ammunition_reverse_bit_string_copy:to_bit_displacement <- ESI
	#DEBUG_VALUE: ammunition_reverse_bit_string_copy:from <- RDX
	#DEBUG_VALUE: ammunition_reverse_bit_string_copy:from_bit_displacement <- ECX
	#DEBUG_VALUE: ammunition_reverse_bit_string_copy:bit_length <- R8D
.Ltmp188:
	#DEBUG_VALUE: ammunition_reverse_bit_string_copy:current_to_byte <- RDI
	#DEBUG_VALUE: ammunition_reverse_bit_string_copy:current_from_byte <- RDX
	movl	%r8d, %r15d
.Ltmp189:
	#DEBUG_VALUE: ammunition_reverse_bit_string_copy:bit_length <- R15D
                                        # kill: ECX<def> ECX<kill> RCX<def>
.Ltmp190:
	#DEBUG_VALUE: ammunition_reverse_bit_string_copy:from_bit_displacement <- [RBP+-48]
	movq	%rcx, -48(%rbp)         # 8-byte Spill
	movq	%rdx, %r13
.Ltmp191:
	#DEBUG_VALUE: ammunition_reverse_bit_string_copy:current_from_byte <- R13
	#DEBUG_VALUE: ammunition_reverse_bit_string_copy:from <- R13
	movl	%esi, %ebx
.Ltmp192:
	#DEBUG_VALUE: ammunition_reverse_bit_string_copy:to_bit_displacement <- EBX
	movq	%rdi, %r12
.Ltmp193:
	#DEBUG_VALUE: ammunition_reverse_bit_string_copy:current_to_byte <- R12
	#DEBUG_VALUE: ammunition_reverse_bit_string_copy:to <- R12
	movabsq	$7552566440257496582, %rdi # imm = 0x68D01B298615A606
	xorl	%r14d, %r14d
	xorl	%esi, %esi
	callq	_KEnterRegion
	movl	$35, %edi
	movl	$2, %esi
	callq	_KPrepRTable
	movl	$3, %edi
	callq	_KDeqArg
	movl	$2, %edi
	callq	_KDeqArg
	movl	$1, %edi
	callq	_KDeqArg
	movl	$1, %edi
	callq	_KWork
	movl	$9, %edi
	movl	$3, %esi
	movl	$1, %edx
	callq	_KTimestamp1
	.loc	1 171 8 prologue_end    # bits.c:171:8
.Ltmp194:
	testl	%r15d, %r15d
	jle	.LBB3_13
.Ltmp195:
# BB#1:                                 # %if.end
	#DEBUG_VALUE: ammunition_reverse_bit_string_copy:to <- R12
	#DEBUG_VALUE: ammunition_reverse_bit_string_copy:to_bit_displacement <- EBX
	#DEBUG_VALUE: ammunition_reverse_bit_string_copy:from <- R13
	#DEBUG_VALUE: ammunition_reverse_bit_string_copy:from_bit_displacement <- [RBP+-48]
	#DEBUG_VALUE: ammunition_reverse_bit_string_copy:bit_length <- R15D
	#DEBUG_VALUE: ammunition_reverse_bit_string_copy:current_to_byte <- R12
	#DEBUG_VALUE: ammunition_reverse_bit_string_copy:current_from_byte <- R13
	movl	$9, %edi
	callq	_KPushCDep
	movl	$44, %edi
	callq	_KWork
	.loc	1 173 3                 # bits.c:173:3
	leal	-1(%r15,%rbx), %edx
.Ltmp196:
	#DEBUG_VALUE: ammunition_reverse_bit_string_copy:to_bit_displacement <- EDX
	.loc	1 174 22                # bits.c:174:22
	movl	%edx, %eax
	sarl	$31, %eax
	shrl	$29, %eax
	addl	%edx, %eax
	movl	%eax, %ecx
	andl	$-8, %ecx
	sarl	$3, %eax
	.loc	1 174 3 is_stmt 0       # bits.c:174:3
	cltq
	addq	%rax, %r12
.Ltmp197:
	movq	%r12, -64(%rbp)         # 8-byte Spill
.Ltmp198:
	#DEBUG_VALUE: ammunition_reverse_bit_string_copy:current_to_byte <- [RBP+-64]
	.loc	1 175 3 is_stmt 1       # bits.c:175:3
	subl	%ecx, %edx
.Ltmp199:
	.loc	1 176 3                 # bits.c:176:3
	movq	%rdx, -88(%rbp)         # 8-byte Spill
	movq	-48(%rbp), %rax         # 8-byte Reload
.Ltmp200:
	#DEBUG_VALUE: ammunition_reverse_bit_string_copy:to_bit_displacement <- [RBP+-88]
	leal	-1(%r15,%rax), %ebx
.Ltmp201:
	#DEBUG_VALUE: ammunition_reverse_bit_string_copy:from_bit_displacement <- EBX
	movq	%r15, -48(%rbp)         # 8-byte Spill
.Ltmp202:
	#DEBUG_VALUE: ammunition_reverse_bit_string_copy:bit_length <- [RBP+-48]
	.loc	1 177 24                # bits.c:177:24
	movl	%ebx, %eax
	sarl	$31, %eax
	shrl	$29, %eax
	addl	%ebx, %eax
	movl	%eax, %ecx
	andl	$-8, %ecx
	sarl	$3, %eax
	.loc	1 177 3 is_stmt 0       # bits.c:177:3
	cltq
	addq	%rax, %r13
.Ltmp203:
	.loc	1 178 3 is_stmt 1       # bits.c:178:3
	subl	%ecx, %ebx
.Ltmp204:
	movq	%rbx, -72(%rbp)         # 8-byte Spill
	movl	$11, %edi
	movl	$2, %esi
	movl	$11, %edx
	movl	$3, %ecx
	movl	$13, %r8d
	callq	_KTimestamp2
	movl	$10, %edi
	movl	$1, %esi
	movl	$11, %edx
	movl	$3, %ecx
	movl	$13, %r8d
	callq	_KTimestamp2
	movl	$13, (%rsp)
	movl	$28, -52(%rbp)          # 4-byte Folded Spill
	movl	$28, %edi
	movl	$29, %esi
	xorl	%edx, %edx
	movl	$2, %ecx
	movl	$11, %r8d
	movl	$3, %r9d
	callq	_KTimestamp3
	movl	$13, (%rsp)
	movl	$24, %r12d
	movl	$24, %edi
	movl	$25, %esi
	xorl	%edx, %edx
	movl	$1, %ecx
	movl	$11, %r8d
	movl	$3, %r9d
	callq	_KTimestamp3
	movl	$3, %edi
	movl	$3, %esi
	xorl	%edx, %edx
	callq	_KTimestamp1
	callq	_KPopCDep
	movl	$1, %esi
	movabsq	$7975369939028703873, %rdi # imm = 0x6EAE34B448227A81
	callq	_KEnterRegion
	movl	$7, %eax
	movl	$7, %ecx
	.loc	1 183 40                # bits.c:183:40
.Ltmp205:
	subl	%ebx, %ecx
	movl	%ecx, -76(%rbp)         # 4-byte Spill
	movq	-88(%rbp), %rdi         # 8-byte Reload
.Ltmp206:
	#DEBUG_VALUE: ammunition_reverse_bit_string_copy:to_bit_displacement <- EDI
	.loc	1 194 47                # bits.c:194:47
	leal	1(%rdi), %ecx
	movl	%ecx, -108(%rbp)        # 4-byte Spill
	movl	$255, %esi
	movl	$255, %edx
	.loc	1 194 32 is_stmt 0      # bits.c:194:32
                                        # kill: CL<def> CL<kill> ECX<kill>
	shrl	%cl, %edx
	movl	%edx, -100(%rbp)        # 4-byte Spill
	.loc	1 195 23 is_stmt 1      # bits.c:195:23
	subl	%edi, %eax
	.loc	1 199 17                # bits.c:199:17
.Ltmp207:
	movq	%rax, -96(%rbp)         # 8-byte Spill
.Ltmp208:
	#DEBUG_VALUE: ammunition_reverse_bit_string_copy:to_bit_displacement <- [RBP+-88]
	movb	%al, %cl
	shll	%cl, %esi
	movl	%esi, -112(%rbp)        # 4-byte Spill
.Ltmp209:
	.loc	1 185 36                # bits.c:185:36
	leal	1(%rbx), %eax
	movl	%eax, -104(%rbp)        # 4-byte Spill
.Ltmp210:
	#DEBUG_VALUE: ammunition_reverse_bit_string_copy:from_bit_displacement <- [RBP+-72]
	movabsq	$-8302717278895233917, %rbx # imm = 0x8CC6D29FE0F3A483
	movl	$3, %r15d
	jmp	.LBB3_2
	.align	16, 0x90
.LBB3_10:                               # %if.end40
                                        #   in Loop: Header=BB3_2 Depth=1
	.loc	1 203 5                 # bits.c:203:5
	movq	%r14, -64(%rbp)         # 8-byte Spill
	#DEBUG_VALUE: ammunition_reverse_bit_string_copy:to_bit_displacement <- [RBP+-88]
	#DEBUG_VALUE: ammunition_reverse_bit_string_copy:from_bit_displacement <- [RBP+-72]
	movl	$21, %r14d
	movl	$21, %edi
	callq	_KPushCDep
	movl	$1, %edi
	callq	_KWork
	.loc	1 201 5                 # bits.c:201:5
	addl	$-8, %r15d
.Ltmp211:
	#DEBUG_VALUE: ammunition_reverse_bit_string_copy:bit_length <- R15D
	movq	%r15, -48(%rbp)         # 8-byte Spill
.Ltmp212:
	#DEBUG_VALUE: ammunition_reverse_bit_string_copy:bit_length <- [RBP+-48]
	.loc	1 202 5                 # bits.c:202:5
	decq	%r13
.Ltmp213:
	#DEBUG_VALUE: ammunition_reverse_bit_string_copy:current_from_byte <- R13
	movl	$0, (%rsp)
	movl	$30, -52(%rbp)          # 4-byte Folded Spill
	movl	$30, %edi
	movl	$9, %esi
	movl	$1, %edx
	movl	$8, %ecx
	movl	$1, %r8d
	movl	$27, %r9d
	callq	_KTimestamp3
	movl	$0, (%rsp)
	movl	$26, %r12d
	movl	$26, %edi
	movl	$9, %esi
	movl	$1, %edx
	movl	$8, %ecx
	movl	$1, %r8d
	movl	$23, %r9d
	callq	_KTimestamp3
	movl	$20, %r15d
	movl	$20, %edi
	movl	$9, %esi
	movl	$2, %edx
	movl	$8, %ecx
	movl	$2, %r8d
	callq	_KTimestamp2
	callq	_KPopCDep
	movl	$2, %esi
	movabsq	$-8302717278895233917, %rbx # imm = 0x8CC6D29FE0F3A483
	movq	%rbx, %rdi
	callq	_KExitRegion
.Ltmp214:
.LBB3_2:                                # %while.body
                                        # =>This Inner Loop Header: Depth=1
	#DEBUG_VALUE: ammunition_reverse_bit_string_copy:to_bit_displacement <- [RBP+-88]
	#DEBUG_VALUE: ammunition_reverse_bit_string_copy:from_bit_displacement <- [RBP+-72]
	movl	$2, %esi
	movq	%rbx, %rdi
	callq	_KEnterRegion
	movl	$9, %edi
	callq	_KPushCDep
	movl	$27, %edi
	movl	$9, %edx
	movl	-52(%rbp), %esi         # 4-byte Reload
	movl	%r14d, %ecx
	callq	_KPhi2To1
	movl	$8, %edi
	movl	$9, %edx
	movl	%r15d, %esi
	movl	%r14d, %ecx
	callq	_KPhi2To1
	movl	$23, %edi
	movl	$9, %edx
	movl	%r12d, %esi
	movl	%r14d, %ecx
	callq	_KPhi2To1
	movl	$7, %edi
	callq	_KWork
	movl	$4, %esi
	movl	$1, %edx
	movq	%r13, %rdi
	callq	_KLoad0
	.loc	1 183 16                # bits.c:183:16
	movzbl	(%r13), %r15d
	movl	-76(%rbp), %ecx         # 4-byte Reload
                                        # kill: CL<def> CL<kill> ECX<kill>
	shrl	%cl, %r15d
	xorl	%r14d, %r14d
	movl	$8, %edi
	movl	$8, %esi
	xorl	%edx, %edx
	callq	_KTimestamp1
	movl	$1, (%rsp)
	movl	$12, %edi
	movl	$9, %esi
	movl	$2, %edx
	movl	$11, %ecx
	movl	$2, %r8d
	movl	$4, %r9d
	callq	_KTimestamp3
	movl	$22, %edi
	movl	$9, %esi
	movl	$1, %edx
	movl	$11, %ecx
	movl	$1, %r8d
	callq	_KTimestamp2
	movl	$23, %edi
	movl	$23, %esi
	xorl	%edx, %edx
	callq	_KTimestamp1
	movl	$27, %edi
	movl	$27, %esi
	xorl	%edx, %edx
	callq	_KTimestamp1
	callq	_KPopCDep
	movq	-72(%rbp), %rax         # 8-byte Reload
	cmpl	$7, %eax
	jne	.LBB3_4
# BB#3:                                 #   in Loop: Header=BB3_2 Depth=1
	#DEBUG_VALUE: ammunition_reverse_bit_string_copy:to_bit_displacement <- [RBP+-88]
	#DEBUG_VALUE: ammunition_reverse_bit_string_copy:from_bit_displacement <- [RBP+-72]
	xorl	%r12d, %r12d
	xorl	%ebx, %ebx
	jmp	.LBB3_6
	.align	16, 0x90
.LBB3_4:                                # %land.lhs.true
                                        #   in Loop: Header=BB3_2 Depth=1
	#DEBUG_VALUE: ammunition_reverse_bit_string_copy:to_bit_displacement <- [RBP+-88]
	#DEBUG_VALUE: ammunition_reverse_bit_string_copy:from_bit_displacement <- [RBP+-72]
	movl	$22, %edi
	callq	_KPushCDep
	movl	$2, %edi
	callq	_KWork
	movl	$2, (%rsp)
	movl	$32, %r12d
	movl	$32, %edi
	movl	$11, %esi
	movl	$2, %edx
	movl	$8, %ecx
	movl	$1, %r8d
	movl	$22, %r9d
	callq	_KTimestamp3
	callq	_KPopCDep
	.loc	1 184 20                # bits.c:184:20
	movq	-48(%rbp), %rax         # 8-byte Reload
	cmpl	-104(%rbp), %eax        # 4-byte Folded Reload
	movl	$0, %ebx
	jle	.LBB3_6
# BB#5:                                 # %cond.true
                                        #   in Loop: Header=BB3_2 Depth=1
	#DEBUG_VALUE: ammunition_reverse_bit_string_copy:to_bit_displacement <- [RBP+-88]
	#DEBUG_VALUE: ammunition_reverse_bit_string_copy:from_bit_displacement <- [RBP+-72]
	movl	$32, %r12d
	movl	$32, %edi
	callq	_KPushCDep
	movl	$6, %edi
	callq	_KWork
	leaq	-1(%r13), %rdi
	movl	$5, %esi
	movl	$1, %edx
	callq	_KLoad0
	.loc	1 186 22                # bits.c:186:22
	movzbl	-1(%r13), %ebx
	movl	-104(%rbp), %ecx        # 4-byte Reload
                                        # kill: CL<def> CL<kill> ECX<kill>
	shll	%cl, %ebx
	movl	$4, 16(%rsp)
	movl	$22, 8(%rsp)
	movl	$3, (%rsp)
	movl	$31, %r14d
	movl	$31, %edi
	movl	$5, %esi
	movl	$1, %edx
	movl	$11, %ecx
	movl	$4, %r8d
	movl	$8, %r9d
	callq	_KTimestamp4
	callq	_KPopCDep
.LBB3_6:                                # %cond.end
                                        #   in Loop: Header=BB3_2 Depth=1
	#DEBUG_VALUE: ammunition_reverse_bit_string_copy:to_bit_displacement <- [RBP+-88]
	#DEBUG_VALUE: ammunition_reverse_bit_string_copy:from_bit_displacement <- [RBP+-72]
	movl	$9, %edi
	callq	_KPushCDep
	movl	$13, %edi
	movl	$9, %edx
	movl	$22, %ecx
	movl	%r14d, %esi
	movl	%r12d, %r8d
	callq	_KPhi3To1
	movl	$3, %edi
	callq	_KWork
	.loc	1 184 18 discriminator 4 # bits.c:184:18
.Ltmp215:
	movzbl	%bl, %r12d
.Ltmp216:
	.loc	1 183 14                # bits.c:183:14
	orl	%r15d, %r12d
.Ltmp217:
	#DEBUG_VALUE: ammunition_reverse_bit_string_copy:byte <- R12D
	movl	$21, %edi
	movl	$9, %esi
	movl	$1, %edx
	movl	$8, %ecx
	movl	$1, %r8d
	callq	_KTimestamp2
	callq	_KPopCDep
	movq	-48(%rbp), %r15         # 8-byte Reload
	.loc	1 189 10                # bits.c:189:10
.Ltmp218:
	cmpl	$9, %r15d
.Ltmp219:
	.loc	1 189 10 is_stmt 0      # bits.c:189:10
	jl	.LBB3_11
.Ltmp220:
# BB#7:                                 # %if.end18
                                        #   in Loop: Header=BB3_2 Depth=1
	#DEBUG_VALUE: ammunition_reverse_bit_string_copy:to_bit_displacement <- [RBP+-88]
	#DEBUG_VALUE: ammunition_reverse_bit_string_copy:from_bit_displacement <- [RBP+-72]
	#DEBUG_VALUE: ammunition_reverse_bit_string_copy:byte <- R12D
	movl	$21, %edi
	callq	_KPushCDep
	movl	$6, %esi
	movl	$1, %edx
	movq	-64(%rbp), %r14         # 8-byte Reload
	movq	%r14, %rdi
	callq	_KLoad0
	movl	$12, %edi
	callq	_KWork
	.loc	1 194 11 is_stmt 1      # bits.c:194:11
	movzbl	(%r14), %eax
	andl	-100(%rbp), %eax        # 4-byte Folded Reload
	.loc	1 195 13                # bits.c:195:13
	movl	%r12d, %ebx
	movq	-96(%rbp), %rcx         # 8-byte Reload
                                        # kill: CL<def> CL<kill> RCX<kill>
	shll	%cl, %ebx
	.loc	1 194 9                 # bits.c:194:9
	orl	%eax, %ebx
	movl	$2, 48(%rsp)
	movl	$6, 40(%rsp)
	movl	$3, 32(%rsp)
	movl	$12, 24(%rsp)
	movl	$5, 16(%rsp)
	movl	$8, 8(%rsp)
	movl	$4, (%rsp)
	movl	$7, %edi
	movl	$13, %esi
	movl	$4, %edx
	movl	$9, %ecx
	movl	$5, %r8d
	movl	$10, %r9d
	callq	_KTimestamp6
	movl	$7, %edi
	movl	$1, %edx
	movq	%r14, %rsi
	callq	_KStore
	.loc	1 193 5                 # bits.c:193:5
	movb	%bl, (%r14)
	movl	$2, (%rsp)
	movl	$33, %edi
	movl	$9, %esi
	movl	$2, %edx
	movl	$10, %ecx
	movl	$1, %r8d
	movl	$8, %r9d
	callq	_KTimestamp3
	callq	_KPopCDep
	.loc	1 196 10                # bits.c:196:10
	movq	-88(%rbp), %rax         # 8-byte Reload
	cmpl	$7, %eax
	jne	.LBB3_9
.Ltmp221:
# BB#8:                                 # %if.end18.if.end40_crit_edge
                                        #   in Loop: Header=BB3_2 Depth=1
	#DEBUG_VALUE: ammunition_reverse_bit_string_copy:to_bit_displacement <- [RBP+-88]
	#DEBUG_VALUE: ammunition_reverse_bit_string_copy:from_bit_displacement <- [RBP+-72]
	.loc	1 203 5                 # bits.c:203:5
	decq	%r14
	jmp	.LBB3_10
	.align	16, 0x90
.LBB3_9:                                # %if.then29
                                        #   in Loop: Header=BB3_2 Depth=1
	#DEBUG_VALUE: ammunition_reverse_bit_string_copy:to_bit_displacement <- [RBP+-88]
	#DEBUG_VALUE: ammunition_reverse_bit_string_copy:from_bit_displacement <- [RBP+-72]
.Ltmp222:
	#DEBUG_VALUE: ammunition_reverse_bit_string_copy:byte <- R12D
	movl	$33, %edi
	callq	_KPushCDep
	movl	$11, %edi
	callq	_KWork
	movq	%r14, %rbx
	.loc	1 198 13                # bits.c:198:13
.Ltmp223:
	leaq	-1(%rbx), %r14
	movl	$14, %esi
	movl	$1, %edx
	movq	%r14, %rdi
	callq	_KLoad0
	movzbl	-1(%rbx), %eax
	andl	-112(%rbp), %eax        # 4-byte Folded Reload
	.loc	1 200 15                # bits.c:200:15
	movl	-108(%rbp), %ecx        # 4-byte Reload
                                        # kill: CL<def> CL<kill> ECX<kill>
	sarl	%cl, %r12d
.Ltmp224:
	.loc	1 198 11                # bits.c:198:11
	orl	%eax, %r12d
	movl	$2, 48(%rsp)
	movl	$14, 40(%rsp)
	movl	$3, 32(%rsp)
	movl	$12, 24(%rsp)
	movl	$6, 16(%rsp)
	movl	$8, 8(%rsp)
	movl	$5, (%rsp)
	movl	$15, %edi
	movl	$13, %esi
	movl	$4, %edx
	movl	$9, %ecx
	movl	$6, %r8d
	movl	$10, %r9d
	callq	_KTimestamp6
	movl	$15, %edi
	movl	$1, %edx
	movq	%r14, %rsi
	callq	_KStore
	.loc	1 197 7                 # bits.c:197:7
	movb	%r12b, -1(%rbx)
	callq	_KPopCDep
	jmp	.LBB3_10
.Ltmp225:
.LBB3_11:                               # %cond.end.pre_exit.while.end
	#DEBUG_VALUE: ammunition_reverse_bit_string_copy:byte <- R12D
	movl	$2, %esi
	movabsq	$-8302717278895233917, %rdi # imm = 0x8CC6D29FE0F3A483
	callq	_KExitRegion
	movl	$1, %esi
	movabsq	$7975369939028703873, %rdi # imm = 0x6EAE34B448227A81
	callq	_KExitRegion
	movl	$9, %edi
	callq	_KPushCDep
	movl	$20, %edi
	callq	_KWork
	movq	-96(%rbp), %r13         # 8-byte Reload
	.loc	1 208 29                # bits.c:208:29
	leal	(%r15,%r13), %ecx
	movl	$255, %r14d
	.loc	1 208 14 is_stmt 0      # bits.c:208:14
                                        # kill: CL<def> CL<kill> ECX<kill>
	shll	%cl, %r14d
	.loc	1 207 12 is_stmt 1      # bits.c:207:12
	orl	-100(%rbp), %r14d       # 4-byte Folded Reload
.Ltmp226:
	#DEBUG_VALUE: ammunition_reverse_bit_string_copy:mask <- R14D
	movl	$16, %esi
	movl	$1, %edx
	movq	-64(%rbp), %rbx         # 8-byte Reload
	movq	%rbx, %rdi
	callq	_KLoad0
	.loc	1 211 9                 # bits.c:211:9
	movzbl	(%rbx), %eax
	andl	%r14d, %eax
	.loc	1 212 13                # bits.c:212:13
	movl	%r12d, %edx
	movb	%r13b, %cl
	shll	%cl, %edx
	.loc	1 212 64 is_stmt 0      # bits.c:212:64
	notl	%r14d
.Ltmp227:
	.loc	1 212 11                # bits.c:212:11
	andl	%edx, %r14d
	.loc	1 211 7 is_stmt 1       # bits.c:211:7
	orl	%eax, %r14d
	movl	$2, 64(%rsp)
	movl	$16, 56(%rsp)
	movl	$4, 48(%rsp)
	movl	$12, 40(%rsp)
	movl	$6, 32(%rsp)
	movl	$8, 24(%rsp)
	movl	$5, 16(%rsp)
	movl	$9, 8(%rsp)
	movl	$20, (%rsp)
	movl	$17, %edi
	movl	$13, %esi
	movl	$5, %edx
	movl	$1, %ecx
	movl	$18, %r8d
	movl	$3, %r9d
	callq	_KTimestamp7
	movl	$17, %edi
	movl	$1, %edx
	movq	%rbx, %rsi
	callq	_KStore
	.loc	1 210 3                 # bits.c:210:3
	movb	%r14b, (%rbx)
	movl	$2, (%rsp)
	movq	%r15, %r14
	movl	$8, %r15d
	movl	$34, %edi
	movl	$1, %esi
	movl	$14, %edx
	movl	$3, %ecx
	movl	$16, %r8d
	movl	$8, %r9d
	callq	_KTimestamp3
	callq	_KPopCDep
	movl	-108(%rbp), %eax        # 4-byte Reload
	.loc	1 214 8                 # bits.c:214:8
	subl	%eax, %r14d
	jle	.LBB3_13
.Ltmp228:
# BB#12:                                # %if.then60
	#DEBUG_VALUE: ammunition_reverse_bit_string_copy:byte <- R12D
	movl	$34, %edi
	callq	_KPushCDep
	movl	$13, %edi
	callq	_KWork
	.loc	1 216 11                # bits.c:216:11
.Ltmp229:
	leaq	-1(%rbx), %r13
	movl	$18, %esi
	movl	$1, %edx
	movq	%r13, %rdi
	callq	_KLoad0
	movzbl	-1(%rbx), %eax
	movl	$255, %edx
	.loc	1 216 36 is_stmt 0      # bits.c:216:36
	movb	%r14b, %cl
	shll	%cl, %edx
	.loc	1 216 11                # bits.c:216:11
	andl	%eax, %edx
	.loc	1 217 13 is_stmt 1      # bits.c:217:13
	movl	-108(%rbp), %ecx        # 4-byte Reload
                                        # kill: CL<def> CL<kill> ECX<kill>
	sarl	%cl, %r12d
.Ltmp230:
	.loc	1 218 32                # bits.c:218:32
	subl	%r14d, %r15d
	.loc	1 218 17 is_stmt 0      # bits.c:218:17
	movb	%r15b, %cl
	movq	%rbx, %r14
	movl	$255, %ebx
	shrl	%cl, %ebx
	.loc	1 217 13 is_stmt 1      # bits.c:217:13
	andl	%r12d, %ebx
	.loc	1 216 9                 # bits.c:216:9
	orl	%edx, %ebx
	movl	$2, 64(%rsp)
	movl	$18, 56(%rsp)
	movl	$4, 48(%rsp)
	movl	$12, 40(%rsp)
	movl	$6, 32(%rsp)
	movl	$8, 24(%rsp)
	movl	$5, 16(%rsp)
	movl	$9, 8(%rsp)
	movl	$20, (%rsp)
	movl	$19, %edi
	movl	$13, %esi
	movl	$5, %edx
	movl	$1, %ecx
	movl	$18, %r8d
	movl	$3, %r9d
	callq	_KTimestamp7
	movl	$19, %edi
	movl	$1, %edx
	movq	%r13, %rsi
	callq	_KStore
	.loc	1 215 5                 # bits.c:215:5
	movb	%bl, -1(%r14)
	callq	_KPopCDep
.Ltmp231:
.LBB3_13:                               # %if.end73
	xorl	%esi, %esi
	movabsq	$7552566440257496582, %rdi # imm = 0x68D01B298615A606
	addq	$152, %rsp
	popq	%rbx
	popq	%r12
	popq	%r13
	popq	%r14
	popq	%r15
	popq	%rbp
	jmp	_KExitRegion            # TAILCALL
.Ltmp232:
	.size	ammunition_reverse_bit_string_copy, .Ltmp232-ammunition_reverse_bit_string_copy
.Lfunc_end3:
	.cfi_endproc

	.globl	ammunition_bit_string_move
	.align	16, 0x90
	.type	ammunition_bit_string_move,@function
ammunition_bit_string_move:             # @ammunition_bit_string_move
.Lfunc_begin4:
	.loc	1 232 0                 # bits.c:232:0
	.cfi_startproc
# BB#0:                                 # %entry
	pushq	%rbp
.Ltmp233:
	.cfi_def_cfa_offset 16
.Ltmp234:
	.cfi_offset %rbp, -16
	movq	%rsp, %rbp
.Ltmp235:
	.cfi_def_cfa_register %rbp
	pushq	%r15
	pushq	%r14
	pushq	%r13
	pushq	%r12
	pushq	%rbx
	subq	$40, %rsp
.Ltmp236:
	.cfi_offset %rbx, -56
.Ltmp237:
	.cfi_offset %r12, -48
.Ltmp238:
	.cfi_offset %r13, -40
.Ltmp239:
	.cfi_offset %r14, -32
.Ltmp240:
	.cfi_offset %r15, -24
	#DEBUG_VALUE: ammunition_bit_string_move:to <- RDI
	#DEBUG_VALUE: ammunition_bit_string_move:to_bit_displacement <- ESI
	#DEBUG_VALUE: ammunition_bit_string_move:from <- RDX
	#DEBUG_VALUE: ammunition_bit_string_move:from_bit_displacement <- ECX
	#DEBUG_VALUE: ammunition_bit_string_move:bit_length <- R8D
.Ltmp241:
	#DEBUG_VALUE: ammunition_bit_string_move:current_to_byte <- RDI
	#DEBUG_VALUE: ammunition_bit_string_move:current_from_byte <- RDX
	movl	%r8d, %r15d
.Ltmp242:
	#DEBUG_VALUE: ammunition_bit_string_move:bit_length <- R15D
	movl	%ecx, %r13d
.Ltmp243:
	#DEBUG_VALUE: ammunition_bit_string_move:from_bit_displacement <- R13D
	movq	%rdx, %r12
.Ltmp244:
	#DEBUG_VALUE: ammunition_bit_string_move:current_from_byte <- R12
	#DEBUG_VALUE: ammunition_bit_string_move:from <- R12
	movl	%esi, %ebx
.Ltmp245:
	#DEBUG_VALUE: ammunition_bit_string_move:to_bit_displacement <- EBX
	movq	%rdi, %r14
.Ltmp246:
	#DEBUG_VALUE: ammunition_bit_string_move:current_to_byte <- R14
	#DEBUG_VALUE: ammunition_bit_string_move:to <- R14
	movabsq	$-8888550737006519888, %rdi # imm = 0x84A58632C0B099B0
	xorl	%esi, %esi
	callq	_KEnterRegion
	movl	$12, %edi
	xorl	%esi, %esi
	callq	_KPrepRTable
	movl	$1, %edi
	callq	_KWork
	movl	$3, %edi
	callq	_KDeqArg
	movl	$2, %edi
	callq	_KDeqArg
	movl	$1, %edi
	callq	_KDeqArg
	movl	$6, %edi
	movl	$3, %esi
	movl	$1, %edx
	callq	_KTimestamp1
	.loc	1 236 8 prologue_end    # bits.c:236:8
.Ltmp247:
	testl	%r15d, %r15d
	jle	.LBB4_7
.Ltmp248:
# BB#1:                                 # %if.end
	#DEBUG_VALUE: ammunition_bit_string_move:to <- R14
	#DEBUG_VALUE: ammunition_bit_string_move:to_bit_displacement <- EBX
	#DEBUG_VALUE: ammunition_bit_string_move:from <- R12
	#DEBUG_VALUE: ammunition_bit_string_move:from_bit_displacement <- R13D
	#DEBUG_VALUE: ammunition_bit_string_move:bit_length <- R15D
	#DEBUG_VALUE: ammunition_bit_string_move:current_to_byte <- R14
	#DEBUG_VALUE: ammunition_bit_string_move:current_from_byte <- R12
	movl	$6, %edi
	callq	_KPushCDep
	movl	$41, %edi
	callq	_KWork
	.loc	1 238 22                # bits.c:238:22
	movl	%ebx, %eax
	sarl	$31, %eax
	shrl	$29, %eax
	addl	%ebx, %eax
	movl	%eax, %ecx
	andl	$-8, %ecx
	sarl	$3, %eax
	.loc	1 238 3 is_stmt 0       # bits.c:238:3
	cltq
	addq	%rax, %r14
.Ltmp249:
	.loc	1 239 3 is_stmt 1       # bits.c:239:3
	subl	%ecx, %ebx
.Ltmp250:
	.loc	1 240 24                # bits.c:240:24
	movl	%r13d, %eax
	sarl	$31, %eax
	shrl	$29, %eax
	addl	%r13d, %eax
	movl	%eax, %ecx
	andl	$-8, %ecx
	sarl	$3, %eax
	.loc	1 240 3 is_stmt 0       # bits.c:240:3
	cltq
	addq	%rax, %r12
.Ltmp251:
	.loc	1 241 3 is_stmt 1       # bits.c:241:3
	subl	%ecx, %r13d
.Ltmp252:
	movl	$3, %edi
	movl	$3, %esi
	xorl	%edx, %edx
	callq	_KTimestamp1
	movl	$5, %edi
	movl	$2, %esi
	movl	$10, %edx
	movl	$3, %ecx
	movl	$11, %r8d
	callq	_KTimestamp2
	movl	$4, %edi
	movl	$1, %esi
	movl	$10, %edx
	movl	$3, %ecx
	movl	$11, %r8d
	callq	_KTimestamp2
	movl	$12, 32(%rsp)
	movl	$3, 24(%rsp)
	movl	$11, 16(%rsp)
	movl	$2, 8(%rsp)
	movl	$1, (%rsp)
	movl	$7, %edi
	movl	$8, %esi
	movl	$1, %edx
	movl	$1, %ecx
	movl	$11, %r8d
	movl	$9, %r9d
	callq	_KTimestamp5
	callq	_KPopCDep
	.loc	1 242 8                 # bits.c:242:8
.Ltmp253:
	cmpq	%r14, %r12
	ja	.LBB4_4
.Ltmp254:
# BB#2:                                 # %lor.lhs.false
	#DEBUG_VALUE: ammunition_bit_string_move:to_bit_displacement <- EBX
	#DEBUG_VALUE: ammunition_bit_string_move:from_bit_displacement <- R13D
	#DEBUG_VALUE: ammunition_bit_string_move:bit_length <- R15D
	#DEBUG_VALUE: ammunition_bit_string_move:current_to_byte <- R14
	#DEBUG_VALUE: ammunition_bit_string_move:current_from_byte <- R12
	movl	$7, %edi
	callq	_KPushCDep
	movl	$1, %edi
	callq	_KWork
	movl	$13, 32(%rsp)
	movl	$3, 24(%rsp)
	movl	$12, 16(%rsp)
	movl	$2, 8(%rsp)
	movl	$2, (%rsp)
	movl	$10, %edi
	movl	$8, %esi
	movl	$2, %edx
	movl	$1, %ecx
	movl	$12, %r8d
	movl	$9, %r9d
	callq	_KTimestamp5
	callq	_KPopCDep
	.loc	1 242 8 is_stmt 0       # bits.c:242:8
	cmpq	%r14, %r12
	jne	.LBB4_5
.Ltmp255:
# BB#3:                                 # %land.lhs.true
	#DEBUG_VALUE: ammunition_bit_string_move:to_bit_displacement <- EBX
	#DEBUG_VALUE: ammunition_bit_string_move:from_bit_displacement <- R13D
	#DEBUG_VALUE: ammunition_bit_string_move:bit_length <- R15D
	#DEBUG_VALUE: ammunition_bit_string_move:current_to_byte <- R14
	#DEBUG_VALUE: ammunition_bit_string_move:current_from_byte <- R12
	movl	$10, %edi
	callq	_KPushCDep
	movl	$1, %edi
	callq	_KWork
	movl	$14, 32(%rsp)
	movl	$3, 24(%rsp)
	movl	$13, 16(%rsp)
	movl	$2, 8(%rsp)
	movl	$3, (%rsp)
	movl	$11, %edi
	movl	$8, %esi
	movl	$3, %edx
	movl	$1, %ecx
	movl	$13, %r8d
	movl	$9, %r9d
	callq	_KTimestamp5
	callq	_KPopCDep
	cmpl	%ebx, %r13d
	jle	.LBB4_5
.Ltmp256:
.LBB4_4:                                # %if.then8
	#DEBUG_VALUE: ammunition_bit_string_move:to_bit_displacement <- EBX
	#DEBUG_VALUE: ammunition_bit_string_move:from_bit_displacement <- R13D
	#DEBUG_VALUE: ammunition_bit_string_move:bit_length <- R15D
	#DEBUG_VALUE: ammunition_bit_string_move:current_to_byte <- R14
	#DEBUG_VALUE: ammunition_bit_string_move:current_from_byte <- R12
	movl	$7, %edi
	callq	_KPushCDep
	movabsq	$-3712395095017667344, %rdi # imm = 0xCC7AEC548791C4F0
	xorl	%esi, %esi
	callq	_KPrepCall
	movl	$3, %edi
	callq	_KEnqArg
	movl	$5, %edi
	callq	_KEnqArg
	movl	$4, %edi
	callq	_KEnqArg
	.loc	1 245 5 is_stmt 1       # bits.c:245:5
.Ltmp257:
	movq	%r14, %rdi
	movl	%ebx, %esi
	movq	%r12, %rdx
	movl	%r13d, %ecx
	movl	%r15d, %r8d
	callq	ammunition_bit_string_copy
	jmp	.LBB4_6
.Ltmp258:
.LBB4_5:                                # %if.else
	#DEBUG_VALUE: ammunition_bit_string_move:to_bit_displacement <- EBX
	#DEBUG_VALUE: ammunition_bit_string_move:from_bit_displacement <- R13D
	#DEBUG_VALUE: ammunition_bit_string_move:bit_length <- R15D
	#DEBUG_VALUE: ammunition_bit_string_move:current_to_byte <- R14
	#DEBUG_VALUE: ammunition_bit_string_move:current_from_byte <- R12
	movl	$10, %edi
	callq	_KPushCDep
	movabsq	$4368557404989160895, %rdi # imm = 0x3CA03BD07147FDBF
	xorl	%esi, %esi
	callq	_KPrepCall
	movl	$3, %edi
	callq	_KEnqArg
	movl	$5, %edi
	callq	_KEnqArg
	movl	$4, %edi
	callq	_KEnqArg
	.loc	1 249 5                 # bits.c:249:5
	movq	%r14, %rdi
	movl	%ebx, %esi
	movq	%r12, %rdx
	movl	%r13d, %ecx
	movl	%r15d, %r8d
	callq	ammunition_reverse_bit_string_copy
.Ltmp259:
.LBB4_6:                                # %if.end9
	callq	_KPopCDep
.LBB4_7:                                # %if.end9
	xorl	%esi, %esi
	movabsq	$-8888550737006519888, %rdi # imm = 0x84A58632C0B099B0
	addq	$40, %rsp
	popq	%rbx
	popq	%r12
	popq	%r13
	popq	%r14
	popq	%r15
	popq	%rbp
	jmp	_KExitRegion            # TAILCALL
.Ltmp260:
	.size	ammunition_bit_string_move, .Ltmp260-ammunition_bit_string_move
.Lfunc_end4:
	.cfi_endproc

	.globl	ammunition_bit_string_comparison
	.align	16, 0x90
	.type	ammunition_bit_string_comparison,@function
ammunition_bit_string_comparison:       # @ammunition_bit_string_comparison
.Lfunc_begin5:
	.loc	1 265 0                 # bits.c:265:0
	.cfi_startproc
# BB#0:                                 # %entry
	pushq	%rbp
.Ltmp261:
	.cfi_def_cfa_offset 16
.Ltmp262:
	.cfi_offset %rbp, -16
	movq	%rsp, %rbp
.Ltmp263:
	.cfi_def_cfa_register %rbp
	pushq	%r15
	pushq	%r14
	pushq	%r13
	pushq	%r12
	pushq	%rbx
	subq	$168, %rsp
.Ltmp264:
	.cfi_offset %rbx, -56
.Ltmp265:
	.cfi_offset %r12, -48
.Ltmp266:
	.cfi_offset %r13, -40
.Ltmp267:
	.cfi_offset %r14, -32
.Ltmp268:
	.cfi_offset %r15, -24
	#DEBUG_VALUE: ammunition_bit_string_comparison:str1 <- RDI
	#DEBUG_VALUE: ammunition_bit_string_comparison:bit_displacement1 <- ESI
	#DEBUG_VALUE: ammunition_bit_string_comparison:str2 <- RDX
	#DEBUG_VALUE: ammunition_bit_string_comparison:bit_displacement2 <- ECX
	#DEBUG_VALUE: ammunition_bit_string_comparison:bit_length <- R8D
.Ltmp269:
	#DEBUG_VALUE: ammunition_bit_string_comparison:current_byte1 <- RDI
	#DEBUG_VALUE: ammunition_bit_string_comparison:current_byte2 <- RDX
	movl	%r8d, %ebx
.Ltmp270:
	#DEBUG_VALUE: ammunition_bit_string_comparison:bit_length <- EBX
	movl	%ebx, -44(%rbp)         # 4-byte Spill
	movl	%ecx, %r12d
.Ltmp271:
	#DEBUG_VALUE: ammunition_bit_string_comparison:bit_displacement2 <- R12D
	movq	%rdx, %r13
.Ltmp272:
	#DEBUG_VALUE: ammunition_bit_string_comparison:current_byte2 <- R13
	#DEBUG_VALUE: ammunition_bit_string_comparison:str2 <- R13
	movl	%esi, %r14d
.Ltmp273:
	#DEBUG_VALUE: ammunition_bit_string_comparison:bit_displacement1 <- R14D
	movq	%rdi, -88(%rbp)         # 8-byte Spill
.Ltmp274:
	#DEBUG_VALUE: ammunition_bit_string_comparison:current_byte1 <- [RBP+-88]
	#DEBUG_VALUE: ammunition_bit_string_comparison:str1 <- [RBP+-88]
	movabsq	$4306839829388493607, %r15 # imm = 0x3BC4F80197348327
	xorl	%esi, %esi
	movq	%r15, %rdi
	callq	_KEnterRegion
	movl	$36, %edi
	movl	$2, %esi
	callq	_KPrepRTable
	movl	$3, %edi
	callq	_KDeqArg
	movl	$2, %edi
	callq	_KDeqArg
	movl	$1, %edi
	callq	_KDeqArg
	movl	$1, %edi
	callq	_KWork
	movl	$11, %edi
	movl	$3, %esi
	movl	$1, %edx
	callq	_KTimestamp1
	movl	$11, %edi
	callq	_KPushCDep
	.loc	1 272 8 prologue_end    # bits.c:272:8
.Ltmp275:
	testl	%ebx, %ebx
.Ltmp276:
	#DEBUG_VALUE: ammunition_bit_string_comparison:bit_length <- [RBP+-44]
	jle	.LBB5_1
.Ltmp277:
# BB#2:                                 # %if.end
	#DEBUG_VALUE: ammunition_bit_string_comparison:str1 <- [RBP+-88]
	#DEBUG_VALUE: ammunition_bit_string_comparison:bit_displacement1 <- R14D
	#DEBUG_VALUE: ammunition_bit_string_comparison:str2 <- R13
	#DEBUG_VALUE: ammunition_bit_string_comparison:bit_displacement2 <- R12D
	#DEBUG_VALUE: ammunition_bit_string_comparison:bit_length <- [RBP+-44]
	#DEBUG_VALUE: ammunition_bit_string_comparison:current_byte1 <- [RBP+-88]
	#DEBUG_VALUE: ammunition_bit_string_comparison:current_byte2 <- R13
	movl	$40, %edi
	callq	_KWork
	.loc	1 274 20                # bits.c:274:20
	movl	%r14d, %eax
	sarl	$31, %eax
	shrl	$29, %eax
	addl	%r14d, %eax
	movl	%r14d, %ebx
.Ltmp278:
	#DEBUG_VALUE: ammunition_bit_string_comparison:bit_displacement1 <- EBX
	movl	%eax, %r14d
	sarl	$3, %r14d
	andl	$-8, %eax
	.loc	1 275 3                 # bits.c:275:3
	subl	%eax, %ebx
.Ltmp279:
	.loc	1 276 20                # bits.c:276:20
	movl	%ebx, -104(%rbp)        # 4-byte Spill
	movl	%r12d, %eax
	sarl	$31, %eax
	shrl	$29, %eax
	addl	%r12d, %eax
	movl	%eax, %r15d
	sarl	$3, %r15d
	andl	$-8, %eax
	.loc	1 277 3                 # bits.c:277:3
	subl	%eax, %r12d
.Ltmp280:
	movl	%r12d, -100(%rbp)       # 4-byte Spill
	movl	$14, %edi
	movl	$2, %esi
	movl	$10, %edx
	movl	$3, %ecx
	movl	$11, %r8d
	callq	_KTimestamp2
	movl	$11, (%rsp)
	movl	$22, -72(%rbp)          # 4-byte Folded Spill
	movl	$22, %edi
	movl	$1, %esi
	movl	$10, %edx
	movl	$23, %ecx
	xorl	%r8d, %r8d
	movl	$3, %r9d
	callq	_KTimestamp3
	movl	$11, (%rsp)
	movl	$26, -68(%rbp)          # 4-byte Folded Spill
	movl	$26, %edi
	movl	$2, %esi
	movl	$10, %edx
	movl	$27, %ecx
	xorl	%r8d, %r8d
	movl	$3, %r9d
	callq	_KTimestamp3
	movl	$3, %edi
	movl	$3, %esi
	xorl	%edx, %edx
	callq	_KTimestamp1
	movl	$12, %edi
	movl	$1, %esi
	movl	$10, %edx
	movl	$3, %ecx
	movl	$11, %r8d
	callq	_KTimestamp2
	callq	_KPopCDep
	movl	$1, %esi
	movabsq	$-384731738018305285, %rdi # imm = 0xFAA92885CD99AAFB
	callq	_KEnterRegion
	movl	$8, %eax
	movl	$8, %ecx
	.loc	1 289 35                # bits.c:289:35
.Ltmp281:
	subl	%r12d, %ecx
	movl	%ecx, -112(%rbp)        # 4-byte Spill
.Ltmp282:
	#DEBUG_VALUE: ammunition_bit_string_comparison:bit_displacement2 <- [RBP+-100]
	.loc	1 284 35                # bits.c:284:35
	subl	%ebx, %eax
	movl	%eax, -108(%rbp)        # 4-byte Spill
.Ltmp283:
	#DEBUG_VALUE: ammunition_bit_string_comparison:bit_displacement1 <- [RBP+-104]
	movslq	%r14d, %rax
	movq	-88(%rbp), %rcx         # 8-byte Reload
.Ltmp284:
	#DEBUG_VALUE: ammunition_bit_string_comparison:current_byte1 <- RCX
	#DEBUG_VALUE: ammunition_bit_string_comparison:str1 <- RCX
	addq	%rax, %rcx
.Ltmp285:
	movq	%rcx, -88(%rbp)         # 8-byte Spill
	movslq	%r15d, %rax
	addq	%rax, %r13
.Ltmp286:
	movq	%r13, -96(%rbp)         # 8-byte Spill
	movabsq	$-1416605091148889671, %rdi # imm = 0xEC57352CD30F81B9
	xorl	%eax, %eax
	xorl	%r15d, %r15d
	xorl	%r12d, %r12d
	xorl	%ebx, %ebx
	movq	%rcx, %r14
	movl	$3, -76(%rbp)           # 4-byte Folded Spill
	jmp	.LBB5_3
	.align	16, 0x90
.LBB5_15:                               # %if.end40
                                        #   in Loop: Header=BB5_3 Depth=1
	#DEBUG_VALUE: ammunition_bit_string_comparison:bit_displacement1 <- [RBP+-104]
	#DEBUG_VALUE: ammunition_bit_string_comparison:bit_displacement2 <- [RBP+-100]
	movl	$19, %r15d
	movl	$19, %edi
	callq	_KPushCDep
	movl	$1, %edi
	callq	_KWork
	.loc	1 299 5                 # bits.c:299:5
	addl	$-8, -44(%rbp)          # 4-byte Folded Spill
	#DEBUG_VALUE: ammunition_bit_string_comparison:bit_length <- [RBP+-44]
	movl	$3, 88(%rsp)
	movl	$16, 80(%rsp)
	movl	$5, 72(%rsp)
	movl	$6, 64(%rsp)
	movl	$3, 56(%rsp)
	movl	$15, 48(%rsp)
	movl	$3, 40(%rsp)
	movl	$13, 32(%rsp)
	movl	$0, 24(%rsp)
	movl	$25, 16(%rsp)
	movl	$3, 8(%rsp)
	movl	$9, (%rsp)
	movl	$28, -68(%rbp)          # 4-byte Folded Spill
	movl	$28, %edi
	movl	$8, %esi
	movl	$11, %edx
	movl	$5, %ecx
	movl	$14, %r8d
	movl	$5, %r9d
	xorl	%eax, %eax
	callq	_KTimestamp
	movl	$3, 88(%rsp)
	movl	$16, 80(%rsp)
	movl	$5, 72(%rsp)
	movl	$6, 64(%rsp)
	movl	$3, 56(%rsp)
	movl	$15, 48(%rsp)
	movl	$3, 40(%rsp)
	movl	$13, 32(%rsp)
	movl	$0, 24(%rsp)
	movl	$21, 16(%rsp)
	movl	$3, 8(%rsp)
	movl	$9, (%rsp)
	movl	$24, -72(%rbp)          # 4-byte Folded Spill
	movl	$24, %edi
	movl	$8, %esi
	movl	$11, %edx
	movl	$5, %ecx
	movl	$14, %r8d
	movl	$5, %r9d
	xorl	%eax, %eax
	callq	_KTimestamp
	movl	$4, 64(%rsp)
	movl	$16, 56(%rsp)
	movl	$6, 48(%rsp)
	movl	$6, 40(%rsp)
	movl	$4, 32(%rsp)
	movl	$15, 24(%rsp)
	movl	$4, 16(%rsp)
	movl	$13, 8(%rsp)
	movl	$4, (%rsp)
	movl	$10, -76(%rbp)          # 4-byte Folded Spill
	movl	$10, %edi
	movl	$11, %esi
	movl	$6, %edx
	movl	$14, %ecx
	movl	$6, %r8d
	movl	$9, %r9d
	callq	_KTimestamp7
	callq	_KPopCDep
	movl	$2, %esi
	movabsq	$-1416605091148889671, %rbx # imm = 0xEC57352CD30F81B9
	movq	%rbx, %rdi
	callq	_KExitRegion
	movq	%rbx, %rdi
	movq	-56(%rbp), %rax         # 8-byte Reload
	incq	%rax
	movl	$17, %ebx
	movl	$18, %r12d
	movq	-96(%rbp), %r13         # 8-byte Reload
	movq	-88(%rbp), %r14         # 8-byte Reload
.LBB5_3:                                # %while.body
                                        # =>This Inner Loop Header: Depth=1
	#DEBUG_VALUE: ammunition_bit_string_comparison:bit_displacement1 <- [RBP+-104]
	#DEBUG_VALUE: ammunition_bit_string_comparison:bit_displacement2 <- [RBP+-100]
	movq	%rax, -56(%rbp)         # 8-byte Spill
	leaq	(%r13,%rax), %rcx
	movq	%rcx, -64(%rbp)         # 8-byte Spill
	movl	$2, %esi
	movq	%rax, %r13
	callq	_KEnterRegion
	movl	$11, %edi
	callq	_KPushCDep
	movl	$21, %edi
	movl	$11, %edx
	movl	-72(%rbp), %esi         # 4-byte Reload
	movl	%ebx, %ecx
	movl	%r12d, %r8d
	movl	%r15d, %r9d
	callq	_KPhi4To1
	movl	$25, %edi
	movl	$11, %edx
	movl	-68(%rbp), %esi         # 4-byte Reload
	movl	%ebx, %ecx
	movl	%r12d, %r8d
	movl	%r15d, %r9d
	callq	_KPhi4To1
	movl	$9, %edi
	movl	$11, %edx
	movl	-76(%rbp), %esi         # 4-byte Reload
	movl	%ebx, %ecx
	movl	%r12d, %r8d
	movl	%r15d, %r9d
	callq	_KPhi4To1
	movl	$7, %edi
	callq	_KWork
	leaq	(%r14,%r13), %rdi
	movl	$4, %esi
	movl	$1, %edx
	callq	_KLoad0
	.loc	1 280 19                # bits.c:280:19
	movzbl	(%r14,%r13), %r14d
	movl	-104(%rbp), %ebx        # 4-byte Reload
.Ltmp287:
	#DEBUG_VALUE: ammunition_bit_string_comparison:bit_displacement1 <- EBX
	movb	%bl, %cl
	shll	%cl, %r14d
	movl	$25, %edi
	movl	$25, %esi
	xorl	%edx, %edx
	callq	_KTimestamp1
	movl	$21, %edi
	movl	$21, %esi
	xorl	%edx, %edx
	callq	_KTimestamp1
	movl	$20, %edi
	movl	$11, %esi
	movl	$1, %edx
	movl	$12, %ecx
	movl	$1, %r8d
	callq	_KTimestamp2
	movl	$2, (%rsp)
	movl	$13, %edi
	movl	$11, %esi
	movl	$2, %edx
	movl	$12, %ecx
	movl	$2, %r8d
	movl	$4, %r9d
	callq	_KTimestamp3
	movl	$9, %edi
	movl	$9, %esi
	xorl	%edx, %edx
	callq	_KTimestamp1
	callq	_KPopCDep
	testl	%ebx, %ebx
.Ltmp288:
	#DEBUG_VALUE: ammunition_bit_string_comparison:bit_displacement1 <- [RBP+-104]
	movl	$0, %ebx
	movl	$0, %r15d
	movl	$0, %r12d
	je	.LBB5_6
# BB#4:                                 # %land.lhs.true
                                        #   in Loop: Header=BB5_3 Depth=1
	#DEBUG_VALUE: ammunition_bit_string_comparison:bit_displacement1 <- [RBP+-104]
	#DEBUG_VALUE: ammunition_bit_string_comparison:bit_displacement2 <- [RBP+-100]
	movl	$20, %edi
	callq	_KPushCDep
	movl	$2, %edi
	callq	_KWork
	movl	$2, (%rsp)
	movl	$30, %r15d
	movl	$30, %edi
	movl	$12, %esi
	movl	$2, %edx
	movl	$9, %ecx
	movl	$1, %r8d
	movl	$20, %r9d
	callq	_KTimestamp3
	callq	_KPopCDep
	.loc	1 281 19                # bits.c:281:19
	movl	-108(%rbp), %eax        # 4-byte Reload
	cmpl	%eax, -44(%rbp)         # 4-byte Folded Reload
	movl	$0, %ebx
	movl	$0, %r12d
	jle	.LBB5_6
# BB#5:                                 # %cond.true
                                        #   in Loop: Header=BB5_3 Depth=1
	#DEBUG_VALUE: ammunition_bit_string_comparison:bit_displacement1 <- [RBP+-104]
	#DEBUG_VALUE: ammunition_bit_string_comparison:bit_displacement2 <- [RBP+-100]
	movl	$30, %r15d
	movl	$30, %edi
	callq	_KPushCDep
	movl	$6, %edi
	callq	_KWork
	movq	-88(%rbp), %r12         # 8-byte Reload
	movq	-56(%rbp), %rbx         # 8-byte Reload
	leaq	1(%r12,%rbx), %rdi
	movl	$5, %esi
	movl	$1, %edx
	callq	_KLoad0
	.loc	1 285 21                # bits.c:285:21
	movzbl	1(%r12,%rbx), %r12d
	movl	-108(%rbp), %ecx        # 4-byte Reload
                                        # kill: CL<def> CL<kill> ECX<kill>
	shrl	%cl, %r12d
	movl	$1, 16(%rsp)
	movl	$5, 8(%rsp)
	movl	$4, (%rsp)
	movl	$29, %ebx
	movl	$29, %edi
	movl	$12, %esi
	movl	$4, %edx
	movl	$9, %ecx
	movl	$3, %r8d
	movl	$20, %r9d
	callq	_KTimestamp4
	callq	_KPopCDep
.LBB5_6:                                # %cond.end
                                        #   in Loop: Header=BB5_3 Depth=1
	#DEBUG_VALUE: ammunition_bit_string_comparison:bit_displacement1 <- [RBP+-104]
	#DEBUG_VALUE: ammunition_bit_string_comparison:bit_displacement2 <- [RBP+-100]
	.loc	1 280 17                # bits.c:280:17
	movzbl	%r14b, %r13d
	movl	$11, %edi
	callq	_KPushCDep
	movl	$15, %edi
	movl	$11, %edx
	movl	$20, %ecx
	movl	%ebx, %esi
	movl	%r15d, %r8d
	callq	_KPhi3To1
	movl	$8, %edi
	callq	_KWork
	movl	$6, %esi
	movl	$1, %edx
	movq	-64(%rbp), %rbx         # 8-byte Reload
	movq	%rbx, %rdi
	callq	_KLoad0
	.loc	1 287 19                # bits.c:287:19
	movzbl	(%rbx), %r15d
	movl	-100(%rbp), %ebx        # 4-byte Reload
.Ltmp289:
	#DEBUG_VALUE: ammunition_bit_string_comparison:bit_displacement2 <- EBX
	movb	%bl, %cl
	shll	%cl, %r15d
	movl	$32, %edi
	movl	$11, %esi
	movl	$1, %edx
	movl	$14, %ecx
	movl	$1, %r8d
	callq	_KTimestamp2
	callq	_KPopCDep
	testl	%ebx, %ebx
.Ltmp290:
	#DEBUG_VALUE: ammunition_bit_string_comparison:bit_displacement2 <- [RBP+-100]
	.loc	1 287 17 is_stmt 0      # bits.c:287:17
	movzbl	%r15b, %eax
	je	.LBB5_7
# BB#8:                                 # %land.lhs.true16
                                        #   in Loop: Header=BB5_3 Depth=1
	#DEBUG_VALUE: ammunition_bit_string_comparison:bit_displacement1 <- [RBP+-104]
	#DEBUG_VALUE: ammunition_bit_string_comparison:bit_displacement2 <- [RBP+-100]
	movl	%eax, -64(%rbp)         # 4-byte Spill
	movl	$32, %edi
	callq	_KPushCDep
	movl	$2, %edi
	callq	_KWork
	movl	$1, (%rsp)
	movl	$33, %r15d
	movl	$33, %edi
	movl	$11, %esi
	movl	$3, %edx
	movl	$14, %ecx
	movl	$3, %r8d
	movl	$9, %r9d
	callq	_KTimestamp3
	callq	_KPopCDep
	.loc	1 288 19 is_stmt 1      # bits.c:288:19
	movl	-112(%rbp), %eax        # 4-byte Reload
	cmpl	%eax, -44(%rbp)         # 4-byte Folded Reload
	movl	$0, %r14d
	movl	$0, %ebx
	jle	.LBB5_10
# BB#9:                                 # %cond.true20
                                        #   in Loop: Header=BB5_3 Depth=1
	#DEBUG_VALUE: ammunition_bit_string_comparison:bit_displacement1 <- [RBP+-104]
	#DEBUG_VALUE: ammunition_bit_string_comparison:bit_displacement2 <- [RBP+-100]
	movl	$33, %r15d
	movl	$33, %edi
	callq	_KPushCDep
	movl	$6, %edi
	callq	_KWork
	movq	-96(%rbp), %rbx         # 8-byte Reload
	movq	-56(%rbp), %r14         # 8-byte Reload
	leaq	1(%rbx,%r14), %rdi
	movl	$7, %esi
	movl	$1, %edx
	callq	_KLoad0
	.loc	1 290 21                # bits.c:290:21
	movzbl	1(%rbx,%r14), %r14d
	movl	-112(%rbp), %ecx        # 4-byte Reload
                                        # kill: CL<def> CL<kill> ECX<kill>
	shrl	%cl, %r14d
	movl	$1, 16(%rsp)
	movl	$7, 8(%rsp)
	movl	$3, (%rsp)
	movl	$31, %ebx
	movl	$31, %edi
	movl	$11, %esi
	movl	$5, %edx
	movl	$14, %ecx
	movl	$5, %r8d
	movl	$9, %r9d
	callq	_KTimestamp4
	callq	_KPopCDep
	jmp	.LBB5_10
	.align	16, 0x90
.LBB5_7:                                #   in Loop: Header=BB5_3 Depth=1
	#DEBUG_VALUE: ammunition_bit_string_comparison:bit_displacement1 <- [RBP+-104]
	#DEBUG_VALUE: ammunition_bit_string_comparison:bit_displacement2 <- [RBP+-100]
	movl	%eax, -64(%rbp)         # 4-byte Spill
	xorl	%r15d, %r15d
	xorl	%r14d, %r14d
	xorl	%ebx, %ebx
.LBB5_10:                               # %cond.end26
                                        #   in Loop: Header=BB5_3 Depth=1
	#DEBUG_VALUE: ammunition_bit_string_comparison:bit_displacement1 <- [RBP+-104]
	#DEBUG_VALUE: ammunition_bit_string_comparison:bit_displacement2 <- [RBP+-100]
	.loc	1 280 15                # bits.c:280:15
	orl	%r13d, %r12d
.Ltmp291:
	#DEBUG_VALUE: ammunition_bit_string_comparison:byte1 <- R12D
	movl	$11, %edi
	callq	_KPushCDep
	movl	$16, %edi
	movl	$11, %edx
	movl	$32, %ecx
	movl	%ebx, %esi
	movl	%r15d, %r8d
	callq	_KPhi3To1
	movl	$2, %edi
	callq	_KWork
	.loc	1 287 15                # bits.c:287:15
	orl	-64(%rbp), %r14d        # 4-byte Folded Reload
.Ltmp292:
	#DEBUG_VALUE: ammunition_bit_string_comparison:byte2 <- R14D
	movl	$17, %edi
	movl	$11, %esi
	movl	$1, %edx
	movl	$9, %ecx
	movl	$1, %r8d
	callq	_KTimestamp2
	callq	_KPopCDep
	.loc	1 292 10                # bits.c:292:10
.Ltmp293:
	cmpl	$9, -44(%rbp)           # 4-byte Folded Reload
.Ltmp294:
	.loc	1 292 10 is_stmt 0      # bits.c:292:10
	jl	.LBB5_16
.Ltmp295:
# BB#11:                                # %if.end32
                                        #   in Loop: Header=BB5_3 Depth=1
	#DEBUG_VALUE: ammunition_bit_string_comparison:bit_displacement1 <- [RBP+-104]
	#DEBUG_VALUE: ammunition_bit_string_comparison:bit_displacement2 <- [RBP+-100]
	#DEBUG_VALUE: ammunition_bit_string_comparison:byte1 <- R12D
	#DEBUG_VALUE: ammunition_bit_string_comparison:byte2 <- R14D
	movl	$17, %edi
	callq	_KPushCDep
	movl	$1, %edi
	callq	_KWork
	movl	$2, 64(%rsp)
	movl	$16, 56(%rsp)
	movl	$4, 48(%rsp)
	movl	$6, 40(%rsp)
	movl	$2, 32(%rsp)
	movl	$15, 24(%rsp)
	movl	$2, 16(%rsp)
	movl	$13, 8(%rsp)
	movl	$2, (%rsp)
	movl	$18, %edi
	movl	$11, %esi
	movl	$4, %edx
	movl	$14, %ecx
	movl	$4, %r8d
	movl	$9, %r9d
	callq	_KTimestamp7
	callq	_KPopCDep
	.loc	1 294 10 is_stmt 1      # bits.c:294:10
	cmpl	%r14d, %r12d
	jg	.LBB5_12
.Ltmp296:
# BB#13:                                # %if.else
                                        #   in Loop: Header=BB5_3 Depth=1
	#DEBUG_VALUE: ammunition_bit_string_comparison:bit_displacement1 <- [RBP+-104]
	#DEBUG_VALUE: ammunition_bit_string_comparison:bit_displacement2 <- [RBP+-100]
	#DEBUG_VALUE: ammunition_bit_string_comparison:byte1 <- R12D
	#DEBUG_VALUE: ammunition_bit_string_comparison:byte2 <- R14D
	movl	$18, %edi
	callq	_KPushCDep
	movl	$1, %edi
	callq	_KWork
	movl	$3, 64(%rsp)
	movl	$16, 56(%rsp)
	movl	$5, 48(%rsp)
	movl	$6, 40(%rsp)
	movl	$3, 32(%rsp)
	movl	$15, 24(%rsp)
	movl	$3, 16(%rsp)
	movl	$13, 8(%rsp)
	movl	$3, (%rsp)
	movl	$19, %edi
	movl	$11, %esi
	movl	$5, %edx
	movl	$14, %ecx
	movl	$5, %r8d
	movl	$9, %r9d
	callq	_KTimestamp7
	callq	_KPopCDep
	.loc	1 297 12                # bits.c:297:12
.Ltmp297:
	cmpl	%r14d, %r12d
	jge	.LBB5_15
.Ltmp298:
# BB#14:                                # %if.else.pre_exit.if.then38
	movl	$2, %esi
	movabsq	$-1416605091148889671, %rdi # imm = 0xEC57352CD30F81B9
	callq	_KExitRegion
	movl	$1, %esi
	movabsq	$-384731738018305285, %rdi # imm = 0xFAA92885CD99AAFB
	callq	_KExitRegion
	movl	$19, %edi
	callq	_KPushCDep
	callq	_KPopCDep
	movl	$-1, %r13d
	jmp	.LBB5_19
.LBB5_1:                                # %if.then
	callq	_KPopCDep
	xorl	%r13d, %r13d
	jmp	.LBB5_20
.LBB5_16:                               # %cond.end26.pre_exit.while.end
.Ltmp299:
	#DEBUG_VALUE: ammunition_bit_string_comparison:byte1 <- R12D
	#DEBUG_VALUE: ammunition_bit_string_comparison:byte2 <- R14D
	movl	$2, %esi
	movabsq	$-1416605091148889671, %rdi # imm = 0xEC57352CD30F81B9
	callq	_KExitRegion
	movl	$1, %r13d
	movl	$1, %esi
	movabsq	$-384731738018305285, %rdi # imm = 0xFAA92885CD99AAFB
	callq	_KExitRegion
	movl	$17, %edi
	callq	_KPushCDep
	movl	$5, %edi
	callq	_KWork
	movl	$8, %ecx
	.loc	1 305 25                # bits.c:305:25
	subl	-44(%rbp), %ecx         # 4-byte Folded Reload
	movl	$255, %eax
	.loc	1 305 10 is_stmt 0      # bits.c:305:10
                                        # kill: CL<def> CL<kill> ECX<kill>
	shll	%cl, %eax
.Ltmp300:
	#DEBUG_VALUE: ammunition_bit_string_comparison:mask <- EAX
	.loc	1 306 10 is_stmt 1      # bits.c:306:10
	andl	%eax, %r12d
.Ltmp301:
	.loc	1 306 29 is_stmt 0      # bits.c:306:29
	andl	%eax, %r14d
.Ltmp302:
	movl	$3, 64(%rsp)
	movl	$16, 56(%rsp)
	movl	$5, 48(%rsp)
	movl	$6, 40(%rsp)
	movl	$3, 32(%rsp)
	movl	$15, 24(%rsp)
	movl	$3, 16(%rsp)
	movl	$13, 8(%rsp)
	movl	$5, (%rsp)
	movl	$34, %edi
	movl	$11, %esi
	movl	$5, %edx
	movl	$14, %ecx
	movl	$5, %r8d
	movl	$9, %r9d
	callq	_KTimestamp7
	callq	_KPopCDep
	movl	$34, %edi
	callq	_KPushCDep
.Ltmp303:
	.loc	1 306 8                 # bits.c:306:8
	cmpl	%r14d, %r12d
	jle	.LBB5_18
.Ltmp304:
# BB#17:                                # %if.then49
	callq	_KPopCDep
	jmp	.LBB5_19
.LBB5_12:                               # %if.end32.pre_exit.if.then35
	movl	$2, %esi
	movabsq	$-1416605091148889671, %rdi # imm = 0xEC57352CD30F81B9
	callq	_KExitRegion
	movl	$1, %r13d
	movl	$1, %esi
	movabsq	$-384731738018305285, %rdi # imm = 0xFAA92885CD99AAFB
	callq	_KExitRegion
	movl	$18, %edi
	callq	_KPushCDep
	callq	_KPopCDep
	jmp	.LBB5_19
.LBB5_18:                               # %if.else50
	movl	$3, %edi
	callq	_KWork
	movl	$5, 64(%rsp)
	movl	$16, 56(%rsp)
	movl	$7, 48(%rsp)
	movl	$6, 40(%rsp)
	movl	$5, 32(%rsp)
	movl	$15, 24(%rsp)
	movl	$5, 16(%rsp)
	movl	$13, 8(%rsp)
	movl	$7, (%rsp)
	movl	$35, %edi
	movl	$11, %esi
	movl	$7, %edx
	movl	$14, %ecx
	movl	$7, %r8d
	movl	$9, %r9d
	callq	_KTimestamp7
	callq	_KPopCDep
	movl	$35, %edi
	callq	_KPushCDep
	callq	_KPopCDep
	xorl	%eax, %eax
	.loc	1 310 7 is_stmt 1       # bits.c:310:7
.Ltmp305:
	cmpl	%r14d, %r12d
	movl	$-1, %r13d
	cmovgel	%eax, %r13d
.Ltmp306:
.LBB5_19:                               # %return
	movabsq	$4306839829388493607, %rbx # imm = 0x3BC4F80197348327
	movq	%rbx, %r15
.LBB5_20:                               # %return
	movl	$8, %edi
	xorl	%esi, %esi
	movl	$11, %edx
	callq	_KPhi1To1
	movl	$8, %edi
	movl	$8, %esi
	xorl	%edx, %edx
	callq	_KTimestamp1
	movl	$8, %edi
	callq	_KReturn
	xorl	%esi, %esi
	movq	%r15, %rdi
	callq	_KExitRegion
	.loc	1 313 1                 # bits.c:313:1
	movl	%r13d, %eax
	addq	$168, %rsp
	popq	%rbx
	popq	%r12
	popq	%r13
	popq	%r14
	popq	%r15
	popq	%rbp
	retq
.Ltmp307:
.Ltmp308:
	.size	ammunition_bit_string_comparison, .Ltmp308-ammunition_bit_string_comparison
.Lfunc_end5:
	.cfi_endproc

	.type	krem_prefixcc7aec548791c4f0_krem_callsiteId_krem_bits.c_krem_ammunition_bit_string_move_krem_245_krem_245_krem_,@object # @krem_prefixcc7aec548791c4f0_krem_callsiteId_krem_bits.c_krem_ammunition_bit_string_move_krem_245_krem_245_krem_
	.bss
	.globl	krem_prefixcc7aec548791c4f0_krem_callsiteId_krem_bits.c_krem_ammunition_bit_string_move_krem_245_krem_245_krem_
krem_prefixcc7aec548791c4f0_krem_callsiteId_krem_bits.c_krem_ammunition_bit_string_move_krem_245_krem_245_krem_:
	.byte	0                       # 0x0
	.size	krem_prefixcc7aec548791c4f0_krem_callsiteId_krem_bits.c_krem_ammunition_bit_string_move_krem_245_krem_245_krem_, 1

	.type	krem_prefix3ca03bd07147fdbf_krem_callsiteId_krem_bits.c_krem_ammunition_bit_string_move_krem_249_krem_249_krem_,@object # @krem_prefix3ca03bd07147fdbf_krem_callsiteId_krem_bits.c_krem_ammunition_bit_string_move_krem_249_krem_249_krem_
	.globl	krem_prefix3ca03bd07147fdbf_krem_callsiteId_krem_bits.c_krem_ammunition_bit_string_move_krem_249_krem_249_krem_
krem_prefix3ca03bd07147fdbf_krem_callsiteId_krem_bits.c_krem_ammunition_bit_string_move_krem_249_krem_249_krem_:
	.byte	0                       # 0x0
	.size	krem_prefix3ca03bd07147fdbf_krem_callsiteId_krem_bits.c_krem_ammunition_bit_string_move_krem_249_krem_249_krem_, 1

	.type	krem_prefix08d84aa8f80b3b8b_krem_func_krem_bits.c_krem_ammunition_is_zero_bit_string_krem_25_krem_25_krem_,@object # @krem_prefix08d84aa8f80b3b8b_krem_func_krem_bits.c_krem_ammunition_is_zero_bit_string_krem_25_krem_25_krem_
	.globl	krem_prefix08d84aa8f80b3b8b_krem_func_krem_bits.c_krem_ammunition_is_zero_bit_string_krem_25_krem_25_krem_
krem_prefix08d84aa8f80b3b8b_krem_func_krem_bits.c_krem_ammunition_is_zero_bit_string_krem_25_krem_25_krem_:
	.byte	0                       # 0x0
	.size	krem_prefix08d84aa8f80b3b8b_krem_func_krem_bits.c_krem_ammunition_is_zero_bit_string_krem_25_krem_25_krem_, 1

	.type	krem_prefix0fd01c58a5e477ec_krem_func_krem_bits.c_krem_ammunition_bit_string_set_krem_63_krem_63_krem_,@object # @krem_prefix0fd01c58a5e477ec_krem_func_krem_bits.c_krem_ammunition_bit_string_set_krem_63_krem_63_krem_
	.globl	krem_prefix0fd01c58a5e477ec_krem_func_krem_bits.c_krem_ammunition_bit_string_set_krem_63_krem_63_krem_
krem_prefix0fd01c58a5e477ec_krem_func_krem_bits.c_krem_ammunition_bit_string_set_krem_63_krem_63_krem_:
	.byte	0                       # 0x0
	.size	krem_prefix0fd01c58a5e477ec_krem_func_krem_bits.c_krem_ammunition_bit_string_set_krem_63_krem_63_krem_, 1

	.type	krem_prefix18e26e9ff6985833_krem_loop_body_krem_bits.c_krem_ammunition_is_zero_bit_string_krem_26_krem_50_krem_,@object # @krem_prefix18e26e9ff6985833_krem_loop_body_krem_bits.c_krem_ammunition_is_zero_bit_string_krem_26_krem_50_krem_
	.globl	krem_prefix18e26e9ff6985833_krem_loop_body_krem_bits.c_krem_ammunition_is_zero_bit_string_krem_26_krem_50_krem_
krem_prefix18e26e9ff6985833_krem_loop_body_krem_bits.c_krem_ammunition_is_zero_bit_string_krem_26_krem_50_krem_:
	.byte	0                       # 0x0
	.size	krem_prefix18e26e9ff6985833_krem_loop_body_krem_bits.c_krem_ammunition_is_zero_bit_string_krem_26_krem_50_krem_, 1

	.type	krem_prefix3bc4f80197348327_krem_func_krem_bits.c_krem_ammunition_bit_string_comparison_krem_262_krem_262_krem_,@object # @krem_prefix3bc4f80197348327_krem_func_krem_bits.c_krem_ammunition_bit_string_comparison_krem_262_krem_262_krem_
	.globl	krem_prefix3bc4f80197348327_krem_func_krem_bits.c_krem_ammunition_bit_string_comparison_krem_262_krem_262_krem_
krem_prefix3bc4f80197348327_krem_func_krem_bits.c_krem_ammunition_bit_string_comparison_krem_262_krem_262_krem_:
	.byte	0                       # 0x0
	.size	krem_prefix3bc4f80197348327_krem_func_krem_bits.c_krem_ammunition_bit_string_comparison_krem_262_krem_262_krem_, 1

	.type	krem_prefix3c7f9c648ddfe012_krem_loop_krem_bits.c_krem_ammunition_bit_string_copy_krem_105_krem_139_krem_,@object # @krem_prefix3c7f9c648ddfe012_krem_loop_krem_bits.c_krem_ammunition_bit_string_copy_krem_105_krem_139_krem_
	.globl	krem_prefix3c7f9c648ddfe012_krem_loop_krem_bits.c_krem_ammunition_bit_string_copy_krem_105_krem_139_krem_
krem_prefix3c7f9c648ddfe012_krem_loop_krem_bits.c_krem_ammunition_bit_string_copy_krem_105_krem_139_krem_:
	.byte	0                       # 0x0
	.size	krem_prefix3c7f9c648ddfe012_krem_loop_krem_bits.c_krem_ammunition_bit_string_copy_krem_105_krem_139_krem_, 1

	.type	krem_prefix4d21158b6ad9e555_krem_loop_body_krem_bits.c_krem_ammunition_bit_string_copy_krem_105_krem_139_krem_,@object # @krem_prefix4d21158b6ad9e555_krem_loop_body_krem_bits.c_krem_ammunition_bit_string_copy_krem_105_krem_139_krem_
	.globl	krem_prefix4d21158b6ad9e555_krem_loop_body_krem_bits.c_krem_ammunition_bit_string_copy_krem_105_krem_139_krem_
krem_prefix4d21158b6ad9e555_krem_loop_body_krem_bits.c_krem_ammunition_bit_string_copy_krem_105_krem_139_krem_:
	.byte	0                       # 0x0
	.size	krem_prefix4d21158b6ad9e555_krem_loop_body_krem_bits.c_krem_ammunition_bit_string_copy_krem_105_krem_139_krem_, 1

	.type	krem_prefix63a5c3bc7d2659e8_krem_loop_krem_bits.c_krem_ammunition_is_zero_bit_string_krem_26_krem_50_krem_,@object # @krem_prefix63a5c3bc7d2659e8_krem_loop_krem_bits.c_krem_ammunition_is_zero_bit_string_krem_26_krem_50_krem_
	.globl	krem_prefix63a5c3bc7d2659e8_krem_loop_krem_bits.c_krem_ammunition_is_zero_bit_string_krem_26_krem_50_krem_
krem_prefix63a5c3bc7d2659e8_krem_loop_krem_bits.c_krem_ammunition_is_zero_bit_string_krem_26_krem_50_krem_:
	.byte	0                       # 0x0
	.size	krem_prefix63a5c3bc7d2659e8_krem_loop_krem_bits.c_krem_ammunition_is_zero_bit_string_krem_26_krem_50_krem_, 1

	.type	krem_prefix68d01b298615a606_krem_func_krem_bits.c_krem_ammunition_reverse_bit_string_copy_krem_162_krem_162_krem_,@object # @krem_prefix68d01b298615a606_krem_func_krem_bits.c_krem_ammunition_reverse_bit_string_copy_krem_162_krem_162_krem_
	.globl	krem_prefix68d01b298615a606_krem_func_krem_bits.c_krem_ammunition_reverse_bit_string_copy_krem_162_krem_162_krem_
krem_prefix68d01b298615a606_krem_func_krem_bits.c_krem_ammunition_reverse_bit_string_copy_krem_162_krem_162_krem_:
	.byte	0                       # 0x0
	.size	krem_prefix68d01b298615a606_krem_func_krem_bits.c_krem_ammunition_reverse_bit_string_copy_krem_162_krem_162_krem_, 1

	.type	krem_prefix6eae34b448227a81_krem_loop_krem_bits.c_krem_ammunition_reverse_bit_string_copy_krem_164_krem_203_krem_,@object # @krem_prefix6eae34b448227a81_krem_loop_krem_bits.c_krem_ammunition_reverse_bit_string_copy_krem_164_krem_203_krem_
	.globl	krem_prefix6eae34b448227a81_krem_loop_krem_bits.c_krem_ammunition_reverse_bit_string_copy_krem_164_krem_203_krem_
krem_prefix6eae34b448227a81_krem_loop_krem_bits.c_krem_ammunition_reverse_bit_string_copy_krem_164_krem_203_krem_:
	.byte	0                       # 0x0
	.size	krem_prefix6eae34b448227a81_krem_loop_krem_bits.c_krem_ammunition_reverse_bit_string_copy_krem_164_krem_203_krem_, 1

	.type	krem_prefix7a7d614e5227ba28_krem_func_krem_bits.c_krem_ammunition_bit_string_copy_krem_103_krem_103_krem_,@object # @krem_prefix7a7d614e5227ba28_krem_func_krem_bits.c_krem_ammunition_bit_string_copy_krem_103_krem_103_krem_
	.globl	krem_prefix7a7d614e5227ba28_krem_func_krem_bits.c_krem_ammunition_bit_string_copy_krem_103_krem_103_krem_
krem_prefix7a7d614e5227ba28_krem_func_krem_bits.c_krem_ammunition_bit_string_copy_krem_103_krem_103_krem_:
	.byte	0                       # 0x0
	.size	krem_prefix7a7d614e5227ba28_krem_func_krem_bits.c_krem_ammunition_bit_string_copy_krem_103_krem_103_krem_, 1

	.type	krem_prefix84a58632c0b099b0_krem_func_krem_bits.c_krem_ammunition_bit_string_move_krem_229_krem_229_krem_,@object # @krem_prefix84a58632c0b099b0_krem_func_krem_bits.c_krem_ammunition_bit_string_move_krem_229_krem_229_krem_
	.globl	krem_prefix84a58632c0b099b0_krem_func_krem_bits.c_krem_ammunition_bit_string_move_krem_229_krem_229_krem_
krem_prefix84a58632c0b099b0_krem_func_krem_bits.c_krem_ammunition_bit_string_move_krem_229_krem_229_krem_:
	.byte	0                       # 0x0
	.size	krem_prefix84a58632c0b099b0_krem_func_krem_bits.c_krem_ammunition_bit_string_move_krem_229_krem_229_krem_, 1

	.type	krem_prefix8cc6d29fe0f3a483_krem_loop_body_krem_bits.c_krem_ammunition_reverse_bit_string_copy_krem_164_krem_203_krem_,@object # @krem_prefix8cc6d29fe0f3a483_krem_loop_body_krem_bits.c_krem_ammunition_reverse_bit_string_copy_krem_164_krem_203_krem_
	.globl	krem_prefix8cc6d29fe0f3a483_krem_loop_body_krem_bits.c_krem_ammunition_reverse_bit_string_copy_krem_164_krem_203_krem_
krem_prefix8cc6d29fe0f3a483_krem_loop_body_krem_bits.c_krem_ammunition_reverse_bit_string_copy_krem_164_krem_203_krem_:
	.byte	0                       # 0x0
	.size	krem_prefix8cc6d29fe0f3a483_krem_loop_body_krem_bits.c_krem_ammunition_reverse_bit_string_copy_krem_164_krem_203_krem_, 1

	.type	krem_prefix9ca6e807c24d958d_krem_loop_body_krem_bits.c_krem_ammunition_bit_string_set_krem_64_krem_88_krem_,@object # @krem_prefix9ca6e807c24d958d_krem_loop_body_krem_bits.c_krem_ammunition_bit_string_set_krem_64_krem_88_krem_
	.globl	krem_prefix9ca6e807c24d958d_krem_loop_body_krem_bits.c_krem_ammunition_bit_string_set_krem_64_krem_88_krem_
krem_prefix9ca6e807c24d958d_krem_loop_body_krem_bits.c_krem_ammunition_bit_string_set_krem_64_krem_88_krem_:
	.byte	0                       # 0x0
	.size	krem_prefix9ca6e807c24d958d_krem_loop_body_krem_bits.c_krem_ammunition_bit_string_set_krem_64_krem_88_krem_, 1

	.type	krem_prefix9ed5902fa40e00c4_krem_loop_krem_bits.c_krem_ammunition_bit_string_set_krem_64_krem_88_krem_,@object # @krem_prefix9ed5902fa40e00c4_krem_loop_krem_bits.c_krem_ammunition_bit_string_set_krem_64_krem_88_krem_
	.globl	krem_prefix9ed5902fa40e00c4_krem_loop_krem_bits.c_krem_ammunition_bit_string_set_krem_64_krem_88_krem_
krem_prefix9ed5902fa40e00c4_krem_loop_krem_bits.c_krem_ammunition_bit_string_set_krem_64_krem_88_krem_:
	.byte	0                       # 0x0
	.size	krem_prefix9ed5902fa40e00c4_krem_loop_krem_bits.c_krem_ammunition_bit_string_set_krem_64_krem_88_krem_, 1

	.type	krem_prefixec57352cd30f81b9_krem_loop_body_krem_bits.c_krem_ammunition_bit_string_comparison_krem_264_krem_301_krem_,@object # @krem_prefixec57352cd30f81b9_krem_loop_body_krem_bits.c_krem_ammunition_bit_string_comparison_krem_264_krem_301_krem_
	.globl	krem_prefixec57352cd30f81b9_krem_loop_body_krem_bits.c_krem_ammunition_bit_string_comparison_krem_264_krem_301_krem_
krem_prefixec57352cd30f81b9_krem_loop_body_krem_bits.c_krem_ammunition_bit_string_comparison_krem_264_krem_301_krem_:
	.byte	0                       # 0x0
	.size	krem_prefixec57352cd30f81b9_krem_loop_body_krem_bits.c_krem_ammunition_bit_string_comparison_krem_264_krem_301_krem_, 1

	.type	krem_prefixfaa92885cd99aafb_krem_loop_krem_bits.c_krem_ammunition_bit_string_comparison_krem_264_krem_301_krem_,@object # @krem_prefixfaa92885cd99aafb_krem_loop_krem_bits.c_krem_ammunition_bit_string_comparison_krem_264_krem_301_krem_
	.globl	krem_prefixfaa92885cd99aafb_krem_loop_krem_bits.c_krem_ammunition_bit_string_comparison_krem_264_krem_301_krem_
krem_prefixfaa92885cd99aafb_krem_loop_krem_bits.c_krem_ammunition_bit_string_comparison_krem_264_krem_301_krem_:
	.byte	0                       # 0x0
	.size	krem_prefixfaa92885cd99aafb_krem_loop_krem_bits.c_krem_ammunition_bit_string_comparison_krem_264_krem_301_krem_, 1

	.text
.Ldebug_end0:
	.section	".note.GNU-stack","",@progbits