	.text
	.file	"statemate.simplifycfg.mem2reg.indvars.elimsinglephis.criticalpath.regioninstrument.renamemain.O3.bc"
	.text
	.globl	statemate_init
	.align	16, 0x90
	.type	statemate_init,@function
statemate_init:                         # @statemate_init
.Lfunc_begin0:
	.loc	1 199 0                 # statemate.c:199:0
	.cfi_startproc
# BB#0:                                 # %entry
	pushq	%rbp
.Ltmp0:
	.cfi_def_cfa_offset 16
.Ltmp1:
	.cfi_offset %rbp, -16
	movq	%rsp, %rbp
.Ltmp2:
	.cfi_def_cfa_register %rbp
	pushq	%rbx
	pushq	%rax
.Ltmp3:
	.cfi_offset %rbx, -24
	movabsq	$2356133418581303448, %rbx # imm = 0x20B2AADC61F72098
	xorl	%esi, %esi
	movq	%rbx, %rdi
	callq	_KEnterRegion
	movl	$1, %edi
	xorl	%esi, %esi
	callq	_KPrepRTable
	movl	$19, %edi
	callq	_KWork
	movl	$statemate_tm_entered_EINSCHALTSTROM_MESSEN_BLOCK_ERKENNUNG_CTRLch_BLOCK_ERKENNUNG_CTRL__N_copy, %edi
	movl	$8, %esi
	callq	_KStoreConst
	.loc	1 200 3 prologue_end    # statemate.c:200:3
.Ltmp4:
	movq	$0, statemate_tm_entered_EINSCHALTSTROM_MESSEN_BLOCK_ERKENNUNG_CTRLch_BLOCK_ERKENNUNG_CTRL__N_copy(%rip)
	movl	$statemate_tm_entered_WIEDERHOLSPERRE_FH_TUERMODUL_CTRLexited_BEREIT_FH_TUERMODUL_CTRL, %edi
	movl	$8, %esi
	callq	_KStoreConst
	.loc	1 202 3                 # statemate.c:202:3
	movq	$0, statemate_tm_entered_WIEDERHOLSPERRE_FH_TUERMODUL_CTRLexited_BEREIT_FH_TUERMODUL_CTRL(%rip)
	movl	$statemate_tm_entered_WIEDERHOLSPERRE_FH_TUERMODUL_CTRL, %edi
	movl	$8, %esi
	callq	_KStoreConst
	.loc	1 204 3                 # statemate.c:204:3
	movq	$0, statemate_tm_entered_WIEDERHOLSPERRE_FH_TUERMODUL_CTRL(%rip)
	movl	$statemate_NICHT_INITIALISIERT_NICHT_INITIALISIERT_next_state, %edi
	movl	$1, %esi
	callq	_KStoreConst
	.loc	1 205 3                 # statemate.c:205:3
	movb	$0, statemate_NICHT_INITIALISIERT_NICHT_INITIALISIERT_next_state(%rip)
	movl	$statemate_ZENTRAL_KINDERSICHERUNG_CTRL_next_state, %edi
	movl	$1, %esi
	callq	_KStoreConst
	.loc	1 206 3                 # statemate.c:206:3
	movb	$0, statemate_ZENTRAL_KINDERSICHERUNG_CTRL_next_state(%rip)
	movl	$statemate_MEC_KINDERSICHERUNG_CTRL_next_state, %edi
	movl	$1, %esi
	callq	_KStoreConst
	.loc	1 207 3                 # statemate.c:207:3
	movb	$0, statemate_MEC_KINDERSICHERUNG_CTRL_next_state(%rip)
	movl	$statemate_KINDERSICHERUNG_CTRL_KINDERSICHERUNG_CTRL_next_state, %edi
	movl	$1, %esi
	callq	_KStoreConst
	.loc	1 208 3                 # statemate.c:208:3
	movb	$0, statemate_KINDERSICHERUNG_CTRL_KINDERSICHERUNG_CTRL_next_state(%rip)
	movl	$statemate_B_FH_TUERMODUL_CTRL_next_state, %edi
	movl	$1, %esi
	callq	_KStoreConst
	.loc	1 209 3                 # statemate.c:209:3
	movb	$0, statemate_B_FH_TUERMODUL_CTRL_next_state(%rip)
	movl	$statemate_A_FH_TUERMODUL_CTRL_next_state, %edi
	movl	$1, %esi
	callq	_KStoreConst
	.loc	1 210 3                 # statemate.c:210:3
	movb	$0, statemate_A_FH_TUERMODUL_CTRL_next_state(%rip)
	movl	$statemate_WIEDERHOLSPERRE_FH_TUERMODUL_CTRL_next_state, %edi
	movl	$1, %esi
	callq	_KStoreConst
	.loc	1 211 3                 # statemate.c:211:3
	movb	$0, statemate_WIEDERHOLSPERRE_FH_TUERMODUL_CTRL_next_state(%rip)
	movl	$statemate_INITIALISIERT_FH_TUERMODUL_CTRL_next_state, %edi
	movl	$1, %esi
	callq	_KStoreConst
	.loc	1 212 3                 # statemate.c:212:3
	movb	$0, statemate_INITIALISIERT_FH_TUERMODUL_CTRL_next_state(%rip)
	movl	$statemate_TIPP_SCHLIESSEN_FH_TUERMODUL_CTRL_next_state, %edi
	movl	$1, %esi
	callq	_KStoreConst
	.loc	1 213 3                 # statemate.c:213:3
	movb	$0, statemate_TIPP_SCHLIESSEN_FH_TUERMODUL_CTRL_next_state(%rip)
	movl	$statemate_MANUELL_SCHLIESSEN_FH_TUERMODUL_CTRL_next_state, %edi
	movl	$1, %esi
	callq	_KStoreConst
	.loc	1 214 3                 # statemate.c:214:3
	movb	$0, statemate_MANUELL_SCHLIESSEN_FH_TUERMODUL_CTRL_next_state(%rip)
	movl	$statemate_OEFFNEN_FH_TUERMODUL_CTRL_next_state, %edi
	movl	$1, %esi
	callq	_KStoreConst
	.loc	1 215 3                 # statemate.c:215:3
	movb	$0, statemate_OEFFNEN_FH_TUERMODUL_CTRL_next_state(%rip)
	movl	$statemate_SCHLIESSEN_FH_TUERMODUL_CTRL_next_state, %edi
	movl	$1, %esi
	callq	_KStoreConst
	.loc	1 216 3                 # statemate.c:216:3
	movb	$0, statemate_SCHLIESSEN_FH_TUERMODUL_CTRL_next_state(%rip)
	movl	$statemate_FH_STEUERUNG_DUMMY_FH_STEUERUNG_DUMMY_next_state, %edi
	movl	$1, %esi
	callq	_KStoreConst
	.loc	1 217 3                 # statemate.c:217:3
	movb	$0, statemate_FH_STEUERUNG_DUMMY_FH_STEUERUNG_DUMMY_next_state(%rip)
	movl	$statemate_EINKLEMMSCHUTZ_CTRL_EINKLEMMSCHUTZ_CTRL_next_state, %edi
	movl	$1, %esi
	callq	_KStoreConst
	.loc	1 218 3                 # statemate.c:218:3
	movb	$0, statemate_EINKLEMMSCHUTZ_CTRL_EINKLEMMSCHUTZ_CTRL_next_state(%rip)
	movl	$statemate_BEWEGUNG_BLOCK_ERKENNUNG_CTRL_next_state, %edi
	movl	$1, %esi
	callq	_KStoreConst
	.loc	1 219 3                 # statemate.c:219:3
	movb	$0, statemate_BEWEGUNG_BLOCK_ERKENNUNG_CTRL_next_state(%rip)
	movl	$statemate_BLOCK_ERKENNUNG_CTRL_BLOCK_ERKENNUNG_CTRL_next_state, %edi
	movl	$1, %esi
	callq	_KStoreConst
	.loc	1 220 3                 # statemate.c:220:3
	movb	$0, statemate_BLOCK_ERKENNUNG_CTRL_BLOCK_ERKENNUNG_CTRL_next_state(%rip)
	movabsq	$-5291593108550152043, %rdi # imm = 0xB6907C1A94F69095
	xorl	%esi, %esi
	callq	_KPrepCall
	.loc	1 222 3                 # statemate.c:222:3
	callq	statemate_interface
	xorl	%esi, %esi
	movq	%rbx, %rdi
	addq	$8, %rsp
	popq	%rbx
	popq	%rbp
	jmp	_KExitRegion            # TAILCALL
.Ltmp5:
.Ltmp6:
	.size	statemate_init, .Ltmp6-statemate_init
.Lfunc_end0:
	.cfi_endproc

	.globl	statemate_interface
	.align	16, 0x90
	.type	statemate_interface,@function
statemate_interface:                    # @statemate_interface
.Lfunc_begin1:
	.loc	1 227 0                 # statemate.c:227:0
	.cfi_startproc
# BB#0:                                 # %entry
	pushq	%rbp
.Ltmp7:
	.cfi_def_cfa_offset 16
.Ltmp8:
	.cfi_offset %rbp, -16
	movq	%rsp, %rbp
.Ltmp9:
	.cfi_def_cfa_register %rbp
	pushq	%r15
	pushq	%r14
	pushq	%rbx
	pushq	%rax
.Ltmp10:
	.cfi_offset %rbx, -40
.Ltmp11:
	.cfi_offset %r14, -32
.Ltmp12:
	.cfi_offset %r15, -24
	movabsq	$4393124986920960315, %r14 # imm = 0x3CF783E65B51013B
	xorl	%esi, %esi
	movq	%r14, %rdi
	callq	_KEnterRegion
	movl	$40, %edi
	xorl	%esi, %esi
	callq	_KPrepRTable
	movl	$statemate_bitlist+4, %edi
	movl	$1, %esi
	movl	$1, %edx
	callq	_KLoad0
	movl	$5, %edi
	callq	_KWork
	.loc	1 228 8 prologue_end    # statemate.c:228:8
.Ltmp13:
	movb	statemate_bitlist+4(%rip), %bl
	movl	$25, %edi
	movl	$1, %esi
	movl	$1, %edx
	callq	_KTimestamp1
	cmpb	$0, %bl
	je	.LBB1_2
# BB#1:                                 # %if.then
	movl	$25, %edi
	callq	_KPushCDep
	movl	$statemate_time, %edi
	movl	$2, %esi
	movl	$8, %edx
	callq	_KLoad0
	movl	$5, %edi
	callq	_KWork
	.loc	1 230 62                # statemate.c:230:62
.Ltmp14:
	movq	statemate_time(%rip), %rbx
	movl	$2, %edi
	movl	$2, %esi
	xorl	%edx, %edx
	callq	_KTimestamp1
	movl	$2, %edi
	movl	$statemate_tm_entered_WIEDERHOLSPERRE_FH_TUERMODUL_CTRL, %esi
	movl	$8, %edx
	callq	_KStore
	.loc	1 230 5 is_stmt 0       # statemate.c:230:5
	movq	%rbx, statemate_tm_entered_WIEDERHOLSPERRE_FH_TUERMODUL_CTRL(%rip)
	callq	_KPopCDep
.Ltmp15:
.LBB1_2:                                # %if.end
	movl	$statemate_bitlist+4, %edi
	movl	$3, %esi
	movl	$1, %edx
	callq	_KLoad0
	movl	$5, %edi
	callq	_KWork
	.loc	1 231 8 is_stmt 1       # statemate.c:231:8
	movb	statemate_bitlist+4(%rip), %bl
	movl	$26, %edi
	movl	$3, %esi
	movl	$1, %edx
	callq	_KTimestamp1
	cmpb	$0, %bl
	jne	.LBB1_4
# BB#3:                                 # %lor.lhs.false
	movl	$26, %edi
	callq	_KPushCDep
	movl	$statemate_bitlist+6, %edi
	movl	$4, %esi
	movl	$1, %edx
	callq	_KLoad0
	movl	$5, %edi
	callq	_KWork
	movb	statemate_bitlist+6(%rip), %bl
	movl	$27, %edi
	movl	$4, %esi
	movl	$1, %edx
	movl	$3, %ecx
	movl	$2, %r8d
	callq	_KTimestamp2
	callq	_KPopCDep
	cmpb	$0, %bl
	je	.LBB1_5
.LBB1_4:                                # %if.then4
	movl	$26, %edi
	callq	_KPushCDep
	movl	$statemate_time, %edi
	movl	$5, %esi
	movl	$8, %edx
	callq	_KLoad0
	movl	$5, %edi
	callq	_KWork
	.loc	1 235 9                 # statemate.c:235:9
.Ltmp16:
	movq	statemate_time(%rip), %rbx
	movl	$5, %edi
	movl	$5, %esi
	xorl	%edx, %edx
	callq	_KTimestamp1
	movl	$5, %edi
	movl	$statemate_tm_entered_WIEDERHOLSPERRE_FH_TUERMODUL_CTRLexited_BEREIT_FH_TUERMODUL_CTRL, %esi
	movl	$8, %edx
	callq	_KStore
	.loc	1 234 5                 # statemate.c:234:5
	movq	%rbx, statemate_tm_entered_WIEDERHOLSPERRE_FH_TUERMODUL_CTRLexited_BEREIT_FH_TUERMODUL_CTRL(%rip)
	callq	_KPopCDep
.Ltmp17:
.LBB1_5:                                # %if.end5
	movl	$statemate_sc_FH_TUERMODUL_CTRL_2375_2, %edi
	movl	$6, %esi
	movl	$8, %edx
	callq	_KLoad0
	movl	$5, %edi
	callq	_KWork
	.loc	1 236 10                # statemate.c:236:10
.Ltmp18:
	movq	statemate_sc_FH_TUERMODUL_CTRL_2375_2(%rip), %rbx
	movl	$28, %edi
	movl	$6, %esi
	movl	$1, %edx
	callq	_KTimestamp1
	cmpq	$0, %rbx
	je	.LBB1_8
# BB#6:                                 # %land.lhs.true
	movl	$28, %edi
	callq	_KPushCDep
	movl	$statemate_time, %edi
	movl	$7, %esi
	movl	$8, %edx
	callq	_KLoad0
	movl	$10, %edi
	callq	_KWork
	.loc	1 237 10                # statemate.c:237:10
	movq	statemate_time(%rip), %rbx
	movl	$statemate_sc_FH_TUERMODUL_CTRL_2375_2, %edi
	movl	$8, %esi
	movl	$8, %edx
	callq	_KLoad0
	subq	statemate_sc_FH_TUERMODUL_CTRL_2375_2(%rip), %rbx
	movl	$2, (%rsp)
	movl	$29, %edi
	movl	$6, %esi
	movl	$3, %edx
	movl	$7, %ecx
	movl	$2, %r8d
	movl	$8, %r9d
	callq	_KTimestamp3
	callq	_KPopCDep
.Ltmp19:
	.loc	1 236 8                 # statemate.c:236:8
	cmpq	$500, %rbx              # imm = 0x1F4
	jb	.LBB1_8
# BB#7:                                 # %if.then9
	movl	$29, %edi
	callq	_KPushCDep
	movl	$statemate_FH_TUERMODUL__MFHA_copy, %edi
	movl	$1, %esi
	callq	_KStoreConst
	movl	$2, %edi
	callq	_KWork
	.loc	1 238 5                 # statemate.c:238:5
.Ltmp20:
	movb	$0, statemate_FH_TUERMODUL__MFHA_copy(%rip)
	movl	$statemate_sc_FH_TUERMODUL_CTRL_2375_2, %edi
	movl	$8, %esi
	callq	_KStoreConst
	.loc	1 239 5                 # statemate.c:239:5
	movq	$0, statemate_sc_FH_TUERMODUL_CTRL_2375_2(%rip)
	callq	_KPopCDep
.Ltmp21:
.LBB1_8:                                # %if.end10
	movl	$statemate_sc_FH_TUERMODUL_CTRL_2352_1, %edi
	movl	$9, %esi
	movl	$8, %edx
	callq	_KLoad0
	movl	$5, %edi
	callq	_KWork
	.loc	1 241 10                # statemate.c:241:10
.Ltmp22:
	movq	statemate_sc_FH_TUERMODUL_CTRL_2352_1(%rip), %rbx
	movl	$30, %edi
	movl	$9, %esi
	movl	$1, %edx
	callq	_KTimestamp1
	cmpq	$0, %rbx
	je	.LBB1_11
# BB#9:                                 # %land.lhs.true13
	movl	$30, %edi
	callq	_KPushCDep
	movl	$statemate_time, %edi
	movl	$10, %esi
	movl	$8, %edx
	callq	_KLoad0
	movl	$10, %edi
	callq	_KWork
	.loc	1 242 10                # statemate.c:242:10
	movq	statemate_time(%rip), %rbx
	movl	$statemate_sc_FH_TUERMODUL_CTRL_2352_1, %edi
	movl	$11, %esi
	movl	$8, %edx
	callq	_KLoad0
	subq	statemate_sc_FH_TUERMODUL_CTRL_2352_1(%rip), %rbx
	movl	$2, (%rsp)
	movl	$31, %edi
	movl	$9, %esi
	movl	$3, %edx
	movl	$10, %ecx
	movl	$2, %r8d
	movl	$11, %r9d
	callq	_KTimestamp3
	callq	_KPopCDep
.Ltmp23:
	.loc	1 241 8                 # statemate.c:241:8
	cmpq	$500, %rbx              # imm = 0x1F4
	jb	.LBB1_11
# BB#10:                                # %if.then17
	movl	$31, %edi
	callq	_KPushCDep
	movl	$statemate_FH_TUERMODUL__MFHZ_copy, %edi
	movl	$1, %esi
	callq	_KStoreConst
	movl	$2, %edi
	callq	_KWork
	.loc	1 243 5                 # statemate.c:243:5
.Ltmp24:
	movb	$0, statemate_FH_TUERMODUL__MFHZ_copy(%rip)
	movl	$statemate_sc_FH_TUERMODUL_CTRL_2352_1, %edi
	movl	$8, %esi
	callq	_KStoreConst
	.loc	1 244 5                 # statemate.c:244:5
	movq	$0, statemate_sc_FH_TUERMODUL_CTRL_2352_1(%rip)
	callq	_KPopCDep
.Ltmp25:
.LBB1_11:                               # %if.end18
	movl	$statemate_sc_FH_TUERMODUL_CTRL_2329_1, %edi
	movl	$12, %esi
	movl	$8, %edx
	callq	_KLoad0
	movl	$5, %edi
	callq	_KWork
	.loc	1 246 10                # statemate.c:246:10
.Ltmp26:
	movq	statemate_sc_FH_TUERMODUL_CTRL_2329_1(%rip), %rbx
	movl	$32, %edi
	movl	$12, %esi
	movl	$1, %edx
	callq	_KTimestamp1
	cmpq	$0, %rbx
	je	.LBB1_14
# BB#12:                                # %land.lhs.true21
	movl	$32, %edi
	callq	_KPushCDep
	movl	$statemate_time, %edi
	movl	$13, %esi
	movl	$8, %edx
	callq	_KLoad0
	movl	$10, %edi
	callq	_KWork
	.loc	1 247 10                # statemate.c:247:10
	movq	statemate_time(%rip), %rbx
	movl	$statemate_sc_FH_TUERMODUL_CTRL_2329_1, %edi
	movl	$14, %esi
	movl	$8, %edx
	callq	_KLoad0
	subq	statemate_sc_FH_TUERMODUL_CTRL_2329_1(%rip), %rbx
	movl	$2, (%rsp)
	movl	$33, %edi
	movl	$12, %esi
	movl	$3, %edx
	movl	$13, %ecx
	movl	$2, %r8d
	movl	$14, %r9d
	callq	_KTimestamp3
	callq	_KPopCDep
.Ltmp27:
	.loc	1 246 8                 # statemate.c:246:8
	cmpq	$500, %rbx              # imm = 0x1F4
	jb	.LBB1_14
# BB#13:                                # %if.then25
	movl	$33, %edi
	callq	_KPushCDep
	movl	$statemate_FH_TUERMODUL__MFHZ_copy, %edi
	movl	$1, %esi
	callq	_KStoreConst
	movl	$2, %edi
	callq	_KWork
	.loc	1 248 5                 # statemate.c:248:5
.Ltmp28:
	movb	$0, statemate_FH_TUERMODUL__MFHZ_copy(%rip)
	movl	$statemate_sc_FH_TUERMODUL_CTRL_2329_1, %edi
	movl	$8, %esi
	callq	_KStoreConst
	.loc	1 249 5                 # statemate.c:249:5
	movq	$0, statemate_sc_FH_TUERMODUL_CTRL_2329_1(%rip)
	callq	_KPopCDep
.Ltmp29:
.LBB1_14:                               # %if.end26
	movl	$statemate_sc_FH_TUERMODUL_CTRL_1781_10, %edi
	movl	$15, %esi
	movl	$8, %edx
	callq	_KLoad0
	movl	$5, %edi
	callq	_KWork
	.loc	1 251 10                # statemate.c:251:10
.Ltmp30:
	movq	statemate_sc_FH_TUERMODUL_CTRL_1781_10(%rip), %rbx
	movl	$34, %edi
	movl	$15, %esi
	movl	$1, %edx
	callq	_KTimestamp1
	cmpq	$0, %rbx
	je	.LBB1_17
# BB#15:                                # %land.lhs.true29
	movl	$34, %edi
	callq	_KPushCDep
	movl	$statemate_time, %edi
	movl	$16, %esi
	movl	$8, %edx
	callq	_KLoad0
	movl	$10, %edi
	callq	_KWork
	.loc	1 252 10                # statemate.c:252:10
	movq	statemate_time(%rip), %rbx
	movl	$statemate_sc_FH_TUERMODUL_CTRL_1781_10, %edi
	movl	$17, %esi
	movl	$8, %edx
	callq	_KLoad0
	subq	statemate_sc_FH_TUERMODUL_CTRL_1781_10(%rip), %rbx
	movl	$2, (%rsp)
	movl	$35, %edi
	movl	$15, %esi
	movl	$3, %edx
	movl	$16, %ecx
	movl	$2, %r8d
	movl	$17, %r9d
	callq	_KTimestamp3
	callq	_KPopCDep
.Ltmp31:
	.loc	1 251 8                 # statemate.c:251:8
	cmpq	$500, %rbx              # imm = 0x1F4
	jb	.LBB1_17
# BB#16:                                # %if.then33
	movl	$35, %edi
	callq	_KPushCDep
	movl	$statemate_sc_FH_TUERMODUL_CTRL_1781_10, %edi
	movl	$8, %esi
	callq	_KStoreConst
	movl	$1, %edi
	callq	_KWork
	.loc	1 253 5                 # statemate.c:253:5
.Ltmp32:
	movq	$0, statemate_sc_FH_TUERMODUL_CTRL_1781_10(%rip)
	callq	_KPopCDep
.Ltmp33:
.LBB1_17:                               # %if.end34
	movl	$statemate_sc_FH_TUERMODUL_CTRL_1739_10, %edi
	movl	$18, %esi
	movl	$8, %edx
	callq	_KLoad0
	movl	$5, %edi
	callq	_KWork
	.loc	1 255 10                # statemate.c:255:10
.Ltmp34:
	movq	statemate_sc_FH_TUERMODUL_CTRL_1739_10(%rip), %rbx
	movl	$36, %edi
	movl	$18, %esi
	movl	$1, %edx
	callq	_KTimestamp1
	cmpq	$0, %rbx
	je	.LBB1_20
# BB#18:                                # %land.lhs.true37
	movl	$36, %edi
	callq	_KPushCDep
	movl	$statemate_time, %edi
	movl	$19, %esi
	movl	$8, %edx
	callq	_KLoad0
	movl	$10, %edi
	callq	_KWork
	.loc	1 256 10                # statemate.c:256:10
	movq	statemate_time(%rip), %rbx
	movl	$statemate_sc_FH_TUERMODUL_CTRL_1739_10, %edi
	movl	$20, %esi
	movl	$8, %edx
	callq	_KLoad0
	subq	statemate_sc_FH_TUERMODUL_CTRL_1739_10(%rip), %rbx
	movl	$2, (%rsp)
	movl	$37, %edi
	movl	$18, %esi
	movl	$3, %edx
	movl	$19, %ecx
	movl	$2, %r8d
	movl	$20, %r9d
	callq	_KTimestamp3
	callq	_KPopCDep
.Ltmp35:
	.loc	1 255 8                 # statemate.c:255:8
	cmpq	$500, %rbx              # imm = 0x1F4
	jb	.LBB1_20
# BB#19:                                # %if.then41
	movl	$37, %edi
	callq	_KPushCDep
	movl	$statemate_sc_FH_TUERMODUL_CTRL_1739_10, %edi
	movl	$8, %esi
	callq	_KStoreConst
	movl	$1, %edi
	callq	_KWork
	.loc	1 257 5                 # statemate.c:257:5
.Ltmp36:
	movq	$0, statemate_sc_FH_TUERMODUL_CTRL_1739_10(%rip)
	callq	_KPopCDep
.Ltmp37:
.LBB1_20:                               # %if.end42
	movl	$statemate_bitlist, %edi
	movl	$21, %esi
	movl	$1, %edx
	callq	_KLoad0
	movl	$5, %edi
	callq	_KWork
	.loc	1 259 8                 # statemate.c:259:8
	movb	statemate_bitlist(%rip), %bl
	movl	$38, %edi
	movl	$21, %esi
	movl	$1, %edx
	callq	_KTimestamp1
	cmpb	$0, %bl
	jne	.LBB1_22
# BB#21:                                # %lor.lhs.false45
	movl	$38, %edi
	callq	_KPushCDep
	movl	$statemate_BLOCK_ERKENNUNG_CTRL__N, %edi
	movl	$22, %esi
	movl	$4, %edx
	callq	_KLoad0
	movl	$9, %edi
	callq	_KWork
	.loc	1 261 10                # statemate.c:261:10
.Ltmp38:
	movl	statemate_BLOCK_ERKENNUNG_CTRL__N(%rip), %r15d
	movl	$statemate_BLOCK_ERKENNUNG_CTRL__N_old, %edi
	movl	$23, %esi
	movl	$4, %edx
	callq	_KLoad0
	movl	statemate_BLOCK_ERKENNUNG_CTRL__N_old(%rip), %ebx
	movl	$1, (%rsp)
	movl	$39, %edi
	movl	$21, %esi
	movl	$2, %edx
	movl	$22, %ecx
	movl	$1, %r8d
	movl	$23, %r9d
	callq	_KTimestamp3
	callq	_KPopCDep
	cmpl	%ebx, %r15d
	je	.LBB1_23
.LBB1_22:                               # %if.then48
	movl	$38, %edi
	callq	_KPushCDep
	movl	$statemate_time, %edi
	movl	$24, %esi
	movl	$8, %edx
	callq	_KLoad0
	movl	$5, %edi
	callq	_KWork
	.loc	1 263 9                 # statemate.c:263:9
	movq	statemate_time(%rip), %rbx
	movl	$24, %edi
	movl	$24, %esi
	xorl	%edx, %edx
	callq	_KTimestamp1
	movl	$24, %edi
	movl	$statemate_tm_entered_EINSCHALTSTROM_MESSEN_BLOCK_ERKENNUNG_CTRLch_BLOCK_ERKENNUNG_CTRL__N_copy, %esi
	movl	$8, %edx
	callq	_KStore
	.loc	1 262 5                 # statemate.c:262:5
	movq	%rbx, statemate_tm_entered_EINSCHALTSTROM_MESSEN_BLOCK_ERKENNUNG_CTRLch_BLOCK_ERKENNUNG_CTRL__N_copy(%rip)
	callq	_KPopCDep
.Ltmp39:
.LBB1_23:                               # %if.end49
	xorl	%esi, %esi
	movq	%r14, %rdi
	addq	$8, %rsp
	popq	%rbx
	popq	%r14
	popq	%r15
	popq	%rbp
	jmp	_KExitRegion            # TAILCALL
.Ltmp40:
	.size	statemate_interface, .Ltmp40-statemate_interface
.Lfunc_end1:
	.cfi_endproc

	.globl	statemate_generic_KINDERSICHERUNG_CTRL
	.align	16, 0x90
	.type	statemate_generic_KINDERSICHERUNG_CTRL,@function
statemate_generic_KINDERSICHERUNG_CTRL: # @statemate_generic_KINDERSICHERUNG_CTRL
.Lfunc_begin2:
	.loc	1 272 0                 # statemate.c:272:0
	.cfi_startproc
# BB#0:                                 # %entry
	pushq	%rbp
.Ltmp41:
	.cfi_def_cfa_offset 16
.Ltmp42:
	.cfi_offset %rbp, -16
	movq	%rsp, %rbp
.Ltmp43:
	.cfi_def_cfa_register %rbp
	pushq	%r15
	pushq	%r14
	pushq	%r12
	pushq	%rbx
	subq	$144, %rsp
.Ltmp44:
	.cfi_offset %rbx, -48
.Ltmp45:
	.cfi_offset %r12, -40
.Ltmp46:
	.cfi_offset %r14, -32
.Ltmp47:
	.cfi_offset %r15, -24
	movabsq	$2754662507158135619, %r14 # imm = 0x263A86F4973F6343
	xorl	%esi, %esi
	movq	%r14, %rdi
	callq	_KEnterRegion
	movl	$74, %edi
	xorl	%esi, %esi
	callq	_KPrepRTable
	movl	$5, %edi
	callq	_KWork
	movl	$statemate_bitlist+10, %edi
	movl	$1, %esi
	movl	$1, %edx
	callq	_KLoad0
	.loc	1 273 8 prologue_end    # statemate.c:273:8
.Ltmp48:
	movb	statemate_bitlist+10(%rip), %bl
	movl	$42, %edi
	movl	$1, %esi
	movl	$1, %edx
	callq	_KTimestamp1
	cmpb	$0, %bl
	je	.LBB2_68
# BB#1:                                 # %if.then
	movl	$42, %edi
	callq	_KPushCDep
	movl	$statemate_KINDERSICHERUNG_CTRL_KINDERSICHERUNG_CTRL_next_state, %edi
	movl	$2, %esi
	movl	$1, %edx
	callq	_KLoad0
	movl	$4, %edi
	callq	_KWork
	.loc	1 274 14                # statemate.c:274:14
.Ltmp49:
	movsbl	statemate_KINDERSICHERUNG_CTRL_KINDERSICHERUNG_CTRL_next_state(%rip), %ebx
	callq	_KPopCDep
	movl	$43, %edi
	movl	$1, %esi
	movl	$1, %edx
	movl	$2, %ecx
	xorl	%r8d, %r8d
	callq	_KTimestamp2
	movl	$43, %edi
	.loc	1 274 5 is_stmt 0       # statemate.c:274:5
	cmpl	$3, %ebx
	je	.LBB2_41
# BB#2:                                 # %if.then
	cmpl	$2, %ebx
	jne	.LBB2_3
# BB#23:                                # %sw.bb31
	callq	_KPushCDep
	movl	$5, %edi
	callq	_KWork
	movl	$statemate_FH_TUERMODUL__SFHA_MEC, %edi
	movl	$14, %esi
	movl	$1, %edx
	callq	_KLoad0
	.loc	1 330 16 is_stmt 1      # statemate.c:330:16
.Ltmp50:
	movb	statemate_FH_TUERMODUL__SFHA_MEC(%rip), %bl
	movl	$1, (%rsp)
	movl	$53, %edi
	movl	$1, %esi
	movl	$2, %edx
	movl	$2, %ecx
	movl	$1, %r8d
	movl	$14, %r9d
	callq	_KTimestamp3
	callq	_KPopCDep
	cmpb	$0, %bl
	jne	.LBB2_26
# BB#24:                                # %lor.lhs.false34
	movl	$53, %edi
	callq	_KPushCDep
	movl	$5, %edi
	callq	_KWork
	movl	$statemate_FH_TUERMODUL__SFHZ_MEC, %edi
	movl	$15, %esi
	movl	$1, %edx
	callq	_KLoad0
	movb	statemate_FH_TUERMODUL__SFHZ_MEC(%rip), %bl
	movl	$1, 16(%rsp)
	movl	$15, 8(%rsp)
	movl	$2, (%rsp)
	movl	$54, %edi
	movl	$1, %esi
	movl	$3, %edx
	movl	$2, %ecx
	movl	$2, %r8d
	movl	$14, %r9d
	callq	_KTimestamp4
	callq	_KPopCDep
	cmpb	$0, %bl
	je	.LBB2_25
.LBB2_26:                               # %if.end38
	movl	$53, %edi
	callq	_KPushCDep
	movl	$5, %edi
	callq	_KWork
	movl	$statemate_MEC_KINDERSICHERUNG_CTRL_next_state, %edi
	movl	$16, %esi
	movl	$1, %edx
	callq	_KLoad0
	.loc	1 340 11                # statemate.c:340:11
	movzbl	statemate_MEC_KINDERSICHERUNG_CTRL_next_state(%rip), %ebx
	callq	_KPopCDep
	movl	$1, 16(%rsp)
	movl	$16, 8(%rsp)
	movl	$2, (%rsp)
	movl	$55, %edi
	movl	$1, %esi
	movl	$3, %edx
	movl	$2, %ecx
	movl	$2, %r8d
	movl	$14, %r9d
	callq	_KTimestamp4
	movl	$55, %edi
	callq	_KPushCDep
	cmpl	$1, %ebx
	jne	.LBB2_40
# BB#27:                                # %sw.bb40
	movl	$statemate_FH_TUERMODUL__SFHA_MEC, %edi
	movl	$17, %esi
	movl	$1, %edx
	callq	_KLoad0
	movl	$11, %edi
	callq	_KWork
	.loc	1 342 22                # statemate.c:342:22
.Ltmp51:
	movb	statemate_FH_TUERMODUL__SFHA_MEC(%rip), %bl
	movl	$statemate_FH_TUERMODUL__SFHA_MEC_old, %edi
	movl	$18, %esi
	movl	$1, %edx
	callq	_KLoad0
	movb	statemate_FH_TUERMODUL__SFHA_MEC_old(%rip), %r15b
	callq	_KPopCDep
	movl	$2, 48(%rsp)
	movl	$18, 40(%rsp)
	movl	$2, 32(%rsp)
	movl	$17, 24(%rsp)
	movl	$3, 16(%rsp)
	movl	$16, 8(%rsp)
	movl	$4, (%rsp)
	movl	$56, %edi
	movl	$1, %esi
	movl	$5, %edx
	movl	$2, %ecx
	movl	$4, %r8d
	movl	$14, %r9d
	callq	_KTimestamp6
	movl	$56, %edi
	callq	_KPushCDep
	cmpb	$0, %bl
	je	.LBB2_31
# BB#28:                                # %sw.bb40
	testb	%r15b, %r15b
	jne	.LBB2_31
# BB#29:                                # %if.then45
	movl	$3, %edi
	callq	_KWork
	movl	$statemate_stable, %edi
	movl	$1, %esi
	callq	_KStoreConst
	.loc	1 344 19                # statemate.c:344:19
.Ltmp52:
	movb	$0, statemate_stable(%rip)
	movl	$statemate_FH_TUERMODUL__SFHA_copy, %edi
	movl	$1, %esi
	callq	_KStoreConst
	.loc	1 345 19                # statemate.c:345:19
	movb	$1, statemate_FH_TUERMODUL__SFHA_copy(%rip)
	jmp	.LBB2_30
.Ltmp53:
.LBB2_41:                               # %sw.bb67
	callq	_KPushCDep
	movl	$statemate_FH_TUERMODUL__KL_50, %edi
	movl	$25, %esi
	movl	$1, %edx
	callq	_KLoad0
	movl	$5, %edi
	callq	_KWork
	.loc	1 384 16                # statemate.c:384:16
.Ltmp54:
	movb	statemate_FH_TUERMODUL__KL_50(%rip), %bl
	movl	$1, (%rsp)
	movl	$62, %edi
	movl	$25, %esi
	movl	$1, %edx
	movl	$1, %ecx
	movl	$2, %r8d
	movl	$2, %r9d
	callq	_KTimestamp3
	callq	_KPopCDep
	cmpb	$0, %bl
	jne	.LBB2_45
# BB#42:                                # %land.lhs.true69
	movl	$62, %edi
	callq	_KPushCDep
	movl	$statemate_FH_TUERMODUL__SFHZ_MEC, %edi
	movl	$26, %esi
	movl	$1, %edx
	callq	_KLoad0
	movl	$5, %edi
	callq	_KWork
	movb	statemate_FH_TUERMODUL__SFHZ_MEC(%rip), %bl
	movl	$2, 16(%rsp)
	movl	$2, 8(%rsp)
	movl	$3, (%rsp)
	movl	$63, %edi
	movl	$26, %esi
	movl	$1, %edx
	movl	$25, %ecx
	movl	$2, %r8d
	movl	$1, %r9d
	callq	_KTimestamp4
	callq	_KPopCDep
	cmpb	$0, %bl
	je	.LBB2_45
# BB#43:                                # %land.lhs.true72
	movl	$63, %edi
	callq	_KPushCDep
	movl	$statemate_FH_TUERMODUL__SFHA_MEC, %edi
	movl	$27, %esi
	movl	$1, %edx
	callq	_KLoad0
	movl	$5, %edi
	callq	_KWork
	movb	statemate_FH_TUERMODUL__SFHA_MEC(%rip), %bl
	movl	$3, 32(%rsp)
	movl	$2, 24(%rsp)
	movl	$4, 16(%rsp)
	movl	$1, 8(%rsp)
	movl	$3, (%rsp)
	movl	$64, %edi
	movl	$26, %esi
	movl	$2, %edx
	movl	$27, %ecx
	movl	$1, %r8d
	movl	$25, %r9d
	callq	_KTimestamp5
	callq	_KPopCDep
	cmpb	$0, %bl
	je	.LBB2_45
# BB#44:                                # %if.then75
	movl	$64, %edi
	callq	_KPushCDep
	movl	$statemate_stable, %edi
	movl	$1, %esi
	callq	_KStoreConst
	movl	$4, %edi
	callq	_KWork
	.loc	1 386 13                # statemate.c:386:13
.Ltmp55:
	movb	$0, statemate_stable(%rip)
	movl	$statemate_FH_TUERMODUL__SFHZ_copy, %edi
	movl	$1, %esi
	callq	_KStoreConst
	.loc	1 387 13                # statemate.c:387:13
	movb	$1, statemate_FH_TUERMODUL__SFHZ_copy(%rip)
	jmp	.LBB2_52
.Ltmp56:
.LBB2_3:                                # %if.then
	cmpl	$1, %ebx
	jne	.LBB2_66
# BB#4:                                 # %sw.bb
	callq	_KPushCDep
	movl	$statemate_FH_TUERMODUL__SFHA_ZENTRAL, %edi
	movl	$3, %esi
	movl	$1, %edx
	callq	_KLoad0
	movl	$5, %edi
	callq	_KWork
	.loc	1 276 16                # statemate.c:276:16
.Ltmp57:
	movb	statemate_FH_TUERMODUL__SFHA_ZENTRAL(%rip), %bl
	callq	_KPopCDep
	movl	$1, (%rsp)
	movl	$44, %edi
	movl	$1, %esi
	movl	$2, %edx
	movl	$2, %ecx
	movl	$1, %r8d
	movl	$3, %r9d
	callq	_KTimestamp3
	cmpb	$0, %bl
	jne	.LBB2_7
# BB#5:                                 # %lor.lhs.false
	movl	$44, %edi
	callq	_KPushCDep
	movl	$statemate_FH_TUERMODUL__SFHZ_ZENTRAL, %edi
	movl	$4, %esi
	movl	$1, %edx
	callq	_KLoad0
	movl	$5, %edi
	callq	_KWork
	movb	statemate_FH_TUERMODUL__SFHZ_ZENTRAL(%rip), %bl
	movl	$1, 16(%rsp)
	movl	$4, 8(%rsp)
	movl	$2, (%rsp)
	movl	$45, %edi
	movl	$1, %esi
	movl	$3, %edx
	movl	$2, %ecx
	movl	$2, %r8d
	movl	$3, %r9d
	callq	_KTimestamp4
	callq	_KPopCDep
	cmpb	$0, %bl
	je	.LBB2_6
.LBB2_7:                                # %if.end
	movl	$44, %edi
	callq	_KPushCDep
	movl	$5, %edi
	callq	_KWork
	movl	$statemate_ZENTRAL_KINDERSICHERUNG_CTRL_next_state, %edi
	movl	$5, %esi
	movl	$1, %edx
	callq	_KLoad0
	.loc	1 286 11                # statemate.c:286:11
	movzbl	statemate_ZENTRAL_KINDERSICHERUNG_CTRL_next_state(%rip), %ebx
	movl	$1, 16(%rsp)
	movl	$5, 8(%rsp)
	movl	$2, (%rsp)
	movl	$46, %edi
	movl	$1, %esi
	movl	$3, %edx
	movl	$2, %ecx
	movl	$2, %r8d
	movl	$3, %r9d
	callq	_KTimestamp4
	callq	_KPopCDep
	movl	$46, %edi
	callq	_KPushCDep
	cmpl	$1, %ebx
	jne	.LBB2_21
# BB#8:                                 # %sw.bb7
	movl	$statemate_FH_TUERMODUL__SFHA_ZENTRAL, %edi
	movl	$6, %esi
	movl	$1, %edx
	callq	_KLoad0
	movl	$11, %edi
	callq	_KWork
	.loc	1 288 22                # statemate.c:288:22
.Ltmp58:
	movb	statemate_FH_TUERMODUL__SFHA_ZENTRAL(%rip), %bl
	movl	$statemate_FH_TUERMODUL__SFHA_ZENTRAL_old, %edi
	movl	$7, %esi
	movl	$1, %edx
	callq	_KLoad0
	movb	statemate_FH_TUERMODUL__SFHA_ZENTRAL_old(%rip), %r15b
	movl	$2, 48(%rsp)
	movl	$7, 40(%rsp)
	movl	$2, 32(%rsp)
	movl	$6, 24(%rsp)
	movl	$3, 16(%rsp)
	movl	$5, 8(%rsp)
	movl	$4, (%rsp)
	movl	$47, %edi
	movl	$1, %esi
	movl	$5, %edx
	movl	$2, %ecx
	movl	$4, %r8d
	movl	$3, %r9d
	callq	_KTimestamp6
	callq	_KPopCDep
	movl	$47, %edi
	callq	_KPushCDep
	cmpb	$0, %bl
	je	.LBB2_12
# BB#9:                                 # %sw.bb7
	testb	%r15b, %r15b
	jne	.LBB2_12
# BB#10:                                # %if.then11
	movl	$statemate_stable, %edi
	movl	$1, %esi
	callq	_KStoreConst
	movl	$3, %edi
	callq	_KWork
	.loc	1 290 19                # statemate.c:290:19
.Ltmp59:
	movb	$0, statemate_stable(%rip)
	movl	$statemate_FH_TUERMODUL__SFHA_copy, %edi
	movl	$1, %esi
	callq	_KStoreConst
	.loc	1 291 19                # statemate.c:291:19
	movb	$1, statemate_FH_TUERMODUL__SFHA_copy(%rip)
	jmp	.LBB2_11
.Ltmp60:
.LBB2_45:                               # %if.end76
	movl	$62, %edi
	callq	_KPushCDep
	movl	$statemate_FH_TUERMODUL__KL_50, %edi
	movl	$28, %esi
	movl	$1, %edx
	callq	_KLoad0
	movl	$5, %edi
	callq	_KWork
	.loc	1 393 16                # statemate.c:393:16
.Ltmp61:
	movb	statemate_FH_TUERMODUL__KL_50(%rip), %bl
	movl	$2, 16(%rsp)
	movl	$2, 8(%rsp)
	movl	$3, (%rsp)
	movl	$65, %edi
	movl	$28, %esi
	movl	$1, %edx
	movl	$25, %ecx
	movl	$2, %r8d
	movl	$1, %r9d
	callq	_KTimestamp4
	callq	_KPopCDep
	cmpb	$0, %bl
	jne	.LBB2_49
# BB#46:                                # %land.lhs.true78
	movl	$65, %edi
	callq	_KPushCDep
	movl	$statemate_FH_TUERMODUL__SFHZ_MEC, %edi
	movl	$29, %esi
	movl	$1, %edx
	callq	_KLoad0
	movl	$11, %edi
	callq	_KWork
	movb	statemate_FH_TUERMODUL__SFHZ_MEC(%rip), %bl
	movl	$statemate_FH_TUERMODUL__SFHA_MEC, %edi
	movl	$30, %esi
	movl	$1, %edx
	callq	_KLoad0
	movb	statemate_FH_TUERMODUL__SFHA_MEC(%rip), %r15b
	movl	$4, 48(%rsp)
	movl	$2, 40(%rsp)
	movl	$5, 32(%rsp)
	movl	$1, 24(%rsp)
	movl	$4, 16(%rsp)
	movl	$25, 8(%rsp)
	movl	$2, (%rsp)
	movl	$66, %edi
	movl	$28, %esi
	movl	$3, %edx
	movl	$29, %ecx
	movl	$2, %r8d
	movl	$30, %r9d
	callq	_KTimestamp6
	callq	_KPopCDep
	cmpb	$0, %bl
	je	.LBB2_49
# BB#47:                                # %land.lhs.true78
	testb	%r15b, %r15b
	jne	.LBB2_49
# BB#48:                                # %if.then83
	movl	$66, %edi
	callq	_KPushCDep
	movl	$statemate_stable, %edi
	movl	$1, %esi
	callq	_KStoreConst
	movl	$3, %edi
	callq	_KWork
	.loc	1 395 13                # statemate.c:395:13
.Ltmp62:
	movb	$0, statemate_stable(%rip)
	movl	$statemate_FH_TUERMODUL__SFHZ_copy, %edi
	movl	$1, %esi
	callq	_KStoreConst
	.loc	1 396 13                # statemate.c:396:13
	movb	$1, statemate_FH_TUERMODUL__SFHZ_copy(%rip)
	jmp	.LBB2_53
.Ltmp63:
.LBB2_49:                               # %if.end84
	movl	$65, %edi
	callq	_KPushCDep
	movl	$statemate_FH_TUERMODUL__KL_50, %edi
	movl	$31, %esi
	movl	$1, %edx
	callq	_KLoad0
	movl	$11, %edi
	callq	_KWork
	.loc	1 401 19                # statemate.c:401:19
.Ltmp64:
	movb	statemate_FH_TUERMODUL__KL_50(%rip), %r15b
	movl	$statemate_FH_TUERMODUL__SFHZ_MEC, %edi
	movl	$32, %esi
	movl	$1, %edx
	callq	_KLoad0
.Ltmp65:
	.loc	1 401 16 is_stmt 0      # statemate.c:401:16
	movb	statemate_FH_TUERMODUL__SFHZ_MEC(%rip), %bl
	movl	$2, 48(%rsp)
	movl	$32, 40(%rsp)
	movl	$2, 32(%rsp)
	movl	$31, 24(%rsp)
	movl	$4, 16(%rsp)
	movl	$2, 8(%rsp)
	movl	$5, (%rsp)
	movl	$67, %edi
	movl	$28, %esi
	movl	$3, %edx
	movl	$25, %ecx
	movl	$4, %r8d
	movl	$1, %r9d
	callq	_KTimestamp6
	callq	_KPopCDep
	orb	%r15b, %bl
	jne	.LBB2_54
# BB#50:                                # %land.lhs.true88
	movl	$67, %edi
	callq	_KPushCDep
	movl	$statemate_FH_TUERMODUL__SFHA_MEC, %edi
	movl	$33, %esi
	movl	$1, %edx
	callq	_KLoad0
	movl	$5, %edi
	callq	_KWork
	movb	statemate_FH_TUERMODUL__SFHA_MEC(%rip), %bl
	movl	$1, 64(%rsp)
	movl	$33, 56(%rsp)
	movl	$3, 48(%rsp)
	movl	$32, 40(%rsp)
	movl	$3, 32(%rsp)
	movl	$31, 24(%rsp)
	movl	$5, 16(%rsp)
	movl	$2, 8(%rsp)
	movl	$6, (%rsp)
	movl	$68, %edi
	movl	$28, %esi
	movl	$4, %edx
	movl	$25, %ecx
	movl	$5, %r8d
	movl	$1, %r9d
	callq	_KTimestamp7
	callq	_KPopCDep
	cmpb	$0, %bl
	je	.LBB2_54
# BB#51:                                # %if.then91
	movl	$68, %edi
	callq	_KPushCDep
	movl	$statemate_stable, %edi
	movl	$1, %esi
	callq	_KStoreConst
	movl	$3, %edi
	callq	_KWork
	.loc	1 404 13 is_stmt 1      # statemate.c:404:13
.Ltmp66:
	movb	$0, statemate_stable(%rip)
.LBB2_52:                               # %if.end118
	movl	$statemate_FH_TUERMODUL__SFHA_copy, %edi
	movl	$1, %esi
	callq	_KStoreConst
	.loc	1 405 13                # statemate.c:405:13
	movb	$1, statemate_FH_TUERMODUL__SFHA_copy(%rip)
.LBB2_53:                               # %if.end118
	movl	$statemate_KINDERSICHERUNG_CTRL_KINDERSICHERUNG_CTRL_next_state, %edi
	movl	$1, %esi
	callq	_KStoreConst
	.loc	1 407 13                # statemate.c:407:13
	movb	$2, statemate_KINDERSICHERUNG_CTRL_KINDERSICHERUNG_CTRL_next_state(%rip)
	jmp	.LBB2_67
.Ltmp67:
.LBB2_54:                               # %if.end92
	movl	$67, %edi
	callq	_KPushCDep
	movl	$statemate_FH_TUERMODUL__SFHZ_ZENTRAL, %edi
	movl	$34, %esi
	movl	$1, %edx
	callq	_KLoad0
	movl	$5, %edi
	callq	_KWork
	.loc	1 410 16                # statemate.c:410:16
	movb	statemate_FH_TUERMODUL__SFHZ_ZENTRAL(%rip), %bl
	movl	$1, 64(%rsp)
	movl	$34, 56(%rsp)
	movl	$3, 48(%rsp)
	movl	$32, 40(%rsp)
	movl	$3, 32(%rsp)
	movl	$31, 24(%rsp)
	movl	$5, 16(%rsp)
	movl	$2, 8(%rsp)
	movl	$6, (%rsp)
	movl	$69, %edi
	movl	$28, %esi
	movl	$4, %edx
	movl	$25, %ecx
	movl	$5, %r8d
	movl	$1, %r9d
	callq	_KTimestamp7
	callq	_KPopCDep
	cmpb	$0, %bl
	jne	.LBB2_58
# BB#55:                                # %land.lhs.true94
	movl	$69, %edi
	callq	_KPushCDep
	movl	$statemate_FH_TUERMODUL__SFHA_ZENTRAL, %edi
	movl	$35, %esi
	movl	$1, %edx
	callq	_KLoad0
	movl	$11, %edi
	callq	_KWork
	movb	statemate_FH_TUERMODUL__SFHA_ZENTRAL(%rip), %bl
	movl	$statemate_FH_TUERMODUL__KL_50, %edi
	movl	$36, %esi
	movl	$1, %edx
	callq	_KLoad0
	movb	statemate_FH_TUERMODUL__KL_50(%rip), %r15b
	movl	$2, 104(%rsp)
	movl	$36, 96(%rsp)
	movl	$2, 88(%rsp)
	movl	$35, 80(%rsp)
	movl	$3, 72(%rsp)
	movl	$34, 64(%rsp)
	movl	$5, 56(%rsp)
	movl	$32, 48(%rsp)
	movl	$5, 40(%rsp)
	movl	$31, 32(%rsp)
	movl	$7, 24(%rsp)
	movl	$2, 16(%rsp)
	movl	$8, 8(%rsp)
	movl	$1, (%rsp)
	movl	$70, %edi
	movl	$9, %esi
	movl	$28, %edx
	movl	$6, %ecx
	movl	$25, %r8d
	movl	$7, %r9d
	xorl	%eax, %eax
	callq	_KTimestamp
	callq	_KPopCDep
	cmpb	$0, %bl
	je	.LBB2_58
# BB#56:                                # %land.lhs.true94
	testb	%r15b, %r15b
	jne	.LBB2_58
# BB#57:                                # %if.then99
	movl	$70, %edi
	callq	_KPushCDep
	movl	$statemate_stable, %edi
	movl	$1, %esi
	callq	_KStoreConst
	movl	$3, %edi
	callq	_KWork
	.loc	1 413 13                # statemate.c:413:13
.Ltmp68:
	movb	$0, statemate_stable(%rip)
	movl	$statemate_FH_TUERMODUL__SFHA_copy, %edi
	movl	$1, %esi
	callq	_KStoreConst
	.loc	1 414 13                # statemate.c:414:13
	movb	$1, statemate_FH_TUERMODUL__SFHA_copy(%rip)
	jmp	.LBB2_65
.Ltmp69:
.LBB2_66:                               # %sw.default116
	callq	_KPushCDep
	movl	$statemate_stable, %edi
	movl	$1, %esi
	callq	_KStoreConst
	movl	$2, %edi
	callq	_KWork
	.loc	1 440 11                # statemate.c:440:11
.Ltmp70:
	movb	$0, statemate_stable(%rip)
	movl	$statemate_KINDERSICHERUNG_CTRL_KINDERSICHERUNG_CTRL_next_state, %edi
	movl	$1, %esi
	callq	_KStoreConst
	.loc	1 441 11                # statemate.c:441:11
	movb	$3, statemate_KINDERSICHERUNG_CTRL_KINDERSICHERUNG_CTRL_next_state(%rip)
	jmp	.LBB2_67
.Ltmp71:
.LBB2_58:                               # %if.end100
	movl	$69, %edi
	callq	_KPushCDep
	movl	$statemate_FH_TUERMODUL__SFHZ_ZENTRAL, %edi
	movl	$37, %esi
	movl	$1, %edx
	callq	_KLoad0
	movl	$5, %edi
	callq	_KWork
	.loc	1 419 16                # statemate.c:419:16
.Ltmp72:
	movb	statemate_FH_TUERMODUL__SFHZ_ZENTRAL(%rip), %bl
	movl	$1, 88(%rsp)
	movl	$37, 80(%rsp)
	movl	$2, 72(%rsp)
	movl	$34, 64(%rsp)
	movl	$4, 56(%rsp)
	movl	$32, 48(%rsp)
	movl	$4, 40(%rsp)
	movl	$31, 32(%rsp)
	movl	$6, 24(%rsp)
	movl	$2, 16(%rsp)
	movl	$7, 8(%rsp)
	movl	$1, (%rsp)
	movl	$71, %edi
	movl	$8, %esi
	movl	$28, %edx
	movl	$5, %ecx
	movl	$25, %r8d
	movl	$6, %r9d
	xorl	%eax, %eax
	callq	_KTimestamp
	callq	_KPopCDep
	cmpb	$0, %bl
	je	.LBB2_61
# BB#59:                                # %land.lhs.true103
	movl	$71, %edi
	callq	_KPushCDep
	movl	$statemate_FH_TUERMODUL__SFHA_ZENTRAL, %edi
	movl	$38, %esi
	movl	$1, %edx
	callq	_KLoad0
	movl	$5, %edi
	callq	_KWork
	movb	statemate_FH_TUERMODUL__SFHA_ZENTRAL(%rip), %bl
	movl	$1, 104(%rsp)
	movl	$38, 96(%rsp)
	movl	$2, 88(%rsp)
	movl	$37, 80(%rsp)
	movl	$3, 72(%rsp)
	movl	$34, 64(%rsp)
	movl	$5, 56(%rsp)
	movl	$32, 48(%rsp)
	movl	$5, 40(%rsp)
	movl	$31, 32(%rsp)
	movl	$7, 24(%rsp)
	movl	$2, 16(%rsp)
	movl	$8, 8(%rsp)
	movl	$1, (%rsp)
	movl	$72, %edi
	movl	$9, %esi
	movl	$28, %edx
	movl	$6, %ecx
	movl	$25, %r8d
	movl	$7, %r9d
	xorl	%eax, %eax
	callq	_KTimestamp
	callq	_KPopCDep
	cmpb	$0, %bl
	je	.LBB2_61
# BB#60:                                # %if.then106
	movl	$72, %edi
	callq	_KPushCDep
	movl	$statemate_stable, %edi
	movl	$1, %esi
	callq	_KStoreConst
	movl	$4, %edi
	callq	_KWork
	.loc	1 421 13                # statemate.c:421:13
.Ltmp73:
	movb	$0, statemate_stable(%rip)
	movl	$statemate_FH_TUERMODUL__SFHA_copy, %edi
	movl	$1, %esi
	callq	_KStoreConst
	.loc	1 422 13                # statemate.c:422:13
	movb	$1, statemate_FH_TUERMODUL__SFHA_copy(%rip)
	jmp	.LBB2_64
.Ltmp74:
.LBB2_40:                               # %sw.default65
	movl	$statemate_stable, %edi
	movl	$1, %esi
	callq	_KStoreConst
	movl	$1, %edi
	callq	_KWork
	.loc	1 323 17                # statemate.c:323:17
.Ltmp75:
	movb	$0, statemate_stable(%rip)
	jmp	.LBB2_67
.Ltmp76:
.LBB2_61:                               # %if.end107
	movl	$71, %edi
	callq	_KPushCDep
	movl	$statemate_FH_TUERMODUL__SFHZ_ZENTRAL, %edi
	movl	$39, %esi
	movl	$1, %edx
	callq	_KLoad0
	movl	$17, %edi
	callq	_KWork
	.loc	1 428 16                # statemate.c:428:16
.Ltmp77:
	movb	statemate_FH_TUERMODUL__SFHZ_ZENTRAL(%rip), %r12b
	movl	$statemate_FH_TUERMODUL__SFHA_ZENTRAL, %edi
	movl	$40, %esi
	movl	$1, %edx
	callq	_KLoad0
	movb	statemate_FH_TUERMODUL__SFHA_ZENTRAL(%rip), %r15b
	movl	$statemate_FH_TUERMODUL__KL_50, %edi
	movl	$41, %esi
	movl	$1, %edx
	callq	_KLoad0
	movb	statemate_FH_TUERMODUL__KL_50(%rip), %bl
	callq	_KPopCDep
	movl	$2, 136(%rsp)
	movl	$41, 128(%rsp)
	movl	$3, 120(%rsp)
	movl	$40, 112(%rsp)
	movl	$3, 104(%rsp)
	movl	$39, 96(%rsp)
	movl	$4, 88(%rsp)
	movl	$37, 80(%rsp)
	movl	$5, 72(%rsp)
	movl	$34, 64(%rsp)
	movl	$7, 56(%rsp)
	movl	$32, 48(%rsp)
	movl	$7, 40(%rsp)
	movl	$31, 32(%rsp)
	movl	$9, 24(%rsp)
	movl	$2, 16(%rsp)
	movl	$10, 8(%rsp)
	movl	$1, (%rsp)
	movl	$73, %edi
	movl	$11, %esi
	movl	$28, %edx
	movl	$8, %ecx
	movl	$25, %r8d
	movl	$9, %r9d
	xorl	%eax, %eax
	callq	_KTimestamp
	cmpb	$0, %r12b
	je	.LBB2_68
# BB#62:                                # %if.end107
	orb	%r15b, %bl
	jne	.LBB2_68
# BB#63:                                # %if.then114
	movl	$73, %edi
	callq	_KPushCDep
	movl	$statemate_stable, %edi
	movl	$1, %esi
	callq	_KStoreConst
	movl	$3, %edi
	callq	_KWork
	.loc	1 431 13                # statemate.c:431:13
.Ltmp78:
	movb	$0, statemate_stable(%rip)
.LBB2_64:                               # %if.end118
	movl	$statemate_FH_TUERMODUL__SFHZ_copy, %edi
	movl	$1, %esi
	callq	_KStoreConst
	.loc	1 432 13                # statemate.c:432:13
	movb	$1, statemate_FH_TUERMODUL__SFHZ_copy(%rip)
.LBB2_65:                               # %if.end118
	movl	$statemate_KINDERSICHERUNG_CTRL_KINDERSICHERUNG_CTRL_next_state, %edi
	movl	$1, %esi
	callq	_KStoreConst
	.loc	1 434 13                # statemate.c:434:13
	movb	$1, statemate_KINDERSICHERUNG_CTRL_KINDERSICHERUNG_CTRL_next_state(%rip)
	jmp	.LBB2_67
.Ltmp79:
.LBB2_31:                               # %if.end46
	movl	$statemate_FH_TUERMODUL__SFHZ_MEC, %edi
	movl	$19, %esi
	movl	$1, %edx
	callq	_KLoad0
	movl	$11, %edi
	callq	_KWork
	.loc	1 350 22                # statemate.c:350:22
.Ltmp80:
	movb	statemate_FH_TUERMODUL__SFHZ_MEC(%rip), %bl
	movl	$statemate_FH_TUERMODUL__SFHZ_MEC_old, %edi
	movl	$20, %esi
	movl	$1, %edx
	callq	_KLoad0
	movb	statemate_FH_TUERMODUL__SFHZ_MEC_old(%rip), %r15b
	movl	$2, 88(%rsp)
	movl	$20, 80(%rsp)
	movl	$2, 72(%rsp)
	movl	$19, 64(%rsp)
	movl	$4, 56(%rsp)
	movl	$18, 48(%rsp)
	movl	$4, 40(%rsp)
	movl	$17, 32(%rsp)
	movl	$5, 24(%rsp)
	movl	$16, 16(%rsp)
	movl	$6, 8(%rsp)
	movl	$14, (%rsp)
	movl	$57, %edi
	movl	$8, %esi
	movl	$1, %edx
	movl	$7, %ecx
	movl	$2, %r8d
	movl	$6, %r9d
	xorl	%eax, %eax
	callq	_KTimestamp
	callq	_KPopCDep
	movl	$57, %edi
	callq	_KPushCDep
	cmpb	$0, %bl
	je	.LBB2_34
# BB#32:                                # %if.end46
	testb	%r15b, %r15b
	jne	.LBB2_34
# BB#33:                                # %if.then51
	movl	$statemate_stable, %edi
	movl	$1, %esi
	callq	_KStoreConst
	movl	$3, %edi
	callq	_KWork
	.loc	1 352 19                # statemate.c:352:19
.Ltmp81:
	movb	$0, statemate_stable(%rip)
	movl	$statemate_FH_TUERMODUL__SFHZ_copy, %edi
	movl	$1, %esi
	callq	_KStoreConst
	.loc	1 353 19                # statemate.c:353:19
	movb	$1, statemate_FH_TUERMODUL__SFHZ_copy(%rip)
	jmp	.LBB2_30
.Ltmp82:
.LBB2_21:                               # %sw.default
	movl	$1, %edi
	callq	_KWork
	movl	$statemate_stable, %edi
	movl	$1, %esi
	callq	_KStoreConst
	.loc	1 323 17                # statemate.c:323:17
.Ltmp83:
	movb	$0, statemate_stable(%rip)
	jmp	.LBB2_67
.Ltmp84:
.LBB2_25:                               # %if.then37
	movl	$54, %edi
	callq	_KPushCDep
	movl	$5, %edi
	callq	_KWork
	movl	$statemate_stable, %edi
	movl	$1, %esi
	callq	_KStoreConst
	.loc	1 332 13                # statemate.c:332:13
.Ltmp85:
	movb	$0, statemate_stable(%rip)
	movl	$statemate_FH_TUERMODUL__SFHZ_copy, %edi
	movl	$1, %esi
	callq	_KStoreConst
	.loc	1 333 13                # statemate.c:333:13
	movb	$0, statemate_FH_TUERMODUL__SFHZ_copy(%rip)
	movl	$statemate_FH_TUERMODUL__SFHA_copy, %edi
	movl	$1, %esi
	callq	_KStoreConst
	.loc	1 334 13                # statemate.c:334:13
	movb	$0, statemate_FH_TUERMODUL__SFHA_copy(%rip)
	movl	$statemate_KINDERSICHERUNG_CTRL_KINDERSICHERUNG_CTRL_next_state, %edi
	movl	$1, %esi
	callq	_KStoreConst
	.loc	1 336 13                # statemate.c:336:13
	movb	$3, statemate_KINDERSICHERUNG_CTRL_KINDERSICHERUNG_CTRL_next_state(%rip)
	movl	$statemate_MEC_KINDERSICHERUNG_CTRL_next_state, %edi
	movl	$1, %esi
	callq	_KStoreConst
	.loc	1 337 13                # statemate.c:337:13
	movb	$0, statemate_MEC_KINDERSICHERUNG_CTRL_next_state(%rip)
	jmp	.LBB2_67
.Ltmp86:
.LBB2_12:                               # %if.end12
	movl	$statemate_FH_TUERMODUL__SFHZ_ZENTRAL, %edi
	movl	$8, %esi
	movl	$1, %edx
	callq	_KLoad0
	movl	$11, %edi
	callq	_KWork
	.loc	1 296 22                # statemate.c:296:22
.Ltmp87:
	movb	statemate_FH_TUERMODUL__SFHZ_ZENTRAL(%rip), %bl
	movl	$statemate_FH_TUERMODUL__SFHZ_ZENTRAL_old, %edi
	movl	$9, %esi
	movl	$1, %edx
	callq	_KLoad0
	movb	statemate_FH_TUERMODUL__SFHZ_ZENTRAL_old(%rip), %r15b
	callq	_KPopCDep
	movl	$2, 88(%rsp)
	movl	$9, 80(%rsp)
	movl	$2, 72(%rsp)
	movl	$8, 64(%rsp)
	movl	$4, 56(%rsp)
	movl	$7, 48(%rsp)
	movl	$4, 40(%rsp)
	movl	$6, 32(%rsp)
	movl	$5, 24(%rsp)
	movl	$5, 16(%rsp)
	movl	$6, 8(%rsp)
	movl	$3, (%rsp)
	movl	$48, %edi
	movl	$8, %esi
	movl	$1, %edx
	movl	$7, %ecx
	movl	$2, %r8d
	movl	$6, %r9d
	xorl	%eax, %eax
	callq	_KTimestamp
	movl	$48, %edi
	callq	_KPushCDep
	cmpb	$0, %bl
	je	.LBB2_15
# BB#13:                                # %if.end12
	testb	%r15b, %r15b
	jne	.LBB2_15
# BB#14:                                # %if.then17
	movl	$statemate_stable, %edi
	movl	$1, %esi
	callq	_KStoreConst
	movl	$3, %edi
	callq	_KWork
	.loc	1 298 19                # statemate.c:298:19
.Ltmp88:
	movb	$0, statemate_stable(%rip)
	movl	$statemate_FH_TUERMODUL__SFHZ_copy, %edi
	movl	$1, %esi
	callq	_KStoreConst
	.loc	1 299 19                # statemate.c:299:19
	movb	$1, statemate_FH_TUERMODUL__SFHZ_copy(%rip)
	jmp	.LBB2_11
.Ltmp89:
.LBB2_34:                               # %if.end52
	movl	$statemate_FH_TUERMODUL__SFHA_MEC, %edi
	movl	$21, %esi
	movl	$1, %edx
	callq	_KLoad0
	movl	$5, %edi
	callq	_KWork
	.loc	1 358 22                # statemate.c:358:22
.Ltmp90:
	movb	statemate_FH_TUERMODUL__SFHA_MEC(%rip), %bl
	movl	$1, 104(%rsp)
	movl	$21, 96(%rsp)
	movl	$3, 88(%rsp)
	movl	$20, 80(%rsp)
	movl	$3, 72(%rsp)
	movl	$19, 64(%rsp)
	movl	$5, 56(%rsp)
	movl	$18, 48(%rsp)
	movl	$5, 40(%rsp)
	movl	$17, 32(%rsp)
	movl	$6, 24(%rsp)
	movl	$16, 16(%rsp)
	movl	$7, 8(%rsp)
	movl	$14, (%rsp)
	movl	$58, %edi
	movl	$9, %esi
	movl	$1, %edx
	movl	$8, %ecx
	movl	$2, %r8d
	movl	$7, %r9d
	xorl	%eax, %eax
	callq	_KTimestamp
	callq	_KPopCDep
	cmpb	$0, %bl
	jne	.LBB2_37
# BB#35:                                # %land.lhs.true54
	movl	$58, %edi
	callq	_KPushCDep
	movl	$statemate_FH_TUERMODUL__SFHA_MEC_old, %edi
	movl	$22, %esi
	movl	$1, %edx
	callq	_KLoad0
	movl	$5, %edi
	callq	_KWork
	movb	statemate_FH_TUERMODUL__SFHA_MEC_old(%rip), %bl
	movl	$1, 120(%rsp)
	movl	$22, 112(%rsp)
	movl	$2, 104(%rsp)
	movl	$21, 96(%rsp)
	movl	$4, 88(%rsp)
	movl	$20, 80(%rsp)
	movl	$4, 72(%rsp)
	movl	$19, 64(%rsp)
	movl	$6, 56(%rsp)
	movl	$18, 48(%rsp)
	movl	$6, 40(%rsp)
	movl	$17, 32(%rsp)
	movl	$7, 24(%rsp)
	movl	$16, 16(%rsp)
	movl	$8, 8(%rsp)
	movl	$14, (%rsp)
	movl	$59, %edi
	movl	$10, %esi
	movl	$1, %edx
	movl	$9, %ecx
	movl	$2, %r8d
	movl	$8, %r9d
	xorl	%eax, %eax
	callq	_KTimestamp
	callq	_KPopCDep
	cmpb	$0, %bl
	je	.LBB2_37
# BB#36:                                # %if.then57
	movl	$59, %edi
	callq	_KPushCDep
	movl	$statemate_stable, %edi
	movl	$1, %esi
	callq	_KStoreConst
	movl	$3, %edi
	callq	_KWork
	.loc	1 360 19                # statemate.c:360:19
.Ltmp91:
	movb	$0, statemate_stable(%rip)
	movl	$statemate_FH_TUERMODUL__SFHA_copy, %edi
	movl	$1, %esi
	callq	_KStoreConst
	.loc	1 361 19                # statemate.c:361:19
	movb	$0, statemate_FH_TUERMODUL__SFHA_copy(%rip)
	jmp	.LBB2_30
.Ltmp92:
.LBB2_37:                               # %if.end58
	movl	$58, %edi
	callq	_KPushCDep
	movl	$statemate_FH_TUERMODUL__SFHZ_MEC, %edi
	movl	$23, %esi
	movl	$1, %edx
	callq	_KLoad0
	movl	$5, %edi
	callq	_KWork
	.loc	1 366 22                # statemate.c:366:22
	movb	statemate_FH_TUERMODUL__SFHZ_MEC(%rip), %bl
	movl	$1, 120(%rsp)
	movl	$23, 112(%rsp)
	movl	$2, 104(%rsp)
	movl	$21, 96(%rsp)
	movl	$4, 88(%rsp)
	movl	$20, 80(%rsp)
	movl	$4, 72(%rsp)
	movl	$19, 64(%rsp)
	movl	$6, 56(%rsp)
	movl	$18, 48(%rsp)
	movl	$6, 40(%rsp)
	movl	$17, 32(%rsp)
	movl	$7, 24(%rsp)
	movl	$16, 16(%rsp)
	movl	$8, 8(%rsp)
	movl	$14, (%rsp)
	movl	$60, %edi
	movl	$10, %esi
	movl	$1, %edx
	movl	$9, %ecx
	movl	$2, %r8d
	movl	$8, %r9d
	xorl	%eax, %eax
	callq	_KTimestamp
	callq	_KPopCDep
	cmpb	$0, %bl
	jne	.LBB2_68
# BB#38:                                # %land.lhs.true60
	movl	$60, %edi
	callq	_KPushCDep
	movl	$statemate_FH_TUERMODUL__SFHZ_MEC_old, %edi
	movl	$24, %esi
	movl	$1, %edx
	callq	_KLoad0
	movl	$5, %edi
	callq	_KWork
	movb	statemate_FH_TUERMODUL__SFHZ_MEC_old(%rip), %bl
	callq	_KPopCDep
	movl	$1, 136(%rsp)
	movl	$24, 128(%rsp)
	movl	$2, 120(%rsp)
	movl	$23, 112(%rsp)
	movl	$3, 104(%rsp)
	movl	$21, 96(%rsp)
	movl	$5, 88(%rsp)
	movl	$20, 80(%rsp)
	movl	$5, 72(%rsp)
	movl	$19, 64(%rsp)
	movl	$7, 56(%rsp)
	movl	$18, 48(%rsp)
	movl	$7, 40(%rsp)
	movl	$17, 32(%rsp)
	movl	$8, 24(%rsp)
	movl	$16, 16(%rsp)
	movl	$9, 8(%rsp)
	movl	$14, (%rsp)
	movl	$61, %edi
	movl	$11, %esi
	movl	$1, %edx
	movl	$10, %ecx
	movl	$2, %r8d
	movl	$9, %r9d
	xorl	%eax, %eax
	callq	_KTimestamp
	cmpb	$0, %bl
	je	.LBB2_68
# BB#39:                                # %if.then63
	movl	$61, %edi
	callq	_KPushCDep
	movl	$statemate_stable, %edi
	movl	$1, %esi
	callq	_KStoreConst
	movl	$3, %edi
	callq	_KWork
	.loc	1 368 19                # statemate.c:368:19
.Ltmp93:
	movb	$0, statemate_stable(%rip)
	movl	$statemate_FH_TUERMODUL__SFHZ_copy, %edi
	movl	$1, %esi
	callq	_KStoreConst
	.loc	1 369 19                # statemate.c:369:19
	movb	$0, statemate_FH_TUERMODUL__SFHZ_copy(%rip)
.Ltmp94:
.LBB2_30:                               # %if.end118
	movl	$statemate_MEC_KINDERSICHERUNG_CTRL_next_state, %edi
	movl	$1, %esi
	callq	_KStoreConst
	.loc	1 347 19                # statemate.c:347:19
.Ltmp95:
	movb	$1, statemate_MEC_KINDERSICHERUNG_CTRL_next_state(%rip)
	jmp	.LBB2_67
.Ltmp96:
.LBB2_6:                                # %if.then5
	movl	$45, %edi
	callq	_KPushCDep
	movl	$5, %edi
	callq	_KWork
	movl	$statemate_stable, %edi
	movl	$1, %esi
	callq	_KStoreConst
	.loc	1 278 13                # statemate.c:278:13
.Ltmp97:
	movb	$0, statemate_stable(%rip)
	movl	$statemate_FH_TUERMODUL__SFHZ_copy, %edi
	movl	$1, %esi
	callq	_KStoreConst
	.loc	1 279 13                # statemate.c:279:13
	movb	$0, statemate_FH_TUERMODUL__SFHZ_copy(%rip)
	movl	$statemate_FH_TUERMODUL__SFHA_copy, %edi
	movl	$1, %esi
	callq	_KStoreConst
	.loc	1 280 13                # statemate.c:280:13
	movb	$0, statemate_FH_TUERMODUL__SFHA_copy(%rip)
	movl	$statemate_KINDERSICHERUNG_CTRL_KINDERSICHERUNG_CTRL_next_state, %edi
	movl	$1, %esi
	callq	_KStoreConst
	.loc	1 282 13                # statemate.c:282:13
	movb	$3, statemate_KINDERSICHERUNG_CTRL_KINDERSICHERUNG_CTRL_next_state(%rip)
	movl	$statemate_ZENTRAL_KINDERSICHERUNG_CTRL_next_state, %edi
	movl	$1, %esi
	callq	_KStoreConst
	.loc	1 283 13                # statemate.c:283:13
	movb	$0, statemate_ZENTRAL_KINDERSICHERUNG_CTRL_next_state(%rip)
	jmp	.LBB2_67
.Ltmp98:
.LBB2_15:                               # %if.end18
	movl	$statemate_FH_TUERMODUL__SFHA_ZENTRAL, %edi
	movl	$10, %esi
	movl	$1, %edx
	callq	_KLoad0
	movl	$5, %edi
	callq	_KWork
	.loc	1 304 22                # statemate.c:304:22
.Ltmp99:
	movb	statemate_FH_TUERMODUL__SFHA_ZENTRAL(%rip), %bl
	movl	$1, 104(%rsp)
	movl	$10, 96(%rsp)
	movl	$3, 88(%rsp)
	movl	$9, 80(%rsp)
	movl	$3, 72(%rsp)
	movl	$8, 64(%rsp)
	movl	$5, 56(%rsp)
	movl	$7, 48(%rsp)
	movl	$5, 40(%rsp)
	movl	$6, 32(%rsp)
	movl	$6, 24(%rsp)
	movl	$5, 16(%rsp)
	movl	$7, 8(%rsp)
	movl	$3, (%rsp)
	movl	$49, %edi
	movl	$9, %esi
	movl	$1, %edx
	movl	$8, %ecx
	movl	$2, %r8d
	movl	$7, %r9d
	xorl	%eax, %eax
	callq	_KTimestamp
	callq	_KPopCDep
	cmpb	$0, %bl
	jne	.LBB2_18
# BB#16:                                # %land.lhs.true20
	movl	$49, %edi
	callq	_KPushCDep
	movl	$statemate_FH_TUERMODUL__SFHA_ZENTRAL_old, %edi
	movl	$11, %esi
	movl	$1, %edx
	callq	_KLoad0
	movl	$5, %edi
	callq	_KWork
	movb	statemate_FH_TUERMODUL__SFHA_ZENTRAL_old(%rip), %bl
	movl	$2, 120(%rsp)
	movl	$10, 112(%rsp)
	movl	$4, 104(%rsp)
	movl	$9, 96(%rsp)
	movl	$4, 88(%rsp)
	movl	$8, 80(%rsp)
	movl	$6, 72(%rsp)
	movl	$7, 64(%rsp)
	movl	$6, 56(%rsp)
	movl	$6, 48(%rsp)
	movl	$7, 40(%rsp)
	movl	$5, 32(%rsp)
	movl	$8, 24(%rsp)
	movl	$3, 16(%rsp)
	movl	$8, 8(%rsp)
	movl	$2, (%rsp)
	movl	$50, %edi
	movl	$10, %esi
	movl	$11, %edx
	movl	$1, %ecx
	movl	$1, %r8d
	movl	$9, %r9d
	xorl	%eax, %eax
	callq	_KTimestamp
	callq	_KPopCDep
	cmpb	$0, %bl
	je	.LBB2_18
# BB#17:                                # %if.then23
	movl	$50, %edi
	callq	_KPushCDep
	movl	$3, %edi
	callq	_KWork
	movl	$statemate_stable, %edi
	movl	$1, %esi
	callq	_KStoreConst
	.loc	1 306 19                # statemate.c:306:19
.Ltmp100:
	movb	$0, statemate_stable(%rip)
	movl	$statemate_FH_TUERMODUL__SFHA_copy, %edi
	movl	$1, %esi
	callq	_KStoreConst
	.loc	1 307 19                # statemate.c:307:19
	movb	$0, statemate_FH_TUERMODUL__SFHA_copy(%rip)
	jmp	.LBB2_11
.Ltmp101:
.LBB2_18:                               # %if.end24
	movl	$49, %edi
	callq	_KPushCDep
	movl	$5, %edi
	callq	_KWork
	movl	$statemate_FH_TUERMODUL__SFHZ_ZENTRAL, %edi
	movl	$12, %esi
	movl	$1, %edx
	callq	_KLoad0
	.loc	1 312 22                # statemate.c:312:22
	movb	statemate_FH_TUERMODUL__SFHZ_ZENTRAL(%rip), %bl
	movl	$1, 120(%rsp)
	movl	$12, 112(%rsp)
	movl	$2, 104(%rsp)
	movl	$10, 96(%rsp)
	movl	$4, 88(%rsp)
	movl	$9, 80(%rsp)
	movl	$4, 72(%rsp)
	movl	$8, 64(%rsp)
	movl	$6, 56(%rsp)
	movl	$7, 48(%rsp)
	movl	$6, 40(%rsp)
	movl	$6, 32(%rsp)
	movl	$7, 24(%rsp)
	movl	$5, 16(%rsp)
	movl	$8, 8(%rsp)
	movl	$3, (%rsp)
	movl	$51, %edi
	movl	$10, %esi
	movl	$1, %edx
	movl	$9, %ecx
	movl	$2, %r8d
	movl	$8, %r9d
	xorl	%eax, %eax
	callq	_KTimestamp
	callq	_KPopCDep
	cmpb	$0, %bl
	jne	.LBB2_68
# BB#19:                                # %land.lhs.true26
	movl	$51, %edi
	callq	_KPushCDep
	movl	$statemate_FH_TUERMODUL__SFHZ_ZENTRAL_old, %edi
	movl	$13, %esi
	movl	$1, %edx
	callq	_KLoad0
	movl	$5, %edi
	callq	_KWork
	movb	statemate_FH_TUERMODUL__SFHZ_ZENTRAL_old(%rip), %bl
	movl	$1, 136(%rsp)
	movl	$13, 128(%rsp)
	movl	$2, 120(%rsp)
	movl	$12, 112(%rsp)
	movl	$3, 104(%rsp)
	movl	$10, 96(%rsp)
	movl	$5, 88(%rsp)
	movl	$9, 80(%rsp)
	movl	$5, 72(%rsp)
	movl	$8, 64(%rsp)
	movl	$7, 56(%rsp)
	movl	$7, 48(%rsp)
	movl	$7, 40(%rsp)
	movl	$6, 32(%rsp)
	movl	$8, 24(%rsp)
	movl	$5, 16(%rsp)
	movl	$9, 8(%rsp)
	movl	$3, (%rsp)
	movl	$52, %edi
	movl	$11, %esi
	movl	$1, %edx
	movl	$10, %ecx
	movl	$2, %r8d
	movl	$9, %r9d
	xorl	%eax, %eax
	callq	_KTimestamp
	callq	_KPopCDep
	cmpb	$0, %bl
	je	.LBB2_68
# BB#20:                                # %if.then29
	movl	$52, %edi
	callq	_KPushCDep
	movl	$statemate_stable, %edi
	movl	$1, %esi
	callq	_KStoreConst
	movl	$3, %edi
	callq	_KWork
	.loc	1 314 19                # statemate.c:314:19
.Ltmp102:
	movb	$0, statemate_stable(%rip)
	movl	$statemate_FH_TUERMODUL__SFHZ_copy, %edi
	movl	$1, %esi
	callq	_KStoreConst
	.loc	1 315 19                # statemate.c:315:19
	movb	$0, statemate_FH_TUERMODUL__SFHZ_copy(%rip)
.Ltmp103:
.LBB2_11:                               # %if.end118
	movl	$statemate_ZENTRAL_KINDERSICHERUNG_CTRL_next_state, %edi
	movl	$1, %esi
	callq	_KStoreConst
	.loc	1 293 19                # statemate.c:293:19
.Ltmp104:
	movb	$1, statemate_ZENTRAL_KINDERSICHERUNG_CTRL_next_state(%rip)
.Ltmp105:
.LBB2_67:                               # %if.end118
	callq	_KPopCDep
.LBB2_68:                               # %if.end118
	xorl	%esi, %esi
	movq	%r14, %rdi
	addq	$144, %rsp
	popq	%rbx
	popq	%r12
	popq	%r14
	popq	%r15
	popq	%rbp
	jmp	_KExitRegion            # TAILCALL
.Ltmp106:
	.size	statemate_generic_KINDERSICHERUNG_CTRL, .Ltmp106-statemate_generic_KINDERSICHERUNG_CTRL
.Lfunc_end2:
	.cfi_endproc

	.globl	statemate_generic_FH_TUERMODUL_CTRL
	.align	16, 0x90
	.type	statemate_generic_FH_TUERMODUL_CTRL,@function
statemate_generic_FH_TUERMODUL_CTRL:    # @statemate_generic_FH_TUERMODUL_CTRL
.Lfunc_begin3:
	.loc	1 450 0                 # statemate.c:450:0
	.cfi_startproc
# BB#0:                                 # %entry
	pushq	%rbp
.Ltmp107:
	.cfi_def_cfa_offset 16
.Ltmp108:
	.cfi_offset %rbp, -16
	movq	%rsp, %rbp
.Ltmp109:
	.cfi_def_cfa_register %rbp
	pushq	%r15
	pushq	%r14
	pushq	%r12
	pushq	%rbx
	subq	$240, %rsp
.Ltmp110:
	.cfi_offset %rbx, -48
.Ltmp111:
	.cfi_offset %r12, -40
.Ltmp112:
	.cfi_offset %r14, -32
.Ltmp113:
	.cfi_offset %r15, -24
	movabsq	$-2282517400654745588, %r14 # imm = 0xE052DE847453700C
	xorl	%esi, %esi
	movq	%r14, %rdi
	callq	_KEnterRegion
	movl	$141, %edi
	xorl	%esi, %esi
	callq	_KPrepRTable
	movl	$statemate_bitlist+13, %edi
	movl	$1, %esi
	movl	$1, %edx
	callq	_KLoad0
	movl	$5, %edi
	callq	_KWork
	.loc	1 451 8 prologue_end    # statemate.c:451:8
.Ltmp114:
	movb	statemate_bitlist+13(%rip), %bl
	movl	$87, %edi
	movl	$1, %esi
	movl	$1, %edx
	callq	_KTimestamp1
	cmpb	$0, %bl
	jne	.LBB3_4
# BB#1:                                 # %land.lhs.true
	movl	$87, %edi
	callq	_KPushCDep
	movl	$statemate_bitlist+15, %edi
	movl	$2, %esi
	movl	$1, %edx
	callq	_KLoad0
	movl	$11, %edi
	callq	_KWork
	movb	statemate_bitlist+15(%rip), %bl
	movl	$statemate_bitlist+14, %edi
	movl	$3, %esi
	movl	$1, %edx
	callq	_KLoad0
	movb	statemate_bitlist+14(%rip), %r15b
	movl	$2, (%rsp)
	movl	$88, %edi
	movl	$1, %esi
	movl	$3, %edx
	movl	$2, %ecx
	movl	$2, %r8d
	movl	$3, %r9d
	callq	_KTimestamp3
	callq	_KPopCDep
	cmpb	$0, %bl
	je	.LBB3_4
# BB#2:                                 # %land.lhs.true
	testb	%r15b, %r15b
	jne	.LBB3_4
# BB#3:                                 # %if.then
	movl	$88, %edi
	callq	_KPushCDep
	movl	$statemate_bitlist+4, %edi
	movl	$1, %esi
	callq	_KStoreConst
	movl	$2, %edi
	callq	_KWork
	.loc	1 454 5                 # statemate.c:454:5
.Ltmp115:
	movb	$0, statemate_bitlist+4(%rip)
	movl	$statemate_bitlist+6, %edi
	movl	$1, %esi
	callq	_KStoreConst
	.loc	1 455 5                 # statemate.c:455:5
	movb	$0, statemate_bitlist+6(%rip)
	callq	_KPopCDep
.Ltmp116:
.LBB3_4:                                # %if.end
	movl	$statemate_bitlist+13, %edi
	movl	$4, %esi
	movl	$1, %edx
	callq	_KLoad0
	movl	$5, %edi
	callq	_KWork
	.loc	1 457 8                 # statemate.c:457:8
	movb	statemate_bitlist+13(%rip), %bl
	movl	$89, %edi
	movl	$4, %esi
	movl	$1, %edx
	callq	_KTimestamp1
	cmpb	$0, %bl
	je	.LBB3_138
# BB#5:                                 # %if.then5
	movl	$89, %edi
	callq	_KPushCDep
	movl	$5, %edi
	callq	_KWork
	movl	$statemate_bitlist+10, %edi
	movl	$5, %esi
	movl	$1, %edx
	callq	_KLoad0
	.loc	1 458 10                # statemate.c:458:10
.Ltmp117:
	movb	statemate_bitlist+10(%rip), %bl
	callq	_KPopCDep
	movl	$90, %edi
	movl	$4, %esi
	movl	$2, %edx
	movl	$5, %ecx
	movl	$1, %r8d
	callq	_KTimestamp2
	cmpb	$0, %bl
	jne	.LBB3_7
# BB#6:                                 # %if.then7
	movl	$90, %edi
	callq	_KPushCDep
	movl	$1, %edi
	callq	_KWork
	movl	$statemate_KINDERSICHERUNG_CTRL_KINDERSICHERUNG_CTRL_next_state, %edi
	movl	$1, %esi
	callq	_KStoreConst
	.loc	1 459 7                 # statemate.c:459:7
.Ltmp118:
	movb	$3, statemate_KINDERSICHERUNG_CTRL_KINDERSICHERUNG_CTRL_next_state(%rip)
	callq	_KPopCDep
.Ltmp119:
.LBB3_7:                                # %if.end8
	movl	$89, %edi
	callq	_KPushCDep
	movl	$6, %edi
	callq	_KWork
	movl	$statemate_bitlist+11, %edi
	movl	$1, %esi
	callq	_KStoreConst
	.loc	1 460 5                 # statemate.c:460:5
	movb	$0, statemate_bitlist+11(%rip)
	movl	$statemate_bitlist+19, %edi
	movl	$6, %esi
	movl	$1, %edx
	callq	_KLoad0
	.loc	1 461 10                # statemate.c:461:10
	movb	statemate_bitlist+19(%rip), %bl
	movl	$91, %edi
	movl	$4, %esi
	movl	$2, %edx
	movl	$6, %ecx
	movl	$1, %r8d
	callq	_KTimestamp2
	callq	_KPopCDep
	cmpb	$0, %bl
	jne	.LBB3_9
# BB#8:                                 # %if.then10
	movl	$91, %edi
	callq	_KPushCDep
	movl	$2, %edi
	callq	_KWork
	movl	$statemate_bitlist, %edi
	movl	$1, %esi
	callq	_KStoreConst
	.loc	1 462 7                 # statemate.c:462:7
.Ltmp120:
	movb	$0, statemate_bitlist(%rip)
	movl	$statemate_BLOCK_ERKENNUNG_CTRL_BLOCK_ERKENNUNG_CTRL_next_state, %edi
	movl	$1, %esi
	callq	_KStoreConst
	.loc	1 464 7                 # statemate.c:464:7
	movb	$1, statemate_BLOCK_ERKENNUNG_CTRL_BLOCK_ERKENNUNG_CTRL_next_state(%rip)
	callq	_KPopCDep
.Ltmp121:
.LBB3_9:                                # %if.end11
	movl	$89, %edi
	callq	_KPushCDep
	movl	$7, %edi
	callq	_KWork
	movl	$statemate_bitlist+20, %edi
	movl	$1, %esi
	callq	_KStoreConst
	.loc	1 466 5                 # statemate.c:466:5
	movb	$0, statemate_bitlist+20(%rip)
	movl	$statemate_bitlist+11, %edi
	movl	$1, %esi
	callq	_KStoreConst
	.loc	1 467 5                 # statemate.c:467:5
	movb	$1, statemate_bitlist+11(%rip)
	movl	$statemate_bitlist+20, %edi
	movl	$1, %esi
	callq	_KStoreConst
	.loc	1 468 5                 # statemate.c:468:5
	movb	$1, statemate_bitlist+20(%rip)
	movl	$statemate_B_FH_TUERMODUL_CTRL_next_state, %edi
	movl	$7, %esi
	movl	$1, %edx
	callq	_KLoad0
	.loc	1 469 14                # statemate.c:469:14
	movsbl	statemate_B_FH_TUERMODUL_CTRL_next_state(%rip), %ebx
	movl	$92, %edi
	movl	$4, %esi
	movl	$1, %edx
	movl	$7, %ecx
	xorl	%r8d, %r8d
	callq	_KTimestamp2
	callq	_KPopCDep
	movl	$92, %edi
	.loc	1 469 5 is_stmt 0       # statemate.c:469:5
	cmpl	$3, %ebx
	je	.LBB3_33
# BB#10:                                # %if.end11
	cmpl	$2, %ebx
	jne	.LBB3_11
# BB#17:                                # %sw.bb19
	callq	_KPushCDep
	movl	$11, %edi
	callq	_KWork
	movl	$statemate_FH_TUERMODUL__BLOCK, %edi
	movl	$10, %esi
	movl	$1, %edx
	callq	_KLoad0
	.loc	1 482 16 is_stmt 1      # statemate.c:482:16
.Ltmp122:
	movb	statemate_FH_TUERMODUL__BLOCK(%rip), %bl
	movl	$statemate_FH_TUERMODUL__BLOCK_old, %edi
	movl	$11, %esi
	movl	$1, %edx
	callq	_KLoad0
	movb	statemate_FH_TUERMODUL__BLOCK_old(%rip), %r15b
	movl	$2, 16(%rsp)
	movl	$11, 8(%rsp)
	movl	$2, (%rsp)
	movl	$94, %edi
	movl	$4, %esi
	movl	$3, %edx
	movl	$7, %ecx
	movl	$2, %r8d
	movl	$10, %r9d
	callq	_KTimestamp4
	callq	_KPopCDep
	cmpb	$0, %bl
	je	.LBB3_21
# BB#18:                                # %sw.bb19
	testb	%r15b, %r15b
	jne	.LBB3_21
# BB#19:                                # %land.lhs.true24
	movl	$94, %edi
	callq	_KPushCDep
	movl	$statemate_FH_TUERMODUL__MFHZ, %edi
	movl	$12, %esi
	movl	$1, %edx
	callq	_KLoad0
	movl	$5, %edi
	callq	_KWork
	movb	statemate_FH_TUERMODUL__MFHZ(%rip), %bl
	movl	$1, 32(%rsp)
	movl	$12, 24(%rsp)
	movl	$3, 16(%rsp)
	movl	$11, 8(%rsp)
	movl	$3, (%rsp)
	movl	$95, %edi
	movl	$4, %esi
	movl	$4, %edx
	movl	$7, %ecx
	movl	$3, %r8d
	movl	$10, %r9d
	callq	_KTimestamp5
	callq	_KPopCDep
	cmpb	$0, %bl
	je	.LBB3_21
# BB#20:                                # %if.then27
	movl	$95, %edi
	callq	_KPushCDep
	movl	$9, %edi
	callq	_KWork
	movl	$statemate_stable, %edi
	movl	$1, %esi
	callq	_KStoreConst
	.loc	1 485 13                # statemate.c:485:13
.Ltmp123:
	movb	$0, statemate_stable(%rip)
	movl	$statemate_FH_TUERMODUL__MFHZ_copy, %edi
	movl	$1, %esi
	callq	_KStoreConst
	.loc	1 486 13                # statemate.c:486:13
	movb	$0, statemate_FH_TUERMODUL__MFHZ_copy(%rip)
	movl	$statemate_time, %edi
	movl	$13, %esi
	movl	$8, %edx
	callq	_KLoad0
	.loc	1 487 53                # statemate.c:487:53
	movq	statemate_time(%rip), %rbx
	movl	$13, %edi
	movl	$13, %esi
	xorl	%edx, %edx
	callq	_KTimestamp1
	movl	$13, %edi
	movl	$statemate_sc_FH_TUERMODUL_CTRL_2329_1, %esi
	movl	$8, %edx
	callq	_KStore
	.loc	1 487 13 is_stmt 0      # statemate.c:487:13
	movq	%rbx, statemate_sc_FH_TUERMODUL_CTRL_2329_1(%rip)
	jmp	.LBB3_15
.Ltmp124:
.LBB3_33:                               # %sw.bb45
	callq	_KPushCDep
	movl	$statemate_FH_TUERMODUL_CTRL__N, %edi
	movl	$19, %esi
	movl	$4, %edx
	callq	_KLoad0
	movl	$11, %edi
	callq	_KWork
	.loc	1 540 20 is_stmt 1      # statemate.c:540:20
.Ltmp125:
	movl	statemate_FH_TUERMODUL_CTRL__N(%rip), %ebx
	movl	$statemate_FH_TUERMODUL_CTRL__N_old, %edi
	movl	$20, %esi
	movl	$4, %edx
	callq	_KLoad0
	movl	statemate_FH_TUERMODUL_CTRL__N_old(%rip), %r15d
	movl	$2, 16(%rsp)
	movl	$20, 8(%rsp)
	movl	$2, (%rsp)
	movl	$101, %edi
	movl	$4, %esi
	movl	$3, %edx
	movl	$7, %ecx
	movl	$2, %r8d
	movl	$19, %r9d
	callq	_KTimestamp4
	callq	_KPopCDep
	cmpl	$61, %ebx
	jl	.LBB3_38
.Ltmp126:
# BB#34:                                # %sw.bb45
	cmpl	$60, %r15d
	jg	.LBB3_38
# BB#35:                                # %land.lhs.true51
	movl	$101, %edi
	callq	_KPushCDep
	movl	$5, %edi
	callq	_KWork
	movl	$statemate_FH_TUERMODUL_CTRL__INREVERS1, %edi
	movl	$21, %esi
	movl	$1, %edx
	callq	_KLoad0
	.loc	1 540 16 is_stmt 0      # statemate.c:540:16
	movb	statemate_FH_TUERMODUL_CTRL__INREVERS1(%rip), %bl
	movl	$1, 32(%rsp)
	movl	$21, 24(%rsp)
	movl	$3, 16(%rsp)
	movl	$20, 8(%rsp)
	movl	$3, (%rsp)
	movl	$102, %edi
	movl	$4, %esi
	movl	$4, %edx
	movl	$7, %ecx
	movl	$3, %r8d
	movl	$19, %r9d
	callq	_KTimestamp5
	callq	_KPopCDep
	cmpb	$0, %bl
	jne	.LBB3_38
# BB#36:                                # %lor.lhs.false
	movl	$102, %edi
	callq	_KPushCDep
	movl	$5, %edi
	callq	_KWork
	movl	$statemate_FH_TUERMODUL_CTRL__INREVERS2, %edi
	movl	$22, %esi
	movl	$1, %edx
	callq	_KLoad0
	movb	statemate_FH_TUERMODUL_CTRL__INREVERS2(%rip), %bl
	movl	$1, 48(%rsp)
	movl	$22, 40(%rsp)
	movl	$2, 32(%rsp)
	movl	$21, 24(%rsp)
	movl	$4, 16(%rsp)
	movl	$20, 8(%rsp)
	movl	$4, (%rsp)
	movl	$103, %edi
	movl	$4, %esi
	movl	$5, %edx
	movl	$7, %ecx
	movl	$4, %r8d
	movl	$19, %r9d
	callq	_KTimestamp6
	callq	_KPopCDep
	cmpb	$0, %bl
	je	.LBB3_37
.LBB3_38:                               # %if.end57
	movl	$101, %edi
	callq	_KPushCDep
	movl	$11, %edi
	callq	_KWork
	movl	$statemate_FH_TUERMODUL__BLOCK, %edi
	movl	$23, %esi
	movl	$1, %edx
	callq	_KLoad0
	.loc	1 551 16 is_stmt 1      # statemate.c:551:16
	movb	statemate_FH_TUERMODUL__BLOCK(%rip), %bl
	movl	$statemate_FH_TUERMODUL__BLOCK_old, %edi
	movl	$24, %esi
	movl	$1, %edx
	callq	_KLoad0
	movb	statemate_FH_TUERMODUL__BLOCK_old(%rip), %r15b
	movl	$2, 48(%rsp)
	movl	$24, 40(%rsp)
	movl	$2, 32(%rsp)
	movl	$23, 24(%rsp)
	movl	$4, 16(%rsp)
	movl	$20, 8(%rsp)
	movl	$4, (%rsp)
	movl	$104, %edi
	movl	$4, %esi
	movl	$5, %edx
	movl	$7, %ecx
	movl	$4, %r8d
	movl	$19, %r9d
	callq	_KTimestamp6
	callq	_KPopCDep
	cmpb	$0, %bl
	je	.LBB3_44
# BB#39:                                # %if.end57
	testb	%r15b, %r15b
	jne	.LBB3_44
# BB#40:                                # %land.lhs.true62
	movl	$104, %edi
	callq	_KPushCDep
	movl	$statemate_FH_TUERMODUL__MFHA, %edi
	movl	$25, %esi
	movl	$1, %edx
	callq	_KLoad0
	movl	$5, %edi
	callq	_KWork
	movb	statemate_FH_TUERMODUL__MFHA(%rip), %bl
	movl	$1, 64(%rsp)
	movl	$25, 56(%rsp)
	movl	$3, 48(%rsp)
	movl	$24, 40(%rsp)
	movl	$3, 32(%rsp)
	movl	$23, 24(%rsp)
	movl	$5, 16(%rsp)
	movl	$20, 8(%rsp)
	movl	$5, (%rsp)
	movl	$105, %edi
	movl	$4, %esi
	movl	$6, %edx
	movl	$7, %ecx
	movl	$5, %r8d
	movl	$19, %r9d
	callq	_KTimestamp7
	callq	_KPopCDep
	cmpb	$0, %bl
	je	.LBB3_44
# BB#41:                                # %if.then65
	movl	$105, %edi
	callq	_KPushCDep
	movl	$statemate_stable, %edi
	movl	$1, %esi
	callq	_KStoreConst
	movl	$9, %edi
	callq	_KWork
	.loc	1 554 13                # statemate.c:554:13
.Ltmp127:
	movb	$0, statemate_stable(%rip)
	movl	$statemate_FH_TUERMODUL__MFHA_copy, %edi
	movl	$1, %esi
	callq	_KStoreConst
	.loc	1 555 13                # statemate.c:555:13
	movb	$0, statemate_FH_TUERMODUL__MFHA_copy(%rip)
	movl	$statemate_time, %edi
	movl	$26, %esi
	movl	$8, %edx
	callq	_KLoad0
	.loc	1 556 53                # statemate.c:556:53
	movq	statemate_time(%rip), %rbx
	movl	$26, %edi
	movl	$26, %esi
	xorl	%edx, %edx
	callq	_KTimestamp1
	movl	$26, %edi
	movl	$statemate_sc_FH_TUERMODUL_CTRL_2375_2, %esi
	movl	$8, %edx
	callq	_KStore
	.loc	1 556 13 is_stmt 0      # statemate.c:556:13
	movq	%rbx, statemate_sc_FH_TUERMODUL_CTRL_2375_2(%rip)
	jmp	.LBB3_42
.Ltmp128:
.LBB3_11:                               # %if.end11
	cmpl	$1, %ebx
	jne	.LBB3_115
# BB#12:                                # %sw.bb
	callq	_KPushCDep
	movl	$statemate_FH_TUERMODUL_CTRL__N, %edi
	movl	$8, %esi
	movl	$4, %edx
	callq	_KLoad0
	movl	$11, %edi
	callq	_KWork
	.loc	1 471 18 is_stmt 1      # statemate.c:471:18
.Ltmp129:
	movl	statemate_FH_TUERMODUL_CTRL__N(%rip), %ebx
	movl	$statemate_FH_TUERMODUL_CTRL__N_old, %edi
	movl	$9, %esi
	movl	$4, %edx
	callq	_KLoad0
	movl	statemate_FH_TUERMODUL_CTRL__N_old(%rip), %r15d
	movl	$2, 16(%rsp)
	movl	$9, 8(%rsp)
	movl	$2, (%rsp)
	movl	$93, %edi
	movl	$4, %esi
	movl	$3, %edx
	movl	$7, %ecx
	movl	$2, %r8d
	movl	$8, %r9d
	callq	_KTimestamp4
	callq	_KPopCDep
	cmpl	$59, %ebx
	jne	.LBB3_117
# BB#13:                                # %sw.bb
	cmpl	$59, %r15d
	je	.LBB3_117
# BB#14:                                # %if.then17
	movl	$93, %edi
	callq	_KPushCDep
	movl	$statemate_stable, %edi
	movl	$1, %esi
	callq	_KStoreConst
	movl	$3, %edi
	callq	_KWork
	.loc	1 473 13                # statemate.c:473:13
.Ltmp130:
	movb	$0, statemate_stable(%rip)
.LBB3_15:                               # %sw.epilog187
	movl	$statemate_B_FH_TUERMODUL_CTRL_next_state, %edi
	movl	$1, %esi
	callq	_KStoreConst
	.loc	1 475 13                # statemate.c:475:13
	movb	$3, statemate_B_FH_TUERMODUL_CTRL_next_state(%rip)
.LBB3_16:                               # %sw.epilog187
	movl	$statemate_INITIALISIERT_FH_TUERMODUL_CTRL_next_state, %edi
	movl	$1, %esi
	callq	_KStoreConst
	.loc	1 476 13                # statemate.c:476:13
	movb	$3, statemate_INITIALISIERT_FH_TUERMODUL_CTRL_next_state(%rip)
	jmp	.LBB3_116
.Ltmp131:
.LBB3_21:                               # %if.end28
	movl	$94, %edi
	callq	_KPushCDep
	movl	$statemate_NICHT_INITIALISIERT_NICHT_INITIALISIERT_next_state, %edi
	movl	$14, %esi
	movl	$1, %edx
	callq	_KLoad0
	movl	$4, %edi
	callq	_KWork
	.loc	1 493 20                # statemate.c:493:20
.Ltmp132:
	movsbl	statemate_NICHT_INITIALISIERT_NICHT_INITIALISIERT_next_state(%rip), %ebx
	movl	$0, 32(%rsp)
	movl	$14, 24(%rsp)
	movl	$2, 16(%rsp)
	movl	$11, 8(%rsp)
	movl	$2, (%rsp)
	movl	$96, %edi
	movl	$4, %esi
	movl	$3, %edx
	movl	$7, %ecx
	movl	$2, %r8d
	movl	$10, %r9d
	callq	_KTimestamp5
	callq	_KPopCDep
	movl	$96, %edi
	.loc	1 493 11 is_stmt 0      # statemate.c:493:11
	cmpl	$3, %ebx
	je	.LBB3_28
# BB#22:                                # %if.end28
	cmpl	$2, %ebx
	jne	.LBB3_23
# BB#26:                                # %sw.bb34
	callq	_KPushCDep
	movl	$statemate_FH_TUERMODUL__SFHA, %edi
	movl	$16, %esi
	movl	$1, %edx
	callq	_KLoad0
	movl	$5, %edi
	callq	_KWork
	.loc	1 505 22 is_stmt 1      # statemate.c:505:22
.Ltmp133:
	movb	statemate_FH_TUERMODUL__SFHA(%rip), %bl
	movl	$1, 48(%rsp)
	movl	$16, 40(%rsp)
	movl	$1, 32(%rsp)
	movl	$14, 24(%rsp)
	movl	$3, 16(%rsp)
	movl	$11, 8(%rsp)
	movl	$3, (%rsp)
	movl	$98, %edi
	movl	$4, %esi
	movl	$4, %edx
	movl	$7, %ecx
	movl	$3, %r8d
	movl	$10, %r9d
	callq	_KTimestamp6
	callq	_KPopCDep
	cmpb	$0, %bl
	jne	.LBB3_117
# BB#27:                                # %if.then36
	movl	$98, %edi
	callq	_KPushCDep
	movl	$statemate_stable, %edi
	movl	$1, %esi
	callq	_KStoreConst
	movl	$3, %edi
	callq	_KWork
	.loc	1 506 19                # statemate.c:506:19
.Ltmp134:
	movb	$0, statemate_stable(%rip)
	movl	$statemate_FH_TUERMODUL__MFHA_copy, %edi
	movl	$1, %esi
	callq	_KStoreConst
	.loc	1 507 19                # statemate.c:507:19
	movb	$0, statemate_FH_TUERMODUL__MFHA_copy(%rip)
	jmp	.LBB3_43
.Ltmp135:
.LBB3_44:                               # %if.end66
	movl	$104, %edi
	callq	_KPushCDep
	movl	$statemate_FH_TUERMODUL__BLOCK, %edi
	movl	$27, %esi
	movl	$1, %edx
	callq	_KLoad0
	movl	$11, %edi
	callq	_KWork
	.loc	1 562 16                # statemate.c:562:16
.Ltmp136:
	movb	statemate_FH_TUERMODUL__BLOCK(%rip), %bl
	movl	$statemate_FH_TUERMODUL__BLOCK_old, %edi
	movl	$28, %esi
	movl	$1, %edx
	callq	_KLoad0
	movb	statemate_FH_TUERMODUL__BLOCK_old(%rip), %r15b
	movl	$2, 88(%rsp)
	movl	$28, 80(%rsp)
	movl	$2, 72(%rsp)
	movl	$27, 64(%rsp)
	movl	$4, 56(%rsp)
	movl	$24, 48(%rsp)
	movl	$4, 40(%rsp)
	movl	$23, 32(%rsp)
	movl	$6, 24(%rsp)
	movl	$20, 16(%rsp)
	movl	$6, 8(%rsp)
	movl	$19, (%rsp)
	movl	$106, %edi
	movl	$8, %esi
	movl	$4, %edx
	movl	$7, %ecx
	movl	$7, %r8d
	movl	$6, %r9d
	xorl	%eax, %eax
	callq	_KTimestamp
	callq	_KPopCDep
	cmpb	$0, %bl
	je	.LBB3_48
# BB#45:                                # %if.end66
	testb	%r15b, %r15b
	jne	.LBB3_48
# BB#46:                                # %land.lhs.true71
	movl	$106, %edi
	callq	_KPushCDep
	movl	$statemate_FH_TUERMODUL__MFHZ, %edi
	movl	$29, %esi
	movl	$1, %edx
	callq	_KLoad0
	movl	$5, %edi
	callq	_KWork
	movb	statemate_FH_TUERMODUL__MFHZ(%rip), %bl
	movl	$1, 104(%rsp)
	movl	$29, 96(%rsp)
	movl	$3, 88(%rsp)
	movl	$28, 80(%rsp)
	movl	$3, 72(%rsp)
	movl	$27, 64(%rsp)
	movl	$5, 56(%rsp)
	movl	$24, 48(%rsp)
	movl	$5, 40(%rsp)
	movl	$23, 32(%rsp)
	movl	$7, 24(%rsp)
	movl	$20, 16(%rsp)
	movl	$7, 8(%rsp)
	movl	$19, (%rsp)
	movl	$107, %edi
	movl	$9, %esi
	movl	$4, %edx
	movl	$8, %ecx
	movl	$7, %r8d
	movl	$7, %r9d
	xorl	%eax, %eax
	callq	_KTimestamp
	callq	_KPopCDep
	cmpb	$0, %bl
	je	.LBB3_48
# BB#47:                                # %if.then74
	movl	$107, %edi
	callq	_KPushCDep
	movl	$statemate_stable, %edi
	movl	$1, %esi
	callq	_KStoreConst
	movl	$9, %edi
	callq	_KWork
	.loc	1 565 13                # statemate.c:565:13
.Ltmp137:
	movb	$0, statemate_stable(%rip)
	movl	$statemate_FH_TUERMODUL__MFHZ_copy, %edi
	movl	$1, %esi
	callq	_KStoreConst
	.loc	1 566 13                # statemate.c:566:13
	movb	$0, statemate_FH_TUERMODUL__MFHZ_copy(%rip)
	movl	$statemate_time, %edi
	movl	$30, %esi
	movl	$8, %edx
	callq	_KLoad0
	.loc	1 567 53                # statemate.c:567:53
	movq	statemate_time(%rip), %rbx
	movl	$30, %edi
	movl	$30, %esi
	xorl	%edx, %edx
	callq	_KTimestamp1
	movl	$30, %edi
	movl	$statemate_sc_FH_TUERMODUL_CTRL_2352_1, %esi
	movl	$8, %edx
	callq	_KStore
	.loc	1 567 13 is_stmt 0      # statemate.c:567:13
	movq	%rbx, statemate_sc_FH_TUERMODUL_CTRL_2352_1(%rip)
.Ltmp138:
.LBB3_42:                               # %sw.epilog187
	movl	$statemate_B_FH_TUERMODUL_CTRL_next_state, %edi
	movl	$1, %esi
	callq	_KStoreConst
	.loc	1 558 13 is_stmt 1      # statemate.c:558:13
.Ltmp139:
	movb	$2, statemate_B_FH_TUERMODUL_CTRL_next_state(%rip)
	jmp	.LBB3_43
.Ltmp140:
.LBB3_115:                              # %sw.default186
	callq	_KPushCDep
	movl	$statemate_stable, %edi
	movl	$1, %esi
	callq	_KStoreConst
	movl	$2, %edi
	callq	_KWork
	.loc	1 787 11                # statemate.c:787:11
.Ltmp141:
	movb	$0, statemate_stable(%rip)
	movl	$statemate_B_FH_TUERMODUL_CTRL_next_state, %edi
	movl	$1, %esi
	callq	_KStoreConst
	.loc	1 788 11                # statemate.c:788:11
	movb	$2, statemate_B_FH_TUERMODUL_CTRL_next_state(%rip)
	jmp	.LBB3_116
.Ltmp142:
.LBB3_48:                               # %if.end75
	movl	$106, %edi
	callq	_KPushCDep
	movl	$statemate_INITIALISIERT_FH_TUERMODUL_CTRL_next_state, %edi
	movl	$31, %esi
	movl	$1, %edx
	callq	_KLoad0
	movl	$4, %edi
	callq	_KWork
	.loc	1 573 20                # statemate.c:573:20
.Ltmp143:
	movsbl	statemate_INITIALISIERT_FH_TUERMODUL_CTRL_next_state(%rip), %ebx
	callq	_KPopCDep
	movl	$0, 104(%rsp)
	movl	$31, 96(%rsp)
	movl	$2, 88(%rsp)
	movl	$28, 80(%rsp)
	movl	$2, 72(%rsp)
	movl	$27, 64(%rsp)
	movl	$4, 56(%rsp)
	movl	$24, 48(%rsp)
	movl	$4, 40(%rsp)
	movl	$23, 32(%rsp)
	movl	$6, 24(%rsp)
	movl	$20, 16(%rsp)
	movl	$6, 8(%rsp)
	movl	$19, (%rsp)
	movl	$108, %edi
	movl	$9, %esi
	movl	$4, %edx
	movl	$7, %ecx
	movl	$7, %r8d
	movl	$6, %r9d
	xorl	%eax, %eax
	callq	_KTimestamp
	movl	$108, %edi
	.loc	1 573 11 is_stmt 0      # statemate.c:573:11
	cmpl	$3, %ebx
	je	.LBB3_106
# BB#49:                                # %if.end75
	cmpl	$2, %ebx
	jne	.LBB3_50
# BB#69:                                # %sw.bb110
	callq	_KPushCDep
	movl	$statemate_FH_TUERMODUL__POSITION, %edi
	movl	$42, %esi
	movl	$4, %edx
	callq	_KLoad0
	movl	$5, %edi
	callq	_KWork
	.loc	1 624 22 is_stmt 1      # statemate.c:624:22
.Ltmp144:
	movl	statemate_FH_TUERMODUL__POSITION(%rip), %ebx
	movl	$1, 120(%rsp)
	movl	$31, 112(%rsp)
	movl	$3, 104(%rsp)
	movl	$28, 96(%rsp)
	movl	$3, 88(%rsp)
	movl	$27, 80(%rsp)
	movl	$5, 72(%rsp)
	movl	$24, 64(%rsp)
	movl	$5, 56(%rsp)
	movl	$23, 48(%rsp)
	movl	$7, 40(%rsp)
	movl	$20, 32(%rsp)
	movl	$7, 24(%rsp)
	movl	$19, 16(%rsp)
	movl	$7, 8(%rsp)
	movl	$7, (%rsp)
	movl	$116, %edi
	movl	$10, %esi
	movl	$42, %edx
	movl	$1, %ecx
	movl	$4, %r8d
	movl	$8, %r9d
	xorl	%eax, %eax
	callq	_KTimestamp
	callq	_KPopCDep
	movl	$116, %edi
	callq	_KPushCDep
	cmpl	$0, %ebx
	jle	.LBB3_70
# BB#72:                                # %if.end114
	movl	$statemate_SCHLIESSEN_FH_TUERMODUL_CTRL_next_state, %edi
	movl	$43, %esi
	movl	$1, %edx
	callq	_KLoad0
	movl	$4, %edi
	callq	_KWork
	.loc	1 631 26                # statemate.c:631:26
	movsbl	statemate_SCHLIESSEN_FH_TUERMODUL_CTRL_next_state(%rip), %ebx
	movl	$1, 136(%rsp)
	movl	$31, 128(%rsp)
	movl	$3, 120(%rsp)
	movl	$28, 112(%rsp)
	movl	$3, 104(%rsp)
	movl	$27, 96(%rsp)
	movl	$5, 88(%rsp)
	movl	$24, 80(%rsp)
	movl	$5, 72(%rsp)
	movl	$23, 64(%rsp)
	movl	$7, 56(%rsp)
	movl	$20, 48(%rsp)
	movl	$7, 40(%rsp)
	movl	$19, 32(%rsp)
	movl	$7, 24(%rsp)
	movl	$7, 16(%rsp)
	movl	$8, 8(%rsp)
	movl	$4, (%rsp)
	movl	$117, %edi
	movl	$11, %esi
	movl	$42, %edx
	movl	$1, %ecx
	movl	$43, %r8d
	xorl	%r9d, %r9d
	xorl	%eax, %eax
	callq	_KTimestamp
	callq	_KPopCDep
	movl	$117, %edi
	.loc	1 631 17 is_stmt 0      # statemate.c:631:17
	cmpl	$2, %ebx
	jne	.LBB3_73
# BB#88:                                # %sw.bb139
	callq	_KPushCDep
	movl	$statemate_FH_TUERMODUL__SFHZ, %edi
	movl	$52, %esi
	movl	$1, %edx
	callq	_KLoad0
	movl	$5, %edi
	callq	_KWork
	.loc	1 684 28 is_stmt 1      # statemate.c:684:28
.Ltmp145:
	movb	statemate_FH_TUERMODUL__SFHZ(%rip), %bl
	movl	$2, 152(%rsp)
	movl	$31, 144(%rsp)
	movl	$4, 136(%rsp)
	movl	$28, 128(%rsp)
	movl	$4, 120(%rsp)
	movl	$27, 112(%rsp)
	movl	$6, 104(%rsp)
	movl	$24, 96(%rsp)
	movl	$6, 88(%rsp)
	movl	$23, 80(%rsp)
	movl	$8, 72(%rsp)
	movl	$20, 64(%rsp)
	movl	$8, 56(%rsp)
	movl	$19, 48(%rsp)
	movl	$8, 40(%rsp)
	movl	$7, 32(%rsp)
	movl	$9, 24(%rsp)
	movl	$4, 16(%rsp)
	movl	$1, 8(%rsp)
	movl	$52, (%rsp)
	movl	$123, %edi
	movl	$12, %esi
	movl	$42, %edx
	movl	$2, %ecx
	movl	$43, %r8d
	movl	$1, %r9d
	xorl	%eax, %eax
	callq	_KTimestamp
	callq	_KPopCDep
	cmpb	$0, %bl
	jne	.LBB3_91
# BB#89:                                # %land.lhs.true141
	movl	$123, %edi
	callq	_KPushCDep
	movl	$statemate_FH_TUERMODUL__SFHZ_old, %edi
	movl	$53, %esi
	movl	$1, %edx
	callq	_KLoad0
	movl	$5, %edi
	callq	_KWork
	movb	statemate_FH_TUERMODUL__SFHZ_old(%rip), %bl
	movl	$3, 168(%rsp)
	movl	$31, 160(%rsp)
	movl	$5, 152(%rsp)
	movl	$28, 144(%rsp)
	movl	$5, 136(%rsp)
	movl	$27, 128(%rsp)
	movl	$7, 120(%rsp)
	movl	$24, 112(%rsp)
	movl	$7, 104(%rsp)
	movl	$23, 96(%rsp)
	movl	$9, 88(%rsp)
	movl	$20, 80(%rsp)
	movl	$9, 72(%rsp)
	movl	$19, 64(%rsp)
	movl	$9, 56(%rsp)
	movl	$7, 48(%rsp)
	movl	$10, 40(%rsp)
	movl	$4, 32(%rsp)
	movl	$1, 24(%rsp)
	movl	$53, 16(%rsp)
	movl	$2, 8(%rsp)
	movl	$52, (%rsp)
	movl	$124, %edi
	movl	$13, %esi
	movl	$42, %edx
	movl	$3, %ecx
	movl	$43, %r8d
	movl	$2, %r9d
	xorl	%eax, %eax
	callq	_KTimestamp
	callq	_KPopCDep
	cmpb	$0, %bl
	je	.LBB3_91
.Ltmp146:
# BB#90:                                # %if.then144
	movl	$124, %edi
	jmp	.LBB3_79
.LBB3_28:                               # %sw.bb38
	callq	_KPushCDep
	movl	$5, %edi
	callq	_KWork
	movl	$statemate_FH_TUERMODUL__SFHA, %edi
	movl	$17, %esi
	movl	$1, %edx
	callq	_KLoad0
	.loc	1 515 22                # statemate.c:515:22
.Ltmp147:
	movb	statemate_FH_TUERMODUL__SFHA(%rip), %bl
	movl	$1, 48(%rsp)
	movl	$17, 40(%rsp)
	movl	$1, 32(%rsp)
	movl	$14, 24(%rsp)
	movl	$3, 16(%rsp)
	movl	$11, 8(%rsp)
	movl	$3, (%rsp)
	movl	$99, %edi
	movl	$4, %esi
	movl	$4, %edx
	movl	$7, %ecx
	movl	$3, %r8d
	movl	$10, %r9d
	callq	_KTimestamp6
	callq	_KPopCDep
	movl	$99, %edi
	callq	_KPushCDep
	cmpb	$0, %bl
	je	.LBB3_30
# BB#29:                                # %if.then40
	movl	$3, %edi
	callq	_KWork
	movl	$statemate_stable, %edi
	movl	$1, %esi
	callq	_KStoreConst
	.loc	1 516 19                # statemate.c:516:19
.Ltmp148:
	movb	$0, statemate_stable(%rip)
	movl	$statemate_FH_TUERMODUL__MFHA_copy, %edi
	movl	$1, %esi
	callq	_KStoreConst
	.loc	1 517 19                # statemate.c:517:19
	movb	$1, statemate_FH_TUERMODUL__MFHA_copy(%rip)
	movl	$statemate_NICHT_INITIALISIERT_NICHT_INITIALISIERT_next_state, %edi
	movl	$1, %esi
	callq	_KStoreConst
	.loc	1 519 19                # statemate.c:519:19
	movb	$2, statemate_NICHT_INITIALISIERT_NICHT_INITIALISIERT_next_state(%rip)
	jmp	.LBB3_116
.Ltmp149:
.LBB3_23:                               # %if.end28
	cmpl	$1, %ebx
	jne	.LBB3_32
# BB#24:                                # %sw.bb30
	callq	_KPushCDep
	movl	$statemate_FH_TUERMODUL__SFHZ, %edi
	movl	$15, %esi
	movl	$1, %edx
	callq	_KLoad0
	movl	$5, %edi
	callq	_KWork
	.loc	1 495 22                # statemate.c:495:22
.Ltmp150:
	movb	statemate_FH_TUERMODUL__SFHZ(%rip), %bl
	movl	$1, 48(%rsp)
	movl	$15, 40(%rsp)
	movl	$1, 32(%rsp)
	movl	$14, 24(%rsp)
	movl	$3, 16(%rsp)
	movl	$11, 8(%rsp)
	movl	$3, (%rsp)
	movl	$97, %edi
	movl	$4, %esi
	movl	$4, %edx
	movl	$7, %ecx
	movl	$3, %r8d
	movl	$10, %r9d
	callq	_KTimestamp6
	callq	_KPopCDep
	cmpb	$0, %bl
	jne	.LBB3_117
# BB#25:                                # %if.then32
	movl	$97, %edi
	callq	_KPushCDep
	movl	$3, %edi
	callq	_KWork
	movl	$statemate_stable, %edi
	movl	$1, %esi
	callq	_KStoreConst
	.loc	1 496 19                # statemate.c:496:19
.Ltmp151:
	movb	$0, statemate_stable(%rip)
	movl	$statemate_FH_TUERMODUL__MFHZ_copy, %edi
	movl	$1, %esi
	callq	_KStoreConst
	.loc	1 497 19                # statemate.c:497:19
	movb	$0, statemate_FH_TUERMODUL__MFHZ_copy(%rip)
	jmp	.LBB3_43
.Ltmp152:
.LBB3_106:                              # %sw.bb165
	callq	_KPushCDep
	movl	$statemate_FH_TUERMODUL__SFHZ, %edi
	movl	$60, %esi
	movl	$1, %edx
	callq	_KLoad0
	movl	$18, %edi
	callq	_KWork
	.loc	1 754 22                # statemate.c:754:22
.Ltmp153:
	movb	statemate_FH_TUERMODUL__SFHZ(%rip), %r15b
	movl	$statemate_FH_TUERMODUL__SFHZ_old, %edi
	movl	$61, %esi
	movl	$1, %edx
	callq	_KLoad0
	movb	statemate_FH_TUERMODUL__SFHZ_old(%rip), %r12b
	movl	$statemate_FH_TUERMODUL__POSITION, %edi
	movl	$62, %esi
	movl	$4, %edx
	callq	_KLoad0
	movl	statemate_FH_TUERMODUL__POSITION(%rip), %ebx
	movl	$2, 152(%rsp)
	movl	$62, 144(%rsp)
	movl	$4, 136(%rsp)
	movl	$61, 128(%rsp)
	movl	$4, 120(%rsp)
	movl	$60, 112(%rsp)
	movl	$4, 104(%rsp)
	movl	$31, 96(%rsp)
	movl	$6, 88(%rsp)
	movl	$28, 80(%rsp)
	movl	$6, 72(%rsp)
	movl	$27, 64(%rsp)
	movl	$8, 56(%rsp)
	movl	$24, 48(%rsp)
	movl	$8, 40(%rsp)
	movl	$23, 32(%rsp)
	movl	$10, 24(%rsp)
	movl	$20, 16(%rsp)
	movl	$10, 8(%rsp)
	movl	$19, (%rsp)
	movl	$129, %edi
	movl	$12, %esi
	movl	$4, %edx
	movl	$11, %ecx
	movl	$7, %r8d
	movl	$10, %r9d
	xorl	%eax, %eax
	callq	_KTimestamp
	callq	_KPopCDep
	movl	$129, %edi
	callq	_KPushCDep
	cmpb	$0, %r15b
	je	.LBB3_110
# BB#107:                               # %sw.bb165
	testb	%r12b, %r12b
	jne	.LBB3_110
# BB#108:                               # %sw.bb165
	testl	%ebx, %ebx
	jle	.LBB3_110
# BB#109:                               # %if.then173
	movl	$statemate_stable, %edi
	movl	$1, %esi
	callq	_KStoreConst
	movl	$6, %edi
	callq	_KWork
	.loc	1 757 19                # statemate.c:757:19
.Ltmp154:
	movb	$0, statemate_stable(%rip)
	movl	$statemate_INITIALISIERT_FH_TUERMODUL_CTRL_next_state, %edi
	movl	$1, %esi
	callq	_KStoreConst
	.loc	1 759 19                # statemate.c:759:19
	movb	$2, statemate_INITIALISIERT_FH_TUERMODUL_CTRL_next_state(%rip)
	jmp	.LBB3_103
.Ltmp155:
.LBB3_50:                               # %if.end75
	cmpl	$1, %ebx
	jne	.LBB3_114
# BB#51:                                # %sw.bb77
	callq	_KPushCDep
	movl	$5, %edi
	callq	_KWork
	movl	$statemate_FH_TUERMODUL__POSITION, %edi
	movl	$32, %esi
	movl	$4, %edx
	callq	_KLoad0
	.loc	1 575 24                # statemate.c:575:24
.Ltmp156:
	movl	statemate_FH_TUERMODUL__POSITION(%rip), %ebx
	movl	$1, 120(%rsp)
	movl	$32, 112(%rsp)
	movl	$1, 104(%rsp)
	movl	$31, 96(%rsp)
	movl	$3, 88(%rsp)
	movl	$28, 80(%rsp)
	movl	$3, 72(%rsp)
	movl	$27, 64(%rsp)
	movl	$5, 56(%rsp)
	movl	$24, 48(%rsp)
	movl	$5, 40(%rsp)
	movl	$23, 32(%rsp)
	movl	$7, 24(%rsp)
	movl	$20, 16(%rsp)
	movl	$7, 8(%rsp)
	movl	$19, (%rsp)
	movl	$109, %edi
	movl	$10, %esi
	movl	$4, %edx
	movl	$8, %ecx
	movl	$7, %r8d
	movl	$7, %r9d
	xorl	%eax, %eax
	callq	_KTimestamp
	callq	_KPopCDep
	movl	$109, %edi
	callq	_KPushCDep
.Ltmp157:
	.loc	1 575 22 is_stmt 0      # statemate.c:575:22
	cmpl	$405, %ebx              # imm = 0x195
	jl	.LBB3_53
# BB#52:                                # %if.then80
	movl	$statemate_stable, %edi
	movl	$1, %esi
	callq	_KStoreConst
	movl	$3, %edi
	callq	_KWork
	.loc	1 576 19 is_stmt 1      # statemate.c:576:19
.Ltmp158:
	movb	$0, statemate_stable(%rip)
	movl	$statemate_FH_TUERMODUL__MFHA_copy, %edi
	movl	$1, %esi
	callq	_KStoreConst
	.loc	1 577 19                # statemate.c:577:19
	movb	$0, statemate_FH_TUERMODUL__MFHA_copy(%rip)
	jmp	.LBB3_16
.Ltmp159:
.LBB3_32:                               # %sw.default
	callq	_KPushCDep
	movl	$2, %edi
	callq	_KWork
	movl	$statemate_stable, %edi
	movl	$1, %esi
	callq	_KStoreConst
	.loc	1 532 17                # statemate.c:532:17
.Ltmp160:
	movb	$0, statemate_stable(%rip)
.Ltmp161:
.LBB3_43:                               # %sw.epilog187
	movl	$statemate_NICHT_INITIALISIERT_NICHT_INITIALISIERT_next_state, %edi
	movl	$1, %esi
	callq	_KStoreConst
	.loc	1 559 13                # statemate.c:559:13
.Ltmp162:
	movb	$3, statemate_NICHT_INITIALISIERT_NICHT_INITIALISIERT_next_state(%rip)
.Ltmp163:
.LBB3_116:                              # %sw.epilog187
	callq	_KPopCDep
.LBB3_117:                              # %sw.epilog187
	movl	$89, %edi
	callq	_KPushCDep
	movl	$statemate_A_FH_TUERMODUL_CTRL_next_state, %edi
	movl	$66, %esi
	movl	$1, %edx
	callq	_KLoad0
	movl	$5, %edi
	callq	_KWork
	.loc	1 792 5                 # statemate.c:792:5
	movzbl	statemate_A_FH_TUERMODUL_CTRL_next_state(%rip), %ebx
	movl	$131, %edi
	movl	$4, %esi
	movl	$2, %edx
	movl	$66, %ecx
	movl	$1, %r8d
	callq	_KTimestamp2
	callq	_KPopCDep
	movl	$131, %edi
	callq	_KPushCDep
	cmpl	$1, %ebx
	jne	.LBB3_133
# BB#118:                               # %sw.bb189
	movl	$statemate_bitlist+5, %edi
	movl	$1, %esi
	callq	_KStoreConst
	movl	$12, %edi
	callq	_KWork
	.loc	1 794 11                # statemate.c:794:11
.Ltmp164:
	movb	$0, statemate_bitlist+5(%rip)
	movl	$statemate_step, %edi
	movl	$67, %esi
	movl	$1, %edx
	callq	_KLoad0
	.loc	1 796 16                # statemate.c:796:16
	movzbl	statemate_step(%rip), %ebx
	movl	$statemate_tm_entered_WIEDERHOLSPERRE_FH_TUERMODUL_CTRLexited_BEREIT_FH_TUERMODUL_CTRL, %edi
	movl	$68, %esi
	movl	$8, %edx
	callq	_KLoad0
	movq	statemate_tm_entered_WIEDERHOLSPERRE_FH_TUERMODUL_CTRLexited_BEREIT_FH_TUERMODUL_CTRL(%rip), %r15
	movl	$2, 16(%rsp)
	movl	$68, 8(%rsp)
	movl	$2, (%rsp)
	movl	$132, %edi
	movl	$4, %esi
	movl	$4, %edx
	movl	$66, %ecx
	movl	$3, %r8d
	movl	$67, %r9d
	callq	_KTimestamp4
	callq	_KPopCDep
	cmpl	$1, %ebx
	jne	.LBB3_124
# BB#119:                               # %sw.bb189
	testq	%r15, %r15
	je	.LBB3_124
# BB#120:                               # %land.lhs.true196
	movl	$132, %edi
	callq	_KPushCDep
	movl	$statemate_time, %edi
	movl	$69, %esi
	movl	$8, %edx
	callq	_KLoad0
	movl	$10, %edi
	callq	_KWork
	.loc	1 799 23                # statemate.c:799:23
.Ltmp165:
	movq	statemate_time(%rip), %rbx
	movl	$statemate_tm_entered_WIEDERHOLSPERRE_FH_TUERMODUL_CTRLexited_BEREIT_FH_TUERMODUL_CTRL, %edi
	movl	$70, %esi
	movl	$8, %edx
	callq	_KLoad0
	subq	statemate_tm_entered_WIEDERHOLSPERRE_FH_TUERMODUL_CTRLexited_BEREIT_FH_TUERMODUL_CTRL(%rip), %rbx
	movl	$2, 48(%rsp)
	movl	$70, 40(%rsp)
	movl	$2, 32(%rsp)
	movl	$69, 24(%rsp)
	movl	$4, 16(%rsp)
	movl	$68, 8(%rsp)
	movl	$4, (%rsp)
	movl	$133, %edi
	movl	$4, %esi
	movl	$6, %edx
	movl	$66, %ecx
	movl	$5, %r8d
	movl	$67, %r9d
	callq	_KTimestamp6
	callq	_KPopCDep
.Ltmp166:
	.loc	1 796 16                # statemate.c:796:16
	cmpq	$1, %rbx
	jne	.LBB3_124
# BB#121:                               # %land.lhs.true199
	movl	$133, %edi
	callq	_KPushCDep
	movl	$statemate_FH_TUERMODUL__MFHZ, %edi
	movl	$71, %esi
	movl	$1, %edx
	callq	_KLoad0
	movl	$5, %edi
	callq	_KWork
	movb	statemate_FH_TUERMODUL__MFHZ(%rip), %bl
	movl	$1, 64(%rsp)
	movl	$71, 56(%rsp)
	movl	$3, 48(%rsp)
	movl	$70, 40(%rsp)
	movl	$3, 32(%rsp)
	movl	$69, 24(%rsp)
	movl	$5, 16(%rsp)
	movl	$68, 8(%rsp)
	movl	$5, (%rsp)
	movl	$134, %edi
	movl	$4, %esi
	movl	$7, %edx
	movl	$66, %ecx
	movl	$6, %r8d
	movl	$67, %r9d
	callq	_KTimestamp7
	callq	_KPopCDep
	cmpb	$0, %bl
	jne	.LBB3_123
# BB#122:                               # %lor.lhs.false202
	movl	$134, %edi
	callq	_KPushCDep
	movl	$statemate_FH_TUERMODUL__MFHA, %edi
	movl	$72, %esi
	movl	$1, %edx
	callq	_KLoad0
	movl	$5, %edi
	callq	_KWork
	movb	statemate_FH_TUERMODUL__MFHA(%rip), %bl
	movl	$1, 88(%rsp)
	movl	$72, 80(%rsp)
	movl	$2, 72(%rsp)
	movl	$71, 64(%rsp)
	movl	$4, 56(%rsp)
	movl	$70, 48(%rsp)
	movl	$4, 40(%rsp)
	movl	$69, 32(%rsp)
	movl	$6, 24(%rsp)
	movl	$68, 16(%rsp)
	movl	$6, 8(%rsp)
	movl	$67, (%rsp)
	movl	$135, %edi
	movl	$8, %esi
	movl	$4, %edx
	movl	$8, %ecx
	movl	$66, %r8d
	movl	$7, %r9d
	xorl	%eax, %eax
	callq	_KTimestamp
	callq	_KPopCDep
	cmpb	$0, %bl
	je	.LBB3_124
.LBB3_123:                              # %if.then205
	movl	$134, %edi
	callq	_KPushCDep
	movl	$statemate_stable, %edi
	movl	$1, %esi
	callq	_KStoreConst
	movl	$10, %edi
	callq	_KWork
	.loc	1 804 13                # statemate.c:804:13
.Ltmp167:
	movb	$0, statemate_stable(%rip)
	movl	$statemate_FH_TUERMODUL_CTRL__N, %edi
	movl	$73, %esi
	movl	$4, %edx
	callq	_KLoad0
	.loc	1 805 46                # statemate.c:805:46
	movl	statemate_FH_TUERMODUL_CTRL__N(%rip), %ebx
	incl	%ebx
	movl	$1, 88(%rsp)
	movl	$73, 80(%rsp)
	movl	$2, 72(%rsp)
	movl	$71, 64(%rsp)
	movl	$4, 56(%rsp)
	movl	$70, 48(%rsp)
	movl	$4, 40(%rsp)
	movl	$69, 32(%rsp)
	movl	$6, 24(%rsp)
	movl	$68, 16(%rsp)
	movl	$6, 8(%rsp)
	movl	$67, (%rsp)
	movl	$74, %edi
	movl	$8, %esi
	movl	$4, %edx
	movl	$8, %ecx
	movl	$66, %r8d
	movl	$7, %r9d
	xorl	%eax, %eax
	callq	_KTimestamp
	movl	$74, %edi
	movl	$statemate_FH_TUERMODUL_CTRL__N, %esi
	movl	$4, %edx
	callq	_KStore
	.loc	1 805 13 is_stmt 0      # statemate.c:805:13
	movl	%ebx, statemate_FH_TUERMODUL_CTRL__N(%rip)
	jmp	.LBB3_134
.Ltmp168:
.LBB3_133:                              # %sw.default233
	movl	$statemate_stable, %edi
	movl	$1, %esi
	callq	_KStoreConst
	movl	$5, %edi
	callq	_KWork
	.loc	1 840 11 is_stmt 1      # statemate.c:840:11
.Ltmp169:
	movb	$0, statemate_stable(%rip)
	movl	$statemate_FH_TUERMODUL_CTRL__N, %edi
	movl	$4, %esi
	callq	_KStoreConst
	.loc	1 841 11                # statemate.c:841:11
	movl	$0, statemate_FH_TUERMODUL_CTRL__N(%rip)
.LBB3_134:                              # %sw.epilog234
	movl	$statemate_A_FH_TUERMODUL_CTRL_next_state, %edi
	movl	$1, %esi
	callq	_KStoreConst
	.loc	1 842 11                # statemate.c:842:11
	movb	$1, statemate_A_FH_TUERMODUL_CTRL_next_state(%rip)
	jmp	.LBB3_135
.Ltmp170:
.LBB3_124:                              # %if.end206
	movl	$132, %edi
	callq	_KPushCDep
	movl	$statemate_WIEDERHOLSPERRE_FH_TUERMODUL_CTRL_next_state, %edi
	movl	$75, %esi
	movl	$1, %edx
	callq	_KLoad0
	movl	$5, %edi
	callq	_KWork
	.loc	1 813 11                # statemate.c:813:11
.Ltmp171:
	movzbl	statemate_WIEDERHOLSPERRE_FH_TUERMODUL_CTRL_next_state(%rip), %ebx
	movl	$1, 32(%rsp)
	movl	$75, 24(%rsp)
	movl	$3, 16(%rsp)
	movl	$68, 8(%rsp)
	movl	$3, (%rsp)
	movl	$136, %edi
	movl	$4, %esi
	movl	$5, %edx
	movl	$66, %ecx
	movl	$4, %r8d
	movl	$67, %r9d
	callq	_KTimestamp5
	callq	_KPopCDep
	movl	$136, %edi
	callq	_KPushCDep
	cmpl	$1, %ebx
	jne	.LBB3_132
# BB#125:                               # %sw.bb208
	movl	$statemate_step, %edi
	movl	$76, %esi
	movl	$1, %edx
	callq	_KLoad0
	movl	$11, %edi
	callq	_KWork
	.loc	1 815 22                # statemate.c:815:22
.Ltmp172:
	movzbl	statemate_step(%rip), %ebx
	movl	$statemate_tm_entered_WIEDERHOLSPERRE_FH_TUERMODUL_CTRL, %edi
	movl	$77, %esi
	movl	$8, %edx
	callq	_KLoad0
	movq	statemate_tm_entered_WIEDERHOLSPERRE_FH_TUERMODUL_CTRL(%rip), %r15
	movl	$2, 64(%rsp)
	movl	$77, 56(%rsp)
	movl	$2, 48(%rsp)
	movl	$76, 40(%rsp)
	movl	$3, 32(%rsp)
	movl	$75, 24(%rsp)
	movl	$5, 16(%rsp)
	movl	$68, 8(%rsp)
	movl	$5, (%rsp)
	movl	$137, %edi
	movl	$4, %esi
	movl	$7, %edx
	movl	$66, %ecx
	movl	$6, %r8d
	movl	$67, %r9d
	callq	_KTimestamp7
	callq	_KPopCDep
	cmpl	$1, %ebx
	jne	.LBB3_137
# BB#126:                               # %sw.bb208
	testq	%r15, %r15
	je	.LBB3_137
# BB#127:                               # %land.lhs.true215
	movl	$137, %edi
	callq	_KPushCDep
	movl	$statemate_time, %edi
	movl	$78, %esi
	movl	$8, %edx
	callq	_KLoad0
	movl	$10, %edi
	callq	_KWork
	.loc	1 817 26                # statemate.c:817:26
.Ltmp173:
	movq	statemate_time(%rip), %rbx
	movl	$statemate_tm_entered_WIEDERHOLSPERRE_FH_TUERMODUL_CTRL, %edi
	movl	$79, %esi
	movl	$8, %edx
	callq	_KLoad0
	subq	statemate_tm_entered_WIEDERHOLSPERRE_FH_TUERMODUL_CTRL(%rip), %rbx
	movl	$2, 104(%rsp)
	movl	$79, 96(%rsp)
	movl	$2, 88(%rsp)
	movl	$78, 80(%rsp)
	movl	$4, 72(%rsp)
	movl	$77, 64(%rsp)
	movl	$4, 56(%rsp)
	movl	$76, 48(%rsp)
	movl	$5, 40(%rsp)
	movl	$75, 32(%rsp)
	movl	$7, 24(%rsp)
	movl	$68, 16(%rsp)
	movl	$7, 8(%rsp)
	movl	$67, (%rsp)
	movl	$138, %edi
	movl	$9, %esi
	movl	$4, %edx
	movl	$9, %ecx
	movl	$66, %r8d
	movl	$8, %r9d
	xorl	%eax, %eax
	callq	_KTimestamp
	callq	_KPopCDep
.Ltmp174:
	.loc	1 815 22                # statemate.c:815:22
	cmpq	$3, %rbx
	jne	.LBB3_137
# BB#128:                               # %land.lhs.true219
	movl	$138, %edi
	callq	_KPushCDep
	movl	$statemate_FH_TUERMODUL__MFHZ, %edi
	movl	$80, %esi
	movl	$1, %edx
	callq	_KLoad0
	movl	$5, %edi
	callq	_KWork
	movb	statemate_FH_TUERMODUL__MFHZ(%rip), %bl
	movl	$1, 120(%rsp)
	movl	$80, 112(%rsp)
	movl	$3, 104(%rsp)
	movl	$79, 96(%rsp)
	movl	$3, 88(%rsp)
	movl	$78, 80(%rsp)
	movl	$5, 72(%rsp)
	movl	$77, 64(%rsp)
	movl	$5, 56(%rsp)
	movl	$76, 48(%rsp)
	movl	$6, 40(%rsp)
	movl	$75, 32(%rsp)
	movl	$8, 24(%rsp)
	movl	$68, 16(%rsp)
	movl	$8, 8(%rsp)
	movl	$67, (%rsp)
	movl	$139, %edi
	movl	$10, %esi
	movl	$4, %edx
	movl	$10, %ecx
	movl	$66, %r8d
	movl	$9, %r9d
	xorl	%eax, %eax
	callq	_KTimestamp
	callq	_KPopCDep
	cmpb	$0, %bl
	jne	.LBB3_137
# BB#129:                               # %lor.lhs.false222
	movl	$139, %edi
	callq	_KPushCDep
	movl	$statemate_FH_TUERMODUL__MFHA, %edi
	movl	$81, %esi
	movl	$1, %edx
	callq	_KLoad0
	movl	$11, %edi
	callq	_KWork
	movb	statemate_FH_TUERMODUL__MFHA(%rip), %bl
	movl	$statemate_FH_TUERMODUL_CTRL__N, %edi
	movl	$82, %esi
	movl	$4, %edx
	callq	_KLoad0
	movl	statemate_FH_TUERMODUL_CTRL__N(%rip), %r15d
	movl	$2, 152(%rsp)
	movl	$82, 144(%rsp)
	movl	$2, 136(%rsp)
	movl	$81, 128(%rsp)
	movl	$3, 120(%rsp)
	movl	$80, 112(%rsp)
	movl	$5, 104(%rsp)
	movl	$79, 96(%rsp)
	movl	$5, 88(%rsp)
	movl	$78, 80(%rsp)
	movl	$7, 72(%rsp)
	movl	$77, 64(%rsp)
	movl	$7, 56(%rsp)
	movl	$76, 48(%rsp)
	movl	$8, 40(%rsp)
	movl	$75, 32(%rsp)
	movl	$10, 24(%rsp)
	movl	$68, 16(%rsp)
	movl	$10, 8(%rsp)
	movl	$67, (%rsp)
	movl	$140, %edi
	movl	$12, %esi
	movl	$4, %edx
	movl	$12, %ecx
	movl	$66, %r8d
	movl	$11, %r9d
	xorl	%eax, %eax
	callq	_KTimestamp
	callq	_KPopCDep
	cmpb	$0, %bl
	jne	.LBB3_137
# BB#130:                               # %lor.lhs.false222
	testl	%r15d, %r15d
	jle	.LBB3_137
# BB#131:                               # %if.then228
	movl	$140, %edi
	callq	_KPushCDep
	movl	$statemate_stable, %edi
	movl	$1, %esi
	callq	_KStoreConst
	movl	$8, %edi
	callq	_KWork
	.loc	1 821 19                # statemate.c:821:19
.Ltmp175:
	movb	$0, statemate_stable(%rip)
	movl	$statemate_FH_TUERMODUL_CTRL__N, %edi
	movl	$83, %esi
	movl	$4, %edx
	callq	_KLoad0
	.loc	1 822 52                # statemate.c:822:52
	movl	statemate_FH_TUERMODUL_CTRL__N(%rip), %ebx
	decl	%ebx
	movl	$1, 168(%rsp)
	movl	$83, 160(%rsp)
	movl	$3, 152(%rsp)
	movl	$82, 144(%rsp)
	movl	$3, 136(%rsp)
	movl	$81, 128(%rsp)
	movl	$4, 120(%rsp)
	movl	$80, 112(%rsp)
	movl	$6, 104(%rsp)
	movl	$79, 96(%rsp)
	movl	$6, 88(%rsp)
	movl	$78, 80(%rsp)
	movl	$8, 72(%rsp)
	movl	$77, 64(%rsp)
	movl	$8, 56(%rsp)
	movl	$76, 48(%rsp)
	movl	$9, 40(%rsp)
	movl	$75, 32(%rsp)
	movl	$11, 24(%rsp)
	movl	$68, 16(%rsp)
	movl	$11, 8(%rsp)
	movl	$67, (%rsp)
	movl	$84, %edi
	movl	$13, %esi
	movl	$4, %edx
	movl	$13, %ecx
	movl	$66, %r8d
	movl	$12, %r9d
	xorl	%eax, %eax
	callq	_KTimestamp
	movl	$84, %edi
	movl	$statemate_FH_TUERMODUL_CTRL__N, %esi
	movl	$4, %edx
	callq	_KStore
	.loc	1 822 19 is_stmt 0      # statemate.c:822:19
	movl	%ebx, statemate_FH_TUERMODUL_CTRL__N(%rip)
	jmp	.LBB3_136
.Ltmp176:
.LBB3_132:                              # %sw.default231
	movl	$statemate_stable, %edi
	movl	$1, %esi
	callq	_KStoreConst
	movl	$3, %edi
	callq	_KWork
	.loc	1 830 17 is_stmt 1      # statemate.c:830:17
.Ltmp177:
	movb	$0, statemate_stable(%rip)
.Ltmp178:
.LBB3_135:                              # %sw.epilog234
	movl	$statemate_bitlist+5, %edi
	movl	$1, %esi
	callq	_KStoreConst
	.loc	1 843 11                # statemate.c:843:11
.Ltmp179:
	movb	$1, statemate_bitlist+5(%rip)
.LBB3_136:                              # %sw.epilog234
	movl	$statemate_WIEDERHOLSPERRE_FH_TUERMODUL_CTRL_next_state, %edi
	movl	$1, %esi
	callq	_KStoreConst
	.loc	1 845 11                # statemate.c:845:11
	movb	$1, statemate_WIEDERHOLSPERRE_FH_TUERMODUL_CTRL_next_state(%rip)
	callq	_KPopCDep
.Ltmp180:
.LBB3_137:                              # %sw.epilog234
	movl	$89, %edi
	callq	_KPushCDep
	movl	$statemate_bitlist+4, %edi
	movl	$85, %esi
	movl	$1, %edx
	callq	_KLoad0
	movl	$10, %edi
	callq	_KWork
	.loc	1 849 5                 # statemate.c:849:5
	movb	statemate_bitlist+4(%rip), %bl
	movl	$85, %edi
	movl	$85, %esi
	xorl	%edx, %edx
	callq	_KTimestamp1
	movl	$85, %edi
	movl	$statemate_bitlist+5, %esi
	movl	$1, %edx
	callq	_KStore
	movb	%bl, statemate_bitlist+5(%rip)
	movl	$statemate_bitlist+6, %edi
	movl	$86, %esi
	movl	$1, %edx
	callq	_KLoad0
	.loc	1 852 5                 # statemate.c:852:5
	movb	statemate_bitlist+6(%rip), %bl
	movl	$86, %edi
	movl	$86, %esi
	xorl	%edx, %edx
	callq	_KTimestamp1
	movl	$86, %edi
	movl	$statemate_bitlist+7, %esi
	movl	$1, %edx
	callq	_KStore
	movb	%bl, statemate_bitlist+7(%rip)
	callq	_KPopCDep
.LBB3_138:                              # %if.end235
	xorl	%esi, %esi
	movq	%r14, %rdi
	addq	$240, %rsp
	popq	%rbx
	popq	%r12
	popq	%r14
	popq	%r15
	popq	%rbp
	jmp	_KExitRegion            # TAILCALL
.LBB3_30:                               # %if.end41
	movl	$5, %edi
	callq	_KWork
	movl	$statemate_FH_TUERMODUL__SFHZ, %edi
	movl	$18, %esi
	movl	$1, %edx
	callq	_KLoad0
	.loc	1 522 22                # statemate.c:522:22
.Ltmp181:
	movb	statemate_FH_TUERMODUL__SFHZ(%rip), %bl
	movl	$1, 64(%rsp)
	movl	$18, 56(%rsp)
	movl	$2, 48(%rsp)
	movl	$17, 40(%rsp)
	movl	$2, 32(%rsp)
	movl	$14, 24(%rsp)
	movl	$4, 16(%rsp)
	movl	$11, 8(%rsp)
	movl	$4, (%rsp)
	movl	$100, %edi
	movl	$4, %esi
	movl	$5, %edx
	movl	$7, %ecx
	movl	$4, %r8d
	movl	$10, %r9d
	callq	_KTimestamp7
	callq	_KPopCDep
	cmpb	$0, %bl
	je	.LBB3_117
# BB#31:                                # %if.then43
	movl	$100, %edi
	callq	_KPushCDep
	movl	$statemate_stable, %edi
	movl	$1, %esi
	callq	_KStoreConst
	movl	$3, %edi
	callq	_KWork
	.loc	1 523 19                # statemate.c:523:19
.Ltmp182:
	movb	$0, statemate_stable(%rip)
	movl	$statemate_FH_TUERMODUL__MFHZ_copy, %edi
	movl	$1, %esi
	callq	_KStoreConst
	.loc	1 524 19                # statemate.c:524:19
	movb	$1, statemate_FH_TUERMODUL__MFHZ_copy(%rip)
	movl	$statemate_NICHT_INITIALISIERT_NICHT_INITIALISIERT_next_state, %edi
	movl	$1, %esi
	callq	_KStoreConst
	.loc	1 526 19                # statemate.c:526:19
	movb	$1, statemate_NICHT_INITIALISIERT_NICHT_INITIALISIERT_next_state(%rip)
	jmp	.LBB3_116
.Ltmp183:
.LBB3_110:                              # %if.end174
	movl	$statemate_FH_TUERMODUL__SFHA, %edi
	movl	$63, %esi
	movl	$1, %edx
	callq	_KLoad0
	movl	$18, %edi
	callq	_KWork
	.loc	1 766 22                # statemate.c:766:22
.Ltmp184:
	movb	statemate_FH_TUERMODUL__SFHA(%rip), %r15b
	movl	$statemate_FH_TUERMODUL__SFHA_old, %edi
	movl	$64, %esi
	movl	$1, %edx
	callq	_KLoad0
	movb	statemate_FH_TUERMODUL__SFHA_old(%rip), %r12b
	movl	$statemate_FH_TUERMODUL__POSITION, %edi
	movl	$65, %esi
	movl	$4, %edx
	callq	_KLoad0
	movl	statemate_FH_TUERMODUL__POSITION(%rip), %ebx
	movl	$2, 200(%rsp)
	movl	$65, 192(%rsp)
	movl	$4, 184(%rsp)
	movl	$64, 176(%rsp)
	movl	$4, 168(%rsp)
	movl	$63, 160(%rsp)
	movl	$6, 152(%rsp)
	movl	$62, 144(%rsp)
	movl	$8, 136(%rsp)
	movl	$61, 128(%rsp)
	movl	$8, 120(%rsp)
	movl	$60, 112(%rsp)
	movl	$8, 104(%rsp)
	movl	$31, 96(%rsp)
	movl	$10, 88(%rsp)
	movl	$28, 80(%rsp)
	movl	$10, 72(%rsp)
	movl	$27, 64(%rsp)
	movl	$12, 56(%rsp)
	movl	$24, 48(%rsp)
	movl	$12, 40(%rsp)
	movl	$23, 32(%rsp)
	movl	$14, 24(%rsp)
	movl	$20, 16(%rsp)
	movl	$14, 8(%rsp)
	movl	$19, (%rsp)
	movl	$130, %edi
	movl	$15, %esi
	movl	$4, %edx
	movl	$15, %ecx
	movl	$7, %r8d
	movl	$14, %r9d
	xorl	%eax, %eax
	callq	_KTimestamp
	callq	_KPopCDep
	cmpb	$0, %r15b
	je	.LBB3_117
# BB#111:                               # %if.end174
	testb	%r12b, %r12b
	jne	.LBB3_117
# BB#112:                               # %if.end174
	cmpl	$404, %ebx              # imm = 0x194
	jg	.LBB3_117
# BB#113:                               # %if.then182
	movl	$130, %edi
	callq	_KPushCDep
	movl	$statemate_stable, %edi
	movl	$1, %esi
	callq	_KStoreConst
	movl	$4, %edi
	callq	_KWork
	.loc	1 769 19                # statemate.c:769:19
.Ltmp185:
	movb	$0, statemate_stable(%rip)
	movl	$statemate_FH_TUERMODUL__MFHA_copy, %edi
	movl	$1, %esi
	callq	_KStoreConst
	.loc	1 770 19                # statemate.c:770:19
	movb	$1, statemate_FH_TUERMODUL__MFHA_copy(%rip)
	movl	$statemate_INITIALISIERT_FH_TUERMODUL_CTRL_next_state, %edi
	movl	$1, %esi
	callq	_KStoreConst
	.loc	1 772 19                # statemate.c:772:19
	movb	$1, statemate_INITIALISIERT_FH_TUERMODUL_CTRL_next_state(%rip)
	jmp	.LBB3_68
.Ltmp186:
.LBB3_114:                              # %sw.default184
	callq	_KPushCDep
	movl	$statemate_stable, %edi
	movl	$1, %esi
	callq	_KStoreConst
	movl	$2, %edi
	callq	_KWork
	.loc	1 779 17                # statemate.c:779:17
.Ltmp187:
	movb	$0, statemate_stable(%rip)
	jmp	.LBB3_16
.Ltmp188:
.LBB3_37:                               # %if.then56
	movl	$103, %edi
	callq	_KPushCDep
	movl	$4, %edi
	callq	_KWork
	movl	$statemate_stable, %edi
	movl	$1, %esi
	callq	_KStoreConst
	.loc	1 544 13                # statemate.c:544:13
.Ltmp189:
	movb	$0, statemate_stable(%rip)
	movl	$statemate_FH_TUERMODUL__MFHZ_copy, %edi
	movl	$1, %esi
	callq	_KStoreConst
	.loc	1 545 13                # statemate.c:545:13
	movb	$0, statemate_FH_TUERMODUL__MFHZ_copy(%rip)
	movl	$statemate_FH_TUERMODUL__MFHA_copy, %edi
	movl	$1, %esi
	callq	_KStoreConst
	.loc	1 546 13                # statemate.c:546:13
	movb	$0, statemate_FH_TUERMODUL__MFHA_copy(%rip)
	movl	$statemate_B_FH_TUERMODUL_CTRL_next_state, %edi
	movl	$1, %esi
	callq	_KStoreConst
	.loc	1 548 13                # statemate.c:548:13
	movb	$1, statemate_B_FH_TUERMODUL_CTRL_next_state(%rip)
	jmp	.LBB3_116
.Ltmp190:
.LBB3_70:                               # %if.then113
	movl	$3, %edi
	callq	_KWork
	movl	$statemate_stable, %edi
	movl	$1, %esi
	callq	_KStoreConst
	jmp	.LBB3_71
.LBB3_73:                               # %if.end114
	cmpl	$1, %ebx
	jne	.LBB3_102
# BB#74:                                # %sw.bb116
	callq	_KPushCDep
	movl	$statemate_FH_TUERMODUL__SFHA, %edi
	movl	$44, %esi
	movl	$1, %edx
	callq	_KLoad0
	movl	$11, %edi
	callq	_KWork
	.loc	1 633 28                # statemate.c:633:28
.Ltmp191:
	movb	statemate_FH_TUERMODUL__SFHA(%rip), %bl
	movl	$statemate_FH_TUERMODUL__SFHA_old, %edi
	movl	$45, %esi
	movl	$1, %edx
	callq	_KLoad0
	movb	statemate_FH_TUERMODUL__SFHA_old(%rip), %r15b
	movl	$3, 168(%rsp)
	movl	$31, 160(%rsp)
	movl	$5, 152(%rsp)
	movl	$28, 144(%rsp)
	movl	$5, 136(%rsp)
	movl	$27, 128(%rsp)
	movl	$7, 120(%rsp)
	movl	$24, 112(%rsp)
	movl	$7, 104(%rsp)
	movl	$23, 96(%rsp)
	movl	$9, 88(%rsp)
	movl	$20, 80(%rsp)
	movl	$9, 72(%rsp)
	movl	$19, 64(%rsp)
	movl	$9, 56(%rsp)
	movl	$7, 48(%rsp)
	movl	$10, 40(%rsp)
	movl	$4, 32(%rsp)
	movl	$2, 24(%rsp)
	movl	$45, 16(%rsp)
	movl	$2, 8(%rsp)
	movl	$44, (%rsp)
	movl	$118, %edi
	movl	$13, %esi
	movl	$42, %edx
	movl	$3, %ecx
	movl	$43, %r8d
	movl	$2, %r9d
	xorl	%eax, %eax
	callq	_KTimestamp
	callq	_KPopCDep
	cmpb	$0, %bl
	je	.LBB3_76
# BB#75:                                # %sw.bb116
	testb	%r15b, %r15b
	je	.LBB3_78
.LBB3_76:                               # %lor.lhs.false121
	movl	$118, %edi
	callq	_KPushCDep
	movl	$statemate_FH_TUERMODUL__SFHZ, %edi
	movl	$46, %esi
	movl	$1, %edx
	callq	_KLoad0
	movl	$11, %edi
	callq	_KWork
	movb	statemate_FH_TUERMODUL__SFHZ(%rip), %bl
	movl	$statemate_FH_TUERMODUL__SFHZ_old, %edi
	movl	$47, %esi
	movl	$1, %edx
	callq	_KLoad0
	movb	statemate_FH_TUERMODUL__SFHZ_old(%rip), %r15b
	movl	$5, 200(%rsp)
	movl	$31, 192(%rsp)
	movl	$7, 184(%rsp)
	movl	$28, 176(%rsp)
	movl	$7, 168(%rsp)
	movl	$27, 160(%rsp)
	movl	$9, 152(%rsp)
	movl	$24, 144(%rsp)
	movl	$9, 136(%rsp)
	movl	$23, 128(%rsp)
	movl	$11, 120(%rsp)
	movl	$20, 112(%rsp)
	movl	$11, 104(%rsp)
	movl	$19, 96(%rsp)
	movl	$11, 88(%rsp)
	movl	$7, 80(%rsp)
	movl	$12, 72(%rsp)
	movl	$4, 64(%rsp)
	movl	$2, 56(%rsp)
	movl	$47, 48(%rsp)
	movl	$2, 40(%rsp)
	movl	$46, 32(%rsp)
	movl	$4, 24(%rsp)
	movl	$45, 16(%rsp)
	movl	$4, 8(%rsp)
	movl	$44, (%rsp)
	movl	$119, %edi
	movl	$15, %esi
	movl	$42, %edx
	movl	$5, %ecx
	movl	$43, %r8d
	movl	$4, %r9d
	xorl	%eax, %eax
	callq	_KTimestamp
	callq	_KPopCDep
	cmpb	$0, %bl
	je	.LBB3_80
.Ltmp192:
# BB#77:                                # %lor.lhs.false121
	testb	%r15b, %r15b
	jne	.LBB3_80
.LBB3_78:                               # %if.then126
	movl	$118, %edi
.LBB3_79:                               # %sw.epilog187
	callq	_KPushCDep
	movl	$statemate_stable, %edi
	movl	$1, %esi
	callq	_KStoreConst
	movl	$3, %edi
	callq	_KWork
.LBB3_71:                               # %sw.epilog187
	.loc	1 625 19                # statemate.c:625:19
.Ltmp193:
	movb	$0, statemate_stable(%rip)
	movl	$statemate_FH_TUERMODUL__MFHZ_copy, %edi
	movl	$1, %esi
	callq	_KStoreConst
	.loc	1 626 19                # statemate.c:626:19
	movb	$0, statemate_FH_TUERMODUL__MFHZ_copy(%rip)
	jmp	.LBB3_16
.Ltmp194:
.LBB3_53:                               # %if.end81
	movl	$statemate_OEFFNEN_FH_TUERMODUL_CTRL_next_state, %edi
	movl	$33, %esi
	movl	$1, %edx
	callq	_KLoad0
	movl	$4, %edi
	callq	_KWork
	.loc	1 582 26                # statemate.c:582:26
.Ltmp195:
	movsbl	statemate_OEFFNEN_FH_TUERMODUL_CTRL_next_state(%rip), %ebx
	callq	_KPopCDep
	movl	$0, 136(%rsp)
	movl	$33, 128(%rsp)
	movl	$1, 120(%rsp)
	movl	$32, 112(%rsp)
	movl	$1, 104(%rsp)
	movl	$31, 96(%rsp)
	movl	$3, 88(%rsp)
	movl	$28, 80(%rsp)
	movl	$3, 72(%rsp)
	movl	$27, 64(%rsp)
	movl	$5, 56(%rsp)
	movl	$24, 48(%rsp)
	movl	$5, 40(%rsp)
	movl	$23, 32(%rsp)
	movl	$7, 24(%rsp)
	movl	$20, 16(%rsp)
	movl	$7, 8(%rsp)
	movl	$19, (%rsp)
	movl	$110, %edi
	movl	$11, %esi
	movl	$4, %edx
	movl	$8, %ecx
	movl	$7, %r8d
	movl	$7, %r9d
	xorl	%eax, %eax
	callq	_KTimestamp
	movl	$110, %edi
	.loc	1 582 17 is_stmt 0      # statemate.c:582:17
	cmpl	$2, %ebx
	jne	.LBB3_54
# BB#61:                                # %sw.bb95
	callq	_KPushCDep
	movl	$statemate_FH_TUERMODUL__SFHZ, %edi
	movl	$38, %esi
	movl	$1, %edx
	callq	_KLoad0
	movl	$11, %edi
	callq	_KWork
	.loc	1 597 28 is_stmt 1      # statemate.c:597:28
.Ltmp196:
	movb	statemate_FH_TUERMODUL__SFHZ(%rip), %bl
	movl	$statemate_FH_TUERMODUL__SFHZ_old, %edi
	movl	$39, %esi
	movl	$1, %edx
	callq	_KLoad0
	movb	statemate_FH_TUERMODUL__SFHZ_old(%rip), %r15b
	callq	_KPopCDep
	movl	$2, 168(%rsp)
	movl	$39, 160(%rsp)
	movl	$2, 152(%rsp)
	movl	$38, 144(%rsp)
	movl	$2, 136(%rsp)
	movl	$33, 128(%rsp)
	movl	$3, 120(%rsp)
	movl	$32, 112(%rsp)
	movl	$3, 104(%rsp)
	movl	$31, 96(%rsp)
	movl	$5, 88(%rsp)
	movl	$28, 80(%rsp)
	movl	$5, 72(%rsp)
	movl	$27, 64(%rsp)
	movl	$7, 56(%rsp)
	movl	$24, 48(%rsp)
	movl	$7, 40(%rsp)
	movl	$23, 32(%rsp)
	movl	$9, 24(%rsp)
	movl	$20, 16(%rsp)
	movl	$9, 8(%rsp)
	movl	$19, (%rsp)
	movl	$113, %edi
	movl	$13, %esi
	movl	$4, %edx
	movl	$10, %ecx
	movl	$7, %r8d
	movl	$9, %r9d
	xorl	%eax, %eax
	callq	_KTimestamp
	movl	$113, %edi
	callq	_KPushCDep
	cmpb	$0, %bl
	je	.LBB3_64
# BB#62:                                # %sw.bb95
	testb	%r15b, %r15b
	jne	.LBB3_64
# BB#63:                                # %if.then100
	movl	$2, %edi
	callq	_KWork
	movl	$statemate_stable, %edi
	movl	$1, %esi
	callq	_KStoreConst
	.loc	1 599 25                # statemate.c:599:25
.Ltmp197:
	movb	$0, statemate_stable(%rip)
	movl	$statemate_OEFFNEN_FH_TUERMODUL_CTRL_next_state, %edi
	movl	$1, %esi
	callq	_KStoreConst
	.loc	1 601 25                # statemate.c:601:25
	movb	$1, statemate_OEFFNEN_FH_TUERMODUL_CTRL_next_state(%rip)
	jmp	.LBB3_116
.Ltmp198:
.LBB3_91:                               # %if.end145
	movl	$123, %edi
	callq	_KPushCDep
	movl	$statemate_MANUELL_SCHLIESSEN_FH_TUERMODUL_CTRL_next_state, %edi
	movl	$54, %esi
	movl	$1, %edx
	callq	_KLoad0
	movl	$4, %edi
	callq	_KWork
	.loc	1 692 32                # statemate.c:692:32
.Ltmp199:
	movsbl	statemate_MANUELL_SCHLIESSEN_FH_TUERMODUL_CTRL_next_state(%rip), %ebx
	movl	$0, 168(%rsp)
	movl	$54, 160(%rsp)
	movl	$2, 152(%rsp)
	movl	$31, 144(%rsp)
	movl	$4, 136(%rsp)
	movl	$28, 128(%rsp)
	movl	$4, 120(%rsp)
	movl	$27, 112(%rsp)
	movl	$6, 104(%rsp)
	movl	$24, 96(%rsp)
	movl	$6, 88(%rsp)
	movl	$23, 80(%rsp)
	movl	$8, 72(%rsp)
	movl	$20, 64(%rsp)
	movl	$8, 56(%rsp)
	movl	$19, 48(%rsp)
	movl	$8, 40(%rsp)
	movl	$7, 32(%rsp)
	movl	$9, 24(%rsp)
	movl	$4, 16(%rsp)
	movl	$1, 8(%rsp)
	movl	$52, (%rsp)
	movl	$125, %edi
	movl	$13, %esi
	movl	$42, %edx
	movl	$2, %ecx
	movl	$43, %r8d
	movl	$1, %r9d
	xorl	%eax, %eax
	callq	_KTimestamp
	callq	_KPopCDep
	movl	$125, %edi
	.loc	1 692 23 is_stmt 0      # statemate.c:692:23
	cmpl	$2, %ebx
	jne	.LBB3_92
# BB#95:                                # %sw.bb151
	callq	_KPushCDep
	movl	$statemate_bitlist+24, %edi
	movl	$56, %esi
	movl	$1, %edx
	callq	_KLoad0
	movl	$5, %edi
	callq	_KWork
	.loc	1 709 34 is_stmt 1      # statemate.c:709:34
.Ltmp200:
	movb	statemate_bitlist+24(%rip), %bl
	movl	$1, 184(%rsp)
	movl	$54, 176(%rsp)
	movl	$3, 168(%rsp)
	movl	$31, 160(%rsp)
	movl	$5, 152(%rsp)
	movl	$28, 144(%rsp)
	movl	$5, 136(%rsp)
	movl	$27, 128(%rsp)
	movl	$7, 120(%rsp)
	movl	$24, 112(%rsp)
	movl	$7, 104(%rsp)
	movl	$23, 96(%rsp)
	movl	$9, 88(%rsp)
	movl	$20, 80(%rsp)
	movl	$9, 72(%rsp)
	movl	$19, 64(%rsp)
	movl	$9, 56(%rsp)
	movl	$7, 48(%rsp)
	movl	$10, 40(%rsp)
	movl	$4, 32(%rsp)
	movl	$1, 24(%rsp)
	movl	$56, 16(%rsp)
	movl	$2, 8(%rsp)
	movl	$52, (%rsp)
	movl	$127, %edi
	movl	$14, %esi
	movl	$42, %edx
	movl	$3, %ecx
	movl	$43, %r8d
	movl	$2, %r9d
	xorl	%eax, %eax
	callq	_KTimestamp
	callq	_KPopCDep
	movl	$127, %edi
	callq	_KPushCDep
	cmpb	$0, %bl
	je	.LBB3_98
# BB#96:                                # %if.then153
	movl	$statemate_stable, %edi
	movl	$1, %esi
	callq	_KStoreConst
	movl	$12, %edi
	callq	_KWork
	.loc	1 710 31                # statemate.c:710:31
.Ltmp201:
	movb	$0, statemate_stable(%rip)
	movl	$statemate_FH_TUERMODUL__MFHZ_copy, %edi
	movl	$1, %esi
	callq	_KStoreConst
	.loc	1 711 31                # statemate.c:711:31
	movb	$0, statemate_FH_TUERMODUL__MFHZ_copy(%rip)
	movl	$statemate_FH_TUERMODUL_CTRL__INREVERS1_copy, %edi
	movl	$1, %esi
	callq	_KStoreConst
	.loc	1 712 31                # statemate.c:712:31
	movb	$1, statemate_FH_TUERMODUL_CTRL__INREVERS1_copy(%rip)
	movl	$statemate_bitlist+23, %edi
	movl	$1, %esi
	callq	_KStoreConst
	.loc	1 714 31                # statemate.c:714:31
	movb	$1, statemate_bitlist+23(%rip)
	movl	$statemate_MANUELL_SCHLIESSEN_FH_TUERMODUL_CTRL_next_state, %edi
	movl	$1, %esi
	callq	_KStoreConst
	.loc	1 715 31                # statemate.c:715:31
	movb	$1, statemate_MANUELL_SCHLIESSEN_FH_TUERMODUL_CTRL_next_state(%rip)
	movl	$statemate_bitlist+17, %edi
	movl	$1, %esi
	callq	_KStoreConst
	.loc	1 716 31                # statemate.c:716:31
	movb	$0, statemate_bitlist+17(%rip)
	movl	$statemate_time, %edi
	movl	$57, %esi
	movl	$8, %edx
	callq	_KLoad0
	.loc	1 718 72                # statemate.c:718:72
	movq	statemate_time(%rip), %rbx
	movl	$57, %edi
	movl	$57, %esi
	xorl	%edx, %edx
	callq	_KTimestamp1
	movl	$57, %edi
	movl	$statemate_sc_FH_TUERMODUL_CTRL_1739_10, %esi
	movl	$8, %edx
	callq	_KStore
	.loc	1 718 31 is_stmt 0      # statemate.c:718:31
	movq	%rbx, statemate_sc_FH_TUERMODUL_CTRL_1739_10(%rip)
.LBB3_97:                               # %sw.epilog187
	movl	$statemate_FH_TUERMODUL__MFHA_copy, %edi
	movl	$1, %esi
	callq	_KStoreConst
	.loc	1 719 31 is_stmt 1      # statemate.c:719:31
	movb	$1, statemate_FH_TUERMODUL__MFHA_copy(%rip)
	jmp	.LBB3_116
.Ltmp202:
.LBB3_102:                              # %sw.default163
	callq	_KPushCDep
	movl	$statemate_stable, %edi
	movl	$1, %esi
	callq	_KStoreConst
	movl	$5, %edi
	callq	_KWork
	.loc	1 743 23                # statemate.c:743:23
.Ltmp203:
	movb	$0, statemate_stable(%rip)
.LBB3_103:                              # %sw.epilog187
	movl	$statemate_SCHLIESSEN_FH_TUERMODUL_CTRL_next_state, %edi
	movl	$1, %esi
	callq	_KStoreConst
	.loc	1 744 23                # statemate.c:744:23
	movb	$2, statemate_SCHLIESSEN_FH_TUERMODUL_CTRL_next_state(%rip)
.LBB3_104:                              # %sw.epilog187
	movl	$statemate_MANUELL_SCHLIESSEN_FH_TUERMODUL_CTRL_next_state, %edi
	movl	$1, %esi
	callq	_KStoreConst
	.loc	1 745 23                # statemate.c:745:23
	movb	$2, statemate_MANUELL_SCHLIESSEN_FH_TUERMODUL_CTRL_next_state(%rip)
.LBB3_105:                              # %sw.epilog187
	movl	$statemate_bitlist+17, %edi
	movl	$1, %esi
	callq	_KStoreConst
	.loc	1 746 23                # statemate.c:746:23
	movb	$1, statemate_bitlist+17(%rip)
	movl	$statemate_FH_TUERMODUL__MFHZ_copy, %edi
	movl	$1, %esi
	callq	_KStoreConst
	.loc	1 747 23                # statemate.c:747:23
	movb	$1, statemate_FH_TUERMODUL__MFHZ_copy(%rip)
	jmp	.LBB3_116
.Ltmp204:
.LBB3_54:                               # %if.end81
	cmpl	$1, %ebx
	jne	.LBB3_67
# BB#55:                                # %sw.bb83
	callq	_KPushCDep
	movl	$11, %edi
	callq	_KWork
	movl	$statemate_FH_TUERMODUL__SFHZ, %edi
	movl	$34, %esi
	movl	$1, %edx
	callq	_KLoad0
	.loc	1 584 28                # statemate.c:584:28
.Ltmp205:
	movb	statemate_FH_TUERMODUL__SFHZ(%rip), %bl
	movl	$statemate_FH_TUERMODUL__SFHZ_old, %edi
	movl	$35, %esi
	movl	$1, %edx
	callq	_KLoad0
	movb	statemate_FH_TUERMODUL__SFHZ_old(%rip), %r15b
	movl	$2, 168(%rsp)
	movl	$35, 160(%rsp)
	movl	$2, 152(%rsp)
	movl	$34, 144(%rsp)
	movl	$2, 136(%rsp)
	movl	$33, 128(%rsp)
	movl	$3, 120(%rsp)
	movl	$32, 112(%rsp)
	movl	$3, 104(%rsp)
	movl	$31, 96(%rsp)
	movl	$5, 88(%rsp)
	movl	$28, 80(%rsp)
	movl	$5, 72(%rsp)
	movl	$27, 64(%rsp)
	movl	$7, 56(%rsp)
	movl	$24, 48(%rsp)
	movl	$7, 40(%rsp)
	movl	$23, 32(%rsp)
	movl	$9, 24(%rsp)
	movl	$20, 16(%rsp)
	movl	$9, 8(%rsp)
	movl	$19, (%rsp)
	movl	$111, %edi
	movl	$13, %esi
	movl	$4, %edx
	movl	$10, %ecx
	movl	$7, %r8d
	movl	$9, %r9d
	xorl	%eax, %eax
	callq	_KTimestamp
	callq	_KPopCDep
	cmpb	$0, %bl
	je	.LBB3_57
# BB#56:                                # %sw.bb83
	testb	%r15b, %r15b
	je	.LBB3_59
.LBB3_57:                               # %lor.lhs.false88
	movl	$111, %edi
	callq	_KPushCDep
	movl	$statemate_FH_TUERMODUL__SFHA, %edi
	movl	$36, %esi
	movl	$1, %edx
	callq	_KLoad0
	movl	$11, %edi
	callq	_KWork
	movb	statemate_FH_TUERMODUL__SFHA(%rip), %bl
	movl	$statemate_FH_TUERMODUL__SFHA_old, %edi
	movl	$37, %esi
	movl	$1, %edx
	callq	_KLoad0
	movb	statemate_FH_TUERMODUL__SFHA_old(%rip), %r15b
	movl	$2, 200(%rsp)
	movl	$37, 192(%rsp)
	movl	$2, 184(%rsp)
	movl	$36, 176(%rsp)
	movl	$4, 168(%rsp)
	movl	$35, 160(%rsp)
	movl	$4, 152(%rsp)
	movl	$34, 144(%rsp)
	movl	$4, 136(%rsp)
	movl	$33, 128(%rsp)
	movl	$5, 120(%rsp)
	movl	$32, 112(%rsp)
	movl	$5, 104(%rsp)
	movl	$31, 96(%rsp)
	movl	$7, 88(%rsp)
	movl	$28, 80(%rsp)
	movl	$7, 72(%rsp)
	movl	$27, 64(%rsp)
	movl	$9, 56(%rsp)
	movl	$24, 48(%rsp)
	movl	$9, 40(%rsp)
	movl	$23, 32(%rsp)
	movl	$11, 24(%rsp)
	movl	$20, 16(%rsp)
	movl	$11, 8(%rsp)
	movl	$19, (%rsp)
	movl	$112, %edi
	movl	$15, %esi
	movl	$4, %edx
	movl	$12, %ecx
	movl	$7, %r8d
	movl	$11, %r9d
	xorl	%eax, %eax
	callq	_KTimestamp
	callq	_KPopCDep
	cmpb	$0, %bl
	je	.LBB3_117
.Ltmp206:
# BB#58:                                # %lor.lhs.false88
	testb	%r15b, %r15b
	jne	.LBB3_117
.LBB3_59:                               # %if.then93
	movl	$111, %edi
	jmp	.LBB3_60
.LBB3_92:                               # %if.end145
	cmpl	$1, %ebx
	jne	.LBB3_101
# BB#93:                                # %sw.bb147
	callq	_KPushCDep
	movl	$statemate_bitlist+23, %edi
	movl	$1, %esi
	callq	_KStoreConst
	movl	$6, %edi
	callq	_KWork
	.loc	1 694 29                # statemate.c:694:29
.Ltmp207:
	movb	$0, statemate_bitlist+23(%rip)
	movl	$statemate_bitlist+22, %edi
	movl	$55, %esi
	movl	$1, %edx
	callq	_KLoad0
	.loc	1 695 34                # statemate.c:695:34
	movb	statemate_bitlist+22(%rip), %bl
	movl	$1, 184(%rsp)
	movl	$54, 176(%rsp)
	movl	$3, 168(%rsp)
	movl	$31, 160(%rsp)
	movl	$5, 152(%rsp)
	movl	$28, 144(%rsp)
	movl	$5, 136(%rsp)
	movl	$27, 128(%rsp)
	movl	$7, 120(%rsp)
	movl	$24, 112(%rsp)
	movl	$7, 104(%rsp)
	movl	$23, 96(%rsp)
	movl	$9, 88(%rsp)
	movl	$20, 80(%rsp)
	movl	$9, 72(%rsp)
	movl	$19, 64(%rsp)
	movl	$9, 56(%rsp)
	movl	$7, 48(%rsp)
	movl	$10, 40(%rsp)
	movl	$4, 32(%rsp)
	movl	$1, 24(%rsp)
	movl	$55, 16(%rsp)
	movl	$2, 8(%rsp)
	movl	$52, (%rsp)
	movl	$126, %edi
	movl	$14, %esi
	movl	$42, %edx
	movl	$3, %ecx
	movl	$43, %r8d
	movl	$2, %r9d
	xorl	%eax, %eax
	callq	_KTimestamp
	callq	_KPopCDep
	cmpb	$0, %bl
	je	.LBB3_117
# BB#94:                                # %if.then149
	movl	$126, %edi
	callq	_KPushCDep
	movl	$statemate_stable, %edi
	movl	$1, %esi
	callq	_KStoreConst
	movl	$6, %edi
	callq	_KWork
	.loc	1 696 31                # statemate.c:696:31
.Ltmp208:
	movb	$0, statemate_stable(%rip)
	movl	$statemate_FH_TUERMODUL_CTRL__INREVERS1_copy, %edi
	movl	$1, %esi
	callq	_KStoreConst
	.loc	1 697 31                # statemate.c:697:31
	movb	$0, statemate_FH_TUERMODUL_CTRL__INREVERS1_copy(%rip)
	movl	$statemate_MANUELL_SCHLIESSEN_FH_TUERMODUL_CTRL_next_state, %edi
	movl	$1, %esi
	callq	_KStoreConst
	.loc	1 699 31                # statemate.c:699:31
	movb	$2, statemate_MANUELL_SCHLIESSEN_FH_TUERMODUL_CTRL_next_state(%rip)
	movl	$statemate_FH_TUERMODUL__MFHA_copy, %edi
	movl	$1, %esi
	callq	_KStoreConst
	.loc	1 700 31                # statemate.c:700:31
	movb	$0, statemate_FH_TUERMODUL__MFHA_copy(%rip)
	jmp	.LBB3_105
.Ltmp209:
.LBB3_64:                               # %if.end101
	movl	$5, %edi
	callq	_KWork
	movl	$statemate_FH_TUERMODUL__SFHA, %edi
	movl	$40, %esi
	movl	$1, %edx
	callq	_KLoad0
	.loc	1 604 28                # statemate.c:604:28
.Ltmp210:
	movb	statemate_FH_TUERMODUL__SFHA(%rip), %bl
	movl	$1, 184(%rsp)
	movl	$40, 176(%rsp)
	movl	$3, 168(%rsp)
	movl	$39, 160(%rsp)
	movl	$3, 152(%rsp)
	movl	$38, 144(%rsp)
	movl	$3, 136(%rsp)
	movl	$33, 128(%rsp)
	movl	$4, 120(%rsp)
	movl	$32, 112(%rsp)
	movl	$4, 104(%rsp)
	movl	$31, 96(%rsp)
	movl	$6, 88(%rsp)
	movl	$28, 80(%rsp)
	movl	$6, 72(%rsp)
	movl	$27, 64(%rsp)
	movl	$8, 56(%rsp)
	movl	$24, 48(%rsp)
	movl	$8, 40(%rsp)
	movl	$23, 32(%rsp)
	movl	$10, 24(%rsp)
	movl	$20, 16(%rsp)
	movl	$10, 8(%rsp)
	movl	$19, (%rsp)
	movl	$114, %edi
	movl	$14, %esi
	movl	$4, %edx
	movl	$11, %ecx
	movl	$7, %r8d
	movl	$10, %r9d
	xorl	%eax, %eax
	callq	_KTimestamp
	callq	_KPopCDep
	cmpb	$0, %bl
	jne	.LBB3_117
# BB#65:                                # %land.lhs.true103
	movl	$114, %edi
	callq	_KPushCDep
	movl	$statemate_FH_TUERMODUL__SFHA_old, %edi
	movl	$41, %esi
	movl	$1, %edx
	callq	_KLoad0
	movl	$5, %edi
	callq	_KWork
	movb	statemate_FH_TUERMODUL__SFHA_old(%rip), %bl
	movl	$2, 200(%rsp)
	movl	$40, 192(%rsp)
	movl	$4, 184(%rsp)
	movl	$39, 176(%rsp)
	movl	$4, 168(%rsp)
	movl	$38, 160(%rsp)
	movl	$4, 152(%rsp)
	movl	$33, 144(%rsp)
	movl	$5, 136(%rsp)
	movl	$32, 128(%rsp)
	movl	$5, 120(%rsp)
	movl	$31, 112(%rsp)
	movl	$7, 104(%rsp)
	movl	$28, 96(%rsp)
	movl	$7, 88(%rsp)
	movl	$27, 80(%rsp)
	movl	$9, 72(%rsp)
	movl	$24, 64(%rsp)
	movl	$9, 56(%rsp)
	movl	$23, 48(%rsp)
	movl	$11, 40(%rsp)
	movl	$20, 32(%rsp)
	movl	$11, 24(%rsp)
	movl	$19, 16(%rsp)
	movl	$11, 8(%rsp)
	movl	$7, (%rsp)
	movl	$115, %edi
	movl	$15, %esi
	movl	$41, %edx
	movl	$1, %ecx
	movl	$4, %r8d
	movl	$12, %r9d
	xorl	%eax, %eax
	callq	_KTimestamp
	callq	_KPopCDep
	cmpb	$0, %bl
	je	.LBB3_117
.Ltmp211:
# BB#66:                                # %if.then106
	movl	$115, %edi
.LBB3_60:                               # %sw.epilog187
	callq	_KPushCDep
	movl	$statemate_stable, %edi
	movl	$1, %esi
	callq	_KStoreConst
	movl	$4, %edi
	callq	_KWork
	.loc	1 587 25                # statemate.c:587:25
.Ltmp212:
	movb	$0, statemate_stable(%rip)
	movl	$statemate_FH_TUERMODUL__MFHA_copy, %edi
	movl	$1, %esi
	callq	_KStoreConst
	.loc	1 588 25                # statemate.c:588:25
	movb	$0, statemate_FH_TUERMODUL__MFHA_copy(%rip)
	movl	$statemate_INITIALISIERT_FH_TUERMODUL_CTRL_next_state, %edi
	movl	$1, %esi
	callq	_KStoreConst
	.loc	1 590 25                # statemate.c:590:25
	movb	$3, statemate_INITIALISIERT_FH_TUERMODUL_CTRL_next_state(%rip)
	movl	$statemate_OEFFNEN_FH_TUERMODUL_CTRL_next_state, %edi
	movl	$1, %esi
	callq	_KStoreConst
	.loc	1 591 25                # statemate.c:591:25
	movb	$0, statemate_OEFFNEN_FH_TUERMODUL_CTRL_next_state(%rip)
	jmp	.LBB3_116
.Ltmp213:
.LBB3_67:                               # %sw.default108
	callq	_KPushCDep
	movl	$statemate_stable, %edi
	movl	$1, %esi
	callq	_KStoreConst
	movl	$2, %edi
	callq	_KWork
	.loc	1 616 23                # statemate.c:616:23
.Ltmp214:
	movb	$0, statemate_stable(%rip)
.LBB3_68:                               # %sw.epilog187
	movl	$statemate_OEFFNEN_FH_TUERMODUL_CTRL_next_state, %edi
	movl	$1, %esi
	callq	_KStoreConst
	.loc	1 617 23                # statemate.c:617:23
	movb	$2, statemate_OEFFNEN_FH_TUERMODUL_CTRL_next_state(%rip)
	jmp	.LBB3_116
.Ltmp215:
.LBB3_101:                              # %sw.default161
	callq	_KPushCDep
	movl	$statemate_stable, %edi
	movl	$1, %esi
	callq	_KStoreConst
	movl	$4, %edi
	callq	_KWork
	.loc	1 733 29                # statemate.c:733:29
.Ltmp216:
	movb	$0, statemate_stable(%rip)
	jmp	.LBB3_104
.Ltmp217:
.LBB3_98:                               # %if.end154
	movl	$statemate_FH_TUERMODUL__SFHA, %edi
	movl	$58, %esi
	movl	$1, %edx
	callq	_KLoad0
	movl	$11, %edi
	callq	_KWork
	.loc	1 722 34                # statemate.c:722:34
.Ltmp218:
	movb	statemate_FH_TUERMODUL__SFHA(%rip), %bl
	movl	$statemate_FH_TUERMODUL__SFHA_old, %edi
	movl	$59, %esi
	movl	$1, %edx
	callq	_KLoad0
	movb	statemate_FH_TUERMODUL__SFHA_old(%rip), %r15b
	movl	$2, 216(%rsp)
	movl	$59, 208(%rsp)
	movl	$2, 200(%rsp)
	movl	$58, 192(%rsp)
	movl	$3, 184(%rsp)
	movl	$54, 176(%rsp)
	movl	$5, 168(%rsp)
	movl	$31, 160(%rsp)
	movl	$7, 152(%rsp)
	movl	$28, 144(%rsp)
	movl	$7, 136(%rsp)
	movl	$27, 128(%rsp)
	movl	$9, 120(%rsp)
	movl	$24, 112(%rsp)
	movl	$9, 104(%rsp)
	movl	$23, 96(%rsp)
	movl	$11, 88(%rsp)
	movl	$20, 80(%rsp)
	movl	$11, 72(%rsp)
	movl	$19, 64(%rsp)
	movl	$11, 56(%rsp)
	movl	$7, 48(%rsp)
	movl	$12, 40(%rsp)
	movl	$4, 32(%rsp)
	movl	$3, 24(%rsp)
	movl	$56, 16(%rsp)
	movl	$4, 8(%rsp)
	movl	$52, (%rsp)
	movl	$128, %edi
	movl	$16, %esi
	movl	$42, %edx
	movl	$5, %ecx
	movl	$43, %r8d
	movl	$4, %r9d
	xorl	%eax, %eax
	callq	_KTimestamp
	callq	_KPopCDep
	cmpb	$0, %bl
	je	.LBB3_117
# BB#99:                                # %if.end154
	testb	%r15b, %r15b
	jne	.LBB3_117
# BB#100:                               # %if.then159
	movl	$128, %edi
	callq	_KPushCDep
	movl	$statemate_stable, %edi
	movl	$1, %esi
	callq	_KStoreConst
	movl	$3, %edi
	callq	_KWork
	.loc	1 724 31                # statemate.c:724:31
.Ltmp219:
	movb	$0, statemate_stable(%rip)
	movl	$statemate_SCHLIESSEN_FH_TUERMODUL_CTRL_next_state, %edi
	movl	$1, %esi
	callq	_KStoreConst
	.loc	1 726 31                # statemate.c:726:31
	movb	$1, statemate_SCHLIESSEN_FH_TUERMODUL_CTRL_next_state(%rip)
	movl	$statemate_MANUELL_SCHLIESSEN_FH_TUERMODUL_CTRL_next_state, %edi
	movl	$1, %esi
	callq	_KStoreConst
	.loc	1 727 31                # statemate.c:727:31
	movb	$0, statemate_MANUELL_SCHLIESSEN_FH_TUERMODUL_CTRL_next_state(%rip)
	jmp	.LBB3_116
.Ltmp220:
.LBB3_80:                               # %if.end127
	movl	$119, %edi
	callq	_KPushCDep
	movl	$4, %edi
	callq	_KWork
	movl	$statemate_TIPP_SCHLIESSEN_FH_TUERMODUL_CTRL_next_state, %edi
	movl	$48, %esi
	movl	$1, %edx
	callq	_KLoad0
	.loc	1 642 32                # statemate.c:642:32
.Ltmp221:
	movsbl	statemate_TIPP_SCHLIESSEN_FH_TUERMODUL_CTRL_next_state(%rip), %ebx
	callq	_KPopCDep
	movl	$0, 216(%rsp)
	movl	$48, 208(%rsp)
	movl	$5, 200(%rsp)
	movl	$31, 192(%rsp)
	movl	$7, 184(%rsp)
	movl	$28, 176(%rsp)
	movl	$7, 168(%rsp)
	movl	$27, 160(%rsp)
	movl	$9, 152(%rsp)
	movl	$24, 144(%rsp)
	movl	$9, 136(%rsp)
	movl	$23, 128(%rsp)
	movl	$11, 120(%rsp)
	movl	$20, 112(%rsp)
	movl	$11, 104(%rsp)
	movl	$19, 96(%rsp)
	movl	$11, 88(%rsp)
	movl	$7, 80(%rsp)
	movl	$12, 72(%rsp)
	movl	$4, 64(%rsp)
	movl	$2, 56(%rsp)
	movl	$47, 48(%rsp)
	movl	$2, 40(%rsp)
	movl	$46, 32(%rsp)
	movl	$4, 24(%rsp)
	movl	$45, 16(%rsp)
	movl	$4, 8(%rsp)
	movl	$44, (%rsp)
	movl	$120, %edi
	movl	$16, %esi
	movl	$42, %edx
	movl	$5, %ecx
	movl	$43, %r8d
	movl	$4, %r9d
	xorl	%eax, %eax
	callq	_KTimestamp
	movl	$120, %edi
	.loc	1 642 23 is_stmt 0      # statemate.c:642:23
	cmpl	$2, %ebx
	jne	.LBB3_81
# BB#84:                                # %sw.bb133
	callq	_KPushCDep
	movl	$statemate_bitlist+24, %edi
	movl	$50, %esi
	movl	$1, %edx
	callq	_KLoad0
	movl	$5, %edi
	callq	_KWork
	.loc	1 659 34 is_stmt 1      # statemate.c:659:34
.Ltmp222:
	movb	statemate_bitlist+24(%rip), %bl
	callq	_KPopCDep
	movl	$1, 232(%rsp)
	movl	$50, 224(%rsp)
	movl	$1, 216(%rsp)
	movl	$48, 208(%rsp)
	movl	$6, 200(%rsp)
	movl	$31, 192(%rsp)
	movl	$8, 184(%rsp)
	movl	$28, 176(%rsp)
	movl	$8, 168(%rsp)
	movl	$27, 160(%rsp)
	movl	$10, 152(%rsp)
	movl	$24, 144(%rsp)
	movl	$10, 136(%rsp)
	movl	$23, 128(%rsp)
	movl	$12, 120(%rsp)
	movl	$20, 112(%rsp)
	movl	$12, 104(%rsp)
	movl	$19, 96(%rsp)
	movl	$12, 88(%rsp)
	movl	$7, 80(%rsp)
	movl	$13, 72(%rsp)
	movl	$4, 64(%rsp)
	movl	$3, 56(%rsp)
	movl	$47, 48(%rsp)
	movl	$3, 40(%rsp)
	movl	$46, 32(%rsp)
	movl	$5, 24(%rsp)
	movl	$45, 16(%rsp)
	movl	$5, 8(%rsp)
	movl	$44, (%rsp)
	movl	$122, %edi
	movl	$17, %esi
	movl	$42, %edx
	movl	$6, %ecx
	movl	$43, %r8d
	movl	$5, %r9d
	xorl	%eax, %eax
	callq	_KTimestamp
	cmpb	$0, %bl
	je	.LBB3_117
# BB#85:                                # %if.then135
	movl	$122, %edi
	callq	_KPushCDep
	movl	$statemate_stable, %edi
	movl	$1, %esi
	callq	_KStoreConst
	movl	$12, %edi
	callq	_KWork
	.loc	1 660 31                # statemate.c:660:31
.Ltmp223:
	movb	$0, statemate_stable(%rip)
	movl	$statemate_FH_TUERMODUL_CTRL__INREVERS2_copy, %edi
	movl	$1, %esi
	callq	_KStoreConst
	.loc	1 661 31                # statemate.c:661:31
	movb	$1, statemate_FH_TUERMODUL_CTRL__INREVERS2_copy(%rip)
	movl	$statemate_bitlist+23, %edi
	movl	$1, %esi
	callq	_KStoreConst
	.loc	1 663 31                # statemate.c:663:31
	movb	$1, statemate_bitlist+23(%rip)
	movl	$statemate_TIPP_SCHLIESSEN_FH_TUERMODUL_CTRL_next_state, %edi
	movl	$1, %esi
	callq	_KStoreConst
	.loc	1 664 31                # statemate.c:664:31
	movb	$1, statemate_TIPP_SCHLIESSEN_FH_TUERMODUL_CTRL_next_state(%rip)
	movl	$statemate_bitlist+17, %edi
	movl	$1, %esi
	callq	_KStoreConst
	.loc	1 665 31                # statemate.c:665:31
	movb	$0, statemate_bitlist+17(%rip)
	movl	$statemate_FH_TUERMODUL__MFHZ_copy, %edi
	movl	$1, %esi
	callq	_KStoreConst
	.loc	1 666 31                # statemate.c:666:31
	movb	$0, statemate_FH_TUERMODUL__MFHZ_copy(%rip)
	movl	$statemate_time, %edi
	movl	$51, %esi
	movl	$8, %edx
	callq	_KLoad0
	.loc	1 668 72                # statemate.c:668:72
	movq	statemate_time(%rip), %rbx
	movl	$51, %edi
	movl	$51, %esi
	xorl	%edx, %edx
	callq	_KTimestamp1
	movl	$51, %edi
	movl	$statemate_sc_FH_TUERMODUL_CTRL_1781_10, %esi
	movl	$8, %edx
	callq	_KStore
	.loc	1 668 31 is_stmt 0      # statemate.c:668:31
	movq	%rbx, statemate_sc_FH_TUERMODUL_CTRL_1781_10(%rip)
	jmp	.LBB3_97
.Ltmp224:
.LBB3_81:                               # %if.end127
	cmpl	$1, %ebx
	jne	.LBB3_86
# BB#82:                                # %sw.bb129
	callq	_KPushCDep
	movl	$statemate_bitlist+23, %edi
	movl	$1, %esi
	callq	_KStoreConst
	movl	$6, %edi
	callq	_KWork
	.loc	1 644 29 is_stmt 1      # statemate.c:644:29
.Ltmp225:
	movb	$0, statemate_bitlist+23(%rip)
	movl	$statemate_bitlist+22, %edi
	movl	$49, %esi
	movl	$1, %edx
	callq	_KLoad0
	.loc	1 645 34                # statemate.c:645:34
	movb	statemate_bitlist+22(%rip), %bl
	movl	$1, 232(%rsp)
	movl	$49, 224(%rsp)
	movl	$1, 216(%rsp)
	movl	$48, 208(%rsp)
	movl	$6, 200(%rsp)
	movl	$31, 192(%rsp)
	movl	$8, 184(%rsp)
	movl	$28, 176(%rsp)
	movl	$8, 168(%rsp)
	movl	$27, 160(%rsp)
	movl	$10, 152(%rsp)
	movl	$24, 144(%rsp)
	movl	$10, 136(%rsp)
	movl	$23, 128(%rsp)
	movl	$12, 120(%rsp)
	movl	$20, 112(%rsp)
	movl	$12, 104(%rsp)
	movl	$19, 96(%rsp)
	movl	$12, 88(%rsp)
	movl	$7, 80(%rsp)
	movl	$13, 72(%rsp)
	movl	$4, 64(%rsp)
	movl	$3, 56(%rsp)
	movl	$47, 48(%rsp)
	movl	$3, 40(%rsp)
	movl	$46, 32(%rsp)
	movl	$5, 24(%rsp)
	movl	$45, 16(%rsp)
	movl	$5, 8(%rsp)
	movl	$44, (%rsp)
	movl	$121, %edi
	movl	$17, %esi
	movl	$42, %edx
	movl	$6, %ecx
	movl	$43, %r8d
	movl	$5, %r9d
	xorl	%eax, %eax
	callq	_KTimestamp
	callq	_KPopCDep
	cmpb	$0, %bl
	je	.LBB3_117
# BB#83:                                # %if.then131
	movl	$121, %edi
	callq	_KPushCDep
	movl	$statemate_stable, %edi
	movl	$1, %esi
	callq	_KStoreConst
	movl	$6, %edi
	callq	_KWork
	.loc	1 646 31                # statemate.c:646:31
.Ltmp226:
	movb	$0, statemate_stable(%rip)
	movl	$statemate_FH_TUERMODUL__MFHZ_copy, %edi
	movl	$1, %esi
	callq	_KStoreConst
	.loc	1 647 31                # statemate.c:647:31
	movb	$1, statemate_FH_TUERMODUL__MFHZ_copy(%rip)
	movl	$statemate_FH_TUERMODUL_CTRL__INREVERS2_copy, %edi
	movl	$1, %esi
	callq	_KStoreConst
	.loc	1 648 31                # statemate.c:648:31
	movb	$0, statemate_FH_TUERMODUL_CTRL__INREVERS2_copy(%rip)
	movl	$statemate_TIPP_SCHLIESSEN_FH_TUERMODUL_CTRL_next_state, %edi
	movl	$1, %esi
	callq	_KStoreConst
	.loc	1 650 31                # statemate.c:650:31
	movb	$2, statemate_TIPP_SCHLIESSEN_FH_TUERMODUL_CTRL_next_state(%rip)
	movl	$statemate_FH_TUERMODUL__MFHA_copy, %edi
	movl	$1, %esi
	callq	_KStoreConst
	.loc	1 651 31                # statemate.c:651:31
	movb	$0, statemate_FH_TUERMODUL__MFHA_copy(%rip)
	jmp	.LBB3_87
.Ltmp227:
.LBB3_86:                               # %sw.default137
	callq	_KPushCDep
	movl	$statemate_stable, %edi
	movl	$1, %esi
	callq	_KStoreConst
	movl	$3, %edi
	callq	_KWork
	.loc	1 675 29                # statemate.c:675:29
.Ltmp228:
	movb	$0, statemate_stable(%rip)
	movl	$statemate_TIPP_SCHLIESSEN_FH_TUERMODUL_CTRL_next_state, %edi
	movl	$1, %esi
	callq	_KStoreConst
	.loc	1 676 29                # statemate.c:676:29
	movb	$2, statemate_TIPP_SCHLIESSEN_FH_TUERMODUL_CTRL_next_state(%rip)
.LBB3_87:                               # %sw.epilog187
	movl	$statemate_bitlist+17, %edi
	movl	$1, %esi
	callq	_KStoreConst
	.loc	1 677 29                # statemate.c:677:29
	movb	$1, statemate_bitlist+17(%rip)
	jmp	.LBB3_116
.Ltmp229:
.Ltmp230:
	.size	statemate_generic_FH_TUERMODUL_CTRL, .Ltmp230-statemate_generic_FH_TUERMODUL_CTRL
.Lfunc_end3:
	.cfi_endproc

	.globl	statemate_generic_EINKLEMMSCHUTZ_CTRL
	.align	16, 0x90
	.type	statemate_generic_EINKLEMMSCHUTZ_CTRL,@function
statemate_generic_EINKLEMMSCHUTZ_CTRL:  # @statemate_generic_EINKLEMMSCHUTZ_CTRL
.Lfunc_begin4:
	.loc	1 860 0                 # statemate.c:860:0
	.cfi_startproc
# BB#0:                                 # %entry
	pushq	%rbp
.Ltmp231:
	.cfi_def_cfa_offset 16
.Ltmp232:
	.cfi_offset %rbp, -16
	movq	%rsp, %rbp
.Ltmp233:
	.cfi_def_cfa_register %rbp
	pushq	%r15
	pushq	%r14
	pushq	%rbx
	subq	$56, %rsp
.Ltmp234:
	.cfi_offset %rbx, -40
.Ltmp235:
	.cfi_offset %r14, -32
.Ltmp236:
	.cfi_offset %r15, -24
	movabsq	$-6150835896832897363, %r14 # imm = 0xAAA3D757218DCEAD
	xorl	%esi, %esi
	movq	%r14, %rdi
	callq	_KEnterRegion
	movl	$16, %edi
	xorl	%esi, %esi
	callq	_KPrepRTable
	movl	$statemate_bitlist+16, %edi
	movl	$1, %esi
	movl	$1, %edx
	callq	_KLoad0
	movl	$5, %edi
	callq	_KWork
	.loc	1 861 8 prologue_end    # statemate.c:861:8
.Ltmp237:
	movb	statemate_bitlist+16(%rip), %bl
	movl	$9, %edi
	movl	$1, %esi
	movl	$1, %edx
	callq	_KTimestamp1
	cmpb	$0, %bl
	je	.LBB4_13
# BB#1:                                 # %if.then
	movl	$9, %edi
	callq	_KPushCDep
	movl	$4, %edi
	callq	_KWork
	movl	$statemate_EINKLEMMSCHUTZ_CTRL_EINKLEMMSCHUTZ_CTRL_next_state, %edi
	movl	$2, %esi
	movl	$1, %edx
	callq	_KLoad0
	.loc	1 862 14                # statemate.c:862:14
.Ltmp238:
	movsbl	statemate_EINKLEMMSCHUTZ_CTRL_EINKLEMMSCHUTZ_CTRL_next_state(%rip), %ebx
	callq	_KPopCDep
	movl	$10, %edi
	movl	$1, %esi
	movl	$1, %edx
	movl	$2, %ecx
	xorl	%r8d, %r8d
	callq	_KTimestamp2
	movl	$10, %edi
	.loc	1 862 5 is_stmt 0       # statemate.c:862:5
	cmpl	$2, %ebx
	jne	.LBB4_2
# BB#8:                                 # %sw.bb11
	callq	_KPushCDep
	movl	$statemate_bitlist+24, %edi
	movl	$1, %esi
	callq	_KStoreConst
	movl	$6, %edi
	callq	_KWork
	.loc	1 877 11 is_stmt 1      # statemate.c:877:11
.Ltmp239:
	movb	$0, statemate_bitlist+24(%rip)
	movl	$statemate_FH_TUERMODUL__EKS_LEISTE_AKTIV, %edi
	movl	$7, %esi
	movl	$1, %edx
	callq	_KLoad0
	.loc	1 878 16                # statemate.c:878:16
	movb	statemate_FH_TUERMODUL__EKS_LEISTE_AKTIV(%rip), %bl
	movl	$1, (%rsp)
	movl	$14, %edi
	movl	$1, %esi
	movl	$2, %edx
	movl	$2, %ecx
	movl	$1, %r8d
	movl	$7, %r9d
	callq	_KTimestamp3
	callq	_KPopCDep
	cmpb	$0, %bl
	jne	.LBB4_13
# BB#9:                                 # %land.lhs.true13
	movl	$14, %edi
	callq	_KPushCDep
	movl	$5, %edi
	callq	_KWork
	movl	$statemate_FH_TUERMODUL__EKS_LEISTE_AKTIV_old, %edi
	movl	$8, %esi
	movl	$1, %edx
	callq	_KLoad0
	movb	statemate_FH_TUERMODUL__EKS_LEISTE_AKTIV_old(%rip), %bl
	movl	$1, 16(%rsp)
	movl	$8, 8(%rsp)
	movl	$2, (%rsp)
	movl	$15, %edi
	movl	$1, %esi
	movl	$3, %edx
	movl	$2, %ecx
	movl	$2, %r8d
	movl	$7, %r9d
	callq	_KTimestamp4
	callq	_KPopCDep
	cmpb	$0, %bl
	je	.LBB4_13
.Ltmp240:
# BB#10:                                # %if.then16
	movl	$15, %edi
	jmp	.LBB4_11
.LBB4_2:                                # %if.then
	cmpl	$1, %ebx
	jne	.LBB4_11
# BB#3:                                 # %sw.bb
	callq	_KPushCDep
	movl	$11, %edi
	callq	_KWork
	movl	$statemate_FH_TUERMODUL__EKS_LEISTE_AKTIV, %edi
	movl	$3, %esi
	movl	$1, %edx
	callq	_KLoad0
	.loc	1 864 16                # statemate.c:864:16
.Ltmp241:
	movb	statemate_FH_TUERMODUL__EKS_LEISTE_AKTIV(%rip), %bl
	movl	$statemate_FH_TUERMODUL__EKS_LEISTE_AKTIV_old, %edi
	movl	$4, %esi
	movl	$1, %edx
	callq	_KLoad0
	movb	statemate_FH_TUERMODUL__EKS_LEISTE_AKTIV_old(%rip), %r15b
	movl	$2, 16(%rsp)
	movl	$4, 8(%rsp)
	movl	$2, (%rsp)
	movl	$11, %edi
	movl	$1, %esi
	movl	$3, %edx
	movl	$2, %ecx
	movl	$2, %r8d
	movl	$3, %r9d
	callq	_KTimestamp4
	callq	_KPopCDep
	cmpb	$0, %bl
	je	.LBB4_13
# BB#4:                                 # %sw.bb
	testb	%r15b, %r15b
	jne	.LBB4_13
# BB#5:                                 # %land.lhs.true4
	movl	$11, %edi
	callq	_KPushCDep
	movl	$statemate_FH_TUERMODUL__SFHZ, %edi
	movl	$5, %esi
	movl	$1, %edx
	callq	_KLoad0
	movl	$5, %edi
	callq	_KWork
	movb	statemate_FH_TUERMODUL__SFHZ(%rip), %bl
	callq	_KPopCDep
	movl	$1, 32(%rsp)
	movl	$5, 24(%rsp)
	movl	$3, 16(%rsp)
	movl	$4, 8(%rsp)
	movl	$3, (%rsp)
	movl	$12, %edi
	movl	$1, %esi
	movl	$4, %edx
	movl	$2, %ecx
	movl	$3, %r8d
	movl	$3, %r9d
	callq	_KTimestamp5
	cmpb	$0, %bl
	je	.LBB4_7
# BB#6:                                 # %land.lhs.true7
	movl	$12, %edi
	callq	_KPushCDep
	movl	$5, %edi
	callq	_KWork
	movl	$statemate_FH_TUERMODUL__SFHA, %edi
	movl	$6, %esi
	movl	$1, %edx
	callq	_KLoad0
	movb	statemate_FH_TUERMODUL__SFHA(%rip), %bl
	movl	$1, 48(%rsp)
	movl	$6, 40(%rsp)
	movl	$2, 32(%rsp)
	movl	$5, 24(%rsp)
	movl	$4, 16(%rsp)
	movl	$4, 8(%rsp)
	movl	$4, (%rsp)
	movl	$13, %edi
	movl	$1, %esi
	movl	$5, %edx
	movl	$2, %ecx
	movl	$4, %r8d
	movl	$3, %r9d
	callq	_KTimestamp6
	callq	_KPopCDep
	cmpb	$0, %bl
	jne	.LBB4_13
.LBB4_7:                                # %if.then10
	movl	$12, %edi
	callq	_KPushCDep
	movl	$3, %edi
	callq	_KWork
	movl	$statemate_stable, %edi
	movl	$1, %esi
	callq	_KStoreConst
	.loc	1 868 13                # statemate.c:868:13
.Ltmp242:
	movb	$0, statemate_stable(%rip)
	movl	$statemate_bitlist+24, %edi
	movl	$1, %esi
	callq	_KStoreConst
	.loc	1 870 13                # statemate.c:870:13
	movb	$1, statemate_bitlist+24(%rip)
	movl	$statemate_EINKLEMMSCHUTZ_CTRL_EINKLEMMSCHUTZ_CTRL_next_state, %edi
	movl	$1, %esi
	callq	_KStoreConst
	.loc	1 871 13                # statemate.c:871:13
	movb	$2, statemate_EINKLEMMSCHUTZ_CTRL_EINKLEMMSCHUTZ_CTRL_next_state(%rip)
	jmp	.LBB4_12
.Ltmp243:
.LBB4_11:                               # %if.end18
	callq	_KPushCDep
	movl	$statemate_stable, %edi
	movl	$1, %esi
	callq	_KStoreConst
	movl	$2, %edi
	callq	_KWork
	.loc	1 888 11                # statemate.c:888:11
.Ltmp244:
	movb	$0, statemate_stable(%rip)
	movl	$statemate_EINKLEMMSCHUTZ_CTRL_EINKLEMMSCHUTZ_CTRL_next_state, %edi
	movl	$1, %esi
	callq	_KStoreConst
	.loc	1 889 11                # statemate.c:889:11
	movb	$1, statemate_EINKLEMMSCHUTZ_CTRL_EINKLEMMSCHUTZ_CTRL_next_state(%rip)
.Ltmp245:
.LBB4_12:                               # %if.end18
	callq	_KPopCDep
.LBB4_13:                               # %if.end18
	xorl	%esi, %esi
	movq	%r14, %rdi
	addq	$56, %rsp
	popq	%rbx
	popq	%r14
	popq	%r15
	popq	%rbp
	jmp	_KExitRegion            # TAILCALL
.Ltmp246:
	.size	statemate_generic_EINKLEMMSCHUTZ_CTRL, .Ltmp246-statemate_generic_EINKLEMMSCHUTZ_CTRL
.Lfunc_end4:
	.cfi_endproc

	.globl	statemate_generic_BLOCK_ERKENNUNG_CTRL
	.align	16, 0x90
	.type	statemate_generic_BLOCK_ERKENNUNG_CTRL,@function
statemate_generic_BLOCK_ERKENNUNG_CTRL: # @statemate_generic_BLOCK_ERKENNUNG_CTRL
.Lfunc_begin5:
	.loc	1 898 0                 # statemate.c:898:0
	.cfi_startproc
# BB#0:                                 # %entry
	pushq	%rbp
.Ltmp247:
	.cfi_def_cfa_offset 16
.Ltmp248:
	.cfi_offset %rbp, -16
	movq	%rsp, %rbp
.Ltmp249:
	.cfi_def_cfa_register %rbp
	pushq	%r15
	pushq	%r14
	pushq	%r12
	pushq	%rbx
	subq	$192, %rsp
.Ltmp250:
	.cfi_offset %rbx, -48
.Ltmp251:
	.cfi_offset %r12, -40
.Ltmp252:
	.cfi_offset %r14, -32
.Ltmp253:
	.cfi_offset %r15, -24
	movabsq	$5591034574545857414, %r12 # imm = 0x4D975852AEBBAB86
	xorl	%esi, %esi
	movq	%r12, %rdi
	callq	_KEnterRegion
	movl	$44, %edi
	xorl	%esi, %esi
	callq	_KPrepRTable
	movl	$statemate_bitlist+19, %edi
	movl	$1, %esi
	movl	$1, %edx
	callq	_KLoad0
	movl	$5, %edi
	callq	_KWork
	.loc	1 899 8 prologue_end    # statemate.c:899:8
.Ltmp254:
	movb	statemate_bitlist+19(%rip), %bl
	movl	$28, %edi
	movl	$1, %esi
	movl	$1, %edx
	callq	_KTimestamp1
	cmpb	$0, %bl
	jne	.LBB5_4
# BB#1:                                 # %land.lhs.true
	movl	$28, %edi
	callq	_KPushCDep
	movl	$11, %edi
	callq	_KWork
	movl	$statemate_bitlist+21, %edi
	movl	$2, %esi
	movl	$1, %edx
	callq	_KLoad0
	movb	statemate_bitlist+21(%rip), %bl
	movl	$statemate_bitlist+20, %edi
	movl	$3, %esi
	movl	$1, %edx
	callq	_KLoad0
	movb	statemate_bitlist+20(%rip), %r14b
	movl	$2, (%rsp)
	movl	$29, %edi
	movl	$1, %esi
	movl	$3, %edx
	movl	$2, %ecx
	movl	$2, %r8d
	movl	$3, %r9d
	callq	_KTimestamp3
	callq	_KPopCDep
	cmpb	$0, %bl
	je	.LBB5_4
# BB#2:                                 # %land.lhs.true
	testb	%r14b, %r14b
	jne	.LBB5_4
# BB#3:                                 # %if.then
	movl	$29, %edi
	callq	_KPushCDep
	movl	$1, %edi
	callq	_KWork
	movl	$statemate_bitlist, %edi
	movl	$1, %esi
	callq	_KStoreConst
	.loc	1 902 5                 # statemate.c:902:5
.Ltmp255:
	movb	$0, statemate_bitlist(%rip)
	callq	_KPopCDep
.Ltmp256:
.LBB5_4:                                # %if.end
	movl	$statemate_bitlist+19, %edi
	movl	$4, %esi
	movl	$1, %edx
	callq	_KLoad0
	movl	$5, %edi
	callq	_KWork
	.loc	1 904 8                 # statemate.c:904:8
	movb	statemate_bitlist+19(%rip), %bl
	movl	$30, %edi
	movl	$4, %esi
	movl	$1, %edx
	callq	_KTimestamp1
	cmpb	$0, %bl
	je	.LBB5_33
# BB#5:                                 # %if.then5
	movl	$30, %edi
	callq	_KPushCDep
	movl	$statemate_BLOCK_ERKENNUNG_CTRL_BLOCK_ERKENNUNG_CTRL_next_state, %edi
	movl	$5, %esi
	movl	$1, %edx
	callq	_KLoad0
	movl	$4, %edi
	callq	_KWork
	.loc	1 905 14                # statemate.c:905:14
.Ltmp257:
	movsbl	statemate_BLOCK_ERKENNUNG_CTRL_BLOCK_ERKENNUNG_CTRL_next_state(%rip), %ebx
	callq	_KPopCDep
	movl	$31, %edi
	movl	$4, %esi
	movl	$1, %edx
	movl	$5, %ecx
	xorl	%r8d, %r8d
	callq	_KTimestamp2
	movl	$31, %edi
	.loc	1 905 5 is_stmt 0       # statemate.c:905:5
	cmpl	$2, %ebx
	jne	.LBB5_6
# BB#10:                                # %sw.bb13
	callq	_KPushCDep
	movl	$statemate_FH_TUERMODUL__MFHA, %edi
	movl	$9, %esi
	movl	$1, %edx
	callq	_KLoad0
	movl	$5, %edi
	callq	_KWork
	.loc	1 923 16 is_stmt 1      # statemate.c:923:16
.Ltmp258:
	movb	statemate_FH_TUERMODUL__MFHA(%rip), %bl
	callq	_KPopCDep
	movl	$1, (%rsp)
	movl	$33, %edi
	movl	$4, %esi
	movl	$2, %edx
	movl	$5, %ecx
	movl	$1, %r8d
	movl	$9, %r9d
	callq	_KTimestamp3
	cmpb	$0, %bl
	jne	.LBB5_12
# BB#11:                                # %land.lhs.true15
	movl	$33, %edi
	callq	_KPushCDep
	movl	$statemate_FH_TUERMODUL__MFHA_old, %edi
	movl	$10, %esi
	movl	$1, %edx
	callq	_KLoad0
	movl	$5, %edi
	callq	_KWork
	movb	statemate_FH_TUERMODUL__MFHA_old(%rip), %bl
	callq	_KPopCDep
	movl	$1, 16(%rsp)
	movl	$10, 8(%rsp)
	movl	$2, (%rsp)
	movl	$34, %edi
	movl	$4, %esi
	movl	$3, %edx
	movl	$5, %ecx
	movl	$2, %r8d
	movl	$9, %r9d
	callq	_KTimestamp4
	cmpb	$0, %bl
	jne	.LBB5_14
.LBB5_12:                               # %lor.lhs.false
	movl	$33, %edi
	callq	_KPushCDep
	movl	$statemate_FH_TUERMODUL__MFHZ, %edi
	movl	$11, %esi
	movl	$1, %edx
	callq	_KLoad0
	movl	$5, %edi
	callq	_KWork
	movb	statemate_FH_TUERMODUL__MFHZ(%rip), %bl
	callq	_KPopCDep
	movl	$1, 16(%rsp)
	movl	$11, 8(%rsp)
	movl	$2, (%rsp)
	movl	$35, %edi
	movl	$4, %esi
	movl	$3, %edx
	movl	$5, %ecx
	movl	$2, %r8d
	movl	$9, %r9d
	callq	_KTimestamp4
	cmpb	$0, %bl
	jne	.LBB5_15
# BB#13:                                # %land.lhs.true19
	movl	$35, %edi
	callq	_KPushCDep
	movl	$5, %edi
	callq	_KWork
	movl	$statemate_FH_TUERMODUL__MFHZ_old, %edi
	movl	$12, %esi
	movl	$1, %edx
	callq	_KLoad0
	movb	statemate_FH_TUERMODUL__MFHZ_old(%rip), %bl
	movl	$1, 32(%rsp)
	movl	$12, 24(%rsp)
	movl	$2, 16(%rsp)
	movl	$11, 8(%rsp)
	movl	$3, (%rsp)
	movl	$36, %edi
	movl	$4, %esi
	movl	$4, %edx
	movl	$5, %ecx
	movl	$3, %r8d
	movl	$9, %r9d
	callq	_KTimestamp5
	callq	_KPopCDep
	cmpb	$0, %bl
	je	.LBB5_15
.LBB5_14:                               # %if.then22
	movl	$3, %edi
	callq	_KWork
	movl	$statemate_stable, %edi
	movl	$1, %esi
	callq	_KStoreConst
	.loc	1 926 13                # statemate.c:926:13
.Ltmp259:
	movb	$0, statemate_stable(%rip)
	movl	$statemate_BLOCK_ERKENNUNG_CTRL_BLOCK_ERKENNUNG_CTRL_next_state, %edi
	movl	$1, %esi
	callq	_KStoreConst
	.loc	1 928 13                # statemate.c:928:13
	movb	$1, statemate_BLOCK_ERKENNUNG_CTRL_BLOCK_ERKENNUNG_CTRL_next_state(%rip)
	movl	$statemate_BEWEGUNG_BLOCK_ERKENNUNG_CTRL_next_state, %edi
	movl	$1, %esi
	callq	_KStoreConst
	.loc	1 929 13                # statemate.c:929:13
	movb	$0, statemate_BEWEGUNG_BLOCK_ERKENNUNG_CTRL_next_state(%rip)
	jmp	.LBB5_33
.Ltmp260:
.LBB5_6:                                # %if.then5
	cmpl	$1, %ebx
	jne	.LBB5_31
# BB#7:                                 # %sw.bb
	callq	_KPushCDep
	movl	$15, %edi
	callq	_KWork
	movl	$statemate_FH_TUERMODUL__I_EIN, %edi
	movl	$6, %esi
	movl	$4, %edx
	callq	_KLoad0
	.loc	1 907 18                # statemate.c:907:18
.Ltmp261:
	movl	statemate_FH_TUERMODUL__I_EIN(%rip), %r14d
	movl	$statemate_FH_TUERMODUL__I_EIN_old, %edi
	movl	$7, %esi
	movl	$4, %edx
	callq	_KLoad0
.Ltmp262:
	.loc	1 907 16 is_stmt 0      # statemate.c:907:16
	movl	statemate_FH_TUERMODUL__I_EIN_old(%rip), %ebx
	movl	$statemate_FH_TUERMODUL__I_EIN, %edi
	movl	$8, %esi
	movl	$4, %edx
	callq	_KLoad0
	movl	statemate_FH_TUERMODUL__I_EIN(%rip), %r15d
	movl	$2, 32(%rsp)
	movl	$8, 24(%rsp)
	movl	$2, 16(%rsp)
	movl	$7, 8(%rsp)
	movl	$2, (%rsp)
	movl	$32, %edi
	movl	$4, %esi
	movl	$3, %edx
	movl	$5, %ecx
	movl	$2, %r8d
	movl	$6, %r9d
	callq	_KTimestamp5
	callq	_KPopCDep
	cmpl	%ebx, %r14d
	je	.LBB5_33
# BB#8:                                 # %sw.bb
	testl	%r15d, %r15d
	jle	.LBB5_33
# BB#9:                                 # %if.then11
	movl	$32, %edi
	callq	_KPushCDep
	movl	$statemate_stable, %edi
	movl	$1, %esi
	callq	_KStoreConst
	movl	$7, %edi
	callq	_KWork
	.loc	1 909 13 is_stmt 1      # statemate.c:909:13
.Ltmp263:
	movb	$0, statemate_stable(%rip)
	movl	$statemate_FH_TUERMODUL__BLOCK_copy, %edi
	movl	$1, %esi
	callq	_KStoreConst
	.loc	1 910 13                # statemate.c:910:13
	movb	$0, statemate_FH_TUERMODUL__BLOCK_copy(%rip)
	movl	$statemate_BLOCK_ERKENNUNG_CTRL_BLOCK_ERKENNUNG_CTRL_next_state, %edi
	movl	$1, %esi
	callq	_KStoreConst
	.loc	1 912 13                # statemate.c:912:13
	movb	$2, statemate_BLOCK_ERKENNUNG_CTRL_BLOCK_ERKENNUNG_CTRL_next_state(%rip)
	jmp	.LBB5_30
.Ltmp264:
.LBB5_15:                               # %if.end23
	movl	$35, %edi
	callq	_KPushCDep
	movl	$4, %edi
	callq	_KWork
	movl	$statemate_BEWEGUNG_BLOCK_ERKENNUNG_CTRL_next_state, %edi
	movl	$13, %esi
	movl	$1, %edx
	callq	_KLoad0
	.loc	1 932 20                # statemate.c:932:20
.Ltmp265:
	movsbl	statemate_BEWEGUNG_BLOCK_ERKENNUNG_CTRL_next_state(%rip), %ebx
	callq	_KPopCDep
	movl	$0, 32(%rsp)
	movl	$13, 24(%rsp)
	movl	$1, 16(%rsp)
	movl	$11, 8(%rsp)
	movl	$2, (%rsp)
	movl	$37, %edi
	movl	$4, %esi
	movl	$3, %edx
	movl	$5, %ecx
	movl	$2, %r8d
	movl	$9, %r9d
	callq	_KTimestamp5
	.loc	1 932 11 is_stmt 0      # statemate.c:932:11
	cmpl	$1, %ebx
	je	.LBB5_33
# BB#16:                                # %if.end23
	movl	$37, %edi
	cmpl	$3, %ebx
	jne	.LBB5_17
# BB#20:                                # %sw.bb31
	callq	_KPushCDep
	movl	$12, %edi
	callq	_KWork
	movl	$statemate_bitlist, %edi
	movl	$1, %esi
	callq	_KStoreConst
	.loc	1 948 17 is_stmt 1      # statemate.c:948:17
.Ltmp266:
	movb	$0, statemate_bitlist(%rip)
	movl	$statemate_BLOCK_ERKENNUNG_CTRL__N, %edi
	movl	$16, %esi
	movl	$4, %edx
	callq	_KLoad0
	.loc	1 950 24                # statemate.c:950:24
.Ltmp267:
	movl	statemate_BLOCK_ERKENNUNG_CTRL__N(%rip), %ebx
	movl	$statemate_BLOCK_ERKENNUNG_CTRL__N_old, %edi
	movl	$17, %esi
	movl	$4, %edx
	callq	_KLoad0
	movl	statemate_BLOCK_ERKENNUNG_CTRL__N_old(%rip), %r14d
	movl	$2, 64(%rsp)
	movl	$17, 56(%rsp)
	movl	$2, 48(%rsp)
	movl	$16, 40(%rsp)
	movl	$2, 32(%rsp)
	movl	$13, 24(%rsp)
	movl	$3, 16(%rsp)
	movl	$11, 8(%rsp)
	movl	$4, (%rsp)
	movl	$39, %edi
	movl	$4, %esi
	movl	$5, %edx
	movl	$5, %ecx
	movl	$4, %r8d
	movl	$9, %r9d
	callq	_KTimestamp7
	callq	_KPopCDep
	movl	$39, %edi
	callq	_KPushCDep
	cmpl	$11, %ebx
	jne	.LBB5_23
# BB#21:                                # %sw.bb31
	cmpl	$11, %r14d
	je	.LBB5_23
# BB#22:                                # %if.then37
	movl	$statemate_stable, %edi
	movl	$1, %esi
	callq	_KStoreConst
	movl	$2, %edi
	callq	_KWork
	.loc	1 952 19                # statemate.c:952:19
.Ltmp268:
	movb	$0, statemate_stable(%rip)
	movl	$statemate_BEWEGUNG_BLOCK_ERKENNUNG_CTRL_next_state, %edi
	movl	$1, %esi
	callq	_KStoreConst
	.loc	1 954 19                # statemate.c:954:19
	movb	$2, statemate_BEWEGUNG_BLOCK_ERKENNUNG_CTRL_next_state(%rip)
	jmp	.LBB5_32
.Ltmp269:
.LBB5_31:                               # %sw.default60
	callq	_KPushCDep
	movl	$2, %edi
	callq	_KWork
	movl	$statemate_stable, %edi
	movl	$1, %esi
	callq	_KStoreConst
	.loc	1 987 11                # statemate.c:987:11
.Ltmp270:
	movb	$0, statemate_stable(%rip)
	movl	$statemate_BLOCK_ERKENNUNG_CTRL_BLOCK_ERKENNUNG_CTRL_next_state, %edi
	movl	$1, %esi
	callq	_KStoreConst
	.loc	1 988 11                # statemate.c:988:11
	movb	$1, statemate_BLOCK_ERKENNUNG_CTRL_BLOCK_ERKENNUNG_CTRL_next_state(%rip)
	jmp	.LBB5_32
.Ltmp271:
.LBB5_17:                               # %if.end23
	cmpl	$2, %ebx
	jne	.LBB5_29
# BB#18:                                # %sw.bb26
	callq	_KPushCDep
	movl	$10, %edi
	callq	_KWork
	movl	$statemate_FH_TUERMODUL__I_EIN, %edi
	movl	$14, %esi
	movl	$4, %edx
	callq	_KLoad0
	.loc	1 937 24                # statemate.c:937:24
.Ltmp272:
	movl	statemate_FH_TUERMODUL__I_EIN(%rip), %r14d
	movl	$statemate_BLOCK_ERKENNUNG_CTRL__I_EIN_MAX, %edi
	movl	$15, %esi
	movl	$4, %edx
	callq	_KLoad0
	.loc	1 938 26                # statemate.c:938:26
	movl	statemate_BLOCK_ERKENNUNG_CTRL__I_EIN_MAX(%rip), %ebx
	addl	$-2, %ebx
	movl	$2, 64(%rsp)
	movl	$15, 56(%rsp)
	movl	$1, 48(%rsp)
	movl	$14, 40(%rsp)
	movl	$2, 32(%rsp)
	movl	$13, 24(%rsp)
	movl	$3, 16(%rsp)
	movl	$11, 8(%rsp)
	movl	$4, (%rsp)
	movl	$38, %edi
	movl	$4, %esi
	movl	$5, %edx
	movl	$5, %ecx
	movl	$4, %r8d
	movl	$9, %r9d
	callq	_KTimestamp7
	callq	_KPopCDep
.Ltmp273:
	.loc	1 937 22                # statemate.c:937:22
	cmpl	%ebx, %r14d
	jle	.LBB5_33
# BB#19:                                # %if.then29
	movl	$38, %edi
	callq	_KPushCDep
	movl	$statemate_stable, %edi
	movl	$1, %esi
	callq	_KStoreConst
	movl	$3, %edi
	callq	_KWork
	.loc	1 939 19                # statemate.c:939:19
.Ltmp274:
	movb	$0, statemate_stable(%rip)
	movl	$statemate_FH_TUERMODUL__BLOCK_copy, %edi
	movl	$1, %esi
	callq	_KStoreConst
	.loc	1 940 19                # statemate.c:940:19
	movb	$1, statemate_FH_TUERMODUL__BLOCK_copy(%rip)
	movl	$statemate_BEWEGUNG_BLOCK_ERKENNUNG_CTRL_next_state, %edi
	movl	$1, %esi
	callq	_KStoreConst
	.loc	1 942 19                # statemate.c:942:19
	movb	$1, statemate_BEWEGUNG_BLOCK_ERKENNUNG_CTRL_next_state(%rip)
	jmp	.LBB5_32
.Ltmp275:
.LBB5_23:                               # %if.end38
	movl	$5, %edi
	callq	_KWork
	movl	$statemate_BEWEGUNG_BLOCK_ERKENNUNG_CTRL_next_state, %edi
	movl	$18, %esi
	movl	$1, %edx
	callq	_KLoad0
	.loc	1 958 22                # statemate.c:958:22
.Ltmp276:
	movzbl	statemate_BEWEGUNG_BLOCK_ERKENNUNG_CTRL_next_state(%rip), %ebx
	movl	$1, 88(%rsp)
	movl	$18, 80(%rsp)
	movl	$3, 72(%rsp)
	movl	$17, 64(%rsp)
	movl	$3, 56(%rsp)
	movl	$16, 48(%rsp)
	movl	$3, 40(%rsp)
	movl	$13, 32(%rsp)
	movl	$4, 24(%rsp)
	movl	$11, 16(%rsp)
	movl	$5, 8(%rsp)
	movl	$9, (%rsp)
	movl	$40, %edi
	movl	$8, %esi
	movl	$4, %edx
	movl	$6, %ecx
	movl	$5, %r8d
	movl	$5, %r9d
	xorl	%eax, %eax
	callq	_KTimestamp
	callq	_KPopCDep
	cmpl	$3, %ebx
	jne	.LBB5_33
# BB#24:                                # %if.then42
	movl	$40, %edi
	callq	_KPushCDep
	movl	$11, %edi
	callq	_KWork
	movl	$statemate_step, %edi
	movl	$19, %esi
	movl	$1, %edx
	callq	_KLoad0
	.loc	1 959 24                # statemate.c:959:24
.Ltmp277:
	movzbl	statemate_step(%rip), %r14d
	movl	$statemate_tm_entered_EINSCHALTSTROM_MESSEN_BLOCK_ERKENNUNG_CTRLch_BLOCK_ERKENNUNG_CTRL__N_copy, %edi
	movl	$20, %esi
	movl	$8, %edx
	callq	_KLoad0
	movq	statemate_tm_entered_EINSCHALTSTROM_MESSEN_BLOCK_ERKENNUNG_CTRLch_BLOCK_ERKENNUNG_CTRL__N_copy(%rip), %r15
	callq	_KPopCDep
	movl	$2, 120(%rsp)
	movl	$20, 112(%rsp)
	movl	$2, 104(%rsp)
	movl	$19, 96(%rsp)
	movl	$3, 88(%rsp)
	movl	$18, 80(%rsp)
	movl	$5, 72(%rsp)
	movl	$17, 64(%rsp)
	movl	$5, 56(%rsp)
	movl	$16, 48(%rsp)
	movl	$5, 40(%rsp)
	movl	$13, 32(%rsp)
	movl	$6, 24(%rsp)
	movl	$11, 16(%rsp)
	movl	$7, 8(%rsp)
	movl	$9, (%rsp)
	movl	$41, %edi
	movl	$10, %esi
	movl	$4, %edx
	movl	$8, %ecx
	movl	$5, %r8d
	movl	$7, %r9d
	xorl	%eax, %eax
	callq	_KTimestamp
	cmpl	$1, %r14d
	jne	.LBB5_33
# BB#25:                                # %if.then42
	testq	%r15, %r15
	je	.LBB5_33
# BB#26:                                # %land.lhs.true49
	movl	$41, %edi
	callq	_KPushCDep
	movl	$statemate_time, %edi
	movl	$21, %esi
	movl	$8, %edx
	callq	_KLoad0
	movl	$10, %edi
	callq	_KWork
	.loc	1 961 34                # statemate.c:961:34
.Ltmp278:
	movq	statemate_time(%rip), %r14
	movl	$statemate_tm_entered_EINSCHALTSTROM_MESSEN_BLOCK_ERKENNUNG_CTRLch_BLOCK_ERKENNUNG_CTRL__N_copy, %edi
	movl	$22, %esi
	movl	$8, %edx
	callq	_KLoad0
	subq	statemate_tm_entered_EINSCHALTSTROM_MESSEN_BLOCK_ERKENNUNG_CTRLch_BLOCK_ERKENNUNG_CTRL__N_copy(%rip), %r14
	callq	_KPopCDep
	movl	$2, 152(%rsp)
	movl	$22, 144(%rsp)
	movl	$2, 136(%rsp)
	movl	$21, 128(%rsp)
	movl	$4, 120(%rsp)
	movl	$20, 112(%rsp)
	movl	$4, 104(%rsp)
	movl	$19, 96(%rsp)
	movl	$5, 88(%rsp)
	movl	$18, 80(%rsp)
	movl	$7, 72(%rsp)
	movl	$17, 64(%rsp)
	movl	$7, 56(%rsp)
	movl	$16, 48(%rsp)
	movl	$7, 40(%rsp)
	movl	$13, 32(%rsp)
	movl	$8, 24(%rsp)
	movl	$11, 16(%rsp)
	movl	$9, 8(%rsp)
	movl	$9, (%rsp)
	movl	$42, %edi
	movl	$12, %esi
	movl	$4, %edx
	movl	$10, %ecx
	movl	$5, %r8d
	movl	$9, %r9d
	xorl	%eax, %eax
	callq	_KTimestamp
.Ltmp279:
	.loc	1 959 24                # statemate.c:959:24
	cmpq	$2, %r14
	jne	.LBB5_33
# BB#27:                                # %if.then53
	movl	$42, %edi
	callq	_KPushCDep
	movl	$statemate_BLOCK_ERKENNUNG_CTRL__N, %edi
	movl	$23, %esi
	movl	$4, %edx
	callq	_KLoad0
	movl	$15, %edi
	callq	_KWork
	.loc	1 964 57                # statemate.c:964:57
.Ltmp280:
	movl	statemate_BLOCK_ERKENNUNG_CTRL__N(%rip), %r14d
	incl	%r14d
	movl	$1, 168(%rsp)
	movl	$23, 160(%rsp)
	movl	$3, 152(%rsp)
	movl	$22, 144(%rsp)
	movl	$3, 136(%rsp)
	movl	$21, 128(%rsp)
	movl	$5, 120(%rsp)
	movl	$20, 112(%rsp)
	movl	$5, 104(%rsp)
	movl	$19, 96(%rsp)
	movl	$6, 88(%rsp)
	movl	$18, 80(%rsp)
	movl	$8, 72(%rsp)
	movl	$17, 64(%rsp)
	movl	$8, 56(%rsp)
	movl	$16, 48(%rsp)
	movl	$8, 40(%rsp)
	movl	$13, 32(%rsp)
	movl	$9, 24(%rsp)
	movl	$11, 16(%rsp)
	movl	$10, 8(%rsp)
	movl	$9, (%rsp)
	movl	$24, %edi
	movl	$13, %esi
	movl	$4, %edx
	movl	$11, %ecx
	movl	$5, %r8d
	movl	$10, %r9d
	xorl	%eax, %eax
	callq	_KTimestamp
	movl	$24, %edi
	movl	$statemate_BLOCK_ERKENNUNG_CTRL__N, %esi
	movl	$4, %edx
	callq	_KStore
	.loc	1 964 21 is_stmt 0      # statemate.c:964:21
	movl	%r14d, statemate_BLOCK_ERKENNUNG_CTRL__N(%rip)
	movl	$statemate_FH_TUERMODUL__I_EIN, %edi
	movl	$25, %esi
	movl	$4, %edx
	callq	_KLoad0
	.loc	1 965 28 is_stmt 1      # statemate.c:965:28
.Ltmp281:
	movl	statemate_FH_TUERMODUL__I_EIN(%rip), %r14d
	movl	$statemate_BLOCK_ERKENNUNG_CTRL__I_EIN_MAX, %edi
	movl	$26, %esi
	movl	$4, %edx
	callq	_KLoad0
.Ltmp282:
	.loc	1 965 26 is_stmt 0      # statemate.c:965:26
	movl	statemate_BLOCK_ERKENNUNG_CTRL__I_EIN_MAX(%rip), %r15d
	callq	_KPopCDep
	movl	$1, 184(%rsp)
	movl	$26, 176(%rsp)
	movl	$1, 168(%rsp)
	movl	$25, 160(%rsp)
	movl	$3, 152(%rsp)
	movl	$22, 144(%rsp)
	movl	$3, 136(%rsp)
	movl	$21, 128(%rsp)
	movl	$5, 120(%rsp)
	movl	$20, 112(%rsp)
	movl	$5, 104(%rsp)
	movl	$19, 96(%rsp)
	movl	$6, 88(%rsp)
	movl	$18, 80(%rsp)
	movl	$8, 72(%rsp)
	movl	$17, 64(%rsp)
	movl	$8, 56(%rsp)
	movl	$16, 48(%rsp)
	movl	$8, 40(%rsp)
	movl	$13, 32(%rsp)
	movl	$9, 24(%rsp)
	movl	$11, 16(%rsp)
	movl	$10, 8(%rsp)
	movl	$9, (%rsp)
	movl	$43, %edi
	movl	$14, %esi
	movl	$4, %edx
	movl	$11, %ecx
	movl	$5, %r8d
	movl	$10, %r9d
	xorl	%eax, %eax
	callq	_KTimestamp
	cmpl	%r15d, %r14d
	jle	.LBB5_33
# BB#28:                                # %if.then56
	movl	$43, %edi
	callq	_KPushCDep
	movl	$5, %edi
	callq	_KWork
	movl	$statemate_FH_TUERMODUL__I_EIN, %edi
	movl	$27, %esi
	movl	$4, %edx
	callq	_KLoad0
	.loc	1 967 67 is_stmt 1      # statemate.c:967:67
.Ltmp283:
	movl	statemate_FH_TUERMODUL__I_EIN(%rip), %ebx
	movl	$27, %edi
	movl	$27, %esi
	xorl	%edx, %edx
	callq	_KTimestamp1
	movl	$27, %edi
	movl	$statemate_BLOCK_ERKENNUNG_CTRL__I_EIN_MAX, %esi
	movl	$4, %edx
	callq	_KStore
	.loc	1 967 23 is_stmt 0      # statemate.c:967:23
	movl	%ebx, statemate_BLOCK_ERKENNUNG_CTRL__I_EIN_MAX(%rip)
	jmp	.LBB5_32
.Ltmp284:
.LBB5_29:                               # %sw.default
	callq	_KPushCDep
	movl	$statemate_stable, %edi
	movl	$1, %esi
	callq	_KStoreConst
	movl	$5, %edi
	callq	_KWork
	.loc	1 975 17 is_stmt 1      # statemate.c:975:17
.Ltmp285:
	movb	$0, statemate_stable(%rip)
.LBB5_30:                               # %if.end62
	movl	$statemate_BLOCK_ERKENNUNG_CTRL__N, %edi
	movl	$4, %esi
	callq	_KStoreConst
	.loc	1 976 17                # statemate.c:976:17
	movl	$0, statemate_BLOCK_ERKENNUNG_CTRL__N(%rip)
	movl	$statemate_BLOCK_ERKENNUNG_CTRL__I_EIN_MAX, %edi
	movl	$4, %esi
	callq	_KStoreConst
	.loc	1 977 17                # statemate.c:977:17
	movl	$2, statemate_BLOCK_ERKENNUNG_CTRL__I_EIN_MAX(%rip)
	movl	$statemate_BEWEGUNG_BLOCK_ERKENNUNG_CTRL_next_state, %edi
	movl	$1, %esi
	callq	_KStoreConst
	.loc	1 978 17                # statemate.c:978:17
	movb	$3, statemate_BEWEGUNG_BLOCK_ERKENNUNG_CTRL_next_state(%rip)
	movl	$statemate_bitlist, %edi
	movl	$1, %esi
	callq	_KStoreConst
	.loc	1 979 17                # statemate.c:979:17
	movb	$1, statemate_bitlist(%rip)
.Ltmp286:
.LBB5_32:                               # %if.end62
	callq	_KPopCDep
.LBB5_33:                               # %if.end62
	xorl	%esi, %esi
	movq	%r12, %rdi
	addq	$192, %rsp
	popq	%rbx
	popq	%r12
	popq	%r14
	popq	%r15
	popq	%rbp
	jmp	_KExitRegion            # TAILCALL
.Ltmp287:
	.size	statemate_generic_BLOCK_ERKENNUNG_CTRL, .Ltmp287-statemate_generic_BLOCK_ERKENNUNG_CTRL
.Lfunc_end5:
	.cfi_endproc

	.globl	statemate_FH_DU
	.align	16, 0x90
	.type	statemate_FH_DU,@function
statemate_FH_DU:                        # @statemate_FH_DU
.Lfunc_begin6:
	.loc	1 997 0                 # statemate.c:997:0
	.cfi_startproc
# BB#0:                                 # %entry
	pushq	%rbp
.Ltmp288:
	.cfi_def_cfa_offset 16
.Ltmp289:
	.cfi_offset %rbp, -16
	movq	%rsp, %rbp
.Ltmp290:
	.cfi_def_cfa_register %rbp
	pushq	%r15
	pushq	%r14
	pushq	%r13
	pushq	%r12
	pushq	%rbx
	subq	$56, %rsp
.Ltmp291:
	.cfi_offset %rbx, -56
.Ltmp292:
	.cfi_offset %r12, -48
.Ltmp293:
	.cfi_offset %r13, -40
.Ltmp294:
	.cfi_offset %r14, -32
.Ltmp295:
	.cfi_offset %r15, -24
	movabsq	$-5697918106437472821, %rdi # imm = 0xB0ECEDABCA872DCB
	movabsq	$-8725827471446488721, %rbx # imm = 0x86E7A2256916496F
	xorl	%esi, %esi
	callq	_KEnterRegion
	movl	$152, %edi
	movl	$2, %esi
	callq	_KPrepRTable
	movl	$3, %edi
	callq	_KWork
	movl	$statemate_time, %edi
	movl	$8, %esi
	callq	_KStoreConst
	.loc	1 998 3 prologue_end    # statemate.c:998:3
.Ltmp296:
	movq	$1, statemate_time(%rip)
	movl	$statemate_stable, %edi
	movl	$1, %esi
	callq	_KStoreConst
	.loc	1 999 3                 # statemate.c:999:3
	movb	$0, statemate_stable(%rip)
	movl	$statemate_step, %edi
	movl	$1, %esi
	callq	_KStoreConst
	.loc	1 1000 3                # statemate.c:1000:3
	movb	$0, statemate_step(%rip)
.Ltmp297:
	#DEBUG_VALUE: statemate_FH_DU:i <- 0
	movl	$4, %edi
	callq	_KInduction
	movl	$1, %esi
	movq	%rbx, %rdi
	callq	_KEnterRegion
	movl	$1, %edi
	callq	_KWork
	movl	$3, %edi
	movl	$4, %esi
	movl	$1, %edx
	callq	_KTimestamp1
	movl	$100, %r12d
	movabsq	$-7825285487355980586, %r14 # imm = 0x9367004F342094D6
	.align	16, 0x90
.LBB6_1:                                # %for.body
                                        # =>This Inner Loop Header: Depth=1
	#DEBUG_VALUE: statemate_FH_DU:i <- 0
	movl	$2, %esi
	movq	%r14, %rdi
	callq	_KEnterRegion
	movl	$3, %edi
	callq	_KPushCDep
	movl	$statemate_stable, %edi
	movl	$1, %esi
	callq	_KStoreConst
	movl	$11, %edi
	callq	_KWork
	.loc	1 1006 5                # statemate.c:1006:5
.Ltmp298:
	movb	$1, statemate_stable(%rip)
	movl	$statemate_step, %edi
	movl	$1, %esi
	movl	$1, %edx
	callq	_KLoad0
	.loc	1 1007 5                # statemate.c:1007:5
	movb	statemate_step(%rip), %bl
	incb	%bl
	movl	$2, %edi
	movl	$3, %esi
	movl	$1, %edx
	movl	$1, %ecx
	movl	$1, %r8d
	callq	_KTimestamp2
	movl	$2, %edi
	movl	$statemate_step, %esi
	movl	$1, %edx
	callq	_KStore
	movb	%bl, statemate_step(%rip)
	movl	$statemate_FH_STEUERUNG_DUMMY_FH_STEUERUNG_DUMMY_next_state, %edi
	movl	$5, %esi
	movl	$1, %edx
	callq	_KLoad0
	.loc	1 1009 16               # statemate.c:1009:16
.Ltmp299:
	movsbl	statemate_FH_STEUERUNG_DUMMY_FH_STEUERUNG_DUMMY_next_state(%rip), %ebx
	callq	_KPopCDep
	movl	$137, %edi
	movl	$3, %esi
	xorl	%edx, %edx
	movl	$5, %ecx
	xorl	%r8d, %r8d
	callq	_KTimestamp2
	#DEBUG_VALUE: statemate_FH_DU:i <- 0
	movl	$137, %edi
	.loc	1 1009 7 is_stmt 0      # statemate.c:1009:7
	cmpl	$3, %ebx
	je	.LBB6_14
# BB#2:                                 # %for.body
                                        #   in Loop: Header=BB6_1 Depth=1
	cmpl	$2, %ebx
	jne	.LBB6_3
# BB#8:                                 # %sw.bb3
                                        #   in Loop: Header=BB6_1 Depth=1
	callq	_KPushCDep
	movl	$11, %edi
	callq	_KWork
	movl	$statemate_FH_DU__MFHZ, %edi
	movl	$8, %esi
	movl	$1, %edx
	callq	_KLoad0
	.loc	1 1021 18 is_stmt 1     # statemate.c:1021:18
.Ltmp300:
	movb	statemate_FH_DU__MFHZ(%rip), %bl
	movl	$statemate_FH_DU__MFHZ_old, %edi
	movl	$9, %esi
	movl	$1, %edx
	callq	_KLoad0
	movb	statemate_FH_DU__MFHZ_old(%rip), %r13b
	movl	$2, 16(%rsp)
	movl	$9, 8(%rsp)
	movl	$2, (%rsp)
	movl	$140, %edi
	movl	$3, %esi
	movl	$2, %edx
	movl	$5, %ecx
	movl	$2, %r8d
	movl	$8, %r9d
	callq	_KTimestamp4
	callq	_KPopCDep
	movl	$140, %edi
	callq	_KPushCDep
	cmpb	$0, %bl
	je	.LBB6_11
# BB#9:                                 # %sw.bb3
                                        #   in Loop: Header=BB6_1 Depth=1
	#DEBUG_VALUE: statemate_FH_DU:i <- 0
	testb	%r13b, %r13b
	jne	.LBB6_11
# BB#10:                                # %if.then8
                                        #   in Loop: Header=BB6_1 Depth=1
	#DEBUG_VALUE: statemate_FH_DU:i <- 0
	movl	$statemate_stable, %edi
	movl	$1, %esi
	callq	_KStoreConst
	movl	$3, %edi
	callq	_KWork
	.loc	1 1022 15               # statemate.c:1022:15
.Ltmp301:
	movb	$0, statemate_stable(%rip)
	movl	$statemate_FH_DU__MFH, %edi
	movl	$4, %esi
	callq	_KStoreConst
	.loc	1 1023 15               # statemate.c:1023:15
	movl	$-100, statemate_FH_DU__MFH(%rip)
	movl	$statemate_FH_STEUERUNG_DUMMY_FH_STEUERUNG_DUMMY_next_state, %edi
	movl	$1, %esi
	callq	_KStoreConst
	.loc	1 1025 15               # statemate.c:1025:15
	movb	$1, statemate_FH_STEUERUNG_DUMMY_FH_STEUERUNG_DUMMY_next_state(%rip)
	jmp	.LBB6_18
.Ltmp302:
	.align	16, 0x90
.LBB6_14:                               # %sw.bb16
                                        #   in Loop: Header=BB6_1 Depth=1
	callq	_KPushCDep
	movl	$5, %edi
	callq	_KWork
	movl	$statemate_FH_DU__MFHA, %edi
	movl	$12, %esi
	movl	$1, %edx
	callq	_KLoad0
	.loc	1 1038 18               # statemate.c:1038:18
.Ltmp303:
	movb	statemate_FH_DU__MFHA(%rip), %bl
	movl	$1, (%rsp)
	movl	$142, %edi
	movl	$3, %esi
	movl	$1, %edx
	movl	$5, %ecx
	movl	$1, %r8d
	movl	$12, %r9d
	callq	_KTimestamp3
	callq	_KPopCDep
	cmpb	$0, %bl
	jne	.LBB6_19
# BB#15:                                # %land.lhs.true18
                                        #   in Loop: Header=BB6_1 Depth=1
	#DEBUG_VALUE: statemate_FH_DU:i <- 0
	movl	$142, %edi
	callq	_KPushCDep
	movl	$statemate_FH_DU__MFHA_old, %edi
	movl	$13, %esi
	movl	$1, %edx
	callq	_KLoad0
	movl	$5, %edi
	callq	_KWork
	movb	statemate_FH_DU__MFHA_old(%rip), %bl
	movl	$1, 16(%rsp)
	movl	$13, 8(%rsp)
	movl	$2, (%rsp)
	movl	$143, %edi
	movl	$3, %esi
	movl	$2, %edx
	movl	$5, %ecx
	movl	$2, %r8d
	movl	$12, %r9d
	callq	_KTimestamp4
	callq	_KPopCDep
	cmpb	$0, %bl
	je	.LBB6_19
.Ltmp304:
# BB#16:                                # %if.then21
                                        #   in Loop: Header=BB6_1 Depth=1
	#DEBUG_VALUE: statemate_FH_DU:i <- 0
	movl	$143, %edi
	callq	_KPushCDep
	movl	$statemate_stable, %edi
	movl	$1, %esi
	callq	_KStoreConst
	movl	$3, %edi
	callq	_KWork
	jmp	.LBB6_17
	.align	16, 0x90
.LBB6_3:                                # %for.body
                                        #   in Loop: Header=BB6_1 Depth=1
	cmpl	$1, %ebx
	jne	.LBB6_7
# BB#4:                                 # %sw.bb
                                        #   in Loop: Header=BB6_1 Depth=1
	callq	_KPushCDep
	movl	$5, %edi
	callq	_KWork
	movl	$statemate_FH_DU__MFHZ, %edi
	movl	$6, %esi
	movl	$1, %edx
	callq	_KLoad0
	.loc	1 1011 18               # statemate.c:1011:18
.Ltmp305:
	movb	statemate_FH_DU__MFHZ(%rip), %bl
	movl	$1, (%rsp)
	movl	$138, %edi
	movl	$3, %esi
	movl	$1, %edx
	movl	$5, %ecx
	movl	$1, %r8d
	movl	$6, %r9d
	callq	_KTimestamp3
	callq	_KPopCDep
	cmpb	$0, %bl
	jne	.LBB6_19
# BB#5:                                 # %land.lhs.true
                                        #   in Loop: Header=BB6_1 Depth=1
	#DEBUG_VALUE: statemate_FH_DU:i <- 0
	movl	$138, %edi
	callq	_KPushCDep
	movl	$statemate_FH_DU__MFHZ_old, %edi
	movl	$7, %esi
	movl	$1, %edx
	callq	_KLoad0
	movl	$5, %edi
	callq	_KWork
	movb	statemate_FH_DU__MFHZ_old(%rip), %bl
	movl	$1, 16(%rsp)
	movl	$7, 8(%rsp)
	movl	$2, (%rsp)
	movl	$139, %edi
	movl	$3, %esi
	movl	$2, %edx
	movl	$5, %ecx
	movl	$2, %r8d
	movl	$6, %r9d
	callq	_KTimestamp4
	callq	_KPopCDep
	cmpb	$0, %bl
	je	.LBB6_19
.Ltmp306:
# BB#6:                                 # %if.then
                                        #   in Loop: Header=BB6_1 Depth=1
	#DEBUG_VALUE: statemate_FH_DU:i <- 0
	movl	$139, %edi
	.align	16, 0x90
.LBB6_7:                                # %sw.epilog
                                        #   in Loop: Header=BB6_1 Depth=1
	callq	_KPushCDep
	movl	$3, %edi
	callq	_KWork
	movl	$statemate_stable, %edi
	movl	$1, %esi
	callq	_KStoreConst
.LBB6_17:                               # %sw.epilog
                                        #   in Loop: Header=BB6_1 Depth=1
	.loc	1 1048 13               # statemate.c:1048:13
.Ltmp307:
	movb	$0, statemate_stable(%rip)
	movl	$statemate_FH_DU__MFH, %edi
	movl	$4, %esi
	callq	_KStoreConst
	.loc	1 1049 13               # statemate.c:1049:13
	movl	$0, statemate_FH_DU__MFH(%rip)
	movl	$statemate_FH_STEUERUNG_DUMMY_FH_STEUERUNG_DUMMY_next_state, %edi
	movl	$1, %esi
	callq	_KStoreConst
	.loc	1 1050 13               # statemate.c:1050:13
	movb	$2, statemate_FH_STEUERUNG_DUMMY_FH_STEUERUNG_DUMMY_next_state(%rip)
	jmp	.LBB6_18
.Ltmp308:
.LBB6_11:                               # %if.end9
                                        #   in Loop: Header=BB6_1 Depth=1
	#DEBUG_VALUE: statemate_FH_DU:i <- 0
	movl	$statemate_FH_DU__MFHA, %edi
	movl	$10, %esi
	movl	$1, %edx
	callq	_KLoad0
	movl	$11, %edi
	callq	_KWork
	.loc	1 1028 18               # statemate.c:1028:18
.Ltmp309:
	movb	statemate_FH_DU__MFHA(%rip), %bl
	movl	$statemate_FH_DU__MFHA_old, %edi
	movl	$11, %esi
	movl	$1, %edx
	callq	_KLoad0
	movb	statemate_FH_DU__MFHA_old(%rip), %r13b
	movl	$2, 48(%rsp)
	movl	$11, 40(%rsp)
	movl	$2, 32(%rsp)
	movl	$10, 24(%rsp)
	movl	$4, 16(%rsp)
	movl	$9, 8(%rsp)
	movl	$4, (%rsp)
	movl	$141, %edi
	movl	$3, %esi
	movl	$4, %edx
	movl	$5, %ecx
	movl	$4, %r8d
	movl	$8, %r9d
	callq	_KTimestamp6
	callq	_KPopCDep
	cmpb	$0, %bl
	je	.LBB6_19
# BB#12:                                # %if.end9
                                        #   in Loop: Header=BB6_1 Depth=1
	#DEBUG_VALUE: statemate_FH_DU:i <- 0
	testb	%r13b, %r13b
	jne	.LBB6_19
# BB#13:                                # %if.then14
                                        #   in Loop: Header=BB6_1 Depth=1
	#DEBUG_VALUE: statemate_FH_DU:i <- 0
	movl	$141, %edi
	callq	_KPushCDep
	movl	$3, %edi
	callq	_KWork
	movl	$statemate_stable, %edi
	movl	$1, %esi
	callq	_KStoreConst
	.loc	1 1029 15               # statemate.c:1029:15
.Ltmp310:
	movb	$0, statemate_stable(%rip)
	movl	$statemate_FH_DU__MFH, %edi
	movl	$4, %esi
	callq	_KStoreConst
	.loc	1 1030 15               # statemate.c:1030:15
	movl	$100, statemate_FH_DU__MFH(%rip)
	movl	$statemate_FH_STEUERUNG_DUMMY_FH_STEUERUNG_DUMMY_next_state, %edi
	movl	$1, %esi
	callq	_KStoreConst
	.loc	1 1032 15               # statemate.c:1032:15
	movb	$3, statemate_FH_STEUERUNG_DUMMY_FH_STEUERUNG_DUMMY_next_state(%rip)
.Ltmp311:
	.align	16, 0x90
.LBB6_18:                               # %sw.epilog
                                        #   in Loop: Header=BB6_1 Depth=1
	callq	_KPopCDep
.LBB6_19:                               # %sw.epilog
                                        #   in Loop: Header=BB6_1 Depth=1
	#DEBUG_VALUE: statemate_FH_DU:i <- 0
	movl	$3, %edi
	callq	_KPushCDep
	movl	$5, %edi
	callq	_KWork
	movl	$statemate_bitlist+10, %edi
	movl	$14, %esi
	movl	$1, %edx
	callq	_KLoad0
	.loc	1 1057 14               # statemate.c:1057:14
.Ltmp312:
	movb	statemate_bitlist+10(%rip), %bl
	movl	$144, %edi
	movl	$3, %esi
	movl	$1, %edx
	movl	$14, %ecx
	movl	$1, %r8d
	callq	_KTimestamp2
	callq	_KPopCDep
	cmpb	$0, %bl
	jne	.LBB6_21
# BB#20:                                # %if.then24
                                        #   in Loop: Header=BB6_1 Depth=1
	#DEBUG_VALUE: statemate_FH_DU:i <- 0
	movl	$144, %edi
	callq	_KPushCDep
	movl	$statemate_KINDERSICHERUNG_CTRL_KINDERSICHERUNG_CTRL_next_state, %edi
	movl	$1, %esi
	callq	_KStoreConst
	movl	$1, %edi
	callq	_KWork
	.loc	1 1058 11               # statemate.c:1058:11
.Ltmp313:
	movb	$3, statemate_KINDERSICHERUNG_CTRL_KINDERSICHERUNG_CTRL_next_state(%rip)
	callq	_KPopCDep
.Ltmp314:
.LBB6_21:                               # %if.end25
                                        #   in Loop: Header=BB6_1 Depth=1
	#DEBUG_VALUE: statemate_FH_DU:i <- 0
	movl	$3, %edi
	callq	_KPushCDep
	movl	$6, %edi
	callq	_KWork
	movl	$statemate_bitlist+11, %edi
	movl	$1, %esi
	callq	_KStoreConst
	.loc	1 1059 9                # statemate.c:1059:9
	movb	$0, statemate_bitlist+11(%rip)
	movl	$statemate_bitlist+16, %edi
	movl	$15, %esi
	movl	$1, %edx
	callq	_KLoad0
	.loc	1 1060 14               # statemate.c:1060:14
	movb	statemate_bitlist+16(%rip), %bl
	movl	$145, %edi
	movl	$3, %esi
	movl	$1, %edx
	movl	$15, %ecx
	movl	$1, %r8d
	callq	_KTimestamp2
	callq	_KPopCDep
	cmpb	$0, %bl
	jne	.LBB6_23
# BB#22:                                # %if.then27
                                        #   in Loop: Header=BB6_1 Depth=1
	#DEBUG_VALUE: statemate_FH_DU:i <- 0
	movl	$145, %edi
	callq	_KPushCDep
	movl	$statemate_EINKLEMMSCHUTZ_CTRL_EINKLEMMSCHUTZ_CTRL_next_state, %edi
	movl	$1, %esi
	callq	_KStoreConst
	movl	$1, %edi
	callq	_KWork
	.loc	1 1061 11               # statemate.c:1061:11
.Ltmp315:
	movb	$1, statemate_EINKLEMMSCHUTZ_CTRL_EINKLEMMSCHUTZ_CTRL_next_state(%rip)
	callq	_KPopCDep
.Ltmp316:
.LBB6_23:                               # %if.end28
                                        #   in Loop: Header=BB6_1 Depth=1
	#DEBUG_VALUE: statemate_FH_DU:i <- 0
	movl	$3, %edi
	callq	_KPushCDep
	movl	$statemate_bitlist+17, %edi
	movl	$1, %esi
	callq	_KStoreConst
	movl	$6, %edi
	callq	_KWork
	.loc	1 1062 9                # statemate.c:1062:9
	movb	$0, statemate_bitlist+17(%rip)
	movl	$statemate_bitlist+19, %edi
	movl	$16, %esi
	movl	$1, %edx
	callq	_KLoad0
	.loc	1 1063 14               # statemate.c:1063:14
	movb	statemate_bitlist+19(%rip), %bl
	movl	$146, %edi
	movl	$3, %esi
	movl	$1, %edx
	movl	$16, %ecx
	movl	$1, %r8d
	callq	_KTimestamp2
	callq	_KPopCDep
	cmpb	$0, %bl
	jne	.LBB6_25
# BB#24:                                # %if.then30
                                        #   in Loop: Header=BB6_1 Depth=1
	#DEBUG_VALUE: statemate_FH_DU:i <- 0
	movl	$146, %edi
	callq	_KPushCDep
	movl	$statemate_bitlist, %edi
	movl	$1, %esi
	callq	_KStoreConst
	movl	$2, %edi
	callq	_KWork
	.loc	1 1064 11               # statemate.c:1064:11
.Ltmp317:
	movb	$0, statemate_bitlist(%rip)
	movl	$statemate_BLOCK_ERKENNUNG_CTRL_BLOCK_ERKENNUNG_CTRL_next_state, %edi
	movl	$1, %esi
	callq	_KStoreConst
	.loc	1 1066 11               # statemate.c:1066:11
	movb	$1, statemate_BLOCK_ERKENNUNG_CTRL_BLOCK_ERKENNUNG_CTRL_next_state(%rip)
	callq	_KPopCDep
.Ltmp318:
.LBB6_25:                               # %if.end31
                                        #   in Loop: Header=BB6_1 Depth=1
	#DEBUG_VALUE: statemate_FH_DU:i <- 0
	movl	$3, %edi
	callq	_KPushCDep
	movl	$6, %edi
	callq	_KWork
	movl	$statemate_bitlist+20, %edi
	movl	$1, %esi
	callq	_KStoreConst
	.loc	1 1068 9                # statemate.c:1068:9
	movb	$0, statemate_bitlist+20(%rip)
	movl	$statemate_bitlist+13, %edi
	movl	$17, %esi
	movl	$1, %edx
	callq	_KLoad0
	.loc	1 1069 14               # statemate.c:1069:14
	movb	statemate_bitlist+13(%rip), %bl
	movl	$147, %edi
	movl	$3, %esi
	movl	$1, %edx
	movl	$17, %ecx
	movl	$1, %r8d
	callq	_KTimestamp2
	callq	_KPopCDep
	cmpb	$0, %bl
	jne	.LBB6_27
# BB#26:                                # %if.then33
                                        #   in Loop: Header=BB6_1 Depth=1
	#DEBUG_VALUE: statemate_FH_DU:i <- 0
	movl	$147, %edi
	callq	_KPushCDep
	movl	$7, %edi
	callq	_KWork
	movl	$statemate_bitlist+4, %edi
	movl	$1, %esi
	callq	_KStoreConst
	.loc	1 1070 11               # statemate.c:1070:11
.Ltmp319:
	movb	$0, statemate_bitlist+4(%rip)
	movl	$statemate_bitlist+6, %edi
	movl	$1, %esi
	callq	_KStoreConst
	.loc	1 1071 11               # statemate.c:1071:11
	movb	$0, statemate_bitlist+6(%rip)
	movl	$statemate_B_FH_TUERMODUL_CTRL_next_state, %edi
	movl	$1, %esi
	callq	_KStoreConst
	.loc	1 1072 11               # statemate.c:1072:11
	movb	$2, statemate_B_FH_TUERMODUL_CTRL_next_state(%rip)
	movl	$statemate_FH_TUERMODUL_CTRL__N, %edi
	movl	$4, %esi
	callq	_KStoreConst
	.loc	1 1073 11               # statemate.c:1073:11
	movl	$0, statemate_FH_TUERMODUL_CTRL__N(%rip)
	movl	$statemate_A_FH_TUERMODUL_CTRL_next_state, %edi
	movl	$1, %esi
	callq	_KStoreConst
	.loc	1 1074 11               # statemate.c:1074:11
	movb	$1, statemate_A_FH_TUERMODUL_CTRL_next_state(%rip)
	movl	$statemate_bitlist+5, %edi
	movl	$1, %esi
	callq	_KStoreConst
	.loc	1 1075 11               # statemate.c:1075:11
	movb	$1, statemate_bitlist+5(%rip)
	movl	$statemate_WIEDERHOLSPERRE_FH_TUERMODUL_CTRL_next_state, %edi
	movl	$1, %esi
	callq	_KStoreConst
	.loc	1 1077 11               # statemate.c:1077:11
	movb	$1, statemate_WIEDERHOLSPERRE_FH_TUERMODUL_CTRL_next_state(%rip)
	callq	_KPopCDep
.Ltmp320:
.LBB6_27:                               # %if.end34
                                        #   in Loop: Header=BB6_1 Depth=1
	#DEBUG_VALUE: statemate_FH_DU:i <- 0
	movl	$3, %edi
	callq	_KPushCDep
	movl	$20, %edi
	callq	_KWork
	movl	$statemate_bitlist+14, %edi
	movl	$1, %esi
	callq	_KStoreConst
	.loc	1 1079 9                # statemate.c:1079:9
	movb	$0, statemate_bitlist+14(%rip)
	movl	$statemate_bitlist+11, %edi
	movl	$1, %esi
	callq	_KStoreConst
	.loc	1 1080 9                # statemate.c:1080:9
	movb	$1, statemate_bitlist+11(%rip)
	movl	$statemate_bitlist+17, %edi
	movl	$1, %esi
	callq	_KStoreConst
	.loc	1 1081 9                # statemate.c:1081:9
	movb	$1, statemate_bitlist+17(%rip)
	movl	$statemate_bitlist+20, %edi
	movl	$1, %esi
	callq	_KStoreConst
	.loc	1 1082 9                # statemate.c:1082:9
	movb	$1, statemate_bitlist+20(%rip)
	movl	$statemate_bitlist+14, %edi
	movl	$1, %esi
	callq	_KStoreConst
	.loc	1 1083 9                # statemate.c:1083:9
	movb	$1, statemate_bitlist+14(%rip)
	movl	$statemate_FH_DU__S_FH_TMBFZUCAN, %edi
	movl	$18, %esi
	movl	$1, %edx
	callq	_KLoad0
	.loc	1 1085 14               # statemate.c:1085:14
.Ltmp321:
	movzbl	statemate_FH_DU__S_FH_TMBFZUCAN(%rip), %r13d
	movl	$statemate_FH_DU__S_FH_TMBFZUCAN_old, %edi
	movl	$19, %esi
	movl	$1, %edx
	callq	_KLoad0
	movzbl	statemate_FH_DU__S_FH_TMBFZUCAN_old(%rip), %r15d
	movl	$statemate_FH_DU__DOOR_ID, %edi
	movl	$20, %esi
	movl	$1, %edx
	callq	_KLoad0
	movb	statemate_FH_DU__DOOR_ID(%rip), %bl
	movl	$2, 16(%rsp)
	movl	$20, 8(%rsp)
	movl	$2, (%rsp)
	movl	$148, %edi
	movl	$3, %esi
	movl	$2, %edx
	movl	$18, %ecx
	movl	$2, %r8d
	movl	$19, %r9d
	callq	_KTimestamp4
	callq	_KPopCDep
	cmpl	%r15d, %r13d
	je	.LBB6_30
# BB#28:                                # %if.end34
                                        #   in Loop: Header=BB6_1 Depth=1
	#DEBUG_VALUE: statemate_FH_DU:i <- 0
	testb	%bl, %bl
	jne	.LBB6_30
# BB#29:                                # %if.then41
                                        #   in Loop: Header=BB6_1 Depth=1
	#DEBUG_VALUE: statemate_FH_DU:i <- 0
	movl	$148, %edi
	callq	_KPushCDep
	movl	$statemate_FH_DU__S_FH_TMBFZUCAN, %edi
	movl	$21, %esi
	movl	$1, %edx
	callq	_KLoad0
	movl	$5, %edi
	callq	_KWork
	.loc	1 1087 42               # statemate.c:1087:42
.Ltmp322:
	movb	statemate_FH_DU__S_FH_TMBFZUCAN(%rip), %bl
	movl	$21, %edi
	movl	$21, %esi
	xorl	%edx, %edx
	callq	_KTimestamp1
	movl	$21, %edi
	movl	$statemate_FH_DU__S_FH_FTZU, %esi
	movl	$1, %edx
	callq	_KStore
	.loc	1 1087 13 is_stmt 0     # statemate.c:1087:13
	movb	%bl, statemate_FH_DU__S_FH_FTZU(%rip)
	callq	_KPopCDep
.Ltmp323:
.LBB6_30:                               # %if.end43
                                        #   in Loop: Header=BB6_1 Depth=1
	#DEBUG_VALUE: statemate_FH_DU:i <- 0
	movl	$3, %edi
	callq	_KPushCDep
	movl	$statemate_FH_DU__S_FH_TMBFZUDISC, %edi
	movl	$22, %esi
	movl	$1, %edx
	callq	_KLoad0
	movl	$15, %edi
	callq	_KWork
	.loc	1 1090 14 is_stmt 1     # statemate.c:1090:14
	movzbl	statemate_FH_DU__S_FH_TMBFZUDISC(%rip), %r15d
	movl	$statemate_FH_DU__S_FH_TMBFZUDISC_old, %edi
	movl	$23, %esi
	movl	$1, %edx
	callq	_KLoad0
	movzbl	statemate_FH_DU__S_FH_TMBFZUDISC_old(%rip), %ebx
	movl	$statemate_FH_DU__DOOR_ID, %edi
	movl	$24, %esi
	movl	$1, %edx
	callq	_KLoad0
	movb	statemate_FH_DU__DOOR_ID(%rip), %r13b
	movl	$2, 16(%rsp)
	movl	$24, 8(%rsp)
	movl	$2, (%rsp)
	movl	$149, %edi
	movl	$3, %esi
	movl	$2, %edx
	movl	$22, %ecx
	movl	$2, %r8d
	movl	$23, %r9d
	callq	_KTimestamp4
	callq	_KPopCDep
	cmpl	%ebx, %r15d
	je	.LBB6_33
# BB#31:                                # %if.end43
                                        #   in Loop: Header=BB6_1 Depth=1
	#DEBUG_VALUE: statemate_FH_DU:i <- 0
	testb	%r13b, %r13b
	je	.LBB6_33
# BB#32:                                # %if.then50
                                        #   in Loop: Header=BB6_1 Depth=1
	#DEBUG_VALUE: statemate_FH_DU:i <- 0
	movl	$149, %edi
	callq	_KPushCDep
	movl	$statemate_FH_DU__S_FH_TMBFZUDISC, %edi
	movl	$25, %esi
	movl	$1, %edx
	callq	_KLoad0
	movl	$5, %edi
	callq	_KWork
	.loc	1 1093 47               # statemate.c:1093:47
.Ltmp324:
	movb	statemate_FH_DU__S_FH_TMBFZUDISC(%rip), %bl
	movl	$25, %edi
	movl	$25, %esi
	xorl	%edx, %edx
	callq	_KTimestamp1
	movl	$25, %edi
	movl	$statemate_FH_DU__S_FH_TMBFZUCAN, %esi
	movl	$1, %edx
	callq	_KStore
	.loc	1 1093 13 is_stmt 0     # statemate.c:1093:13
	movb	%bl, statemate_FH_DU__S_FH_TMBFZUCAN(%rip)
	callq	_KPopCDep
.Ltmp325:
.LBB6_33:                               # %if.end52
                                        #   in Loop: Header=BB6_1 Depth=1
	#DEBUG_VALUE: statemate_FH_DU:i <- 0
	movl	$3, %edi
	callq	_KPushCDep
	movl	$15, %edi
	callq	_KWork
	movl	$statemate_FH_DU__S_FH_TMBFAUFCAN, %edi
	movl	$26, %esi
	movl	$1, %edx
	callq	_KLoad0
	.loc	1 1096 14 is_stmt 1     # statemate.c:1096:14
.Ltmp326:
	movzbl	statemate_FH_DU__S_FH_TMBFAUFCAN(%rip), %r15d
	movl	$statemate_FH_DU__S_FH_TMBFAUFCAN_old, %edi
	movl	$27, %esi
	movl	$1, %edx
	callq	_KLoad0
	movzbl	statemate_FH_DU__S_FH_TMBFAUFCAN_old(%rip), %ebx
	movl	$statemate_FH_DU__DOOR_ID, %edi
	movl	$28, %esi
	movl	$1, %edx
	callq	_KLoad0
	movb	statemate_FH_DU__DOOR_ID(%rip), %r13b
	movl	$2, 16(%rsp)
	movl	$28, 8(%rsp)
	movl	$2, (%rsp)
	movl	$150, %edi
	movl	$3, %esi
	movl	$2, %edx
	movl	$26, %ecx
	movl	$2, %r8d
	movl	$27, %r9d
	callq	_KTimestamp4
	callq	_KPopCDep
	cmpl	%ebx, %r15d
	je	.LBB6_36
# BB#34:                                # %if.end52
                                        #   in Loop: Header=BB6_1 Depth=1
	#DEBUG_VALUE: statemate_FH_DU:i <- 0
	testb	%r13b, %r13b
	jne	.LBB6_36
# BB#35:                                # %if.then59
                                        #   in Loop: Header=BB6_1 Depth=1
	#DEBUG_VALUE: statemate_FH_DU:i <- 0
	movl	$150, %edi
	callq	_KPushCDep
	movl	$statemate_FH_DU__S_FH_TMBFAUFCAN, %edi
	movl	$29, %esi
	movl	$1, %edx
	callq	_KLoad0
	movl	$5, %edi
	callq	_KWork
	.loc	1 1099 43               # statemate.c:1099:43
.Ltmp327:
	movb	statemate_FH_DU__S_FH_TMBFAUFCAN(%rip), %bl
	movl	$29, %edi
	movl	$29, %esi
	xorl	%edx, %edx
	callq	_KTimestamp1
	movl	$29, %edi
	movl	$statemate_FH_DU__S_FH_FTAUF, %esi
	movl	$1, %edx
	callq	_KStore
	.loc	1 1099 13 is_stmt 0     # statemate.c:1099:13
	movb	%bl, statemate_FH_DU__S_FH_FTAUF(%rip)
	callq	_KPopCDep
.Ltmp328:
.LBB6_36:                               # %if.end61
                                        #   in Loop: Header=BB6_1 Depth=1
	#DEBUG_VALUE: statemate_FH_DU:i <- 0
	movl	$3, %edi
	callq	_KPushCDep
	movl	$15, %edi
	callq	_KWork
	movl	$statemate_FH_DU__S_FH_TMBFAUFDISC, %edi
	movl	$30, %esi
	movl	$1, %edx
	callq	_KLoad0
	.loc	1 1102 14 is_stmt 1     # statemate.c:1102:14
	movzbl	statemate_FH_DU__S_FH_TMBFAUFDISC(%rip), %r15d
	movl	$statemate_FH_DU__S_FH_TMBFAUFDISC_old, %edi
	movl	$31, %esi
	movl	$1, %edx
	callq	_KLoad0
	movzbl	statemate_FH_DU__S_FH_TMBFAUFDISC_old(%rip), %ebx
	movl	$statemate_FH_DU__DOOR_ID, %edi
	movl	$32, %esi
	movl	$1, %edx
	callq	_KLoad0
	movb	statemate_FH_DU__DOOR_ID(%rip), %r13b
	callq	_KPopCDep
	movl	$2, 16(%rsp)
	movl	$32, 8(%rsp)
	movl	$2, (%rsp)
	movl	$151, %edi
	movl	$3, %esi
	movl	$2, %edx
	movl	$30, %ecx
	movl	$2, %r8d
	movl	$31, %r9d
	callq	_KTimestamp4
	cmpl	%ebx, %r15d
	je	.LBB6_39
# BB#37:                                # %if.end61
                                        #   in Loop: Header=BB6_1 Depth=1
	#DEBUG_VALUE: statemate_FH_DU:i <- 0
	testb	%r13b, %r13b
	je	.LBB6_39
# BB#38:                                # %if.then68
                                        #   in Loop: Header=BB6_1 Depth=1
	#DEBUG_VALUE: statemate_FH_DU:i <- 0
	movl	$151, %edi
	callq	_KPushCDep
	movl	$statemate_FH_DU__S_FH_TMBFAUFDISC, %edi
	movl	$33, %esi
	movl	$1, %edx
	callq	_KLoad0
	movl	$5, %edi
	callq	_KWork
	.loc	1 1105 48               # statemate.c:1105:48
.Ltmp329:
	movb	statemate_FH_DU__S_FH_TMBFAUFDISC(%rip), %bl
	movl	$33, %edi
	movl	$33, %esi
	xorl	%edx, %edx
	callq	_KTimestamp1
	movl	$33, %edi
	movl	$statemate_FH_DU__S_FH_TMBFAUFCAN, %esi
	movl	$1, %edx
	callq	_KStore
	.loc	1 1105 13 is_stmt 0     # statemate.c:1105:13
	movb	%bl, statemate_FH_DU__S_FH_TMBFAUFCAN(%rip)
	callq	_KPopCDep
.Ltmp330:
.LBB6_39:                               # %if.end70
                                        #   in Loop: Header=BB6_1 Depth=1
	#DEBUG_VALUE: statemate_FH_DU:i <- 0
	movl	$3, %edi
	callq	_KPushCDep
	movl	$statemate_bitlist+12, %edi
	movl	$34, %esi
	movl	$1, %edx
	callq	_KLoad0
	movl	$515, %edi              # imm = 0x203
	callq	_KWork
	.loc	1 1111 5 is_stmt 1      # statemate.c:1111:5
	movb	statemate_bitlist+12(%rip), %bl
	movl	$34, %edi
	movl	$34, %esi
	xorl	%edx, %edx
	callq	_KTimestamp1
	movl	$34, %edi
	movl	$statemate_bitlist+10, %esi
	movl	$1, %edx
	callq	_KStore
	movb	%bl, statemate_bitlist+10(%rip)
	movl	$statemate_bitlist+15, %edi
	movl	$35, %esi
	movl	$1, %edx
	callq	_KLoad0
	.loc	1 1114 5                # statemate.c:1114:5
	movb	statemate_bitlist+15(%rip), %bl
	movl	$35, %edi
	movl	$35, %esi
	xorl	%edx, %edx
	callq	_KTimestamp1
	movl	$35, %edi
	movl	$statemate_bitlist+13, %esi
	movl	$1, %edx
	callq	_KStore
	movb	%bl, statemate_bitlist+13(%rip)
	movl	$statemate_bitlist+18, %edi
	movl	$36, %esi
	movl	$1, %edx
	callq	_KLoad0
	.loc	1 1116 5                # statemate.c:1116:5
	movb	statemate_bitlist+18(%rip), %bl
	movl	$36, %edi
	movl	$36, %esi
	xorl	%edx, %edx
	callq	_KTimestamp1
	movl	$36, %edi
	movl	$statemate_bitlist+16, %esi
	movl	$1, %edx
	callq	_KStore
	movb	%bl, statemate_bitlist+16(%rip)
	movl	$statemate_bitlist+21, %edi
	movl	$37, %esi
	movl	$1, %edx
	callq	_KLoad0
	.loc	1 1119 5                # statemate.c:1119:5
	movb	statemate_bitlist+21(%rip), %bl
	movl	$37, %edi
	movl	$37, %esi
	xorl	%edx, %edx
	callq	_KTimestamp1
	movl	$37, %edi
	movl	$statemate_bitlist+19, %esi
	movl	$1, %edx
	callq	_KStore
	movb	%bl, statemate_bitlist+19(%rip)
	movl	$statemate_FH_DU__S_FH_AUFDISC, %edi
	movl	$38, %esi
	movl	$1, %edx
	callq	_KLoad0
	.loc	1 1122 40               # statemate.c:1122:40
	movb	statemate_FH_DU__S_FH_AUFDISC(%rip), %bl
	movl	$38, %edi
	movl	$38, %esi
	xorl	%edx, %edx
	callq	_KTimestamp1
	movl	$38, %edi
	movl	$statemate_FH_TUERMODUL__SFHA_MEC, %esi
	movl	$1, %edx
	callq	_KStore
	.loc	1 1122 5 is_stmt 0      # statemate.c:1122:5
	movb	%bl, statemate_FH_TUERMODUL__SFHA_MEC(%rip)
	movl	$statemate_FH_DU__S_FH_FTAUF, %edi
	movl	$39, %esi
	movl	$1, %edx
	callq	_KLoad0
	.loc	1 1123 44 is_stmt 1     # statemate.c:1123:44
	movb	statemate_FH_DU__S_FH_FTAUF(%rip), %bl
	movl	$39, %edi
	movl	$39, %esi
	xorl	%edx, %edx
	callq	_KTimestamp1
	movl	$39, %edi
	movl	$statemate_FH_TUERMODUL__SFHA_ZENTRAL, %esi
	movl	$1, %edx
	callq	_KStore
	.loc	1 1123 5 is_stmt 0      # statemate.c:1123:5
	movb	%bl, statemate_FH_TUERMODUL__SFHA_ZENTRAL(%rip)
	movl	$statemate_FH_DU__S_FH_ZUDISC, %edi
	movl	$40, %esi
	movl	$1, %edx
	callq	_KLoad0
	.loc	1 1124 40 is_stmt 1     # statemate.c:1124:40
	movb	statemate_FH_DU__S_FH_ZUDISC(%rip), %bl
	movl	$40, %edi
	movl	$40, %esi
	xorl	%edx, %edx
	callq	_KTimestamp1
	movl	$40, %edi
	movl	$statemate_FH_TUERMODUL__SFHZ_MEC, %esi
	movl	$1, %edx
	callq	_KStore
	.loc	1 1124 5 is_stmt 0      # statemate.c:1124:5
	movb	%bl, statemate_FH_TUERMODUL__SFHZ_MEC(%rip)
	movl	$statemate_FH_DU__S_FH_FTZU, %edi
	movl	$41, %esi
	movl	$1, %edx
	callq	_KLoad0
	.loc	1 1125 44 is_stmt 1     # statemate.c:1125:44
	movb	statemate_FH_DU__S_FH_FTZU(%rip), %bl
	movl	$41, %edi
	movl	$41, %esi
	xorl	%edx, %edx
	callq	_KTimestamp1
	movl	$41, %edi
	movl	$statemate_FH_TUERMODUL__SFHZ_ZENTRAL, %esi
	movl	$1, %edx
	callq	_KStore
	.loc	1 1125 5 is_stmt 0      # statemate.c:1125:5
	movb	%bl, statemate_FH_TUERMODUL__SFHZ_ZENTRAL(%rip)
	xorl	%esi, %esi
	movabsq	$1114532920374652328, %rdi # imm = 0xF779DC93968EDA8
	callq	_KPrepCall
	.loc	1 1127 5 is_stmt 1      # statemate.c:1127:5
	callq	statemate_generic_KINDERSICHERUNG_CTRL
	movl	$statemate_FH_TUERMODUL__MFHA, %edi
	movl	$42, %esi
	movl	$1, %edx
	callq	_KLoad0
	.loc	1 1129 29               # statemate.c:1129:29
	movb	statemate_FH_TUERMODUL__MFHA(%rip), %bl
	movl	$42, %edi
	movl	$42, %esi
	xorl	%edx, %edx
	callq	_KTimestamp1
	movl	$42, %edi
	movl	$statemate_FH_DU__MFHA, %esi
	movl	$1, %edx
	callq	_KStore
	.loc	1 1129 5 is_stmt 0      # statemate.c:1129:5
	movb	%bl, statemate_FH_DU__MFHA(%rip)
	movl	$statemate_FH_TUERMODUL__MFHZ, %edi
	movl	$43, %esi
	movl	$1, %edx
	callq	_KLoad0
	.loc	1 1130 29 is_stmt 1     # statemate.c:1130:29
	movb	statemate_FH_TUERMODUL__MFHZ(%rip), %bl
	movl	$43, %edi
	movl	$43, %esi
	xorl	%edx, %edx
	callq	_KTimestamp1
	movl	$43, %edi
	movl	$statemate_FH_DU__MFHZ, %esi
	movl	$1, %edx
	callq	_KStore
	.loc	1 1130 5 is_stmt 0      # statemate.c:1130:5
	movb	%bl, statemate_FH_DU__MFHZ(%rip)
	movl	$statemate_FH_TUERMODUL__I_EIN, %edi
	movl	$44, %esi
	movl	$4, %edx
	callq	_KLoad0
	.loc	1 1131 30 is_stmt 1     # statemate.c:1131:30
	movl	statemate_FH_TUERMODUL__I_EIN(%rip), %ebx
	movl	$44, %edi
	movl	$44, %esi
	xorl	%edx, %edx
	callq	_KTimestamp1
	movl	$44, %edi
	movl	$statemate_FH_DU__I_EIN, %esi
	movl	$4, %edx
	callq	_KStore
	.loc	1 1131 5 is_stmt 0      # statemate.c:1131:5
	movl	%ebx, statemate_FH_DU__I_EIN(%rip)
	movl	$statemate_FH_TUERMODUL__EKS_LEISTE_AKTIV, %edi
	movl	$45, %esi
	movl	$1, %edx
	callq	_KLoad0
	.loc	1 1132 41 is_stmt 1     # statemate.c:1132:41
	movb	statemate_FH_TUERMODUL__EKS_LEISTE_AKTIV(%rip), %bl
	movl	$45, %edi
	movl	$45, %esi
	xorl	%edx, %edx
	callq	_KTimestamp1
	movl	$45, %edi
	movl	$statemate_FH_DU__EKS_LEISTE_AKTIV, %esi
	movl	$1, %edx
	callq	_KStore
	.loc	1 1132 5 is_stmt 0      # statemate.c:1132:5
	movb	%bl, statemate_FH_DU__EKS_LEISTE_AKTIV(%rip)
	movl	$statemate_FH_TUERMODUL__POSITION, %edi
	movl	$46, %esi
	movl	$4, %edx
	callq	_KLoad0
	.loc	1 1133 33 is_stmt 1     # statemate.c:1133:33
	movl	statemate_FH_TUERMODUL__POSITION(%rip), %ebx
	movl	$46, %edi
	movl	$46, %esi
	xorl	%edx, %edx
	callq	_KTimestamp1
	movl	$46, %edi
	movl	$statemate_FH_DU__POSITION, %esi
	movl	$4, %edx
	callq	_KStore
	.loc	1 1133 5 is_stmt 0      # statemate.c:1133:5
	movl	%ebx, statemate_FH_DU__POSITION(%rip)
	movl	$statemate_FH_TUERMODUL__FT, %edi
	movl	$47, %esi
	movl	$1, %edx
	callq	_KLoad0
	.loc	1 1134 27 is_stmt 1     # statemate.c:1134:27
	movb	statemate_FH_TUERMODUL__FT(%rip), %bl
	movl	$47, %edi
	movl	$47, %esi
	xorl	%edx, %edx
	callq	_KTimestamp1
	movl	$47, %edi
	movl	$statemate_FH_DU__FT, %esi
	movl	$1, %edx
	callq	_KStore
	.loc	1 1134 5 is_stmt 0      # statemate.c:1134:5
	movb	%bl, statemate_FH_DU__FT(%rip)
	movl	$statemate_FH_TUERMODUL__SFHA_MEC, %edi
	movl	$48, %esi
	movl	$1, %edx
	callq	_KLoad0
	.loc	1 1135 37 is_stmt 1     # statemate.c:1135:37
	movb	statemate_FH_TUERMODUL__SFHA_MEC(%rip), %bl
	movl	$48, %edi
	movl	$48, %esi
	xorl	%edx, %edx
	callq	_KTimestamp1
	movl	$48, %edi
	movl	$statemate_FH_DU__S_FH_AUFDISC, %esi
	movl	$1, %edx
	callq	_KStore
	.loc	1 1135 5 is_stmt 0      # statemate.c:1135:5
	movb	%bl, statemate_FH_DU__S_FH_AUFDISC(%rip)
	movl	$statemate_FH_TUERMODUL__SFHA_ZENTRAL, %edi
	movl	$49, %esi
	movl	$1, %edx
	callq	_KLoad0
	.loc	1 1136 35 is_stmt 1     # statemate.c:1136:35
	movb	statemate_FH_TUERMODUL__SFHA_ZENTRAL(%rip), %bl
	movl	$49, %edi
	movl	$49, %esi
	xorl	%edx, %edx
	callq	_KTimestamp1
	movl	$49, %edi
	movl	$statemate_FH_DU__S_FH_FTAUF, %esi
	movl	$1, %edx
	callq	_KStore
	.loc	1 1136 5 is_stmt 0      # statemate.c:1136:5
	movb	%bl, statemate_FH_DU__S_FH_FTAUF(%rip)
	movl	$statemate_FH_TUERMODUL__SFHZ_MEC, %edi
	movl	$50, %esi
	movl	$1, %edx
	callq	_KLoad0
	.loc	1 1137 36 is_stmt 1     # statemate.c:1137:36
	movb	statemate_FH_TUERMODUL__SFHZ_MEC(%rip), %bl
	movl	$50, %edi
	movl	$50, %esi
	xorl	%edx, %edx
	callq	_KTimestamp1
	movl	$50, %edi
	movl	$statemate_FH_DU__S_FH_ZUDISC, %esi
	movl	$1, %edx
	callq	_KStore
	.loc	1 1137 5 is_stmt 0      # statemate.c:1137:5
	movb	%bl, statemate_FH_DU__S_FH_ZUDISC(%rip)
	movl	$statemate_FH_TUERMODUL__SFHZ_ZENTRAL, %edi
	movl	$51, %esi
	movl	$1, %edx
	callq	_KLoad0
	.loc	1 1138 34 is_stmt 1     # statemate.c:1138:34
	movb	statemate_FH_TUERMODUL__SFHZ_ZENTRAL(%rip), %bl
	movl	$51, %edi
	movl	$51, %esi
	xorl	%edx, %edx
	callq	_KTimestamp1
	movl	$51, %edi
	movl	$statemate_FH_DU__S_FH_FTZU, %esi
	movl	$1, %edx
	callq	_KStore
	.loc	1 1138 5 is_stmt 0      # statemate.c:1138:5
	movb	%bl, statemate_FH_DU__S_FH_FTZU(%rip)
	movl	$statemate_FH_TUERMODUL__KL_50, %edi
	movl	$52, %esi
	movl	$1, %edx
	callq	_KLoad0
	.loc	1 1139 30 is_stmt 1     # statemate.c:1139:30
	movb	statemate_FH_TUERMODUL__KL_50(%rip), %bl
	movl	$52, %edi
	movl	$52, %esi
	xorl	%edx, %edx
	callq	_KTimestamp1
	movl	$52, %edi
	movl	$statemate_FH_DU__KL_50, %esi
	movl	$1, %edx
	callq	_KStore
	.loc	1 1139 5 is_stmt 0      # statemate.c:1139:5
	movb	%bl, statemate_FH_DU__KL_50(%rip)
	movl	$statemate_FH_TUERMODUL__BLOCK, %edi
	movl	$53, %esi
	movl	$1, %edx
	callq	_KLoad0
	.loc	1 1140 30 is_stmt 1     # statemate.c:1140:30
	movb	statemate_FH_TUERMODUL__BLOCK(%rip), %bl
	movl	$53, %edi
	movl	$53, %esi
	xorl	%edx, %edx
	callq	_KTimestamp1
	movl	$53, %edi
	movl	$statemate_FH_DU__BLOCK, %esi
	movl	$1, %edx
	callq	_KStore
	.loc	1 1140 5 is_stmt 0      # statemate.c:1140:5
	movb	%bl, statemate_FH_DU__BLOCK(%rip)
	movl	$statemate_FH_DU__S_FH_AUFDISC, %edi
	movl	$54, %esi
	movl	$1, %edx
	callq	_KLoad0
	.loc	1 1142 40 is_stmt 1     # statemate.c:1142:40
	movb	statemate_FH_DU__S_FH_AUFDISC(%rip), %bl
	movl	$54, %edi
	movl	$54, %esi
	xorl	%edx, %edx
	callq	_KTimestamp1
	movl	$54, %edi
	movl	$statemate_FH_TUERMODUL__SFHA_MEC, %esi
	movl	$1, %edx
	callq	_KStore
	.loc	1 1142 5 is_stmt 0      # statemate.c:1142:5
	movb	%bl, statemate_FH_TUERMODUL__SFHA_MEC(%rip)
	movl	$statemate_FH_DU__S_FH_FTAUF, %edi
	movl	$55, %esi
	movl	$1, %edx
	callq	_KLoad0
	.loc	1 1143 44 is_stmt 1     # statemate.c:1143:44
	movb	statemate_FH_DU__S_FH_FTAUF(%rip), %bl
	movl	$55, %edi
	movl	$55, %esi
	xorl	%edx, %edx
	callq	_KTimestamp1
	movl	$55, %edi
	movl	$statemate_FH_TUERMODUL__SFHA_ZENTRAL, %esi
	movl	$1, %edx
	callq	_KStore
	.loc	1 1143 5 is_stmt 0      # statemate.c:1143:5
	movb	%bl, statemate_FH_TUERMODUL__SFHA_ZENTRAL(%rip)
	movl	$statemate_FH_DU__S_FH_ZUDISC, %edi
	movl	$56, %esi
	movl	$1, %edx
	callq	_KLoad0
	.loc	1 1144 40 is_stmt 1     # statemate.c:1144:40
	movb	statemate_FH_DU__S_FH_ZUDISC(%rip), %bl
	movl	$56, %edi
	movl	$56, %esi
	xorl	%edx, %edx
	callq	_KTimestamp1
	movl	$56, %edi
	movl	$statemate_FH_TUERMODUL__SFHZ_MEC, %esi
	movl	$1, %edx
	callq	_KStore
	.loc	1 1144 5 is_stmt 0      # statemate.c:1144:5
	movb	%bl, statemate_FH_TUERMODUL__SFHZ_MEC(%rip)
	movl	$statemate_FH_DU__S_FH_FTZU, %edi
	movl	$57, %esi
	movl	$1, %edx
	callq	_KLoad0
	.loc	1 1145 44 is_stmt 1     # statemate.c:1145:44
	movb	statemate_FH_DU__S_FH_FTZU(%rip), %bl
	movl	$57, %edi
	movl	$57, %esi
	xorl	%edx, %edx
	callq	_KTimestamp1
	movl	$57, %edi
	movl	$statemate_FH_TUERMODUL__SFHZ_ZENTRAL, %esi
	movl	$1, %edx
	callq	_KStore
	.loc	1 1145 5 is_stmt 0      # statemate.c:1145:5
	movb	%bl, statemate_FH_TUERMODUL__SFHZ_ZENTRAL(%rip)
	xorl	%esi, %esi
	movabsq	$-8538795508827292320, %rdi # imm = 0x89801AB9A6A5FD60
	callq	_KPrepCall
	.loc	1 1147 5 is_stmt 1      # statemate.c:1147:5
	callq	statemate_generic_FH_TUERMODUL_CTRL
	movl	$statemate_FH_TUERMODUL__MFHA, %edi
	movl	$58, %esi
	movl	$1, %edx
	callq	_KLoad0
	.loc	1 1149 29               # statemate.c:1149:29
	movb	statemate_FH_TUERMODUL__MFHA(%rip), %bl
	movl	$58, %edi
	movl	$58, %esi
	xorl	%edx, %edx
	callq	_KTimestamp1
	movl	$58, %edi
	movl	$statemate_FH_DU__MFHA, %esi
	movl	$1, %edx
	callq	_KStore
	.loc	1 1149 5 is_stmt 0      # statemate.c:1149:5
	movb	%bl, statemate_FH_DU__MFHA(%rip)
	movl	$statemate_FH_TUERMODUL__MFHZ, %edi
	movl	$59, %esi
	movl	$1, %edx
	callq	_KLoad0
	.loc	1 1150 29 is_stmt 1     # statemate.c:1150:29
	movb	statemate_FH_TUERMODUL__MFHZ(%rip), %bl
	movl	$59, %edi
	movl	$59, %esi
	xorl	%edx, %edx
	callq	_KTimestamp1
	movl	$59, %edi
	movl	$statemate_FH_DU__MFHZ, %esi
	movl	$1, %edx
	callq	_KStore
	.loc	1 1150 5 is_stmt 0      # statemate.c:1150:5
	movb	%bl, statemate_FH_DU__MFHZ(%rip)
	movl	$statemate_FH_TUERMODUL__I_EIN, %edi
	movl	$60, %esi
	movl	$4, %edx
	callq	_KLoad0
	.loc	1 1151 30 is_stmt 1     # statemate.c:1151:30
	movl	statemate_FH_TUERMODUL__I_EIN(%rip), %ebx
	movl	$60, %edi
	movl	$60, %esi
	xorl	%edx, %edx
	callq	_KTimestamp1
	movl	$60, %edi
	movl	$statemate_FH_DU__I_EIN, %esi
	movl	$4, %edx
	callq	_KStore
	.loc	1 1151 5 is_stmt 0      # statemate.c:1151:5
	movl	%ebx, statemate_FH_DU__I_EIN(%rip)
	movl	$statemate_FH_TUERMODUL__EKS_LEISTE_AKTIV, %edi
	movl	$61, %esi
	movl	$1, %edx
	callq	_KLoad0
	.loc	1 1152 41 is_stmt 1     # statemate.c:1152:41
	movb	statemate_FH_TUERMODUL__EKS_LEISTE_AKTIV(%rip), %bl
	movl	$61, %edi
	movl	$61, %esi
	xorl	%edx, %edx
	callq	_KTimestamp1
	movl	$61, %edi
	movl	$statemate_FH_DU__EKS_LEISTE_AKTIV, %esi
	movl	$1, %edx
	callq	_KStore
	.loc	1 1152 5 is_stmt 0      # statemate.c:1152:5
	movb	%bl, statemate_FH_DU__EKS_LEISTE_AKTIV(%rip)
	movl	$statemate_FH_TUERMODUL__POSITION, %edi
	movl	$62, %esi
	movl	$4, %edx
	callq	_KLoad0
	.loc	1 1153 33 is_stmt 1     # statemate.c:1153:33
	movl	statemate_FH_TUERMODUL__POSITION(%rip), %ebx
	movl	$62, %edi
	movl	$62, %esi
	xorl	%edx, %edx
	callq	_KTimestamp1
	movl	$62, %edi
	movl	$statemate_FH_DU__POSITION, %esi
	movl	$4, %edx
	callq	_KStore
	.loc	1 1153 5 is_stmt 0      # statemate.c:1153:5
	movl	%ebx, statemate_FH_DU__POSITION(%rip)
	movl	$statemate_FH_TUERMODUL__FT, %edi
	movl	$63, %esi
	movl	$1, %edx
	callq	_KLoad0
	.loc	1 1154 27 is_stmt 1     # statemate.c:1154:27
	movb	statemate_FH_TUERMODUL__FT(%rip), %bl
	movl	$63, %edi
	movl	$63, %esi
	xorl	%edx, %edx
	callq	_KTimestamp1
	movl	$63, %edi
	movl	$statemate_FH_DU__FT, %esi
	movl	$1, %edx
	callq	_KStore
	.loc	1 1154 5 is_stmt 0      # statemate.c:1154:5
	movb	%bl, statemate_FH_DU__FT(%rip)
	movl	$statemate_FH_TUERMODUL__SFHA_MEC, %edi
	movl	$64, %esi
	movl	$1, %edx
	callq	_KLoad0
	.loc	1 1155 37 is_stmt 1     # statemate.c:1155:37
	movb	statemate_FH_TUERMODUL__SFHA_MEC(%rip), %bl
	movl	$64, %edi
	movl	$64, %esi
	xorl	%edx, %edx
	callq	_KTimestamp1
	movl	$64, %edi
	movl	$statemate_FH_DU__S_FH_AUFDISC, %esi
	movl	$1, %edx
	callq	_KStore
	.loc	1 1155 5 is_stmt 0      # statemate.c:1155:5
	movb	%bl, statemate_FH_DU__S_FH_AUFDISC(%rip)
	movl	$statemate_FH_TUERMODUL__SFHA_ZENTRAL, %edi
	movl	$65, %esi
	movl	$1, %edx
	callq	_KLoad0
	.loc	1 1156 35 is_stmt 1     # statemate.c:1156:35
	movb	statemate_FH_TUERMODUL__SFHA_ZENTRAL(%rip), %bl
	movl	$65, %edi
	movl	$65, %esi
	xorl	%edx, %edx
	callq	_KTimestamp1
	movl	$65, %edi
	movl	$statemate_FH_DU__S_FH_FTAUF, %esi
	movl	$1, %edx
	callq	_KStore
	.loc	1 1156 5 is_stmt 0      # statemate.c:1156:5
	movb	%bl, statemate_FH_DU__S_FH_FTAUF(%rip)
	movl	$statemate_FH_TUERMODUL__SFHZ_MEC, %edi
	movl	$66, %esi
	movl	$1, %edx
	callq	_KLoad0
	.loc	1 1157 36 is_stmt 1     # statemate.c:1157:36
	movb	statemate_FH_TUERMODUL__SFHZ_MEC(%rip), %bl
	movl	$66, %edi
	movl	$66, %esi
	xorl	%edx, %edx
	callq	_KTimestamp1
	movl	$66, %edi
	movl	$statemate_FH_DU__S_FH_ZUDISC, %esi
	movl	$1, %edx
	callq	_KStore
	.loc	1 1157 5 is_stmt 0      # statemate.c:1157:5
	movb	%bl, statemate_FH_DU__S_FH_ZUDISC(%rip)
	movl	$statemate_FH_TUERMODUL__SFHZ_ZENTRAL, %edi
	movl	$67, %esi
	movl	$1, %edx
	callq	_KLoad0
	.loc	1 1158 34 is_stmt 1     # statemate.c:1158:34
	movb	statemate_FH_TUERMODUL__SFHZ_ZENTRAL(%rip), %bl
	movl	$67, %edi
	movl	$67, %esi
	xorl	%edx, %edx
	callq	_KTimestamp1
	movl	$67, %edi
	movl	$statemate_FH_DU__S_FH_FTZU, %esi
	movl	$1, %edx
	callq	_KStore
	.loc	1 1158 5 is_stmt 0      # statemate.c:1158:5
	movb	%bl, statemate_FH_DU__S_FH_FTZU(%rip)
	movl	$statemate_FH_TUERMODUL__KL_50, %edi
	movl	$68, %esi
	movl	$1, %edx
	callq	_KLoad0
	.loc	1 1159 30 is_stmt 1     # statemate.c:1159:30
	movb	statemate_FH_TUERMODUL__KL_50(%rip), %bl
	movl	$68, %edi
	movl	$68, %esi
	xorl	%edx, %edx
	callq	_KTimestamp1
	movl	$68, %edi
	movl	$statemate_FH_DU__KL_50, %esi
	movl	$1, %edx
	callq	_KStore
	.loc	1 1159 5 is_stmt 0      # statemate.c:1159:5
	movb	%bl, statemate_FH_DU__KL_50(%rip)
	movl	$statemate_FH_TUERMODUL__BLOCK, %edi
	movl	$69, %esi
	movl	$1, %edx
	callq	_KLoad0
	.loc	1 1160 30 is_stmt 1     # statemate.c:1160:30
	movb	statemate_FH_TUERMODUL__BLOCK(%rip), %bl
	movl	$69, %edi
	movl	$69, %esi
	xorl	%edx, %edx
	callq	_KTimestamp1
	movl	$69, %edi
	movl	$statemate_FH_DU__BLOCK, %esi
	movl	$1, %edx
	callq	_KStore
	.loc	1 1160 5 is_stmt 0      # statemate.c:1160:5
	movb	%bl, statemate_FH_DU__BLOCK(%rip)
	movl	$statemate_FH_DU__S_FH_AUFDISC, %edi
	movl	$70, %esi
	movl	$1, %edx
	callq	_KLoad0
	.loc	1 1162 40 is_stmt 1     # statemate.c:1162:40
	movb	statemate_FH_DU__S_FH_AUFDISC(%rip), %bl
	movl	$70, %edi
	movl	$70, %esi
	xorl	%edx, %edx
	callq	_KTimestamp1
	movl	$70, %edi
	movl	$statemate_FH_TUERMODUL__SFHA_MEC, %esi
	movl	$1, %edx
	callq	_KStore
	.loc	1 1162 5 is_stmt 0      # statemate.c:1162:5
	movb	%bl, statemate_FH_TUERMODUL__SFHA_MEC(%rip)
	movl	$statemate_FH_DU__S_FH_FTAUF, %edi
	movl	$71, %esi
	movl	$1, %edx
	callq	_KLoad0
	.loc	1 1163 44 is_stmt 1     # statemate.c:1163:44
	movb	statemate_FH_DU__S_FH_FTAUF(%rip), %bl
	movl	$71, %edi
	movl	$71, %esi
	xorl	%edx, %edx
	callq	_KTimestamp1
	movl	$71, %edi
	movl	$statemate_FH_TUERMODUL__SFHA_ZENTRAL, %esi
	movl	$1, %edx
	callq	_KStore
	.loc	1 1163 5 is_stmt 0      # statemate.c:1163:5
	movb	%bl, statemate_FH_TUERMODUL__SFHA_ZENTRAL(%rip)
	movl	$statemate_FH_DU__S_FH_ZUDISC, %edi
	movl	$72, %esi
	movl	$1, %edx
	callq	_KLoad0
	.loc	1 1164 40 is_stmt 1     # statemate.c:1164:40
	movb	statemate_FH_DU__S_FH_ZUDISC(%rip), %bl
	movl	$72, %edi
	movl	$72, %esi
	xorl	%edx, %edx
	callq	_KTimestamp1
	movl	$72, %edi
	movl	$statemate_FH_TUERMODUL__SFHZ_MEC, %esi
	movl	$1, %edx
	callq	_KStore
	.loc	1 1164 5 is_stmt 0      # statemate.c:1164:5
	movb	%bl, statemate_FH_TUERMODUL__SFHZ_MEC(%rip)
	movl	$statemate_FH_DU__S_FH_FTZU, %edi
	movl	$73, %esi
	movl	$1, %edx
	callq	_KLoad0
	.loc	1 1165 44 is_stmt 1     # statemate.c:1165:44
	movb	statemate_FH_DU__S_FH_FTZU(%rip), %bl
	movl	$73, %edi
	movl	$73, %esi
	xorl	%edx, %edx
	callq	_KTimestamp1
	movl	$73, %edi
	movl	$statemate_FH_TUERMODUL__SFHZ_ZENTRAL, %esi
	movl	$1, %edx
	callq	_KStore
	.loc	1 1165 5 is_stmt 0      # statemate.c:1165:5
	movb	%bl, statemate_FH_TUERMODUL__SFHZ_ZENTRAL(%rip)
	xorl	%esi, %esi
	movabsq	$5201692336487118267, %rdi # imm = 0x48301F9ECB2FB5BB
	callq	_KPrepCall
	.loc	1 1167 5 is_stmt 1      # statemate.c:1167:5
	callq	statemate_generic_EINKLEMMSCHUTZ_CTRL
	movl	$statemate_FH_TUERMODUL__MFHA, %edi
	movl	$74, %esi
	movl	$1, %edx
	callq	_KLoad0
	.loc	1 1169 29               # statemate.c:1169:29
	movb	statemate_FH_TUERMODUL__MFHA(%rip), %bl
	movl	$74, %edi
	movl	$74, %esi
	xorl	%edx, %edx
	callq	_KTimestamp1
	movl	$74, %edi
	movl	$statemate_FH_DU__MFHA, %esi
	movl	$1, %edx
	callq	_KStore
	.loc	1 1169 5 is_stmt 0      # statemate.c:1169:5
	movb	%bl, statemate_FH_DU__MFHA(%rip)
	movl	$statemate_FH_TUERMODUL__MFHZ, %edi
	movl	$75, %esi
	movl	$1, %edx
	callq	_KLoad0
	.loc	1 1170 29 is_stmt 1     # statemate.c:1170:29
	movb	statemate_FH_TUERMODUL__MFHZ(%rip), %bl
	movl	$75, %edi
	movl	$75, %esi
	xorl	%edx, %edx
	callq	_KTimestamp1
	movl	$75, %edi
	movl	$statemate_FH_DU__MFHZ, %esi
	movl	$1, %edx
	callq	_KStore
	.loc	1 1170 5 is_stmt 0      # statemate.c:1170:5
	movb	%bl, statemate_FH_DU__MFHZ(%rip)
	movl	$statemate_FH_TUERMODUL__I_EIN, %edi
	movl	$76, %esi
	movl	$4, %edx
	callq	_KLoad0
	.loc	1 1171 30 is_stmt 1     # statemate.c:1171:30
	movl	statemate_FH_TUERMODUL__I_EIN(%rip), %ebx
	movl	$76, %edi
	movl	$76, %esi
	xorl	%edx, %edx
	callq	_KTimestamp1
	movl	$76, %edi
	movl	$statemate_FH_DU__I_EIN, %esi
	movl	$4, %edx
	callq	_KStore
	.loc	1 1171 5 is_stmt 0      # statemate.c:1171:5
	movl	%ebx, statemate_FH_DU__I_EIN(%rip)
	movl	$statemate_FH_TUERMODUL__EKS_LEISTE_AKTIV, %edi
	movl	$77, %esi
	movl	$1, %edx
	callq	_KLoad0
	.loc	1 1172 41 is_stmt 1     # statemate.c:1172:41
	movb	statemate_FH_TUERMODUL__EKS_LEISTE_AKTIV(%rip), %bl
	movl	$77, %edi
	movl	$77, %esi
	xorl	%edx, %edx
	callq	_KTimestamp1
	movl	$77, %edi
	movl	$statemate_FH_DU__EKS_LEISTE_AKTIV, %esi
	movl	$1, %edx
	callq	_KStore
	.loc	1 1172 5 is_stmt 0      # statemate.c:1172:5
	movb	%bl, statemate_FH_DU__EKS_LEISTE_AKTIV(%rip)
	movl	$statemate_FH_TUERMODUL__POSITION, %edi
	movl	$78, %esi
	movl	$4, %edx
	callq	_KLoad0
	.loc	1 1173 33 is_stmt 1     # statemate.c:1173:33
	movl	statemate_FH_TUERMODUL__POSITION(%rip), %ebx
	movl	$78, %edi
	movl	$78, %esi
	xorl	%edx, %edx
	callq	_KTimestamp1
	movl	$78, %edi
	movl	$statemate_FH_DU__POSITION, %esi
	movl	$4, %edx
	callq	_KStore
	.loc	1 1173 5 is_stmt 0      # statemate.c:1173:5
	movl	%ebx, statemate_FH_DU__POSITION(%rip)
	movl	$statemate_FH_TUERMODUL__FT, %edi
	movl	$79, %esi
	movl	$1, %edx
	callq	_KLoad0
	.loc	1 1174 27 is_stmt 1     # statemate.c:1174:27
	movb	statemate_FH_TUERMODUL__FT(%rip), %bl
	movl	$79, %edi
	movl	$79, %esi
	xorl	%edx, %edx
	callq	_KTimestamp1
	movl	$79, %edi
	movl	$statemate_FH_DU__FT, %esi
	movl	$1, %edx
	callq	_KStore
	.loc	1 1174 5 is_stmt 0      # statemate.c:1174:5
	movb	%bl, statemate_FH_DU__FT(%rip)
	movl	$statemate_FH_TUERMODUL__SFHA_MEC, %edi
	movl	$80, %esi
	movl	$1, %edx
	callq	_KLoad0
	.loc	1 1175 37 is_stmt 1     # statemate.c:1175:37
	movb	statemate_FH_TUERMODUL__SFHA_MEC(%rip), %bl
	movl	$80, %edi
	movl	$80, %esi
	xorl	%edx, %edx
	callq	_KTimestamp1
	movl	$80, %edi
	movl	$statemate_FH_DU__S_FH_AUFDISC, %esi
	movl	$1, %edx
	callq	_KStore
	.loc	1 1175 5 is_stmt 0      # statemate.c:1175:5
	movb	%bl, statemate_FH_DU__S_FH_AUFDISC(%rip)
	movl	$statemate_FH_TUERMODUL__SFHA_ZENTRAL, %edi
	movl	$81, %esi
	movl	$1, %edx
	callq	_KLoad0
	.loc	1 1176 35 is_stmt 1     # statemate.c:1176:35
	movb	statemate_FH_TUERMODUL__SFHA_ZENTRAL(%rip), %bl
	movl	$81, %edi
	movl	$81, %esi
	xorl	%edx, %edx
	callq	_KTimestamp1
	movl	$81, %edi
	movl	$statemate_FH_DU__S_FH_FTAUF, %esi
	movl	$1, %edx
	callq	_KStore
	.loc	1 1176 5 is_stmt 0      # statemate.c:1176:5
	movb	%bl, statemate_FH_DU__S_FH_FTAUF(%rip)
	movl	$statemate_FH_TUERMODUL__SFHZ_MEC, %edi
	movl	$82, %esi
	movl	$1, %edx
	callq	_KLoad0
	.loc	1 1177 36 is_stmt 1     # statemate.c:1177:36
	movb	statemate_FH_TUERMODUL__SFHZ_MEC(%rip), %bl
	movl	$82, %edi
	movl	$82, %esi
	xorl	%edx, %edx
	callq	_KTimestamp1
	movl	$82, %edi
	movl	$statemate_FH_DU__S_FH_ZUDISC, %esi
	movl	$1, %edx
	callq	_KStore
	.loc	1 1177 5 is_stmt 0      # statemate.c:1177:5
	movb	%bl, statemate_FH_DU__S_FH_ZUDISC(%rip)
	movl	$statemate_FH_TUERMODUL__SFHZ_ZENTRAL, %edi
	movl	$83, %esi
	movl	$1, %edx
	callq	_KLoad0
	.loc	1 1178 34 is_stmt 1     # statemate.c:1178:34
	movb	statemate_FH_TUERMODUL__SFHZ_ZENTRAL(%rip), %bl
	movl	$83, %edi
	movl	$83, %esi
	xorl	%edx, %edx
	callq	_KTimestamp1
	movl	$83, %edi
	movl	$statemate_FH_DU__S_FH_FTZU, %esi
	movl	$1, %edx
	callq	_KStore
	.loc	1 1178 5 is_stmt 0      # statemate.c:1178:5
	movb	%bl, statemate_FH_DU__S_FH_FTZU(%rip)
	movl	$statemate_FH_TUERMODUL__KL_50, %edi
	movl	$84, %esi
	movl	$1, %edx
	callq	_KLoad0
	.loc	1 1179 30 is_stmt 1     # statemate.c:1179:30
	movb	statemate_FH_TUERMODUL__KL_50(%rip), %bl
	movl	$84, %edi
	movl	$84, %esi
	xorl	%edx, %edx
	callq	_KTimestamp1
	movl	$84, %edi
	movl	$statemate_FH_DU__KL_50, %esi
	movl	$1, %edx
	callq	_KStore
	.loc	1 1179 5 is_stmt 0      # statemate.c:1179:5
	movb	%bl, statemate_FH_DU__KL_50(%rip)
	movl	$statemate_FH_TUERMODUL__BLOCK, %edi
	movl	$85, %esi
	movl	$1, %edx
	callq	_KLoad0
	.loc	1 1180 30 is_stmt 1     # statemate.c:1180:30
	movb	statemate_FH_TUERMODUL__BLOCK(%rip), %bl
	movl	$85, %edi
	movl	$85, %esi
	xorl	%edx, %edx
	callq	_KTimestamp1
	movl	$85, %edi
	movl	$statemate_FH_DU__BLOCK, %esi
	movl	$1, %edx
	callq	_KStore
	.loc	1 1180 5 is_stmt 0      # statemate.c:1180:5
	movb	%bl, statemate_FH_DU__BLOCK(%rip)
	movl	$statemate_FH_DU__S_FH_AUFDISC, %edi
	movl	$86, %esi
	movl	$1, %edx
	callq	_KLoad0
	.loc	1 1182 40 is_stmt 1     # statemate.c:1182:40
	movb	statemate_FH_DU__S_FH_AUFDISC(%rip), %bl
	movl	$86, %edi
	movl	$86, %esi
	xorl	%edx, %edx
	callq	_KTimestamp1
	movl	$86, %edi
	movl	$statemate_FH_TUERMODUL__SFHA_MEC, %esi
	movl	$1, %edx
	callq	_KStore
	.loc	1 1182 5 is_stmt 0      # statemate.c:1182:5
	movb	%bl, statemate_FH_TUERMODUL__SFHA_MEC(%rip)
	movl	$statemate_FH_DU__S_FH_FTAUF, %edi
	movl	$87, %esi
	movl	$1, %edx
	callq	_KLoad0
	.loc	1 1183 44 is_stmt 1     # statemate.c:1183:44
	movb	statemate_FH_DU__S_FH_FTAUF(%rip), %bl
	movl	$87, %edi
	movl	$87, %esi
	xorl	%edx, %edx
	callq	_KTimestamp1
	movl	$87, %edi
	movl	$statemate_FH_TUERMODUL__SFHA_ZENTRAL, %esi
	movl	$1, %edx
	callq	_KStore
	.loc	1 1183 5 is_stmt 0      # statemate.c:1183:5
	movb	%bl, statemate_FH_TUERMODUL__SFHA_ZENTRAL(%rip)
	movl	$statemate_FH_DU__S_FH_ZUDISC, %edi
	movl	$88, %esi
	movl	$1, %edx
	callq	_KLoad0
	.loc	1 1184 40 is_stmt 1     # statemate.c:1184:40
	movb	statemate_FH_DU__S_FH_ZUDISC(%rip), %bl
	movl	$88, %edi
	movl	$88, %esi
	xorl	%edx, %edx
	callq	_KTimestamp1
	movl	$88, %edi
	movl	$statemate_FH_TUERMODUL__SFHZ_MEC, %esi
	movl	$1, %edx
	callq	_KStore
	.loc	1 1184 5 is_stmt 0      # statemate.c:1184:5
	movb	%bl, statemate_FH_TUERMODUL__SFHZ_MEC(%rip)
	movl	$statemate_FH_DU__S_FH_FTZU, %edi
	movl	$89, %esi
	movl	$1, %edx
	callq	_KLoad0
	.loc	1 1185 44 is_stmt 1     # statemate.c:1185:44
	movb	statemate_FH_DU__S_FH_FTZU(%rip), %bl
	movl	$89, %edi
	movl	$89, %esi
	xorl	%edx, %edx
	callq	_KTimestamp1
	movl	$89, %edi
	movl	$statemate_FH_TUERMODUL__SFHZ_ZENTRAL, %esi
	movl	$1, %edx
	callq	_KStore
	.loc	1 1185 5 is_stmt 0      # statemate.c:1185:5
	movb	%bl, statemate_FH_TUERMODUL__SFHZ_ZENTRAL(%rip)
	xorl	%esi, %esi
	movabsq	$5407124227627892707, %rdi # imm = 0x4B09F6D63C2B3FE3
	callq	_KPrepCall
	.loc	1 1187 5 is_stmt 1      # statemate.c:1187:5
	callq	statemate_generic_BLOCK_ERKENNUNG_CTRL
	movl	$statemate_FH_TUERMODUL__MFHA, %edi
	movl	$90, %esi
	movl	$1, %edx
	callq	_KLoad0
	.loc	1 1189 29               # statemate.c:1189:29
	movb	statemate_FH_TUERMODUL__MFHA(%rip), %bl
	movl	$90, %edi
	movl	$90, %esi
	xorl	%edx, %edx
	callq	_KTimestamp1
	movl	$90, %edi
	movl	$statemate_FH_DU__MFHA, %esi
	movl	$1, %edx
	callq	_KStore
	.loc	1 1189 5 is_stmt 0      # statemate.c:1189:5
	movb	%bl, statemate_FH_DU__MFHA(%rip)
	movl	$statemate_FH_TUERMODUL__MFHZ, %edi
	movl	$91, %esi
	movl	$1, %edx
	callq	_KLoad0
	.loc	1 1190 29 is_stmt 1     # statemate.c:1190:29
	movb	statemate_FH_TUERMODUL__MFHZ(%rip), %bl
	movl	$91, %edi
	movl	$91, %esi
	xorl	%edx, %edx
	callq	_KTimestamp1
	movl	$91, %edi
	movl	$statemate_FH_DU__MFHZ, %esi
	movl	$1, %edx
	callq	_KStore
	.loc	1 1190 5 is_stmt 0      # statemate.c:1190:5
	movb	%bl, statemate_FH_DU__MFHZ(%rip)
	movl	$statemate_FH_TUERMODUL__I_EIN, %edi
	movl	$92, %esi
	movl	$4, %edx
	callq	_KLoad0
	.loc	1 1191 30 is_stmt 1     # statemate.c:1191:30
	movl	statemate_FH_TUERMODUL__I_EIN(%rip), %ebx
	movl	$92, %edi
	movl	$92, %esi
	xorl	%edx, %edx
	callq	_KTimestamp1
	movl	$92, %edi
	movl	$statemate_FH_DU__I_EIN, %esi
	movl	$4, %edx
	callq	_KStore
	.loc	1 1191 5 is_stmt 0      # statemate.c:1191:5
	movl	%ebx, statemate_FH_DU__I_EIN(%rip)
	movl	$statemate_FH_TUERMODUL__EKS_LEISTE_AKTIV, %edi
	movl	$93, %esi
	movl	$1, %edx
	callq	_KLoad0
	.loc	1 1192 41 is_stmt 1     # statemate.c:1192:41
	movb	statemate_FH_TUERMODUL__EKS_LEISTE_AKTIV(%rip), %bl
	movl	$93, %edi
	movl	$93, %esi
	xorl	%edx, %edx
	callq	_KTimestamp1
	movl	$93, %edi
	movl	$statemate_FH_DU__EKS_LEISTE_AKTIV, %esi
	movl	$1, %edx
	callq	_KStore
	.loc	1 1192 5 is_stmt 0      # statemate.c:1192:5
	movb	%bl, statemate_FH_DU__EKS_LEISTE_AKTIV(%rip)
	movl	$statemate_FH_TUERMODUL__POSITION, %edi
	movl	$94, %esi
	movl	$4, %edx
	callq	_KLoad0
	.loc	1 1193 33 is_stmt 1     # statemate.c:1193:33
	movl	statemate_FH_TUERMODUL__POSITION(%rip), %ebx
	movl	$94, %edi
	movl	$94, %esi
	xorl	%edx, %edx
	callq	_KTimestamp1
	movl	$94, %edi
	movl	$statemate_FH_DU__POSITION, %esi
	movl	$4, %edx
	callq	_KStore
	.loc	1 1193 5 is_stmt 0      # statemate.c:1193:5
	movl	%ebx, statemate_FH_DU__POSITION(%rip)
	movl	$statemate_FH_TUERMODUL__FT, %edi
	movl	$95, %esi
	movl	$1, %edx
	callq	_KLoad0
	.loc	1 1194 27 is_stmt 1     # statemate.c:1194:27
	movb	statemate_FH_TUERMODUL__FT(%rip), %bl
	movl	$95, %edi
	movl	$95, %esi
	xorl	%edx, %edx
	callq	_KTimestamp1
	movl	$95, %edi
	movl	$statemate_FH_DU__FT, %esi
	movl	$1, %edx
	callq	_KStore
	.loc	1 1194 5 is_stmt 0      # statemate.c:1194:5
	movb	%bl, statemate_FH_DU__FT(%rip)
	movl	$statemate_FH_TUERMODUL__SFHA_MEC, %edi
	movl	$96, %esi
	movl	$1, %edx
	callq	_KLoad0
	.loc	1 1195 37 is_stmt 1     # statemate.c:1195:37
	movb	statemate_FH_TUERMODUL__SFHA_MEC(%rip), %bl
	movl	$96, %edi
	movl	$96, %esi
	xorl	%edx, %edx
	callq	_KTimestamp1
	movl	$96, %edi
	movl	$statemate_FH_DU__S_FH_AUFDISC, %esi
	movl	$1, %edx
	callq	_KStore
	.loc	1 1195 5 is_stmt 0      # statemate.c:1195:5
	movb	%bl, statemate_FH_DU__S_FH_AUFDISC(%rip)
	movl	$statemate_FH_TUERMODUL__SFHA_ZENTRAL, %edi
	movl	$97, %esi
	movl	$1, %edx
	callq	_KLoad0
	.loc	1 1196 35 is_stmt 1     # statemate.c:1196:35
	movb	statemate_FH_TUERMODUL__SFHA_ZENTRAL(%rip), %bl
	movl	$97, %edi
	movl	$97, %esi
	xorl	%edx, %edx
	callq	_KTimestamp1
	movl	$97, %edi
	movl	$statemate_FH_DU__S_FH_FTAUF, %esi
	movl	$1, %edx
	callq	_KStore
	.loc	1 1196 5 is_stmt 0      # statemate.c:1196:5
	movb	%bl, statemate_FH_DU__S_FH_FTAUF(%rip)
	movl	$statemate_FH_TUERMODUL__SFHZ_MEC, %edi
	movl	$98, %esi
	movl	$1, %edx
	callq	_KLoad0
	.loc	1 1197 36 is_stmt 1     # statemate.c:1197:36
	movb	statemate_FH_TUERMODUL__SFHZ_MEC(%rip), %bl
	movl	$98, %edi
	movl	$98, %esi
	xorl	%edx, %edx
	callq	_KTimestamp1
	movl	$98, %edi
	movl	$statemate_FH_DU__S_FH_ZUDISC, %esi
	movl	$1, %edx
	callq	_KStore
	.loc	1 1197 5 is_stmt 0      # statemate.c:1197:5
	movb	%bl, statemate_FH_DU__S_FH_ZUDISC(%rip)
	movl	$statemate_FH_TUERMODUL__SFHZ_ZENTRAL, %edi
	movl	$99, %esi
	movl	$1, %edx
	callq	_KLoad0
	.loc	1 1198 34 is_stmt 1     # statemate.c:1198:34
	movb	statemate_FH_TUERMODUL__SFHZ_ZENTRAL(%rip), %bl
	movl	$99, %edi
	movl	$99, %esi
	xorl	%edx, %edx
	callq	_KTimestamp1
	movl	$99, %edi
	movl	$statemate_FH_DU__S_FH_FTZU, %esi
	movl	$1, %edx
	callq	_KStore
	.loc	1 1198 5 is_stmt 0      # statemate.c:1198:5
	movb	%bl, statemate_FH_DU__S_FH_FTZU(%rip)
	movl	$statemate_FH_TUERMODUL__KL_50, %edi
	movl	$100, %esi
	movl	$1, %edx
	callq	_KLoad0
	.loc	1 1199 30 is_stmt 1     # statemate.c:1199:30
	movb	statemate_FH_TUERMODUL__KL_50(%rip), %bl
	movl	$100, %edi
	movl	$100, %esi
	xorl	%edx, %edx
	callq	_KTimestamp1
	movl	$100, %edi
	movl	$statemate_FH_DU__KL_50, %esi
	movl	$1, %edx
	callq	_KStore
	.loc	1 1199 5 is_stmt 0      # statemate.c:1199:5
	movb	%bl, statemate_FH_DU__KL_50(%rip)
	movl	$statemate_FH_TUERMODUL__BLOCK, %edi
	movl	$101, %esi
	movl	$1, %edx
	callq	_KLoad0
	.loc	1 1200 30 is_stmt 1     # statemate.c:1200:30
	movb	statemate_FH_TUERMODUL__BLOCK(%rip), %bl
	movl	$101, %edi
	movl	$101, %esi
	xorl	%edx, %edx
	callq	_KTimestamp1
	movl	$101, %edi
	movl	$statemate_FH_DU__BLOCK, %esi
	movl	$1, %edx
	callq	_KStore
	.loc	1 1200 5 is_stmt 0      # statemate.c:1200:5
	movb	%bl, statemate_FH_DU__BLOCK(%rip)
	movl	$statemate_bitlist+10, %edi
	movl	$102, %esi
	movl	$1, %edx
	callq	_KLoad0
	.loc	1 1202 5 is_stmt 1      # statemate.c:1202:5
	movb	statemate_bitlist+10(%rip), %bl
	movl	$102, %edi
	movl	$102, %esi
	xorl	%edx, %edx
	callq	_KTimestamp1
	movl	$102, %edi
	movl	$statemate_bitlist+11, %esi
	movl	$1, %edx
	callq	_KStore
	movb	%bl, statemate_bitlist+11(%rip)
	movl	$statemate_bitlist+13, %edi
	movl	$103, %esi
	movl	$1, %edx
	callq	_KLoad0
	.loc	1 1205 5                # statemate.c:1205:5
	movb	statemate_bitlist+13(%rip), %bl
	movl	$103, %edi
	movl	$103, %esi
	xorl	%edx, %edx
	callq	_KTimestamp1
	movl	$103, %edi
	movl	$statemate_bitlist+14, %esi
	movl	$1, %edx
	callq	_KStore
	movb	%bl, statemate_bitlist+14(%rip)
	movl	$statemate_bitlist+16, %edi
	movl	$104, %esi
	movl	$1, %edx
	callq	_KLoad0
	.loc	1 1208 5                # statemate.c:1208:5
	movb	statemate_bitlist+16(%rip), %bl
	movl	$104, %edi
	movl	$104, %esi
	xorl	%edx, %edx
	callq	_KTimestamp1
	movl	$104, %edi
	movl	$statemate_bitlist+17, %esi
	movl	$1, %edx
	callq	_KStore
	movb	%bl, statemate_bitlist+17(%rip)
	movl	$statemate_bitlist+19, %edi
	movl	$105, %esi
	movl	$1, %edx
	callq	_KLoad0
	.loc	1 1211 5                # statemate.c:1211:5
	movb	statemate_bitlist+19(%rip), %bl
	movl	$105, %edi
	movl	$105, %esi
	xorl	%edx, %edx
	callq	_KTimestamp1
	movl	$105, %edi
	movl	$statemate_bitlist+20, %esi
	movl	$1, %edx
	callq	_KStore
	movb	%bl, statemate_bitlist+20(%rip)
	movl	$statemate_FH_TUERMODUL_CTRL__N, %edi
	movl	$106, %esi
	movl	$4, %edx
	callq	_KLoad0
	.loc	1 1214 42               # statemate.c:1214:42
	movl	statemate_FH_TUERMODUL_CTRL__N(%rip), %ebx
	movl	$106, %edi
	movl	$106, %esi
	xorl	%edx, %edx
	callq	_KTimestamp1
	movl	$106, %edi
	movl	$statemate_FH_TUERMODUL_CTRL__N_old, %esi
	movl	$4, %edx
	callq	_KStore
	.loc	1 1214 5 is_stmt 0      # statemate.c:1214:5
	movl	%ebx, statemate_FH_TUERMODUL_CTRL__N_old(%rip)
	movl	$statemate_FH_TUERMODUL__I_EIN, %edi
	movl	$107, %esi
	movl	$4, %edx
	callq	_KLoad0
	.loc	1 1215 41 is_stmt 1     # statemate.c:1215:41
	movl	statemate_FH_TUERMODUL__I_EIN(%rip), %ebx
	movl	$107, %edi
	movl	$107, %esi
	xorl	%edx, %edx
	callq	_KTimestamp1
	movl	$107, %edi
	movl	$statemate_FH_TUERMODUL__I_EIN_old, %esi
	movl	$4, %edx
	callq	_KStore
	.loc	1 1215 5 is_stmt 0      # statemate.c:1215:5
	movl	%ebx, statemate_FH_TUERMODUL__I_EIN_old(%rip)
	movl	$statemate_FH_DU__MFH_copy, %edi
	movl	$108, %esi
	movl	$4, %edx
	callq	_KLoad0
	.loc	1 1216 28 is_stmt 1     # statemate.c:1216:28
	movl	statemate_FH_DU__MFH_copy(%rip), %ebx
	movl	$108, %edi
	movl	$108, %esi
	xorl	%edx, %edx
	callq	_KTimestamp1
	movl	$108, %edi
	movl	$statemate_FH_DU__MFH, %esi
	movl	$4, %edx
	callq	_KStore
	.loc	1 1216 5 is_stmt 0      # statemate.c:1216:5
	movl	%ebx, statemate_FH_DU__MFH(%rip)
	movl	$statemate_FH_DU__I_EIN, %edi
	movl	$109, %esi
	movl	$4, %edx
	callq	_KLoad0
	.loc	1 1217 34 is_stmt 1     # statemate.c:1217:34
	movl	statemate_FH_DU__I_EIN(%rip), %ebx
	movl	$109, %edi
	movl	$109, %esi
	xorl	%edx, %edx
	callq	_KTimestamp1
	movl	$109, %edi
	movl	$statemate_FH_DU__I_EIN_old, %esi
	movl	$4, %edx
	callq	_KStore
	.loc	1 1217 5 is_stmt 0      # statemate.c:1217:5
	movl	%ebx, statemate_FH_DU__I_EIN_old(%rip)
	movl	$statemate_BLOCK_ERKENNUNG_CTRL__N, %edi
	movl	$110, %esi
	movl	$4, %edx
	callq	_KLoad0
	.loc	1 1218 45 is_stmt 1     # statemate.c:1218:45
	movl	statemate_BLOCK_ERKENNUNG_CTRL__N(%rip), %ebx
	movl	$110, %edi
	movl	$110, %esi
	xorl	%edx, %edx
	callq	_KTimestamp1
	movl	$110, %edi
	movl	$statemate_BLOCK_ERKENNUNG_CTRL__N_old, %esi
	movl	$4, %edx
	callq	_KStore
	.loc	1 1218 5 is_stmt 0      # statemate.c:1218:5
	movl	%ebx, statemate_BLOCK_ERKENNUNG_CTRL__N_old(%rip)
	movl	$statemate_FH_TUERMODUL__SFHZ_ZENTRAL, %edi
	movl	$111, %esi
	movl	$1, %edx
	callq	_KLoad0
	.loc	1 1219 48 is_stmt 1     # statemate.c:1219:48
	movb	statemate_FH_TUERMODUL__SFHZ_ZENTRAL(%rip), %bl
	movl	$111, %edi
	movl	$111, %esi
	xorl	%edx, %edx
	callq	_KTimestamp1
	movl	$111, %edi
	movl	$statemate_FH_TUERMODUL__SFHZ_ZENTRAL_old, %esi
	movl	$1, %edx
	callq	_KStore
	.loc	1 1219 5 is_stmt 0      # statemate.c:1219:5
	movb	%bl, statemate_FH_TUERMODUL__SFHZ_ZENTRAL_old(%rip)
	movl	$statemate_FH_TUERMODUL__SFHZ_MEC, %edi
	movl	$112, %esi
	movl	$1, %edx
	callq	_KLoad0
	.loc	1 1220 44 is_stmt 1     # statemate.c:1220:44
	movb	statemate_FH_TUERMODUL__SFHZ_MEC(%rip), %bl
	movl	$112, %edi
	movl	$112, %esi
	xorl	%edx, %edx
	callq	_KTimestamp1
	movl	$112, %edi
	movl	$statemate_FH_TUERMODUL__SFHZ_MEC_old, %esi
	movl	$1, %edx
	callq	_KStore
	.loc	1 1220 5 is_stmt 0      # statemate.c:1220:5
	movb	%bl, statemate_FH_TUERMODUL__SFHZ_MEC_old(%rip)
	movl	$statemate_FH_TUERMODUL__SFHA_ZENTRAL, %edi
	movl	$113, %esi
	movl	$1, %edx
	callq	_KLoad0
	.loc	1 1221 48 is_stmt 1     # statemate.c:1221:48
	movb	statemate_FH_TUERMODUL__SFHA_ZENTRAL(%rip), %bl
	movl	$113, %edi
	movl	$113, %esi
	xorl	%edx, %edx
	callq	_KTimestamp1
	movl	$113, %edi
	movl	$statemate_FH_TUERMODUL__SFHA_ZENTRAL_old, %esi
	movl	$1, %edx
	callq	_KStore
	.loc	1 1221 5 is_stmt 0      # statemate.c:1221:5
	movb	%bl, statemate_FH_TUERMODUL__SFHA_ZENTRAL_old(%rip)
	movl	$statemate_FH_TUERMODUL__SFHA_MEC, %edi
	movl	$114, %esi
	movl	$1, %edx
	callq	_KLoad0
	.loc	1 1222 44 is_stmt 1     # statemate.c:1222:44
	movb	statemate_FH_TUERMODUL__SFHA_MEC(%rip), %bl
	movl	$114, %edi
	movl	$114, %esi
	xorl	%edx, %edx
	callq	_KTimestamp1
	movl	$114, %edi
	movl	$statemate_FH_TUERMODUL__SFHA_MEC_old, %esi
	movl	$1, %edx
	callq	_KStore
	.loc	1 1222 5 is_stmt 0      # statemate.c:1222:5
	movb	%bl, statemate_FH_TUERMODUL__SFHA_MEC_old(%rip)
	movl	$statemate_FH_TUERMODUL__BLOCK_copy, %edi
	movl	$115, %esi
	movl	$1, %edx
	callq	_KLoad0
	.loc	1 1223 37 is_stmt 1     # statemate.c:1223:37
	movb	statemate_FH_TUERMODUL__BLOCK_copy(%rip), %bl
	movl	$115, %edi
	movl	$115, %esi
	xorl	%edx, %edx
	callq	_KTimestamp1
	movl	$115, %edi
	movl	$statemate_FH_TUERMODUL__BLOCK, %esi
	movl	$1, %edx
	callq	_KStore
	.loc	1 1223 5 is_stmt 0      # statemate.c:1223:5
	movb	%bl, statemate_FH_TUERMODUL__BLOCK(%rip)
	movl	$statemate_FH_TUERMODUL__BLOCK, %edi
	movl	$116, %esi
	movl	$1, %edx
	callq	_KLoad0
	.loc	1 1224 41 is_stmt 1     # statemate.c:1224:41
	movb	statemate_FH_TUERMODUL__BLOCK(%rip), %bl
	movl	$116, %edi
	movl	$116, %esi
	xorl	%edx, %edx
	callq	_KTimestamp1
	movl	$116, %edi
	movl	$statemate_FH_TUERMODUL__BLOCK_old, %esi
	movl	$1, %edx
	callq	_KStore
	.loc	1 1224 5 is_stmt 0      # statemate.c:1224:5
	movb	%bl, statemate_FH_TUERMODUL__BLOCK_old(%rip)
	movl	$statemate_FH_TUERMODUL__SFHZ_copy, %edi
	movl	$117, %esi
	movl	$1, %edx
	callq	_KLoad0
	.loc	1 1225 36 is_stmt 1     # statemate.c:1225:36
	movb	statemate_FH_TUERMODUL__SFHZ_copy(%rip), %bl
	movl	$117, %edi
	movl	$117, %esi
	xorl	%edx, %edx
	callq	_KTimestamp1
	movl	$117, %edi
	movl	$statemate_FH_TUERMODUL__SFHZ, %esi
	movl	$1, %edx
	callq	_KStore
	.loc	1 1225 5 is_stmt 0      # statemate.c:1225:5
	movb	%bl, statemate_FH_TUERMODUL__SFHZ(%rip)
	movl	$statemate_FH_TUERMODUL__SFHZ, %edi
	movl	$118, %esi
	movl	$1, %edx
	callq	_KLoad0
	.loc	1 1226 40 is_stmt 1     # statemate.c:1226:40
	movb	statemate_FH_TUERMODUL__SFHZ(%rip), %bl
	movl	$118, %edi
	movl	$118, %esi
	xorl	%edx, %edx
	callq	_KTimestamp1
	movl	$118, %edi
	movl	$statemate_FH_TUERMODUL__SFHZ_old, %esi
	movl	$1, %edx
	callq	_KStore
	.loc	1 1226 5 is_stmt 0      # statemate.c:1226:5
	movb	%bl, statemate_FH_TUERMODUL__SFHZ_old(%rip)
	movl	$statemate_FH_TUERMODUL__SFHA_copy, %edi
	movl	$119, %esi
	movl	$1, %edx
	callq	_KLoad0
	.loc	1 1227 36 is_stmt 1     # statemate.c:1227:36
	movb	statemate_FH_TUERMODUL__SFHA_copy(%rip), %bl
	movl	$119, %edi
	movl	$119, %esi
	xorl	%edx, %edx
	callq	_KTimestamp1
	movl	$119, %edi
	movl	$statemate_FH_TUERMODUL__SFHA, %esi
	movl	$1, %edx
	callq	_KStore
	.loc	1 1227 5 is_stmt 0      # statemate.c:1227:5
	movb	%bl, statemate_FH_TUERMODUL__SFHA(%rip)
	movl	$statemate_FH_TUERMODUL__SFHA, %edi
	movl	$120, %esi
	movl	$1, %edx
	callq	_KLoad0
	.loc	1 1228 40 is_stmt 1     # statemate.c:1228:40
	movb	statemate_FH_TUERMODUL__SFHA(%rip), %bl
	movl	$120, %edi
	movl	$120, %esi
	xorl	%edx, %edx
	callq	_KTimestamp1
	movl	$120, %edi
	movl	$statemate_FH_TUERMODUL__SFHA_old, %esi
	movl	$1, %edx
	callq	_KStore
	.loc	1 1228 5 is_stmt 0      # statemate.c:1228:5
	movb	%bl, statemate_FH_TUERMODUL__SFHA_old(%rip)
	movl	$statemate_FH_TUERMODUL__MFHZ_copy, %edi
	movl	$121, %esi
	movl	$1, %edx
	callq	_KLoad0
	.loc	1 1229 36 is_stmt 1     # statemate.c:1229:36
	movb	statemate_FH_TUERMODUL__MFHZ_copy(%rip), %bl
	movl	$121, %edi
	movl	$121, %esi
	xorl	%edx, %edx
	callq	_KTimestamp1
	movl	$121, %edi
	movl	$statemate_FH_TUERMODUL__MFHZ, %esi
	movl	$1, %edx
	callq	_KStore
	.loc	1 1229 5 is_stmt 0      # statemate.c:1229:5
	movb	%bl, statemate_FH_TUERMODUL__MFHZ(%rip)
	movl	$statemate_FH_TUERMODUL__MFHZ, %edi
	movl	$122, %esi
	movl	$1, %edx
	callq	_KLoad0
	.loc	1 1230 40 is_stmt 1     # statemate.c:1230:40
	movb	statemate_FH_TUERMODUL__MFHZ(%rip), %bl
	movl	$122, %edi
	movl	$122, %esi
	xorl	%edx, %edx
	callq	_KTimestamp1
	movl	$122, %edi
	movl	$statemate_FH_TUERMODUL__MFHZ_old, %esi
	movl	$1, %edx
	callq	_KStore
	.loc	1 1230 5 is_stmt 0      # statemate.c:1230:5
	movb	%bl, statemate_FH_TUERMODUL__MFHZ_old(%rip)
	movl	$statemate_FH_TUERMODUL__MFHA_copy, %edi
	movl	$123, %esi
	movl	$1, %edx
	callq	_KLoad0
	.loc	1 1231 36 is_stmt 1     # statemate.c:1231:36
	movb	statemate_FH_TUERMODUL__MFHA_copy(%rip), %bl
	movl	$123, %edi
	movl	$123, %esi
	xorl	%edx, %edx
	callq	_KTimestamp1
	movl	$123, %edi
	movl	$statemate_FH_TUERMODUL__MFHA, %esi
	movl	$1, %edx
	callq	_KStore
	.loc	1 1231 5 is_stmt 0      # statemate.c:1231:5
	movb	%bl, statemate_FH_TUERMODUL__MFHA(%rip)
	movl	$statemate_FH_TUERMODUL__MFHA, %edi
	movl	$124, %esi
	movl	$1, %edx
	callq	_KLoad0
	.loc	1 1232 40 is_stmt 1     # statemate.c:1232:40
	movb	statemate_FH_TUERMODUL__MFHA(%rip), %bl
	movl	$124, %edi
	movl	$124, %esi
	xorl	%edx, %edx
	callq	_KTimestamp1
	movl	$124, %edi
	movl	$statemate_FH_TUERMODUL__MFHA_old, %esi
	movl	$1, %edx
	callq	_KStore
	.loc	1 1232 5 is_stmt 0      # statemate.c:1232:5
	movb	%bl, statemate_FH_TUERMODUL__MFHA_old(%rip)
	movl	$statemate_FH_TUERMODUL__EKS_LEISTE_AKTIV, %edi
	movl	$125, %esi
	movl	$1, %edx
	callq	_KLoad0
	.loc	1 1234 7 is_stmt 1      # statemate.c:1234:7
	movb	statemate_FH_TUERMODUL__EKS_LEISTE_AKTIV(%rip), %bl
	movl	$125, %edi
	movl	$125, %esi
	xorl	%edx, %edx
	callq	_KTimestamp1
	movl	$125, %edi
	movl	$statemate_FH_TUERMODUL__EKS_LEISTE_AKTIV_old, %esi
	movl	$1, %edx
	callq	_KStore
	.loc	1 1233 5                # statemate.c:1233:5
	movb	%bl, statemate_FH_TUERMODUL__EKS_LEISTE_AKTIV_old(%rip)
	movl	$statemate_FH_DU__EKS_LEISTE_AKTIV, %edi
	movl	$126, %esi
	movl	$1, %edx
	callq	_KLoad0
	.loc	1 1235 45               # statemate.c:1235:45
	movb	statemate_FH_DU__EKS_LEISTE_AKTIV(%rip), %bl
	movl	$126, %edi
	movl	$126, %esi
	xorl	%edx, %edx
	callq	_KTimestamp1
	movl	$126, %edi
	movl	$statemate_FH_DU__EKS_LEISTE_AKTIV_old, %esi
	movl	$1, %edx
	callq	_KStore
	.loc	1 1235 5 is_stmt 0      # statemate.c:1235:5
	movb	%bl, statemate_FH_DU__EKS_LEISTE_AKTIV_old(%rip)
	movl	$statemate_FH_DU__S_FH_TMBFAUFCAN, %edi
	movl	$127, %esi
	movl	$1, %edx
	callq	_KLoad0
	.loc	1 1236 44 is_stmt 1     # statemate.c:1236:44
	movb	statemate_FH_DU__S_FH_TMBFAUFCAN(%rip), %bl
	movl	$127, %edi
	movl	$127, %esi
	xorl	%edx, %edx
	callq	_KTimestamp1
	movl	$127, %edi
	movl	$statemate_FH_DU__S_FH_TMBFAUFCAN_old, %esi
	movl	$1, %edx
	callq	_KStore
	.loc	1 1236 5 is_stmt 0      # statemate.c:1236:5
	movb	%bl, statemate_FH_DU__S_FH_TMBFAUFCAN_old(%rip)
	movl	$statemate_FH_DU__S_FH_TMBFZUCAN, %edi
	movl	$128, %esi
	movl	$1, %edx
	callq	_KLoad0
	.loc	1 1237 43 is_stmt 1     # statemate.c:1237:43
	movb	statemate_FH_DU__S_FH_TMBFZUCAN(%rip), %bl
	movl	$128, %edi
	movl	$128, %esi
	xorl	%edx, %edx
	callq	_KTimestamp1
	movl	$128, %edi
	movl	$statemate_FH_DU__S_FH_TMBFZUCAN_old, %esi
	movl	$1, %edx
	callq	_KStore
	.loc	1 1237 5 is_stmt 0      # statemate.c:1237:5
	movb	%bl, statemate_FH_DU__S_FH_TMBFZUCAN_old(%rip)
	movl	$statemate_FH_DU__S_FH_TMBFZUDISC, %edi
	movl	$129, %esi
	movl	$1, %edx
	callq	_KLoad0
	.loc	1 1238 44 is_stmt 1     # statemate.c:1238:44
	movb	statemate_FH_DU__S_FH_TMBFZUDISC(%rip), %bl
	movl	$129, %edi
	movl	$129, %esi
	xorl	%edx, %edx
	callq	_KTimestamp1
	movl	$129, %edi
	movl	$statemate_FH_DU__S_FH_TMBFZUDISC_old, %esi
	movl	$1, %edx
	callq	_KStore
	.loc	1 1238 5 is_stmt 0      # statemate.c:1238:5
	movb	%bl, statemate_FH_DU__S_FH_TMBFZUDISC_old(%rip)
	movl	$statemate_FH_DU__S_FH_TMBFAUFDISC, %edi
	movl	$130, %esi
	movl	$1, %edx
	callq	_KLoad0
	.loc	1 1239 45 is_stmt 1     # statemate.c:1239:45
	movb	statemate_FH_DU__S_FH_TMBFAUFDISC(%rip), %bl
	movl	$130, %edi
	movl	$130, %esi
	xorl	%edx, %edx
	callq	_KTimestamp1
	movl	$130, %edi
	movl	$statemate_FH_DU__S_FH_TMBFAUFDISC_old, %esi
	movl	$1, %edx
	callq	_KStore
	.loc	1 1239 5 is_stmt 0      # statemate.c:1239:5
	movb	%bl, statemate_FH_DU__S_FH_TMBFAUFDISC_old(%rip)
	movl	$statemate_FH_DU__BLOCK_copy, %edi
	movl	$131, %esi
	movl	$1, %edx
	callq	_KLoad0
	.loc	1 1240 30 is_stmt 1     # statemate.c:1240:30
	movb	statemate_FH_DU__BLOCK_copy(%rip), %bl
	movl	$131, %edi
	movl	$131, %esi
	xorl	%edx, %edx
	callq	_KTimestamp1
	movl	$131, %edi
	movl	$statemate_FH_DU__BLOCK, %esi
	movl	$1, %edx
	callq	_KStore
	.loc	1 1240 5 is_stmt 0      # statemate.c:1240:5
	movb	%bl, statemate_FH_DU__BLOCK(%rip)
	movl	$statemate_FH_DU__BLOCK, %edi
	movl	$132, %esi
	movl	$1, %edx
	callq	_KLoad0
	.loc	1 1241 34 is_stmt 1     # statemate.c:1241:34
	movb	statemate_FH_DU__BLOCK(%rip), %bl
	movl	$132, %edi
	movl	$132, %esi
	xorl	%edx, %edx
	callq	_KTimestamp1
	movl	$132, %edi
	movl	$statemate_FH_DU__BLOCK_old, %esi
	movl	$1, %edx
	callq	_KStore
	.loc	1 1241 5 is_stmt 0      # statemate.c:1241:5
	movb	%bl, statemate_FH_DU__BLOCK_old(%rip)
	movl	$statemate_FH_DU__MFHZ_copy, %edi
	movl	$133, %esi
	movl	$1, %edx
	callq	_KLoad0
	.loc	1 1242 29 is_stmt 1     # statemate.c:1242:29
	movb	statemate_FH_DU__MFHZ_copy(%rip), %bl
	movl	$133, %edi
	movl	$133, %esi
	xorl	%edx, %edx
	callq	_KTimestamp1
	movl	$133, %edi
	movl	$statemate_FH_DU__MFHZ, %esi
	movl	$1, %edx
	callq	_KStore
	.loc	1 1242 5 is_stmt 0      # statemate.c:1242:5
	movb	%bl, statemate_FH_DU__MFHZ(%rip)
	movl	$statemate_FH_DU__MFHZ, %edi
	movl	$134, %esi
	movl	$1, %edx
	callq	_KLoad0
	.loc	1 1243 33 is_stmt 1     # statemate.c:1243:33
	movb	statemate_FH_DU__MFHZ(%rip), %bl
	movl	$134, %edi
	movl	$134, %esi
	xorl	%edx, %edx
	callq	_KTimestamp1
	movl	$134, %edi
	movl	$statemate_FH_DU__MFHZ_old, %esi
	movl	$1, %edx
	callq	_KStore
	.loc	1 1243 5 is_stmt 0      # statemate.c:1243:5
	movb	%bl, statemate_FH_DU__MFHZ_old(%rip)
	movl	$statemate_FH_DU__MFHA_copy, %edi
	movl	$135, %esi
	movl	$1, %edx
	callq	_KLoad0
	.loc	1 1244 29 is_stmt 1     # statemate.c:1244:29
	movb	statemate_FH_DU__MFHA_copy(%rip), %bl
	movl	$135, %edi
	movl	$135, %esi
	xorl	%edx, %edx
	callq	_KTimestamp1
	movl	$135, %edi
	movl	$statemate_FH_DU__MFHA, %esi
	movl	$1, %edx
	callq	_KStore
	.loc	1 1244 5 is_stmt 0      # statemate.c:1244:5
	movb	%bl, statemate_FH_DU__MFHA(%rip)
	movl	$statemate_FH_DU__MFHA, %edi
	movl	$136, %esi
	movl	$1, %edx
	callq	_KLoad0
	.loc	1 1245 33 is_stmt 1     # statemate.c:1245:33
	movb	statemate_FH_DU__MFHA(%rip), %bl
	movl	$136, %edi
	movl	$136, %esi
	xorl	%edx, %edx
	callq	_KTimestamp1
	movl	$136, %edi
	movl	$statemate_FH_DU__MFHA_old, %esi
	movl	$1, %edx
	callq	_KStore
	.loc	1 1245 5 is_stmt 0      # statemate.c:1245:5
	movb	%bl, statemate_FH_DU__MFHA_old(%rip)
	callq	_KPopCDep
	movl	$2, %esi
	movq	%r14, %rdi
	callq	_KExitRegion
	movl	$1, %edi
	callq	_KWork
	movl	$3, %edi
	movl	$4, %esi
	movl	$1, %edx
	callq	_KTimestamp1
.Ltmp331:
	.loc	1 1005 3 is_stmt 1      # statemate.c:1005:3
	decl	%r12d
	jne	.LBB6_1
.Ltmp332:
# BB#40:                                # %for.cond.pre_exit.for.end
	#DEBUG_VALUE: statemate_FH_DU:i <- 0
	movl	$1, %esi
	movabsq	$-8725827471446488721, %rdi # imm = 0x86E7A2256916496F
	callq	_KExitRegion
	xorl	%esi, %esi
	movabsq	$-5697918106437472821, %rdi # imm = 0xB0ECEDABCA872DCB
	addq	$56, %rsp
	popq	%rbx
	popq	%r12
	popq	%r13
	popq	%r14
	popq	%r15
	popq	%rbp
	jmp	_KExitRegion            # TAILCALL
.Ltmp333:
	.size	statemate_FH_DU, .Ltmp333-statemate_FH_DU
.Lfunc_end6:
	.cfi_endproc

	.globl	statemate_return
	.align	16, 0x90
	.type	statemate_return,@function
statemate_return:                       # @statemate_return
.Lfunc_begin7:
	.loc	1 1257 0                # statemate.c:1257:0
	.cfi_startproc
# BB#0:                                 # %entry
	pushq	%rbp
.Ltmp334:
	.cfi_def_cfa_offset 16
.Ltmp335:
	.cfi_offset %rbp, -16
	movq	%rsp, %rbp
.Ltmp336:
	.cfi_def_cfa_register %rbp
	pushq	%r15
	pushq	%r14
	pushq	%r13
	pushq	%r12
	pushq	%rbx
	subq	$40, %rsp
.Ltmp337:
	.cfi_offset %rbx, -56
.Ltmp338:
	.cfi_offset %r12, -48
.Ltmp339:
	.cfi_offset %r13, -40
.Ltmp340:
	.cfi_offset %r14, -32
.Ltmp341:
	.cfi_offset %r15, -24
	movabsq	$-2057887170158806657, %rbx # imm = 0xE370EA859AD9B97F
	movabsq	$1435996922497610194, %rdi # imm = 0x13EDAF97C00631D2
	xorl	%r15d, %r15d
	xorl	%esi, %esi
	callq	_KEnterRegion
	movl	$8, %edi
	movl	$2, %esi
	callq	_KPrepRTable
.Ltmp342:
	#DEBUG_VALUE: statemate_return:index <- 63
	#DEBUG_VALUE: statemate_return:checksum <- 0
	movl	$1, %esi
	movq	%rbx, %rdi
	callq	_KEnterRegion
	movl	$63, %ebx
	movabsq	$-5014748718808535632, %r12 # imm = 0xBA68089C09926DB0
	xorl	%r13d, %r13d
	xorl	%r14d, %r14d
	xorl	%eax, %eax
	movq	%rax, -48(%rbp)         # 8-byte Spill
	jmp	.LBB7_1
	.align	16, 0x90
.LBB7_2:                                # %for.body
                                        #   in Loop: Header=BB7_1 Depth=1
	#DEBUG_VALUE: statemate_return:checksum <- 0
	#DEBUG_VALUE: statemate_return:index <- 63
	movl	$2, %esi
	movq	%r12, %rdi
	callq	_KEnterRegion
	movl	$6, %r13d
	movl	$6, %edi
	callq	_KPushCDep
	movl	$7, %r14d
	movl	$7, %edi
	callq	_KWork
	leaq	statemate_bitlist(%rbx), %rdi
	movl	$1, %esi
	movl	$2, %edx
	movl	$1, %ecx
	callq	_KLoad1
	.loc	1 1261 34 prologue_end  # statemate.c:1261:34
.Ltmp343:
	movsbl	statemate_bitlist(%rbx), %eax
	movb	%bl, %cl
	shll	%cl, %eax
	.loc	1 1261 17 is_stmt 0     # statemate.c:1261:17
	cltq
	.loc	1 1261 5                # statemate.c:1261:5
	addq	%rax, -48(%rbp)         # 8-byte Folded Spill
.Ltmp344:
	#DEBUG_VALUE: statemate_return:checksum <- [RBP+-48]
	.loc	1 1260 3 is_stmt 1      # statemate.c:1260:3
	decq	%rbx
	movl	$2, 16(%rsp)
	movl	$1, 8(%rsp)
	movl	$2, (%rsp)
	movl	$7, %edi
	movl	$2, %esi
	movl	$2, %edx
	movl	$4, %ecx
	movl	$1, %r8d
	movl	$6, %r9d
	callq	_KTimestamp4
	movl	$5, %r15d
	movl	$5, %edi
	movl	$2, %esi
	movl	$1, %edx
	movl	$6, %ecx
	movl	$1, %r8d
	callq	_KTimestamp2
	callq	_KPopCDep
	movl	$2, %esi
	movq	%r12, %rdi
	callq	_KExitRegion
.Ltmp345:
.LBB7_1:                                # %for.cond
                                        # =>This Inner Loop Header: Depth=1
	#DEBUG_VALUE: statemate_return:checksum <- 0
	#DEBUG_VALUE: statemate_return:index <- 63
	movl	$4, %edi
	movl	%r14d, %esi
	movl	%r13d, %edx
	callq	_KPhi1To1
	movl	$2, %edi
	movl	%r15d, %esi
	movl	%r13d, %edx
	callq	_KPhi1To1
	movl	$1, %edi
	callq	_KWork
	movl	$6, %edi
	movl	$2, %esi
	movl	$1, %edx
	callq	_KTimestamp1
	movl	$2, %edi
	movl	$6, %esi
	callq	_KPhiAddCond
	movl	$4, %edi
	movl	$6, %esi
	callq	_KPhiAddCond
	movl	$4, %edi
	movl	$4, %esi
	xorl	%edx, %edx
	callq	_KTimestamp1
	movl	$2, %edi
	movl	$2, %esi
	xorl	%edx, %edx
	callq	_KTimestamp1
	.loc	1 1260 3 is_stmt 0      # statemate.c:1260:3
	testq	%rbx, %rbx
	jns	.LBB7_2
.Ltmp346:
# BB#3:                                 # %for.cond.pre_exit.for.end
	#DEBUG_VALUE: statemate_return:checksum <- 0
	#DEBUG_VALUE: statemate_return:index <- 63
	movl	$1, %esi
	movabsq	$-2057887170158806657, %rdi # imm = 0xE370EA859AD9B97F
	callq	_KExitRegion
	movl	$1, %edi
	callq	_KWork
	.loc	1 1263 10 is_stmt 1     # statemate.c:1263:10
	cmpq	$-2, -48(%rbp)          # 8-byte Folded Reload
	sete	%al
	movzbl	%al, %ebx
	movl	$3, %edi
	movl	$4, %esi
	movl	$1, %edx
	callq	_KTimestamp1
	movl	$3, %edi
	callq	_KReturn
	xorl	%esi, %esi
	movabsq	$1435996922497610194, %rdi # imm = 0x13EDAF97C00631D2
	callq	_KExitRegion
	.loc	1 1263 3 is_stmt 0      # statemate.c:1263:3
	movl	%ebx, %eax
	addq	$40, %rsp
	popq	%rbx
	popq	%r12
	popq	%r13
	popq	%r14
	popq	%r15
	popq	%rbp
	retq
.Ltmp347:
.Ltmp348:
	.size	statemate_return, .Ltmp348-statemate_return
.Lfunc_end7:
	.cfi_endproc

	.globl	statemate_main
	.align	16, 0x90
	.type	statemate_main,@function
statemate_main:                         # @statemate_main
.Lfunc_begin8:
	.loc	1 1267 0 is_stmt 1      # statemate.c:1267:0
	.cfi_startproc
# BB#0:                                 # %entry
	pushq	%rbp
.Ltmp349:
	.cfi_def_cfa_offset 16
.Ltmp350:
	.cfi_offset %rbp, -16
	movq	%rsp, %rbp
.Ltmp351:
	.cfi_def_cfa_register %rbp
	pushq	%rbx
	pushq	%rax
.Ltmp352:
	.cfi_offset %rbx, -24
	movabsq	$-6894762015811119242, %rbx # imm = 0xA050E27A04B8D776
	xorl	%esi, %esi
	movq	%rbx, %rdi
	callq	_KEnterRegion
	movl	$1, %edi
	xorl	%esi, %esi
	callq	_KPrepRTable
	movabsq	$-3876221133980603606, %rdi # imm = 0xCA34E56A6E396B2A
	xorl	%esi, %esi
	callq	_KPrepCall
	.loc	1 1268 3 prologue_end   # statemate.c:1268:3
.Ltmp353:
	callq	statemate_FH_DU
	xorl	%esi, %esi
	movq	%rbx, %rdi
	addq	$8, %rsp
	popq	%rbx
	popq	%rbp
	jmp	_KExitRegion            # TAILCALL
.Ltmp354:
.Ltmp355:
	.size	statemate_main, .Ltmp355-statemate_main
.Lfunc_end8:
	.cfi_endproc

	.globl	__main
	.align	16, 0x90
	.type	__main,@function
__main:                                 # @__main
.Lfunc_begin9:
	.loc	1 1273 0                # statemate.c:1273:0
	.cfi_startproc
# BB#0:                                 # %entry
	pushq	%rbp
.Ltmp356:
	.cfi_def_cfa_offset 16
.Ltmp357:
	.cfi_offset %rbp, -16
	movq	%rsp, %rbp
.Ltmp358:
	.cfi_def_cfa_register %rbp
	pushq	%r14
	pushq	%rbx
.Ltmp359:
	.cfi_offset %rbx, -32
.Ltmp360:
	.cfi_offset %r14, -24
	callq	_KInit
	movabsq	$-3677947425469889523, %r14 # imm = 0xCCF54E4D9A4E040D
	xorl	%esi, %esi
	movq	%r14, %rdi
	callq	_KEnterRegion
	movl	$2, %edi
	xorl	%esi, %esi
	callq	_KPrepRTable
	movabsq	$-2906849119607319945, %rdi # imm = 0xD7A8CC207A261277
	xorl	%esi, %esi
	callq	_KPrepCall
	.loc	1 1274 3 prologue_end   # statemate.c:1274:3
.Ltmp361:
	callq	statemate_init
	movabsq	$5997416269371473326, %rdi # imm = 0x533B1A524208FDAE
	xorl	%esi, %esi
	callq	_KPrepCall
	movabsq	$-6894762015811119242, %rbx # imm = 0xA050E27A04B8D776
	xorl	%esi, %esi
	.loc	1 1275 3                # statemate.c:1275:3
	movq	%rbx, %rdi
	callq	_KEnterRegion
	movl	$1, %edi
	xorl	%esi, %esi
	callq	_KPrepRTable
	movabsq	$-3876221133980603606, %rdi # imm = 0xCA34E56A6E396B2A
	xorl	%esi, %esi
	callq	_KPrepCall
	.loc	1 1268 3                # statemate.c:1268:3
.Ltmp362:
	callq	statemate_FH_DU
	xorl	%esi, %esi
.Ltmp363:
	.loc	1 1275 3                # statemate.c:1275:3
	movq	%rbx, %rdi
	callq	_KExitRegion
	movabsq	$2708700911247407296, %rdi # imm = 0x25973D20A1ADB8C0
	xorl	%esi, %esi
	callq	_KPrepCall
	movl	$1, %edi
	callq	_KLinkReturn
	.loc	1 1277 10               # statemate.c:1277:10
	callq	statemate_return
	movl	%eax, %ebx
	movl	$1, %edi
	movl	$1, %esi
	xorl	%edx, %edx
	callq	_KTimestamp1
	movl	$1, %edi
	callq	_KReturn
	xorl	%esi, %esi
	movq	%r14, %rdi
	callq	_KExitRegion
	callq	_KDeinit
	.loc	1 1277 3 is_stmt 0      # statemate.c:1277:3
	movl	%ebx, %eax
	popq	%rbx
	popq	%r14
	popq	%rbp
	retq
.Ltmp364:
.Ltmp365:
	.size	__main, .Ltmp365-__main
.Lfunc_end9:
	.cfi_endproc

	.type	statemate_tm_entered_EINSCHALTSTROM_MESSEN_BLOCK_ERKENNUNG_CTRLch_BLOCK_ERKENNUNG_CTRL__N_copy,@object # @statemate_tm_entered_EINSCHALTSTROM_MESSEN_BLOCK_ERKENNUNG_CTRLch_BLOCK_ERKENNUNG_CTRL__N_copy
	.comm	statemate_tm_entered_EINSCHALTSTROM_MESSEN_BLOCK_ERKENNUNG_CTRLch_BLOCK_ERKENNUNG_CTRL__N_copy,8,8
	.type	statemate_tm_entered_WIEDERHOLSPERRE_FH_TUERMODUL_CTRLexited_BEREIT_FH_TUERMODUL_CTRL,@object # @statemate_tm_entered_WIEDERHOLSPERRE_FH_TUERMODUL_CTRLexited_BEREIT_FH_TUERMODUL_CTRL
	.comm	statemate_tm_entered_WIEDERHOLSPERRE_FH_TUERMODUL_CTRLexited_BEREIT_FH_TUERMODUL_CTRL,8,8
	.type	statemate_tm_entered_WIEDERHOLSPERRE_FH_TUERMODUL_CTRL,@object # @statemate_tm_entered_WIEDERHOLSPERRE_FH_TUERMODUL_CTRL
	.comm	statemate_tm_entered_WIEDERHOLSPERRE_FH_TUERMODUL_CTRL,8,8
	.type	statemate_NICHT_INITIALISIERT_NICHT_INITIALISIERT_next_state,@object # @statemate_NICHT_INITIALISIERT_NICHT_INITIALISIERT_next_state
	.comm	statemate_NICHT_INITIALISIERT_NICHT_INITIALISIERT_next_state,1,1
	.type	statemate_ZENTRAL_KINDERSICHERUNG_CTRL_next_state,@object # @statemate_ZENTRAL_KINDERSICHERUNG_CTRL_next_state
	.comm	statemate_ZENTRAL_KINDERSICHERUNG_CTRL_next_state,1,1
	.type	statemate_MEC_KINDERSICHERUNG_CTRL_next_state,@object # @statemate_MEC_KINDERSICHERUNG_CTRL_next_state
	.comm	statemate_MEC_KINDERSICHERUNG_CTRL_next_state,1,1
	.type	statemate_KINDERSICHERUNG_CTRL_KINDERSICHERUNG_CTRL_next_state,@object # @statemate_KINDERSICHERUNG_CTRL_KINDERSICHERUNG_CTRL_next_state
	.comm	statemate_KINDERSICHERUNG_CTRL_KINDERSICHERUNG_CTRL_next_state,1,1
	.type	statemate_B_FH_TUERMODUL_CTRL_next_state,@object # @statemate_B_FH_TUERMODUL_CTRL_next_state
	.comm	statemate_B_FH_TUERMODUL_CTRL_next_state,1,1
	.type	statemate_A_FH_TUERMODUL_CTRL_next_state,@object # @statemate_A_FH_TUERMODUL_CTRL_next_state
	.comm	statemate_A_FH_TUERMODUL_CTRL_next_state,1,1
	.type	statemate_WIEDERHOLSPERRE_FH_TUERMODUL_CTRL_next_state,@object # @statemate_WIEDERHOLSPERRE_FH_TUERMODUL_CTRL_next_state
	.comm	statemate_WIEDERHOLSPERRE_FH_TUERMODUL_CTRL_next_state,1,1
	.type	statemate_INITIALISIERT_FH_TUERMODUL_CTRL_next_state,@object # @statemate_INITIALISIERT_FH_TUERMODUL_CTRL_next_state
	.comm	statemate_INITIALISIERT_FH_TUERMODUL_CTRL_next_state,1,1
	.type	statemate_TIPP_SCHLIESSEN_FH_TUERMODUL_CTRL_next_state,@object # @statemate_TIPP_SCHLIESSEN_FH_TUERMODUL_CTRL_next_state
	.comm	statemate_TIPP_SCHLIESSEN_FH_TUERMODUL_CTRL_next_state,1,1
	.type	statemate_MANUELL_SCHLIESSEN_FH_TUERMODUL_CTRL_next_state,@object # @statemate_MANUELL_SCHLIESSEN_FH_TUERMODUL_CTRL_next_state
	.comm	statemate_MANUELL_SCHLIESSEN_FH_TUERMODUL_CTRL_next_state,1,1
	.type	statemate_OEFFNEN_FH_TUERMODUL_CTRL_next_state,@object # @statemate_OEFFNEN_FH_TUERMODUL_CTRL_next_state
	.comm	statemate_OEFFNEN_FH_TUERMODUL_CTRL_next_state,1,1
	.type	statemate_SCHLIESSEN_FH_TUERMODUL_CTRL_next_state,@object # @statemate_SCHLIESSEN_FH_TUERMODUL_CTRL_next_state
	.comm	statemate_SCHLIESSEN_FH_TUERMODUL_CTRL_next_state,1,1
	.type	statemate_FH_STEUERUNG_DUMMY_FH_STEUERUNG_DUMMY_next_state,@object # @statemate_FH_STEUERUNG_DUMMY_FH_STEUERUNG_DUMMY_next_state
	.comm	statemate_FH_STEUERUNG_DUMMY_FH_STEUERUNG_DUMMY_next_state,1,1
	.type	statemate_EINKLEMMSCHUTZ_CTRL_EINKLEMMSCHUTZ_CTRL_next_state,@object # @statemate_EINKLEMMSCHUTZ_CTRL_EINKLEMMSCHUTZ_CTRL_next_state
	.comm	statemate_EINKLEMMSCHUTZ_CTRL_EINKLEMMSCHUTZ_CTRL_next_state,1,1
	.type	statemate_BEWEGUNG_BLOCK_ERKENNUNG_CTRL_next_state,@object # @statemate_BEWEGUNG_BLOCK_ERKENNUNG_CTRL_next_state
	.comm	statemate_BEWEGUNG_BLOCK_ERKENNUNG_CTRL_next_state,1,1
	.type	statemate_BLOCK_ERKENNUNG_CTRL_BLOCK_ERKENNUNG_CTRL_next_state,@object # @statemate_BLOCK_ERKENNUNG_CTRL_BLOCK_ERKENNUNG_CTRL_next_state
	.comm	statemate_BLOCK_ERKENNUNG_CTRL_BLOCK_ERKENNUNG_CTRL_next_state,1,1
	.type	statemate_bitlist,@object # @statemate_bitlist
	.local	statemate_bitlist
	.comm	statemate_bitlist,64,16
	.type	statemate_time,@object  # @statemate_time
	.comm	statemate_time,8,8
	.type	statemate_sc_FH_TUERMODUL_CTRL_2375_2,@object # @statemate_sc_FH_TUERMODUL_CTRL_2375_2
	.comm	statemate_sc_FH_TUERMODUL_CTRL_2375_2,8,8
	.type	statemate_FH_TUERMODUL__MFHA_copy,@object # @statemate_FH_TUERMODUL__MFHA_copy
	.comm	statemate_FH_TUERMODUL__MFHA_copy,1,1
	.type	statemate_sc_FH_TUERMODUL_CTRL_2352_1,@object # @statemate_sc_FH_TUERMODUL_CTRL_2352_1
	.comm	statemate_sc_FH_TUERMODUL_CTRL_2352_1,8,8
	.type	statemate_FH_TUERMODUL__MFHZ_copy,@object # @statemate_FH_TUERMODUL__MFHZ_copy
	.comm	statemate_FH_TUERMODUL__MFHZ_copy,1,1
	.type	statemate_sc_FH_TUERMODUL_CTRL_2329_1,@object # @statemate_sc_FH_TUERMODUL_CTRL_2329_1
	.comm	statemate_sc_FH_TUERMODUL_CTRL_2329_1,8,8
	.type	statemate_sc_FH_TUERMODUL_CTRL_1781_10,@object # @statemate_sc_FH_TUERMODUL_CTRL_1781_10
	.comm	statemate_sc_FH_TUERMODUL_CTRL_1781_10,8,8
	.type	statemate_sc_FH_TUERMODUL_CTRL_1739_10,@object # @statemate_sc_FH_TUERMODUL_CTRL_1739_10
	.comm	statemate_sc_FH_TUERMODUL_CTRL_1739_10,8,8
	.type	statemate_BLOCK_ERKENNUNG_CTRL__N,@object # @statemate_BLOCK_ERKENNUNG_CTRL__N
	.comm	statemate_BLOCK_ERKENNUNG_CTRL__N,4,4
	.type	statemate_BLOCK_ERKENNUNG_CTRL__N_old,@object # @statemate_BLOCK_ERKENNUNG_CTRL__N_old
	.comm	statemate_BLOCK_ERKENNUNG_CTRL__N_old,4,4
	.type	statemate_FH_TUERMODUL__SFHA_ZENTRAL,@object # @statemate_FH_TUERMODUL__SFHA_ZENTRAL
	.comm	statemate_FH_TUERMODUL__SFHA_ZENTRAL,1,1
	.type	statemate_FH_TUERMODUL__SFHZ_ZENTRAL,@object # @statemate_FH_TUERMODUL__SFHZ_ZENTRAL
	.comm	statemate_FH_TUERMODUL__SFHZ_ZENTRAL,1,1
	.type	statemate_stable,@object # @statemate_stable
	.comm	statemate_stable,1,1
	.type	statemate_FH_TUERMODUL__SFHZ_copy,@object # @statemate_FH_TUERMODUL__SFHZ_copy
	.comm	statemate_FH_TUERMODUL__SFHZ_copy,1,1
	.type	statemate_FH_TUERMODUL__SFHA_copy,@object # @statemate_FH_TUERMODUL__SFHA_copy
	.comm	statemate_FH_TUERMODUL__SFHA_copy,1,1
	.type	statemate_FH_TUERMODUL__SFHA_ZENTRAL_old,@object # @statemate_FH_TUERMODUL__SFHA_ZENTRAL_old
	.comm	statemate_FH_TUERMODUL__SFHA_ZENTRAL_old,1,1
	.type	statemate_FH_TUERMODUL__SFHZ_ZENTRAL_old,@object # @statemate_FH_TUERMODUL__SFHZ_ZENTRAL_old
	.comm	statemate_FH_TUERMODUL__SFHZ_ZENTRAL_old,1,1
	.type	statemate_FH_TUERMODUL__SFHA_MEC,@object # @statemate_FH_TUERMODUL__SFHA_MEC
	.comm	statemate_FH_TUERMODUL__SFHA_MEC,1,1
	.type	statemate_FH_TUERMODUL__SFHZ_MEC,@object # @statemate_FH_TUERMODUL__SFHZ_MEC
	.comm	statemate_FH_TUERMODUL__SFHZ_MEC,1,1
	.type	statemate_FH_TUERMODUL__SFHA_MEC_old,@object # @statemate_FH_TUERMODUL__SFHA_MEC_old
	.comm	statemate_FH_TUERMODUL__SFHA_MEC_old,1,1
	.type	statemate_FH_TUERMODUL__SFHZ_MEC_old,@object # @statemate_FH_TUERMODUL__SFHZ_MEC_old
	.comm	statemate_FH_TUERMODUL__SFHZ_MEC_old,1,1
	.type	statemate_FH_TUERMODUL__KL_50,@object # @statemate_FH_TUERMODUL__KL_50
	.comm	statemate_FH_TUERMODUL__KL_50,1,1
	.type	statemate_FH_TUERMODUL_CTRL__N,@object # @statemate_FH_TUERMODUL_CTRL__N
	.comm	statemate_FH_TUERMODUL_CTRL__N,4,4
	.type	statemate_FH_TUERMODUL_CTRL__N_old,@object # @statemate_FH_TUERMODUL_CTRL__N_old
	.comm	statemate_FH_TUERMODUL_CTRL__N_old,4,4
	.type	statemate_FH_TUERMODUL__BLOCK,@object # @statemate_FH_TUERMODUL__BLOCK
	.comm	statemate_FH_TUERMODUL__BLOCK,1,1
	.type	statemate_FH_TUERMODUL__BLOCK_old,@object # @statemate_FH_TUERMODUL__BLOCK_old
	.comm	statemate_FH_TUERMODUL__BLOCK_old,1,1
	.type	statemate_FH_TUERMODUL__MFHZ,@object # @statemate_FH_TUERMODUL__MFHZ
	.comm	statemate_FH_TUERMODUL__MFHZ,1,1
	.type	statemate_FH_TUERMODUL__SFHZ,@object # @statemate_FH_TUERMODUL__SFHZ
	.comm	statemate_FH_TUERMODUL__SFHZ,1,1
	.type	statemate_FH_TUERMODUL__SFHA,@object # @statemate_FH_TUERMODUL__SFHA
	.comm	statemate_FH_TUERMODUL__SFHA,1,1
	.type	statemate_FH_TUERMODUL_CTRL__INREVERS1,@object # @statemate_FH_TUERMODUL_CTRL__INREVERS1
	.comm	statemate_FH_TUERMODUL_CTRL__INREVERS1,1,1
	.type	statemate_FH_TUERMODUL_CTRL__INREVERS2,@object # @statemate_FH_TUERMODUL_CTRL__INREVERS2
	.comm	statemate_FH_TUERMODUL_CTRL__INREVERS2,1,1
	.type	statemate_FH_TUERMODUL__MFHA,@object # @statemate_FH_TUERMODUL__MFHA
	.comm	statemate_FH_TUERMODUL__MFHA,1,1
	.type	statemate_FH_TUERMODUL__POSITION,@object # @statemate_FH_TUERMODUL__POSITION
	.comm	statemate_FH_TUERMODUL__POSITION,4,4
	.type	statemate_FH_TUERMODUL__SFHZ_old,@object # @statemate_FH_TUERMODUL__SFHZ_old
	.comm	statemate_FH_TUERMODUL__SFHZ_old,1,1
	.type	statemate_FH_TUERMODUL__SFHA_old,@object # @statemate_FH_TUERMODUL__SFHA_old
	.comm	statemate_FH_TUERMODUL__SFHA_old,1,1
	.type	statemate_FH_TUERMODUL_CTRL__INREVERS2_copy,@object # @statemate_FH_TUERMODUL_CTRL__INREVERS2_copy
	.comm	statemate_FH_TUERMODUL_CTRL__INREVERS2_copy,1,1
	.type	statemate_FH_TUERMODUL_CTRL__INREVERS1_copy,@object # @statemate_FH_TUERMODUL_CTRL__INREVERS1_copy
	.comm	statemate_FH_TUERMODUL_CTRL__INREVERS1_copy,1,1
	.type	statemate_step,@object  # @statemate_step
	.comm	statemate_step,1,1
	.type	statemate_FH_TUERMODUL__EKS_LEISTE_AKTIV,@object # @statemate_FH_TUERMODUL__EKS_LEISTE_AKTIV
	.comm	statemate_FH_TUERMODUL__EKS_LEISTE_AKTIV,1,1
	.type	statemate_FH_TUERMODUL__EKS_LEISTE_AKTIV_old,@object # @statemate_FH_TUERMODUL__EKS_LEISTE_AKTIV_old
	.comm	statemate_FH_TUERMODUL__EKS_LEISTE_AKTIV_old,1,1
	.type	statemate_FH_TUERMODUL__I_EIN,@object # @statemate_FH_TUERMODUL__I_EIN
	.comm	statemate_FH_TUERMODUL__I_EIN,4,4
	.type	statemate_FH_TUERMODUL__I_EIN_old,@object # @statemate_FH_TUERMODUL__I_EIN_old
	.comm	statemate_FH_TUERMODUL__I_EIN_old,4,4
	.type	statemate_FH_TUERMODUL__BLOCK_copy,@object # @statemate_FH_TUERMODUL__BLOCK_copy
	.comm	statemate_FH_TUERMODUL__BLOCK_copy,1,1
	.type	statemate_BLOCK_ERKENNUNG_CTRL__I_EIN_MAX,@object # @statemate_BLOCK_ERKENNUNG_CTRL__I_EIN_MAX
	.comm	statemate_BLOCK_ERKENNUNG_CTRL__I_EIN_MAX,4,4
	.type	statemate_FH_TUERMODUL__MFHA_old,@object # @statemate_FH_TUERMODUL__MFHA_old
	.comm	statemate_FH_TUERMODUL__MFHA_old,1,1
	.type	statemate_FH_TUERMODUL__MFHZ_old,@object # @statemate_FH_TUERMODUL__MFHZ_old
	.comm	statemate_FH_TUERMODUL__MFHZ_old,1,1
	.type	statemate_FH_DU__MFHZ,@object # @statemate_FH_DU__MFHZ
	.comm	statemate_FH_DU__MFHZ,1,1
	.type	statemate_FH_DU__MFHZ_old,@object # @statemate_FH_DU__MFHZ_old
	.comm	statemate_FH_DU__MFHZ_old,1,1
	.type	statemate_FH_DU__MFH,@object # @statemate_FH_DU__MFH
	.comm	statemate_FH_DU__MFH,4,4
	.type	statemate_FH_DU__MFHA,@object # @statemate_FH_DU__MFHA
	.comm	statemate_FH_DU__MFHA,1,1
	.type	statemate_FH_DU__MFHA_old,@object # @statemate_FH_DU__MFHA_old
	.comm	statemate_FH_DU__MFHA_old,1,1
	.type	statemate_FH_DU__S_FH_TMBFZUCAN,@object # @statemate_FH_DU__S_FH_TMBFZUCAN
	.comm	statemate_FH_DU__S_FH_TMBFZUCAN,1,1
	.type	statemate_FH_DU__S_FH_TMBFZUCAN_old,@object # @statemate_FH_DU__S_FH_TMBFZUCAN_old
	.comm	statemate_FH_DU__S_FH_TMBFZUCAN_old,1,1
	.type	statemate_FH_DU__DOOR_ID,@object # @statemate_FH_DU__DOOR_ID
	.comm	statemate_FH_DU__DOOR_ID,1,1
	.type	statemate_FH_DU__S_FH_FTZU,@object # @statemate_FH_DU__S_FH_FTZU
	.comm	statemate_FH_DU__S_FH_FTZU,1,1
	.type	statemate_FH_DU__S_FH_TMBFZUDISC,@object # @statemate_FH_DU__S_FH_TMBFZUDISC
	.comm	statemate_FH_DU__S_FH_TMBFZUDISC,1,1
	.type	statemate_FH_DU__S_FH_TMBFZUDISC_old,@object # @statemate_FH_DU__S_FH_TMBFZUDISC_old
	.comm	statemate_FH_DU__S_FH_TMBFZUDISC_old,1,1
	.type	statemate_FH_DU__S_FH_TMBFAUFCAN,@object # @statemate_FH_DU__S_FH_TMBFAUFCAN
	.comm	statemate_FH_DU__S_FH_TMBFAUFCAN,1,1
	.type	statemate_FH_DU__S_FH_TMBFAUFCAN_old,@object # @statemate_FH_DU__S_FH_TMBFAUFCAN_old
	.comm	statemate_FH_DU__S_FH_TMBFAUFCAN_old,1,1
	.type	statemate_FH_DU__S_FH_FTAUF,@object # @statemate_FH_DU__S_FH_FTAUF
	.comm	statemate_FH_DU__S_FH_FTAUF,1,1
	.type	statemate_FH_DU__S_FH_TMBFAUFDISC,@object # @statemate_FH_DU__S_FH_TMBFAUFDISC
	.comm	statemate_FH_DU__S_FH_TMBFAUFDISC,1,1
	.type	statemate_FH_DU__S_FH_TMBFAUFDISC_old,@object # @statemate_FH_DU__S_FH_TMBFAUFDISC_old
	.comm	statemate_FH_DU__S_FH_TMBFAUFDISC_old,1,1
	.type	statemate_FH_DU__S_FH_AUFDISC,@object # @statemate_FH_DU__S_FH_AUFDISC
	.comm	statemate_FH_DU__S_FH_AUFDISC,1,1
	.type	statemate_FH_DU__S_FH_ZUDISC,@object # @statemate_FH_DU__S_FH_ZUDISC
	.comm	statemate_FH_DU__S_FH_ZUDISC,1,1
	.type	statemate_FH_DU__I_EIN,@object # @statemate_FH_DU__I_EIN
	.comm	statemate_FH_DU__I_EIN,4,4
	.type	statemate_FH_DU__EKS_LEISTE_AKTIV,@object # @statemate_FH_DU__EKS_LEISTE_AKTIV
	.comm	statemate_FH_DU__EKS_LEISTE_AKTIV,1,1
	.type	statemate_FH_DU__POSITION,@object # @statemate_FH_DU__POSITION
	.comm	statemate_FH_DU__POSITION,4,4
	.type	statemate_FH_TUERMODUL__FT,@object # @statemate_FH_TUERMODUL__FT
	.comm	statemate_FH_TUERMODUL__FT,1,1
	.type	statemate_FH_DU__FT,@object # @statemate_FH_DU__FT
	.comm	statemate_FH_DU__FT,1,1
	.type	statemate_FH_DU__KL_50,@object # @statemate_FH_DU__KL_50
	.comm	statemate_FH_DU__KL_50,1,1
	.type	statemate_FH_DU__BLOCK,@object # @statemate_FH_DU__BLOCK
	.comm	statemate_FH_DU__BLOCK,1,1
	.type	statemate_FH_DU__MFH_copy,@object # @statemate_FH_DU__MFH_copy
	.comm	statemate_FH_DU__MFH_copy,4,4
	.type	statemate_FH_DU__I_EIN_old,@object # @statemate_FH_DU__I_EIN_old
	.comm	statemate_FH_DU__I_EIN_old,4,4
	.type	statemate_FH_DU__EKS_LEISTE_AKTIV_old,@object # @statemate_FH_DU__EKS_LEISTE_AKTIV_old
	.comm	statemate_FH_DU__EKS_LEISTE_AKTIV_old,1,1
	.type	statemate_FH_DU__BLOCK_copy,@object # @statemate_FH_DU__BLOCK_copy
	.comm	statemate_FH_DU__BLOCK_copy,1,1
	.type	statemate_FH_DU__BLOCK_old,@object # @statemate_FH_DU__BLOCK_old
	.comm	statemate_FH_DU__BLOCK_old,1,1
	.type	statemate_FH_DU__MFHZ_copy,@object # @statemate_FH_DU__MFHZ_copy
	.comm	statemate_FH_DU__MFHZ_copy,1,1
	.type	statemate_FH_DU__MFHA_copy,@object # @statemate_FH_DU__MFHA_copy
	.comm	statemate_FH_DU__MFHA_copy,1,1
	.type	krem_prefixb6907c1a94f69095_krem_callsiteId_krem_statemate.c_krem_statemate_init_krem_222_krem_222_krem_,@object # @krem_prefixb6907c1a94f69095_krem_callsiteId_krem_statemate.c_krem_statemate_init_krem_222_krem_222_krem_
	.bss
	.globl	krem_prefixb6907c1a94f69095_krem_callsiteId_krem_statemate.c_krem_statemate_init_krem_222_krem_222_krem_
krem_prefixb6907c1a94f69095_krem_callsiteId_krem_statemate.c_krem_statemate_init_krem_222_krem_222_krem_:
	.byte	0                       # 0x0
	.size	krem_prefixb6907c1a94f69095_krem_callsiteId_krem_statemate.c_krem_statemate_init_krem_222_krem_222_krem_, 1

	.type	krem_prefix0f779dc93968eda8_krem_callsiteId_krem_statemate.c_krem_statemate_FH_DU_krem_1127_krem_1127_krem_,@object # @krem_prefix0f779dc93968eda8_krem_callsiteId_krem_statemate.c_krem_statemate_FH_DU_krem_1127_krem_1127_krem_
	.globl	krem_prefix0f779dc93968eda8_krem_callsiteId_krem_statemate.c_krem_statemate_FH_DU_krem_1127_krem_1127_krem_
krem_prefix0f779dc93968eda8_krem_callsiteId_krem_statemate.c_krem_statemate_FH_DU_krem_1127_krem_1127_krem_:
	.byte	0                       # 0x0
	.size	krem_prefix0f779dc93968eda8_krem_callsiteId_krem_statemate.c_krem_statemate_FH_DU_krem_1127_krem_1127_krem_, 1

	.type	krem_prefix89801ab9a6a5fd60_krem_callsiteId_krem_statemate.c_krem_statemate_FH_DU_krem_1147_krem_1147_krem_,@object # @krem_prefix89801ab9a6a5fd60_krem_callsiteId_krem_statemate.c_krem_statemate_FH_DU_krem_1147_krem_1147_krem_
	.globl	krem_prefix89801ab9a6a5fd60_krem_callsiteId_krem_statemate.c_krem_statemate_FH_DU_krem_1147_krem_1147_krem_
krem_prefix89801ab9a6a5fd60_krem_callsiteId_krem_statemate.c_krem_statemate_FH_DU_krem_1147_krem_1147_krem_:
	.byte	0                       # 0x0
	.size	krem_prefix89801ab9a6a5fd60_krem_callsiteId_krem_statemate.c_krem_statemate_FH_DU_krem_1147_krem_1147_krem_, 1

	.type	krem_prefix48301f9ecb2fb5bb_krem_callsiteId_krem_statemate.c_krem_statemate_FH_DU_krem_1167_krem_1167_krem_,@object # @krem_prefix48301f9ecb2fb5bb_krem_callsiteId_krem_statemate.c_krem_statemate_FH_DU_krem_1167_krem_1167_krem_
	.globl	krem_prefix48301f9ecb2fb5bb_krem_callsiteId_krem_statemate.c_krem_statemate_FH_DU_krem_1167_krem_1167_krem_
krem_prefix48301f9ecb2fb5bb_krem_callsiteId_krem_statemate.c_krem_statemate_FH_DU_krem_1167_krem_1167_krem_:
	.byte	0                       # 0x0
	.size	krem_prefix48301f9ecb2fb5bb_krem_callsiteId_krem_statemate.c_krem_statemate_FH_DU_krem_1167_krem_1167_krem_, 1

	.type	krem_prefix4b09f6d63c2b3fe3_krem_callsiteId_krem_statemate.c_krem_statemate_FH_DU_krem_1187_krem_1187_krem_,@object # @krem_prefix4b09f6d63c2b3fe3_krem_callsiteId_krem_statemate.c_krem_statemate_FH_DU_krem_1187_krem_1187_krem_
	.globl	krem_prefix4b09f6d63c2b3fe3_krem_callsiteId_krem_statemate.c_krem_statemate_FH_DU_krem_1187_krem_1187_krem_
krem_prefix4b09f6d63c2b3fe3_krem_callsiteId_krem_statemate.c_krem_statemate_FH_DU_krem_1187_krem_1187_krem_:
	.byte	0                       # 0x0
	.size	krem_prefix4b09f6d63c2b3fe3_krem_callsiteId_krem_statemate.c_krem_statemate_FH_DU_krem_1187_krem_1187_krem_, 1

	.type	krem_prefixca34e56a6e396b2a_krem_callsiteId_krem_statemate.c_krem_statemate_main_krem_1268_krem_1268_krem_,@object # @krem_prefixca34e56a6e396b2a_krem_callsiteId_krem_statemate.c_krem_statemate_main_krem_1268_krem_1268_krem_
	.globl	krem_prefixca34e56a6e396b2a_krem_callsiteId_krem_statemate.c_krem_statemate_main_krem_1268_krem_1268_krem_
krem_prefixca34e56a6e396b2a_krem_callsiteId_krem_statemate.c_krem_statemate_main_krem_1268_krem_1268_krem_:
	.byte	0                       # 0x0
	.size	krem_prefixca34e56a6e396b2a_krem_callsiteId_krem_statemate.c_krem_statemate_main_krem_1268_krem_1268_krem_, 1

