	.text
	.file	"pm_libm.simplifycfg.mem2reg.indvars.elimsinglephis.criticalpath.regioninstrument.renamemain.O3.bc"
	.text
	.globl	pm_math_init
	.align	16, 0x90
	.type	pm_math_init,@function
pm_math_init:                           # @pm_math_init
.Lfunc_begin0:
	.loc	1 52 0                  # pm_libm.c:52:0
	.cfi_startproc
# BB#0:                                 # %entry
	pushq	%rbp
.Ltmp0:
	.cfi_def_cfa_offset 16
.Ltmp1:
	.cfi_offset %rbp, -16
	movq	%rsp, %rbp
.Ltmp2:
	.cfi_def_cfa_register %rbp
	pushq	%rbx
	pushq	%rax
.Ltmp3:
	.cfi_offset %rbx, -24
	movabsq	$-8369645592100731375, %rbx # imm = 0x8BD90BADA2EC0611
	xorl	%esi, %esi
	movq	%rbx, %rdi
	callq	_KEnterRegion
	movl	$1, %edi
	xorl	%esi, %esi
	callq	_KPrepRTable
	movl	$35, %edi
	callq	_KWork
	movl	$pm_pow_coeff, %edi
	movl	$4, %esi
	callq	_KStoreConst
	.loc	1 53 3 prologue_end     # pm_libm.c:53:3
.Ltmp4:
	movl	$1056964608, pm_pow_coeff(%rip) # imm = 0x3F000000
	movl	$pm_pow_coeff+4, %edi
	movl	$4, %esi
	callq	_KStoreConst
	.loc	1 54 3                  # pm_libm.c:54:3
	movl	$1042983595, pm_pow_coeff+4(%rip) # imm = 0x3E2AAAAB
	movl	$pm_pow_coeff+8, %edi
	movl	$4, %esi
	callq	_KStoreConst
	.loc	1 55 3                  # pm_libm.c:55:3
	movl	$1026206378, pm_pow_coeff+8(%rip) # imm = 0x3D2AAAAA
	movl	$pm_pow_coeff+12, %edi
	movl	$4, %esi
	callq	_KStoreConst
	.loc	1 56 3                  # pm_libm.c:56:3
	movl	$1007192201, pm_pow_coeff+12(%rip) # imm = 0x3C088889
	movl	$pm_pow_coeff+16, %edi
	movl	$4, %esi
	callq	_KStoreConst
	.loc	1 57 3                  # pm_libm.c:57:3
	movl	$985008993, pm_pow_coeff+16(%rip) # imm = 0x3AB60B61
	movl	$pm_pow_coeff+20, %edi
	movl	$4, %esi
	callq	_KStoreConst
	.loc	1 58 3                  # pm_libm.c:58:3
	movl	$961547521, pm_pow_coeff+20(%rip) # imm = 0x39500D01
	movl	$pm_pow_coeff+24, %edi
	movl	$4, %esi
	callq	_KStoreConst
	.loc	1 59 3                  # pm_libm.c:59:3
	movl	$936381697, pm_pow_coeff+24(%rip) # imm = 0x37D00D01
	movl	$pm_pow_coeff+28, %edi
	movl	$4, %esi
	callq	_KStoreConst
	.loc	1 60 3                  # pm_libm.c:60:3
	movl	$909700893, pm_pow_coeff+28(%rip) # imm = 0x3638EF1D
	movl	$pm_pow_coeff+32, %edi
	movl	$4, %esi
	callq	_KStoreConst
	.loc	1 61 3                  # pm_libm.c:61:3
	movl	$882111102, pm_pow_coeff+32(%rip) # imm = 0x3493F27E
	movl	$pm_pow_coeff+36, %edi
	movl	$4, %esi
	callq	_KStoreConst
	.loc	1 62 3                  # pm_libm.c:62:3
	movl	$852963883, pm_pow_coeff+36(%rip) # imm = 0x32D7322B
	movl	$pm_pow_coeff+40, %edi
	movl	$4, %esi
	callq	_KStoreConst
	.loc	1 63 3                  # pm_libm.c:63:3
	movl	$823097032, pm_pow_coeff+40(%rip) # imm = 0x310F76C8
	movl	$pm_pow_coeff+44, %edi
	movl	$4, %esi
	callq	_KStoreConst
	.loc	1 64 3                  # pm_libm.c:64:3
	movl	$791712305, pm_pow_coeff+44(%rip) # imm = 0x2F309231
	movl	$pm_pow_coeff+48, %edi
	movl	$4, %esi
	callq	_KStoreConst
	.loc	1 65 3                  # pm_libm.c:65:3
	movl	$759810981, pm_pow_coeff+48(%rip) # imm = 0x2D49CBA5
	movl	$pm_pow_coeff+52, %edi
	movl	$4, %esi
	callq	_KStoreConst
	.loc	1 66 3                  # pm_libm.c:66:3
	movl	$727138207, pm_pow_coeff+52(%rip) # imm = 0x2B573F9F
	movl	$pm_pow_coeff+56, %edi
	movl	$4, %esi
	callq	_KStoreConst
	.loc	1 67 3                  # pm_libm.c:67:3
	movl	$693583775, pm_pow_coeff+56(%rip) # imm = 0x29573F9F
	movl	$pm_pow_coeff+60, %edi
	movl	$4, %esi
	callq	_KStoreConst
	.loc	1 68 3                  # pm_libm.c:68:3
	movl	$659199548, pm_pow_coeff+60(%rip) # imm = 0x274A963C
	movl	$pm_pow_coeff+64, %edi
	movl	$4, %esi
	callq	_KStoreConst
	.loc	1 69 3                  # pm_libm.c:69:3
	movl	$624169923, pm_pow_coeff+64(%rip) # imm = 0x253413C3
	movl	$pm_pow_coeff+68, %edi
	movl	$4, %esi
	callq	_KStoreConst
	.loc	1 70 3                  # pm_libm.c:70:3
	movl	$588752090, pm_pow_coeff+68(%rip) # imm = 0x2317A4DA
	movl	$pm_pow_coeff+72, %edi
	movl	$4, %esi
	callq	_KStoreConst
	.loc	1 71 3                  # pm_libm.c:71:3
	movl	$552771933, pm_pow_coeff+72(%rip) # imm = 0x20F2A15D
	movl	$pm_log_coeff, %edi
	movl	$4, %esi
	callq	_KStoreConst
	.loc	1 73 3                  # pm_libm.c:73:3
	movl	$1051372203, pm_log_coeff(%rip) # imm = 0x3EAAAAAB
	movl	$pm_log_coeff+4, %edi
	movl	$4, %esi
	callq	_KStoreConst
	.loc	1 74 3                  # pm_libm.c:74:3
	movl	$1045220557, pm_log_coeff+4(%rip) # imm = 0x3E4CCCCD
	movl	$pm_log_coeff+8, %edi
	movl	$4, %esi
	callq	_KStoreConst
	.loc	1 75 3                  # pm_libm.c:75:3
	movl	$1041385765, pm_log_coeff+8(%rip) # imm = 0x3E124925
	movl	$pm_log_coeff+12, %edi
	movl	$4, %esi
	callq	_KStoreConst
	.loc	1 76 3                  # pm_libm.c:76:3
	movl	$1038323257, pm_log_coeff+12(%rip) # imm = 0x3DE38E39
	movl	$pm_log_coeff+16, %edi
	movl	$4, %esi
	callq	_KStoreConst
	.loc	1 77 3                  # pm_libm.c:77:3
	movl	$1035611788, pm_log_coeff+16(%rip) # imm = 0x3DBA2E8C
	movl	$pm_log_coeff+20, %edi
	movl	$4, %esi
	callq	_KStoreConst
	.loc	1 78 3                  # pm_libm.c:78:3
	movl	$1033734617, pm_log_coeff+20(%rip) # imm = 0x3D9D89D9
	movl	$pm_log_coeff+24, %edi
	movl	$4, %esi
	callq	_KStoreConst
	.loc	1 79 3                  # pm_libm.c:79:3
	movl	$1032358025, pm_log_coeff+24(%rip) # imm = 0x3D888889
	movl	$pm_log_coeff+28, %edi
	movl	$4, %esi
	callq	_KStoreConst
	.loc	1 80 3                  # pm_libm.c:80:3
	movl	$1030811889, pm_log_coeff+28(%rip) # imm = 0x3D70F0F1
	movl	$pm_log_coeff+32, %edi
	movl	$4, %esi
	callq	_KStoreConst
	.loc	1 81 3                  # pm_libm.c:81:3
	movl	$1029149750, pm_log_coeff+32(%rip) # imm = 0x3D579436
	movl	$pm_log_coeff+36, %edi
	movl	$4, %esi
	callq	_KStoreConst
	.loc	1 82 3                  # pm_libm.c:82:3
	movl	$1027804209, pm_log_coeff+36(%rip) # imm = 0x3D430C31
	movl	$pm_log_coeff+40, %edi
	movl	$4, %esi
	callq	_KStoreConst
	.loc	1 83 3                  # pm_libm.c:83:3
	movl	$1026692675, pm_log_coeff+40(%rip) # imm = 0x3D321643
	movl	$pm_log_coeff+44, %edi
	movl	$4, %esi
	callq	_KStoreConst
	.loc	1 84 3                  # pm_libm.c:84:3
	movl	$1025758986, pm_log_coeff+44(%rip) # imm = 0x3D23D70A
	movl	$pm_log_coeff+48, %edi
	movl	$4, %esi
	callq	_KStoreConst
	.loc	1 85 3                  # pm_libm.c:85:3
	movl	$1024963622, pm_log_coeff+48(%rip) # imm = 0x3D17B426
	movl	$pm_log_coeff+52, %edi
	movl	$4, %esi
	callq	_KStoreConst
	.loc	1 86 3                  # pm_libm.c:86:3
	movl	$1024277963, pm_log_coeff+52(%rip) # imm = 0x3D0D3DCB
	movl	$pm_log_coeff+56, %edi
	movl	$4, %esi
	callq	_KStoreConst
	.loc	1 87 3                  # pm_libm.c:87:3
	movl	$1023680776, pm_log_coeff+56(%rip) # imm = 0x3D042108
	movl	$pm_log_coeff+60, %edi
	movl	$4, %esi
	callq	_KStoreConst
	.loc	1 88 3                  # pm_libm.c:88:3
	movl	$1022901776, pm_log_coeff+60(%rip) # imm = 0x3CF83E10
	xorl	%esi, %esi
	movq	%rbx, %rdi
	addq	$8, %rsp
	popq	%rbx
	popq	%rbp
	jmp	_KExitRegion            # TAILCALL
.Ltmp5:
.Ltmp6:
	.size	pm_math_init, .Ltmp6-pm_math_init
.Lfunc_end0:
	.cfi_endproc

	.section	.rodata.cst4,"aM",@progbits,4
	.align	4
.LCPI1_0:
	.long	1075010958              # float 2.30258512
.LCPI1_1:
	.long	1065353216              # float 1
	.text
	.globl	pm_pow10f
	.align	16, 0x90
	.type	pm_pow10f,@function
pm_pow10f:                              # @pm_pow10f
.Lfunc_begin1:
	.loc	1 97 0                  # pm_libm.c:97:0
	.cfi_startproc
# BB#0:                                 # %entry
	pushq	%rbp
.Ltmp7:
	.cfi_def_cfa_offset 16
.Ltmp8:
	.cfi_offset %rbp, -16
	movq	%rsp, %rbp
.Ltmp9:
	.cfi_def_cfa_register %rbp
	pushq	%rbx
	subq	$312, %rsp              # imm = 0x138
.Ltmp10:
	.cfi_offset %rbx, -24
	#DEBUG_VALUE: pm_pow10f:exp <- XMM0
	movss	%xmm0, -12(%rbp)        # 4-byte Spill
.Ltmp11:
	#DEBUG_VALUE: pm_pow10f:exp <- [RBP+-12]
	movabsq	$2882321494315938793, %rbx # imm = 0x28001020BD2CB3E9
	xorl	%esi, %esi
	movq	%rbx, %rdi
	callq	_KEnterRegion
	movl	$22, %edi
	xorl	%esi, %esi
	callq	_KPrepRTable
	movl	$1, %edi
	callq	_KDeqArg
	movl	$316, %edi              # imm = 0x13C
	callq	_KWork
	movss	-12(%rbp), %xmm0        # 4-byte Reload
.Ltmp12:
	#DEBUG_VALUE: pm_pow10f:exp <- XMM0
	.loc	1 98 15 prologue_end    # pm_libm.c:98:15
	mulss	.LCPI1_0(%rip), %xmm0
.Ltmp13:
	#DEBUG_VALUE: pm_pow10f:ans <- 1.000000e+00
	#DEBUG_VALUE: pm_pow10f:term <- XMM0
	#DEBUG_VALUE: pm_pow10f:mul <- XMM0
	movss	%xmm0, -12(%rbp)        # 4-byte Spill
	movss	.LCPI1_1(%rip), %xmm1
	.loc	1 103 3                 # pm_libm.c:103:3
	addss	%xmm0, %xmm1
.Ltmp14:
	#DEBUG_VALUE: pm_pow10f:ans <- XMM1
	movss	%xmm1, -24(%rbp)        # 4-byte Spill
.Ltmp15:
	#DEBUG_VALUE: pm_pow10f:ans <- [RBP+-24]
	#DEBUG_VALUE: pm_pow10f:term <- [RBP+-12]
	#DEBUG_VALUE: pm_pow10f:mul <- [RBP+-12]
	.loc	1 104 3                 # pm_libm.c:104:3
	mulss	%xmm0, %xmm0
.Ltmp16:
	#DEBUG_VALUE: pm_pow10f:mul <- XMM0
	movss	%xmm0, -16(%rbp)        # 4-byte Spill
.Ltmp17:
	#DEBUG_VALUE: pm_pow10f:mul <- [RBP+-16]
	movl	$pm_pow_coeff, %edi
	movl	$2, %esi
	movl	$4, %edx
	callq	_KLoad0
.Ltmp18:
	#DEBUG_VALUE: pm_pow10f:ans <- [RBP+-16]
	.loc	1 106 3                 # pm_libm.c:106:3
	movss	-12(%rbp), %xmm1        # 4-byte Reload
	movss	-16(%rbp), %xmm0        # 4-byte Reload
.Ltmp19:
	#DEBUG_VALUE: pm_pow10f:ans <- XMM0
	#DEBUG_VALUE: pm_pow10f:mul <- XMM0
	mulss	%xmm0, %xmm1
	movss	%xmm1, -20(%rbp)        # 4-byte Spill
	.loc	1 105 10                # pm_libm.c:105:10
	mulss	pm_pow_coeff(%rip), %xmm0
.Ltmp20:
	.loc	1 105 3 is_stmt 0       # pm_libm.c:105:3
	addss	-24(%rbp), %xmm0        # 4-byte Folded Reload
.Ltmp21:
	#DEBUG_VALUE: pm_pow10f:mul <- [RBP+-20]
	movss	%xmm0, -16(%rbp)        # 4-byte Spill
	movl	$pm_pow_coeff+4, %edi
	movl	$3, %esi
	movl	$4, %edx
	callq	_KLoad0
.Ltmp22:
	#DEBUG_VALUE: pm_pow10f:ans <- [RBP+-20]
	.loc	1 108 3 is_stmt 1       # pm_libm.c:108:3
	movss	-12(%rbp), %xmm1        # 4-byte Reload
	movss	-20(%rbp), %xmm0        # 4-byte Reload
.Ltmp23:
	#DEBUG_VALUE: pm_pow10f:ans <- XMM0
	#DEBUG_VALUE: pm_pow10f:mul <- XMM0
	mulss	%xmm0, %xmm1
	movss	%xmm1, -24(%rbp)        # 4-byte Spill
	.loc	1 107 10                # pm_libm.c:107:10
	mulss	pm_pow_coeff+4(%rip), %xmm0
.Ltmp24:
	.loc	1 107 3 is_stmt 0       # pm_libm.c:107:3
	addss	-16(%rbp), %xmm0        # 4-byte Folded Reload
.Ltmp25:
	#DEBUG_VALUE: pm_pow10f:mul <- [RBP+-24]
	movss	%xmm0, -20(%rbp)        # 4-byte Spill
	movl	$pm_pow_coeff+8, %edi
	movl	$4, %esi
	movl	$4, %edx
	callq	_KLoad0
.Ltmp26:
	#DEBUG_VALUE: pm_pow10f:ans <- [RBP+-24]
	.loc	1 110 3 is_stmt 1       # pm_libm.c:110:3
	movss	-12(%rbp), %xmm1        # 4-byte Reload
	movss	-24(%rbp), %xmm0        # 4-byte Reload
.Ltmp27:
	#DEBUG_VALUE: pm_pow10f:ans <- XMM0
	#DEBUG_VALUE: pm_pow10f:mul <- XMM0
	mulss	%xmm0, %xmm1
	movss	%xmm1, -16(%rbp)        # 4-byte Spill
	.loc	1 109 10                # pm_libm.c:109:10
	mulss	pm_pow_coeff+8(%rip), %xmm0
.Ltmp28:
	.loc	1 109 3 is_stmt 0       # pm_libm.c:109:3
	addss	-20(%rbp), %xmm0        # 4-byte Folded Reload
.Ltmp29:
	#DEBUG_VALUE: pm_pow10f:mul <- [RBP+-16]
	movss	%xmm0, -24(%rbp)        # 4-byte Spill
	movl	$pm_pow_coeff+12, %edi
	movl	$5, %esi
	movl	$4, %edx
	callq	_KLoad0
.Ltmp30:
	#DEBUG_VALUE: pm_pow10f:ans <- [RBP+-16]
	.loc	1 112 3 is_stmt 1       # pm_libm.c:112:3
	movss	-12(%rbp), %xmm1        # 4-byte Reload
	movss	-16(%rbp), %xmm0        # 4-byte Reload
.Ltmp31:
	#DEBUG_VALUE: pm_pow10f:ans <- XMM0
	#DEBUG_VALUE: pm_pow10f:mul <- XMM0
	mulss	%xmm0, %xmm1
	movss	%xmm1, -20(%rbp)        # 4-byte Spill
	.loc	1 111 10                # pm_libm.c:111:10
	mulss	pm_pow_coeff+12(%rip), %xmm0
.Ltmp32:
	.loc	1 111 3 is_stmt 0       # pm_libm.c:111:3
	addss	-24(%rbp), %xmm0        # 4-byte Folded Reload
.Ltmp33:
	#DEBUG_VALUE: pm_pow10f:mul <- [RBP+-20]
	movss	%xmm0, -16(%rbp)        # 4-byte Spill
	movl	$pm_pow_coeff+16, %edi
	movl	$6, %esi
	movl	$4, %edx
	callq	_KLoad0
.Ltmp34:
	#DEBUG_VALUE: pm_pow10f:ans <- [RBP+-20]
	.loc	1 114 3 is_stmt 1       # pm_libm.c:114:3
	movss	-12(%rbp), %xmm1        # 4-byte Reload
	movss	-20(%rbp), %xmm0        # 4-byte Reload
.Ltmp35:
	#DEBUG_VALUE: pm_pow10f:ans <- XMM0
	#DEBUG_VALUE: pm_pow10f:mul <- XMM0
	mulss	%xmm0, %xmm1
	movss	%xmm1, -24(%rbp)        # 4-byte Spill
	.loc	1 113 10                # pm_libm.c:113:10
	mulss	pm_pow_coeff+16(%rip), %xmm0
.Ltmp36:
	.loc	1 113 3 is_stmt 0       # pm_libm.c:113:3
	addss	-16(%rbp), %xmm0        # 4-byte Folded Reload
.Ltmp37:
	#DEBUG_VALUE: pm_pow10f:mul <- [RBP+-24]
	movss	%xmm0, -20(%rbp)        # 4-byte Spill
	movl	$pm_pow_coeff+20, %edi
	movl	$7, %esi
	movl	$4, %edx
	callq	_KLoad0
.Ltmp38:
	#DEBUG_VALUE: pm_pow10f:ans <- [RBP+-24]
	.loc	1 116 3 is_stmt 1       # pm_libm.c:116:3
	movss	-12(%rbp), %xmm1        # 4-byte Reload
	movss	-24(%rbp), %xmm0        # 4-byte Reload
.Ltmp39:
	#DEBUG_VALUE: pm_pow10f:ans <- XMM0
	#DEBUG_VALUE: pm_pow10f:mul <- XMM0
	mulss	%xmm0, %xmm1
	movss	%xmm1, -16(%rbp)        # 4-byte Spill
	.loc	1 115 10                # pm_libm.c:115:10
	mulss	pm_pow_coeff+20(%rip), %xmm0
.Ltmp40:
	.loc	1 115 3 is_stmt 0       # pm_libm.c:115:3
	addss	-20(%rbp), %xmm0        # 4-byte Folded Reload
.Ltmp41:
	#DEBUG_VALUE: pm_pow10f:mul <- [RBP+-16]
	movss	%xmm0, -24(%rbp)        # 4-byte Spill
	movl	$pm_pow_coeff+24, %edi
	movl	$8, %esi
	movl	$4, %edx
	callq	_KLoad0
.Ltmp42:
	#DEBUG_VALUE: pm_pow10f:ans <- [RBP+-16]
	.loc	1 118 3 is_stmt 1       # pm_libm.c:118:3
	movss	-12(%rbp), %xmm1        # 4-byte Reload
	movss	-16(%rbp), %xmm0        # 4-byte Reload
.Ltmp43:
	#DEBUG_VALUE: pm_pow10f:ans <- XMM0
	#DEBUG_VALUE: pm_pow10f:mul <- XMM0
	mulss	%xmm0, %xmm1
	movss	%xmm1, -20(%rbp)        # 4-byte Spill
	.loc	1 117 10                # pm_libm.c:117:10
	mulss	pm_pow_coeff+24(%rip), %xmm0
.Ltmp44:
	.loc	1 117 3 is_stmt 0       # pm_libm.c:117:3
	addss	-24(%rbp), %xmm0        # 4-byte Folded Reload
.Ltmp45:
	#DEBUG_VALUE: pm_pow10f:mul <- [RBP+-20]
	movss	%xmm0, -16(%rbp)        # 4-byte Spill
	movl	$pm_pow_coeff+28, %edi
	movl	$9, %esi
	movl	$4, %edx
	callq	_KLoad0
.Ltmp46:
	#DEBUG_VALUE: pm_pow10f:ans <- [RBP+-20]
	.loc	1 120 3 is_stmt 1       # pm_libm.c:120:3
	movss	-12(%rbp), %xmm1        # 4-byte Reload
	movss	-20(%rbp), %xmm0        # 4-byte Reload
.Ltmp47:
	#DEBUG_VALUE: pm_pow10f:ans <- XMM0
	#DEBUG_VALUE: pm_pow10f:mul <- XMM0
	mulss	%xmm0, %xmm1
	movss	%xmm1, -24(%rbp)        # 4-byte Spill
	.loc	1 119 10                # pm_libm.c:119:10
	mulss	pm_pow_coeff+28(%rip), %xmm0
.Ltmp48:
	.loc	1 119 3 is_stmt 0       # pm_libm.c:119:3
	addss	-16(%rbp), %xmm0        # 4-byte Folded Reload
.Ltmp49:
	#DEBUG_VALUE: pm_pow10f:mul <- [RBP+-24]
	movss	%xmm0, -20(%rbp)        # 4-byte Spill
	movl	$pm_pow_coeff+32, %edi
	movl	$10, %esi
	movl	$4, %edx
	callq	_KLoad0
.Ltmp50:
	#DEBUG_VALUE: pm_pow10f:ans <- [RBP+-24]
	.loc	1 122 3 is_stmt 1       # pm_libm.c:122:3
	movss	-12(%rbp), %xmm1        # 4-byte Reload
	movss	-24(%rbp), %xmm0        # 4-byte Reload
.Ltmp51:
	#DEBUG_VALUE: pm_pow10f:ans <- XMM0
	#DEBUG_VALUE: pm_pow10f:mul <- XMM0
	mulss	%xmm0, %xmm1
	movss	%xmm1, -16(%rbp)        # 4-byte Spill
	.loc	1 121 10                # pm_libm.c:121:10
	mulss	pm_pow_coeff+32(%rip), %xmm0
.Ltmp52:
	.loc	1 121 3 is_stmt 0       # pm_libm.c:121:3
	addss	-20(%rbp), %xmm0        # 4-byte Folded Reload
.Ltmp53:
	#DEBUG_VALUE: pm_pow10f:mul <- [RBP+-16]
	movss	%xmm0, -24(%rbp)        # 4-byte Spill
	movl	$pm_pow_coeff+36, %edi
	movl	$11, %esi
	movl	$4, %edx
	callq	_KLoad0
.Ltmp54:
	#DEBUG_VALUE: pm_pow10f:ans <- [RBP+-16]
	.loc	1 124 3 is_stmt 1       # pm_libm.c:124:3
	movss	-12(%rbp), %xmm1        # 4-byte Reload
	movss	-16(%rbp), %xmm0        # 4-byte Reload
.Ltmp55:
	#DEBUG_VALUE: pm_pow10f:ans <- XMM0
	#DEBUG_VALUE: pm_pow10f:mul <- XMM0
	mulss	%xmm0, %xmm1
	movss	%xmm1, -20(%rbp)        # 4-byte Spill
	.loc	1 123 10                # pm_libm.c:123:10
	mulss	pm_pow_coeff+36(%rip), %xmm0
.Ltmp56:
	.loc	1 123 3 is_stmt 0       # pm_libm.c:123:3
	addss	-24(%rbp), %xmm0        # 4-byte Folded Reload
.Ltmp57:
	#DEBUG_VALUE: pm_pow10f:mul <- [RBP+-20]
	movss	%xmm0, -16(%rbp)        # 4-byte Spill
	movl	$pm_pow_coeff+40, %edi
	movl	$12, %esi
	movl	$4, %edx
	callq	_KLoad0
.Ltmp58:
	#DEBUG_VALUE: pm_pow10f:ans <- [RBP+-20]
	.loc	1 126 3 is_stmt 1       # pm_libm.c:126:3
	movss	-12(%rbp), %xmm1        # 4-byte Reload
	movss	-20(%rbp), %xmm0        # 4-byte Reload
.Ltmp59:
	#DEBUG_VALUE: pm_pow10f:ans <- XMM0
	#DEBUG_VALUE: pm_pow10f:mul <- XMM0
	mulss	%xmm0, %xmm1
	movss	%xmm1, -24(%rbp)        # 4-byte Spill
	.loc	1 125 10                # pm_libm.c:125:10
	mulss	pm_pow_coeff+40(%rip), %xmm0
.Ltmp60:
	.loc	1 125 3 is_stmt 0       # pm_libm.c:125:3
	addss	-16(%rbp), %xmm0        # 4-byte Folded Reload
.Ltmp61:
	#DEBUG_VALUE: pm_pow10f:mul <- [RBP+-24]
	movss	%xmm0, -20(%rbp)        # 4-byte Spill
	movl	$pm_pow_coeff+44, %edi
	movl	$13, %esi
	movl	$4, %edx
	callq	_KLoad0
.Ltmp62:
	#DEBUG_VALUE: pm_pow10f:ans <- [RBP+-24]
	.loc	1 128 3 is_stmt 1       # pm_libm.c:128:3
	movss	-12(%rbp), %xmm1        # 4-byte Reload
	movss	-24(%rbp), %xmm0        # 4-byte Reload
.Ltmp63:
	#DEBUG_VALUE: pm_pow10f:ans <- XMM0
	#DEBUG_VALUE: pm_pow10f:mul <- XMM0
	mulss	%xmm0, %xmm1
	movss	%xmm1, -16(%rbp)        # 4-byte Spill
	.loc	1 127 10                # pm_libm.c:127:10
	mulss	pm_pow_coeff+44(%rip), %xmm0
.Ltmp64:
	.loc	1 127 3 is_stmt 0       # pm_libm.c:127:3
	addss	-20(%rbp), %xmm0        # 4-byte Folded Reload
.Ltmp65:
	#DEBUG_VALUE: pm_pow10f:mul <- [RBP+-16]
	movss	%xmm0, -24(%rbp)        # 4-byte Spill
	movl	$pm_pow_coeff+48, %edi
	movl	$14, %esi
	movl	$4, %edx
	callq	_KLoad0
.Ltmp66:
	#DEBUG_VALUE: pm_pow10f:ans <- [RBP+-16]
	.loc	1 130 3 is_stmt 1       # pm_libm.c:130:3
	movss	-12(%rbp), %xmm1        # 4-byte Reload
	movss	-16(%rbp), %xmm0        # 4-byte Reload
.Ltmp67:
	#DEBUG_VALUE: pm_pow10f:ans <- XMM0
	#DEBUG_VALUE: pm_pow10f:mul <- XMM0
	mulss	%xmm0, %xmm1
	movss	%xmm1, -20(%rbp)        # 4-byte Spill
	.loc	1 129 10                # pm_libm.c:129:10
	mulss	pm_pow_coeff+48(%rip), %xmm0
.Ltmp68:
	.loc	1 129 3 is_stmt 0       # pm_libm.c:129:3
	addss	-24(%rbp), %xmm0        # 4-byte Folded Reload
.Ltmp69:
	#DEBUG_VALUE: pm_pow10f:mul <- [RBP+-20]
	movss	%xmm0, -16(%rbp)        # 4-byte Spill
	movl	$pm_pow_coeff+52, %edi
	movl	$15, %esi
	movl	$4, %edx
	callq	_KLoad0
.Ltmp70:
	#DEBUG_VALUE: pm_pow10f:ans <- [RBP+-20]
	.loc	1 132 3 is_stmt 1       # pm_libm.c:132:3
	movss	-12(%rbp), %xmm1        # 4-byte Reload
	movss	-20(%rbp), %xmm0        # 4-byte Reload
.Ltmp71:
	#DEBUG_VALUE: pm_pow10f:ans <- XMM0
	#DEBUG_VALUE: pm_pow10f:mul <- XMM0
	mulss	%xmm0, %xmm1
	movss	%xmm1, -24(%rbp)        # 4-byte Spill
	.loc	1 131 10                # pm_libm.c:131:10
	mulss	pm_pow_coeff+52(%rip), %xmm0
.Ltmp72:
	.loc	1 131 3 is_stmt 0       # pm_libm.c:131:3
	addss	-16(%rbp), %xmm0        # 4-byte Folded Reload
.Ltmp73:
	#DEBUG_VALUE: pm_pow10f:mul <- [RBP+-24]
	movss	%xmm0, -20(%rbp)        # 4-byte Spill
	movl	$pm_pow_coeff+56, %edi
	movl	$16, %esi
	movl	$4, %edx
	callq	_KLoad0
.Ltmp74:
	#DEBUG_VALUE: pm_pow10f:ans <- [RBP+-24]
	.loc	1 134 3 is_stmt 1       # pm_libm.c:134:3
	movss	-12(%rbp), %xmm1        # 4-byte Reload
	movss	-24(%rbp), %xmm0        # 4-byte Reload
.Ltmp75:
	#DEBUG_VALUE: pm_pow10f:ans <- XMM0
	#DEBUG_VALUE: pm_pow10f:mul <- XMM0
	mulss	%xmm0, %xmm1
	movss	%xmm1, -16(%rbp)        # 4-byte Spill
	.loc	1 133 10                # pm_libm.c:133:10
	mulss	pm_pow_coeff+56(%rip), %xmm0
.Ltmp76:
	.loc	1 133 3 is_stmt 0       # pm_libm.c:133:3
	addss	-20(%rbp), %xmm0        # 4-byte Folded Reload
.Ltmp77:
	#DEBUG_VALUE: pm_pow10f:mul <- [RBP+-16]
	movss	%xmm0, -24(%rbp)        # 4-byte Spill
	movl	$pm_pow_coeff+60, %edi
	movl	$17, %esi
	movl	$4, %edx
	callq	_KLoad0
.Ltmp78:
	#DEBUG_VALUE: pm_pow10f:ans <- [RBP+-16]
	.loc	1 136 3 is_stmt 1       # pm_libm.c:136:3
	movss	-12(%rbp), %xmm1        # 4-byte Reload
	movss	-16(%rbp), %xmm0        # 4-byte Reload
.Ltmp79:
	#DEBUG_VALUE: pm_pow10f:ans <- XMM0
	#DEBUG_VALUE: pm_pow10f:mul <- XMM0
	mulss	%xmm0, %xmm1
	movss	%xmm1, -20(%rbp)        # 4-byte Spill
	.loc	1 135 10                # pm_libm.c:135:10
	mulss	pm_pow_coeff+60(%rip), %xmm0
.Ltmp80:
	.loc	1 135 3 is_stmt 0       # pm_libm.c:135:3
	addss	-24(%rbp), %xmm0        # 4-byte Folded Reload
.Ltmp81:
	#DEBUG_VALUE: pm_pow10f:mul <- [RBP+-20]
	movss	%xmm0, -16(%rbp)        # 4-byte Spill
	movl	$pm_pow_coeff+64, %edi
	movl	$18, %esi
	movl	$4, %edx
	callq	_KLoad0
.Ltmp82:
	#DEBUG_VALUE: pm_pow10f:ans <- [RBP+-20]
	.loc	1 138 3 is_stmt 1       # pm_libm.c:138:3
	movss	-12(%rbp), %xmm1        # 4-byte Reload
	movss	-20(%rbp), %xmm0        # 4-byte Reload
.Ltmp83:
	#DEBUG_VALUE: pm_pow10f:ans <- XMM0
	#DEBUG_VALUE: pm_pow10f:mul <- XMM0
	mulss	%xmm0, %xmm1
	movss	%xmm1, -24(%rbp)        # 4-byte Spill
	.loc	1 137 10                # pm_libm.c:137:10
	mulss	pm_pow_coeff+64(%rip), %xmm0
.Ltmp84:
	.loc	1 137 3 is_stmt 0       # pm_libm.c:137:3
	addss	-16(%rbp), %xmm0        # 4-byte Folded Reload
.Ltmp85:
	#DEBUG_VALUE: pm_pow10f:mul <- [RBP+-24]
	movss	%xmm0, -20(%rbp)        # 4-byte Spill
	movl	$pm_pow_coeff+68, %edi
	movl	$19, %esi
	movl	$4, %edx
	callq	_KLoad0
.Ltmp86:
	#DEBUG_VALUE: pm_pow10f:ans <- [RBP+-24]
	.loc	1 140 3 is_stmt 1       # pm_libm.c:140:3
	movss	-12(%rbp), %xmm0        # 4-byte Reload
	movss	-24(%rbp), %xmm1        # 4-byte Reload
.Ltmp87:
	#DEBUG_VALUE: pm_pow10f:ans <- XMM1
	#DEBUG_VALUE: pm_pow10f:mul <- XMM1
	mulss	%xmm1, %xmm0
	.loc	1 139 10                # pm_libm.c:139:10
	movss	%xmm0, -12(%rbp)        # 4-byte Spill
	mulss	pm_pow_coeff+68(%rip), %xmm1
.Ltmp88:
	.loc	1 139 3 is_stmt 0       # pm_libm.c:139:3
	addss	-20(%rbp), %xmm1        # 4-byte Folded Reload
.Ltmp89:
	#DEBUG_VALUE: pm_pow10f:mul <- [RBP+-12]
	movss	%xmm1, -24(%rbp)        # 4-byte Spill
	movl	$pm_pow_coeff+72, %edi
	movl	$20, %esi
	movl	$4, %edx
	callq	_KLoad0
	movss	-12(%rbp), %xmm0        # 4-byte Reload
.Ltmp90:
	#DEBUG_VALUE: pm_pow10f:mul <- XMM0
	.loc	1 141 10 is_stmt 1      # pm_libm.c:141:10
	mulss	pm_pow_coeff+72(%rip), %xmm0
.Ltmp91:
	.loc	1 141 3 is_stmt 0       # pm_libm.c:141:3
	addss	-24(%rbp), %xmm0        # 4-byte Folded Reload
.Ltmp92:
	#DEBUG_VALUE: pm_pow10f:ans <- XMM0
	movss	%xmm0, -12(%rbp)        # 4-byte Spill
.Ltmp93:
	#DEBUG_VALUE: pm_pow10f:ans <- [RBP+-12]
	movl	$9, 280(%rsp)
	movl	$19, 272(%rsp)
	movl	$11, 264(%rsp)
	movl	$18, 256(%rsp)
	movl	$15, 248(%rsp)
	movl	$16, 240(%rsp)
	movl	$17, 232(%rsp)
	movl	$15, 224(%rsp)
	movl	$19, 216(%rsp)
	movl	$14, 208(%rsp)
	movl	$21, 200(%rsp)
	movl	$13, 192(%rsp)
	movl	$23, 184(%rsp)
	movl	$12, 176(%rsp)
	movl	$25, 168(%rsp)
	movl	$11, 160(%rsp)
	movl	$27, 152(%rsp)
	movl	$10, 144(%rsp)
	movl	$29, 136(%rsp)
	movl	$9, 128(%rsp)
	movl	$13, 120(%rsp)
	movl	$17, 112(%rsp)
	movl	$31, 104(%rsp)
	movl	$8, 96(%rsp)
	movl	$33, 88(%rsp)
	movl	$7, 80(%rsp)
	movl	$35, 72(%rsp)
	movl	$6, 64(%rsp)
	movl	$37, 56(%rsp)
	movl	$5, 48(%rsp)
	movl	$39, 40(%rsp)
	movl	$4, 32(%rsp)
	movl	$41, 24(%rsp)
	movl	$3, 16(%rsp)
	movl	$43, 8(%rsp)
	movl	$2, (%rsp)
	movl	$21, %edi
	movl	$20, %esi
	movl	$1, %edx
	movl	$107, %ecx
	movl	$20, %r8d
	movl	$7, %r9d
	xorl	%eax, %eax
	callq	_KTimestamp
	movl	$21, %edi
	callq	_KReturn
	xorl	%esi, %esi
	movq	%rbx, %rdi
	callq	_KExitRegion
	.loc	1 143 3 is_stmt 1       # pm_libm.c:143:3
	movss	-12(%rbp), %xmm0        # 4-byte Reload
	addq	$312, %rsp              # imm = 0x138
	popq	%rbx
	popq	%rbp
	retq
.Ltmp94:
.Ltmp95:
	.size	pm_pow10f, .Ltmp95-pm_pow10f
.Lfunc_end1:
	.cfi_endproc

	.section	.rodata.cst4,"aM",@progbits,4
	.align	4
.LCPI2_0:
	.long	3212836864              # float -1
.LCPI2_1:
	.long	1065353216              # float 1
.LCPI2_2:
	.long	1063148505              # float 0.868588984
	.text
	.globl	pm_log10f
	.align	16, 0x90
	.type	pm_log10f,@function
pm_log10f:                              # @pm_log10f
.Lfunc_begin2:
	.loc	1 152 0                 # pm_libm.c:152:0
	.cfi_startproc
# BB#0:                                 # %entry
	pushq	%rbp
.Ltmp96:
	.cfi_def_cfa_offset 16
.Ltmp97:
	.cfi_offset %rbp, -16
	movq	%rsp, %rbp
.Ltmp98:
	.cfi_def_cfa_register %rbp
	pushq	%rbx
	subq	$264, %rsp              # imm = 0x108
.Ltmp99:
	.cfi_offset %rbx, -24
	#DEBUG_VALUE: pm_log10f:exp <- XMM0
	movss	%xmm0, -12(%rbp)        # 4-byte Spill
.Ltmp100:
	#DEBUG_VALUE: pm_log10f:exp <- [RBP+-12]
	movabsq	$9018009666235919751, %rbx # imm = 0x7D2668031107ED87
	xorl	%esi, %esi
	movq	%rbx, %rdi
	callq	_KEnterRegion
	movl	$19, %edi
	xorl	%esi, %esi
	callq	_KPrepRTable
	movl	$290, %edi              # imm = 0x122
	callq	_KWork
	movl	$1, %edi
	callq	_KDeqArg
	movss	.LCPI2_0(%rip), %xmm1
	movss	-12(%rbp), %xmm0        # 4-byte Reload
.Ltmp101:
	#DEBUG_VALUE: pm_log10f:exp <- XMM0
	.loc	1 153 17 prologue_end   # pm_libm.c:153:17
	addss	%xmm0, %xmm1
	.loc	1 153 34 is_stmt 0      # pm_libm.c:153:34
	addss	.LCPI2_1(%rip), %xmm0
.Ltmp102:
	.loc	1 153 15                # pm_libm.c:153:15
	divss	%xmm0, %xmm1
.Ltmp103:
	#DEBUG_VALUE: pm_log10f:mul <- XMM1
	#DEBUG_VALUE: pm_log10f:ans <- 0.000000e+00
	.loc	1 156 22 is_stmt 1      # pm_libm.c:156:22
	movss	%xmm1, -24(%rbp)        # 4-byte Spill
	movaps	%xmm1, %xmm0
	mulss	%xmm0, %xmm0
.Ltmp104:
	#DEBUG_VALUE: pm_log10f:term <- XMM0
	.loc	1 159 3                 # pm_libm.c:159:3
	movss	%xmm0, -12(%rbp)        # 4-byte Spill
.Ltmp105:
	#DEBUG_VALUE: pm_log10f:mul <- [RBP+-24]
	mulss	%xmm0, %xmm1
.Ltmp106:
	#DEBUG_VALUE: pm_log10f:mul <- XMM1
	movss	%xmm1, -16(%rbp)        # 4-byte Spill
.Ltmp107:
	#DEBUG_VALUE: pm_log10f:term <- [RBP+-12]
	#DEBUG_VALUE: pm_log10f:mul <- [RBP+-16]
	movl	$pm_log_coeff, %edi
	movl	$2, %esi
	movl	$4, %edx
	callq	_KLoad0
.Ltmp108:
	#DEBUG_VALUE: pm_log10f:ans <- [RBP+-16]
	.loc	1 162 3                 # pm_libm.c:162:3
	movss	-12(%rbp), %xmm1        # 4-byte Reload
	movss	-16(%rbp), %xmm0        # 4-byte Reload
.Ltmp109:
	#DEBUG_VALUE: pm_log10f:mul <- XMM0
	#DEBUG_VALUE: pm_log10f:ans <- XMM0
	mulss	%xmm0, %xmm1
	movss	%xmm1, -20(%rbp)        # 4-byte Spill
	.loc	1 161 10                # pm_libm.c:161:10
	mulss	pm_log_coeff(%rip), %xmm0
.Ltmp110:
	.loc	1 161 3 is_stmt 0       # pm_libm.c:161:3
	addss	-24(%rbp), %xmm0        # 4-byte Folded Reload
.Ltmp111:
	#DEBUG_VALUE: pm_log10f:mul <- [RBP+-20]
	movss	%xmm0, -16(%rbp)        # 4-byte Spill
	movl	$pm_log_coeff+4, %edi
	movl	$3, %esi
	movl	$4, %edx
	callq	_KLoad0
.Ltmp112:
	#DEBUG_VALUE: pm_log10f:ans <- [RBP+-20]
	.loc	1 164 3 is_stmt 1       # pm_libm.c:164:3
	movss	-12(%rbp), %xmm1        # 4-byte Reload
	movss	-20(%rbp), %xmm0        # 4-byte Reload
.Ltmp113:
	#DEBUG_VALUE: pm_log10f:mul <- XMM0
	#DEBUG_VALUE: pm_log10f:ans <- XMM0
	mulss	%xmm0, %xmm1
	movss	%xmm1, -24(%rbp)        # 4-byte Spill
	.loc	1 163 10                # pm_libm.c:163:10
	mulss	pm_log_coeff+4(%rip), %xmm0
.Ltmp114:
	.loc	1 163 3 is_stmt 0       # pm_libm.c:163:3
	addss	-16(%rbp), %xmm0        # 4-byte Folded Reload
.Ltmp115:
	#DEBUG_VALUE: pm_log10f:mul <- [RBP+-24]
	movss	%xmm0, -20(%rbp)        # 4-byte Spill
	movl	$pm_log_coeff+8, %edi
	movl	$4, %esi
	movl	$4, %edx
	callq	_KLoad0
.Ltmp116:
	#DEBUG_VALUE: pm_log10f:ans <- [RBP+-24]
	.loc	1 166 3 is_stmt 1       # pm_libm.c:166:3
	movss	-12(%rbp), %xmm1        # 4-byte Reload
	movss	-24(%rbp), %xmm0        # 4-byte Reload
.Ltmp117:
	#DEBUG_VALUE: pm_log10f:mul <- XMM0
	#DEBUG_VALUE: pm_log10f:ans <- XMM0
	mulss	%xmm0, %xmm1
	movss	%xmm1, -16(%rbp)        # 4-byte Spill
	.loc	1 165 10                # pm_libm.c:165:10
	mulss	pm_log_coeff+8(%rip), %xmm0
.Ltmp118:
	.loc	1 165 3 is_stmt 0       # pm_libm.c:165:3
	addss	-20(%rbp), %xmm0        # 4-byte Folded Reload
.Ltmp119:
	#DEBUG_VALUE: pm_log10f:mul <- [RBP+-16]
	movss	%xmm0, -24(%rbp)        # 4-byte Spill
	movl	$pm_log_coeff+12, %edi
	movl	$5, %esi
	movl	$4, %edx
	callq	_KLoad0
.Ltmp120:
	#DEBUG_VALUE: pm_log10f:ans <- [RBP+-16]
	.loc	1 168 3 is_stmt 1       # pm_libm.c:168:3
	movss	-12(%rbp), %xmm1        # 4-byte Reload
	movss	-16(%rbp), %xmm0        # 4-byte Reload
.Ltmp121:
	#DEBUG_VALUE: pm_log10f:mul <- XMM0
	#DEBUG_VALUE: pm_log10f:ans <- XMM0
	mulss	%xmm0, %xmm1
	movss	%xmm1, -20(%rbp)        # 4-byte Spill
	.loc	1 167 10                # pm_libm.c:167:10
	mulss	pm_log_coeff+12(%rip), %xmm0
.Ltmp122:
	.loc	1 167 3 is_stmt 0       # pm_libm.c:167:3
	addss	-24(%rbp), %xmm0        # 4-byte Folded Reload
.Ltmp123:
	#DEBUG_VALUE: pm_log10f:mul <- [RBP+-20]
	movss	%xmm0, -16(%rbp)        # 4-byte Spill
	movl	$pm_log_coeff+16, %edi
	movl	$6, %esi
	movl	$4, %edx
	callq	_KLoad0
.Ltmp124:
	#DEBUG_VALUE: pm_log10f:ans <- [RBP+-20]
	.loc	1 170 3 is_stmt 1       # pm_libm.c:170:3
	movss	-12(%rbp), %xmm1        # 4-byte Reload
	movss	-20(%rbp), %xmm0        # 4-byte Reload
.Ltmp125:
	#DEBUG_VALUE: pm_log10f:mul <- XMM0
	#DEBUG_VALUE: pm_log10f:ans <- XMM0
	mulss	%xmm0, %xmm1
	movss	%xmm1, -24(%rbp)        # 4-byte Spill
	.loc	1 169 10                # pm_libm.c:169:10
	mulss	pm_log_coeff+16(%rip), %xmm0
.Ltmp126:
	.loc	1 169 3 is_stmt 0       # pm_libm.c:169:3
	addss	-16(%rbp), %xmm0        # 4-byte Folded Reload
.Ltmp127:
	#DEBUG_VALUE: pm_log10f:mul <- [RBP+-24]
	movss	%xmm0, -20(%rbp)        # 4-byte Spill
	movl	$pm_log_coeff+20, %edi
	movl	$7, %esi
	movl	$4, %edx
	callq	_KLoad0
.Ltmp128:
	#DEBUG_VALUE: pm_log10f:ans <- [RBP+-24]
	.loc	1 172 3 is_stmt 1       # pm_libm.c:172:3
	movss	-12(%rbp), %xmm1        # 4-byte Reload
	movss	-24(%rbp), %xmm0        # 4-byte Reload
.Ltmp129:
	#DEBUG_VALUE: pm_log10f:mul <- XMM0
	#DEBUG_VALUE: pm_log10f:ans <- XMM0
	mulss	%xmm0, %xmm1
	movss	%xmm1, -16(%rbp)        # 4-byte Spill
	.loc	1 171 10                # pm_libm.c:171:10
	mulss	pm_log_coeff+20(%rip), %xmm0
.Ltmp130:
	.loc	1 171 3 is_stmt 0       # pm_libm.c:171:3
	addss	-20(%rbp), %xmm0        # 4-byte Folded Reload
.Ltmp131:
	#DEBUG_VALUE: pm_log10f:mul <- [RBP+-16]
	movss	%xmm0, -24(%rbp)        # 4-byte Spill
	movl	$pm_log_coeff+24, %edi
	movl	$8, %esi
	movl	$4, %edx
	callq	_KLoad0
.Ltmp132:
	#DEBUG_VALUE: pm_log10f:ans <- [RBP+-16]
	.loc	1 174 3 is_stmt 1       # pm_libm.c:174:3
	movss	-12(%rbp), %xmm1        # 4-byte Reload
	movss	-16(%rbp), %xmm0        # 4-byte Reload
.Ltmp133:
	#DEBUG_VALUE: pm_log10f:mul <- XMM0
	#DEBUG_VALUE: pm_log10f:ans <- XMM0
	mulss	%xmm0, %xmm1
	movss	%xmm1, -20(%rbp)        # 4-byte Spill
	.loc	1 173 10                # pm_libm.c:173:10
	mulss	pm_log_coeff+24(%rip), %xmm0
.Ltmp134:
	.loc	1 173 3 is_stmt 0       # pm_libm.c:173:3
	addss	-24(%rbp), %xmm0        # 4-byte Folded Reload
.Ltmp135:
	#DEBUG_VALUE: pm_log10f:mul <- [RBP+-20]
	movss	%xmm0, -16(%rbp)        # 4-byte Spill
	movl	$pm_log_coeff+28, %edi
	movl	$9, %esi
	movl	$4, %edx
	callq	_KLoad0
.Ltmp136:
	#DEBUG_VALUE: pm_log10f:ans <- [RBP+-20]
	.loc	1 176 3 is_stmt 1       # pm_libm.c:176:3
	movss	-12(%rbp), %xmm1        # 4-byte Reload
	movss	-20(%rbp), %xmm0        # 4-byte Reload
.Ltmp137:
	#DEBUG_VALUE: pm_log10f:mul <- XMM0
	#DEBUG_VALUE: pm_log10f:ans <- XMM0
	mulss	%xmm0, %xmm1
	movss	%xmm1, -24(%rbp)        # 4-byte Spill
	.loc	1 175 10                # pm_libm.c:175:10
	mulss	pm_log_coeff+28(%rip), %xmm0
.Ltmp138:
	.loc	1 175 3 is_stmt 0       # pm_libm.c:175:3
	addss	-16(%rbp), %xmm0        # 4-byte Folded Reload
.Ltmp139:
	#DEBUG_VALUE: pm_log10f:mul <- [RBP+-24]
	movss	%xmm0, -20(%rbp)        # 4-byte Spill
	movl	$pm_log_coeff+32, %edi
	movl	$10, %esi
	movl	$4, %edx
	callq	_KLoad0
.Ltmp140:
	#DEBUG_VALUE: pm_log10f:ans <- [RBP+-24]
	.loc	1 178 3 is_stmt 1       # pm_libm.c:178:3
	movss	-12(%rbp), %xmm1        # 4-byte Reload
	movss	-24(%rbp), %xmm0        # 4-byte Reload
.Ltmp141:
	#DEBUG_VALUE: pm_log10f:mul <- XMM0
	#DEBUG_VALUE: pm_log10f:ans <- XMM0
	mulss	%xmm0, %xmm1
	movss	%xmm1, -16(%rbp)        # 4-byte Spill
	.loc	1 177 10                # pm_libm.c:177:10
	mulss	pm_log_coeff+32(%rip), %xmm0
.Ltmp142:
	.loc	1 177 3 is_stmt 0       # pm_libm.c:177:3
	addss	-20(%rbp), %xmm0        # 4-byte Folded Reload
.Ltmp143:
	#DEBUG_VALUE: pm_log10f:mul <- [RBP+-16]
	movss	%xmm0, -24(%rbp)        # 4-byte Spill
	movl	$pm_log_coeff+36, %edi
	movl	$11, %esi
	movl	$4, %edx
	callq	_KLoad0
.Ltmp144:
	#DEBUG_VALUE: pm_log10f:ans <- [RBP+-16]
	.loc	1 180 3 is_stmt 1       # pm_libm.c:180:3
	movss	-12(%rbp), %xmm1        # 4-byte Reload
	movss	-16(%rbp), %xmm0        # 4-byte Reload
.Ltmp145:
	#DEBUG_VALUE: pm_log10f:mul <- XMM0
	#DEBUG_VALUE: pm_log10f:ans <- XMM0
	mulss	%xmm0, %xmm1
	movss	%xmm1, -20(%rbp)        # 4-byte Spill
	.loc	1 179 10                # pm_libm.c:179:10
	mulss	pm_log_coeff+36(%rip), %xmm0
.Ltmp146:
	.loc	1 179 3 is_stmt 0       # pm_libm.c:179:3
	addss	-24(%rbp), %xmm0        # 4-byte Folded Reload
.Ltmp147:
	#DEBUG_VALUE: pm_log10f:mul <- [RBP+-20]
	movss	%xmm0, -16(%rbp)        # 4-byte Spill
	movl	$pm_log_coeff+40, %edi
	movl	$12, %esi
	movl	$4, %edx
	callq	_KLoad0
.Ltmp148:
	#DEBUG_VALUE: pm_log10f:ans <- [RBP+-20]
	.loc	1 182 3 is_stmt 1       # pm_libm.c:182:3
	movss	-12(%rbp), %xmm1        # 4-byte Reload
	movss	-20(%rbp), %xmm0        # 4-byte Reload
.Ltmp149:
	#DEBUG_VALUE: pm_log10f:mul <- XMM0
	#DEBUG_VALUE: pm_log10f:ans <- XMM0
	mulss	%xmm0, %xmm1
	movss	%xmm1, -24(%rbp)        # 4-byte Spill
	.loc	1 181 10                # pm_libm.c:181:10
	mulss	pm_log_coeff+40(%rip), %xmm0
.Ltmp150:
	.loc	1 181 3 is_stmt 0       # pm_libm.c:181:3
	addss	-16(%rbp), %xmm0        # 4-byte Folded Reload
.Ltmp151:
	#DEBUG_VALUE: pm_log10f:mul <- [RBP+-24]
	movss	%xmm0, -20(%rbp)        # 4-byte Spill
	movl	$pm_log_coeff+44, %edi
	movl	$13, %esi
	movl	$4, %edx
	callq	_KLoad0
.Ltmp152:
	#DEBUG_VALUE: pm_log10f:ans <- [RBP+-24]
	.loc	1 184 3 is_stmt 1       # pm_libm.c:184:3
	movss	-12(%rbp), %xmm1        # 4-byte Reload
	movss	-24(%rbp), %xmm0        # 4-byte Reload
.Ltmp153:
	#DEBUG_VALUE: pm_log10f:mul <- XMM0
	#DEBUG_VALUE: pm_log10f:ans <- XMM0
	mulss	%xmm0, %xmm1
	movss	%xmm1, -16(%rbp)        # 4-byte Spill
	.loc	1 183 10                # pm_libm.c:183:10
	mulss	pm_log_coeff+44(%rip), %xmm0
.Ltmp154:
	.loc	1 183 3 is_stmt 0       # pm_libm.c:183:3
	addss	-20(%rbp), %xmm0        # 4-byte Folded Reload
.Ltmp155:
	#DEBUG_VALUE: pm_log10f:mul <- [RBP+-16]
	movss	%xmm0, -24(%rbp)        # 4-byte Spill
	movl	$pm_log_coeff+48, %edi
	movl	$14, %esi
	movl	$4, %edx
	callq	_KLoad0
.Ltmp156:
	#DEBUG_VALUE: pm_log10f:ans <- [RBP+-16]
	.loc	1 186 3 is_stmt 1       # pm_libm.c:186:3
	movss	-12(%rbp), %xmm1        # 4-byte Reload
	movss	-16(%rbp), %xmm0        # 4-byte Reload
.Ltmp157:
	#DEBUG_VALUE: pm_log10f:mul <- XMM0
	#DEBUG_VALUE: pm_log10f:ans <- XMM0
	mulss	%xmm0, %xmm1
	movss	%xmm1, -20(%rbp)        # 4-byte Spill
	.loc	1 185 10                # pm_libm.c:185:10
	mulss	pm_log_coeff+48(%rip), %xmm0
.Ltmp158:
	.loc	1 185 3 is_stmt 0       # pm_libm.c:185:3
	addss	-24(%rbp), %xmm0        # 4-byte Folded Reload
.Ltmp159:
	#DEBUG_VALUE: pm_log10f:mul <- [RBP+-20]
	movss	%xmm0, -16(%rbp)        # 4-byte Spill
	movl	$pm_log_coeff+52, %edi
	movl	$15, %esi
	movl	$4, %edx
	callq	_KLoad0
.Ltmp160:
	#DEBUG_VALUE: pm_log10f:ans <- [RBP+-20]
	.loc	1 188 3 is_stmt 1       # pm_libm.c:188:3
	movss	-12(%rbp), %xmm1        # 4-byte Reload
	movss	-20(%rbp), %xmm0        # 4-byte Reload
.Ltmp161:
	#DEBUG_VALUE: pm_log10f:mul <- XMM0
	#DEBUG_VALUE: pm_log10f:ans <- XMM0
	mulss	%xmm0, %xmm1
	movss	%xmm1, -24(%rbp)        # 4-byte Spill
	.loc	1 187 10                # pm_libm.c:187:10
	mulss	pm_log_coeff+52(%rip), %xmm0
.Ltmp162:
	.loc	1 187 3 is_stmt 0       # pm_libm.c:187:3
	addss	-16(%rbp), %xmm0        # 4-byte Folded Reload
.Ltmp163:
	#DEBUG_VALUE: pm_log10f:mul <- [RBP+-24]
	movss	%xmm0, -20(%rbp)        # 4-byte Spill
	movl	$pm_log_coeff+56, %edi
	movl	$16, %esi
	movl	$4, %edx
	callq	_KLoad0
.Ltmp164:
	#DEBUG_VALUE: pm_log10f:ans <- [RBP+-24]
	.loc	1 190 3 is_stmt 1       # pm_libm.c:190:3
	movss	-12(%rbp), %xmm0        # 4-byte Reload
	movss	-24(%rbp), %xmm1        # 4-byte Reload
.Ltmp165:
	#DEBUG_VALUE: pm_log10f:mul <- XMM1
	#DEBUG_VALUE: pm_log10f:ans <- XMM1
	mulss	%xmm1, %xmm0
	.loc	1 189 10                # pm_libm.c:189:10
	movss	%xmm0, -12(%rbp)        # 4-byte Spill
	mulss	pm_log_coeff+56(%rip), %xmm1
.Ltmp166:
	.loc	1 189 3 is_stmt 0       # pm_libm.c:189:3
	addss	-20(%rbp), %xmm1        # 4-byte Folded Reload
.Ltmp167:
	#DEBUG_VALUE: pm_log10f:mul <- [RBP+-12]
	movss	%xmm1, -24(%rbp)        # 4-byte Spill
	movl	$pm_log_coeff+60, %edi
	movl	$17, %esi
	movl	$4, %edx
	callq	_KLoad0
	movss	-12(%rbp), %xmm0        # 4-byte Reload
.Ltmp168:
	#DEBUG_VALUE: pm_log10f:mul <- XMM0
	.loc	1 191 10 is_stmt 1      # pm_libm.c:191:10
	mulss	pm_log_coeff+60(%rip), %xmm0
.Ltmp169:
	.loc	1 191 3 is_stmt 0       # pm_libm.c:191:3
	addss	-24(%rbp), %xmm0        # 4-byte Folded Reload
.Ltmp170:
	#DEBUG_VALUE: pm_log10f:ans <- XMM0
	.loc	1 193 3 is_stmt 1       # pm_libm.c:193:3
	mulss	.LCPI2_2(%rip), %xmm0
.Ltmp171:
	movss	%xmm0, -12(%rbp)        # 4-byte Spill
.Ltmp172:
	#DEBUG_VALUE: pm_log10f:ans <- [RBP+-12]
	movl	$14, 232(%rsp)
	movl	$16, 224(%rsp)
	movl	$16, 216(%rsp)
	movl	$15, 208(%rsp)
	movl	$18, 200(%rsp)
	movl	$14, 192(%rsp)
	movl	$20, 184(%rsp)
	movl	$13, 176(%rsp)
	movl	$22, 168(%rsp)
	movl	$12, 160(%rsp)
	movl	$24, 152(%rsp)
	movl	$11, 144(%rsp)
	movl	$34, 136(%rsp)
	movl	$6, 128(%rsp)
	movl	$36, 120(%rsp)
	movl	$5, 112(%rsp)
	movl	$38, 104(%rsp)
	movl	$4, 96(%rsp)
	movl	$40, 88(%rsp)
	movl	$3, 80(%rsp)
	movl	$42, 72(%rsp)
	movl	$2, 64(%rsp)
	movl	$12, 56(%rsp)
	movl	$17, 48(%rsp)
	movl	$32, 40(%rsp)
	movl	$7, 32(%rsp)
	movl	$119, 24(%rsp)
	movl	$1, 16(%rsp)
	movl	$26, 8(%rsp)
	movl	$10, (%rsp)
	movl	$18, %edi
	movl	$17, %esi
	movl	$8, %edx
	movl	$30, %ecx
	movl	$9, %r8d
	movl	$28, %r9d
	xorl	%eax, %eax
	callq	_KTimestamp
	movl	$18, %edi
	callq	_KReturn
	xorl	%esi, %esi
	movq	%rbx, %rdi
	callq	_KExitRegion
	.loc	1 195 3                 # pm_libm.c:195:3
	movss	-12(%rbp), %xmm0        # 4-byte Reload
	addq	$264, %rsp              # imm = 0x108
	popq	%rbx
	popq	%rbp
	retq
.Ltmp173:
.Ltmp174:
	.size	pm_log10f, .Ltmp174-pm_log10f
.Lfunc_end2:
	.cfi_endproc

	.section	.rodata.cst16,"aM",@progbits,16
	.align	16
.LCPI3_0:
	.long	2147483648              # 0x80000000
	.long	2147483648              # 0x80000000
	.long	2147483648              # 0x80000000
	.long	2147483648              # 0x80000000
	.text
	.globl	pm_fabs
	.align	16, 0x90
	.type	pm_fabs,@function
pm_fabs:                                # @pm_fabs
.Lfunc_begin3:
	.loc	1 200 0                 # pm_libm.c:200:0
	.cfi_startproc
# BB#0:                                 # %entry
	pushq	%rbp
.Ltmp175:
	.cfi_def_cfa_offset 16
.Ltmp176:
	.cfi_offset %rbp, -16
	movq	%rsp, %rbp
.Ltmp177:
	.cfi_def_cfa_register %rbp
	pushq	%r14
	pushq	%rbx
	subq	$16, %rsp
.Ltmp178:
	.cfi_offset %rbx, -32
.Ltmp179:
	.cfi_offset %r14, -24
	#DEBUG_VALUE: pm_fabs:n <- XMM0
	movss	%xmm0, -20(%rbp)        # 4-byte Spill
.Ltmp180:
	#DEBUG_VALUE: pm_fabs:n <- [RBP+-20]
	#DEBUG_VALUE: pm_fabs:n <- undef
	movabsq	$-2658863843949832532, %r14 # imm = 0xDB19D16BD33D96AC
	xorl	%esi, %esi
	movq	%r14, %rdi
	callq	_KEnterRegion
	movl	$5, %edi
	xorl	%esi, %esi
	callq	_KPrepRTable
	movl	$1, %ebx
	movl	$1, %edi
	callq	_KDeqArg
	movl	$2, %edi
	callq	_KWork
	movl	$4, %edi
	movl	$1, %esi
	movl	$2, %edx
	callq	_KTimestamp1
	movl	$4, %edi
	callq	_KPushCDep
	xorps	%xmm0, %xmm0
	.loc	1 201 8 prologue_end    # pm_libm.c:201:8
.Ltmp181:
	movss	-20(%rbp), %xmm1        # 4-byte Reload
	ucomiss	%xmm0, %xmm1
.Ltmp182:
	#DEBUG_VALUE: pm_fabs:n <- [RBP+-20]
	jae	.LBB3_1
# BB#2:                                 # %if.else
	#DEBUG_VALUE: pm_fabs:n <- [RBP+-20]
	movl	$2, %edi
	callq	_KWork
	.loc	1 204 12                # pm_libm.c:204:12
	movss	-20(%rbp), %xmm0        # 4-byte Reload
	xorps	.LCPI3_0(%rip), %xmm0
	movss	%xmm0, -20(%rbp)        # 4-byte Spill
	movl	$3, %ebx
	movl	$3, %edi
	movl	$1, %esi
	movl	$4, %edx
	jmp	.LBB3_3
.Ltmp183:
.LBB3_1:                                # %if.then
	#DEBUG_VALUE: pm_fabs:n <- [RBP+-20]
	movl	$1, %edi
	movl	$1, %esi
	xorl	%edx, %edx
.LBB3_3:                                # %return
	callq	_KTimestamp1
	callq	_KPopCDep
	movl	$2, %edi
	movl	$4, %edx
	movl	%ebx, %esi
	callq	_KPhi1To1
	movl	$2, %edi
	movl	$2, %esi
	xorl	%edx, %edx
	callq	_KTimestamp1
	movl	$2, %edi
	callq	_KReturn
	xorl	%esi, %esi
	movq	%r14, %rdi
	callq	_KExitRegion
	.loc	1 205 1                 # pm_libm.c:205:1
	movss	-20(%rbp), %xmm0        # 4-byte Reload
	addq	$16, %rsp
	popq	%rbx
	popq	%r14
	popq	%rbp
	retq
.Ltmp184:
.Ltmp185:
	.size	pm_fabs, .Ltmp185-pm_fabs
.Lfunc_end3:
	.cfi_endproc

	.section	.rodata.cst16,"aM",@progbits,16
	.align	16
.LCPI4_0:
	.long	2147483648              # 0x80000000
	.long	2147483648              # 0x80000000
	.long	2147483648              # 0x80000000
	.long	2147483648              # 0x80000000
	.text
	.globl	pm_floor
	.align	16, 0x90
	.type	pm_floor,@function
pm_floor:                               # @pm_floor
.Lfunc_begin4:
	.loc	1 209 0                 # pm_libm.c:209:0
	.cfi_startproc
# BB#0:                                 # %entry
	pushq	%rbp
.Ltmp186:
	.cfi_def_cfa_offset 16
.Ltmp187:
	.cfi_offset %rbp, -16
	movq	%rsp, %rbp
.Ltmp188:
	.cfi_def_cfa_register %rbp
	pushq	%r15
	pushq	%r14
	pushq	%rbx
	pushq	%rax
.Ltmp189:
	.cfi_offset %rbx, -40
.Ltmp190:
	.cfi_offset %r14, -32
.Ltmp191:
	.cfi_offset %r15, -24
	#DEBUG_VALUE: pm_floor:arg <- XMM0
	movss	%xmm0, -28(%rbp)        # 4-byte Spill
.Ltmp192:
	#DEBUG_VALUE: pm_floor:arg <- [RBP+-28]
	#DEBUG_VALUE: pm_floor:arg <- undef
	movabsq	$3475266770584164089, %r14 # imm = 0x303AA0B7106356F9
	xorl	%esi, %esi
	movq	%r14, %rdi
	callq	_KEnterRegion
	movl	$6, %edi
	xorl	%esi, %esi
	callq	_KPrepRTable
	movl	$1, %edi
	callq	_KDeqArg
	movl	$2, %edi
	callq	_KWork
	movl	$5, %edi
	movl	$1, %esi
	movl	$2, %edx
	callq	_KTimestamp1
	movl	$5, %edi
	callq	_KPushCDep
	xorps	%xmm0, %xmm0
	.loc	1 210 8 prologue_end    # pm_libm.c:210:8
.Ltmp193:
	movss	-28(%rbp), %xmm1        # 4-byte Reload
	ucomiss	%xmm0, %xmm1
.Ltmp194:
	#DEBUG_VALUE: pm_floor:arg <- [RBP+-28]
	jae	.LBB4_1
.Ltmp195:
# BB#2:                                 # %if.end
	#DEBUG_VALUE: pm_floor:arg <- [RBP+-28]
	movl	$4, %r15d
	movl	$4, %edi
	callq	_KWork
	movss	-28(%rbp), %xmm0        # 4-byte Reload
.Ltmp196:
	#DEBUG_VALUE: pm_floor:arg <- XMM0
	.loc	1 211 22                # pm_libm.c:211:22
	xorps	.LCPI4_0(%rip), %xmm0
.Ltmp197:
	.loc	1 211 13 is_stmt 0      # pm_libm.c:211:13
	cvttss2si	%xmm0, %ebx
	.loc	1 211 10                # pm_libm.c:211:10
	notl	%ebx
	movl	$4, %edi
	movl	$1, %esi
	movl	$6, %edx
	jmp	.LBB4_3
.LBB4_1:                                # %if.then
.Ltmp198:
	#DEBUG_VALUE: pm_floor:arg <- [RBP+-28]
	.loc	1 210 26 is_stmt 1      # pm_libm.c:210:26
	cvttss2si	-28(%rbp), %ebx # 4-byte Folded Reload
	movl	$3, %r15d
	movl	$3, %edi
	movl	$1, %esi
	movl	$2, %edx
.LBB4_3:                                # %return
	callq	_KTimestamp1
	callq	_KPopCDep
	xorps	%xmm0, %xmm0
	cvtsi2ssl	%ebx, %xmm0
	movss	%xmm0, -28(%rbp)        # 4-byte Spill
	movl	$2, %edi
	movl	$5, %edx
	movl	%r15d, %esi
	callq	_KPhi1To1
	movl	$2, %edi
	movl	$2, %esi
	xorl	%edx, %edx
	callq	_KTimestamp1
	movl	$2, %edi
	callq	_KReturn
	xorl	%esi, %esi
	movq	%r14, %rdi
	callq	_KExitRegion
.Ltmp199:
	.loc	1 212 1                 # pm_libm.c:212:1
	movss	-28(%rbp), %xmm0        # 4-byte Reload
	addq	$8, %rsp
	popq	%rbx
	popq	%r14
	popq	%r15
	popq	%rbp
	retq
.Ltmp200:
.Ltmp201:
	.size	pm_floor, .Ltmp201-pm_floor
.Lfunc_end4:
	.cfi_endproc

	.section	.rodata.cst4,"aM",@progbits,4
	.align	4
.LCPI5_0:
	.long	1065353216              # float 1
	.text
	.globl	pm_ceil
	.align	16, 0x90
	.type	pm_ceil,@function
pm_ceil:                                # @pm_ceil
.Lfunc_begin5:
	.loc	1 216 0                 # pm_libm.c:216:0
	.cfi_startproc
# BB#0:                                 # %entry
	pushq	%rbp
.Ltmp202:
	.cfi_def_cfa_offset 16
.Ltmp203:
	.cfi_offset %rbp, -16
	movq	%rsp, %rbp
.Ltmp204:
	.cfi_def_cfa_register %rbp
	pushq	%r14
	pushq	%rbx
	subq	$16, %rsp
.Ltmp205:
	.cfi_offset %rbx, -32
.Ltmp206:
	.cfi_offset %r14, -24
	#DEBUG_VALUE: pm_ceil:arg <- XMM0
	movss	%xmm0, -20(%rbp)        # 4-byte Spill
.Ltmp207:
	#DEBUG_VALUE: pm_ceil:arg <- [RBP+-20]
	#DEBUG_VALUE: pm_ceil:arg <- undef
	movabsq	$-2123694095884860303, %r14 # imm = 0xE2871F78BB304471
	xorl	%esi, %esi
	movq	%r14, %rdi
	callq	_KEnterRegion
	movl	$6, %edi
	xorl	%esi, %esi
	callq	_KPrepRTable
	movl	$1, %edi
	callq	_KDeqArg
	movl	$2, %edi
	callq	_KWork
	movl	$5, %edi
	movl	$1, %esi
	movl	$2, %edx
	callq	_KTimestamp1
	movl	$5, %edi
	callq	_KPushCDep
	xorps	%xmm0, %xmm0
	.loc	1 217 8 prologue_end    # pm_libm.c:217:8
.Ltmp208:
	movss	-20(%rbp), %xmm1        # 4-byte Reload
	ucomiss	%xmm0, %xmm1
.Ltmp209:
	#DEBUG_VALUE: pm_ceil:arg <- [RBP+-20]
	jbe	.LBB5_2
# BB#1:                                 # %if.then
	#DEBUG_VALUE: pm_ceil:arg <- [RBP+-20]
	movl	$2, %edi
	callq	_KWork
	.loc	1 217 34 is_stmt 0 discriminator 1 # pm_libm.c:217:34
.Ltmp210:
	movss	-20(%rbp), %xmm0        # 4-byte Reload
	addss	.LCPI5_0(%rip), %xmm0
	movss	%xmm0, -20(%rbp)        # 4-byte Spill
	movl	$3, %ebx
	movl	$3, %edi
	movl	$1, %esi
	movl	$4, %edx
	jmp	.LBB5_3
.LBB5_2:                                # %if.end
	#DEBUG_VALUE: pm_ceil:arg <- [RBP+-20]
	movl	$4, %ebx
	movl	$4, %edi
	movl	$1, %esi
	movl	$2, %edx
.LBB5_3:                                # %return
	callq	_KTimestamp1
	callq	_KPopCDep
	.loc	1 217 25                # pm_libm.c:217:25
	cvttss2si	-20(%rbp), %eax # 4-byte Folded Reload
	xorps	%xmm0, %xmm0
	cvtsi2ssl	%eax, %xmm0
	movss	%xmm0, -20(%rbp)        # 4-byte Spill
	movl	$2, %edi
	movl	$5, %edx
	movl	%ebx, %esi
	callq	_KPhi1To1
	movl	$2, %edi
	movl	$2, %esi
	xorl	%edx, %edx
	callq	_KTimestamp1
	movl	$2, %edi
	callq	_KReturn
	xorl	%esi, %esi
	movq	%r14, %rdi
	callq	_KExitRegion
.Ltmp211:
	.loc	1 219 1 is_stmt 1       # pm_libm.c:219:1
	movss	-20(%rbp), %xmm0        # 4-byte Reload
	addq	$16, %rsp
	popq	%rbx
	popq	%r14
	popq	%rbp
	retq
.Ltmp212:
.Ltmp213:
	.size	pm_ceil, .Ltmp213-pm_ceil
.Lfunc_end5:
	.cfi_endproc

	.type	pm_pow_coeff,@object    # @pm_pow_coeff
	.local	pm_pow_coeff
	.comm	pm_pow_coeff,76,16
	.type	pm_log_coeff,@object    # @pm_log_coeff
	.local	pm_log_coeff
	.comm	pm_log_coeff,64,16
	.type	krem_prefix28001020bd2cb3e9_krem_func_krem_pm_libm.c_krem_pm_pow10f_krem_96_krem_96_krem_,@object # @krem_prefix28001020bd2cb3e9_krem_func_krem_pm_libm.c_krem_pm_pow10f_krem_96_krem_96_krem_
	.bss
	.globl	krem_prefix28001020bd2cb3e9_krem_func_krem_pm_libm.c_krem_pm_pow10f_krem_96_krem_96_krem_
krem_prefix28001020bd2cb3e9_krem_func_krem_pm_libm.c_krem_pm_pow10f_krem_96_krem_96_krem_:
	.byte	0                       # 0x0
	.size	krem_prefix28001020bd2cb3e9_krem_func_krem_pm_libm.c_krem_pm_pow10f_krem_96_krem_96_krem_, 1

	.type	krem_prefix303aa0b7106356f9_krem_func_krem_pm_libm.c_krem_pm_floor_krem_208_krem_208_krem_,@object # @krem_prefix303aa0b7106356f9_krem_func_krem_pm_libm.c_krem_pm_floor_krem_208_krem_208_krem_
	.globl	krem_prefix303aa0b7106356f9_krem_func_krem_pm_libm.c_krem_pm_floor_krem_208_krem_208_krem_
krem_prefix303aa0b7106356f9_krem_func_krem_pm_libm.c_krem_pm_floor_krem_208_krem_208_krem_:
	.byte	0                       # 0x0
	.size	krem_prefix303aa0b7106356f9_krem_func_krem_pm_libm.c_krem_pm_floor_krem_208_krem_208_krem_, 1

	.type	krem_prefix7d2668031107ed87_krem_func_krem_pm_libm.c_krem_pm_log10f_krem_151_krem_151_krem_,@object # @krem_prefix7d2668031107ed87_krem_func_krem_pm_libm.c_krem_pm_log10f_krem_151_krem_151_krem_
	.globl	krem_prefix7d2668031107ed87_krem_func_krem_pm_libm.c_krem_pm_log10f_krem_151_krem_151_krem_
krem_prefix7d2668031107ed87_krem_func_krem_pm_libm.c_krem_pm_log10f_krem_151_krem_151_krem_:
	.byte	0                       # 0x0
	.size	krem_prefix7d2668031107ed87_krem_func_krem_pm_libm.c_krem_pm_log10f_krem_151_krem_151_krem_, 1

	.type	krem_prefix8bd90bada2ec0611_krem_func_krem_pm_libm.c_krem_pm_math_init_krem_51_krem_51_krem_,@object # @krem_prefix8bd90bada2ec0611_krem_func_krem_pm_libm.c_krem_pm_math_init_krem_51_krem_51_krem_
	.globl	krem_prefix8bd90bada2ec0611_krem_func_krem_pm_libm.c_krem_pm_math_init_krem_51_krem_51_krem_
krem_prefix8bd90bada2ec0611_krem_func_krem_pm_libm.c_krem_pm_math_init_krem_51_krem_51_krem_:
	.byte	0                       # 0x0
	.size	krem_prefix8bd90bada2ec0611_krem_func_krem_pm_libm.c_krem_pm_math_init_krem_51_krem_51_krem_, 1

	.type	krem_prefixdb19d16bd33d96ac_krem_func_krem_pm_libm.c_krem_pm_fabs_krem_199_krem_199_krem_,@object # @krem_prefixdb19d16bd33d96ac_krem_func_krem_pm_libm.c_krem_pm_fabs_krem_199_krem_199_krem_
	.globl	krem_prefixdb19d16bd33d96ac_krem_func_krem_pm_libm.c_krem_pm_fabs_krem_199_krem_199_krem_
krem_prefixdb19d16bd33d96ac_krem_func_krem_pm_libm.c_krem_pm_fabs_krem_199_krem_199_krem_:
	.byte	0                       # 0x0
	.size	krem_prefixdb19d16bd33d96ac_krem_func_krem_pm_libm.c_krem_pm_fabs_krem_199_krem_199_krem_, 1

	.type	krem_prefixe2871f78bb304471_krem_func_krem_pm_libm.c_krem_pm_ceil_krem_215_krem_215_krem_,@object # @krem_prefixe2871f78bb304471_krem_func_krem_pm_libm.c_krem_pm_ceil_krem_215_krem_215_krem_
	.globl	krem_prefixe2871f78bb304471_krem_func_krem_pm_libm.c_krem_pm_ceil_krem_215_krem_215_krem_
krem_prefixe2871f78bb304471_krem_func_krem_pm_libm.c_krem_pm_ceil_krem_215_krem_215_krem_:
	.byte	0                       # 0x0
	.size	krem_prefixe2871f78bb304471_krem_func_krem_pm_libm.c_krem_pm_ceil_krem_215_krem_215_krem_, 1

	.text
.Ldebug_end1:
	.section	".note.GNU-stack","",@progbits