	.text
	.file	"pm_stdlib.simplifycfg.mem2reg.indvars.elimsinglephis.criticalpath.regioninstrument.renamemain.O3.bc"
	.text
	.globl	pm_memcpy
	.align	16, 0x90
	.type	pm_memcpy,@function
pm_memcpy:                              # @pm_memcpy
.Lfunc_begin0:
	.file	1 "pm_stdlib.c"
	.loc	1 35 0                  # pm_stdlib.c:35:0
	.cfi_startproc
# BB#0:                                 # %entry
	pushq	%rbp
.Ltmp0:
	.cfi_def_cfa_offset 16
.Ltmp1:
	.cfi_offset %rbp, -16
	movq	%rsp, %rbp
.Ltmp2:
	.cfi_def_cfa_register %rbp
	pushq	%r15
	pushq	%r14
	pushq	%r13
	pushq	%r12
	pushq	%rbx
	pushq	%rax
.Ltmp3:
	.cfi_offset %rbx, -56
.Ltmp4:
	.cfi_offset %r12, -48
.Ltmp5:
	.cfi_offset %r13, -40
.Ltmp6:
	.cfi_offset %r14, -32
.Ltmp7:
	.cfi_offset %r15, -24
	#DEBUG_VALUE: pm_memcpy:dest <- RDI
	#DEBUG_VALUE: pm_memcpy:src <- RSI
	#DEBUG_VALUE: pm_memcpy:size <- EDX
	movl	%edx, %r13d
.Ltmp8:
	#DEBUG_VALUE: pm_memcpy:size <- R13D
	movq	%rsi, %r12
.Ltmp9:
	#DEBUG_VALUE: pm_memcpy:src <- R12
	movq	%rdi, %rbx
.Ltmp10:
	#DEBUG_VALUE: pm_memcpy:dest <- RBX
	movabsq	$-3675732648029633285, %rdi # imm = 0xCCFD2CA1A8E344FB
	movabsq	$9046121708100429555, %r14 # imm = 0x7D8A47C3DE46A6F3
	xorl	%esi, %esi
	callq	_KEnterRegion
	movl	$6, %edi
	movl	$2, %esi
	callq	_KPrepRTable
	movl	$1, %edi
	callq	_KDeqArg
.Ltmp11:
	#DEBUG_VALUE: pm_memcpy:i <- 0
	movl	$3, %edi
	callq	_KInduction
	movl	$4, %edi
	movl	$1, %esi
	xorl	%edx, %edx
	callq	_KTimestamp1
	movl	$1, %esi
	movq	%r14, %rdi
	callq	_KEnterRegion
	movl	$1, %edi
	callq	_KWork
	movl	$5, %edi
	movl	$4, %esi
	movl	$1, %edx
	movl	$3, %ecx
	movl	$1, %r8d
	callq	_KTimestamp2
	.loc	1 38 3 prologue_end     # pm_stdlib.c:38:3
.Ltmp12:
	testl	%r13d, %r13d
	jle	.LBB0_3
.Ltmp13:
# BB#1:                                 # %for.body.lr.ph
	#DEBUG_VALUE: pm_memcpy:dest <- RBX
	#DEBUG_VALUE: pm_memcpy:src <- R12
	#DEBUG_VALUE: pm_memcpy:size <- R13D
	#DEBUG_VALUE: pm_memcpy:i <- 0
	movslq	%r13d, %r14
	movabsq	$2166259943734111527, %r13 # imm = 0x1E1019F1056DED27
.Ltmp14:
	.align	16, 0x90
.LBB0_2:                                # %for.body
                                        # =>This Inner Loop Header: Depth=1
	#DEBUG_VALUE: pm_memcpy:i <- 0
	movl	$2, %esi
	movq	%r13, %rdi
	callq	_KEnterRegion
	movl	$5, %edi
	callq	_KPushCDep
	movl	$5, %edi
	callq	_KWork
	movl	$2, %esi
	movl	$1, %edx
	movq	%r12, %rdi
	callq	_KLoad0
	.loc	1 39 38                 # pm_stdlib.c:39:38
.Ltmp15:
	movb	(%r12), %r15b
	movl	$2, %edi
	movl	$2, %esi
	xorl	%edx, %edx
	callq	_KTimestamp1
	movl	$2, %edi
	movl	$1, %edx
	movq	%rbx, %rsi
	callq	_KStore
	.loc	1 39 5 is_stmt 0        # pm_stdlib.c:39:5
	movb	%r15b, (%rbx)
	callq	_KPopCDep
	movl	$2, %esi
	movq	%r13, %rdi
	callq	_KExitRegion
	movl	$1, %edi
	callq	_KWork
	movl	$5, %edi
	movl	$4, %esi
	movl	$1, %edx
	movl	$3, %ecx
	movl	$1, %r8d
	callq	_KTimestamp2
.Ltmp16:
	.loc	1 38 3 is_stmt 1        # pm_stdlib.c:38:3
	incq	%rbx
	incq	%r12
	decq	%r14
	jne	.LBB0_2
.Ltmp17:
.LBB0_3:                                # %for.cond.pre_exit.for.end
	#DEBUG_VALUE: pm_memcpy:i <- 0
	movl	$1, %esi
	movabsq	$9046121708100429555, %rdi # imm = 0x7D8A47C3DE46A6F3
	callq	_KExitRegion
	xorl	%esi, %esi
	movabsq	$-3675732648029633285, %rdi # imm = 0xCCFD2CA1A8E344FB
	addq	$8, %rsp
	popq	%rbx
	popq	%r12
	popq	%r13
	popq	%r14
	popq	%r15
	popq	%rbp
	jmp	_KExitRegion            # TAILCALL
.Ltmp18:
	.size	pm_memcpy, .Ltmp18-pm_memcpy
.Lfunc_end0:
	.cfi_endproc

	.globl	pm_memset
	.align	16, 0x90
	.type	pm_memset,@function
pm_memset:                              # @pm_memset
.Lfunc_begin1:
	.loc	1 45 0                  # pm_stdlib.c:45:0
	.cfi_startproc
# BB#0:                                 # %entry
	pushq	%rbp
.Ltmp19:
	.cfi_def_cfa_offset 16
.Ltmp20:
	.cfi_offset %rbp, -16
	movq	%rsp, %rbp
.Ltmp21:
	.cfi_def_cfa_register %rbp
	pushq	%r15
	pushq	%r14
	pushq	%r13
	pushq	%r12
	pushq	%rbx
	pushq	%rax
.Ltmp22:
	.cfi_offset %rbx, -56
.Ltmp23:
	.cfi_offset %r12, -48
.Ltmp24:
	.cfi_offset %r13, -40
.Ltmp25:
	.cfi_offset %r14, -32
.Ltmp26:
	.cfi_offset %r15, -24
	#DEBUG_VALUE: pm_memset:s <- RDI
	#DEBUG_VALUE: pm_memset:c <- ESI
	#DEBUG_VALUE: pm_memset:n <- EDX
	movl	%edx, %r13d
.Ltmp27:
	#DEBUG_VALUE: pm_memset:n <- R13D
	movl	%esi, %r12d
.Ltmp28:
	#DEBUG_VALUE: pm_memset:c <- R12D
	movq	%rdi, %rbx
.Ltmp29:
	#DEBUG_VALUE: pm_memset:s <- RBX
	movabsq	$-357687489491700195, %rdi # imm = 0xFB093D1F983EF61D
	movabsq	$783126138398084333, %r15 # imm = 0xADE3912DD8A8CED
	xorl	%esi, %esi
	callq	_KEnterRegion
	movl	$7, %edi
	movl	$2, %esi
	callq	_KPrepRTable
	movl	$2, %edi
	callq	_KDeqArg
	movl	$1, %edi
	callq	_KDeqArg
.Ltmp30:
	#DEBUG_VALUE: pm_memset:i <- 0
	movl	$4, %edi
	movl	$2, %esi
	xorl	%edx, %edx
	callq	_KTimestamp1
	movl	$6, %edi
	callq	_KInduction
	movl	$1, %esi
	movq	%r15, %rdi
	callq	_KEnterRegion
	movl	$1, %edi
	callq	_KWork
	movl	$5, %edi
	movl	$4, %esi
	movl	$1, %edx
	movl	$6, %ecx
	movl	$1, %r8d
	callq	_KTimestamp2
	.loc	1 48 3 prologue_end     # pm_stdlib.c:48:3
.Ltmp31:
	testl	%r13d, %r13d
	jle	.LBB1_3
.Ltmp32:
# BB#1:                                 # %for.body.lr.ph
	#DEBUG_VALUE: pm_memset:s <- RBX
	#DEBUG_VALUE: pm_memset:c <- R12D
	#DEBUG_VALUE: pm_memset:n <- R13D
	#DEBUG_VALUE: pm_memset:i <- 0
	movslq	%r13d, %r14
	movabsq	$-8331987228325841165, %r13 # imm = 0x8C5ED5C2B68BF6F3
.Ltmp33:
	.align	16, 0x90
.LBB1_2:                                # %for.body
                                        # =>This Inner Loop Header: Depth=1
	#DEBUG_VALUE: pm_memset:c <- R12D
	#DEBUG_VALUE: pm_memset:i <- 0
	movl	$2, %esi
	movq	%r13, %rdi
	callq	_KEnterRegion
	movl	$5, %edi
	callq	_KPushCDep
	movl	$1, %edi
	callq	_KWork
	movl	$3, %edi
	movl	$1, %esi
	xorl	%edx, %edx
	movl	$5, %ecx
	xorl	%r8d, %r8d
	callq	_KTimestamp2
	movl	$3, %edi
	movl	$1, %edx
	movq	%rbx, %rsi
	callq	_KStore
	.loc	1 49 5                  # pm_stdlib.c:49:5
.Ltmp34:
	movb	%r12b, (%rbx)
	callq	_KPopCDep
	movl	$2, %esi
	movq	%r13, %rdi
	callq	_KExitRegion
	movl	$1, %edi
	callq	_KWork
	movl	$5, %edi
	movl	$4, %esi
	movl	$1, %edx
	movl	$6, %ecx
	movl	$1, %r8d
	callq	_KTimestamp2
.Ltmp35:
	.loc	1 48 3                  # pm_stdlib.c:48:3
	incq	%rbx
	decq	%r14
	jne	.LBB1_2
.Ltmp36:
.LBB1_3:                                # %for.cond.pre_exit.for.end
	#DEBUG_VALUE: pm_memset:i <- 0
	movl	$1, %esi
	movq	%r15, %rdi
	callq	_KExitRegion
	xorl	%esi, %esi
	movabsq	$-357687489491700195, %rdi # imm = 0xFB093D1F983EF61D
	addq	$8, %rsp
	popq	%rbx
	popq	%r12
	popq	%r13
	popq	%r14
	popq	%r15
	popq	%rbp
	jmp	_KExitRegion            # TAILCALL
.Ltmp37:
	.size	pm_memset, .Ltmp37-pm_memset
.Lfunc_end1:
	.cfi_endproc

	.type	krem_prefix0ade3912dd8a8ced_krem_loop_krem_pm_stdlib.c_krem_pm_memset_krem_46_krem_49_krem_,@object # @krem_prefix0ade3912dd8a8ced_krem_loop_krem_pm_stdlib.c_krem_pm_memset_krem_46_krem_49_krem_
	.bss
	.globl	krem_prefix0ade3912dd8a8ced_krem_loop_krem_pm_stdlib.c_krem_pm_memset_krem_46_krem_49_krem_
krem_prefix0ade3912dd8a8ced_krem_loop_krem_pm_stdlib.c_krem_pm_memset_krem_46_krem_49_krem_:
	.byte	0                       # 0x0
	.size	krem_prefix0ade3912dd8a8ced_krem_loop_krem_pm_stdlib.c_krem_pm_memset_krem_46_krem_49_krem_, 1

	.type	krem_prefix1e1019f1056ded27_krem_loop_body_krem_pm_stdlib.c_krem_pm_memcpy_krem_36_krem_39_krem_,@object # @krem_prefix1e1019f1056ded27_krem_loop_body_krem_pm_stdlib.c_krem_pm_memcpy_krem_36_krem_39_krem_
	.globl	krem_prefix1e1019f1056ded27_krem_loop_body_krem_pm_stdlib.c_krem_pm_memcpy_krem_36_krem_39_krem_
krem_prefix1e1019f1056ded27_krem_loop_body_krem_pm_stdlib.c_krem_pm_memcpy_krem_36_krem_39_krem_:
	.byte	0                       # 0x0
	.size	krem_prefix1e1019f1056ded27_krem_loop_body_krem_pm_stdlib.c_krem_pm_memcpy_krem_36_krem_39_krem_, 1

	.type	krem_prefix7d8a47c3de46a6f3_krem_loop_krem_pm_stdlib.c_krem_pm_memcpy_krem_36_krem_39_krem_,@object # @krem_prefix7d8a47c3de46a6f3_krem_loop_krem_pm_stdlib.c_krem_pm_memcpy_krem_36_krem_39_krem_
	.globl	krem_prefix7d8a47c3de46a6f3_krem_loop_krem_pm_stdlib.c_krem_pm_memcpy_krem_36_krem_39_krem_
krem_prefix7d8a47c3de46a6f3_krem_loop_krem_pm_stdlib.c_krem_pm_memcpy_krem_36_krem_39_krem_:
	.byte	0                       # 0x0
	.size	krem_prefix7d8a47c3de46a6f3_krem_loop_krem_pm_stdlib.c_krem_pm_memcpy_krem_36_krem_39_krem_, 1

	.type	krem_prefix8c5ed5c2b68bf6f3_krem_loop_body_krem_pm_stdlib.c_krem_pm_memset_krem_46_krem_49_krem_,@object # @krem_prefix8c5ed5c2b68bf6f3_krem_loop_body_krem_pm_stdlib.c_krem_pm_memset_krem_46_krem_49_krem_
	.globl	krem_prefix8c5ed5c2b68bf6f3_krem_loop_body_krem_pm_stdlib.c_krem_pm_memset_krem_46_krem_49_krem_
krem_prefix8c5ed5c2b68bf6f3_krem_loop_body_krem_pm_stdlib.c_krem_pm_memset_krem_46_krem_49_krem_:
	.byte	0                       # 0x0
	.size	krem_prefix8c5ed5c2b68bf6f3_krem_loop_body_krem_pm_stdlib.c_krem_pm_memset_krem_46_krem_49_krem_, 1

	.type	krem_prefixccfd2ca1a8e344fb_krem_func_krem_pm_stdlib.c_krem_pm_memcpy_krem_34_krem_34_krem_,@object # @krem_prefixccfd2ca1a8e344fb_krem_func_krem_pm_stdlib.c_krem_pm_memcpy_krem_34_krem_34_krem_
	.globl	krem_prefixccfd2ca1a8e344fb_krem_func_krem_pm_stdlib.c_krem_pm_memcpy_krem_34_krem_34_krem_
krem_prefixccfd2ca1a8e344fb_krem_func_krem_pm_stdlib.c_krem_pm_memcpy_krem_34_krem_34_krem_:
	.byte	0                       # 0x0
	.size	krem_prefixccfd2ca1a8e344fb_krem_func_krem_pm_stdlib.c_krem_pm_memcpy_krem_34_krem_34_krem_, 1

	.type	krem_prefixfb093d1f983ef61d_krem_func_krem_pm_stdlib.c_krem_pm_memset_krem_44_krem_44_krem_,@object # @krem_prefixfb093d1f983ef61d_krem_func_krem_pm_stdlib.c_krem_pm_memset_krem_44_krem_44_krem_
	.globl	krem_prefixfb093d1f983ef61d_krem_func_krem_pm_stdlib.c_krem_pm_memset_krem_44_krem_44_krem_
krem_prefixfb093d1f983ef61d_krem_func_krem_pm_stdlib.c_krem_pm_memset_krem_44_krem_44_krem_:
	.byte	0                       # 0x0
	.size	krem_prefixfb093d1f983ef61d_krem_func_krem_pm_stdlib.c_krem_pm_memset_krem_44_krem_44_krem_, 1

	.text
.Ldebug_end0:
	.section	".note.GNU-stack","",@progbits