	.text
	.file	"aes.simplifycfg.mem2reg.indvars.elimsinglephis.criticalpath.regioninstrument.renamemain.O3.bc"
	.text
	.globl	rijndael_dec_set_key
	.align	16, 0x90
	.type	rijndael_dec_set_key,@function
rijndael_dec_set_key:                   # @rijndael_dec_set_key
.Lfunc_begin0:
	.file	3 "aes.c"
	.loc	3 68 0                  # aes.c:68:0
	.cfi_startproc
# BB#0:                                 # %entry
	pushq	%rbp
.Ltmp0:
	.cfi_def_cfa_offset 16
.Ltmp1:
	.cfi_offset %rbp, -16
	movq	%rsp, %rbp
.Ltmp2:
	.cfi_def_cfa_register %rbp
	pushq	%r15
	pushq	%r14
	pushq	%r13
	pushq	%r12
	pushq	%rbx
	subq	$184, %rsp
.Ltmp3:
	.cfi_offset %rbx, -56
.Ltmp4:
	.cfi_offset %r12, -48
.Ltmp5:
	.cfi_offset %r13, -40
.Ltmp6:
	.cfi_offset %r14, -32
.Ltmp7:
	.cfi_offset %r15, -24
	#DEBUG_VALUE: rijndael_dec_set_key:in_key <- RDI
	#DEBUG_VALUE: rijndael_dec_set_key:n_bytes <- RSI
	#DEBUG_VALUE: rijndael_dec_set_key:f <- EDX
	#DEBUG_VALUE: rijndael_dec_set_key:cx <- RCX
	movq	%rcx, %r13
.Ltmp8:
	#DEBUG_VALUE: rijndael_dec_set_key:cx <- R13
	movl	%edx, %r12d
.Ltmp9:
	#DEBUG_VALUE: rijndael_dec_set_key:f <- R12D
	movq	%rsi, %r15
.Ltmp10:
	#DEBUG_VALUE: rijndael_dec_set_key:n_bytes <- R15
	movq	%rdi, %r14
.Ltmp11:
	#DEBUG_VALUE: rijndael_dec_set_key:in_key <- R14
	movabsq	$-4163276842297086825, %rdi # imm = 0xC63911C51945AC97
	xorl	%esi, %esi
	callq	_KEnterRegion
	movl	$224, %edi
	movl	$2, %esi
	callq	_KPrepRTable
	movl	$6, %edi
	callq	_KWork
	movl	$2, %edi
	callq	_KDeqArg
	movl	$1, %edi
	callq	_KDeqArg
	.loc	3 71 8 prologue_end     # aes.c:71:8
.Ltmp12:
	leaq	-16(%r15), %rbx
	movl	$197, %edi
	movl	$1, %esi
	movl	$4, %edx
	callq	_KTimestamp1
	cmpq	$16, %rbx
	ja	.LBB0_4
.Ltmp13:
# BB#1:                                 # %entry
	#DEBUG_VALUE: rijndael_dec_set_key:in_key <- R14
	#DEBUG_VALUE: rijndael_dec_set_key:n_bytes <- R15
	#DEBUG_VALUE: rijndael_dec_set_key:f <- R12D
	#DEBUG_VALUE: rijndael_dec_set_key:cx <- R13
	.loc	3 71 10 is_stmt 0       # aes.c:71:10
	movq	%r15, %rax
	andq	$7, %rax
	jne	.LBB0_4
.Ltmp14:
# BB#2:                                 # %lor.lhs.false3
	#DEBUG_VALUE: rijndael_dec_set_key:in_key <- R14
	#DEBUG_VALUE: rijndael_dec_set_key:n_bytes <- R15
	#DEBUG_VALUE: rijndael_dec_set_key:f <- R12D
	#DEBUG_VALUE: rijndael_dec_set_key:cx <- R13
	movl	$197, %edi
	callq	_KPushCDep
	movl	$2, %edi
	callq	_KWork
	movl	$198, %edi
	movl	$1, %esi
	movl	$6, %edx
	movl	$2, %ecx
	movl	$2, %r8d
	callq	_KTimestamp2
	callq	_KPopCDep
	.loc	3 71 8                  # aes.c:71:8
	testb	$1, %r12b
	jne	.LBB0_8
.Ltmp15:
# BB#3:                                 # %land.lhs.true
	#DEBUG_VALUE: rijndael_dec_set_key:in_key <- R14
	#DEBUG_VALUE: rijndael_dec_set_key:n_bytes <- R15
	#DEBUG_VALUE: rijndael_dec_set_key:f <- R12D
	#DEBUG_VALUE: rijndael_dec_set_key:cx <- R13
	movl	$198, %edi
	callq	_KPushCDep
	movl	$2, %edi
	callq	_KWork
	movl	$223, %edi
	movl	$1, %esi
	movl	$8, %edx
	movl	$2, %ecx
	movl	$4, %r8d
	callq	_KTimestamp2
	callq	_KPopCDep
	testb	$2, %r12b
	je	.LBB0_4
.Ltmp16:
.LBB0_8:                                # %if.end
	#DEBUG_VALUE: rijndael_dec_set_key:in_key <- R14
	#DEBUG_VALUE: rijndael_dec_set_key:n_bytes <- R15
	#DEBUG_VALUE: rijndael_dec_set_key:f <- R12D
	#DEBUG_VALUE: rijndael_dec_set_key:cx <- R13
	movl	$198, %edi
	callq	_KPushCDep
	movl	$15, %edi
	callq	_KWork
	.loc	3 75 16 is_stmt 1       # aes.c:75:16
	leaq	1040(%r13), %rbx
	movq	%rbx, -104(%rbp)        # 8-byte Spill
	movl	$6, %esi
	movl	$1, %edx
	movq	%rbx, %rdi
	callq	_KLoad0
	movzbl	1040(%r13), %eax
	andl	$252, %eax
	.loc	3 75 39 is_stmt 0       # aes.c:75:39
	andl	$3, %r12d
.Ltmp17:
	.loc	3 75 14                 # aes.c:75:14
	orl	%eax, %r12d
	movl	$2, (%rsp)
	movl	$7, %edi
	movl	$1, %esi
	movl	$8, %edx
	movl	$2, %ecx
	movl	$4, %r8d
	movl	$6, %r9d
	callq	_KTimestamp3
	movl	$7, %edi
	movl	$1, %edx
	movq	%rbx, %rsi
	callq	_KStore
	.loc	3 75 3                  # aes.c:75:3
	movb	%r12b, 1040(%r13)
	.loc	3 76 14 is_stmt 1       # aes.c:76:14
	shrq	$2, %r15
.Ltmp18:
	movl	$8, %edi
	movl	$1, %esi
	movl	$7, %edx
	movl	$2, %ecx
	movl	$3, %r8d
	callq	_KTimestamp2
	movl	$8, %edi
	movl	$8, %edx
	movq	%r13, %rsi
	callq	_KStore
	.loc	3 76 3 is_stmt 0        # aes.c:76:3
	movq	%r15, (%r13)
	movl	$9, %esi
	movl	$8, %edx
	movq	%r13, %rdi
	callq	_KLoad0
	.loc	3 77 14 is_stmt 1       # aes.c:77:14
	movq	(%r13), %rbx
	movl	$1, (%rsp)
	movl	$199, %edi
	movl	$1, %esi
	movl	$7, %edx
	movl	$2, %ecx
	movl	$3, %r8d
	movl	$9, %r9d
	callq	_KTimestamp3
	callq	_KPopCDep
	xorl	%r15d, %r15d
	movl	$10, %r12d
	cmpq	$5, %rbx
	jb	.LBB0_10
.Ltmp19:
# BB#9:                                 # %cond.true26
	#DEBUG_VALUE: rijndael_dec_set_key:in_key <- R14
	#DEBUG_VALUE: rijndael_dec_set_key:cx <- R13
	movl	$199, %edi
	callq	_KPushCDep
	movl	$4, %edi
	callq	_KWork
	movl	$10, %r15d
	movl	$10, %esi
	movl	$8, %edx
	movq	%r13, %rdi
	callq	_KLoad0
	.loc	3 77 14 is_stmt 0 discriminator 1 # aes.c:77:14
	movq	(%r13), %r12
	movl	$10, %edi
	movl	$10, %esi
	xorl	%edx, %edx
	callq	_KTimestamp1
	callq	_KPopCDep
	addq	$6, %r12
.Ltmp20:
.LBB0_10:                               # %cond.end29
	#DEBUG_VALUE: rijndael_dec_set_key:in_key <- R14
	#DEBUG_VALUE: rijndael_dec_set_key:cx <- R13
	movl	$198, %edi
	callq	_KPushCDep
	movl	$12, %edi
	movl	$198, %edx
	movl	$199, %ecx
	movl	%r15d, %esi
	callq	_KPhi2To1
	movl	$38, %edi
	callq	_KWork
	.loc	3 77 3                  # aes.c:77:3
	leaq	8(%r13), %r15
	movq	%r15, -112(%rbp)        # 8-byte Spill
	movl	$1, (%rsp)
	movl	$11, %edi
	movl	$1, %esi
	movl	$7, %edx
	movl	$2, %ecx
	movl	$3, %r8d
	movl	$12, %r9d
	callq	_KTimestamp3
	movl	$11, %edi
	movl	$8, %edx
	movq	%r15, %rsi
	callq	_KStore
	movq	%r12, 8(%r13)
	movl	$13, %esi
	movl	$8, %edx
	movq	%r14, %rdi
	callq	_KLoad0
	.loc	3 79 18 is_stmt 1       # aes.c:79:18
	movq	(%r14), %r12
	.loc	3 79 3 is_stmt 0        # aes.c:79:3
	leaq	16(%r13), %rbx
.Ltmp21:
	#DEBUG_VALUE: rijndael_dec_set_key:kf <- RBX
	movq	%rbx, -96(%rbp)         # 8-byte Spill
	movl	$13, %edi
	movl	$13, %esi
	xorl	%edx, %edx
	callq	_KTimestamp1
	movl	$13, %edi
	movl	$8, %edx
	movq	%rbx, %rsi
.Ltmp22:
	#DEBUG_VALUE: rijndael_dec_set_key:kf <- [RBP+-96]
	callq	_KStore
	movq	%r12, 16(%r13)
	.loc	3 80 18 is_stmt 1       # aes.c:80:18
	leaq	4(%r14), %rdi
	movl	$14, %esi
	movl	$8, %edx
	callq	_KLoad0
	movq	4(%r14), %r12
	.loc	3 80 3 is_stmt 0        # aes.c:80:3
	leaq	24(%r13), %rbx
.Ltmp23:
	#DEBUG_VALUE: rijndael_dec_set_key:kf <- RBX
	movq	%rbx, -128(%rbp)        # 8-byte Spill
	movl	$14, %edi
	movl	$14, %esi
	xorl	%edx, %edx
	callq	_KTimestamp1
	movl	$14, %edi
	movl	$8, %edx
	movq	%rbx, %rsi
.Ltmp24:
	#DEBUG_VALUE: rijndael_dec_set_key:kf <- [RBP+-128]
	callq	_KStore
	movq	%r12, 24(%r13)
	.loc	3 81 18 is_stmt 1       # aes.c:81:18
	leaq	8(%r14), %rdi
	movl	$15, %esi
	movl	$8, %edx
	callq	_KLoad0
	movq	8(%r14), %rbx
	.loc	3 81 3 is_stmt 0        # aes.c:81:3
	leaq	32(%r13), %r12
.Ltmp25:
	#DEBUG_VALUE: rijndael_dec_set_key:kf <- R12
	movq	%r12, -136(%rbp)        # 8-byte Spill
	movl	$15, %edi
	movl	$15, %esi
	xorl	%edx, %edx
	callq	_KTimestamp1
	movl	$15, %edi
	movl	$8, %edx
	movq	%r12, %rsi
.Ltmp26:
	#DEBUG_VALUE: rijndael_dec_set_key:kf <- [RBP+-136]
	callq	_KStore
	movq	%rbx, 32(%r13)
	.loc	3 82 18 is_stmt 1       # aes.c:82:18
	leaq	12(%r14), %rdi
	movl	$16, %esi
	movl	$8, %edx
	callq	_KLoad0
	movq	12(%r14), %rbx
	.loc	3 82 3 is_stmt 0        # aes.c:82:3
	leaq	40(%r13), %r12
.Ltmp27:
	#DEBUG_VALUE: rijndael_dec_set_key:kf <- R12
	movl	$16, %edi
	movl	$16, %esi
	xorl	%edx, %edx
	callq	_KTimestamp1
	movl	$16, %edi
	movl	$8, %edx
	movq	%r12, %rsi
	callq	_KStore
	movq	%rbx, 40(%r13)
	movl	$17, %esi
	movl	$8, %edx
	movq	%r15, %rdi
	callq	_KLoad0
	.loc	3 85 20 is_stmt 1       # aes.c:85:20
	movq	8(%r13), %rax
	.loc	3 85 13 is_stmt 0       # aes.c:85:13
	leaq	4(,%rax,4), %rbx
	movl	$18, %esi
	movl	$8, %edx
	movq	%r13, %rdi
	callq	_KLoad0
	.loc	3 85 8                  # aes.c:85:8
	subq	(%r13), %rbx
	leaq	16(%r13,%rbx,8), %rax
.Ltmp28:
	#DEBUG_VALUE: rijndael_dec_set_key:rci <- 0
	#DEBUG_VALUE: rijndael_dec_set_key:kt <- [RBP+-48]
	movq	%rax, -48(%rbp)         # 8-byte Spill
	movl	$19, %esi
	movl	$8, %edx
	movq	%r13, %rdi
	callq	_KLoad0
	.loc	3 88 12 is_stmt 1       # aes.c:88:12
	movq	(%r13), %rbx
	movl	$19, %edi
	movl	$19, %esi
	xorl	%edx, %edx
	callq	_KTimestamp1
	movl	$0, 32(%rsp)
	movl	$203, 24(%rsp)
	movl	$1, 16(%rsp)
	movl	$18, 8(%rsp)
	movl	$3, (%rsp)
	movl	$204, %edi
	movl	$1, %esi
	movl	$9, %edx
	movl	$2, %ecx
	movl	$5, %r8d
	movl	$17, %r9d
	callq	_KTimestamp5
	movl	$0, (%rsp)
	movl	$202, %r15d
	movl	$202, %edi
	movl	$1, %esi
	movl	$6, %edx
	movl	$2, %ecx
	movl	$2, %r8d
	movl	$203, %r9d
	callq	_KTimestamp3
	callq	_KPopCDep
	.loc	3 88 3 is_stmt 0        # aes.c:88:3
	cmpq	$8, %rbx
	je	.LBB0_19
.Ltmp29:
# BB#11:                                # %cond.end29
	#DEBUG_VALUE: rijndael_dec_set_key:in_key <- R14
	#DEBUG_VALUE: rijndael_dec_set_key:cx <- R13
	#DEBUG_VALUE: rijndael_dec_set_key:kf <- R12
	#DEBUG_VALUE: rijndael_dec_set_key:kt <- [RBP+-48]
	#DEBUG_VALUE: rijndael_dec_set_key:rci <- 0
	movq	%r13, -120(%rbp)        # 8-byte Spill
.Ltmp30:
	#DEBUG_VALUE: rijndael_dec_set_key:cx <- [RBP+-120]
	cmpq	$6, %rbx
	jne	.LBB0_12
.Ltmp31:
# BB#16:                                # %sw.bb87
	#DEBUG_VALUE: rijndael_dec_set_key:in_key <- R14
	#DEBUG_VALUE: rijndael_dec_set_key:cx <- [RBP+-120]
	#DEBUG_VALUE: rijndael_dec_set_key:kf <- R12
	#DEBUG_VALUE: rijndael_dec_set_key:kt <- [RBP+-48]
	#DEBUG_VALUE: rijndael_dec_set_key:rci <- 0
	movq	%r12, -144(%rbp)        # 8-byte Spill
.Ltmp32:
	#DEBUG_VALUE: rijndael_dec_set_key:kf <- [RBP+-144]
	movl	$19, %edi
	callq	_KPushCDep
	movl	$10, %edi
	callq	_KWork
	.loc	3 101 22 is_stmt 1      # aes.c:101:22
.Ltmp33:
	leaq	16(%r14), %rdi
	movl	$44, %esi
	movl	$8, %edx
	callq	_KLoad0
	movq	16(%r14), %r12
	movq	-120(%rbp), %rbx        # 8-byte Reload
.Ltmp34:
	#DEBUG_VALUE: rijndael_dec_set_key:cx <- RBX
	.loc	3 101 7 is_stmt 0       # aes.c:101:7
	leaq	48(%rbx), %r13
	xorl	%r15d, %r15d
	movl	$44, %edi
	movl	$44, %esi
	xorl	%edx, %edx
	callq	_KTimestamp1
	movl	$44, %edi
	movl	$8, %edx
	movq	%r13, %rsi
	callq	_KStore
	movq	%r12, 48(%rbx)
	.loc	3 102 22 is_stmt 1      # aes.c:102:22
	leaq	20(%r14), %rdi
	movl	$45, %esi
	movl	$8, %edx
	callq	_KLoad0
	movq	20(%r14), %r14
.Ltmp35:
	.loc	3 102 7 is_stmt 0       # aes.c:102:7
	leaq	56(%rbx), %r12
	movl	$45, %edi
	movl	$45, %esi
	xorl	%edx, %edx
	callq	_KTimestamp1
	movl	$45, %edi
	movl	$8, %edx
	movq	%r12, %rsi
	callq	_KStore
	movq	%r14, 56(%rbx)
.Ltmp36:
	#DEBUG_VALUE: rijndael_dec_set_key:cx <- [RBP+-120]
	movl	$210, %edi
	callq	_KInduction
	callq	_KPopCDep
	movl	$1, %esi
	movabsq	$-1362708715113792345, %rdi # imm = 0xED16AFA4BF503CA7
	callq	_KEnterRegion
	movl	$rijndael_dec_rcon_tab, %eax
	movq	%rax, -56(%rbp)         # 8-byte Spill
	movl	$202, %r13d
	movabsq	$-1270145309492249003, %r12 # imm = 0xEE5F89920E95FE55
	movq	-96(%rbp), %rbx         # 8-byte Reload
	.align	16, 0x90
.LBB0_17:                               # %do.body94
                                        # =>This Inner Loop Header: Depth=1
	#DEBUG_VALUE: rijndael_dec_set_key:cx <- [RBP+-120]
	#DEBUG_VALUE: rijndael_dec_set_key:kf <- [RBP+-144]
	#DEBUG_VALUE: rijndael_dec_set_key:kt <- [RBP+-48]
	#DEBUG_VALUE: rijndael_dec_set_key:rci <- 0
	movl	$2, %esi
	movq	%r12, %rdi
	callq	_KEnterRegion
	movl	$19, %edi
	callq	_KPushCDep
	movl	$207, %edi
	movl	$19, %ecx
	movl	%r13d, %esi
	movl	%r15d, %edx
	callq	_KPhi2To1
	movl	$46, %esi
	movl	$8, %edx
	movq	%rbx, %rdi
	callq	_KLoad0
	movl	$101, %edi
	callq	_KWork
	.loc	3 105 18 is_stmt 1      # aes.c:105:18
.Ltmp37:
	movq	(%rbx), %r13
	leaq	40(%rbx), %rdi
	movq	%rdi, -64(%rbp)         # 8-byte Spill
	movl	$47, %esi
	movl	$8, %edx
	movq	%rdi, %r14
	callq	_KLoad0
	.loc	3 105 26 is_stmt 0      # aes.c:105:26
	movq	40(%rbx), %rax
	movzbl	%ah, %eax  # NOREX
	movq	%rax, -72(%rbp)         # 8-byte Spill
	leaq	rijndael_dec_fl_tab(,%rax,8), %rdi
	movl	$48, %esi
	movl	$49, %edx
	movl	$8, %ecx
	callq	_KLoad1
	movl	$50, %esi
	movl	$8, %edx
	movq	%r14, %rdi
	movq	%r14, %r15
	callq	_KLoad0
	movq	40(%rbx), %r14
	shrq	$13, %r14
	andq	$2040, %r14             # imm = 0x7F8
	leaq	rijndael_dec_fl_tab+2048(%r14), %rdi
	movl	$51, %esi
	movl	$52, %edx
	movl	$8, %ecx
	callq	_KLoad1
	movl	$53, %esi
	movl	$8, %edx
	movq	%r15, %rdi
	callq	_KLoad0
	movq	40(%rbx), %r12
	shrq	$21, %r12
	andq	$2040, %r12             # imm = 0x7F8
	leaq	rijndael_dec_fl_tab+4096(%r12), %rdi
	movl	$54, %esi
	movl	$55, %edx
	movl	$8, %ecx
	callq	_KLoad1
	movl	$56, %esi
	movl	$8, %edx
	movq	%r15, %rdi
	callq	_KLoad0
	movzbl	40(%rbx), %eax
	movq	%rax, -80(%rbp)         # 8-byte Spill
	leaq	rijndael_dec_fl_tab+6144(,%rax,8), %rdi
	movl	$57, %esi
	movl	$58, %edx
	movl	$8, %ecx
	callq	_KLoad1
	movl	$59, %esi
	movl	$8, %edx
	movq	-56(%rbp), %r15         # 8-byte Reload
	movq	%r15, %rdi
	callq	_KLoad0
	movq	-72(%rbp), %rax         # 8-byte Reload
	xorq	rijndael_dec_fl_tab(,%rax,8), %r13
	xorq	rijndael_dec_fl_tab+2048(%r14), %r13
	xorq	rijndael_dec_fl_tab+4096(%r12), %r13
	.loc	3 105 18                # aes.c:105:18
	movq	-80(%rbp), %rax         # 8-byte Reload
	xorq	rijndael_dec_fl_tab+6144(,%rax,8), %r13
	xorq	(%r15), %r13
	movl	$1, 64(%rsp)
	movl	$59, 56(%rsp)
	movl	$3, 48(%rsp)
	movl	$57, 40(%rsp)
	movl	$4, 32(%rsp)
	movl	$54, 24(%rsp)
	movl	$5, 16(%rsp)
	movl	$51, 8(%rsp)
	movl	$5, (%rsp)
	movl	$60, %edi
	movl	$19, %esi
	movl	$5, %edx
	movl	$46, %ecx
	movl	$2, %r8d
	movl	$48, %r9d
	callq	_KTimestamp7
	leaq	48(%rbx), %r14
	movl	$60, %edi
	movl	$8, %edx
	movq	%r14, %rsi
	callq	_KStore
	.loc	3 105 9                 # aes.c:105:9
	movq	%r13, 48(%rbx)
	leaq	8(%rbx), %rdi
	movl	$61, %esi
	movl	$8, %edx
	callq	_KLoad0
	.loc	3 106 18 is_stmt 1      # aes.c:106:18
	movq	8(%rbx), %r15
	movl	$62, %esi
	movl	$8, %edx
	movq	%r14, %rdi
	callq	_KLoad0
	xorq	48(%rbx), %r15
	movl	$1, (%rsp)
	movl	$63, %edi
	movl	$19, %esi
	movl	$1, %edx
	movl	$61, %ecx
	movl	$1, %r8d
	movl	$62, %r9d
	callq	_KTimestamp3
	leaq	56(%rbx), %r13
	movl	$63, %edi
	movl	$8, %edx
	movq	%r13, %rsi
	callq	_KStore
	.loc	3 106 9 is_stmt 0       # aes.c:106:9
	movq	%r15, 56(%rbx)
	leaq	16(%rbx), %rdi
	movl	$64, %esi
	movl	$8, %edx
	callq	_KLoad0
	.loc	3 107 18 is_stmt 1      # aes.c:107:18
	movq	16(%rbx), %r15
	movl	$65, %esi
	movl	$8, %edx
	movq	%r13, %rdi
	callq	_KLoad0
	xorq	56(%rbx), %r15
	movl	$1, (%rsp)
	movl	$66, %edi
	movl	$19, %esi
	movl	$1, %edx
	movl	$64, %ecx
	movl	$1, %r8d
	movl	$65, %r9d
	callq	_KTimestamp3
	leaq	64(%rbx), %r13
	movl	$66, %edi
	movl	$8, %edx
	movq	%r13, %rsi
	callq	_KStore
	.loc	3 107 9 is_stmt 0       # aes.c:107:9
	movq	%r15, 64(%rbx)
	leaq	24(%rbx), %rdi
	movl	$67, %esi
	movl	$8, %edx
	callq	_KLoad0
	.loc	3 108 18 is_stmt 1      # aes.c:108:18
	movq	24(%rbx), %r15
	movl	$68, %esi
	movl	$8, %edx
	movq	%r13, %rdi
	callq	_KLoad0
	xorq	64(%rbx), %r15
	movl	$1, (%rsp)
	movl	$69, %edi
	movl	$19, %esi
	movl	$1, %edx
	movl	$67, %ecx
	movl	$1, %r8d
	movl	$68, %r9d
	callq	_KTimestamp3
	leaq	72(%rbx), %r13
	movl	$69, %edi
	movl	$8, %edx
	movq	%r13, %rsi
	callq	_KStore
	.loc	3 108 9 is_stmt 0       # aes.c:108:9
	movq	%r15, 72(%rbx)
	leaq	32(%rbx), %rdi
	movl	$70, %esi
	movl	$8, %edx
	callq	_KLoad0
	.loc	3 109 18 is_stmt 1      # aes.c:109:18
	movq	32(%rbx), %r15
	movl	$71, %esi
	movl	$8, %edx
	movq	%r13, %rdi
	callq	_KLoad0
	xorq	72(%rbx), %r15
	movl	$1, (%rsp)
	movl	$72, %edi
	movl	$19, %esi
	movl	$1, %edx
	movl	$70, %ecx
	movl	$1, %r8d
	movl	$71, %r9d
	callq	_KTimestamp3
	leaq	80(%rbx), %r13
	movl	$72, %edi
	movl	$8, %edx
	movq	%r13, %rsi
	callq	_KStore
	.loc	3 109 9 is_stmt 0       # aes.c:109:9
	movq	%r15, 80(%rbx)
	movl	$73, %esi
	movl	$8, %edx
	movq	-64(%rbp), %rdi         # 8-byte Reload
	callq	_KLoad0
	.loc	3 110 18 is_stmt 1      # aes.c:110:18
	movq	40(%rbx), %r15
	movl	$74, %esi
	movl	$8, %edx
	movq	%r13, %rdi
	callq	_KLoad0
	xorq	80(%rbx), %r15
	movl	$1, (%rsp)
	movl	$75, %edi
	movl	$19, %esi
	movl	$1, %edx
	movl	$73, %ecx
	movl	$1, %r8d
	movl	$74, %r9d
	callq	_KTimestamp3
	leaq	88(%rbx), %rsi
	movl	$75, %edi
	movl	$8, %edx
	callq	_KStore
	.loc	3 110 9 is_stmt 0       # aes.c:110:9
	movq	%r15, 88(%rbx)
	movl	$1, (%rsp)
	movl	$209, %r15d
	movl	$209, %edi
	movl	$204, %esi
	movl	$1, %edx
	movl	$19, %ecx
	movl	$1, %r8d
	movl	$207, %r9d
	callq	_KTimestamp3
	movl	$207, %edi
	movl	$209, %esi
	callq	_KPhiAddCond
	movl	$208, %r13d
	movl	$208, %edi
	movl	$19, %esi
	xorl	%edx, %edx
	movl	$207, %ecx
	xorl	%r8d, %r8d
	callq	_KTimestamp2
	callq	_KPopCDep
	movl	$2, %esi
	movabsq	$-1270145309492249003, %rdi # imm = 0xEE5F89920E95FE55
	movq	%rdi, %r12
	callq	_KExitRegion
.Ltmp38:
	.loc	3 112 17 is_stmt 1      # aes.c:112:17
	addq	$8, -56(%rbp)           # 8-byte Folded Spill
	cmpq	-48(%rbp), %r14         # 8-byte Folded Reload
	movq	%r14, %rbx
	.loc	3 112 7 is_stmt 0       # aes.c:112:7
.Ltmp39:
	jb	.LBB0_17
.Ltmp40:
# BB#18:                                # %do.body94.pre_exit.sw.epilog.loopexit1
	#DEBUG_VALUE: rijndael_dec_set_key:cx <- [RBP+-120]
	#DEBUG_VALUE: rijndael_dec_set_key:kf <- [RBP+-144]
	#DEBUG_VALUE: rijndael_dec_set_key:rci <- 0
	movl	$1, %esi
	movabsq	$-1362708715113792345, %rdi # imm = 0xED16AFA4BF503CA7
	jmp	.LBB0_22
.LBB0_4:                                # %if.then
.Ltmp41:
	#DEBUG_VALUE: rijndael_dec_set_key:n_bytes <- R15
	#DEBUG_VALUE: rijndael_dec_set_key:cx <- R13
	movl	$197, %edi
	callq	_KPushCDep
	movl	$1, %edi
	callq	_KWork
	movl	$196, %edi
	movl	$1, %esi
	movl	$5, %edx
	callq	_KTimestamp1
	callq	_KPopCDep
	movl	$196, %edi
	callq	_KPushCDep
	.loc	3 73 14 is_stmt 1       # aes.c:73:14
.Ltmp42:
	testq	%r15, %r15
	je	.LBB0_6
.Ltmp43:
# BB#5:                                 # %cond.true
	#DEBUG_VALUE: rijndael_dec_set_key:cx <- R13
	movl	$6, %edi
	callq	_KWork
	.loc	3 73 24 is_stmt 0 discriminator 1 # aes.c:73:24
	leaq	1040(%r13), %r14
	movl	$3, %esi
	movl	$1, %edx
	movq	%r14, %rdi
	callq	_KLoad0
	movb	1040(%r13), %bl
	andb	$-4, %bl
	movl	$4, %edi
	movl	$1, %esi
	movl	$6, %edx
	movl	$3, %ecx
	movl	$1, %r8d
	callq	_KTimestamp2
	movl	$4, %edi
	movl	$1, %edx
	movq	%r14, %rsi
	callq	_KStore
	movb	%bl, 1040(%r13)
	callq	_KPopCDep
	xorl	%ebx, %ebx
	xorl	%r14d, %r14d
	jmp	.LBB0_7
.Ltmp44:
.LBB0_6:                                # %cond.false
	#DEBUG_VALUE: rijndael_dec_set_key:cx <- R13
	movl	$5, %edi
	callq	_KWork
	movl	$5, %esi
	movl	$8, %edx
	movq	%r13, %rdi
	callq	_KLoad0
	.loc	3 73 66 discriminator 2 # aes.c:73:66
	movzwl	(%r13), %r14d
	shll	$2, %r14d
	movl	$195, %ebx
	movl	$195, %edi
	movl	$1, %esi
	movl	$6, %edx
	movl	$5, %ecx
	movl	$1, %r8d
	callq	_KTimestamp2
	callq	_KPopCDep
.Ltmp45:
.LBB0_7:                                # %cond.end
	movabsq	$-4163276842297086825, %r12 # imm = 0xC63911C51945AC97
	movl	$197, %edi
	callq	_KPushCDep
	movl	$194, %edi
	movl	$196, %edx
	movl	$197, %ecx
	movl	%ebx, %esi
	callq	_KPhi2To1
	movl	$222, %ebx
	xorl	%r15d, %r15d
	movl	$222, %edi
	movl	$1, %esi
	movl	$4, %edx
	movl	$194, %ecx
	xorl	%r8d, %r8d
	callq	_KTimestamp2
	callq	_KPopCDep
	jmp	.LBB0_29
.LBB0_19:                               # %sw.bb149
.Ltmp46:
	#DEBUG_VALUE: rijndael_dec_set_key:in_key <- R14
	#DEBUG_VALUE: rijndael_dec_set_key:cx <- R13
	#DEBUG_VALUE: rijndael_dec_set_key:kf <- R12
	#DEBUG_VALUE: rijndael_dec_set_key:kt <- [RBP+-48]
	#DEBUG_VALUE: rijndael_dec_set_key:rci <- 0
	movq	%r12, -144(%rbp)        # 8-byte Spill
.Ltmp47:
	#DEBUG_VALUE: rijndael_dec_set_key:kf <- [RBP+-144]
	movl	$19, %edi
	callq	_KPushCDep
	movl	$20, %edi
	callq	_KWork
	.loc	3 116 22 is_stmt 1      # aes.c:116:22
.Ltmp48:
	leaq	16(%r14), %rdi
	movl	$76, %esi
	movl	$8, %edx
	callq	_KLoad0
	movq	16(%r14), %r12
	.loc	3 116 7 is_stmt 0       # aes.c:116:7
	leaq	48(%r13), %rbx
	movl	$76, %edi
	movl	$76, %esi
	xorl	%edx, %edx
	callq	_KTimestamp1
	movl	$76, %edi
	movl	$8, %edx
	movq	%rbx, %rsi
	callq	_KStore
	movq	%r12, 48(%r13)
	.loc	3 117 22 is_stmt 1      # aes.c:117:22
	leaq	20(%r14), %rdi
	movl	$77, %esi
	movl	$8, %edx
	callq	_KLoad0
	movq	20(%r14), %r12
	.loc	3 117 7 is_stmt 0       # aes.c:117:7
	leaq	56(%r13), %rbx
	movl	$77, %edi
	movl	$77, %esi
	xorl	%edx, %edx
	callq	_KTimestamp1
	movl	$77, %edi
	movl	$8, %edx
	movq	%rbx, %rsi
	callq	_KStore
	movq	%r12, 56(%r13)
	.loc	3 118 22 is_stmt 1      # aes.c:118:22
	leaq	24(%r14), %rdi
	movl	$78, %esi
	movl	$8, %edx
	callq	_KLoad0
	movq	24(%r14), %r12
	.loc	3 118 7 is_stmt 0       # aes.c:118:7
	leaq	64(%r13), %rbx
	movl	$78, %edi
	movl	$78, %esi
	xorl	%edx, %edx
	callq	_KTimestamp1
	movl	$78, %edi
	movl	$8, %edx
	movq	%rbx, %rsi
	callq	_KStore
	movq	%r12, 64(%r13)
	.loc	3 119 22 is_stmt 1      # aes.c:119:22
	leaq	28(%r14), %rdi
	movl	$79, %esi
	movl	$8, %edx
	callq	_KLoad0
	movq	28(%r14), %r14
.Ltmp49:
	.loc	3 119 7 is_stmt 0       # aes.c:119:7
	leaq	72(%r13), %rbx
	movl	$79, %edi
	movl	$79, %esi
	xorl	%edx, %edx
	callq	_KTimestamp1
	movl	$79, %edi
	movl	$8, %edx
	movq	%rbx, %rsi
	callq	_KStore
	movq	%r14, 72(%r13)
	movq	%r13, -120(%rbp)        # 8-byte Spill
.Ltmp50:
	#DEBUG_VALUE: rijndael_dec_set_key:cx <- [RBP+-120]
	movl	$214, %edi
	callq	_KInduction
	callq	_KPopCDep
	movl	$1, %esi
	movabsq	$446466394888138439, %rdi # imm = 0x6322AD21774EEC7
	callq	_KEnterRegion
	movl	$rijndael_dec_rcon_tab, %eax
	movq	%rax, -56(%rbp)         # 8-byte Spill
	movabsq	$-899282698351563679, %r14 # imm = 0xF3851B268419AC61
	movq	-96(%rbp), %r12         # 8-byte Reload
	xorl	%ebx, %ebx
	.align	16, 0x90
.LBB0_20:                               # %do.body162
                                        # =>This Inner Loop Header: Depth=1
	#DEBUG_VALUE: rijndael_dec_set_key:cx <- [RBP+-120]
	#DEBUG_VALUE: rijndael_dec_set_key:kf <- [RBP+-144]
	#DEBUG_VALUE: rijndael_dec_set_key:kt <- [RBP+-48]
	#DEBUG_VALUE: rijndael_dec_set_key:rci <- 0
	movl	$2, %esi
	movq	%r14, %rdi
	callq	_KEnterRegion
	movl	$19, %edi
	callq	_KPushCDep
	movl	$211, %edi
	movl	$19, %ecx
	movl	%r15d, %esi
	movl	%ebx, %edx
	callq	_KPhi2To1
	movl	$80, %esi
	movl	$8, %edx
	movq	%r12, %rdi
	callq	_KLoad0
	movl	$156, %edi
	callq	_KWork
	.loc	3 122 18 is_stmt 1      # aes.c:122:18
.Ltmp51:
	movq	(%r12), %r14
	leaq	56(%r12), %rdi
	movq	%rdi, -64(%rbp)         # 8-byte Spill
	movl	$81, %esi
	movl	$8, %edx
	movq	%rdi, %rbx
	callq	_KLoad0
	.loc	3 122 26 is_stmt 0      # aes.c:122:26
	movq	56(%r12), %rax
	movzbl	%ah, %eax  # NOREX
	movq	%rax, -72(%rbp)         # 8-byte Spill
	leaq	rijndael_dec_fl_tab(,%rax,8), %rdi
	movl	$82, %esi
	movl	$83, %edx
	movl	$8, %ecx
	callq	_KLoad1
	movl	$84, %esi
	movl	$8, %edx
	movq	%rbx, %rdi
	callq	_KLoad0
	movq	56(%r12), %r13
	shrq	$13, %r13
	andq	$2040, %r13             # imm = 0x7F8
	leaq	rijndael_dec_fl_tab+2048(%r13), %rdi
	movl	$85, %esi
	movl	$86, %edx
	movl	$8, %ecx
	callq	_KLoad1
	movl	$87, %esi
	movl	$8, %edx
	movq	%rbx, %rdi
	movq	%rbx, %r15
	callq	_KLoad0
	movq	56(%r12), %rbx
	shrq	$21, %rbx
	andq	$2040, %rbx             # imm = 0x7F8
	leaq	rijndael_dec_fl_tab+4096(%rbx), %rdi
	movl	$88, %esi
	movl	$89, %edx
	movl	$8, %ecx
	callq	_KLoad1
	movl	$90, %esi
	movl	$8, %edx
	movq	%r15, %rdi
	callq	_KLoad0
	movzbl	56(%r12), %eax
	movq	%rax, -80(%rbp)         # 8-byte Spill
	leaq	rijndael_dec_fl_tab+6144(,%rax,8), %rdi
	movl	$91, %esi
	movl	$92, %edx
	movl	$8, %ecx
	callq	_KLoad1
	movl	$93, %esi
	movl	$8, %edx
	movq	-56(%rbp), %r15         # 8-byte Reload
	movq	%r15, %rdi
	callq	_KLoad0
	movq	-72(%rbp), %rax         # 8-byte Reload
	xorq	rijndael_dec_fl_tab(,%rax,8), %r14
	xorq	rijndael_dec_fl_tab+2048(%r13), %r14
	xorq	rijndael_dec_fl_tab+4096(%rbx), %r14
	.loc	3 122 18                # aes.c:122:18
	movq	-80(%rbp), %rax         # 8-byte Reload
	xorq	rijndael_dec_fl_tab+6144(,%rax,8), %r14
	xorq	(%r15), %r14
	movl	$1, 64(%rsp)
	movl	$93, 56(%rsp)
	movl	$3, 48(%rsp)
	movl	$91, 40(%rsp)
	movl	$4, 32(%rsp)
	movl	$88, 24(%rsp)
	movl	$5, 16(%rsp)
	movl	$85, 8(%rsp)
	movl	$5, (%rsp)
	movl	$94, %edi
	movl	$19, %esi
	movl	$5, %edx
	movl	$80, %ecx
	movl	$2, %r8d
	movl	$82, %r9d
	callq	_KTimestamp7
	leaq	64(%r12), %rsi
	movq	%rsi, -72(%rbp)         # 8-byte Spill
	movl	$94, %edi
	movl	$8, %edx
	movq	%rsi, %r15
	callq	_KStore
	.loc	3 122 9                 # aes.c:122:9
	movq	%r14, 64(%r12)
	leaq	8(%r12), %rdi
	movl	$95, %esi
	movl	$8, %edx
	callq	_KLoad0
	.loc	3 123 18 is_stmt 1      # aes.c:123:18
	movq	8(%r12), %rbx
	movl	$96, %esi
	movl	$8, %edx
	movq	%r15, %rdi
	callq	_KLoad0
	xorq	64(%r12), %rbx
	movl	$1, (%rsp)
	movl	$97, %edi
	movl	$19, %esi
	movl	$1, %edx
	movl	$95, %ecx
	movl	$1, %r8d
	movl	$96, %r9d
	callq	_KTimestamp3
	leaq	72(%r12), %r14
	movl	$97, %edi
	movl	$8, %edx
	movq	%r14, %rsi
	callq	_KStore
	.loc	3 123 9 is_stmt 0       # aes.c:123:9
	movq	%rbx, 72(%r12)
	leaq	16(%r12), %rdi
	movl	$98, %esi
	movl	$8, %edx
	callq	_KLoad0
	.loc	3 124 18 is_stmt 1      # aes.c:124:18
	movq	16(%r12), %rbx
	movl	$99, %esi
	movl	$8, %edx
	movq	%r14, %rdi
	callq	_KLoad0
	xorq	72(%r12), %rbx
	movl	$1, (%rsp)
	movl	$100, %edi
	movl	$19, %esi
	movl	$1, %edx
	movl	$98, %ecx
	movl	$1, %r8d
	movl	$99, %r9d
	callq	_KTimestamp3
	leaq	80(%r12), %r14
	movl	$100, %edi
	movl	$8, %edx
	movq	%r14, %rsi
	callq	_KStore
	.loc	3 124 9 is_stmt 0       # aes.c:124:9
	movq	%rbx, 80(%r12)
	leaq	24(%r12), %rdi
	movl	$101, %esi
	movl	$8, %edx
	callq	_KLoad0
	.loc	3 125 18 is_stmt 1      # aes.c:125:18
	movq	24(%r12), %rbx
	movl	$102, %esi
	movl	$8, %edx
	movq	%r14, %rdi
	callq	_KLoad0
	xorq	80(%r12), %rbx
	movl	$1, (%rsp)
	movl	$103, %edi
	movl	$19, %esi
	movl	$1, %edx
	movl	$101, %ecx
	movl	$1, %r8d
	movl	$102, %r9d
	callq	_KTimestamp3
	leaq	88(%r12), %r14
	movl	$103, %edi
	movl	$8, %edx
	movq	%r14, %rsi
	callq	_KStore
	.loc	3 125 9 is_stmt 0       # aes.c:125:9
	movq	%rbx, 88(%r12)
	leaq	32(%r12), %rdi
	movl	$104, %esi
	movl	$8, %edx
	callq	_KLoad0
	.loc	3 126 18 is_stmt 1      # aes.c:126:18
	movq	32(%r12), %r13
	movl	$105, %esi
	movl	$8, %edx
	movq	%r14, %rdi
	callq	_KLoad0
	.loc	3 126 26 is_stmt 0      # aes.c:126:26
	movzbl	88(%r12), %eax
	movq	%rax, -80(%rbp)         # 8-byte Spill
	leaq	rijndael_dec_fl_tab(,%rax,8), %rdi
	movl	$106, %esi
	movl	$107, %edx
	movl	$8, %ecx
	callq	_KLoad1
	movl	$108, %esi
	movl	$8, %edx
	movq	%r14, %rdi
	callq	_KLoad0
	movq	88(%r12), %rax
	movzbl	%ah, %eax  # NOREX
	movq	%rax, -88(%rbp)         # 8-byte Spill
	leaq	rijndael_dec_fl_tab+2048(,%rax,8), %rdi
	movl	$109, %esi
	movl	$110, %edx
	movl	$8, %ecx
	callq	_KLoad1
	movl	$111, %esi
	movl	$8, %edx
	movq	%r14, %rdi
	callq	_KLoad0
	movq	88(%r12), %r15
	shrq	$13, %r15
	andq	$2040, %r15             # imm = 0x7F8
	leaq	rijndael_dec_fl_tab+4096(%r15), %rdi
	movl	$112, %esi
	movl	$113, %edx
	movl	$8, %ecx
	callq	_KLoad1
	movl	$114, %esi
	movl	$8, %edx
	movq	%r14, %rdi
	callq	_KLoad0
	movq	88(%r12), %rbx
	shrq	$21, %rbx
	andq	$2040, %rbx             # imm = 0x7F8
	leaq	rijndael_dec_fl_tab+6144(%rbx), %rdi
	movl	$115, %esi
	movl	$116, %edx
	movl	$8, %ecx
	callq	_KLoad1
	movq	-80(%rbp), %rax         # 8-byte Reload
	xorq	rijndael_dec_fl_tab(,%rax,8), %r13
	movq	-88(%rbp), %rax         # 8-byte Reload
	xorq	rijndael_dec_fl_tab+2048(,%rax,8), %r13
	xorq	rijndael_dec_fl_tab+4096(%r15), %r13
	.loc	3 126 18                # aes.c:126:18
	xorq	rijndael_dec_fl_tab+6144(%rbx), %r13
	movl	$2, 48(%rsp)
	movl	$115, 40(%rsp)
	movl	$3, 32(%rsp)
	movl	$112, 24(%rsp)
	movl	$4, 16(%rsp)
	movl	$109, 8(%rsp)
	movl	$4, (%rsp)
	movl	$117, %edi
	movl	$19, %esi
	movl	$4, %edx
	movl	$104, %ecx
	movl	$1, %r8d
	movl	$106, %r9d
	callq	_KTimestamp6
	leaq	96(%r12), %r14
	movl	$117, %edi
	movl	$8, %edx
	movq	%r14, %rsi
	callq	_KStore
	.loc	3 126 9                 # aes.c:126:9
	movq	%r13, 96(%r12)
	leaq	40(%r12), %rdi
	movl	$118, %esi
	movl	$8, %edx
	callq	_KLoad0
	.loc	3 127 18 is_stmt 1      # aes.c:127:18
	movq	40(%r12), %rbx
	movl	$119, %esi
	movl	$8, %edx
	movq	%r14, %rdi
	callq	_KLoad0
	xorq	96(%r12), %rbx
	movl	$1, (%rsp)
	movl	$120, %edi
	movl	$19, %esi
	movl	$1, %edx
	movl	$118, %ecx
	movl	$1, %r8d
	movl	$119, %r9d
	callq	_KTimestamp3
	leaq	104(%r12), %r14
	movl	$120, %edi
	movl	$8, %edx
	movq	%r14, %rsi
	callq	_KStore
	.loc	3 127 9 is_stmt 0       # aes.c:127:9
	movq	%rbx, 104(%r12)
	leaq	48(%r12), %rdi
	movl	$121, %esi
	movl	$8, %edx
	callq	_KLoad0
	.loc	3 128 18 is_stmt 1      # aes.c:128:18
	movq	48(%r12), %rbx
	movl	$122, %esi
	movl	$8, %edx
	movq	%r14, %rdi
	callq	_KLoad0
	xorq	104(%r12), %rbx
	movl	$1, (%rsp)
	movl	$123, %edi
	movl	$19, %esi
	movl	$1, %edx
	movl	$121, %ecx
	movl	$1, %r8d
	movl	$122, %r9d
	callq	_KTimestamp3
	leaq	112(%r12), %r14
	movl	$123, %edi
	movl	$8, %edx
	movq	%r14, %rsi
	callq	_KStore
	.loc	3 128 9 is_stmt 0       # aes.c:128:9
	movq	%rbx, 112(%r12)
	movl	$124, %esi
	movl	$8, %edx
	movq	-64(%rbp), %rdi         # 8-byte Reload
	callq	_KLoad0
	.loc	3 129 18 is_stmt 1      # aes.c:129:18
	movq	56(%r12), %rbx
	movl	$125, %esi
	movl	$8, %edx
	movq	%r14, %rdi
	callq	_KLoad0
	xorq	112(%r12), %rbx
	movl	$1, (%rsp)
	movl	$126, %edi
	movl	$19, %esi
	movl	$1, %edx
	movl	$124, %ecx
	movl	$1, %r8d
	movl	$125, %r9d
	callq	_KTimestamp3
	leaq	120(%r12), %rsi
	movl	$126, %edi
	movl	$8, %edx
	callq	_KStore
	.loc	3 129 9 is_stmt 0       # aes.c:129:9
	movq	%rbx, 120(%r12)
	movl	$1, (%rsp)
	movl	$213, %ebx
	movl	$213, %edi
	movl	$204, %esi
	movl	$1, %edx
	movl	$19, %ecx
	movl	$1, %r8d
	movl	$211, %r9d
	callq	_KTimestamp3
	movl	$211, %edi
	movl	$213, %esi
	callq	_KPhiAddCond
	movl	$212, %r15d
	movl	$212, %edi
	movl	$19, %esi
	xorl	%edx, %edx
	movl	$211, %ecx
	xorl	%r8d, %r8d
	callq	_KTimestamp2
	callq	_KPopCDep
	movl	$2, %esi
	movabsq	$-899282698351563679, %rdi # imm = 0xF3851B268419AC61
	movq	%rdi, %r14
	callq	_KExitRegion
.Ltmp52:
	.loc	3 131 17 is_stmt 1      # aes.c:131:17
	addq	$8, -56(%rbp)           # 8-byte Folded Spill
	movq	-72(%rbp), %r12         # 8-byte Reload
	cmpq	-48(%rbp), %r12         # 8-byte Folded Reload
	.loc	3 131 7 is_stmt 0       # aes.c:131:7
.Ltmp53:
	jb	.LBB0_20
.Ltmp54:
# BB#21:                                # %do.body162.pre_exit.sw.epilog.loopexit2
	#DEBUG_VALUE: rijndael_dec_set_key:cx <- [RBP+-120]
	#DEBUG_VALUE: rijndael_dec_set_key:kf <- [RBP+-144]
	#DEBUG_VALUE: rijndael_dec_set_key:rci <- 0
	movl	$1, %esi
	movabsq	$446466394888138439, %rdi # imm = 0x6322AD21774EEC7
	jmp	.LBB0_22
.LBB0_12:                               # %cond.end29
	#DEBUG_VALUE: rijndael_dec_set_key:cx <- [RBP+-120]
.Ltmp55:
	#DEBUG_VALUE: rijndael_dec_set_key:kf <- R12
	#DEBUG_VALUE: rijndael_dec_set_key:kt <- [RBP+-48]
	#DEBUG_VALUE: rijndael_dec_set_key:rci <- 0
	movq	%r12, -144(%rbp)        # 8-byte Spill
.Ltmp56:
	#DEBUG_VALUE: rijndael_dec_set_key:kf <- [RBP+-144]
	cmpq	$4, %rbx
	movabsq	$-4163276842297086825, %r12 # imm = 0xC63911C51945AC97
	jne	.LBB0_23
# BB#13:                                # %do.body.preheader
	#DEBUG_VALUE: rijndael_dec_set_key:cx <- [RBP+-120]
	#DEBUG_VALUE: rijndael_dec_set_key:kf <- [RBP+-144]
	#DEBUG_VALUE: rijndael_dec_set_key:kt <- [RBP+-48]
	#DEBUG_VALUE: rijndael_dec_set_key:rci <- 0
	movabsq	$-8796468948502946613, %rbx # imm = 0x85ECAA18D6BA5CCB
	movl	$19, %edi
	callq	_KPushCDep
	movl	$206, %edi
	callq	_KInduction
	callq	_KPopCDep
	movl	$1, %esi
	movq	%rbx, %rdi
	callq	_KEnterRegion
	movl	$rijndael_dec_rcon_tab, %eax
	movq	%rax, -56(%rbp)         # 8-byte Spill
	movl	$202, %r13d
	xorl	%r14d, %r14d
	movabsq	$-679845661220375650, %r12 # imm = 0xF690B3F91CDE739E
	movq	-96(%rbp), %rbx         # 8-byte Reload
	.align	16, 0x90
.LBB0_14:                               # %do.body
                                        # =>This Inner Loop Header: Depth=1
	#DEBUG_VALUE: rijndael_dec_set_key:cx <- [RBP+-120]
	#DEBUG_VALUE: rijndael_dec_set_key:kf <- [RBP+-144]
	#DEBUG_VALUE: rijndael_dec_set_key:kt <- [RBP+-48]
	#DEBUG_VALUE: rijndael_dec_set_key:rci <- 0
	movl	$2, %esi
	movq	%r12, %rdi
	callq	_KEnterRegion
	movl	$19, %edi
	callq	_KPushCDep
	movl	$200, %edi
	movl	$19, %ecx
	movl	%r13d, %esi
	movl	%r14d, %edx
	callq	_KPhi2To1
	movl	$20, %esi
	movl	$8, %edx
	movq	%rbx, %rdi
	callq	_KLoad0
	movl	$81, %edi
	callq	_KWork
	.loc	3 92 17 is_stmt 1       # aes.c:92:17
.Ltmp57:
	movq	(%rbx), %r13
	leaq	24(%rbx), %rdi
	movq	%rdi, -64(%rbp)         # 8-byte Spill
	movl	$21, %esi
	movl	$8, %edx
	movq	%rdi, %r14
	callq	_KLoad0
	.loc	3 92 25 is_stmt 0       # aes.c:92:25
	movq	24(%rbx), %rax
	movzbl	%ah, %eax  # NOREX
	movq	%rax, -72(%rbp)         # 8-byte Spill
	leaq	rijndael_dec_fl_tab(,%rax,8), %rdi
	movl	$22, %esi
	movl	$23, %edx
	movl	$8, %ecx
	callq	_KLoad1
	movl	$24, %esi
	movl	$8, %edx
	movq	%r14, %rdi
	callq	_KLoad0
	movq	24(%rbx), %r15
	shrq	$13, %r15
	andq	$2040, %r15             # imm = 0x7F8
	leaq	rijndael_dec_fl_tab+2048(%r15), %rdi
	movl	$25, %esi
	movl	$26, %edx
	movl	$8, %ecx
	callq	_KLoad1
	movl	$27, %esi
	movl	$8, %edx
	movq	%r14, %rdi
	callq	_KLoad0
	movq	24(%rbx), %r12
	shrq	$21, %r12
	andq	$2040, %r12             # imm = 0x7F8
	leaq	rijndael_dec_fl_tab+4096(%r12), %rdi
	movl	$28, %esi
	movl	$29, %edx
	movl	$8, %ecx
	callq	_KLoad1
	movl	$30, %esi
	movl	$8, %edx
	movq	%r14, %rdi
	callq	_KLoad0
	movzbl	24(%rbx), %eax
	movq	%rax, -80(%rbp)         # 8-byte Spill
	leaq	rijndael_dec_fl_tab+6144(,%rax,8), %rdi
	movl	$31, %esi
	movl	$32, %edx
	movl	$8, %ecx
	callq	_KLoad1
	movl	$33, %esi
	movl	$8, %edx
	movq	-56(%rbp), %r14         # 8-byte Reload
	movq	%r14, %rdi
	callq	_KLoad0
	movq	-72(%rbp), %rax         # 8-byte Reload
	xorq	rijndael_dec_fl_tab(,%rax,8), %r13
	xorq	rijndael_dec_fl_tab+2048(%r15), %r13
	xorq	rijndael_dec_fl_tab+4096(%r12), %r13
	.loc	3 92 17                 # aes.c:92:17
	movq	-80(%rbp), %rax         # 8-byte Reload
	xorq	rijndael_dec_fl_tab+6144(,%rax,8), %r13
	xorq	(%r14), %r13
	movl	$1, 64(%rsp)
	movl	$33, 56(%rsp)
	movl	$4, 48(%rsp)
	movl	$28, 40(%rsp)
	movl	$5, 32(%rsp)
	movl	$25, 24(%rsp)
	movl	$5, 16(%rsp)
	movl	$22, 8(%rsp)
	movl	$2, (%rsp)
	movl	$34, %edi
	movl	$31, %esi
	movl	$3, %edx
	movl	$19, %ecx
	movl	$5, %r8d
	movl	$20, %r9d
	callq	_KTimestamp7
	leaq	32(%rbx), %r15
	movl	$34, %edi
	movl	$8, %edx
	movq	%r15, %rsi
	callq	_KStore
	.loc	3 92 9                  # aes.c:92:9
	movq	%r13, 32(%rbx)
	leaq	8(%rbx), %rdi
	movl	$35, %esi
	movl	$8, %edx
	callq	_KLoad0
	.loc	3 93 17 is_stmt 1       # aes.c:93:17
	movq	8(%rbx), %r14
	movl	$36, %esi
	movl	$8, %edx
	movq	%r15, %rdi
	callq	_KLoad0
	xorq	32(%rbx), %r14
	movl	$1, (%rsp)
	movl	$37, %edi
	movl	$19, %esi
	movl	$1, %edx
	movl	$35, %ecx
	movl	$1, %r8d
	movl	$36, %r9d
	callq	_KTimestamp3
	leaq	40(%rbx), %r13
	movl	$37, %edi
	movl	$8, %edx
	movq	%r13, %rsi
	callq	_KStore
	.loc	3 93 9 is_stmt 0        # aes.c:93:9
	movq	%r14, 40(%rbx)
	leaq	16(%rbx), %rdi
	movl	$38, %esi
	movl	$8, %edx
	callq	_KLoad0
	.loc	3 94 17 is_stmt 1       # aes.c:94:17
	movq	16(%rbx), %r14
	movl	$39, %esi
	movl	$8, %edx
	movq	%r13, %rdi
	callq	_KLoad0
	xorq	40(%rbx), %r14
	movl	$1, (%rsp)
	movl	$40, %edi
	movl	$19, %esi
	movl	$1, %edx
	movl	$38, %ecx
	movl	$1, %r8d
	movl	$39, %r9d
	callq	_KTimestamp3
	leaq	48(%rbx), %r13
	movl	$40, %edi
	movl	$8, %edx
	movq	%r13, %rsi
	callq	_KStore
	.loc	3 94 9 is_stmt 0        # aes.c:94:9
	movq	%r14, 48(%rbx)
	movl	$41, %esi
	movl	$8, %edx
	movq	-64(%rbp), %rdi         # 8-byte Reload
	callq	_KLoad0
	.loc	3 95 17 is_stmt 1       # aes.c:95:17
	movq	24(%rbx), %r14
	movl	$42, %esi
	movl	$8, %edx
	movq	%r13, %rdi
	callq	_KLoad0
	xorq	48(%rbx), %r14
	movl	$1, (%rsp)
	movl	$43, %edi
	movl	$19, %esi
	movl	$1, %edx
	movl	$41, %ecx
	movl	$1, %r8d
	movl	$42, %r9d
	callq	_KTimestamp3
	leaq	56(%rbx), %rsi
	movl	$43, %edi
	movl	$8, %edx
	callq	_KStore
	.loc	3 95 9 is_stmt 0        # aes.c:95:9
	movq	%r14, 56(%rbx)
	movl	$1, (%rsp)
	movl	$205, %r14d
	movl	$205, %edi
	movl	$204, %esi
	movl	$1, %edx
	movl	$19, %ecx
	movl	$1, %r8d
	movl	$200, %r9d
	callq	_KTimestamp3
	movl	$200, %edi
	movl	$205, %esi
	callq	_KPhiAddCond
	movl	$201, %r13d
	movl	$201, %edi
	movl	$19, %esi
	xorl	%edx, %edx
	movl	$200, %ecx
	xorl	%r8d, %r8d
	callq	_KTimestamp2
	callq	_KPopCDep
	movl	$2, %esi
	movabsq	$-679845661220375650, %rdi # imm = 0xF690B3F91CDE739E
	movq	%rdi, %r12
	callq	_KExitRegion
.Ltmp58:
	.loc	3 97 17 is_stmt 1       # aes.c:97:17
	addq	$8, -56(%rbp)           # 8-byte Folded Spill
	cmpq	-48(%rbp), %r15         # 8-byte Folded Reload
	movq	%r15, %rbx
	.loc	3 97 7 is_stmt 0        # aes.c:97:7
.Ltmp59:
	jb	.LBB0_14
.Ltmp60:
# BB#15:                                # %do.body.pre_exit.sw.epilog.loopexit
	#DEBUG_VALUE: rijndael_dec_set_key:cx <- [RBP+-120]
	#DEBUG_VALUE: rijndael_dec_set_key:kf <- [RBP+-144]
	#DEBUG_VALUE: rijndael_dec_set_key:rci <- 0
	movl	$1, %esi
	movabsq	$-8796468948502946613, %rdi # imm = 0x85ECAA18D6BA5CCB
.LBB0_22:                               # %sw.epilog
	callq	_KExitRegion
	movl	$19, %edi
	callq	_KPushCDep
	callq	_KPopCDep
	movabsq	$-4163276842297086825, %r13 # imm = 0xC63911C51945AC97
	movq	%r13, %r12
.LBB0_23:                               # %sw.epilog
	#DEBUG_VALUE: rijndael_dec_set_key:cx <- [RBP+-120]
	#DEBUG_VALUE: rijndael_dec_set_key:kf <- [RBP+-144]
	#DEBUG_VALUE: rijndael_dec_set_key:rci <- 0
	movl	$198, %r15d
	movl	$198, %edi
	callq	_KPushCDep
	movl	$6, %edi
	callq	_KWork
	movl	$127, %esi
	movl	$1, %edx
	movq	-104(%rbp), %rbx        # 8-byte Reload
	movq	%rbx, %rdi
	callq	_KLoad0
	.loc	3 135 10 is_stmt 1      # aes.c:135:10
.Ltmp61:
	movb	(%rbx), %al
	.loc	3 135 8 is_stmt 0       # aes.c:135:8
	andb	$3, %al
	movzbl	%al, %ebx
	movl	$2, (%rsp)
	movl	$147, %edi
	movl	$1, %esi
	movl	$8, %edx
	movl	$2, %ecx
	movl	$4, %r8d
	movl	$127, %r9d
	callq	_KTimestamp3
	callq	_KPopCDep
	cmpl	$1, %ebx
	je	.LBB0_28
# BB#24:                                # %if.then252
	#DEBUG_VALUE: rijndael_dec_set_key:cx <- [RBP+-120]
	#DEBUG_VALUE: rijndael_dec_set_key:kf <- [RBP+-144]
	#DEBUG_VALUE: rijndael_dec_set_key:rci <- 0
	movl	$147, %edi
	callq	_KPushCDep
	movl	$26, %edi
	callq	_KWork
	movl	$128, %esi
	movl	$8, %edx
	movq	-112(%rbp), %rdi        # 8-byte Reload
	callq	_KLoad0
	movq	-120(%rbp), %r12        # 8-byte Reload
.Ltmp62:
	#DEBUG_VALUE: rijndael_dec_set_key:cx <- R12
	.loc	3 138 27 is_stmt 1      # aes.c:138:27
	movq	8(%r12), %r14
	shlq	$5, %r14
	.loc	3 138 10 is_stmt 0      # aes.c:138:10
	leaq	528(%r12,%r14), %r15
.Ltmp63:
	#DEBUG_VALUE: rijndael_dec_set_key:kt <- R15
	movl	$129, %esi
	movl	$8, %edx
	movq	-96(%rbp), %rdi         # 8-byte Reload
	callq	_KLoad0
	.loc	3 141 5 is_stmt 1 discriminator 1 # aes.c:141:5
.Ltmp64:
	movq	16(%r12), %rbx
	leaq	536(%r12,%r14), %r13
.Ltmp65:
	#DEBUG_VALUE: rijndael_dec_set_key:kt <- R13
	movl	$129, %edi
	movl	$129, %esi
	xorl	%edx, %edx
	callq	_KTimestamp1
	movl	$129, %edi
	movl	$8, %edx
	movq	%r15, %rsi
	xorl	%eax, %eax
	movq	%rax, -64(%rbp)         # 8-byte Spill
	callq	_KStore
	movq	%rbx, 528(%r12,%r14)
	movl	$130, %esi
	movl	$8, %edx
	movq	-128(%rbp), %rdi        # 8-byte Reload
	callq	_KLoad0
	movq	24(%r12), %rbx
	leaq	544(%r12,%r14), %r15
.Ltmp66:
	#DEBUG_VALUE: rijndael_dec_set_key:kt <- R15
	movl	$130, %edi
	movl	$130, %esi
	xorl	%edx, %edx
	callq	_KTimestamp1
	movl	$130, %edi
	movl	$8, %edx
	movq	%r13, %rsi
	callq	_KStore
	movq	%rbx, 536(%r12,%r14)
	movl	$131, %esi
	movl	$8, %edx
	movq	-136(%rbp), %rdi        # 8-byte Reload
	callq	_KLoad0
	movq	32(%r12), %rbx
	leaq	552(%r12,%r14), %r13
.Ltmp67:
	#DEBUG_VALUE: rijndael_dec_set_key:kt <- R13
	movl	$131, %edi
	movl	$131, %esi
	xorl	%edx, %edx
	callq	_KTimestamp1
	movl	$131, %edi
	movl	$8, %edx
	movq	%r15, %rsi
	callq	_KStore
	movq	%rbx, 544(%r12,%r14)
	movl	$132, %esi
	movl	$8, %edx
	movq	-144(%rbp), %rdi        # 8-byte Reload
	callq	_KLoad0
	movq	40(%r12), %rbx
	movl	$132, %edi
	movl	$132, %esi
	xorl	%edx, %edx
	callq	_KTimestamp1
	movl	$132, %edi
	movl	$8, %edx
	movq	%r13, %rsi
	callq	_KStore
	movq	%rbx, 552(%r12,%r14)
.Ltmp68:
	#DEBUG_VALUE: i <- 1
	movl	$2, 32(%rsp)
	movl	$128, 24(%rsp)
	movl	$4, 16(%rsp)
	movl	$127, 8(%rsp)
	movl	$0, (%rsp)
	movl	$219, -80(%rbp)         # 4-byte Folded Spill
	movl	$219, %edi
	movl	$1, %esi
	movl	$10, %edx
	movl	$2, %ecx
	movl	$6, %r8d
	movl	$203, %r9d
	callq	_KTimestamp5
	movl	$2, 16(%rsp)
	movl	$127, 8(%rsp)
	movl	$0, (%rsp)
	movl	$216, -88(%rbp)         # 4-byte Folded Spill
	movl	$216, %edi
	movl	$1, %esi
	movl	$8, %edx
	movl	$2, %ecx
	movl	$4, %r8d
	movl	$203, %r9d
	callq	_KTimestamp4
	callq	_KPopCDep
	movl	$1, %esi
	movabsq	$-8983292378539754914, %rdi # imm = 0x8354EF2D5FA9FA5E
	callq	_KEnterRegion
	xorl	%r13d, %r13d
.Ltmp69:
	xorl	%eax, %eax
	movq	%rax, -72(%rbp)         # 8-byte Spill
	xorl	%ebx, %ebx
	jmp	.LBB0_25
.Ltmp70:
	.align	16, 0x90
.LBB0_26:                               # %do.body273
                                        #   in Loop: Header=BB0_25 Depth=1
	#DEBUG_VALUE: rijndael_dec_set_key:cx <- R12
	#DEBUG_VALUE: rijndael_dec_set_key:rci <- 0
	#DEBUG_VALUE: i <- 1
	.loc	3 145 18                # aes.c:145:18
	movq	%r13, -56(%rbp)         # 8-byte Spill
	leaq	32(%r13), %rax
	movq	%rax, -96(%rbp)         # 8-byte Spill
	movq	%r14, -48(%rbp)         # 8-byte Spill
	leaq	-32(%r14), %rax
	movq	%rax, -104(%rbp)        # 8-byte Spill
	movq	%rcx, -80(%rbp)         # 8-byte Spill
	movl	$2, %esi
	movabsq	$7659613813464425220, %rax # imm = 0x6A4C6A2E5438E304
	movq	%rax, %rdi
	callq	_KEnterRegion
	movl	$148, %eax
	movq	%rax, -72(%rbp)         # 8-byte Spill
	movl	$148, %edi
	callq	_KPushCDep
	movl	$134, %esi
	movl	$8, %edx
	movq	%r15, %rdi
	callq	_KLoad0
	movl	$161, %edi
	callq	_KWork
	.loc	3 146 7 discriminator 1 # aes.c:146:7
.Ltmp71:
	movzbl	48(%r12,%r13), %r14d
	leaq	rijndael_dec_im_tab(,%r14,8), %rdi
	movl	$135, %esi
	movl	$136, %edx
	movl	$8, %ecx
	callq	_KLoad1
	movl	$137, %esi
	movl	$8, %edx
	movq	%r15, %rdi
	callq	_KLoad0
	movq	48(%r12,%r13), %rax
	movzbl	%ah, %ebx  # NOREX
	leaq	rijndael_dec_im_tab+2048(,%rbx,8), %rdi
	movl	$138, %esi
	movl	$139, %edx
	movl	$8, %ecx
	callq	_KLoad1
	movq	rijndael_dec_im_tab+2048(,%rbx,8), %r13
	xorq	rijndael_dec_im_tab(,%r14,8), %r13
	movl	$140, %esi
	movl	$8, %edx
	movq	%r15, %rdi
	movq	%r15, %r14
	callq	_KLoad0
	movq	-56(%rbp), %r15         # 8-byte Reload
	movq	48(%r12,%r15), %rbx
	shrq	$13, %rbx
	andq	$2040, %rbx             # imm = 0x7F8
	leaq	rijndael_dec_im_tab+4096(%rbx), %rdi
	movl	$141, %esi
	movl	$142, %edx
	movl	$8, %ecx
	callq	_KLoad1
	xorq	rijndael_dec_im_tab+4096(%rbx), %r13
	movl	$143, %esi
	movl	$8, %edx
	movq	%r14, %rdi
	callq	_KLoad0
	movq	48(%r12,%r15), %rbx
	movq	%r15, %r14
	shrq	$21, %rbx
	andq	$2040, %rbx             # imm = 0x7F8
	leaq	rijndael_dec_im_tab+6144(%rbx), %rdi
	movl	$144, %esi
	movl	$145, %edx
	movl	$8, %ecx
	callq	_KLoad1
	xorq	rijndael_dec_im_tab+6144(%rbx), %r13
	movl	$1, 32(%rsp)
	movl	$144, 24(%rsp)
	movl	$2, 16(%rsp)
	movl	$141, 8(%rsp)
	movl	$3, (%rsp)
	movl	$146, %edi
	movl	$148, %esi
	movl	$3, %edx
	movl	$135, %ecx
	movl	$3, %r8d
	movl	$138, %r9d
	callq	_KTimestamp5
	movl	$146, %edi
	movl	$8, %edx
	movq	-80(%rbp), %rsi         # 8-byte Reload
	callq	_KStore
	movq	-48(%rbp), %rax         # 8-byte Reload
	movq	%r13, 496(%r12,%rax)
	movq	%r14, %rbx
	leaq	56(%r12,%rbx), %r14
	movl	$150, %esi
	movl	$8, %edx
	movq	%r14, %rdi
	callq	_KLoad0
	movzbl	56(%r12,%rbx), %r15d
	leaq	rijndael_dec_im_tab(,%r15,8), %rdi
	movl	$151, %esi
	movl	$152, %edx
	movl	$8, %ecx
	callq	_KLoad1
	movl	$153, %esi
	movl	$8, %edx
	movq	%r14, %rdi
	callq	_KLoad0
	movq	56(%r12,%rbx), %rax
	movzbl	%ah, %ebx  # NOREX
	leaq	rijndael_dec_im_tab+2048(,%rbx,8), %rdi
	movl	$154, %esi
	movl	$155, %edx
	movl	$8, %ecx
	callq	_KLoad1
	movq	rijndael_dec_im_tab+2048(,%rbx,8), %r13
	xorq	rijndael_dec_im_tab(,%r15,8), %r13
	movl	$156, %esi
	movl	$8, %edx
	movq	%r14, %rdi
	callq	_KLoad0
	movq	-56(%rbp), %r15         # 8-byte Reload
	movq	56(%r12,%r15), %rbx
	shrq	$13, %rbx
	andq	$2040, %rbx             # imm = 0x7F8
	leaq	rijndael_dec_im_tab+4096(%rbx), %rdi
	movl	$157, %esi
	movl	$158, %edx
	movl	$8, %ecx
	callq	_KLoad1
	xorq	rijndael_dec_im_tab+4096(%rbx), %r13
	movl	$159, %esi
	movl	$8, %edx
	movq	%r14, %rdi
	callq	_KLoad0
	movq	56(%r12,%r15), %rbx
	movq	%r15, %r14
	shrq	$21, %rbx
	andq	$2040, %rbx             # imm = 0x7F8
	leaq	rijndael_dec_im_tab+6144(%rbx), %rdi
	movl	$160, %esi
	movl	$161, %edx
	movl	$8, %ecx
	callq	_KLoad1
	xorq	rijndael_dec_im_tab+6144(%rbx), %r13
	movl	$2, 32(%rsp)
	movl	$157, 24(%rsp)
	movl	$3, 16(%rsp)
	movl	$154, 8(%rsp)
	movl	$3, (%rsp)
	movl	$162, %edi
	movl	$160, %esi
	movl	$1, %edx
	movl	$148, %ecx
	movl	$3, %r8d
	movl	$151, %r9d
	callq	_KTimestamp5
	movq	-48(%rbp), %rbx         # 8-byte Reload
	leaq	504(%r12,%rbx), %rsi
	movl	$162, %edi
	movl	$8, %edx
	callq	_KStore
	movq	%r13, 504(%r12,%rbx)
	movq	%r14, %rbx
	leaq	64(%r12,%rbx), %r14
	movl	$163, %esi
	movl	$8, %edx
	movq	%r14, %rdi
	callq	_KLoad0
	movzbl	64(%r12,%rbx), %r15d
	leaq	rijndael_dec_im_tab(,%r15,8), %rdi
	movl	$164, %esi
	movl	$165, %edx
	movl	$8, %ecx
	callq	_KLoad1
	movl	$166, %esi
	movl	$8, %edx
	movq	%r14, %rdi
	callq	_KLoad0
	movq	64(%r12,%rbx), %rax
	movzbl	%ah, %ebx  # NOREX
	leaq	rijndael_dec_im_tab+2048(,%rbx,8), %rdi
	movl	$167, %esi
	movl	$168, %edx
	movl	$8, %ecx
	callq	_KLoad1
	movq	rijndael_dec_im_tab+2048(,%rbx,8), %r13
	xorq	rijndael_dec_im_tab(,%r15,8), %r13
	movl	$169, %esi
	movl	$8, %edx
	movq	%r14, %rdi
	callq	_KLoad0
	movq	-56(%rbp), %r15         # 8-byte Reload
	movq	64(%r12,%r15), %rbx
	shrq	$13, %rbx
	andq	$2040, %rbx             # imm = 0x7F8
	leaq	rijndael_dec_im_tab+4096(%rbx), %rdi
	movl	$170, %esi
	movl	$171, %edx
	movl	$8, %ecx
	callq	_KLoad1
	xorq	rijndael_dec_im_tab+4096(%rbx), %r13
	movl	$172, %esi
	movl	$8, %edx
	movq	%r14, %rdi
	callq	_KLoad0
	movq	64(%r12,%r15), %rbx
	movq	%r15, %r14
	shrq	$21, %rbx
	andq	$2040, %rbx             # imm = 0x7F8
	leaq	rijndael_dec_im_tab+6144(%rbx), %rdi
	movl	$173, %esi
	movl	$174, %edx
	movl	$8, %ecx
	callq	_KLoad1
	xorq	rijndael_dec_im_tab+6144(%rbx), %r13
	movl	$1, 32(%rsp)
	movl	$173, 24(%rsp)
	movl	$3, 16(%rsp)
	movl	$148, 8(%rsp)
	movl	$2, (%rsp)
	movl	$175, %edi
	movl	$164, %esi
	movl	$3, %edx
	movl	$167, %ecx
	movl	$3, %r8d
	movl	$170, %r9d
	callq	_KTimestamp5
	movq	-48(%rbp), %rbx         # 8-byte Reload
	leaq	512(%r12,%rbx), %rsi
	movl	$175, %edi
	movl	$8, %edx
	callq	_KStore
	movq	%r13, 512(%r12,%rbx)
	movq	%r14, %rbx
	leaq	72(%r12,%rbx), %r15
	movl	$176, %esi
	movl	$8, %edx
	movq	%r15, %rdi
	callq	_KLoad0
	movzbl	72(%r12,%rbx), %r14d
	leaq	rijndael_dec_im_tab(,%r14,8), %rdi
	movl	$177, %esi
	movl	$178, %edx
	movl	$8, %ecx
	callq	_KLoad1
	movl	$179, %esi
	movl	$8, %edx
	movq	%r15, %rdi
	callq	_KLoad0
	movq	72(%r12,%rbx), %rax
	movzbl	%ah, %ebx  # NOREX
	leaq	rijndael_dec_im_tab+2048(,%rbx,8), %rdi
	movl	$180, %esi
	movl	$181, %edx
	movl	$8, %ecx
	callq	_KLoad1
	movq	rijndael_dec_im_tab+2048(,%rbx,8), %r13
	xorq	rijndael_dec_im_tab(,%r14,8), %r13
	movl	$182, %esi
	movl	$8, %edx
	movq	%r15, %rdi
	callq	_KLoad0
	movq	-56(%rbp), %r14         # 8-byte Reload
	movq	72(%r12,%r14), %rbx
	shrq	$13, %rbx
	andq	$2040, %rbx             # imm = 0x7F8
	leaq	rijndael_dec_im_tab+4096(%rbx), %rdi
	movl	$183, %esi
	movl	$184, %edx
	movl	$8, %ecx
	callq	_KLoad1
	xorq	rijndael_dec_im_tab+4096(%rbx), %r13
	movl	$185, %esi
	movl	$8, %edx
	movq	%r15, %rdi
	callq	_KLoad0
	movq	72(%r12,%r14), %rbx
	shrq	$21, %rbx
	andq	$2040, %rbx             # imm = 0x7F8
	leaq	rijndael_dec_im_tab+6144(%rbx), %rdi
	movl	$186, %esi
	movl	$187, %edx
	movl	$8, %ecx
	callq	_KLoad1
	xorq	rijndael_dec_im_tab+6144(%rbx), %r13
	movl	$1, 32(%rsp)
	movl	$186, 24(%rsp)
	movl	$2, 16(%rsp)
	movl	$183, 8(%rsp)
	movl	$3, (%rsp)
	movl	$188, %edi
	movl	$148, %esi
	movl	$3, %edx
	movl	$177, %ecx
	movl	$3, %r8d
	movl	$180, %r9d
	callq	_KTimestamp5
	movq	-48(%rbp), %rbx         # 8-byte Reload
	leaq	520(%r12,%rbx), %rsi
	movl	$188, %edi
	movl	$8, %edx
	callq	_KStore
	movq	%r13, 520(%r12,%rbx)
	movl	$221, %ebx
	movl	$221, %edi
	movl	$149, %esi
	movl	$1, %edx
	movl	$148, %ecx
	movl	$1, %r8d
	callq	_KTimestamp2
	movl	$220, -80(%rbp)         # 4-byte Folded Spill
	movl	$220, %edi
	movl	$218, %esi
	xorl	%edx, %edx
	movl	$148, %ecx
	xorl	%r8d, %r8d
	callq	_KTimestamp2
	movl	$217, -88(%rbp)         # 4-byte Folded Spill
	movl	$217, %edi
	movl	$215, %esi
	xorl	%edx, %edx
	movl	$148, %ecx
	xorl	%r8d, %r8d
	callq	_KTimestamp2
	callq	_KPopCDep
	movl	$2, %esi
	movabsq	$7659613813464425220, %rdi # imm = 0x6A4C6A2E5438E304
	callq	_KExitRegion
	movq	-104(%rbp), %r14        # 8-byte Reload
	movq	-96(%rbp), %r13         # 8-byte Reload
.Ltmp72:
.LBB0_25:                               # %for.cond
                                        # =>This Inner Loop Header: Depth=1
	#DEBUG_VALUE: rijndael_dec_set_key:cx <- R12
	#DEBUG_VALUE: rijndael_dec_set_key:rci <- 0
	#DEBUG_VALUE: i <- 1
	movl	$147, %edi
	callq	_KPushCDep
	movl	$149, %edi
	movl	$147, %edx
	movl	%ebx, %esi
	movq	-72(%rbp), %rbx         # 8-byte Reload
	movl	%ebx, %ecx
	callq	_KPhi2To1
	movl	$218, %edi
	movl	$147, %edx
	movl	-80(%rbp), %esi         # 4-byte Reload
	movl	%ebx, %ecx
	callq	_KPhi2To1
	movl	$215, %edi
	movl	$147, %edx
	movl	-88(%rbp), %esi         # 4-byte Reload
	movl	%ebx, %ecx
	callq	_KPhi2To1
	movl	$5, %edi
	callq	_KWork
	movl	$133, %esi
	movl	$8, %edx
	movq	-112(%rbp), %rdi        # 8-byte Reload
	callq	_KLoad0
	.loc	3 145 5                 # aes.c:145:5
	movq	8(%r12), %rbx
	movl	$1, (%rsp)
	movl	$148, %edi
	movl	$147, %esi
	movl	$1, %edx
	movl	$149, %ecx
	movl	$1, %r8d
	movl	$133, %r9d
	callq	_KTimestamp3
	movl	$149, %edi
	movl	$148, %esi
	callq	_KPhiAddCond
	movl	$149, %edi
	movl	$149, %esi
	xorl	%edx, %edx
	callq	_KTimestamp1
	movl	$218, %edi
	movl	$148, %esi
	callq	_KPhiAddCond
	movl	$218, %edi
	movl	$218, %esi
	xorl	%edx, %edx
	callq	_KTimestamp1
	movl	$215, %edi
	movl	$148, %esi
	callq	_KPhiAddCond
	movl	$215, %edi
	movl	$215, %esi
	xorl	%edx, %edx
	callq	_KTimestamp1
	callq	_KPopCDep
	movq	-64(%rbp), %r15         # 8-byte Reload
	.loc	3 145 18 is_stmt 0      # aes.c:145:18
.Ltmp73:
	incq	%r15
.Ltmp74:
	.loc	3 145 5                 # aes.c:145:5
	movq	%r15, -64(%rbp)         # 8-byte Spill
	cmpq	%rbx, %r15
	leaq	48(%r12,%r13), %r15
	leaq	496(%r12,%r14), %rcx
	jb	.LBB0_26
.Ltmp75:
# BB#27:                                # %for.cond.pre_exit.do.body362
	#DEBUG_VALUE: rijndael_dec_set_key:rci <- 0
	#DEBUG_VALUE: i <- 1
	movq	%rcx, %rbx
	movl	$1, %esi
	movabsq	$-8983292378539754914, %rdi # imm = 0x8354EF2D5FA9FA5E
	callq	_KExitRegion
	movl	$147, %edi
	callq	_KPushCDep
	movl	$20, %edi
	callq	_KWork
	.loc	3 150 5 is_stmt 1 discriminator 1 # aes.c:150:5
.Ltmp76:
	leaq	8(%r15), %r12
.Ltmp77:
	#DEBUG_VALUE: rijndael_dec_set_key:kf <- R12
	movl	$189, %esi
	movl	$8, %edx
	movq	%r15, %rdi
	callq	_KLoad0
	movq	(%r15), %r14
	leaq	8(%rbx), %rax
.Ltmp78:
	#DEBUG_VALUE: rijndael_dec_set_key:kt <- [RBP+-48]
	movq	%rax, -48(%rbp)         # 8-byte Spill
	movl	$189, %edi
	movl	$189, %esi
	xorl	%edx, %edx
	callq	_KTimestamp1
	movl	$189, %edi
	movl	$8, %edx
	movq	%rbx, %rsi
	callq	_KStore
	movq	%r14, (%rbx)
	leaq	16(%r15), %r13
.Ltmp79:
	#DEBUG_VALUE: rijndael_dec_set_key:kf <- R13
	movl	$190, %esi
	movl	$8, %edx
	movq	%r12, %rdi
	callq	_KLoad0
	movq	8(%r15), %r14
	leaq	16(%rbx), %rax
.Ltmp80:
	#DEBUG_VALUE: rijndael_dec_set_key:kt <- [RBP+-56]
	movq	%rax, -56(%rbp)         # 8-byte Spill
	movl	$190, %edi
	movl	$190, %esi
	xorl	%edx, %edx
	callq	_KTimestamp1
	movl	$190, %edi
	movl	$8, %edx
	movq	-48(%rbp), %rsi         # 8-byte Reload
	callq	_KStore
	movq	%r14, 8(%rbx)
	leaq	24(%r15), %r12
.Ltmp81:
	#DEBUG_VALUE: rijndael_dec_set_key:kf <- R12
	movl	$191, %esi
	movl	$8, %edx
	movq	%r13, %rdi
	callq	_KLoad0
	movq	16(%r15), %r14
	leaq	24(%rbx), %r13
.Ltmp82:
	#DEBUG_VALUE: rijndael_dec_set_key:kt <- R13
	movl	$191, %edi
	movl	$191, %esi
	xorl	%edx, %edx
	callq	_KTimestamp1
	movl	$191, %edi
	movl	$8, %edx
	movq	-56(%rbp), %rsi         # 8-byte Reload
	callq	_KStore
	movq	%r14, 16(%rbx)
	movl	$192, %esi
	movl	$8, %edx
	movq	%r12, %rdi
	callq	_KLoad0
	movq	24(%r15), %r14
	movl	$192, %edi
	movl	$192, %esi
	xorl	%edx, %edx
	callq	_KTimestamp1
	movl	$192, %edi
	movl	$8, %edx
	movq	%r13, %rsi
	callq	_KStore
	movq	%r14, 24(%rbx)
	callq	_KPopCDep
	movabsq	$-4163276842297086825, %r13 # imm = 0xC63911C51945AC97
.Ltmp83:
	movq	%r13, %r12
.Ltmp84:
	movl	$198, %r15d
.Ltmp85:
.LBB0_28:                               # %if.end373
	#DEBUG_VALUE: rijndael_dec_set_key:rci <- 0
	movl	$198, %edi
	callq	_KPushCDep
	callq	_KPopCDep
	movw	$1, %r14w
	xorl	%ebx, %ebx
.LBB0_29:                               # %return
	movl	$193, %edi
	movl	$197, %edx
	movl	%ebx, %esi
	movl	%r15d, %ecx
	callq	_KPhi2To1
	movl	$193, %edi
	movl	$193, %esi
	xorl	%edx, %edx
	callq	_KTimestamp1
	movl	$193, %edi
	callq	_KReturn
	xorl	%esi, %esi
	movq	%r12, %rdi
	callq	_KExitRegion
	.loc	3 154 1                 # aes.c:154:1
	movswl	%r14w, %eax
	addq	$184, %rsp
	popq	%rbx
	popq	%r12
	popq	%r13
	popq	%r14
	popq	%r15
	popq	%rbp
	retq
.Ltmp86:
.Ltmp87:
	.size	rijndael_dec_set_key, .Ltmp87-rijndael_dec_set_key
.Lfunc_end0:
	.cfi_endproc

	.globl	rijndael_dec_decrypt
	.align	16, 0x90
	.type	rijndael_dec_decrypt,@function
rijndael_dec_decrypt:                   # @rijndael_dec_decrypt
.Lfunc_begin1:
	.loc	3 158 0                 # aes.c:158:0
	.cfi_startproc
# BB#0:                                 # %entry
	pushq	%rbp
.Ltmp88:
	.cfi_def_cfa_offset 16
.Ltmp89:
	.cfi_offset %rbp, -16
	movq	%rsp, %rbp
.Ltmp90:
	.cfi_def_cfa_register %rbp
	pushq	%r15
	pushq	%r14
	pushq	%r13
	pushq	%r12
	pushq	%rbx
	subq	$280, %rsp              # imm = 0x118
.Ltmp91:
	.cfi_offset %rbx, -56
.Ltmp92:
	.cfi_offset %r12, -48
.Ltmp93:
	.cfi_offset %r13, -40
.Ltmp94:
	.cfi_offset %r14, -32
.Ltmp95:
	.cfi_offset %r15, -24
	#DEBUG_VALUE: rijndael_dec_decrypt:in_blk <- RDI
	#DEBUG_VALUE: rijndael_dec_decrypt:out_blk <- RSI
	#DEBUG_VALUE: rijndael_dec_decrypt:cx <- RDX
	movq	%rdx, %r14
.Ltmp96:
	#DEBUG_VALUE: rijndael_dec_decrypt:cx <- R14
	movq	%rsi, %r15
.Ltmp97:
	#DEBUG_VALUE: rijndael_dec_decrypt:out_blk <- R15
	movq	%rdi, %r12
.Ltmp98:
	#DEBUG_VALUE: rijndael_dec_decrypt:in_blk <- R12
	movabsq	$-8262840961745842078, %r13 # imm = 0x8D547DEC77979062
	xorl	%esi, %esi
	movq	%r13, %rdi
	callq	_KEnterRegion
	movl	$811, %edi              # imm = 0x32B
	xorl	%esi, %esi
	callq	_KPrepRTable
	movl	$6, %edi
	callq	_KWork
	.loc	3 160 11 prologue_end   # aes.c:160:11
.Ltmp99:
	leaq	1040(%r14), %rdi
	movl	$1, %esi
	movl	$1, %edx
	callq	_KLoad0
	movb	1040(%r14), %bl
	movl	$808, %edi              # imm = 0x328
	movl	$1, %esi
	movl	$2, %edx
	callq	_KTimestamp1
	movl	$808, %edi              # imm = 0x328
	callq	_KPushCDep
.Ltmp100:
	.loc	3 160 8 is_stmt 0       # aes.c:160:8
	testb	$2, %bl
	je	.LBB1_1
.Ltmp101:
# BB#2:                                 # %if.end
	#DEBUG_VALUE: rijndael_dec_decrypt:in_blk <- R12
	#DEBUG_VALUE: rijndael_dec_decrypt:out_blk <- R15
	#DEBUG_VALUE: rijndael_dec_decrypt:cx <- R14
	movq	%r15, -168(%rbp)        # 8-byte Spill
.Ltmp102:
	#DEBUG_VALUE: rijndael_dec_decrypt:out_blk <- [RBP+-168]
	.loc	3 159 29 is_stmt 1      # aes.c:159:29
	leaq	528(%r14), %r15
.Ltmp103:
	#DEBUG_VALUE: rijndael_dec_decrypt:kp <- R15
	movl	$44, %edi
	callq	_KWork
.Ltmp104:
	#DEBUG_VALUE: rijndael_dec_decrypt:b0 <- [RBP+-80]
	movl	$2, %esi
	movl	$8, %edx
	movq	%r12, %rdi
	callq	_KLoad0
	.loc	3 163 11                # aes.c:163:11
	movq	(%r12), %rbx
	movl	$3, %esi
	movl	$8, %edx
	movq	%r15, %rdi
	callq	_KLoad0
	xorq	528(%r14), %rbx
	movl	$1, (%rsp)
	movl	$4, %edi
	movl	$1, %esi
	movl	$3, %edx
	movl	$2, %ecx
	movl	$1, %r8d
	movl	$3, %r9d
	callq	_KTimestamp3
	leaq	-80(%rbp), %rsi
	movl	$4, %edi
	movl	$8, %edx
	callq	_KStore
	.loc	3 163 3 is_stmt 0       # aes.c:163:3
	movq	%rbx, -80(%rbp)
	.loc	3 164 33 is_stmt 1      # aes.c:164:33
	leaq	4(%r12), %rdi
	movl	$5, %esi
	movl	$8, %edx
	callq	_KLoad0
	.loc	3 164 11 is_stmt 0      # aes.c:164:11
	movq	4(%r12), %rbx
	.loc	3 164 46                # aes.c:164:46
	leaq	536(%r14), %rdi
	movl	$6, %esi
	movl	$8, %edx
	callq	_KLoad0
	.loc	3 164 11                # aes.c:164:11
	xorq	536(%r14), %rbx
	.loc	3 164 3                 # aes.c:164:3
	leaq	-72(%rbp), %r15
.Ltmp105:
	movl	$1, (%rsp)
	movl	$7, %edi
	movl	$1, %esi
	movl	$3, %edx
	movl	$5, %ecx
	movl	$1, %r8d
	movl	$6, %r9d
	callq	_KTimestamp3
	movl	$7, %edi
	movl	$8, %edx
	movq	%r15, %rsi
	callq	_KStore
	movq	%rbx, -72(%rbp)
	.loc	3 165 33 is_stmt 1      # aes.c:165:33
	leaq	8(%r12), %rdi
	movl	$8, %esi
	movl	$8, %edx
	callq	_KLoad0
	.loc	3 165 11 is_stmt 0      # aes.c:165:11
	movq	8(%r12), %rbx
	.loc	3 165 46                # aes.c:165:46
	leaq	544(%r14), %rdi
	movl	$9, %esi
	movl	$8, %edx
	callq	_KLoad0
	.loc	3 165 11                # aes.c:165:11
	xorq	544(%r14), %rbx
	.loc	3 165 3                 # aes.c:165:3
	leaq	-64(%rbp), %r15
	movl	$1, (%rsp)
	movl	$10, %edi
	movl	$1, %esi
	movl	$3, %edx
	movl	$8, %ecx
	movl	$1, %r8d
	movl	$9, %r9d
	callq	_KTimestamp3
	movl	$10, %edi
	movl	$8, %edx
	movq	%r15, %rsi
	callq	_KStore
	movq	%rbx, -64(%rbp)
	.loc	3 166 33 is_stmt 1      # aes.c:166:33
	leaq	12(%r12), %rdi
	movl	$11, %esi
	movl	$8, %edx
	callq	_KLoad0
	.loc	3 166 11 is_stmt 0      # aes.c:166:11
	movq	12(%r12), %r12
.Ltmp106:
	.loc	3 166 47                # aes.c:166:47
	leaq	552(%r14), %rdi
	movl	$12, %esi
	movl	$8, %edx
	callq	_KLoad0
	.loc	3 166 11                # aes.c:166:11
	xorq	552(%r14), %r12
	.loc	3 166 3                 # aes.c:166:3
	leaq	-56(%rbp), %r15
	movl	$1, (%rsp)
	movl	$13, %edi
	movl	$1, %esi
	movl	$3, %edx
	movl	$11, %ecx
	movl	$1, %r8d
	movl	$12, %r9d
	callq	_KTimestamp3
	movl	$13, %edi
	movl	$8, %edx
	movq	%r15, %rsi
	movq	%r14, %rbx
.Ltmp107:
	#DEBUG_VALUE: rijndael_dec_decrypt:cx <- RBX
	movq	%rbx, -120(%rbp)        # 8-byte Spill
	movq	%r15, %r14
	callq	_KStore
	movq	%r12, -56(%rbp)
	.loc	3 167 3 is_stmt 1       # aes.c:167:3
	leaq	560(%rbx), %r15
.Ltmp108:
	#DEBUG_VALUE: rijndael_dec_decrypt:b1 <- [RBP+-112]
	#DEBUG_VALUE: rijndael_dec_decrypt:kp <- R15
	.loc	3 169 12                # aes.c:169:12
	leaq	8(%rbx), %rdi
	movl	$14, %esi
	movl	$8, %edx
	callq	_KLoad0
	movq	8(%rbx), %rbx
.Ltmp109:
	#DEBUG_VALUE: rijndael_dec_decrypt:cx <- [RBP+-120]
	movl	$14, %edi
	movl	$14, %esi
	xorl	%edx, %edx
	callq	_KTimestamp1
	movl	$805, %r12d             # imm = 0x325
	movl	$805, %edi              # imm = 0x325
	movl	$806, %esi              # imm = 0x326
	xorl	%edx, %edx
	movl	$1, %ecx
	movl	$2, %r8d
	callq	_KTimestamp2
	callq	_KPopCDep
	.loc	3 169 3 is_stmt 0       # aes.c:169:3
	cmpq	$10, %rbx
	je	.LBB1_6
.Ltmp110:
# BB#3:                                 # %if.end
	#DEBUG_VALUE: rijndael_dec_decrypt:out_blk <- [RBP+-168]
	#DEBUG_VALUE: rijndael_dec_decrypt:cx <- [RBP+-120]
	#DEBUG_VALUE: rijndael_dec_decrypt:kp <- R15
	#DEBUG_VALUE: rijndael_dec_decrypt:b0 <- [RBP+-80]
	#DEBUG_VALUE: rijndael_dec_decrypt:b1 <- [RBP+-112]
	cmpq	$14, %rbx
	jne	.LBB1_4
.Ltmp111:
# BB#7:                                 # %sw.bb
	#DEBUG_VALUE: rijndael_dec_decrypt:out_blk <- [RBP+-168]
	#DEBUG_VALUE: rijndael_dec_decrypt:cx <- [RBP+-120]
	#DEBUG_VALUE: rijndael_dec_decrypt:kp <- R15
	#DEBUG_VALUE: rijndael_dec_decrypt:b0 <- [RBP+-80]
	#DEBUG_VALUE: rijndael_dec_decrypt:b1 <- [RBP+-112]
	movl	$14, %edi
	callq	_KPushCDep
	movl	$352, %edi              # imm = 0x160
	callq	_KWork
	movl	$15, %esi
	movl	$8, %edx
	movq	%r15, %rdi
	callq	_KLoad0
	.loc	3 171 15 is_stmt 1      # aes.c:171:15
.Ltmp112:
	movq	-120(%rbp), %rax        # 8-byte Reload
.Ltmp113:
	#DEBUG_VALUE: rijndael_dec_decrypt:cx <- undef
	movq	560(%rax), %r12
	leaq	-80(%rbp), %rdi
	movl	$16, %esi
	movl	$8, %edx
	callq	_KLoad0
	.loc	3 171 67 is_stmt 0      # aes.c:171:67
	movzbl	-80(%rbp), %r15d
.Ltmp114:
	.loc	3 171 25                # aes.c:171:25
	leaq	rijndael_dec_it_tab(,%r15,8), %rdi
	movl	$17, %esi
	movl	$18, %edx
	movl	$8, %ecx
	callq	_KLoad1
	movl	$19, %esi
	movl	$8, %edx
.Ltmp115:
	#DEBUG_VALUE: rijndael_dec_decrypt:cx <- [RBP+-120]
	movq	%r14, %rdi
	callq	_KLoad0
	.loc	3 172 69 is_stmt 1      # aes.c:172:69
	movq	-56(%rbp), %rax
	.loc	3 172 25 is_stmt 0      # aes.c:172:25
	movzbl	%ah, %eax  # NOREX
	movq	%rax, -128(%rbp)        # 8-byte Spill
	leaq	rijndael_dec_it_tab+2048(,%rax,8), %rdi
	movl	$20, %esi
	movl	$21, %edx
	movl	$8, %ecx
	callq	_KLoad1
	movl	$22, %esi
	movl	$8, %edx
.Ltmp116:
	.loc	3 165 3 is_stmt 1       # aes.c:165:3
	leaq	-64(%rbp), %rax
	movq	%rax, %rdi
	callq	_KLoad0
	.loc	3 173 69                # aes.c:173:69
.Ltmp117:
	movq	-64(%rbp), %r13
	shrq	$13, %r13
	.loc	3 173 25 is_stmt 0      # aes.c:173:25
	andq	$2040, %r13             # imm = 0x7F8
	leaq	rijndael_dec_it_tab+4096(%r13), %rdi
	movl	$23, %esi
	movl	$24, %edx
	movl	$8, %ecx
	callq	_KLoad1
	movl	$25, %esi
	movl	$8, %edx
.Ltmp118:
	.loc	3 164 3 is_stmt 1       # aes.c:164:3
	leaq	-72(%rbp), %r14
	movq	%r14, %rdi
	callq	_KLoad0
	.loc	3 174 69                # aes.c:174:69
.Ltmp119:
	movq	-72(%rbp), %rbx
	shrq	$21, %rbx
	.loc	3 174 25 is_stmt 0      # aes.c:174:25
	andq	$2040, %rbx             # imm = 0x7F8
	leaq	rijndael_dec_it_tab+6144(%rbx), %rdi
	movl	$26, %esi
	movl	$27, %edx
	movl	$8, %ecx
	callq	_KLoad1
	.loc	3 171 25 is_stmt 1      # aes.c:171:25
	xorq	rijndael_dec_it_tab(,%r15,8), %r12
	movq	-128(%rbp), %rax        # 8-byte Reload
	xorq	rijndael_dec_it_tab+2048(,%rax,8), %r12
	xorq	rijndael_dec_it_tab+4096(%r13), %r12
	.loc	3 171 15 is_stmt 0      # aes.c:171:15
	xorq	rijndael_dec_it_tab+6144(%rbx), %r12
	leaq	-112(%rbp), %rax
	movq	%rax, -136(%rbp)        # 8-byte Spill
	movq	%rax, %rbx
	movl	$3, 48(%rsp)
	movl	$23, 40(%rsp)
	movl	$4, 32(%rsp)
	movl	$20, 24(%rsp)
	movl	$4, 16(%rsp)
	movl	$17, 8(%rsp)
	movl	$1, (%rsp)
	movl	$28, %edi
	movl	$26, %esi
	movl	$2, %edx
	movl	$14, %ecx
	movl	$4, %r8d
	movl	$15, %r9d
	callq	_KTimestamp6
	movl	$28, %edi
	movl	$8, %edx
	movq	%rbx, %rsi
	callq	_KStore
	.loc	3 171 7                 # aes.c:171:7
	movq	%r12, -112(%rbp)
	movq	-120(%rbp), %rbx        # 8-byte Reload
.Ltmp120:
	#DEBUG_VALUE: rijndael_dec_decrypt:cx <- RBX
	.loc	3 175 15 is_stmt 1      # aes.c:175:15
	leaq	568(%rbx), %rdi
	movl	$29, %esi
	movl	$8, %edx
	callq	_KLoad0
	movq	568(%rbx), %r12
.Ltmp121:
	#DEBUG_VALUE: rijndael_dec_decrypt:cx <- [RBP+-120]
	movl	$30, %esi
	movl	$8, %edx
	movq	%r14, %rdi
	callq	_KLoad0
	.loc	3 175 67 is_stmt 0      # aes.c:175:67
	movzbl	-72(%rbp), %r15d
	.loc	3 175 25                # aes.c:175:25
	leaq	rijndael_dec_it_tab(,%r15,8), %rdi
	movl	$31, %esi
	movl	$32, %edx
	movl	$8, %ecx
	callq	_KLoad1
	movl	$33, %esi
	movl	$8, %edx
	leaq	-80(%rbp), %rdi
	callq	_KLoad0
	.loc	3 176 69 is_stmt 1      # aes.c:176:69
	movq	-80(%rbp), %rax
	.loc	3 176 25 is_stmt 0      # aes.c:176:25
	movzbl	%ah, %eax  # NOREX
	movq	%rax, -128(%rbp)        # 8-byte Spill
	leaq	rijndael_dec_it_tab+2048(,%rax,8), %rdi
	movl	$34, %esi
	movl	$35, %edx
	movl	$8, %ecx
	callq	_KLoad1
	movl	$36, %esi
	movl	$8, %edx
.Ltmp122:
	.loc	3 166 3 is_stmt 1       # aes.c:166:3
	leaq	-56(%rbp), %rdi
	callq	_KLoad0
	.loc	3 177 69                # aes.c:177:69
.Ltmp123:
	movq	-56(%rbp), %r13
	shrq	$13, %r13
	.loc	3 177 25 is_stmt 0      # aes.c:177:25
	andq	$2040, %r13             # imm = 0x7F8
	leaq	rijndael_dec_it_tab+4096(%r13), %rdi
	movl	$37, %esi
	movl	$38, %edx
	movl	$8, %ecx
	callq	_KLoad1
	movl	$39, %esi
	movl	$8, %edx
.Ltmp124:
	.loc	3 165 3 is_stmt 1       # aes.c:165:3
	leaq	-64(%rbp), %rdi
	movq	%rdi, %r14
	callq	_KLoad0
	.loc	3 178 69                # aes.c:178:69
.Ltmp125:
	movq	-64(%rbp), %rbx
	shrq	$21, %rbx
	.loc	3 178 25 is_stmt 0      # aes.c:178:25
	andq	$2040, %rbx             # imm = 0x7F8
	leaq	rijndael_dec_it_tab+6144(%rbx), %rdi
	movl	$40, %esi
	movl	$41, %edx
	movl	$8, %ecx
	callq	_KLoad1
	.loc	3 175 25 is_stmt 1      # aes.c:175:25
	xorq	rijndael_dec_it_tab(,%r15,8), %r12
	movq	-128(%rbp), %rax        # 8-byte Reload
	xorq	rijndael_dec_it_tab+2048(,%rax,8), %r12
	xorq	rijndael_dec_it_tab+4096(%r13), %r12
	.loc	3 175 15 is_stmt 0      # aes.c:175:15
	xorq	rijndael_dec_it_tab+6144(%rbx), %r12
	.loc	3 175 7                 # aes.c:175:7
	leaq	-104(%rbp), %rax
	movq	%rax, -144(%rbp)        # 8-byte Spill
	movq	%rax, %rbx
	movl	$2, 48(%rsp)
	movl	$40, 40(%rsp)
	movl	$3, 32(%rsp)
	movl	$37, 24(%rsp)
	movl	$4, 16(%rsp)
	movl	$34, 8(%rsp)
	movl	$4, (%rsp)
	movl	$42, %edi
	movl	$29, %esi
	movl	$1, %edx
	movl	$14, %ecx
	movl	$4, %r8d
	movl	$31, %r9d
	callq	_KTimestamp6
	movl	$42, %edi
	movl	$8, %edx
	movq	%rbx, %rsi
	callq	_KStore
	movq	%r12, -104(%rbp)
	movq	-120(%rbp), %rbx        # 8-byte Reload
.Ltmp126:
	#DEBUG_VALUE: rijndael_dec_decrypt:cx <- RBX
	.loc	3 179 15 is_stmt 1      # aes.c:179:15
	leaq	576(%rbx), %rdi
	movl	$43, %esi
	movl	$8, %edx
	callq	_KLoad0
	movq	576(%rbx), %r12
.Ltmp127:
	#DEBUG_VALUE: rijndael_dec_decrypt:cx <- [RBP+-120]
	movl	$44, %esi
	movl	$8, %edx
	movq	%r14, %rdi
	callq	_KLoad0
	.loc	3 179 67 is_stmt 0      # aes.c:179:67
	movzbl	-64(%rbp), %r15d
	.loc	3 179 25                # aes.c:179:25
	leaq	rijndael_dec_it_tab(,%r15,8), %rdi
	movl	$45, %esi
	movl	$46, %edx
	movl	$8, %ecx
	callq	_KLoad1
	movl	$47, %esi
	movl	$8, %edx
.Ltmp128:
	.loc	3 164 3 is_stmt 1       # aes.c:164:3
	leaq	-72(%rbp), %rdi
	callq	_KLoad0
	.loc	3 180 69                # aes.c:180:69
.Ltmp129:
	movq	-72(%rbp), %rax
	.loc	3 180 25 is_stmt 0      # aes.c:180:25
	movzbl	%ah, %eax  # NOREX
	movq	%rax, -128(%rbp)        # 8-byte Spill
	leaq	rijndael_dec_it_tab+2048(,%rax,8), %rdi
	movl	$48, %esi
	movl	$49, %edx
	movl	$8, %ecx
	callq	_KLoad1
	movl	$50, %esi
	movl	$8, %edx
	leaq	-80(%rbp), %rdi
	callq	_KLoad0
	.loc	3 181 69 is_stmt 1      # aes.c:181:69
	movq	-80(%rbp), %r13
	shrq	$13, %r13
	.loc	3 181 25 is_stmt 0      # aes.c:181:25
	andq	$2040, %r13             # imm = 0x7F8
	leaq	rijndael_dec_it_tab+4096(%r13), %rdi
	movl	$51, %esi
	movl	$52, %edx
	movl	$8, %ecx
	callq	_KLoad1
	movl	$53, %esi
	movl	$8, %edx
.Ltmp130:
	.loc	3 166 3 is_stmt 1       # aes.c:166:3
	leaq	-56(%rbp), %r14
	movq	%r14, %rdi
	callq	_KLoad0
	.loc	3 182 69                # aes.c:182:69
.Ltmp131:
	movq	-56(%rbp), %rbx
	shrq	$21, %rbx
	.loc	3 182 25 is_stmt 0      # aes.c:182:25
	andq	$2040, %rbx             # imm = 0x7F8
	leaq	rijndael_dec_it_tab+6144(%rbx), %rdi
	movl	$54, %esi
	movl	$55, %edx
	movl	$8, %ecx
	callq	_KLoad1
	.loc	3 179 25 is_stmt 1      # aes.c:179:25
	xorq	rijndael_dec_it_tab(,%r15,8), %r12
	movq	-128(%rbp), %rax        # 8-byte Reload
	xorq	rijndael_dec_it_tab+2048(,%rax,8), %r12
	xorq	rijndael_dec_it_tab+4096(%r13), %r12
	.loc	3 179 15 is_stmt 0      # aes.c:179:15
	xorq	rijndael_dec_it_tab+6144(%rbx), %r12
	.loc	3 179 7                 # aes.c:179:7
	leaq	-96(%rbp), %rax
	movq	%rax, -152(%rbp)        # 8-byte Spill
	movq	%rax, %rbx
	movl	$2, 48(%rsp)
	movl	$54, 40(%rsp)
	movl	$3, 32(%rsp)
	movl	$51, 24(%rsp)
	movl	$4, 16(%rsp)
	movl	$48, 8(%rsp)
	movl	$4, (%rsp)
	movl	$56, %edi
	movl	$14, %esi
	movl	$4, %edx
	movl	$43, %ecx
	movl	$1, %r8d
	movl	$45, %r9d
	callq	_KTimestamp6
	movl	$56, %edi
	movl	$8, %edx
	movq	%rbx, %rsi
	callq	_KStore
	movq	%r12, -96(%rbp)
	movq	-120(%rbp), %rbx        # 8-byte Reload
.Ltmp132:
	#DEBUG_VALUE: rijndael_dec_decrypt:cx <- RBX
	.loc	3 183 15 is_stmt 1      # aes.c:183:15
	leaq	584(%rbx), %rdi
	movl	$57, %esi
	movl	$8, %edx
	callq	_KLoad0
	movq	584(%rbx), %r12
.Ltmp133:
	#DEBUG_VALUE: rijndael_dec_decrypt:cx <- [RBP+-120]
	movl	$58, %esi
	movl	$8, %edx
	movq	%r14, %rdi
	callq	_KLoad0
	.loc	3 183 67 is_stmt 0      # aes.c:183:67
	movzbl	-56(%rbp), %r15d
	.loc	3 183 25                # aes.c:183:25
	leaq	rijndael_dec_it_tab(,%r15,8), %rdi
	movl	$59, %esi
	movl	$60, %edx
	movl	$8, %ecx
	callq	_KLoad1
	movl	$61, %esi
	movl	$8, %edx
.Ltmp134:
	.loc	3 165 3 is_stmt 1       # aes.c:165:3
	leaq	-64(%rbp), %rdi
	callq	_KLoad0
	.loc	3 184 69                # aes.c:184:69
.Ltmp135:
	movq	-64(%rbp), %rax
	.loc	3 184 25 is_stmt 0      # aes.c:184:25
	movzbl	%ah, %eax  # NOREX
	leaq	rijndael_dec_it_tab+2048(,%rax,8), %rdi
	movq	%rax, %r14
	movl	$62, %esi
	movl	$63, %edx
	movl	$8, %ecx
	callq	_KLoad1
	movl	$64, %esi
	movl	$8, %edx
.Ltmp136:
	.loc	3 164 3 is_stmt 1       # aes.c:164:3
	leaq	-72(%rbp), %rdi
	callq	_KLoad0
	.loc	3 185 69                # aes.c:185:69
.Ltmp137:
	movq	-72(%rbp), %r13
	shrq	$13, %r13
	.loc	3 185 25 is_stmt 0      # aes.c:185:25
	andq	$2040, %r13             # imm = 0x7F8
	leaq	rijndael_dec_it_tab+4096(%r13), %rdi
	movl	$65, %esi
	movl	$66, %edx
	movl	$8, %ecx
	callq	_KLoad1
	movl	$67, %esi
	movl	$8, %edx
	leaq	-80(%rbp), %rdi
	callq	_KLoad0
	.loc	3 186 69 is_stmt 1      # aes.c:186:69
	movq	-80(%rbp), %rbx
	shrq	$21, %rbx
	.loc	3 186 25 is_stmt 0      # aes.c:186:25
	andq	$2040, %rbx             # imm = 0x7F8
	leaq	rijndael_dec_it_tab+6144(%rbx), %rdi
	movl	$68, %esi
	movl	$69, %edx
	movl	$8, %ecx
	callq	_KLoad1
	.loc	3 183 25 is_stmt 1      # aes.c:183:25
	xorq	rijndael_dec_it_tab(,%r15,8), %r12
	xorq	rijndael_dec_it_tab+2048(,%r14,8), %r12
	xorq	rijndael_dec_it_tab+4096(%r13), %r12
	.loc	3 183 15 is_stmt 0      # aes.c:183:15
	xorq	rijndael_dec_it_tab+6144(%rbx), %r12
	.loc	3 183 7                 # aes.c:183:7
	leaq	-88(%rbp), %rax
	movq	%rax, -160(%rbp)        # 8-byte Spill
	movq	%rax, %rbx
	movl	$2, 48(%rsp)
	movl	$68, 40(%rsp)
	movl	$3, 32(%rsp)
	movl	$65, 24(%rsp)
	movl	$4, 16(%rsp)
	movl	$62, 8(%rsp)
	movl	$4, (%rsp)
	movl	$70, %edi
	movl	$14, %esi
	movl	$4, %edx
	movl	$57, %ecx
	movl	$1, %r8d
	movl	$59, %r9d
	callq	_KTimestamp6
	movl	$70, %edi
	movl	$8, %edx
	movq	%rbx, %rsi
	movq	%rbx, %r14
	callq	_KStore
	movq	%r12, -88(%rbp)
	movq	-120(%rbp), %rbx        # 8-byte Reload
.Ltmp138:
	#DEBUG_VALUE: rijndael_dec_decrypt:cx <- RBX
	.loc	3 187 17 is_stmt 1      # aes.c:187:17
	leaq	592(%rbx), %rdi
	movl	$71, %esi
	movl	$8, %edx
	callq	_KLoad0
	.loc	3 187 15 is_stmt 0      # aes.c:187:15
	movq	592(%rbx), %r12
.Ltmp139:
	#DEBUG_VALUE: rijndael_dec_decrypt:cx <- [RBP+-120]
	movl	$72, %esi
	movl	$8, %edx
	leaq	-112(%rbp), %rax
	movq	%rax, %rdi
	callq	_KLoad0
	.loc	3 187 75                # aes.c:187:75
	movzbl	-112(%rbp), %r15d
	.loc	3 187 33                # aes.c:187:33
	leaq	rijndael_dec_it_tab(,%r15,8), %rdi
	movl	$73, %esi
	movl	$74, %edx
	movl	$8, %ecx
	callq	_KLoad1
	movl	$75, %esi
	movl	$8, %edx
	movq	%r14, %rdi
	callq	_KLoad0
	.loc	3 188 77 is_stmt 1      # aes.c:188:77
	movq	-88(%rbp), %rax
	.loc	3 188 33 is_stmt 0      # aes.c:188:33
	movzbl	%ah, %eax  # NOREX
	movq	%rax, -128(%rbp)        # 8-byte Spill
	leaq	rijndael_dec_it_tab+2048(,%rax,8), %rdi
	movl	$76, %esi
	movl	$77, %edx
	movl	$8, %ecx
	callq	_KLoad1
	movl	$78, %esi
	movl	$8, %edx
	.loc	3 179 7 is_stmt 1       # aes.c:179:7
	leaq	-96(%rbp), %rdi
	callq	_KLoad0
	.loc	3 189 77                # aes.c:189:77
	movq	-96(%rbp), %r13
	shrq	$13, %r13
	.loc	3 189 33 is_stmt 0      # aes.c:189:33
	andq	$2040, %r13             # imm = 0x7F8
	leaq	rijndael_dec_it_tab+4096(%r13), %rdi
	movl	$79, %esi
	movl	$80, %edx
	movl	$8, %ecx
	callq	_KLoad1
	movl	$81, %esi
	movl	$8, %edx
	.loc	3 175 7 is_stmt 1       # aes.c:175:7
	leaq	-104(%rbp), %r14
	movq	%r14, %rdi
	callq	_KLoad0
	.loc	3 190 77                # aes.c:190:77
	movq	-104(%rbp), %rbx
	shrq	$21, %rbx
	.loc	3 190 33 is_stmt 0      # aes.c:190:33
	andq	$2040, %rbx             # imm = 0x7F8
	leaq	rijndael_dec_it_tab+6144(%rbx), %rdi
	movl	$82, %esi
	movl	$83, %edx
	movl	$8, %ecx
	callq	_KLoad1
	.loc	3 187 33 is_stmt 1      # aes.c:187:33
	xorq	rijndael_dec_it_tab(,%r15,8), %r12
	movq	-128(%rbp), %rax        # 8-byte Reload
	xorq	rijndael_dec_it_tab+2048(,%rax,8), %r12
	xorq	rijndael_dec_it_tab+4096(%r13), %r12
	.loc	3 187 15 is_stmt 0      # aes.c:187:15
	xorq	rijndael_dec_it_tab+6144(%rbx), %r12
	movl	$2, 48(%rsp)
	movl	$82, 40(%rsp)
	movl	$3, 32(%rsp)
	movl	$79, 24(%rsp)
	movl	$4, 16(%rsp)
	movl	$76, 8(%rsp)
	movl	$4, (%rsp)
	movl	$84, %edi
	movl	$14, %esi
	movl	$4, %edx
	movl	$71, %ecx
	movl	$1, %r8d
	movl	$73, %r9d
	callq	_KTimestamp6
	movl	$84, %edi
	movl	$8, %edx
	leaq	-80(%rbp), %rsi
	callq	_KStore
	.loc	3 187 7                 # aes.c:187:7
	movq	%r12, -80(%rbp)
	movq	-120(%rbp), %rbx        # 8-byte Reload
.Ltmp140:
	#DEBUG_VALUE: rijndael_dec_decrypt:cx <- RBX
	.loc	3 191 15 is_stmt 1      # aes.c:191:15
	leaq	600(%rbx), %rdi
	movl	$85, %esi
	movl	$8, %edx
	callq	_KLoad0
	movq	600(%rbx), %r12
.Ltmp141:
	#DEBUG_VALUE: rijndael_dec_decrypt:cx <- [RBP+-120]
	movl	$86, %esi
	movl	$8, %edx
	movq	%r14, %rdi
	callq	_KLoad0
	.loc	3 191 75 is_stmt 0      # aes.c:191:75
	movzbl	-104(%rbp), %r15d
	.loc	3 191 33                # aes.c:191:33
	leaq	rijndael_dec_it_tab(,%r15,8), %rdi
	movl	$87, %esi
	movl	$88, %edx
	movl	$8, %ecx
	callq	_KLoad1
	movl	$89, %esi
	movl	$8, %edx
	leaq	-112(%rbp), %rdi
	callq	_KLoad0
	.loc	3 192 77 is_stmt 1      # aes.c:192:77
	movq	-112(%rbp), %rax
	.loc	3 192 33 is_stmt 0      # aes.c:192:33
	movzbl	%ah, %eax  # NOREX
	movq	%rax, -128(%rbp)        # 8-byte Spill
	leaq	rijndael_dec_it_tab+2048(,%rax,8), %rdi
	movl	$90, %esi
	movl	$91, %edx
	movl	$8, %ecx
	callq	_KLoad1
	movl	$92, %esi
	movl	$8, %edx
	.loc	3 183 7 is_stmt 1       # aes.c:183:7
	leaq	-88(%rbp), %rdi
	callq	_KLoad0
	.loc	3 193 77                # aes.c:193:77
	movq	-88(%rbp), %r13
	shrq	$13, %r13
	.loc	3 193 33 is_stmt 0      # aes.c:193:33
	andq	$2040, %r13             # imm = 0x7F8
	leaq	rijndael_dec_it_tab+4096(%r13), %rdi
	movl	$93, %esi
	movl	$94, %edx
	movl	$8, %ecx
	callq	_KLoad1
	movl	$95, %esi
	movl	$8, %edx
	.loc	3 179 7 is_stmt 1       # aes.c:179:7
	leaq	-96(%rbp), %r14
	movq	%r14, %rdi
	callq	_KLoad0
	.loc	3 194 77                # aes.c:194:77
	movq	-96(%rbp), %rbx
	shrq	$21, %rbx
	.loc	3 194 33 is_stmt 0      # aes.c:194:33
	andq	$2040, %rbx             # imm = 0x7F8
	leaq	rijndael_dec_it_tab+6144(%rbx), %rdi
	movl	$96, %esi
	movl	$97, %edx
	movl	$8, %ecx
	callq	_KLoad1
	.loc	3 191 33 is_stmt 1      # aes.c:191:33
	xorq	rijndael_dec_it_tab(,%r15,8), %r12
	movq	-128(%rbp), %rax        # 8-byte Reload
	xorq	rijndael_dec_it_tab+2048(,%rax,8), %r12
	xorq	rijndael_dec_it_tab+4096(%r13), %r12
	.loc	3 191 15 is_stmt 0      # aes.c:191:15
	xorq	rijndael_dec_it_tab+6144(%rbx), %r12
	movl	$2, 48(%rsp)
	movl	$96, 40(%rsp)
	movl	$3, 32(%rsp)
	movl	$93, 24(%rsp)
	movl	$4, 16(%rsp)
	movl	$90, 8(%rsp)
	movl	$4, (%rsp)
	movl	$98, %edi
	movl	$14, %esi
	movl	$4, %edx
	movl	$85, %ecx
	movl	$1, %r8d
	movl	$87, %r9d
	callq	_KTimestamp6
	movl	$98, %edi
	movl	$8, %edx
.Ltmp142:
	.loc	3 164 3 is_stmt 1       # aes.c:164:3
	leaq	-72(%rbp), %rsi
	callq	_KStore
	.loc	3 191 7                 # aes.c:191:7
.Ltmp143:
	movq	%r12, -72(%rbp)
	movq	-120(%rbp), %rbx        # 8-byte Reload
.Ltmp144:
	#DEBUG_VALUE: rijndael_dec_decrypt:cx <- RBX
	.loc	3 195 15                # aes.c:195:15
	leaq	608(%rbx), %rdi
	movl	$99, %esi
	movl	$8, %edx
	callq	_KLoad0
	movq	608(%rbx), %r12
.Ltmp145:
	#DEBUG_VALUE: rijndael_dec_decrypt:cx <- [RBP+-120]
	movl	$100, %esi
	movl	$8, %edx
	movq	%r14, %rdi
	callq	_KLoad0
	.loc	3 195 75 is_stmt 0      # aes.c:195:75
	movzbl	-96(%rbp), %r15d
	.loc	3 195 33                # aes.c:195:33
	leaq	rijndael_dec_it_tab(,%r15,8), %rdi
	movl	$101, %esi
	movl	$102, %edx
	movl	$8, %ecx
	callq	_KLoad1
	movl	$103, %esi
	movl	$8, %edx
	.loc	3 175 7 is_stmt 1       # aes.c:175:7
	leaq	-104(%rbp), %rdi
	callq	_KLoad0
	.loc	3 196 77                # aes.c:196:77
	movq	-104(%rbp), %rax
	.loc	3 196 33 is_stmt 0      # aes.c:196:33
	movzbl	%ah, %eax  # NOREX
	movq	%rax, -128(%rbp)        # 8-byte Spill
	leaq	rijndael_dec_it_tab+2048(,%rax,8), %rdi
	movl	$104, %esi
	movl	$105, %edx
	movl	$8, %ecx
	callq	_KLoad1
	movl	$106, %esi
	movl	$8, %edx
	leaq	-112(%rbp), %rdi
	callq	_KLoad0
	.loc	3 197 77 is_stmt 1      # aes.c:197:77
	movq	-112(%rbp), %r13
	shrq	$13, %r13
	.loc	3 197 33 is_stmt 0      # aes.c:197:33
	andq	$2040, %r13             # imm = 0x7F8
	leaq	rijndael_dec_it_tab+4096(%r13), %rdi
	movl	$107, %esi
	movl	$108, %edx
	movl	$8, %ecx
	callq	_KLoad1
	movl	$109, %esi
	movl	$8, %edx
	.loc	3 183 7 is_stmt 1       # aes.c:183:7
	leaq	-88(%rbp), %r14
	movq	%r14, %rdi
	callq	_KLoad0
	.loc	3 198 77                # aes.c:198:77
	movq	-88(%rbp), %rbx
	shrq	$21, %rbx
	.loc	3 198 33 is_stmt 0      # aes.c:198:33
	andq	$2040, %rbx             # imm = 0x7F8
	leaq	rijndael_dec_it_tab+6144(%rbx), %rdi
	movl	$110, %esi
	movl	$111, %edx
	movl	$8, %ecx
	callq	_KLoad1
	.loc	3 195 33 is_stmt 1      # aes.c:195:33
	xorq	rijndael_dec_it_tab(,%r15,8), %r12
	movq	-128(%rbp), %rax        # 8-byte Reload
	xorq	rijndael_dec_it_tab+2048(,%rax,8), %r12
	xorq	rijndael_dec_it_tab+4096(%r13), %r12
	.loc	3 195 15 is_stmt 0      # aes.c:195:15
	xorq	rijndael_dec_it_tab+6144(%rbx), %r12
	movl	$2, 48(%rsp)
	movl	$110, 40(%rsp)
	movl	$3, 32(%rsp)
	movl	$107, 24(%rsp)
	movl	$4, 16(%rsp)
	movl	$104, 8(%rsp)
	movl	$4, (%rsp)
	movl	$112, %edi
	movl	$14, %esi
	movl	$4, %edx
	movl	$99, %ecx
	movl	$1, %r8d
	movl	$101, %r9d
	callq	_KTimestamp6
	movl	$112, %edi
	movl	$8, %edx
.Ltmp146:
	.loc	3 165 3 is_stmt 1       # aes.c:165:3
	leaq	-64(%rbp), %rsi
	callq	_KStore
	.loc	3 195 7                 # aes.c:195:7
.Ltmp147:
	movq	%r12, -64(%rbp)
	movq	-120(%rbp), %rbx        # 8-byte Reload
.Ltmp148:
	#DEBUG_VALUE: rijndael_dec_decrypt:cx <- RBX
	.loc	3 199 15                # aes.c:199:15
	leaq	616(%rbx), %rdi
	movl	$113, %esi
	movl	$8, %edx
	callq	_KLoad0
	movq	616(%rbx), %r12
.Ltmp149:
	#DEBUG_VALUE: rijndael_dec_decrypt:cx <- [RBP+-120]
	movl	$114, %esi
	movl	$8, %edx
	movq	%r14, %rdi
	callq	_KLoad0
	.loc	3 199 75 is_stmt 0      # aes.c:199:75
	movzbl	-88(%rbp), %r15d
	.loc	3 199 33                # aes.c:199:33
	leaq	rijndael_dec_it_tab(,%r15,8), %rdi
	movl	$115, %esi
	movl	$116, %edx
	movl	$8, %ecx
	callq	_KLoad1
	movl	$117, %esi
	movl	$8, %edx
	.loc	3 179 7 is_stmt 1       # aes.c:179:7
	leaq	-96(%rbp), %rdi
	callq	_KLoad0
	.loc	3 200 77                # aes.c:200:77
	movq	-96(%rbp), %rax
	.loc	3 200 33 is_stmt 0      # aes.c:200:33
	movzbl	%ah, %eax  # NOREX
	leaq	rijndael_dec_it_tab+2048(,%rax,8), %rdi
	movq	%rax, %r14
	movl	$118, %esi
	movl	$119, %edx
	movl	$8, %ecx
	callq	_KLoad1
	movl	$120, %esi
	movl	$8, %edx
	.loc	3 175 7 is_stmt 1       # aes.c:175:7
	leaq	-104(%rbp), %rdi
	callq	_KLoad0
	.loc	3 201 77                # aes.c:201:77
	movq	-104(%rbp), %r13
	shrq	$13, %r13
	.loc	3 201 33 is_stmt 0      # aes.c:201:33
	andq	$2040, %r13             # imm = 0x7F8
	leaq	rijndael_dec_it_tab+4096(%r13), %rdi
	movl	$121, %esi
	movl	$122, %edx
	movl	$8, %ecx
	callq	_KLoad1
	movl	$123, %esi
	movl	$8, %edx
	leaq	-112(%rbp), %rdi
	callq	_KLoad0
	.loc	3 202 77 is_stmt 1      # aes.c:202:77
	movq	-112(%rbp), %rbx
	shrq	$21, %rbx
	.loc	3 202 33 is_stmt 0      # aes.c:202:33
	andq	$2040, %rbx             # imm = 0x7F8
	leaq	rijndael_dec_it_tab+6144(%rbx), %rdi
	movl	$124, %esi
	movl	$125, %edx
	movl	$8, %ecx
	callq	_KLoad1
	.loc	3 199 33 is_stmt 1      # aes.c:199:33
	xorq	rijndael_dec_it_tab(,%r15,8), %r12
	xorq	rijndael_dec_it_tab+2048(,%r14,8), %r12
	xorq	rijndael_dec_it_tab+4096(%r13), %r12
.Ltmp150:
	.loc	3 166 3                 # aes.c:166:3
	leaq	-56(%rbp), %r13
	.loc	3 199 15                # aes.c:199:15
.Ltmp151:
	xorq	rijndael_dec_it_tab+6144(%rbx), %r12
	movl	$2, 48(%rsp)
	movl	$124, 40(%rsp)
	movl	$3, 32(%rsp)
	movl	$121, 24(%rsp)
	movl	$4, 16(%rsp)
	movl	$118, 8(%rsp)
	movl	$4, (%rsp)
	movl	$126, %edi
	movl	$14, %esi
	movl	$4, %edx
	movl	$113, %ecx
	movl	$1, %r8d
	movl	$115, %r9d
	callq	_KTimestamp6
	movl	$126, %edi
	movl	$8, %edx
	movq	%r13, %rsi
	callq	_KStore
	.loc	3 199 7 is_stmt 0       # aes.c:199:7
	movq	%r12, -56(%rbp)
	.loc	3 203 7 is_stmt 1       # aes.c:203:7
	movq	-120(%rbp), %rax        # 8-byte Reload
	leaq	624(%rax), %r15
.Ltmp152:
	#DEBUG_VALUE: rijndael_dec_decrypt:kp <- R15
	movl	$0, (%rsp)
	movl	$807, %r12d             # imm = 0x327
	movl	$807, %edi              # imm = 0x327
	movl	$806, %esi              # imm = 0x326
	xorl	%edx, %edx
	movl	$1, %ecx
	movl	$2, %r8d
	movl	$14, %r9d
	callq	_KTimestamp3
	callq	_KPopCDep
	movl	$20, %eax
	movq	%rax, -128(%rbp)        # 8-byte Spill
	movl	$19, %r8d
	movl	$18, %ecx
	movl	$17, %edx
	movl	$16, %esi
	movl	$15, %edi
	movl	$14, %ebx
	movl	$13, %eax
	jmp	.LBB1_8
.Ltmp153:
.LBB1_1:                                # %if.then
	callq	_KPopCDep
	xorl	%ebx, %ebx
	jmp	.LBB1_11
.LBB1_6:                                # %if.end.sw.bb423_crit_edge
	#DEBUG_VALUE: rijndael_dec_decrypt:out_blk <- [RBP+-168]
	#DEBUG_VALUE: rijndael_dec_decrypt:cx <- [RBP+-120]
.Ltmp154:
	#DEBUG_VALUE: rijndael_dec_decrypt:kp <- R15
	#DEBUG_VALUE: rijndael_dec_decrypt:b0 <- [RBP+-80]
	#DEBUG_VALUE: rijndael_dec_decrypt:b1 <- [RBP+-112]
	leaq	-112(%rbp), %rax
	.loc	3 243 7                 # aes.c:243:7
	movq	%rax, -136(%rbp)        # 8-byte Spill
	leaq	-104(%rbp), %rax
	.loc	3 247 7                 # aes.c:247:7
	movq	%rax, -144(%rbp)        # 8-byte Spill
	leaq	-96(%rbp), %rax
	.loc	3 251 7                 # aes.c:251:7
	movq	%rax, -152(%rbp)        # 8-byte Spill
	leaq	-88(%rbp), %rax
	movq	%rax, -160(%rbp)        # 8-byte Spill
	movl	$4, %eax
.Ltmp155:
	.loc	3 165 3                 # aes.c:165:3
	movq	%rax, -128(%rbp)        # 8-byte Spill
	leaq	-64(%rbp), %rax
	movq	%rax, %rbx
	movq	%r14, %r13
	jmp	.LBB1_9
.Ltmp156:
.LBB1_4:                                # %if.end
	#DEBUG_VALUE: rijndael_dec_decrypt:out_blk <- [RBP+-168]
	#DEBUG_VALUE: rijndael_dec_decrypt:cx <- [RBP+-120]
	#DEBUG_VALUE: rijndael_dec_decrypt:kp <- R15
	#DEBUG_VALUE: rijndael_dec_decrypt:b0 <- [RBP+-80]
	#DEBUG_VALUE: rijndael_dec_decrypt:b1 <- [RBP+-112]
	cmpq	$12, %rbx
	movq	%r14, %r12
	jne	.LBB1_10
.Ltmp157:
# BB#5:                                 # %if.end.sw.bb217_crit_edge
	#DEBUG_VALUE: rijndael_dec_decrypt:out_blk <- [RBP+-168]
	#DEBUG_VALUE: rijndael_dec_decrypt:cx <- [RBP+-120]
	#DEBUG_VALUE: rijndael_dec_decrypt:kp <- R15
	#DEBUG_VALUE: rijndael_dec_decrypt:b0 <- [RBP+-80]
	#DEBUG_VALUE: rijndael_dec_decrypt:b1 <- [RBP+-112]
	leaq	-112(%rbp), %rax
	.loc	3 209 7                 # aes.c:209:7
.Ltmp158:
	movq	%rax, -136(%rbp)        # 8-byte Spill
	leaq	-104(%rbp), %rax
	.loc	3 213 7                 # aes.c:213:7
	movq	%rax, -144(%rbp)        # 8-byte Spill
	leaq	-96(%rbp), %rax
	.loc	3 217 7                 # aes.c:217:7
	movq	%rax, -152(%rbp)        # 8-byte Spill
	leaq	-88(%rbp), %rax
	movq	%rax, -160(%rbp)        # 8-byte Spill
	movq	%r12, %r13
	movl	$805, %r12d             # imm = 0x325
	movl	$12, %eax
	movq	%rax, -128(%rbp)        # 8-byte Spill
	movl	$11, %r8d
	movl	$10, %ecx
	movl	$9, %edx
	movl	$8, %esi
	movl	$7, %edi
	movl	$6, %ebx
	movl	$5, %eax
.Ltmp159:
.LBB1_8:                                # %sw.bb217
	#DEBUG_VALUE: rijndael_dec_decrypt:out_blk <- [RBP+-168]
	#DEBUG_VALUE: rijndael_dec_decrypt:cx <- [RBP+-120]
	#DEBUG_VALUE: rijndael_dec_decrypt:b0 <- [RBP+-80]
	#DEBUG_VALUE: rijndael_dec_decrypt:b1 <- [RBP+-112]
	movq	%rax, -224(%rbp)        # 8-byte Spill
	movq	%rbx, -216(%rbp)        # 8-byte Spill
	movq	%rdi, -208(%rbp)        # 8-byte Spill
	movq	%rsi, -200(%rbp)        # 8-byte Spill
	movq	%rdx, -192(%rbp)        # 8-byte Spill
	movq	%rcx, -184(%rbp)        # 8-byte Spill
	movq	%r8, -176(%rbp)         # 8-byte Spill
	movl	$14, %edi
	callq	_KPushCDep
	movl	$804, %edi              # imm = 0x324
	movl	$808, %edx              # imm = 0x328
	movl	$14, %ecx
	movl	%r12d, %esi
	callq	_KPhi2To1
	movl	$352, %edi              # imm = 0x160
	callq	_KWork
	movl	$127, %esi
	movl	$8, %edx
	movq	%r15, %rdi
	callq	_KLoad0
	.loc	3 205 15                # aes.c:205:15
	movq	(%r15), %r12
	leaq	-80(%rbp), %rdi
	movl	$128, %esi
	movl	$8, %edx
	callq	_KLoad0
	.loc	3 205 67 is_stmt 0      # aes.c:205:67
	movzbl	-80(%rbp), %r14d
	.loc	3 205 25                # aes.c:205:25
	leaq	rijndael_dec_it_tab(,%r14,8), %rdi
	movl	$129, %esi
	movl	$130, %edx
	movl	$8, %ecx
	callq	_KLoad1
	movl	$131, %esi
	movl	$8, %edx
	movq	%r13, %rdi
	callq	_KLoad0
	.loc	3 206 69 is_stmt 1      # aes.c:206:69
	movq	-56(%rbp), %rax
	.loc	3 206 25 is_stmt 0      # aes.c:206:25
	movzbl	%ah, %eax  # NOREX
	movq	%rax, -232(%rbp)        # 8-byte Spill
	leaq	rijndael_dec_it_tab+2048(,%rax,8), %rdi
	movl	$132, %esi
	movl	$133, %edx
	movl	$8, %ecx
	callq	_KLoad1
	movl	$134, %esi
	movl	$8, %edx
.Ltmp160:
	.loc	3 165 3 is_stmt 1       # aes.c:165:3
	leaq	-64(%rbp), %rax
	movq	%rax, %rdi
	callq	_KLoad0
	.loc	3 207 69                # aes.c:207:69
.Ltmp161:
	movq	-64(%rbp), %rbx
	shrq	$13, %rbx
	.loc	3 207 25 is_stmt 0      # aes.c:207:25
	andq	$2040, %rbx             # imm = 0x7F8
	leaq	rijndael_dec_it_tab+4096(%rbx), %rdi
	movl	$135, %esi
	movl	$136, %edx
	movl	$8, %ecx
	callq	_KLoad1
	movl	$137, %esi
	movl	$8, %edx
.Ltmp162:
	.loc	3 164 3 is_stmt 1       # aes.c:164:3
	leaq	-72(%rbp), %r15
	movq	%r15, %rdi
	callq	_KLoad0
	.loc	3 208 69                # aes.c:208:69
.Ltmp163:
	movq	-72(%rbp), %r13
	shrq	$21, %r13
	.loc	3 208 25 is_stmt 0      # aes.c:208:25
	andq	$2040, %r13             # imm = 0x7F8
	leaq	rijndael_dec_it_tab+6144(%r13), %rdi
	movl	$138, %esi
	movl	$139, %edx
	movl	$8, %ecx
	callq	_KLoad1
	.loc	3 205 25 is_stmt 1      # aes.c:205:25
	xorq	rijndael_dec_it_tab(,%r14,8), %r12
	movq	-232(%rbp), %rax        # 8-byte Reload
	xorq	rijndael_dec_it_tab+2048(,%rax,8), %r12
	xorq	rijndael_dec_it_tab+4096(%rbx), %r12
	.loc	3 205 15 is_stmt 0      # aes.c:205:15
	xorq	rijndael_dec_it_tab+6144(%r13), %r12
	movl	$2, 48(%rsp)
	movl	$138, 40(%rsp)
	movl	$3, 32(%rsp)
	movl	$135, 24(%rsp)
	movl	$4, 16(%rsp)
	movl	$132, 8(%rsp)
	movl	$4, (%rsp)
	movl	$140, %edi
	movl	$14, %esi
	movl	$4, %edx
	movl	$127, %ecx
	movl	$1, %r8d
	movl	$129, %r9d
	callq	_KTimestamp6
	movl	$140, %edi
	movl	$8, %edx
	movq	-136(%rbp), %rsi        # 8-byte Reload
	callq	_KStore
	.loc	3 205 7                 # aes.c:205:7
	movq	%r12, -112(%rbp)
	movq	-120(%rbp), %rbx        # 8-byte Reload
.Ltmp164:
	#DEBUG_VALUE: rijndael_dec_decrypt:cx <- RBX
	movq	-224(%rbp), %r14        # 8-byte Reload
	.loc	3 209 15 is_stmt 1      # aes.c:209:15
	leaq	528(%rbx,%r14,8), %rdi
	movl	$141, %esi
	movl	$8, %edx
	callq	_KLoad0
	movq	528(%rbx,%r14,8), %r12
	movl	$142, %esi
	movl	$8, %edx
	movq	%r15, %rdi
	callq	_KLoad0
.Ltmp165:
	#DEBUG_VALUE: rijndael_dec_decrypt:cx <- [RBP+-120]
	.loc	3 209 67 is_stmt 0      # aes.c:209:67
	movzbl	-72(%rbp), %r14d
	.loc	3 209 25                # aes.c:209:25
	leaq	rijndael_dec_it_tab(,%r14,8), %rdi
	movl	$143, %esi
	movl	$144, %edx
	movl	$8, %ecx
	callq	_KLoad1
	movl	$145, %esi
	movl	$8, %edx
	leaq	-80(%rbp), %rdi
	callq	_KLoad0
	.loc	3 210 69 is_stmt 1      # aes.c:210:69
	movq	-80(%rbp), %rax
	.loc	3 210 25 is_stmt 0      # aes.c:210:25
	movzbl	%ah, %eax  # NOREX
	movq	%rax, -224(%rbp)        # 8-byte Spill
	leaq	rijndael_dec_it_tab+2048(,%rax,8), %rdi
	movl	$146, %esi
	movl	$147, %edx
	movl	$8, %ecx
	callq	_KLoad1
	movl	$148, %esi
	movl	$8, %edx
.Ltmp166:
	.loc	3 166 3 is_stmt 1       # aes.c:166:3
	leaq	-56(%rbp), %rdi
	callq	_KLoad0
	.loc	3 211 69                # aes.c:211:69
.Ltmp167:
	movq	-56(%rbp), %r13
	shrq	$13, %r13
	.loc	3 211 25 is_stmt 0      # aes.c:211:25
	andq	$2040, %r13             # imm = 0x7F8
	leaq	rijndael_dec_it_tab+4096(%r13), %rdi
	movl	$149, %esi
	movl	$150, %edx
	movl	$8, %ecx
	callq	_KLoad1
	movl	$151, %esi
	movl	$8, %edx
.Ltmp168:
	.loc	3 165 3 is_stmt 1       # aes.c:165:3
	leaq	-64(%rbp), %r15
	movq	%r15, %rdi
	callq	_KLoad0
	.loc	3 212 69                # aes.c:212:69
.Ltmp169:
	movq	-64(%rbp), %rbx
	shrq	$21, %rbx
	.loc	3 212 25 is_stmt 0      # aes.c:212:25
	andq	$2040, %rbx             # imm = 0x7F8
	leaq	rijndael_dec_it_tab+6144(%rbx), %rdi
	movl	$152, %esi
	movl	$153, %edx
	movl	$8, %ecx
	callq	_KLoad1
	.loc	3 209 25 is_stmt 1      # aes.c:209:25
	xorq	rijndael_dec_it_tab(,%r14,8), %r12
	movq	-224(%rbp), %rax        # 8-byte Reload
	xorq	rijndael_dec_it_tab+2048(,%rax,8), %r12
	xorq	rijndael_dec_it_tab+4096(%r13), %r12
	.loc	3 209 15 is_stmt 0      # aes.c:209:15
	xorq	rijndael_dec_it_tab+6144(%rbx), %r12
	movl	$2, 48(%rsp)
	movl	$152, 40(%rsp)
	movl	$3, 32(%rsp)
	movl	$149, 24(%rsp)
	movl	$4, 16(%rsp)
	movl	$146, 8(%rsp)
	movl	$4, (%rsp)
	movl	$154, %edi
	movl	$14, %esi
	movl	$4, %edx
	movl	$141, %ecx
	movl	$1, %r8d
	movl	$143, %r9d
	callq	_KTimestamp6
	movl	$154, %edi
	movl	$8, %edx
	movq	-144(%rbp), %rsi        # 8-byte Reload
	callq	_KStore
	.loc	3 209 7                 # aes.c:209:7
	movq	%r12, -104(%rbp)
	movq	-216(%rbp), %r14        # 8-byte Reload
	movq	-120(%rbp), %rbx        # 8-byte Reload
.Ltmp170:
	#DEBUG_VALUE: rijndael_dec_decrypt:cx <- RBX
	.loc	3 213 15 is_stmt 1      # aes.c:213:15
	leaq	528(%rbx,%r14,8), %rdi
	movl	$155, %esi
	movl	$8, %edx
	callq	_KLoad0
	movq	528(%rbx,%r14,8), %r12
.Ltmp171:
	#DEBUG_VALUE: rijndael_dec_decrypt:cx <- [RBP+-120]
	movl	$156, %esi
	movl	$8, %edx
	movq	%r15, %rdi
	callq	_KLoad0
	.loc	3 213 67 is_stmt 0      # aes.c:213:67
	movzbl	-64(%rbp), %r15d
	.loc	3 213 25                # aes.c:213:25
	leaq	rijndael_dec_it_tab(,%r15,8), %rdi
	movl	$157, %esi
	movl	$158, %edx
	movl	$8, %ecx
	callq	_KLoad1
	movl	$159, %esi
	movl	$8, %edx
.Ltmp172:
	.loc	3 164 3 is_stmt 1       # aes.c:164:3
	leaq	-72(%rbp), %r14
	movq	%r14, %rdi
	callq	_KLoad0
	.loc	3 214 69                # aes.c:214:69
.Ltmp173:
	movq	-72(%rbp), %rax
	.loc	3 214 25 is_stmt 0      # aes.c:214:25
	movzbl	%ah, %eax  # NOREX
	leaq	rijndael_dec_it_tab+2048(,%rax,8), %rdi
	movq	%rax, %r14
	movl	$160, %esi
	movl	$161, %edx
	movl	$8, %ecx
	callq	_KLoad1
	movl	$162, %esi
	movl	$8, %edx
	leaq	-80(%rbp), %rdi
	callq	_KLoad0
	.loc	3 215 69 is_stmt 1      # aes.c:215:69
	movq	-80(%rbp), %r13
	shrq	$13, %r13
	.loc	3 215 25 is_stmt 0      # aes.c:215:25
	andq	$2040, %r13             # imm = 0x7F8
	leaq	rijndael_dec_it_tab+4096(%r13), %rdi
	movl	$163, %esi
	movl	$164, %edx
	movl	$8, %ecx
	callq	_KLoad1
	movl	$165, %esi
	movl	$8, %edx
.Ltmp174:
	.loc	3 166 3 is_stmt 1       # aes.c:166:3
	leaq	-56(%rbp), %rdi
	callq	_KLoad0
	.loc	3 216 69                # aes.c:216:69
.Ltmp175:
	movq	-56(%rbp), %rbx
	shrq	$21, %rbx
	.loc	3 216 25 is_stmt 0      # aes.c:216:25
	andq	$2040, %rbx             # imm = 0x7F8
	leaq	rijndael_dec_it_tab+6144(%rbx), %rdi
	movl	$166, %esi
	movl	$167, %edx
	movl	$8, %ecx
	callq	_KLoad1
	.loc	3 213 25 is_stmt 1      # aes.c:213:25
	xorq	rijndael_dec_it_tab(,%r15,8), %r12
	xorq	rijndael_dec_it_tab+2048(,%r14,8), %r12
	xorq	rijndael_dec_it_tab+4096(%r13), %r12
	.loc	3 213 15 is_stmt 0      # aes.c:213:15
	xorq	rijndael_dec_it_tab+6144(%rbx), %r12
	movl	$2, 48(%rsp)
	movl	$166, 40(%rsp)
	movl	$3, 32(%rsp)
	movl	$163, 24(%rsp)
	movl	$4, 16(%rsp)
	movl	$160, 8(%rsp)
	movl	$4, (%rsp)
	movl	$168, %edi
	movl	$14, %esi
	movl	$4, %edx
	movl	$155, %ecx
	movl	$1, %r8d
	movl	$157, %r9d
	callq	_KTimestamp6
	movl	$168, %edi
	movl	$8, %edx
	movq	-152(%rbp), %rsi        # 8-byte Reload
	callq	_KStore
	.loc	3 213 7                 # aes.c:213:7
	movq	%r12, -96(%rbp)
	movq	-208(%rbp), %r15        # 8-byte Reload
	movq	-120(%rbp), %rbx        # 8-byte Reload
.Ltmp176:
	#DEBUG_VALUE: rijndael_dec_decrypt:cx <- RBX
	.loc	3 217 15 is_stmt 1      # aes.c:217:15
	leaq	528(%rbx,%r15,8), %rdi
	movl	$169, %esi
	movl	$8, %edx
	callq	_KLoad0
	movq	528(%rbx,%r15,8), %r12
.Ltmp177:
	#DEBUG_VALUE: rijndael_dec_decrypt:cx <- [RBP+-120]
	movl	$170, %esi
	movl	$8, %edx
.Ltmp178:
	.loc	3 166 3                 # aes.c:166:3
	leaq	-56(%rbp), %rdi
	callq	_KLoad0
	.loc	3 217 67                # aes.c:217:67
.Ltmp179:
	movzbl	-56(%rbp), %r15d
	.loc	3 217 25 is_stmt 0      # aes.c:217:25
	leaq	rijndael_dec_it_tab(,%r15,8), %rdi
	movl	$171, %esi
	movl	$172, %edx
	movl	$8, %ecx
	callq	_KLoad1
	movl	$173, %esi
	movl	$8, %edx
.Ltmp180:
	.loc	3 165 3 is_stmt 1       # aes.c:165:3
	leaq	-64(%rbp), %rdi
	callq	_KLoad0
	.loc	3 218 69                # aes.c:218:69
.Ltmp181:
	movq	-64(%rbp), %rax
	.loc	3 218 25 is_stmt 0      # aes.c:218:25
	movzbl	%ah, %eax  # NOREX
	leaq	rijndael_dec_it_tab+2048(,%rax,8), %rdi
	movq	%rax, %r14
	movl	$174, %esi
	movl	$175, %edx
	movl	$8, %ecx
	callq	_KLoad1
	movl	$176, %esi
	movl	$8, %edx
.Ltmp182:
	.loc	3 164 3 is_stmt 1       # aes.c:164:3
	leaq	-72(%rbp), %rdi
	callq	_KLoad0
	.loc	3 219 69                # aes.c:219:69
.Ltmp183:
	movq	-72(%rbp), %r13
	shrq	$13, %r13
	.loc	3 219 25 is_stmt 0      # aes.c:219:25
	andq	$2040, %r13             # imm = 0x7F8
	leaq	rijndael_dec_it_tab+4096(%r13), %rdi
	movl	$177, %esi
	movl	$178, %edx
	movl	$8, %ecx
	callq	_KLoad1
	movl	$179, %esi
	movl	$8, %edx
	leaq	-80(%rbp), %rdi
	callq	_KLoad0
	.loc	3 220 69 is_stmt 1      # aes.c:220:69
	movq	-80(%rbp), %rbx
	shrq	$21, %rbx
	.loc	3 220 25 is_stmt 0      # aes.c:220:25
	andq	$2040, %rbx             # imm = 0x7F8
	leaq	rijndael_dec_it_tab+6144(%rbx), %rdi
	movl	$180, %esi
	movl	$181, %edx
	movl	$8, %ecx
	callq	_KLoad1
	.loc	3 217 25 is_stmt 1      # aes.c:217:25
	xorq	rijndael_dec_it_tab(,%r15,8), %r12
	xorq	rijndael_dec_it_tab+2048(,%r14,8), %r12
	xorq	rijndael_dec_it_tab+4096(%r13), %r12
	.loc	3 217 15 is_stmt 0      # aes.c:217:15
	xorq	rijndael_dec_it_tab+6144(%rbx), %r12
	movl	$2, 48(%rsp)
	movl	$180, 40(%rsp)
	movl	$3, 32(%rsp)
	movl	$177, 24(%rsp)
	movl	$4, 16(%rsp)
	movl	$174, 8(%rsp)
	movl	$4, (%rsp)
	movl	$182, %edi
	movl	$14, %esi
	movl	$4, %edx
	movl	$169, %ecx
	movl	$1, %r8d
	movl	$171, %r9d
	callq	_KTimestamp6
	movl	$182, %edi
	movl	$8, %edx
	movq	-160(%rbp), %rsi        # 8-byte Reload
	movq	%rsi, %r13
	callq	_KStore
	.loc	3 217 7                 # aes.c:217:7
	movq	%r12, -88(%rbp)
	movq	-200(%rbp), %r14        # 8-byte Reload
	movq	-120(%rbp), %rbx        # 8-byte Reload
.Ltmp184:
	#DEBUG_VALUE: rijndael_dec_decrypt:cx <- RBX
	.loc	3 221 17 is_stmt 1      # aes.c:221:17
	leaq	528(%rbx,%r14,8), %rdi
	movl	$183, %esi
	movl	$8, %edx
	callq	_KLoad0
	.loc	3 221 15 is_stmt 0      # aes.c:221:15
	movq	528(%rbx,%r14,8), %r12
.Ltmp185:
	#DEBUG_VALUE: rijndael_dec_decrypt:cx <- [RBP+-120]
	movl	$184, %esi
	movl	$8, %edx
	movq	-136(%rbp), %rdi        # 8-byte Reload
	callq	_KLoad0
	.loc	3 221 75                # aes.c:221:75
	movzbl	-112(%rbp), %r15d
	.loc	3 221 33                # aes.c:221:33
	leaq	rijndael_dec_it_tab(,%r15,8), %rdi
	movl	$185, %esi
	movl	$186, %edx
	movl	$8, %ecx
	callq	_KLoad1
	movl	$187, %esi
	movl	$8, %edx
	movq	%r13, %rdi
	callq	_KLoad0
	.loc	3 222 77 is_stmt 1      # aes.c:222:77
	movq	-88(%rbp), %rax
	.loc	3 222 33 is_stmt 0      # aes.c:222:33
	movzbl	%ah, %eax  # NOREX
	movq	%rax, -200(%rbp)        # 8-byte Spill
	leaq	rijndael_dec_it_tab+2048(,%rax,8), %rdi
	movl	$188, %esi
	movl	$189, %edx
	movl	$8, %ecx
	callq	_KLoad1
	movl	$190, %esi
	movl	$8, %edx
	movq	-152(%rbp), %rdi        # 8-byte Reload
	callq	_KLoad0
	.loc	3 223 77 is_stmt 1      # aes.c:223:77
	movq	-96(%rbp), %r13
	shrq	$13, %r13
	.loc	3 223 33 is_stmt 0      # aes.c:223:33
	andq	$2040, %r13             # imm = 0x7F8
	leaq	rijndael_dec_it_tab+4096(%r13), %rdi
	movl	$191, %esi
	movl	$192, %edx
	movl	$8, %ecx
	callq	_KLoad1
	movl	$193, %esi
	movl	$8, %edx
	movq	-144(%rbp), %r14        # 8-byte Reload
	movq	%r14, %rdi
	callq	_KLoad0
	.loc	3 224 77 is_stmt 1      # aes.c:224:77
	movq	-104(%rbp), %rbx
	shrq	$21, %rbx
	.loc	3 224 33 is_stmt 0      # aes.c:224:33
	andq	$2040, %rbx             # imm = 0x7F8
	leaq	rijndael_dec_it_tab+6144(%rbx), %rdi
	movl	$194, %esi
	movl	$195, %edx
	movl	$8, %ecx
	callq	_KLoad1
	.loc	3 221 33 is_stmt 1      # aes.c:221:33
	xorq	rijndael_dec_it_tab(,%r15,8), %r12
	movq	-200(%rbp), %rax        # 8-byte Reload
	xorq	rijndael_dec_it_tab+2048(,%rax,8), %r12
	xorq	rijndael_dec_it_tab+4096(%r13), %r12
	.loc	3 221 15 is_stmt 0      # aes.c:221:15
	xorq	rijndael_dec_it_tab+6144(%rbx), %r12
	movl	$2, 48(%rsp)
	movl	$194, 40(%rsp)
	movl	$3, 32(%rsp)
	movl	$191, 24(%rsp)
	movl	$4, 16(%rsp)
	movl	$188, 8(%rsp)
	movl	$4, (%rsp)
	movl	$196, %edi
	movl	$14, %esi
	movl	$4, %edx
	movl	$183, %ecx
	movl	$1, %r8d
	movl	$185, %r9d
	callq	_KTimestamp6
	movl	$196, %edi
	movl	$8, %edx
	leaq	-80(%rbp), %rsi
	callq	_KStore
	.loc	3 221 7                 # aes.c:221:7
	movq	%r12, -80(%rbp)
	movq	-192(%rbp), %r15        # 8-byte Reload
	movq	-120(%rbp), %rbx        # 8-byte Reload
.Ltmp186:
	#DEBUG_VALUE: rijndael_dec_decrypt:cx <- RBX
	.loc	3 225 15 is_stmt 1      # aes.c:225:15
	leaq	528(%rbx,%r15,8), %rdi
	movl	$197, %esi
	movl	$8, %edx
	callq	_KLoad0
	movq	528(%rbx,%r15,8), %r12
.Ltmp187:
	#DEBUG_VALUE: rijndael_dec_decrypt:cx <- [RBP+-120]
	movl	$198, %esi
	movl	$8, %edx
	movq	%r14, %rdi
	callq	_KLoad0
	.loc	3 225 75 is_stmt 0      # aes.c:225:75
	movzbl	-104(%rbp), %r14d
	.loc	3 225 33                # aes.c:225:33
	leaq	rijndael_dec_it_tab(,%r14,8), %rdi
	movl	$199, %esi
	movl	$200, %edx
	movl	$8, %ecx
	callq	_KLoad1
	movl	$201, %esi
	movl	$8, %edx
	movq	-136(%rbp), %rdi        # 8-byte Reload
	callq	_KLoad0
	.loc	3 226 77 is_stmt 1      # aes.c:226:77
	movq	-112(%rbp), %rax
	.loc	3 226 33 is_stmt 0      # aes.c:226:33
	movzbl	%ah, %eax  # NOREX
	movq	%rax, -192(%rbp)        # 8-byte Spill
	leaq	rijndael_dec_it_tab+2048(,%rax,8), %rdi
	movl	$202, %esi
	movl	$203, %edx
	movl	$8, %ecx
	callq	_KLoad1
	movl	$204, %esi
	movl	$8, %edx
	movq	-160(%rbp), %rdi        # 8-byte Reload
	callq	_KLoad0
	.loc	3 227 77 is_stmt 1      # aes.c:227:77
	movq	-88(%rbp), %r13
	shrq	$13, %r13
	.loc	3 227 33 is_stmt 0      # aes.c:227:33
	andq	$2040, %r13             # imm = 0x7F8
	leaq	rijndael_dec_it_tab+4096(%r13), %rdi
	movl	$205, %esi
	movl	$206, %edx
	movl	$8, %ecx
	callq	_KLoad1
	movl	$207, %esi
	movl	$8, %edx
	movq	-152(%rbp), %r15        # 8-byte Reload
	movq	%r15, %rdi
	callq	_KLoad0
	.loc	3 228 77 is_stmt 1      # aes.c:228:77
	movq	-96(%rbp), %rbx
	shrq	$21, %rbx
	.loc	3 228 33 is_stmt 0      # aes.c:228:33
	andq	$2040, %rbx             # imm = 0x7F8
	leaq	rijndael_dec_it_tab+6144(%rbx), %rdi
	movl	$208, %esi
	movl	$209, %edx
	movl	$8, %ecx
	callq	_KLoad1
	.loc	3 225 33 is_stmt 1      # aes.c:225:33
	xorq	rijndael_dec_it_tab(,%r14,8), %r12
	movq	-192(%rbp), %rax        # 8-byte Reload
	xorq	rijndael_dec_it_tab+2048(,%rax,8), %r12
	xorq	rijndael_dec_it_tab+4096(%r13), %r12
	.loc	3 225 15 is_stmt 0      # aes.c:225:15
	xorq	rijndael_dec_it_tab+6144(%rbx), %r12
	movl	$2, 48(%rsp)
	movl	$208, 40(%rsp)
	movl	$3, 32(%rsp)
	movl	$205, 24(%rsp)
	movl	$4, 16(%rsp)
	movl	$202, 8(%rsp)
	movl	$4, (%rsp)
	movl	$210, %edi
	movl	$14, %esi
	movl	$4, %edx
	movl	$197, %ecx
	movl	$1, %r8d
	movl	$199, %r9d
	callq	_KTimestamp6
	movl	$210, %edi
	movl	$8, %edx
.Ltmp188:
	.loc	3 164 3 is_stmt 1       # aes.c:164:3
	leaq	-72(%rbp), %rsi
	callq	_KStore
	.loc	3 225 7                 # aes.c:225:7
.Ltmp189:
	movq	%r12, -72(%rbp)
	movq	-184(%rbp), %r14        # 8-byte Reload
	movq	-120(%rbp), %rbx        # 8-byte Reload
.Ltmp190:
	#DEBUG_VALUE: rijndael_dec_decrypt:cx <- RBX
	.loc	3 229 15                # aes.c:229:15
	leaq	528(%rbx,%r14,8), %rdi
	movl	$211, %esi
	movl	$8, %edx
	callq	_KLoad0
	movq	528(%rbx,%r14,8), %r12
.Ltmp191:
	#DEBUG_VALUE: rijndael_dec_decrypt:cx <- [RBP+-120]
	movl	$212, %esi
	movl	$8, %edx
	movq	%r15, %rdi
	callq	_KLoad0
	.loc	3 229 75 is_stmt 0      # aes.c:229:75
	movzbl	-96(%rbp), %r14d
	.loc	3 229 33                # aes.c:229:33
	leaq	rijndael_dec_it_tab(,%r14,8), %rdi
	movl	$213, %esi
	movl	$214, %edx
	movl	$8, %ecx
	callq	_KLoad1
	movl	$215, %esi
	movl	$8, %edx
	movq	-144(%rbp), %rdi        # 8-byte Reload
	callq	_KLoad0
	.loc	3 230 77 is_stmt 1      # aes.c:230:77
	movq	-104(%rbp), %rax
	.loc	3 230 33 is_stmt 0      # aes.c:230:33
	movzbl	%ah, %eax  # NOREX
	movq	%rax, -184(%rbp)        # 8-byte Spill
	leaq	rijndael_dec_it_tab+2048(,%rax,8), %rdi
	movl	$216, %esi
	movl	$217, %edx
	movl	$8, %ecx
	callq	_KLoad1
	movl	$218, %esi
	movl	$8, %edx
	movq	-136(%rbp), %rdi        # 8-byte Reload
	callq	_KLoad0
	.loc	3 231 77 is_stmt 1      # aes.c:231:77
	movq	-112(%rbp), %r13
	shrq	$13, %r13
	.loc	3 231 33 is_stmt 0      # aes.c:231:33
	andq	$2040, %r13             # imm = 0x7F8
	leaq	rijndael_dec_it_tab+4096(%r13), %rdi
	movl	$219, %esi
	movl	$220, %edx
	movl	$8, %ecx
	callq	_KLoad1
	movl	$221, %esi
	movl	$8, %edx
	movq	-160(%rbp), %r15        # 8-byte Reload
	movq	%r15, %rdi
	callq	_KLoad0
	.loc	3 232 77 is_stmt 1      # aes.c:232:77
	movq	-88(%rbp), %rbx
	shrq	$21, %rbx
	.loc	3 232 33 is_stmt 0      # aes.c:232:33
	andq	$2040, %rbx             # imm = 0x7F8
	leaq	rijndael_dec_it_tab+6144(%rbx), %rdi
	movl	$222, %esi
	movl	$223, %edx
	movl	$8, %ecx
	callq	_KLoad1
	.loc	3 229 33 is_stmt 1      # aes.c:229:33
	xorq	rijndael_dec_it_tab(,%r14,8), %r12
	movq	-184(%rbp), %rax        # 8-byte Reload
	xorq	rijndael_dec_it_tab+2048(,%rax,8), %r12
	xorq	rijndael_dec_it_tab+4096(%r13), %r12
	.loc	3 229 15 is_stmt 0      # aes.c:229:15
	xorq	rijndael_dec_it_tab+6144(%rbx), %r12
	movl	$2, 48(%rsp)
	movl	$222, 40(%rsp)
	movl	$3, 32(%rsp)
	movl	$219, 24(%rsp)
	movl	$4, 16(%rsp)
	movl	$216, 8(%rsp)
	movl	$4, (%rsp)
	movl	$224, %edi
	movl	$14, %esi
	movl	$4, %edx
	movl	$211, %ecx
	movl	$1, %r8d
	movl	$213, %r9d
	callq	_KTimestamp6
	movl	$224, %edi
	movl	$8, %edx
.Ltmp192:
	.loc	3 165 3 is_stmt 1       # aes.c:165:3
	leaq	-64(%rbp), %rsi
	callq	_KStore
	.loc	3 229 7                 # aes.c:229:7
.Ltmp193:
	movq	%r12, -64(%rbp)
	movq	-176(%rbp), %r14        # 8-byte Reload
	movq	-120(%rbp), %rbx        # 8-byte Reload
.Ltmp194:
	#DEBUG_VALUE: rijndael_dec_decrypt:cx <- RBX
	.loc	3 233 15                # aes.c:233:15
	leaq	528(%rbx,%r14,8), %rdi
	movl	$225, %esi
	movl	$8, %edx
	callq	_KLoad0
	movq	528(%rbx,%r14,8), %r12
.Ltmp195:
	#DEBUG_VALUE: rijndael_dec_decrypt:cx <- [RBP+-120]
	movl	$226, %esi
	movl	$8, %edx
	movq	%r15, %rdi
	callq	_KLoad0
	.loc	3 233 75 is_stmt 0      # aes.c:233:75
	movzbl	-88(%rbp), %r15d
	.loc	3 233 33                # aes.c:233:33
	leaq	rijndael_dec_it_tab(,%r15,8), %rdi
	movl	$227, %esi
	movl	$228, %edx
	movl	$8, %ecx
	callq	_KLoad1
	movl	$229, %esi
	movl	$8, %edx
	movq	-152(%rbp), %rdi        # 8-byte Reload
	callq	_KLoad0
	.loc	3 234 77 is_stmt 1      # aes.c:234:77
	movq	-96(%rbp), %rax
	.loc	3 234 33 is_stmt 0      # aes.c:234:33
	movzbl	%ah, %eax  # NOREX
	leaq	rijndael_dec_it_tab+2048(,%rax,8), %rdi
	movq	%rax, %r14
	movl	$230, %esi
	movl	$231, %edx
	movl	$8, %ecx
	callq	_KLoad1
	movl	$232, %esi
	movl	$8, %edx
	movq	-144(%rbp), %rdi        # 8-byte Reload
	callq	_KLoad0
	.loc	3 235 77 is_stmt 1      # aes.c:235:77
	movq	-104(%rbp), %r13
	shrq	$13, %r13
	.loc	3 235 33 is_stmt 0      # aes.c:235:33
	andq	$2040, %r13             # imm = 0x7F8
	leaq	rijndael_dec_it_tab+4096(%r13), %rdi
	movl	$233, %esi
	movl	$234, %edx
	movl	$8, %ecx
	callq	_KLoad1
	movl	$235, %esi
	movl	$8, %edx
	movq	-136(%rbp), %rdi        # 8-byte Reload
	callq	_KLoad0
	.loc	3 236 77 is_stmt 1      # aes.c:236:77
	movq	-112(%rbp), %rbx
	shrq	$21, %rbx
	.loc	3 236 33 is_stmt 0      # aes.c:236:33
	andq	$2040, %rbx             # imm = 0x7F8
	leaq	rijndael_dec_it_tab+6144(%rbx), %rdi
	movl	$236, %esi
	movl	$237, %edx
	movl	$8, %ecx
	callq	_KLoad1
	.loc	3 233 33 is_stmt 1      # aes.c:233:33
	xorq	rijndael_dec_it_tab(,%r15,8), %r12
	xorq	rijndael_dec_it_tab+2048(,%r14,8), %r12
	xorq	rijndael_dec_it_tab+4096(%r13), %r12
.Ltmp196:
	.loc	3 166 3                 # aes.c:166:3
	leaq	-56(%rbp), %r13
	.loc	3 233 15                # aes.c:233:15
.Ltmp197:
	xorq	rijndael_dec_it_tab+6144(%rbx), %r12
	movl	$2, 48(%rsp)
	movl	$236, 40(%rsp)
	movl	$3, 32(%rsp)
	movl	$233, 24(%rsp)
	movl	$4, 16(%rsp)
	movl	$230, 8(%rsp)
	movl	$4, (%rsp)
	movl	$238, %edi
	movl	$14, %esi
	movl	$4, %edx
	movl	$225, %ecx
	movl	$1, %r8d
	movl	$227, %r9d
	callq	_KTimestamp6
	movl	$238, %edi
	movl	$8, %edx
	movq	%r13, %rsi
	callq	_KStore
	.loc	3 233 7 is_stmt 0       # aes.c:233:7
	movq	%r12, -56(%rbp)
	.loc	3 237 7 is_stmt 1       # aes.c:237:7
	movq	-128(%rbp), %rax        # 8-byte Reload
	movq	-120(%rbp), %rcx        # 8-byte Reload
	leaq	528(%rcx,%rax,8), %r15
.Ltmp198:
	#DEBUG_VALUE: rijndael_dec_decrypt:kp <- R15
	movl	$810, %r12d             # imm = 0x32A
	movl	$810, %edi              # imm = 0x32A
	movl	$14, %esi
	xorl	%edx, %edx
	movl	$804, %ecx              # imm = 0x324
	xorl	%r8d, %r8d
	callq	_KTimestamp2
	callq	_KPopCDep
.Ltmp199:
	.loc	3 165 3                 # aes.c:165:3
	leaq	-64(%rbp), %rbx
.Ltmp200:
.LBB1_9:                                # %sw.bb423
	#DEBUG_VALUE: rijndael_dec_decrypt:out_blk <- [RBP+-168]
	#DEBUG_VALUE: rijndael_dec_decrypt:cx <- [RBP+-120]
	#DEBUG_VALUE: rijndael_dec_decrypt:b0 <- [RBP+-80]
	#DEBUG_VALUE: rijndael_dec_decrypt:b1 <- [RBP+-112]
	movl	$14, %edi
	callq	_KPushCDep
	movl	$809, %edi              # imm = 0x329
	movl	$808, %edx              # imm = 0x328
	movl	$14, %ecx
	movl	%r12d, %esi
	callq	_KPhi2To1
	movl	$1760, %edi             # imm = 0x6E0
	callq	_KWork
	movl	$239, %esi
	movl	$8, %edx
	movq	%r15, %rdi
	callq	_KLoad0
	.loc	3 239 15                # aes.c:239:15
.Ltmp201:
	movq	(%r15), %r12
	leaq	-80(%rbp), %rdi
	movl	$240, %esi
	movl	$8, %edx
	callq	_KLoad0
	.loc	3 239 67 is_stmt 0      # aes.c:239:67
	movzbl	-80(%rbp), %r14d
	.loc	3 239 25                # aes.c:239:25
	leaq	rijndael_dec_it_tab(,%r14,8), %rdi
	movl	$241, %esi
	movl	$242, %edx
	movl	$8, %ecx
	callq	_KLoad1
	movl	$243, %esi
	movl	$8, %edx
	movq	%r13, %rdi
	callq	_KLoad0
	.loc	3 240 69 is_stmt 1      # aes.c:240:69
	movq	-56(%rbp), %rax
	.loc	3 240 25 is_stmt 0      # aes.c:240:25
	movzbl	%ah, %eax  # NOREX
	movq	%rax, -176(%rbp)        # 8-byte Spill
	leaq	rijndael_dec_it_tab+2048(,%rax,8), %rdi
	movl	$244, %esi
	movl	$245, %edx
	movl	$8, %ecx
	callq	_KLoad1
	movl	$246, %esi
	movl	$8, %edx
	movq	%rbx, %rdi
	callq	_KLoad0
	.loc	3 241 69 is_stmt 1      # aes.c:241:69
	movq	-64(%rbp), %r13
	shrq	$13, %r13
	.loc	3 241 25 is_stmt 0      # aes.c:241:25
	andq	$2040, %r13             # imm = 0x7F8
	leaq	rijndael_dec_it_tab+4096(%r13), %rdi
	movl	$247, %esi
	movl	$248, %edx
	movl	$8, %ecx
	callq	_KLoad1
	movl	$249, %esi
	movl	$8, %edx
.Ltmp202:
	.loc	3 164 3 is_stmt 1       # aes.c:164:3
	leaq	-72(%rbp), %r15
	movq	%r15, %rdi
	callq	_KLoad0
	.loc	3 242 69                # aes.c:242:69
.Ltmp203:
	movq	-72(%rbp), %rbx
	shrq	$21, %rbx
	.loc	3 242 25 is_stmt 0      # aes.c:242:25
	andq	$2040, %rbx             # imm = 0x7F8
	leaq	rijndael_dec_it_tab+6144(%rbx), %rdi
	movl	$250, %esi
	movl	$251, %edx
	movl	$8, %ecx
	callq	_KLoad1
	.loc	3 239 25 is_stmt 1      # aes.c:239:25
	xorq	rijndael_dec_it_tab(,%r14,8), %r12
	movq	-176(%rbp), %rax        # 8-byte Reload
	xorq	rijndael_dec_it_tab+2048(,%rax,8), %r12
	xorq	rijndael_dec_it_tab+4096(%r13), %r12
	.loc	3 239 15 is_stmt 0      # aes.c:239:15
	xorq	rijndael_dec_it_tab+6144(%rbx), %r12
	movl	$2, 48(%rsp)
	movl	$250, 40(%rsp)
	movl	$3, 32(%rsp)
	movl	$247, 24(%rsp)
	movl	$4, 16(%rsp)
	movl	$244, 8(%rsp)
	movl	$4, (%rsp)
	movl	$252, %edi
	movl	$14, %esi
	movl	$4, %edx
	movl	$239, %ecx
	movl	$1, %r8d
	movl	$241, %r9d
	callq	_KTimestamp6
	movl	$252, %edi
	movl	$8, %edx
	movq	-136(%rbp), %rsi        # 8-byte Reload
	callq	_KStore
	.loc	3 239 7                 # aes.c:239:7
	movq	%r12, -112(%rbp)
	movq	-128(%rbp), %rbx        # 8-byte Reload
	movq	-120(%rbp), %r14        # 8-byte Reload
.Ltmp204:
	#DEBUG_VALUE: rijndael_dec_decrypt:cx <- R14
	.loc	3 243 15 is_stmt 1      # aes.c:243:15
	leaq	536(%r14,%rbx,8), %rdi
	movl	$253, %esi
	movl	$8, %edx
	callq	_KLoad0
	movq	536(%r14,%rbx,8), %r12
.Ltmp205:
	#DEBUG_VALUE: rijndael_dec_decrypt:cx <- [RBP+-120]
	movl	$254, %esi
	movl	$8, %edx
	movq	%r15, %rdi
	callq	_KLoad0
	.loc	3 243 67 is_stmt 0      # aes.c:243:67
	movzbl	-72(%rbp), %r15d
	.loc	3 243 25                # aes.c:243:25
	leaq	rijndael_dec_it_tab(,%r15,8), %rdi
	movl	$255, %esi
	movl	$256, %edx              # imm = 0x100
	movl	$8, %ecx
	callq	_KLoad1
	movl	$257, %esi              # imm = 0x101
	movl	$8, %edx
	leaq	-80(%rbp), %rdi
	callq	_KLoad0
	.loc	3 244 69 is_stmt 1      # aes.c:244:69
	movq	-80(%rbp), %rax
	.loc	3 244 25 is_stmt 0      # aes.c:244:25
	movzbl	%ah, %eax  # NOREX
	movq	%rax, -176(%rbp)        # 8-byte Spill
	leaq	rijndael_dec_it_tab+2048(,%rax,8), %rdi
	movl	$258, %esi              # imm = 0x102
	movl	$259, %edx              # imm = 0x103
	movl	$8, %ecx
	callq	_KLoad1
	movl	$260, %esi              # imm = 0x104
	movl	$8, %edx
.Ltmp206:
	.loc	3 166 3 is_stmt 1       # aes.c:166:3
	leaq	-56(%rbp), %rdi
	callq	_KLoad0
	.loc	3 245 69                # aes.c:245:69
.Ltmp207:
	movq	-56(%rbp), %r13
	shrq	$13, %r13
	.loc	3 245 25 is_stmt 0      # aes.c:245:25
	andq	$2040, %r13             # imm = 0x7F8
	leaq	rijndael_dec_it_tab+4096(%r13), %rdi
	movl	$261, %esi              # imm = 0x105
	movl	$262, %edx              # imm = 0x106
	movl	$8, %ecx
	callq	_KLoad1
	movl	$263, %esi              # imm = 0x107
	movl	$8, %edx
.Ltmp208:
	.loc	3 165 3 is_stmt 1       # aes.c:165:3
	leaq	-64(%rbp), %r14
	movq	%r14, %rdi
	callq	_KLoad0
	.loc	3 246 69                # aes.c:246:69
.Ltmp209:
	movq	-64(%rbp), %rbx
	shrq	$21, %rbx
	.loc	3 246 25 is_stmt 0      # aes.c:246:25
	andq	$2040, %rbx             # imm = 0x7F8
	leaq	rijndael_dec_it_tab+6144(%rbx), %rdi
	movl	$264, %esi              # imm = 0x108
	movl	$265, %edx              # imm = 0x109
	movl	$8, %ecx
	callq	_KLoad1
	.loc	3 243 25 is_stmt 1      # aes.c:243:25
	xorq	rijndael_dec_it_tab(,%r15,8), %r12
	movq	-176(%rbp), %rax        # 8-byte Reload
	xorq	rijndael_dec_it_tab+2048(,%rax,8), %r12
	xorq	rijndael_dec_it_tab+4096(%r13), %r12
	.loc	3 243 15 is_stmt 0      # aes.c:243:15
	xorq	rijndael_dec_it_tab+6144(%rbx), %r12
	movl	$4, 48(%rsp)
	movl	$258, 40(%rsp)          # imm = 0x102
	movl	$4, 32(%rsp)
	movl	$255, 24(%rsp)
	movl	$1, 16(%rsp)
	movl	$253, 8(%rsp)
	movl	$4, (%rsp)
	movl	$266, %edi              # imm = 0x10A
	movl	$261, %esi              # imm = 0x105
	movl	$3, %edx
	movl	$264, %ecx              # imm = 0x108
	movl	$2, %r8d
	movl	$14, %r9d
	callq	_KTimestamp6
	movl	$266, %edi              # imm = 0x10A
	movl	$8, %edx
	movq	-144(%rbp), %rsi        # 8-byte Reload
	callq	_KStore
	.loc	3 243 7                 # aes.c:243:7
	movq	%r12, -104(%rbp)
	movq	-128(%rbp), %r15        # 8-byte Reload
	movq	-120(%rbp), %rbx        # 8-byte Reload
.Ltmp210:
	#DEBUG_VALUE: rijndael_dec_decrypt:cx <- RBX
	.loc	3 247 15 is_stmt 1      # aes.c:247:15
	leaq	544(%rbx,%r15,8), %rdi
	movl	$267, %esi              # imm = 0x10B
	movl	$8, %edx
	callq	_KLoad0
	movq	544(%rbx,%r15,8), %r12
.Ltmp211:
	#DEBUG_VALUE: rijndael_dec_decrypt:cx <- [RBP+-120]
	movl	$268, %esi              # imm = 0x10C
	movl	$8, %edx
	movq	%r14, %rdi
	callq	_KLoad0
	.loc	3 247 67 is_stmt 0      # aes.c:247:67
	movzbl	-64(%rbp), %r15d
	.loc	3 247 25                # aes.c:247:25
	leaq	rijndael_dec_it_tab(,%r15,8), %rdi
	movl	$269, %esi              # imm = 0x10D
	movl	$270, %edx              # imm = 0x10E
	movl	$8, %ecx
	callq	_KLoad1
	movl	$271, %esi              # imm = 0x10F
	movl	$8, %edx
.Ltmp212:
	.loc	3 164 3 is_stmt 1       # aes.c:164:3
	leaq	-72(%rbp), %rdi
	callq	_KLoad0
	.loc	3 248 69                # aes.c:248:69
.Ltmp213:
	movq	-72(%rbp), %rax
	.loc	3 248 25 is_stmt 0      # aes.c:248:25
	movzbl	%ah, %eax  # NOREX
	movq	%rax, -176(%rbp)        # 8-byte Spill
	leaq	rijndael_dec_it_tab+2048(,%rax,8), %rdi
	movl	$272, %esi              # imm = 0x110
	movl	$273, %edx              # imm = 0x111
	movl	$8, %ecx
	callq	_KLoad1
	movl	$274, %esi              # imm = 0x112
	movl	$8, %edx
	leaq	-80(%rbp), %rdi
	callq	_KLoad0
	.loc	3 249 69 is_stmt 1      # aes.c:249:69
	movq	-80(%rbp), %r13
	shrq	$13, %r13
	.loc	3 249 25 is_stmt 0      # aes.c:249:25
	andq	$2040, %r13             # imm = 0x7F8
	leaq	rijndael_dec_it_tab+4096(%r13), %rdi
	movl	$275, %esi              # imm = 0x113
	movl	$276, %edx              # imm = 0x114
	movl	$8, %ecx
	callq	_KLoad1
	movl	$277, %esi              # imm = 0x115
	movl	$8, %edx
.Ltmp214:
	.loc	3 166 3 is_stmt 1       # aes.c:166:3
	leaq	-56(%rbp), %r14
	movq	%r14, %rdi
	callq	_KLoad0
	.loc	3 250 69                # aes.c:250:69
.Ltmp215:
	movq	-56(%rbp), %rbx
	shrq	$21, %rbx
	.loc	3 250 25 is_stmt 0      # aes.c:250:25
	andq	$2040, %rbx             # imm = 0x7F8
	leaq	rijndael_dec_it_tab+6144(%rbx), %rdi
	movl	$278, %esi              # imm = 0x116
	movl	$279, %edx              # imm = 0x117
	movl	$8, %ecx
	callq	_KLoad1
	.loc	3 247 25 is_stmt 1      # aes.c:247:25
	xorq	rijndael_dec_it_tab(,%r15,8), %r12
	movq	-176(%rbp), %rax        # 8-byte Reload
	xorq	rijndael_dec_it_tab+2048(,%rax,8), %r12
	xorq	rijndael_dec_it_tab+4096(%r13), %r12
	.loc	3 247 15 is_stmt 0      # aes.c:247:15
	xorq	rijndael_dec_it_tab+6144(%rbx), %r12
	movl	$4, 48(%rsp)
	movl	$14, 40(%rsp)
	movl	$2, 32(%rsp)
	movl	$278, 24(%rsp)          # imm = 0x116
	movl	$3, 16(%rsp)
	movl	$275, 8(%rsp)           # imm = 0x113
	movl	$4, (%rsp)
	movl	$280, %edi              # imm = 0x118
	movl	$267, %esi              # imm = 0x10B
	movl	$1, %edx
	movl	$269, %ecx              # imm = 0x10D
	movl	$4, %r8d
	movl	$272, %r9d              # imm = 0x110
	callq	_KTimestamp6
	movl	$280, %edi              # imm = 0x118
	movl	$8, %edx
	movq	-152(%rbp), %rsi        # 8-byte Reload
	callq	_KStore
	.loc	3 247 7                 # aes.c:247:7
	movq	%r12, -96(%rbp)
	movq	-128(%rbp), %r15        # 8-byte Reload
	movq	-120(%rbp), %rbx        # 8-byte Reload
.Ltmp216:
	#DEBUG_VALUE: rijndael_dec_decrypt:cx <- RBX
	.loc	3 251 15 is_stmt 1      # aes.c:251:15
	leaq	552(%rbx,%r15,8), %rdi
	movl	$281, %esi              # imm = 0x119
	movl	$8, %edx
	callq	_KLoad0
	movq	552(%rbx,%r15,8), %r12
.Ltmp217:
	#DEBUG_VALUE: rijndael_dec_decrypt:cx <- [RBP+-120]
	movl	$282, %esi              # imm = 0x11A
	movl	$8, %edx
	movq	%r14, %rdi
	callq	_KLoad0
	.loc	3 251 67 is_stmt 0      # aes.c:251:67
	movzbl	-56(%rbp), %r15d
	.loc	3 251 25                # aes.c:251:25
	leaq	rijndael_dec_it_tab(,%r15,8), %rdi
	movl	$283, %esi              # imm = 0x11B
	movl	$284, %edx              # imm = 0x11C
	movl	$8, %ecx
	callq	_KLoad1
	movl	$285, %esi              # imm = 0x11D
	movl	$8, %edx
.Ltmp218:
	.loc	3 165 3 is_stmt 1       # aes.c:165:3
	leaq	-64(%rbp), %rdi
	callq	_KLoad0
	.loc	3 252 69                # aes.c:252:69
.Ltmp219:
	movq	-64(%rbp), %rax
	.loc	3 252 25 is_stmt 0      # aes.c:252:25
	movzbl	%ah, %eax  # NOREX
	leaq	rijndael_dec_it_tab+2048(,%rax,8), %rdi
	movq	%rax, %r14
	movl	$286, %esi              # imm = 0x11E
	movl	$287, %edx              # imm = 0x11F
	movl	$8, %ecx
	callq	_KLoad1
	movl	$288, %esi              # imm = 0x120
	movl	$8, %edx
.Ltmp220:
	.loc	3 164 3 is_stmt 1       # aes.c:164:3
	leaq	-72(%rbp), %rdi
	callq	_KLoad0
	.loc	3 253 69                # aes.c:253:69
.Ltmp221:
	movq	-72(%rbp), %r13
	shrq	$13, %r13
	.loc	3 253 25 is_stmt 0      # aes.c:253:25
	andq	$2040, %r13             # imm = 0x7F8
	leaq	rijndael_dec_it_tab+4096(%r13), %rdi
	movl	$289, %esi              # imm = 0x121
	movl	$290, %edx              # imm = 0x122
	movl	$8, %ecx
	callq	_KLoad1
	movl	$291, %esi              # imm = 0x123
	movl	$8, %edx
	leaq	-80(%rbp), %rdi
	callq	_KLoad0
	.loc	3 254 69 is_stmt 1      # aes.c:254:69
	movq	-80(%rbp), %rbx
	shrq	$21, %rbx
	.loc	3 254 25 is_stmt 0      # aes.c:254:25
	andq	$2040, %rbx             # imm = 0x7F8
	leaq	rijndael_dec_it_tab+6144(%rbx), %rdi
	movl	$292, %esi              # imm = 0x124
	movl	$293, %edx              # imm = 0x125
	movl	$8, %ecx
	callq	_KLoad1
	.loc	3 251 25 is_stmt 1      # aes.c:251:25
	xorq	rijndael_dec_it_tab(,%r15,8), %r12
	xorq	rijndael_dec_it_tab+2048(,%r14,8), %r12
	xorq	rijndael_dec_it_tab+4096(%r13), %r12
	.loc	3 251 15 is_stmt 0      # aes.c:251:15
	xorq	rijndael_dec_it_tab+6144(%rbx), %r12
	movl	$4, 48(%rsp)
	movl	$14, 40(%rsp)
	movl	$2, 32(%rsp)
	movl	$292, 24(%rsp)          # imm = 0x124
	movl	$3, 16(%rsp)
	movl	$289, 8(%rsp)           # imm = 0x121
	movl	$4, (%rsp)
	movl	$294, %edi              # imm = 0x126
	movl	$281, %esi              # imm = 0x119
	movl	$1, %edx
	movl	$283, %ecx              # imm = 0x11B
	movl	$4, %r8d
	movl	$286, %r9d              # imm = 0x11E
	callq	_KTimestamp6
	movl	$294, %edi              # imm = 0x126
	movl	$8, %edx
	movq	-160(%rbp), %rsi        # 8-byte Reload
	movq	%rsi, %r14
	callq	_KStore
	.loc	3 251 7                 # aes.c:251:7
	movq	%r12, -88(%rbp)
	movq	-128(%rbp), %r15        # 8-byte Reload
	movq	-120(%rbp), %rbx        # 8-byte Reload
.Ltmp222:
	#DEBUG_VALUE: rijndael_dec_decrypt:cx <- RBX
	.loc	3 255 17 is_stmt 1      # aes.c:255:17
	leaq	560(%rbx,%r15,8), %rdi
	movl	$295, %esi              # imm = 0x127
	movl	$8, %edx
	callq	_KLoad0
	.loc	3 255 15 is_stmt 0      # aes.c:255:15
	movq	560(%rbx,%r15,8), %r12
.Ltmp223:
	#DEBUG_VALUE: rijndael_dec_decrypt:cx <- [RBP+-120]
	movl	$296, %esi              # imm = 0x128
	movl	$8, %edx
	movq	-136(%rbp), %rdi        # 8-byte Reload
	callq	_KLoad0
	.loc	3 255 75                # aes.c:255:75
	movzbl	-112(%rbp), %r15d
	.loc	3 255 33                # aes.c:255:33
	leaq	rijndael_dec_it_tab(,%r15,8), %rdi
	movl	$297, %esi              # imm = 0x129
	movl	$298, %edx              # imm = 0x12A
	movl	$8, %ecx
	callq	_KLoad1
	movl	$299, %esi              # imm = 0x12B
	movl	$8, %edx
	movq	%r14, %rdi
	callq	_KLoad0
	.loc	3 256 77 is_stmt 1      # aes.c:256:77
	movq	-88(%rbp), %rax
	.loc	3 256 33 is_stmt 0      # aes.c:256:33
	movzbl	%ah, %eax  # NOREX
	movq	%rax, -176(%rbp)        # 8-byte Spill
	leaq	rijndael_dec_it_tab+2048(,%rax,8), %rdi
	movl	$300, %esi              # imm = 0x12C
	movl	$301, %edx              # imm = 0x12D
	movl	$8, %ecx
	callq	_KLoad1
	movl	$302, %esi              # imm = 0x12E
	movl	$8, %edx
	movq	-152(%rbp), %rdi        # 8-byte Reload
	callq	_KLoad0
	.loc	3 257 77 is_stmt 1      # aes.c:257:77
	movq	-96(%rbp), %r13
	shrq	$13, %r13
	.loc	3 257 33 is_stmt 0      # aes.c:257:33
	andq	$2040, %r13             # imm = 0x7F8
	leaq	rijndael_dec_it_tab+4096(%r13), %rdi
	movl	$303, %esi              # imm = 0x12F
	movl	$304, %edx              # imm = 0x130
	movl	$8, %ecx
	callq	_KLoad1
	movl	$305, %esi              # imm = 0x131
	movl	$8, %edx
	movq	-144(%rbp), %r14        # 8-byte Reload
	movq	%r14, %rdi
	callq	_KLoad0
	.loc	3 258 77 is_stmt 1      # aes.c:258:77
	movq	-104(%rbp), %rbx
	shrq	$21, %rbx
	.loc	3 258 33 is_stmt 0      # aes.c:258:33
	andq	$2040, %rbx             # imm = 0x7F8
	leaq	rijndael_dec_it_tab+6144(%rbx), %rdi
	movl	$306, %esi              # imm = 0x132
	movl	$307, %edx              # imm = 0x133
	movl	$8, %ecx
	callq	_KLoad1
	.loc	3 255 33 is_stmt 1      # aes.c:255:33
	xorq	rijndael_dec_it_tab(,%r15,8), %r12
	movq	-176(%rbp), %rax        # 8-byte Reload
	xorq	rijndael_dec_it_tab+2048(,%rax,8), %r12
	xorq	rijndael_dec_it_tab+4096(%r13), %r12
	.loc	3 255 15 is_stmt 0      # aes.c:255:15
	xorq	rijndael_dec_it_tab+6144(%rbx), %r12
	movl	$2, 48(%rsp)
	movl	$306, 40(%rsp)          # imm = 0x132
	movl	$4, 32(%rsp)
	movl	$14, 24(%rsp)
	movl	$3, 16(%rsp)
	movl	$303, 8(%rsp)           # imm = 0x12F
	movl	$4, (%rsp)
	movl	$308, %edi              # imm = 0x134
	movl	$295, %esi              # imm = 0x127
	movl	$1, %edx
	movl	$297, %ecx              # imm = 0x129
	movl	$4, %r8d
	movl	$300, %r9d              # imm = 0x12C
	callq	_KTimestamp6
	movl	$308, %edi              # imm = 0x134
	movl	$8, %edx
	leaq	-80(%rbp), %rsi
	callq	_KStore
	.loc	3 255 7                 # aes.c:255:7
	movq	%r12, -80(%rbp)
	movq	-128(%rbp), %r15        # 8-byte Reload
	movq	-120(%rbp), %rbx        # 8-byte Reload
.Ltmp224:
	#DEBUG_VALUE: rijndael_dec_decrypt:cx <- RBX
	.loc	3 259 15 is_stmt 1      # aes.c:259:15
	leaq	568(%rbx,%r15,8), %rdi
	movl	$309, %esi              # imm = 0x135
	movl	$8, %edx
	callq	_KLoad0
	movq	568(%rbx,%r15,8), %r12
.Ltmp225:
	#DEBUG_VALUE: rijndael_dec_decrypt:cx <- [RBP+-120]
	movl	$310, %esi              # imm = 0x136
	movl	$8, %edx
	movq	%r14, %rdi
	callq	_KLoad0
	.loc	3 259 75 is_stmt 0      # aes.c:259:75
	movzbl	-104(%rbp), %r15d
	.loc	3 259 33                # aes.c:259:33
	leaq	rijndael_dec_it_tab(,%r15,8), %rdi
	movl	$311, %esi              # imm = 0x137
	movl	$312, %edx              # imm = 0x138
	movl	$8, %ecx
	callq	_KLoad1
	movl	$313, %esi              # imm = 0x139
	movl	$8, %edx
	movq	-136(%rbp), %rdi        # 8-byte Reload
	callq	_KLoad0
	.loc	3 260 77 is_stmt 1      # aes.c:260:77
	movq	-112(%rbp), %rax
	.loc	3 260 33 is_stmt 0      # aes.c:260:33
	movzbl	%ah, %eax  # NOREX
	movq	%rax, -176(%rbp)        # 8-byte Spill
	leaq	rijndael_dec_it_tab+2048(,%rax,8), %rdi
	movl	$314, %esi              # imm = 0x13A
	movl	$315, %edx              # imm = 0x13B
	movl	$8, %ecx
	callq	_KLoad1
	movl	$316, %esi              # imm = 0x13C
	movl	$8, %edx
	movq	-160(%rbp), %rdi        # 8-byte Reload
	callq	_KLoad0
	.loc	3 261 77 is_stmt 1      # aes.c:261:77
	movq	-88(%rbp), %r13
	shrq	$13, %r13
	.loc	3 261 33 is_stmt 0      # aes.c:261:33
	andq	$2040, %r13             # imm = 0x7F8
	leaq	rijndael_dec_it_tab+4096(%r13), %rdi
	movl	$317, %esi              # imm = 0x13D
	movl	$318, %edx              # imm = 0x13E
	movl	$8, %ecx
	callq	_KLoad1
	movl	$319, %esi              # imm = 0x13F
	movl	$8, %edx
	movq	-152(%rbp), %r14        # 8-byte Reload
	movq	%r14, %rdi
	callq	_KLoad0
	.loc	3 262 77 is_stmt 1      # aes.c:262:77
	movq	-96(%rbp), %rbx
	shrq	$21, %rbx
	.loc	3 262 33 is_stmt 0      # aes.c:262:33
	andq	$2040, %rbx             # imm = 0x7F8
	leaq	rijndael_dec_it_tab+6144(%rbx), %rdi
	movl	$320, %esi              # imm = 0x140
	movl	$321, %edx              # imm = 0x141
	movl	$8, %ecx
	callq	_KLoad1
	.loc	3 259 33 is_stmt 1      # aes.c:259:33
	xorq	rijndael_dec_it_tab(,%r15,8), %r12
	movq	-176(%rbp), %rax        # 8-byte Reload
	xorq	rijndael_dec_it_tab+2048(,%rax,8), %r12
	xorq	rijndael_dec_it_tab+4096(%r13), %r12
	.loc	3 259 15 is_stmt 0      # aes.c:259:15
	xorq	rijndael_dec_it_tab+6144(%rbx), %r12
	movl	$2, 48(%rsp)
	movl	$320, 40(%rsp)          # imm = 0x140
	movl	$3, 32(%rsp)
	movl	$317, 24(%rsp)          # imm = 0x13D
	movl	$4, 16(%rsp)
	movl	$314, 8(%rsp)           # imm = 0x13A
	movl	$4, (%rsp)
	movl	$322, %edi              # imm = 0x142
	movl	$14, %esi
	movl	$4, %edx
	movl	$309, %ecx              # imm = 0x135
	movl	$1, %r8d
	movl	$311, %r9d              # imm = 0x137
	callq	_KTimestamp6
	movl	$322, %edi              # imm = 0x142
	movl	$8, %edx
.Ltmp226:
	.loc	3 164 3 is_stmt 1       # aes.c:164:3
	leaq	-72(%rbp), %rsi
	callq	_KStore
	.loc	3 259 7                 # aes.c:259:7
.Ltmp227:
	movq	%r12, -72(%rbp)
	movq	-128(%rbp), %r15        # 8-byte Reload
	movq	-120(%rbp), %rbx        # 8-byte Reload
.Ltmp228:
	#DEBUG_VALUE: rijndael_dec_decrypt:cx <- RBX
	.loc	3 263 15                # aes.c:263:15
	leaq	576(%rbx,%r15,8), %rdi
	movl	$323, %esi              # imm = 0x143
	movl	$8, %edx
	callq	_KLoad0
	movq	576(%rbx,%r15,8), %r12
.Ltmp229:
	#DEBUG_VALUE: rijndael_dec_decrypt:cx <- [RBP+-120]
	movl	$324, %esi              # imm = 0x144
	movl	$8, %edx
	movq	%r14, %rdi
	callq	_KLoad0
	.loc	3 263 75 is_stmt 0      # aes.c:263:75
	movzbl	-96(%rbp), %r15d
	.loc	3 263 33                # aes.c:263:33
	leaq	rijndael_dec_it_tab(,%r15,8), %rdi
	movl	$325, %esi              # imm = 0x145
	movl	$326, %edx              # imm = 0x146
	movl	$8, %ecx
	callq	_KLoad1
	movl	$327, %esi              # imm = 0x147
	movl	$8, %edx
	movq	-144(%rbp), %rdi        # 8-byte Reload
	callq	_KLoad0
	.loc	3 264 77 is_stmt 1      # aes.c:264:77
	movq	-104(%rbp), %rax
	.loc	3 264 33 is_stmt 0      # aes.c:264:33
	movzbl	%ah, %eax  # NOREX
	movq	%rax, -176(%rbp)        # 8-byte Spill
	leaq	rijndael_dec_it_tab+2048(,%rax,8), %rdi
	movl	$328, %esi              # imm = 0x148
	movl	$329, %edx              # imm = 0x149
	movl	$8, %ecx
	callq	_KLoad1
	movl	$330, %esi              # imm = 0x14A
	movl	$8, %edx
	movq	-136(%rbp), %rdi        # 8-byte Reload
	callq	_KLoad0
	.loc	3 265 77 is_stmt 1      # aes.c:265:77
	movq	-112(%rbp), %r13
	shrq	$13, %r13
	.loc	3 265 33 is_stmt 0      # aes.c:265:33
	andq	$2040, %r13             # imm = 0x7F8
	leaq	rijndael_dec_it_tab+4096(%r13), %rdi
	movl	$331, %esi              # imm = 0x14B
	movl	$332, %edx              # imm = 0x14C
	movl	$8, %ecx
	callq	_KLoad1
	movl	$333, %esi              # imm = 0x14D
	movl	$8, %edx
	movq	-160(%rbp), %r14        # 8-byte Reload
	movq	%r14, %rdi
	callq	_KLoad0
	.loc	3 266 77 is_stmt 1      # aes.c:266:77
	movq	-88(%rbp), %rbx
	shrq	$21, %rbx
	.loc	3 266 33 is_stmt 0      # aes.c:266:33
	andq	$2040, %rbx             # imm = 0x7F8
	leaq	rijndael_dec_it_tab+6144(%rbx), %rdi
	movl	$334, %esi              # imm = 0x14E
	movl	$335, %edx              # imm = 0x14F
	movl	$8, %ecx
	callq	_KLoad1
	.loc	3 263 33 is_stmt 1      # aes.c:263:33
	xorq	rijndael_dec_it_tab(,%r15,8), %r12
	movq	-176(%rbp), %rax        # 8-byte Reload
	xorq	rijndael_dec_it_tab+2048(,%rax,8), %r12
	xorq	rijndael_dec_it_tab+4096(%r13), %r12
	.loc	3 263 15 is_stmt 0      # aes.c:263:15
	xorq	rijndael_dec_it_tab+6144(%rbx), %r12
	movl	$2, 48(%rsp)
	movl	$334, 40(%rsp)          # imm = 0x14E
	movl	$3, 32(%rsp)
	movl	$331, 24(%rsp)          # imm = 0x14B
	movl	$4, 16(%rsp)
	movl	$328, 8(%rsp)           # imm = 0x148
	movl	$4, (%rsp)
	movl	$336, %edi              # imm = 0x150
	movl	$14, %esi
	movl	$4, %edx
	movl	$323, %ecx              # imm = 0x143
	movl	$1, %r8d
	movl	$325, %r9d              # imm = 0x145
	callq	_KTimestamp6
	movl	$336, %edi              # imm = 0x150
	movl	$8, %edx
.Ltmp230:
	.loc	3 165 3 is_stmt 1       # aes.c:165:3
	leaq	-64(%rbp), %rsi
	callq	_KStore
	.loc	3 263 7                 # aes.c:263:7
.Ltmp231:
	movq	%r12, -64(%rbp)
	movq	-128(%rbp), %r15        # 8-byte Reload
	movq	-120(%rbp), %rbx        # 8-byte Reload
.Ltmp232:
	#DEBUG_VALUE: rijndael_dec_decrypt:cx <- RBX
	.loc	3 267 15                # aes.c:267:15
	leaq	584(%rbx,%r15,8), %rdi
	movl	$337, %esi              # imm = 0x151
	movl	$8, %edx
	callq	_KLoad0
	movq	584(%rbx,%r15,8), %r12
.Ltmp233:
	#DEBUG_VALUE: rijndael_dec_decrypt:cx <- [RBP+-120]
	movl	$338, %esi              # imm = 0x152
	movl	$8, %edx
	movq	%r14, %rdi
	callq	_KLoad0
	.loc	3 267 75 is_stmt 0      # aes.c:267:75
	movzbl	-88(%rbp), %r15d
	.loc	3 267 33                # aes.c:267:33
	leaq	rijndael_dec_it_tab(,%r15,8), %rdi
	movl	$339, %esi              # imm = 0x153
	movl	$340, %edx              # imm = 0x154
	movl	$8, %ecx
	callq	_KLoad1
	movl	$341, %esi              # imm = 0x155
	movl	$8, %edx
	movq	-152(%rbp), %rdi        # 8-byte Reload
	callq	_KLoad0
	.loc	3 268 77 is_stmt 1      # aes.c:268:77
	movq	-96(%rbp), %rax
	.loc	3 268 33 is_stmt 0      # aes.c:268:33
	movzbl	%ah, %eax  # NOREX
	leaq	rijndael_dec_it_tab+2048(,%rax,8), %rdi
	movq	%rax, %r14
	movl	$342, %esi              # imm = 0x156
	movl	$343, %edx              # imm = 0x157
	movl	$8, %ecx
	callq	_KLoad1
	movl	$344, %esi              # imm = 0x158
	movl	$8, %edx
	movq	-144(%rbp), %rdi        # 8-byte Reload
	callq	_KLoad0
	.loc	3 269 77 is_stmt 1      # aes.c:269:77
	movq	-104(%rbp), %r13
	shrq	$13, %r13
	.loc	3 269 33 is_stmt 0      # aes.c:269:33
	andq	$2040, %r13             # imm = 0x7F8
	leaq	rijndael_dec_it_tab+4096(%r13), %rdi
	movl	$345, %esi              # imm = 0x159
	movl	$346, %edx              # imm = 0x15A
	movl	$8, %ecx
	callq	_KLoad1
	movl	$347, %esi              # imm = 0x15B
	movl	$8, %edx
	movq	-136(%rbp), %rdi        # 8-byte Reload
	callq	_KLoad0
	.loc	3 270 77 is_stmt 1      # aes.c:270:77
	movq	-112(%rbp), %rbx
	shrq	$21, %rbx
	.loc	3 270 33 is_stmt 0      # aes.c:270:33
	andq	$2040, %rbx             # imm = 0x7F8
	leaq	rijndael_dec_it_tab+6144(%rbx), %rdi
	movl	$348, %esi              # imm = 0x15C
	movl	$349, %edx              # imm = 0x15D
	movl	$8, %ecx
	callq	_KLoad1
	.loc	3 267 33 is_stmt 1      # aes.c:267:33
	xorq	rijndael_dec_it_tab(,%r15,8), %r12
	xorq	rijndael_dec_it_tab+2048(,%r14,8), %r12
	xorq	rijndael_dec_it_tab+4096(%r13), %r12
	.loc	3 267 15 is_stmt 0      # aes.c:267:15
	xorq	rijndael_dec_it_tab+6144(%rbx), %r12
	movl	$2, 48(%rsp)
	movl	$348, 40(%rsp)          # imm = 0x15C
	movl	$3, 32(%rsp)
	movl	$345, 24(%rsp)          # imm = 0x159
	movl	$4, 16(%rsp)
	movl	$342, 8(%rsp)           # imm = 0x156
	movl	$4, (%rsp)
	movl	$350, %edi              # imm = 0x15E
	movl	$14, %esi
	movl	$4, %edx
	movl	$337, %ecx              # imm = 0x151
	movl	$1, %r8d
	movl	$339, %r9d              # imm = 0x153
	callq	_KTimestamp6
	movl	$350, %edi              # imm = 0x15E
	movl	$8, %edx
.Ltmp234:
	.loc	3 166 3 is_stmt 1       # aes.c:166:3
	leaq	-56(%rbp), %r14
	movq	%r14, %rsi
	callq	_KStore
	.loc	3 267 7                 # aes.c:267:7
.Ltmp235:
	movq	%r12, -56(%rbp)
	movq	-128(%rbp), %r15        # 8-byte Reload
	movq	-120(%rbp), %rbx        # 8-byte Reload
.Ltmp236:
	#DEBUG_VALUE: rijndael_dec_decrypt:cx <- RBX
	.loc	3 271 17                # aes.c:271:17
	leaq	592(%rbx,%r15,8), %rdi
	movl	$351, %esi              # imm = 0x15F
	movl	$8, %edx
	callq	_KLoad0
	.loc	3 271 15 is_stmt 0      # aes.c:271:15
	movq	592(%rbx,%r15,8), %r12
.Ltmp237:
	#DEBUG_VALUE: rijndael_dec_decrypt:cx <- [RBP+-120]
	movl	$352, %esi              # imm = 0x160
	movl	$8, %edx
	leaq	-80(%rbp), %rax
	movq	%rax, %rdi
	callq	_KLoad0
	.loc	3 271 75                # aes.c:271:75
	movzbl	-80(%rbp), %r15d
	.loc	3 271 33                # aes.c:271:33
	leaq	rijndael_dec_it_tab(,%r15,8), %rdi
	movl	$353, %esi              # imm = 0x161
	movl	$354, %edx              # imm = 0x162
	movl	$8, %ecx
	callq	_KLoad1
	movl	$355, %esi              # imm = 0x163
	movl	$8, %edx
	movq	%r14, %rdi
	callq	_KLoad0
	.loc	3 272 77 is_stmt 1      # aes.c:272:77
	movq	-56(%rbp), %rax
	.loc	3 272 33 is_stmt 0      # aes.c:272:33
	movzbl	%ah, %eax  # NOREX
	movq	%rax, -176(%rbp)        # 8-byte Spill
	leaq	rijndael_dec_it_tab+2048(,%rax,8), %rdi
	movl	$356, %esi              # imm = 0x164
	movl	$357, %edx              # imm = 0x165
	movl	$8, %ecx
	callq	_KLoad1
	movl	$358, %esi              # imm = 0x166
	movl	$8, %edx
.Ltmp238:
	.loc	3 165 3 is_stmt 1       # aes.c:165:3
	leaq	-64(%rbp), %rdi
	callq	_KLoad0
	.loc	3 273 77                # aes.c:273:77
.Ltmp239:
	movq	-64(%rbp), %r13
	shrq	$13, %r13
	.loc	3 273 33 is_stmt 0      # aes.c:273:33
	andq	$2040, %r13             # imm = 0x7F8
	leaq	rijndael_dec_it_tab+4096(%r13), %rdi
	movl	$359, %esi              # imm = 0x167
	movl	$360, %edx              # imm = 0x168
	movl	$8, %ecx
	callq	_KLoad1
	movl	$361, %esi              # imm = 0x169
	movl	$8, %edx
.Ltmp240:
	.loc	3 164 3 is_stmt 1       # aes.c:164:3
	leaq	-72(%rbp), %r14
	movq	%r14, %rdi
	callq	_KLoad0
	.loc	3 274 77                # aes.c:274:77
.Ltmp241:
	movq	-72(%rbp), %rbx
	shrq	$21, %rbx
	.loc	3 274 33 is_stmt 0      # aes.c:274:33
	andq	$2040, %rbx             # imm = 0x7F8
	leaq	rijndael_dec_it_tab+6144(%rbx), %rdi
	movl	$362, %esi              # imm = 0x16A
	movl	$363, %edx              # imm = 0x16B
	movl	$8, %ecx
	callq	_KLoad1
	.loc	3 271 33 is_stmt 1      # aes.c:271:33
	xorq	rijndael_dec_it_tab(,%r15,8), %r12
	movq	-176(%rbp), %rax        # 8-byte Reload
	xorq	rijndael_dec_it_tab+2048(,%rax,8), %r12
	xorq	rijndael_dec_it_tab+4096(%r13), %r12
	.loc	3 271 15 is_stmt 0      # aes.c:271:15
	xorq	rijndael_dec_it_tab+6144(%rbx), %r12
	movl	$3, 48(%rsp)
	movl	$359, 40(%rsp)          # imm = 0x167
	movl	$4, 32(%rsp)
	movl	$356, 24(%rsp)          # imm = 0x164
	movl	$4, 16(%rsp)
	movl	$353, 8(%rsp)           # imm = 0x161
	movl	$1, (%rsp)
	movl	$364, %edi              # imm = 0x16C
	movl	$362, %esi              # imm = 0x16A
	movl	$2, %edx
	movl	$14, %ecx
	movl	$4, %r8d
	movl	$351, %r9d              # imm = 0x15F
	callq	_KTimestamp6
	movl	$364, %edi              # imm = 0x16C
	movl	$8, %edx
	movq	-136(%rbp), %rsi        # 8-byte Reload
	callq	_KStore
	.loc	3 271 7                 # aes.c:271:7
	movq	%r12, -112(%rbp)
	movq	-128(%rbp), %r15        # 8-byte Reload
	movq	-120(%rbp), %rbx        # 8-byte Reload
.Ltmp242:
	#DEBUG_VALUE: rijndael_dec_decrypt:cx <- RBX
	.loc	3 275 15 is_stmt 1      # aes.c:275:15
	leaq	600(%rbx,%r15,8), %rdi
	movl	$365, %esi              # imm = 0x16D
	movl	$8, %edx
	callq	_KLoad0
	movq	600(%rbx,%r15,8), %r12
.Ltmp243:
	#DEBUG_VALUE: rijndael_dec_decrypt:cx <- [RBP+-120]
	movl	$366, %esi              # imm = 0x16E
	movl	$8, %edx
	movq	%r14, %rdi
	callq	_KLoad0
	.loc	3 275 75 is_stmt 0      # aes.c:275:75
	movzbl	-72(%rbp), %r15d
	.loc	3 275 33                # aes.c:275:33
	leaq	rijndael_dec_it_tab(,%r15,8), %rdi
	movl	$367, %esi              # imm = 0x16F
	movl	$368, %edx              # imm = 0x170
	movl	$8, %ecx
	callq	_KLoad1
	movl	$369, %esi              # imm = 0x171
	movl	$8, %edx
	leaq	-80(%rbp), %rdi
	callq	_KLoad0
	.loc	3 276 77 is_stmt 1      # aes.c:276:77
	movq	-80(%rbp), %rax
	.loc	3 276 33 is_stmt 0      # aes.c:276:33
	movzbl	%ah, %eax  # NOREX
	movq	%rax, -176(%rbp)        # 8-byte Spill
	leaq	rijndael_dec_it_tab+2048(,%rax,8), %rdi
	movl	$370, %esi              # imm = 0x172
	movl	$371, %edx              # imm = 0x173
	movl	$8, %ecx
	callq	_KLoad1
	movl	$372, %esi              # imm = 0x174
	movl	$8, %edx
.Ltmp244:
	.loc	3 166 3 is_stmt 1       # aes.c:166:3
	leaq	-56(%rbp), %rdi
	callq	_KLoad0
	.loc	3 277 77                # aes.c:277:77
.Ltmp245:
	movq	-56(%rbp), %r13
	shrq	$13, %r13
	.loc	3 277 33 is_stmt 0      # aes.c:277:33
	andq	$2040, %r13             # imm = 0x7F8
	leaq	rijndael_dec_it_tab+4096(%r13), %rdi
	movl	$373, %esi              # imm = 0x175
	movl	$374, %edx              # imm = 0x176
	movl	$8, %ecx
	callq	_KLoad1
	movl	$375, %esi              # imm = 0x177
	movl	$8, %edx
.Ltmp246:
	.loc	3 165 3 is_stmt 1       # aes.c:165:3
	leaq	-64(%rbp), %r14
	movq	%r14, %rdi
	callq	_KLoad0
	.loc	3 278 77                # aes.c:278:77
.Ltmp247:
	movq	-64(%rbp), %rbx
	shrq	$21, %rbx
	.loc	3 278 33 is_stmt 0      # aes.c:278:33
	andq	$2040, %rbx             # imm = 0x7F8
	leaq	rijndael_dec_it_tab+6144(%rbx), %rdi
	movl	$376, %esi              # imm = 0x178
	movl	$377, %edx              # imm = 0x179
	movl	$8, %ecx
	callq	_KLoad1
	.loc	3 275 33 is_stmt 1      # aes.c:275:33
	xorq	rijndael_dec_it_tab(,%r15,8), %r12
	movq	-176(%rbp), %rax        # 8-byte Reload
	xorq	rijndael_dec_it_tab+2048(,%rax,8), %r12
	xorq	rijndael_dec_it_tab+4096(%r13), %r12
	.loc	3 275 15 is_stmt 0      # aes.c:275:15
	xorq	rijndael_dec_it_tab+6144(%rbx), %r12
	movl	$4, 48(%rsp)
	movl	$14, 40(%rsp)
	movl	$2, 32(%rsp)
	movl	$376, 24(%rsp)          # imm = 0x178
	movl	$3, 16(%rsp)
	movl	$373, 8(%rsp)           # imm = 0x175
	movl	$4, (%rsp)
	movl	$378, %edi              # imm = 0x17A
	movl	$365, %esi              # imm = 0x16D
	movl	$1, %edx
	movl	$367, %ecx              # imm = 0x16F
	movl	$4, %r8d
	movl	$370, %r9d              # imm = 0x172
	callq	_KTimestamp6
	movl	$378, %edi              # imm = 0x17A
	movl	$8, %edx
	movq	-144(%rbp), %rsi        # 8-byte Reload
	callq	_KStore
	.loc	3 275 7                 # aes.c:275:7
	movq	%r12, -104(%rbp)
	movq	-128(%rbp), %r15        # 8-byte Reload
	movq	-120(%rbp), %rbx        # 8-byte Reload
.Ltmp248:
	#DEBUG_VALUE: rijndael_dec_decrypt:cx <- RBX
	.loc	3 279 15 is_stmt 1      # aes.c:279:15
	leaq	608(%rbx,%r15,8), %rdi
	movl	$379, %esi              # imm = 0x17B
	movl	$8, %edx
	callq	_KLoad0
	movq	608(%rbx,%r15,8), %r12
.Ltmp249:
	#DEBUG_VALUE: rijndael_dec_decrypt:cx <- [RBP+-120]
	movl	$380, %esi              # imm = 0x17C
	movl	$8, %edx
	movq	%r14, %rdi
	callq	_KLoad0
	.loc	3 279 75 is_stmt 0      # aes.c:279:75
	movzbl	-64(%rbp), %r15d
	.loc	3 279 33                # aes.c:279:33
	leaq	rijndael_dec_it_tab(,%r15,8), %rdi
	movl	$381, %esi              # imm = 0x17D
	movl	$382, %edx              # imm = 0x17E
	movl	$8, %ecx
	callq	_KLoad1
	movl	$383, %esi              # imm = 0x17F
	movl	$8, %edx
.Ltmp250:
	.loc	3 164 3 is_stmt 1       # aes.c:164:3
	leaq	-72(%rbp), %rdi
	callq	_KLoad0
	.loc	3 280 77                # aes.c:280:77
.Ltmp251:
	movq	-72(%rbp), %rax
	.loc	3 280 33 is_stmt 0      # aes.c:280:33
	movzbl	%ah, %eax  # NOREX
	movq	%rax, -176(%rbp)        # 8-byte Spill
	leaq	rijndael_dec_it_tab+2048(,%rax,8), %rdi
	movl	$384, %esi              # imm = 0x180
	movl	$385, %edx              # imm = 0x181
	movl	$8, %ecx
	callq	_KLoad1
	movl	$386, %esi              # imm = 0x182
	movl	$8, %edx
	leaq	-80(%rbp), %rdi
	callq	_KLoad0
	.loc	3 281 77 is_stmt 1      # aes.c:281:77
	movq	-80(%rbp), %r13
	shrq	$13, %r13
	.loc	3 281 33 is_stmt 0      # aes.c:281:33
	andq	$2040, %r13             # imm = 0x7F8
	leaq	rijndael_dec_it_tab+4096(%r13), %rdi
	movl	$387, %esi              # imm = 0x183
	movl	$388, %edx              # imm = 0x184
	movl	$8, %ecx
	callq	_KLoad1
	movl	$389, %esi              # imm = 0x185
	movl	$8, %edx
.Ltmp252:
	.loc	3 166 3 is_stmt 1       # aes.c:166:3
	leaq	-56(%rbp), %r14
	movq	%r14, %rdi
	callq	_KLoad0
	.loc	3 282 77                # aes.c:282:77
.Ltmp253:
	movq	-56(%rbp), %rbx
	shrq	$21, %rbx
	.loc	3 282 33 is_stmt 0      # aes.c:282:33
	andq	$2040, %rbx             # imm = 0x7F8
	leaq	rijndael_dec_it_tab+6144(%rbx), %rdi
	movl	$390, %esi              # imm = 0x186
	movl	$391, %edx              # imm = 0x187
	movl	$8, %ecx
	callq	_KLoad1
	.loc	3 279 33 is_stmt 1      # aes.c:279:33
	xorq	rijndael_dec_it_tab(,%r15,8), %r12
	movq	-176(%rbp), %rax        # 8-byte Reload
	xorq	rijndael_dec_it_tab+2048(,%rax,8), %r12
	xorq	rijndael_dec_it_tab+4096(%r13), %r12
	.loc	3 279 15 is_stmt 0      # aes.c:279:15
	xorq	rijndael_dec_it_tab+6144(%rbx), %r12
	movl	$4, 48(%rsp)
	movl	$14, 40(%rsp)
	movl	$2, 32(%rsp)
	movl	$390, 24(%rsp)          # imm = 0x186
	movl	$3, 16(%rsp)
	movl	$387, 8(%rsp)           # imm = 0x183
	movl	$4, (%rsp)
	movl	$392, %edi              # imm = 0x188
	movl	$379, %esi              # imm = 0x17B
	movl	$1, %edx
	movl	$381, %ecx              # imm = 0x17D
	movl	$4, %r8d
	movl	$384, %r9d              # imm = 0x180
	callq	_KTimestamp6
	movl	$392, %edi              # imm = 0x188
	movl	$8, %edx
	movq	-152(%rbp), %rsi        # 8-byte Reload
	callq	_KStore
	.loc	3 279 7                 # aes.c:279:7
	movq	%r12, -96(%rbp)
	movq	-128(%rbp), %r15        # 8-byte Reload
	movq	-120(%rbp), %rbx        # 8-byte Reload
.Ltmp254:
	#DEBUG_VALUE: rijndael_dec_decrypt:cx <- RBX
	.loc	3 283 15 is_stmt 1      # aes.c:283:15
	leaq	616(%rbx,%r15,8), %rdi
	movl	$393, %esi              # imm = 0x189
	movl	$8, %edx
	callq	_KLoad0
	movq	616(%rbx,%r15,8), %r12
.Ltmp255:
	#DEBUG_VALUE: rijndael_dec_decrypt:cx <- [RBP+-120]
	movl	$394, %esi              # imm = 0x18A
	movl	$8, %edx
	movq	%r14, %rdi
	callq	_KLoad0
	.loc	3 283 75 is_stmt 0      # aes.c:283:75
	movzbl	-56(%rbp), %r15d
	.loc	3 283 33                # aes.c:283:33
	leaq	rijndael_dec_it_tab(,%r15,8), %rdi
	movl	$395, %esi              # imm = 0x18B
	movl	$396, %edx              # imm = 0x18C
	movl	$8, %ecx
	callq	_KLoad1
	movl	$397, %esi              # imm = 0x18D
	movl	$8, %edx
.Ltmp256:
	.loc	3 165 3 is_stmt 1       # aes.c:165:3
	leaq	-64(%rbp), %rdi
	callq	_KLoad0
	.loc	3 284 77                # aes.c:284:77
.Ltmp257:
	movq	-64(%rbp), %rax
	.loc	3 284 33 is_stmt 0      # aes.c:284:33
	movzbl	%ah, %eax  # NOREX
	leaq	rijndael_dec_it_tab+2048(,%rax,8), %rdi
	movq	%rax, %r14
	movl	$398, %esi              # imm = 0x18E
	movl	$399, %edx              # imm = 0x18F
	movl	$8, %ecx
	callq	_KLoad1
	movl	$400, %esi              # imm = 0x190
	movl	$8, %edx
.Ltmp258:
	.loc	3 164 3 is_stmt 1       # aes.c:164:3
	leaq	-72(%rbp), %rdi
	callq	_KLoad0
	.loc	3 285 77                # aes.c:285:77
.Ltmp259:
	movq	-72(%rbp), %r13
	shrq	$13, %r13
	.loc	3 285 33 is_stmt 0      # aes.c:285:33
	andq	$2040, %r13             # imm = 0x7F8
	leaq	rijndael_dec_it_tab+4096(%r13), %rdi
	movl	$401, %esi              # imm = 0x191
	movl	$402, %edx              # imm = 0x192
	movl	$8, %ecx
	callq	_KLoad1
	movl	$403, %esi              # imm = 0x193
	movl	$8, %edx
	leaq	-80(%rbp), %rdi
	callq	_KLoad0
	.loc	3 286 77 is_stmt 1      # aes.c:286:77
	movq	-80(%rbp), %rbx
	shrq	$21, %rbx
	.loc	3 286 33 is_stmt 0      # aes.c:286:33
	andq	$2040, %rbx             # imm = 0x7F8
	leaq	rijndael_dec_it_tab+6144(%rbx), %rdi
	movl	$404, %esi              # imm = 0x194
	movl	$405, %edx              # imm = 0x195
	movl	$8, %ecx
	callq	_KLoad1
	.loc	3 283 33 is_stmt 1      # aes.c:283:33
	xorq	rijndael_dec_it_tab(,%r15,8), %r12
	xorq	rijndael_dec_it_tab+2048(,%r14,8), %r12
	xorq	rijndael_dec_it_tab+4096(%r13), %r12
	.loc	3 283 15 is_stmt 0      # aes.c:283:15
	xorq	rijndael_dec_it_tab+6144(%rbx), %r12
	movl	$4, 48(%rsp)
	movl	$14, 40(%rsp)
	movl	$2, 32(%rsp)
	movl	$404, 24(%rsp)          # imm = 0x194
	movl	$3, 16(%rsp)
	movl	$401, 8(%rsp)           # imm = 0x191
	movl	$4, (%rsp)
	movl	$406, %edi              # imm = 0x196
	movl	$393, %esi              # imm = 0x189
	movl	$1, %edx
	movl	$395, %ecx              # imm = 0x18B
	movl	$4, %r8d
	movl	$398, %r9d              # imm = 0x18E
	callq	_KTimestamp6
	movl	$406, %edi              # imm = 0x196
	movl	$8, %edx
	movq	-160(%rbp), %r14        # 8-byte Reload
	movq	%r14, %rsi
	callq	_KStore
	.loc	3 283 7                 # aes.c:283:7
	movq	%r12, -88(%rbp)
	movq	-128(%rbp), %r15        # 8-byte Reload
	movq	-120(%rbp), %rbx        # 8-byte Reload
.Ltmp260:
	#DEBUG_VALUE: rijndael_dec_decrypt:cx <- RBX
	.loc	3 287 17 is_stmt 1      # aes.c:287:17
	leaq	624(%rbx,%r15,8), %rdi
	movl	$407, %esi              # imm = 0x197
	movl	$8, %edx
	callq	_KLoad0
	.loc	3 287 15 is_stmt 0      # aes.c:287:15
	movq	624(%rbx,%r15,8), %r12
.Ltmp261:
	#DEBUG_VALUE: rijndael_dec_decrypt:cx <- [RBP+-120]
	movl	$408, %esi              # imm = 0x198
	movl	$8, %edx
	movq	-136(%rbp), %rdi        # 8-byte Reload
	callq	_KLoad0
	.loc	3 287 76                # aes.c:287:76
	movzbl	-112(%rbp), %r15d
	.loc	3 287 34                # aes.c:287:34
	leaq	rijndael_dec_it_tab(,%r15,8), %rdi
	movl	$409, %esi              # imm = 0x199
	movl	$410, %edx              # imm = 0x19A
	movl	$8, %ecx
	callq	_KLoad1
	movl	$411, %esi              # imm = 0x19B
	movl	$8, %edx
	movq	%r14, %rdi
	callq	_KLoad0
	.loc	3 288 78 is_stmt 1      # aes.c:288:78
	movq	-88(%rbp), %rax
	.loc	3 288 34 is_stmt 0      # aes.c:288:34
	movzbl	%ah, %eax  # NOREX
	movq	%rax, -176(%rbp)        # 8-byte Spill
	leaq	rijndael_dec_it_tab+2048(,%rax,8), %rdi
	movl	$412, %esi              # imm = 0x19C
	movl	$413, %edx              # imm = 0x19D
	movl	$8, %ecx
	callq	_KLoad1
	movl	$414, %esi              # imm = 0x19E
	movl	$8, %edx
	movq	-152(%rbp), %rdi        # 8-byte Reload
	callq	_KLoad0
	.loc	3 289 78 is_stmt 1      # aes.c:289:78
	movq	-96(%rbp), %r13
	shrq	$13, %r13
	.loc	3 289 34 is_stmt 0      # aes.c:289:34
	andq	$2040, %r13             # imm = 0x7F8
	leaq	rijndael_dec_it_tab+4096(%r13), %rdi
	movl	$415, %esi              # imm = 0x19F
	movl	$416, %edx              # imm = 0x1A0
	movl	$8, %ecx
	callq	_KLoad1
	movl	$417, %esi              # imm = 0x1A1
	movl	$8, %edx
	movq	-144(%rbp), %r14        # 8-byte Reload
	movq	%r14, %rdi
	callq	_KLoad0
	.loc	3 290 78 is_stmt 1      # aes.c:290:78
	movq	-104(%rbp), %rbx
	shrq	$21, %rbx
	.loc	3 290 34 is_stmt 0      # aes.c:290:34
	andq	$2040, %rbx             # imm = 0x7F8
	leaq	rijndael_dec_it_tab+6144(%rbx), %rdi
	movl	$418, %esi              # imm = 0x1A2
	movl	$419, %edx              # imm = 0x1A3
	movl	$8, %ecx
	callq	_KLoad1
	.loc	3 287 34 is_stmt 1      # aes.c:287:34
	xorq	rijndael_dec_it_tab(,%r15,8), %r12
	movq	-176(%rbp), %rax        # 8-byte Reload
	xorq	rijndael_dec_it_tab+2048(,%rax,8), %r12
	xorq	rijndael_dec_it_tab+4096(%r13), %r12
	.loc	3 287 15 is_stmt 0      # aes.c:287:15
	xorq	rijndael_dec_it_tab+6144(%rbx), %r12
	movl	$4, 48(%rsp)
	movl	$14, 40(%rsp)
	movl	$2, 32(%rsp)
	movl	$418, 24(%rsp)          # imm = 0x1A2
	movl	$3, 16(%rsp)
	movl	$415, 8(%rsp)           # imm = 0x19F
	movl	$4, (%rsp)
	movl	$420, %edi              # imm = 0x1A4
	movl	$407, %esi              # imm = 0x197
	movl	$1, %edx
	movl	$409, %ecx              # imm = 0x199
	movl	$4, %r8d
	movl	$412, %r9d              # imm = 0x19C
	callq	_KTimestamp6
	movl	$420, %edi              # imm = 0x1A4
	movl	$8, %edx
	leaq	-80(%rbp), %rsi
	callq	_KStore
	.loc	3 287 7                 # aes.c:287:7
	movq	%r12, -80(%rbp)
	movq	-128(%rbp), %r15        # 8-byte Reload
	movq	-120(%rbp), %rbx        # 8-byte Reload
.Ltmp262:
	#DEBUG_VALUE: rijndael_dec_decrypt:cx <- RBX
	.loc	3 291 15 is_stmt 1      # aes.c:291:15
	leaq	632(%rbx,%r15,8), %rdi
	movl	$421, %esi              # imm = 0x1A5
	movl	$8, %edx
	callq	_KLoad0
	movq	632(%rbx,%r15,8), %r12
.Ltmp263:
	#DEBUG_VALUE: rijndael_dec_decrypt:cx <- [RBP+-120]
	movl	$422, %esi              # imm = 0x1A6
	movl	$8, %edx
	movq	%r14, %rdi
	callq	_KLoad0
	.loc	3 291 76 is_stmt 0      # aes.c:291:76
	movzbl	-104(%rbp), %r15d
	.loc	3 291 34                # aes.c:291:34
	leaq	rijndael_dec_it_tab(,%r15,8), %rdi
	movl	$423, %esi              # imm = 0x1A7
	movl	$424, %edx              # imm = 0x1A8
	movl	$8, %ecx
	callq	_KLoad1
	movl	$425, %esi              # imm = 0x1A9
	movl	$8, %edx
	movq	-136(%rbp), %rdi        # 8-byte Reload
	callq	_KLoad0
	.loc	3 292 78 is_stmt 1      # aes.c:292:78
	movq	-112(%rbp), %rax
	.loc	3 292 34 is_stmt 0      # aes.c:292:34
	movzbl	%ah, %eax  # NOREX
	movq	%rax, -176(%rbp)        # 8-byte Spill
	leaq	rijndael_dec_it_tab+2048(,%rax,8), %rdi
	movl	$426, %esi              # imm = 0x1AA
	movl	$427, %edx              # imm = 0x1AB
	movl	$8, %ecx
	callq	_KLoad1
	movl	$428, %esi              # imm = 0x1AC
	movl	$8, %edx
	movq	-160(%rbp), %rdi        # 8-byte Reload
	callq	_KLoad0
	.loc	3 293 78 is_stmt 1      # aes.c:293:78
	movq	-88(%rbp), %r13
	shrq	$13, %r13
	.loc	3 293 34 is_stmt 0      # aes.c:293:34
	andq	$2040, %r13             # imm = 0x7F8
	leaq	rijndael_dec_it_tab+4096(%r13), %rdi
	movl	$429, %esi              # imm = 0x1AD
	movl	$430, %edx              # imm = 0x1AE
	movl	$8, %ecx
	callq	_KLoad1
	movl	$431, %esi              # imm = 0x1AF
	movl	$8, %edx
	movq	-152(%rbp), %rdi        # 8-byte Reload
	movq	%rdi, %r14
	callq	_KLoad0
	.loc	3 294 78 is_stmt 1      # aes.c:294:78
	movq	-96(%rbp), %rbx
	shrq	$21, %rbx
	.loc	3 294 34 is_stmt 0      # aes.c:294:34
	andq	$2040, %rbx             # imm = 0x7F8
	leaq	rijndael_dec_it_tab+6144(%rbx), %rdi
	movl	$432, %esi              # imm = 0x1B0
	movl	$433, %edx              # imm = 0x1B1
	movl	$8, %ecx
	callq	_KLoad1
	.loc	3 291 34 is_stmt 1      # aes.c:291:34
	xorq	rijndael_dec_it_tab(,%r15,8), %r12
	movq	-176(%rbp), %rax        # 8-byte Reload
	xorq	rijndael_dec_it_tab+2048(,%rax,8), %r12
	xorq	rijndael_dec_it_tab+4096(%r13), %r12
	.loc	3 291 15 is_stmt 0      # aes.c:291:15
	xorq	rijndael_dec_it_tab+6144(%rbx), %r12
	movl	$4, 48(%rsp)
	movl	$14, 40(%rsp)
	movl	$2, 32(%rsp)
	movl	$432, 24(%rsp)          # imm = 0x1B0
	movl	$3, 16(%rsp)
	movl	$429, 8(%rsp)           # imm = 0x1AD
	movl	$4, (%rsp)
	movl	$434, %edi              # imm = 0x1B2
	movl	$421, %esi              # imm = 0x1A5
	movl	$1, %edx
	movl	$423, %ecx              # imm = 0x1A7
	movl	$4, %r8d
	movl	$426, %r9d              # imm = 0x1AA
	callq	_KTimestamp6
	movl	$434, %edi              # imm = 0x1B2
	movl	$8, %edx
.Ltmp264:
	.loc	3 164 3 is_stmt 1       # aes.c:164:3
	leaq	-72(%rbp), %rsi
	callq	_KStore
	.loc	3 291 7                 # aes.c:291:7
.Ltmp265:
	movq	%r12, -72(%rbp)
	movq	-128(%rbp), %r15        # 8-byte Reload
	movq	-120(%rbp), %rbx        # 8-byte Reload
.Ltmp266:
	#DEBUG_VALUE: rijndael_dec_decrypt:cx <- RBX
	.loc	3 295 15                # aes.c:295:15
	leaq	640(%rbx,%r15,8), %rdi
	movl	$435, %esi              # imm = 0x1B3
	movl	$8, %edx
	callq	_KLoad0
	movq	640(%rbx,%r15,8), %r12
.Ltmp267:
	#DEBUG_VALUE: rijndael_dec_decrypt:cx <- [RBP+-120]
	movl	$436, %esi              # imm = 0x1B4
	movl	$8, %edx
	movq	%r14, %rdi
	callq	_KLoad0
	.loc	3 295 76 is_stmt 0      # aes.c:295:76
	movzbl	-96(%rbp), %r15d
	.loc	3 295 34                # aes.c:295:34
	leaq	rijndael_dec_it_tab(,%r15,8), %rdi
	movl	$437, %esi              # imm = 0x1B5
	movl	$438, %edx              # imm = 0x1B6
	movl	$8, %ecx
	callq	_KLoad1
	movl	$439, %esi              # imm = 0x1B7
	movl	$8, %edx
	movq	-144(%rbp), %rdi        # 8-byte Reload
	callq	_KLoad0
	.loc	3 296 78 is_stmt 1      # aes.c:296:78
	movq	-104(%rbp), %rax
	.loc	3 296 34 is_stmt 0      # aes.c:296:34
	movzbl	%ah, %eax  # NOREX
	movq	%rax, -176(%rbp)        # 8-byte Spill
	leaq	rijndael_dec_it_tab+2048(,%rax,8), %rdi
	movl	$440, %esi              # imm = 0x1B8
	movl	$441, %edx              # imm = 0x1B9
	movl	$8, %ecx
	callq	_KLoad1
	movl	$442, %esi              # imm = 0x1BA
	movl	$8, %edx
	movq	-136(%rbp), %rdi        # 8-byte Reload
	callq	_KLoad0
	.loc	3 297 78 is_stmt 1      # aes.c:297:78
	movq	-112(%rbp), %r13
	shrq	$13, %r13
	.loc	3 297 34 is_stmt 0      # aes.c:297:34
	andq	$2040, %r13             # imm = 0x7F8
	leaq	rijndael_dec_it_tab+4096(%r13), %rdi
	movl	$443, %esi              # imm = 0x1BB
	movl	$444, %edx              # imm = 0x1BC
	movl	$8, %ecx
	callq	_KLoad1
	movl	$445, %esi              # imm = 0x1BD
	movl	$8, %edx
	movq	-160(%rbp), %r14        # 8-byte Reload
	movq	%r14, %rdi
	callq	_KLoad0
	.loc	3 298 78 is_stmt 1      # aes.c:298:78
	movq	-88(%rbp), %rbx
	shrq	$21, %rbx
	.loc	3 298 34 is_stmt 0      # aes.c:298:34
	andq	$2040, %rbx             # imm = 0x7F8
	leaq	rijndael_dec_it_tab+6144(%rbx), %rdi
	movl	$446, %esi              # imm = 0x1BE
	movl	$447, %edx              # imm = 0x1BF
	movl	$8, %ecx
	callq	_KLoad1
	.loc	3 295 34 is_stmt 1      # aes.c:295:34
	xorq	rijndael_dec_it_tab(,%r15,8), %r12
	movq	-176(%rbp), %rax        # 8-byte Reload
	xorq	rijndael_dec_it_tab+2048(,%rax,8), %r12
	xorq	rijndael_dec_it_tab+4096(%r13), %r12
	.loc	3 295 15 is_stmt 0      # aes.c:295:15
	xorq	rijndael_dec_it_tab+6144(%rbx), %r12
	movl	$2, 48(%rsp)
	movl	$446, 40(%rsp)          # imm = 0x1BE
	movl	$3, 32(%rsp)
	movl	$443, 24(%rsp)          # imm = 0x1BB
	movl	$4, 16(%rsp)
	movl	$14, 8(%rsp)
	movl	$4, (%rsp)
	movl	$448, %edi              # imm = 0x1C0
	movl	$435, %esi              # imm = 0x1B3
	movl	$1, %edx
	movl	$437, %ecx              # imm = 0x1B5
	movl	$4, %r8d
	movl	$440, %r9d              # imm = 0x1B8
	callq	_KTimestamp6
	movl	$448, %edi              # imm = 0x1C0
	movl	$8, %edx
.Ltmp268:
	.loc	3 165 3 is_stmt 1       # aes.c:165:3
	leaq	-64(%rbp), %rsi
	callq	_KStore
	.loc	3 295 7                 # aes.c:295:7
.Ltmp269:
	movq	%r12, -64(%rbp)
	movq	-120(%rbp), %r15        # 8-byte Reload
.Ltmp270:
	#DEBUG_VALUE: rijndael_dec_decrypt:cx <- R15
	movq	-128(%rbp), %rbx        # 8-byte Reload
	.loc	3 299 15                # aes.c:299:15
	leaq	648(%r15,%rbx,8), %rdi
	movl	$449, %esi              # imm = 0x1C1
	movl	$8, %edx
	callq	_KLoad0
	movq	648(%r15,%rbx,8), %r12
.Ltmp271:
	#DEBUG_VALUE: rijndael_dec_decrypt:cx <- [RBP+-120]
	movl	$450, %esi              # imm = 0x1C2
	movl	$8, %edx
	movq	%r14, %rdi
	callq	_KLoad0
	.loc	3 299 76 is_stmt 0      # aes.c:299:76
	movzbl	-88(%rbp), %r15d
	.loc	3 299 34                # aes.c:299:34
	leaq	rijndael_dec_it_tab(,%r15,8), %rdi
	movl	$451, %esi              # imm = 0x1C3
	movl	$452, %edx              # imm = 0x1C4
	movl	$8, %ecx
	callq	_KLoad1
	movl	$453, %esi              # imm = 0x1C5
	movl	$8, %edx
	movq	-152(%rbp), %rdi        # 8-byte Reload
	callq	_KLoad0
	.loc	3 300 78 is_stmt 1      # aes.c:300:78
	movq	-96(%rbp), %rax
	.loc	3 300 34 is_stmt 0      # aes.c:300:34
	movzbl	%ah, %eax  # NOREX
	leaq	rijndael_dec_it_tab+2048(,%rax,8), %rdi
	movq	%rax, %r14
	movl	$454, %esi              # imm = 0x1C6
	movl	$455, %edx              # imm = 0x1C7
	movl	$8, %ecx
	callq	_KLoad1
	movl	$456, %esi              # imm = 0x1C8
	movl	$8, %edx
	movq	-144(%rbp), %rdi        # 8-byte Reload
	callq	_KLoad0
	.loc	3 301 78 is_stmt 1      # aes.c:301:78
	movq	-104(%rbp), %r13
	shrq	$13, %r13
	.loc	3 301 34 is_stmt 0      # aes.c:301:34
	andq	$2040, %r13             # imm = 0x7F8
	leaq	rijndael_dec_it_tab+4096(%r13), %rdi
	movl	$457, %esi              # imm = 0x1C9
	movl	$458, %edx              # imm = 0x1CA
	movl	$8, %ecx
	callq	_KLoad1
	movl	$459, %esi              # imm = 0x1CB
	movl	$8, %edx
	movq	-136(%rbp), %rdi        # 8-byte Reload
	callq	_KLoad0
	.loc	3 302 78 is_stmt 1      # aes.c:302:78
	movq	-112(%rbp), %rbx
	shrq	$21, %rbx
	.loc	3 302 34 is_stmt 0      # aes.c:302:34
	andq	$2040, %rbx             # imm = 0x7F8
	leaq	rijndael_dec_it_tab+6144(%rbx), %rdi
	movl	$460, %esi              # imm = 0x1CC
	movl	$461, %edx              # imm = 0x1CD
	movl	$8, %ecx
	callq	_KLoad1
	.loc	3 299 34 is_stmt 1      # aes.c:299:34
	xorq	rijndael_dec_it_tab(,%r15,8), %r12
	xorq	rijndael_dec_it_tab+2048(,%r14,8), %r12
	xorq	rijndael_dec_it_tab+4096(%r13), %r12
	.loc	3 299 15 is_stmt 0      # aes.c:299:15
	xorq	rijndael_dec_it_tab+6144(%rbx), %r12
	movl	$2, 48(%rsp)
	movl	$460, 40(%rsp)          # imm = 0x1CC
	movl	$3, 32(%rsp)
	movl	$457, 24(%rsp)          # imm = 0x1C9
	movl	$4, 16(%rsp)
	movl	$454, 8(%rsp)           # imm = 0x1C6
	movl	$4, (%rsp)
	movl	$462, %edi              # imm = 0x1CE
	movl	$14, %esi
	movl	$4, %edx
	movl	$449, %ecx              # imm = 0x1C1
	movl	$1, %r8d
	movl	$451, %r9d              # imm = 0x1C3
	callq	_KTimestamp6
	movl	$462, %edi              # imm = 0x1CE
	movl	$8, %edx
.Ltmp272:
	.loc	3 166 3 is_stmt 1       # aes.c:166:3
	leaq	-56(%rbp), %r13
	movq	%r13, %rsi
	callq	_KStore
	.loc	3 299 7                 # aes.c:299:7
.Ltmp273:
	movq	%r12, -56(%rbp)
	movq	-128(%rbp), %r14        # 8-byte Reload
	movq	-120(%rbp), %rbx        # 8-byte Reload
.Ltmp274:
	#DEBUG_VALUE: rijndael_dec_decrypt:cx <- RBX
	.loc	3 303 17                # aes.c:303:17
	leaq	656(%rbx,%r14,8), %rdi
	movl	$463, %esi              # imm = 0x1CF
	movl	$8, %edx
	callq	_KLoad0
	.loc	3 303 15 is_stmt 0      # aes.c:303:15
	movq	656(%rbx,%r14,8), %r12
.Ltmp275:
	#DEBUG_VALUE: rijndael_dec_decrypt:cx <- [RBP+-120]
	movl	$464, %esi              # imm = 0x1D0
	movl	$8, %edx
	leaq	-80(%rbp), %r14
	movq	%r14, %rdi
	callq	_KLoad0
	.loc	3 303 76                # aes.c:303:76
	movzbl	-80(%rbp), %r15d
	.loc	3 303 34                # aes.c:303:34
	leaq	rijndael_dec_it_tab(,%r15,8), %rdi
	movl	$465, %esi              # imm = 0x1D1
	movl	$466, %edx              # imm = 0x1D2
	movl	$8, %ecx
	callq	_KLoad1
	movl	$467, %esi              # imm = 0x1D3
	movl	$8, %edx
	movq	%r13, %rdi
	callq	_KLoad0
	.loc	3 304 78 is_stmt 1      # aes.c:304:78
	movq	-56(%rbp), %rax
	.loc	3 304 34 is_stmt 0      # aes.c:304:34
	movzbl	%ah, %eax  # NOREX
	movq	%rax, -176(%rbp)        # 8-byte Spill
	leaq	rijndael_dec_it_tab+2048(,%rax,8), %rdi
	movl	$468, %esi              # imm = 0x1D4
	movl	$469, %edx              # imm = 0x1D5
	movl	$8, %ecx
	callq	_KLoad1
	movl	$470, %esi              # imm = 0x1D6
	movl	$8, %edx
.Ltmp276:
	.loc	3 165 3 is_stmt 1       # aes.c:165:3
	leaq	-64(%rbp), %rdi
	callq	_KLoad0
	.loc	3 305 78                # aes.c:305:78
.Ltmp277:
	movq	-64(%rbp), %r13
	shrq	$13, %r13
	.loc	3 305 34 is_stmt 0      # aes.c:305:34
	andq	$2040, %r13             # imm = 0x7F8
	leaq	rijndael_dec_it_tab+4096(%r13), %rdi
	movl	$471, %esi              # imm = 0x1D7
	movl	$472, %edx              # imm = 0x1D8
	movl	$8, %ecx
	callq	_KLoad1
	movl	$473, %esi              # imm = 0x1D9
	movl	$8, %edx
.Ltmp278:
	.loc	3 164 3 is_stmt 1       # aes.c:164:3
	leaq	-72(%rbp), %r14
	movq	%r14, %rdi
	callq	_KLoad0
	.loc	3 306 78                # aes.c:306:78
.Ltmp279:
	movq	-72(%rbp), %rbx
	shrq	$21, %rbx
	.loc	3 306 34 is_stmt 0      # aes.c:306:34
	andq	$2040, %rbx             # imm = 0x7F8
	leaq	rijndael_dec_it_tab+6144(%rbx), %rdi
	movl	$474, %esi              # imm = 0x1DA
	movl	$475, %edx              # imm = 0x1DB
	movl	$8, %ecx
	callq	_KLoad1
	.loc	3 303 34 is_stmt 1      # aes.c:303:34
	xorq	rijndael_dec_it_tab(,%r15,8), %r12
	movq	-176(%rbp), %rax        # 8-byte Reload
	xorq	rijndael_dec_it_tab+2048(,%rax,8), %r12
	xorq	rijndael_dec_it_tab+4096(%r13), %r12
	.loc	3 303 15 is_stmt 0      # aes.c:303:15
	xorq	rijndael_dec_it_tab+6144(%rbx), %r12
	movl	$2, 48(%rsp)
	movl	$474, 40(%rsp)          # imm = 0x1DA
	movl	$3, 32(%rsp)
	movl	$471, 24(%rsp)          # imm = 0x1D7
	movl	$4, 16(%rsp)
	movl	$468, 8(%rsp)           # imm = 0x1D4
	movl	$4, (%rsp)
	movl	$476, %edi              # imm = 0x1DC
	movl	$14, %esi
	movl	$4, %edx
	movl	$463, %ecx              # imm = 0x1CF
	movl	$1, %r8d
	movl	$465, %r9d              # imm = 0x1D1
	callq	_KTimestamp6
	movl	$476, %edi              # imm = 0x1DC
	movl	$8, %edx
	movq	-136(%rbp), %rsi        # 8-byte Reload
	callq	_KStore
	.loc	3 303 7                 # aes.c:303:7
	movq	%r12, -112(%rbp)
	movq	-128(%rbp), %r15        # 8-byte Reload
	movq	-120(%rbp), %rbx        # 8-byte Reload
.Ltmp280:
	#DEBUG_VALUE: rijndael_dec_decrypt:cx <- RBX
	.loc	3 307 15 is_stmt 1      # aes.c:307:15
	leaq	664(%rbx,%r15,8), %rdi
	movl	$477, %esi              # imm = 0x1DD
	movl	$8, %edx
	callq	_KLoad0
	movq	664(%rbx,%r15,8), %r12
.Ltmp281:
	#DEBUG_VALUE: rijndael_dec_decrypt:cx <- [RBP+-120]
	movl	$478, %esi              # imm = 0x1DE
	movl	$8, %edx
	movq	%r14, %rdi
	callq	_KLoad0
	.loc	3 307 76 is_stmt 0      # aes.c:307:76
	movzbl	-72(%rbp), %r15d
	.loc	3 307 34                # aes.c:307:34
	leaq	rijndael_dec_it_tab(,%r15,8), %rdi
	movl	$479, %esi              # imm = 0x1DF
	movl	$480, %edx              # imm = 0x1E0
	movl	$8, %ecx
	callq	_KLoad1
	movl	$481, %esi              # imm = 0x1E1
	movl	$8, %edx
	leaq	-80(%rbp), %rdi
	callq	_KLoad0
	.loc	3 308 78 is_stmt 1      # aes.c:308:78
	movq	-80(%rbp), %rax
	.loc	3 308 34 is_stmt 0      # aes.c:308:34
	movzbl	%ah, %eax  # NOREX
	movq	%rax, -176(%rbp)        # 8-byte Spill
	leaq	rijndael_dec_it_tab+2048(,%rax,8), %rdi
	movl	$482, %esi              # imm = 0x1E2
	movl	$483, %edx              # imm = 0x1E3
	movl	$8, %ecx
	callq	_KLoad1
	movl	$484, %esi              # imm = 0x1E4
	movl	$8, %edx
.Ltmp282:
	.loc	3 166 3 is_stmt 1       # aes.c:166:3
	leaq	-56(%rbp), %rdi
	callq	_KLoad0
	.loc	3 309 78                # aes.c:309:78
.Ltmp283:
	movq	-56(%rbp), %r13
	shrq	$13, %r13
	.loc	3 309 34 is_stmt 0      # aes.c:309:34
	andq	$2040, %r13             # imm = 0x7F8
	leaq	rijndael_dec_it_tab+4096(%r13), %rdi
	movl	$485, %esi              # imm = 0x1E5
	movl	$486, %edx              # imm = 0x1E6
	movl	$8, %ecx
	callq	_KLoad1
	movl	$487, %esi              # imm = 0x1E7
	movl	$8, %edx
.Ltmp284:
	.loc	3 165 3 is_stmt 1       # aes.c:165:3
	leaq	-64(%rbp), %r14
	movq	%r14, %rdi
	callq	_KLoad0
	.loc	3 310 78                # aes.c:310:78
.Ltmp285:
	movq	-64(%rbp), %rbx
	shrq	$21, %rbx
	.loc	3 310 34 is_stmt 0      # aes.c:310:34
	andq	$2040, %rbx             # imm = 0x7F8
	leaq	rijndael_dec_it_tab+6144(%rbx), %rdi
	movl	$488, %esi              # imm = 0x1E8
	movl	$489, %edx              # imm = 0x1E9
	movl	$8, %ecx
	callq	_KLoad1
	.loc	3 307 34 is_stmt 1      # aes.c:307:34
	xorq	rijndael_dec_it_tab(,%r15,8), %r12
	movq	-176(%rbp), %rax        # 8-byte Reload
	xorq	rijndael_dec_it_tab+2048(,%rax,8), %r12
	xorq	rijndael_dec_it_tab+4096(%r13), %r12
	.loc	3 307 15 is_stmt 0      # aes.c:307:15
	xorq	rijndael_dec_it_tab+6144(%rbx), %r12
	movl	$2, 48(%rsp)
	movl	$488, 40(%rsp)          # imm = 0x1E8
	movl	$3, 32(%rsp)
	movl	$485, 24(%rsp)          # imm = 0x1E5
	movl	$4, 16(%rsp)
	movl	$482, 8(%rsp)           # imm = 0x1E2
	movl	$4, (%rsp)
	movl	$490, %edi              # imm = 0x1EA
	movl	$14, %esi
	movl	$4, %edx
	movl	$477, %ecx              # imm = 0x1DD
	movl	$1, %r8d
	movl	$479, %r9d              # imm = 0x1DF
	callq	_KTimestamp6
	movl	$490, %edi              # imm = 0x1EA
	movl	$8, %edx
	movq	-144(%rbp), %rsi        # 8-byte Reload
	callq	_KStore
	.loc	3 307 7                 # aes.c:307:7
	movq	%r12, -104(%rbp)
	movq	-128(%rbp), %r15        # 8-byte Reload
	movq	-120(%rbp), %rbx        # 8-byte Reload
.Ltmp286:
	#DEBUG_VALUE: rijndael_dec_decrypt:cx <- RBX
	.loc	3 311 15 is_stmt 1      # aes.c:311:15
	leaq	672(%rbx,%r15,8), %rdi
	movl	$491, %esi              # imm = 0x1EB
	movl	$8, %edx
	callq	_KLoad0
	movq	672(%rbx,%r15,8), %r12
.Ltmp287:
	#DEBUG_VALUE: rijndael_dec_decrypt:cx <- [RBP+-120]
	movl	$492, %esi              # imm = 0x1EC
	movl	$8, %edx
	movq	%r14, %rdi
	callq	_KLoad0
	.loc	3 311 76 is_stmt 0      # aes.c:311:76
	movzbl	-64(%rbp), %r15d
	.loc	3 311 34                # aes.c:311:34
	leaq	rijndael_dec_it_tab(,%r15,8), %rdi
	movl	$493, %esi              # imm = 0x1ED
	movl	$494, %edx              # imm = 0x1EE
	movl	$8, %ecx
	callq	_KLoad1
	movl	$495, %esi              # imm = 0x1EF
	movl	$8, %edx
.Ltmp288:
	.loc	3 164 3 is_stmt 1       # aes.c:164:3
	leaq	-72(%rbp), %rdi
	callq	_KLoad0
	.loc	3 312 78                # aes.c:312:78
.Ltmp289:
	movq	-72(%rbp), %rax
	.loc	3 312 34 is_stmt 0      # aes.c:312:34
	movzbl	%ah, %eax  # NOREX
	movq	%rax, -176(%rbp)        # 8-byte Spill
	leaq	rijndael_dec_it_tab+2048(,%rax,8), %rdi
	movl	$496, %esi              # imm = 0x1F0
	movl	$497, %edx              # imm = 0x1F1
	movl	$8, %ecx
	callq	_KLoad1
	movl	$498, %esi              # imm = 0x1F2
	movl	$8, %edx
	leaq	-80(%rbp), %rdi
	callq	_KLoad0
	.loc	3 313 78 is_stmt 1      # aes.c:313:78
	movq	-80(%rbp), %r13
	shrq	$13, %r13
	.loc	3 313 34 is_stmt 0      # aes.c:313:34
	andq	$2040, %r13             # imm = 0x7F8
	leaq	rijndael_dec_it_tab+4096(%r13), %rdi
	movl	$499, %esi              # imm = 0x1F3
	movl	$500, %edx              # imm = 0x1F4
	movl	$8, %ecx
	callq	_KLoad1
	movl	$501, %esi              # imm = 0x1F5
	movl	$8, %edx
.Ltmp290:
	.loc	3 166 3 is_stmt 1       # aes.c:166:3
	leaq	-56(%rbp), %r14
	movq	%r14, %rdi
	callq	_KLoad0
	.loc	3 314 78                # aes.c:314:78
.Ltmp291:
	movq	-56(%rbp), %rbx
	shrq	$21, %rbx
	.loc	3 314 34 is_stmt 0      # aes.c:314:34
	andq	$2040, %rbx             # imm = 0x7F8
	leaq	rijndael_dec_it_tab+6144(%rbx), %rdi
	movl	$502, %esi              # imm = 0x1F6
	movl	$503, %edx              # imm = 0x1F7
	movl	$8, %ecx
	callq	_KLoad1
	.loc	3 311 34 is_stmt 1      # aes.c:311:34
	xorq	rijndael_dec_it_tab(,%r15,8), %r12
	movq	-176(%rbp), %rax        # 8-byte Reload
	xorq	rijndael_dec_it_tab+2048(,%rax,8), %r12
	xorq	rijndael_dec_it_tab+4096(%r13), %r12
	.loc	3 311 15 is_stmt 0      # aes.c:311:15
	xorq	rijndael_dec_it_tab+6144(%rbx), %r12
	movl	$2, 48(%rsp)
	movl	$502, 40(%rsp)          # imm = 0x1F6
	movl	$3, 32(%rsp)
	movl	$499, 24(%rsp)          # imm = 0x1F3
	movl	$4, 16(%rsp)
	movl	$496, 8(%rsp)           # imm = 0x1F0
	movl	$4, (%rsp)
	movl	$504, %edi              # imm = 0x1F8
	movl	$14, %esi
	movl	$4, %edx
	movl	$491, %ecx              # imm = 0x1EB
	movl	$1, %r8d
	movl	$493, %r9d              # imm = 0x1ED
	callq	_KTimestamp6
	movl	$504, %edi              # imm = 0x1F8
	movl	$8, %edx
	movq	-152(%rbp), %rsi        # 8-byte Reload
	callq	_KStore
	.loc	3 311 7                 # aes.c:311:7
	movq	%r12, -96(%rbp)
	movq	-128(%rbp), %r15        # 8-byte Reload
	movq	-120(%rbp), %rbx        # 8-byte Reload
.Ltmp292:
	#DEBUG_VALUE: rijndael_dec_decrypt:cx <- RBX
	.loc	3 315 15 is_stmt 1      # aes.c:315:15
	leaq	680(%rbx,%r15,8), %rdi
	movl	$505, %esi              # imm = 0x1F9
	movl	$8, %edx
	callq	_KLoad0
	movq	680(%rbx,%r15,8), %r12
.Ltmp293:
	#DEBUG_VALUE: rijndael_dec_decrypt:cx <- [RBP+-120]
	movl	$506, %esi              # imm = 0x1FA
	movl	$8, %edx
	movq	%r14, %rdi
	callq	_KLoad0
	.loc	3 315 76 is_stmt 0      # aes.c:315:76
	movzbl	-56(%rbp), %r15d
	.loc	3 315 34                # aes.c:315:34
	leaq	rijndael_dec_it_tab(,%r15,8), %rdi
	movl	$507, %esi              # imm = 0x1FB
	movl	$508, %edx              # imm = 0x1FC
	movl	$8, %ecx
	callq	_KLoad1
	movl	$509, %esi              # imm = 0x1FD
	movl	$8, %edx
.Ltmp294:
	.loc	3 165 3 is_stmt 1       # aes.c:165:3
	leaq	-64(%rbp), %rdi
	callq	_KLoad0
	.loc	3 316 78                # aes.c:316:78
.Ltmp295:
	movq	-64(%rbp), %rax
	.loc	3 316 34 is_stmt 0      # aes.c:316:34
	movzbl	%ah, %eax  # NOREX
	leaq	rijndael_dec_it_tab+2048(,%rax,8), %rdi
	movq	%rax, %r14
	movl	$510, %esi              # imm = 0x1FE
	movl	$511, %edx              # imm = 0x1FF
	movl	$8, %ecx
	callq	_KLoad1
	movl	$512, %esi              # imm = 0x200
	movl	$8, %edx
.Ltmp296:
	.loc	3 164 3 is_stmt 1       # aes.c:164:3
	leaq	-72(%rbp), %rdi
	callq	_KLoad0
	.loc	3 317 78                # aes.c:317:78
.Ltmp297:
	movq	-72(%rbp), %r13
	shrq	$13, %r13
	.loc	3 317 34 is_stmt 0      # aes.c:317:34
	andq	$2040, %r13             # imm = 0x7F8
	leaq	rijndael_dec_it_tab+4096(%r13), %rdi
	movl	$513, %esi              # imm = 0x201
	movl	$514, %edx              # imm = 0x202
	movl	$8, %ecx
	callq	_KLoad1
	movl	$515, %esi              # imm = 0x203
	movl	$8, %edx
	leaq	-80(%rbp), %rdi
	callq	_KLoad0
	.loc	3 318 78 is_stmt 1      # aes.c:318:78
	movq	-80(%rbp), %rbx
	shrq	$21, %rbx
	.loc	3 318 34 is_stmt 0      # aes.c:318:34
	andq	$2040, %rbx             # imm = 0x7F8
	leaq	rijndael_dec_it_tab+6144(%rbx), %rdi
	movl	$516, %esi              # imm = 0x204
	movl	$517, %edx              # imm = 0x205
	movl	$8, %ecx
	callq	_KLoad1
	.loc	3 315 34 is_stmt 1      # aes.c:315:34
	xorq	rijndael_dec_it_tab(,%r15,8), %r12
	xorq	rijndael_dec_it_tab+2048(,%r14,8), %r12
	xorq	rijndael_dec_it_tab+4096(%r13), %r12
	.loc	3 315 15 is_stmt 0      # aes.c:315:15
	xorq	rijndael_dec_it_tab+6144(%rbx), %r12
	movl	$2, 48(%rsp)
	movl	$516, 40(%rsp)          # imm = 0x204
	movl	$3, 32(%rsp)
	movl	$513, 24(%rsp)          # imm = 0x201
	movl	$4, 16(%rsp)
	movl	$510, 8(%rsp)           # imm = 0x1FE
	movl	$4, (%rsp)
	movl	$518, %edi              # imm = 0x206
	movl	$14, %esi
	movl	$4, %edx
	movl	$505, %ecx              # imm = 0x1F9
	movl	$1, %r8d
	movl	$507, %r9d              # imm = 0x1FB
	callq	_KTimestamp6
	movl	$518, %edi              # imm = 0x206
	movl	$8, %edx
	movq	-160(%rbp), %r14        # 8-byte Reload
	movq	%r14, %rsi
	callq	_KStore
	.loc	3 315 7                 # aes.c:315:7
	movq	%r12, -88(%rbp)
	movq	-128(%rbp), %r15        # 8-byte Reload
	movq	-120(%rbp), %rbx        # 8-byte Reload
.Ltmp298:
	#DEBUG_VALUE: rijndael_dec_decrypt:cx <- RBX
	.loc	3 319 17 is_stmt 1      # aes.c:319:17
	leaq	688(%rbx,%r15,8), %rdi
	movl	$519, %esi              # imm = 0x207
	movl	$8, %edx
	callq	_KLoad0
	.loc	3 319 15 is_stmt 0      # aes.c:319:15
	movq	688(%rbx,%r15,8), %r12
.Ltmp299:
	#DEBUG_VALUE: rijndael_dec_decrypt:cx <- [RBP+-120]
	movl	$520, %esi              # imm = 0x208
	movl	$8, %edx
	movq	-136(%rbp), %rdi        # 8-byte Reload
	callq	_KLoad0
	.loc	3 319 76                # aes.c:319:76
	movzbl	-112(%rbp), %r15d
	.loc	3 319 34                # aes.c:319:34
	leaq	rijndael_dec_it_tab(,%r15,8), %rdi
	movl	$521, %esi              # imm = 0x209
	movl	$522, %edx              # imm = 0x20A
	movl	$8, %ecx
	callq	_KLoad1
	movl	$523, %esi              # imm = 0x20B
	movl	$8, %edx
	movq	%r14, %rdi
	callq	_KLoad0
	.loc	3 320 78 is_stmt 1      # aes.c:320:78
	movq	-88(%rbp), %rax
	.loc	3 320 34 is_stmt 0      # aes.c:320:34
	movzbl	%ah, %eax  # NOREX
	movq	%rax, -176(%rbp)        # 8-byte Spill
	leaq	rijndael_dec_it_tab+2048(,%rax,8), %rdi
	movl	$524, %esi              # imm = 0x20C
	movl	$525, %edx              # imm = 0x20D
	movl	$8, %ecx
	callq	_KLoad1
	movl	$526, %esi              # imm = 0x20E
	movl	$8, %edx
	movq	-152(%rbp), %rdi        # 8-byte Reload
	callq	_KLoad0
	.loc	3 321 78 is_stmt 1      # aes.c:321:78
	movq	-96(%rbp), %r13
	shrq	$13, %r13
	.loc	3 321 34 is_stmt 0      # aes.c:321:34
	andq	$2040, %r13             # imm = 0x7F8
	leaq	rijndael_dec_it_tab+4096(%r13), %rdi
	movl	$527, %esi              # imm = 0x20F
	movl	$528, %edx              # imm = 0x210
	movl	$8, %ecx
	callq	_KLoad1
	movl	$529, %esi              # imm = 0x211
	movl	$8, %edx
	movq	-144(%rbp), %r14        # 8-byte Reload
	movq	%r14, %rdi
	callq	_KLoad0
	.loc	3 322 78 is_stmt 1      # aes.c:322:78
	movq	-104(%rbp), %rbx
	shrq	$21, %rbx
	.loc	3 322 34 is_stmt 0      # aes.c:322:34
	andq	$2040, %rbx             # imm = 0x7F8
	leaq	rijndael_dec_it_tab+6144(%rbx), %rdi
	movl	$530, %esi              # imm = 0x212
	movl	$531, %edx              # imm = 0x213
	movl	$8, %ecx
	callq	_KLoad1
	.loc	3 319 34 is_stmt 1      # aes.c:319:34
	xorq	rijndael_dec_it_tab(,%r15,8), %r12
	movq	-176(%rbp), %rax        # 8-byte Reload
	xorq	rijndael_dec_it_tab+2048(,%rax,8), %r12
	xorq	rijndael_dec_it_tab+4096(%r13), %r12
	.loc	3 319 15 is_stmt 0      # aes.c:319:15
	xorq	rijndael_dec_it_tab+6144(%rbx), %r12
	movl	$2, 48(%rsp)
	movl	$530, 40(%rsp)          # imm = 0x212
	movl	$3, 32(%rsp)
	movl	$527, 24(%rsp)          # imm = 0x20F
	movl	$4, 16(%rsp)
	movl	$524, 8(%rsp)           # imm = 0x20C
	movl	$4, (%rsp)
	movl	$532, %edi              # imm = 0x214
	movl	$14, %esi
	movl	$4, %edx
	movl	$519, %ecx              # imm = 0x207
	movl	$1, %r8d
	movl	$521, %r9d              # imm = 0x209
	callq	_KTimestamp6
	movl	$532, %edi              # imm = 0x214
	movl	$8, %edx
	leaq	-80(%rbp), %rsi
	callq	_KStore
	.loc	3 319 7                 # aes.c:319:7
	movq	%r12, -80(%rbp)
	movq	-128(%rbp), %r15        # 8-byte Reload
	movq	-120(%rbp), %rbx        # 8-byte Reload
.Ltmp300:
	#DEBUG_VALUE: rijndael_dec_decrypt:cx <- RBX
	.loc	3 323 15 is_stmt 1      # aes.c:323:15
	leaq	696(%rbx,%r15,8), %rdi
	movl	$533, %esi              # imm = 0x215
	movl	$8, %edx
	callq	_KLoad0
	movq	696(%rbx,%r15,8), %r12
.Ltmp301:
	#DEBUG_VALUE: rijndael_dec_decrypt:cx <- [RBP+-120]
	movl	$534, %esi              # imm = 0x216
	movl	$8, %edx
	movq	%r14, %rdi
	callq	_KLoad0
	.loc	3 323 76 is_stmt 0      # aes.c:323:76
	movzbl	-104(%rbp), %r15d
	.loc	3 323 34                # aes.c:323:34
	leaq	rijndael_dec_it_tab(,%r15,8), %rdi
	movl	$535, %esi              # imm = 0x217
	movl	$536, %edx              # imm = 0x218
	movl	$8, %ecx
	callq	_KLoad1
	movl	$537, %esi              # imm = 0x219
	movl	$8, %edx
	movq	-136(%rbp), %rdi        # 8-byte Reload
	callq	_KLoad0
	.loc	3 324 78 is_stmt 1      # aes.c:324:78
	movq	-112(%rbp), %rax
	.loc	3 324 34 is_stmt 0      # aes.c:324:34
	movzbl	%ah, %eax  # NOREX
	movq	%rax, -176(%rbp)        # 8-byte Spill
	leaq	rijndael_dec_it_tab+2048(,%rax,8), %rdi
	movl	$538, %esi              # imm = 0x21A
	movl	$539, %edx              # imm = 0x21B
	movl	$8, %ecx
	callq	_KLoad1
	movl	$540, %esi              # imm = 0x21C
	movl	$8, %edx
	movq	-160(%rbp), %rdi        # 8-byte Reload
	callq	_KLoad0
	.loc	3 325 78 is_stmt 1      # aes.c:325:78
	movq	-88(%rbp), %r13
	shrq	$13, %r13
	.loc	3 325 34 is_stmt 0      # aes.c:325:34
	andq	$2040, %r13             # imm = 0x7F8
	leaq	rijndael_dec_it_tab+4096(%r13), %rdi
	movl	$541, %esi              # imm = 0x21D
	movl	$542, %edx              # imm = 0x21E
	movl	$8, %ecx
	callq	_KLoad1
	movl	$543, %esi              # imm = 0x21F
	movl	$8, %edx
	movq	-152(%rbp), %r14        # 8-byte Reload
	movq	%r14, %rdi
	callq	_KLoad0
	.loc	3 326 78 is_stmt 1      # aes.c:326:78
	movq	-96(%rbp), %rbx
	shrq	$21, %rbx
	.loc	3 326 34 is_stmt 0      # aes.c:326:34
	andq	$2040, %rbx             # imm = 0x7F8
	leaq	rijndael_dec_it_tab+6144(%rbx), %rdi
	movl	$544, %esi              # imm = 0x220
	movl	$545, %edx              # imm = 0x221
	movl	$8, %ecx
	callq	_KLoad1
	.loc	3 323 34 is_stmt 1      # aes.c:323:34
	xorq	rijndael_dec_it_tab(,%r15,8), %r12
	movq	-176(%rbp), %rax        # 8-byte Reload
	xorq	rijndael_dec_it_tab+2048(,%rax,8), %r12
	xorq	rijndael_dec_it_tab+4096(%r13), %r12
	.loc	3 323 15 is_stmt 0      # aes.c:323:15
	xorq	rijndael_dec_it_tab+6144(%rbx), %r12
	movl	$2, 48(%rsp)
	movl	$544, 40(%rsp)          # imm = 0x220
	movl	$3, 32(%rsp)
	movl	$541, 24(%rsp)          # imm = 0x21D
	movl	$4, 16(%rsp)
	movl	$538, 8(%rsp)           # imm = 0x21A
	movl	$4, (%rsp)
	movl	$546, %edi              # imm = 0x222
	movl	$14, %esi
	movl	$4, %edx
	movl	$533, %ecx              # imm = 0x215
	movl	$1, %r8d
	movl	$535, %r9d              # imm = 0x217
	callq	_KTimestamp6
	movl	$546, %edi              # imm = 0x222
	movl	$8, %edx
.Ltmp302:
	.loc	3 164 3 is_stmt 1       # aes.c:164:3
	leaq	-72(%rbp), %rsi
	callq	_KStore
	.loc	3 323 7                 # aes.c:323:7
.Ltmp303:
	movq	%r12, -72(%rbp)
	movq	-128(%rbp), %r15        # 8-byte Reload
	movq	-120(%rbp), %rbx        # 8-byte Reload
.Ltmp304:
	#DEBUG_VALUE: rijndael_dec_decrypt:cx <- RBX
	.loc	3 327 15                # aes.c:327:15
	leaq	704(%rbx,%r15,8), %rdi
	movl	$547, %esi              # imm = 0x223
	movl	$8, %edx
	callq	_KLoad0
	movq	704(%rbx,%r15,8), %r12
.Ltmp305:
	#DEBUG_VALUE: rijndael_dec_decrypt:cx <- [RBP+-120]
	movl	$548, %esi              # imm = 0x224
	movl	$8, %edx
	movq	%r14, %rdi
	callq	_KLoad0
	.loc	3 327 76 is_stmt 0      # aes.c:327:76
	movzbl	-96(%rbp), %r15d
	.loc	3 327 34                # aes.c:327:34
	leaq	rijndael_dec_it_tab(,%r15,8), %rdi
	movl	$549, %esi              # imm = 0x225
	movl	$550, %edx              # imm = 0x226
	movl	$8, %ecx
	callq	_KLoad1
	movl	$551, %esi              # imm = 0x227
	movl	$8, %edx
	movq	-144(%rbp), %rdi        # 8-byte Reload
	callq	_KLoad0
	.loc	3 328 78 is_stmt 1      # aes.c:328:78
	movq	-104(%rbp), %rax
	.loc	3 328 34 is_stmt 0      # aes.c:328:34
	movzbl	%ah, %eax  # NOREX
	movq	%rax, -176(%rbp)        # 8-byte Spill
	leaq	rijndael_dec_it_tab+2048(,%rax,8), %rdi
	movl	$552, %esi              # imm = 0x228
	movl	$553, %edx              # imm = 0x229
	movl	$8, %ecx
	callq	_KLoad1
	movl	$554, %esi              # imm = 0x22A
	movl	$8, %edx
	movq	-136(%rbp), %rdi        # 8-byte Reload
	callq	_KLoad0
	.loc	3 329 78 is_stmt 1      # aes.c:329:78
	movq	-112(%rbp), %r13
	shrq	$13, %r13
	.loc	3 329 34 is_stmt 0      # aes.c:329:34
	andq	$2040, %r13             # imm = 0x7F8
	leaq	rijndael_dec_it_tab+4096(%r13), %rdi
	movl	$555, %esi              # imm = 0x22B
	movl	$556, %edx              # imm = 0x22C
	movl	$8, %ecx
	callq	_KLoad1
	movl	$557, %esi              # imm = 0x22D
	movl	$8, %edx
	movq	-160(%rbp), %r14        # 8-byte Reload
	movq	%r14, %rdi
	callq	_KLoad0
	.loc	3 330 78 is_stmt 1      # aes.c:330:78
	movq	-88(%rbp), %rbx
	shrq	$21, %rbx
	.loc	3 330 34 is_stmt 0      # aes.c:330:34
	andq	$2040, %rbx             # imm = 0x7F8
	leaq	rijndael_dec_it_tab+6144(%rbx), %rdi
	movl	$558, %esi              # imm = 0x22E
	movl	$559, %edx              # imm = 0x22F
	movl	$8, %ecx
	callq	_KLoad1
	.loc	3 327 34 is_stmt 1      # aes.c:327:34
	xorq	rijndael_dec_it_tab(,%r15,8), %r12
	movq	-176(%rbp), %rax        # 8-byte Reload
	xorq	rijndael_dec_it_tab+2048(,%rax,8), %r12
	xorq	rijndael_dec_it_tab+4096(%r13), %r12
	.loc	3 327 15 is_stmt 0      # aes.c:327:15
	xorq	rijndael_dec_it_tab+6144(%rbx), %r12
	movl	$2, 48(%rsp)
	movl	$558, 40(%rsp)          # imm = 0x22E
	movl	$3, 32(%rsp)
	movl	$555, 24(%rsp)          # imm = 0x22B
	movl	$4, 16(%rsp)
	movl	$552, 8(%rsp)           # imm = 0x228
	movl	$4, (%rsp)
	movl	$560, %edi              # imm = 0x230
	movl	$14, %esi
	movl	$4, %edx
	movl	$547, %ecx              # imm = 0x223
	movl	$1, %r8d
	movl	$549, %r9d              # imm = 0x225
	callq	_KTimestamp6
	movl	$560, %edi              # imm = 0x230
	movl	$8, %edx
.Ltmp306:
	.loc	3 165 3 is_stmt 1       # aes.c:165:3
	leaq	-64(%rbp), %rsi
	callq	_KStore
	.loc	3 327 7                 # aes.c:327:7
.Ltmp307:
	movq	%r12, -64(%rbp)
	movq	-120(%rbp), %r15        # 8-byte Reload
.Ltmp308:
	#DEBUG_VALUE: rijndael_dec_decrypt:cx <- R15
	movq	-128(%rbp), %rbx        # 8-byte Reload
	.loc	3 331 15                # aes.c:331:15
	leaq	712(%r15,%rbx,8), %rdi
	movl	$561, %esi              # imm = 0x231
	movl	$8, %edx
	callq	_KLoad0
	movq	712(%r15,%rbx,8), %r12
.Ltmp309:
	#DEBUG_VALUE: rijndael_dec_decrypt:cx <- [RBP+-120]
	movl	$562, %esi              # imm = 0x232
	movl	$8, %edx
	movq	%r14, %rdi
	callq	_KLoad0
	.loc	3 331 76 is_stmt 0      # aes.c:331:76
	movzbl	-88(%rbp), %r15d
	.loc	3 331 34                # aes.c:331:34
	leaq	rijndael_dec_it_tab(,%r15,8), %rdi
	movl	$563, %esi              # imm = 0x233
	movl	$564, %edx              # imm = 0x234
	movl	$8, %ecx
	callq	_KLoad1
	movl	$565, %esi              # imm = 0x235
	movl	$8, %edx
	movq	-152(%rbp), %rdi        # 8-byte Reload
	callq	_KLoad0
	.loc	3 332 78 is_stmt 1      # aes.c:332:78
	movq	-96(%rbp), %rax
	.loc	3 332 34 is_stmt 0      # aes.c:332:34
	movzbl	%ah, %eax  # NOREX
	leaq	rijndael_dec_it_tab+2048(,%rax,8), %rdi
	movq	%rax, %r14
	movl	$566, %esi              # imm = 0x236
	movl	$567, %edx              # imm = 0x237
	movl	$8, %ecx
	callq	_KLoad1
	movl	$568, %esi              # imm = 0x238
	movl	$8, %edx
	movq	-144(%rbp), %rdi        # 8-byte Reload
	callq	_KLoad0
	.loc	3 333 78 is_stmt 1      # aes.c:333:78
	movq	-104(%rbp), %r13
	shrq	$13, %r13
	.loc	3 333 34 is_stmt 0      # aes.c:333:34
	andq	$2040, %r13             # imm = 0x7F8
	leaq	rijndael_dec_it_tab+4096(%r13), %rdi
	movl	$569, %esi              # imm = 0x239
	movl	$570, %edx              # imm = 0x23A
	movl	$8, %ecx
	callq	_KLoad1
	movl	$571, %esi              # imm = 0x23B
	movl	$8, %edx
	movq	-136(%rbp), %rdi        # 8-byte Reload
	callq	_KLoad0
	.loc	3 334 78 is_stmt 1      # aes.c:334:78
	movq	-112(%rbp), %rbx
	shrq	$21, %rbx
	.loc	3 334 34 is_stmt 0      # aes.c:334:34
	andq	$2040, %rbx             # imm = 0x7F8
	leaq	rijndael_dec_it_tab+6144(%rbx), %rdi
	movl	$572, %esi              # imm = 0x23C
	movl	$573, %edx              # imm = 0x23D
	movl	$8, %ecx
	callq	_KLoad1
	.loc	3 331 34 is_stmt 1      # aes.c:331:34
	xorq	rijndael_dec_it_tab(,%r15,8), %r12
	xorq	rijndael_dec_it_tab+2048(,%r14,8), %r12
	xorq	rijndael_dec_it_tab+4096(%r13), %r12
	.loc	3 331 15 is_stmt 0      # aes.c:331:15
	xorq	rijndael_dec_it_tab+6144(%rbx), %r12
	movl	$3, 48(%rsp)
	movl	$569, 40(%rsp)          # imm = 0x239
	movl	$4, 32(%rsp)
	movl	$566, 24(%rsp)          # imm = 0x236
	movl	$4, 16(%rsp)
	movl	$563, 8(%rsp)           # imm = 0x233
	movl	$1, (%rsp)
	movl	$574, %edi              # imm = 0x23E
	movl	$14, %esi
	movl	$4, %edx
	movl	$572, %ecx              # imm = 0x23C
	movl	$2, %r8d
	movl	$561, %r9d              # imm = 0x231
	callq	_KTimestamp6
	movl	$574, %edi              # imm = 0x23E
	movl	$8, %edx
.Ltmp310:
	.loc	3 166 3 is_stmt 1       # aes.c:166:3
	leaq	-56(%rbp), %r13
	movq	%r13, %r15
	movq	%r15, %rsi
	callq	_KStore
	.loc	3 331 7                 # aes.c:331:7
.Ltmp311:
	movq	%r12, -56(%rbp)
	movq	-128(%rbp), %r14        # 8-byte Reload
	movq	-120(%rbp), %rbx        # 8-byte Reload
.Ltmp312:
	#DEBUG_VALUE: rijndael_dec_decrypt:cx <- RBX
	.loc	3 335 17                # aes.c:335:17
	leaq	720(%rbx,%r14,8), %rdi
	movl	$575, %esi              # imm = 0x23F
	movl	$8, %edx
	callq	_KLoad0
	.loc	3 335 15 is_stmt 0      # aes.c:335:15
	movq	720(%rbx,%r14,8), %r12
.Ltmp313:
	#DEBUG_VALUE: rijndael_dec_decrypt:cx <- [RBP+-120]
	movl	$576, %esi              # imm = 0x240
	movl	$8, %edx
	leaq	-80(%rbp), %rdi
	callq	_KLoad0
	.loc	3 335 76                # aes.c:335:76
	movzbl	-80(%rbp), %r14d
	.loc	3 335 34                # aes.c:335:34
	leaq	rijndael_dec_it_tab(,%r14,8), %rdi
	movl	$577, %esi              # imm = 0x241
	movl	$578, %edx              # imm = 0x242
	movl	$8, %ecx
	callq	_KLoad1
	movl	$579, %esi              # imm = 0x243
	movl	$8, %edx
	movq	%r15, %rdi
	callq	_KLoad0
	.loc	3 336 78 is_stmt 1      # aes.c:336:78
	movq	-56(%rbp), %rax
	.loc	3 336 34 is_stmt 0      # aes.c:336:34
	movzbl	%ah, %eax  # NOREX
	movq	%rax, -176(%rbp)        # 8-byte Spill
	leaq	rijndael_dec_it_tab+2048(,%rax,8), %rdi
	movl	$580, %esi              # imm = 0x244
	movl	$581, %edx              # imm = 0x245
	movl	$8, %ecx
	callq	_KLoad1
	movl	$582, %esi              # imm = 0x246
	movl	$8, %edx
.Ltmp314:
	.loc	3 165 3 is_stmt 1       # aes.c:165:3
	leaq	-64(%rbp), %rdi
	callq	_KLoad0
	.loc	3 337 78                # aes.c:337:78
.Ltmp315:
	movq	-64(%rbp), %r13
	shrq	$13, %r13
	.loc	3 337 34 is_stmt 0      # aes.c:337:34
	andq	$2040, %r13             # imm = 0x7F8
	leaq	rijndael_dec_it_tab+4096(%r13), %rdi
	movl	$583, %esi              # imm = 0x247
	movl	$584, %edx              # imm = 0x248
	movl	$8, %ecx
	callq	_KLoad1
	movl	$585, %esi              # imm = 0x249
	movl	$8, %edx
.Ltmp316:
	.loc	3 164 3 is_stmt 1       # aes.c:164:3
	leaq	-72(%rbp), %r15
	movq	%r15, %rdi
	callq	_KLoad0
	.loc	3 338 78                # aes.c:338:78
.Ltmp317:
	movq	-72(%rbp), %rbx
	shrq	$21, %rbx
	.loc	3 338 34 is_stmt 0      # aes.c:338:34
	andq	$2040, %rbx             # imm = 0x7F8
	leaq	rijndael_dec_it_tab+6144(%rbx), %rdi
	movl	$586, %esi              # imm = 0x24A
	movl	$587, %edx              # imm = 0x24B
	movl	$8, %ecx
	callq	_KLoad1
	.loc	3 335 34 is_stmt 1      # aes.c:335:34
	xorq	rijndael_dec_it_tab(,%r14,8), %r12
	movq	-176(%rbp), %rax        # 8-byte Reload
	xorq	rijndael_dec_it_tab+2048(,%rax,8), %r12
	xorq	rijndael_dec_it_tab+4096(%r13), %r12
	.loc	3 335 15 is_stmt 0      # aes.c:335:15
	xorq	rijndael_dec_it_tab+6144(%rbx), %r12
	movl	$2, 48(%rsp)
	movl	$586, 40(%rsp)          # imm = 0x24A
	movl	$3, 32(%rsp)
	movl	$583, 24(%rsp)          # imm = 0x247
	movl	$4, 16(%rsp)
	movl	$580, 8(%rsp)           # imm = 0x244
	movl	$4, (%rsp)
	movl	$588, %edi              # imm = 0x24C
	movl	$14, %esi
	movl	$4, %edx
	movl	$575, %ecx              # imm = 0x23F
	movl	$1, %r8d
	movl	$577, %r9d              # imm = 0x241
	callq	_KTimestamp6
	movl	$588, %edi              # imm = 0x24C
	movl	$8, %edx
	movq	-136(%rbp), %rsi        # 8-byte Reload
	callq	_KStore
	.loc	3 335 7                 # aes.c:335:7
	movq	%r12, -112(%rbp)
	movq	-128(%rbp), %r14        # 8-byte Reload
	movq	-120(%rbp), %rbx        # 8-byte Reload
.Ltmp318:
	#DEBUG_VALUE: rijndael_dec_decrypt:cx <- RBX
	.loc	3 339 15 is_stmt 1      # aes.c:339:15
	leaq	728(%rbx,%r14,8), %rdi
	movl	$589, %esi              # imm = 0x24D
	movl	$8, %edx
	callq	_KLoad0
	movq	728(%rbx,%r14,8), %r12
.Ltmp319:
	#DEBUG_VALUE: rijndael_dec_decrypt:cx <- [RBP+-120]
	movl	$590, %esi              # imm = 0x24E
	movl	$8, %edx
	movq	%r15, %rdi
	callq	_KLoad0
	.loc	3 339 76 is_stmt 0      # aes.c:339:76
	movzbl	-72(%rbp), %r14d
	.loc	3 339 34                # aes.c:339:34
	leaq	rijndael_dec_it_tab(,%r14,8), %rdi
	movl	$591, %esi              # imm = 0x24F
	movl	$592, %edx              # imm = 0x250
	movl	$8, %ecx
	callq	_KLoad1
	movl	$593, %esi              # imm = 0x251
	movl	$8, %edx
	leaq	-80(%rbp), %rdi
	callq	_KLoad0
	.loc	3 340 78 is_stmt 1      # aes.c:340:78
	movq	-80(%rbp), %rax
	.loc	3 340 34 is_stmt 0      # aes.c:340:34
	movzbl	%ah, %eax  # NOREX
	movq	%rax, -176(%rbp)        # 8-byte Spill
	leaq	rijndael_dec_it_tab+2048(,%rax,8), %rdi
	movl	$594, %esi              # imm = 0x252
	movl	$595, %edx              # imm = 0x253
	movl	$8, %ecx
	callq	_KLoad1
	movl	$596, %esi              # imm = 0x254
	movl	$8, %edx
.Ltmp320:
	.loc	3 166 3 is_stmt 1       # aes.c:166:3
	leaq	-56(%rbp), %rdi
	callq	_KLoad0
	.loc	3 341 78                # aes.c:341:78
.Ltmp321:
	movq	-56(%rbp), %r13
	shrq	$13, %r13
	.loc	3 341 34 is_stmt 0      # aes.c:341:34
	andq	$2040, %r13             # imm = 0x7F8
	leaq	rijndael_dec_it_tab+4096(%r13), %rdi
	movl	$597, %esi              # imm = 0x255
	movl	$598, %edx              # imm = 0x256
	movl	$8, %ecx
	callq	_KLoad1
	movl	$599, %esi              # imm = 0x257
	movl	$8, %edx
.Ltmp322:
	.loc	3 165 3 is_stmt 1       # aes.c:165:3
	leaq	-64(%rbp), %r15
	movq	%r15, %rdi
	callq	_KLoad0
	.loc	3 342 78                # aes.c:342:78
.Ltmp323:
	movq	-64(%rbp), %rbx
	shrq	$21, %rbx
	.loc	3 342 34 is_stmt 0      # aes.c:342:34
	andq	$2040, %rbx             # imm = 0x7F8
	leaq	rijndael_dec_it_tab+6144(%rbx), %rdi
	movl	$600, %esi              # imm = 0x258
	movl	$601, %edx              # imm = 0x259
	movl	$8, %ecx
	callq	_KLoad1
	.loc	3 339 34 is_stmt 1      # aes.c:339:34
	xorq	rijndael_dec_it_tab(,%r14,8), %r12
	movq	-176(%rbp), %rax        # 8-byte Reload
	xorq	rijndael_dec_it_tab+2048(,%rax,8), %r12
	xorq	rijndael_dec_it_tab+4096(%r13), %r12
	.loc	3 339 15 is_stmt 0      # aes.c:339:15
	xorq	rijndael_dec_it_tab+6144(%rbx), %r12
	movl	$2, 48(%rsp)
	movl	$600, 40(%rsp)          # imm = 0x258
	movl	$3, 32(%rsp)
	movl	$597, 24(%rsp)          # imm = 0x255
	movl	$4, 16(%rsp)
	movl	$594, 8(%rsp)           # imm = 0x252
	movl	$4, (%rsp)
	movl	$602, %edi              # imm = 0x25A
	movl	$14, %esi
	movl	$4, %edx
	movl	$589, %ecx              # imm = 0x24D
	movl	$1, %r8d
	movl	$591, %r9d              # imm = 0x24F
	callq	_KTimestamp6
	movl	$602, %edi              # imm = 0x25A
	movl	$8, %edx
	movq	-144(%rbp), %rsi        # 8-byte Reload
	callq	_KStore
	.loc	3 339 7                 # aes.c:339:7
	movq	%r12, -104(%rbp)
	movq	-128(%rbp), %r14        # 8-byte Reload
	movq	-120(%rbp), %rbx        # 8-byte Reload
.Ltmp324:
	#DEBUG_VALUE: rijndael_dec_decrypt:cx <- RBX
	.loc	3 343 15 is_stmt 1      # aes.c:343:15
	leaq	736(%rbx,%r14,8), %rdi
	movl	$603, %esi              # imm = 0x25B
	movl	$8, %edx
	callq	_KLoad0
	movq	736(%rbx,%r14,8), %r12
.Ltmp325:
	#DEBUG_VALUE: rijndael_dec_decrypt:cx <- [RBP+-120]
	movl	$604, %esi              # imm = 0x25C
	movl	$8, %edx
	movq	%r15, %rdi
	callq	_KLoad0
	.loc	3 343 76 is_stmt 0      # aes.c:343:76
	movzbl	-64(%rbp), %r15d
	.loc	3 343 34                # aes.c:343:34
	leaq	rijndael_dec_it_tab(,%r15,8), %rdi
	movl	$605, %esi              # imm = 0x25D
	movl	$606, %edx              # imm = 0x25E
	movl	$8, %ecx
	callq	_KLoad1
	movl	$607, %esi              # imm = 0x25F
	movl	$8, %edx
.Ltmp326:
	.loc	3 164 3 is_stmt 1       # aes.c:164:3
	leaq	-72(%rbp), %rdi
	callq	_KLoad0
	.loc	3 344 78                # aes.c:344:78
.Ltmp327:
	movq	-72(%rbp), %rax
	.loc	3 344 34 is_stmt 0      # aes.c:344:34
	movzbl	%ah, %eax  # NOREX
	movq	%rax, -176(%rbp)        # 8-byte Spill
	leaq	rijndael_dec_it_tab+2048(,%rax,8), %rdi
	movl	$608, %esi              # imm = 0x260
	movl	$609, %edx              # imm = 0x261
	movl	$8, %ecx
	callq	_KLoad1
	movl	$610, %esi              # imm = 0x262
	movl	$8, %edx
	leaq	-80(%rbp), %r14
	movq	%r14, %rdi
	callq	_KLoad0
	.loc	3 345 78 is_stmt 1      # aes.c:345:78
	movq	-80(%rbp), %r13
	shrq	$13, %r13
	.loc	3 345 34 is_stmt 0      # aes.c:345:34
	andq	$2040, %r13             # imm = 0x7F8
	leaq	rijndael_dec_it_tab+4096(%r13), %rdi
	movl	$611, %esi              # imm = 0x263
	movl	$612, %edx              # imm = 0x264
	movl	$8, %ecx
	callq	_KLoad1
	movl	$613, %esi              # imm = 0x265
	movl	$8, %edx
.Ltmp328:
	.loc	3 166 3 is_stmt 1       # aes.c:166:3
	leaq	-56(%rbp), %r14
	movq	%r14, %rdi
	callq	_KLoad0
	.loc	3 346 78                # aes.c:346:78
.Ltmp329:
	movq	-56(%rbp), %rbx
	shrq	$21, %rbx
	.loc	3 346 34 is_stmt 0      # aes.c:346:34
	andq	$2040, %rbx             # imm = 0x7F8
	leaq	rijndael_dec_it_tab+6144(%rbx), %rdi
	movl	$614, %esi              # imm = 0x266
	movl	$615, %edx              # imm = 0x267
	movl	$8, %ecx
	callq	_KLoad1
	.loc	3 343 34 is_stmt 1      # aes.c:343:34
	xorq	rijndael_dec_it_tab(,%r15,8), %r12
	movq	-176(%rbp), %rax        # 8-byte Reload
	xorq	rijndael_dec_it_tab+2048(,%rax,8), %r12
	xorq	rijndael_dec_it_tab+4096(%r13), %r12
	.loc	3 343 15 is_stmt 0      # aes.c:343:15
	xorq	rijndael_dec_it_tab+6144(%rbx), %r12
	movl	$2, 48(%rsp)
	movl	$614, 40(%rsp)          # imm = 0x266
	movl	$3, 32(%rsp)
	movl	$611, 24(%rsp)          # imm = 0x263
	movl	$4, 16(%rsp)
	movl	$608, 8(%rsp)           # imm = 0x260
	movl	$4, (%rsp)
	movl	$616, %edi              # imm = 0x268
	movl	$14, %esi
	movl	$4, %edx
	movl	$603, %ecx              # imm = 0x25B
	movl	$1, %r8d
	movl	$605, %r9d              # imm = 0x25D
	callq	_KTimestamp6
	movl	$616, %edi              # imm = 0x268
	movl	$8, %edx
	movq	-152(%rbp), %rsi        # 8-byte Reload
	callq	_KStore
	.loc	3 343 7                 # aes.c:343:7
	movq	%r12, -96(%rbp)
	movq	-120(%rbp), %r15        # 8-byte Reload
.Ltmp330:
	#DEBUG_VALUE: rijndael_dec_decrypt:cx <- R15
	movq	-128(%rbp), %rbx        # 8-byte Reload
	.loc	3 347 15 is_stmt 1      # aes.c:347:15
	leaq	744(%r15,%rbx,8), %rdi
	movl	$617, %esi              # imm = 0x269
	movl	$8, %edx
	callq	_KLoad0
	movq	744(%r15,%rbx,8), %r12
.Ltmp331:
	#DEBUG_VALUE: rijndael_dec_decrypt:cx <- [RBP+-120]
	movl	$618, %esi              # imm = 0x26A
	movl	$8, %edx
	movq	%r14, %rdi
	callq	_KLoad0
	.loc	3 347 76 is_stmt 0      # aes.c:347:76
	movzbl	-56(%rbp), %r15d
	.loc	3 347 34                # aes.c:347:34
	leaq	rijndael_dec_it_tab(,%r15,8), %rdi
	movl	$619, %esi              # imm = 0x26B
	movl	$620, %edx              # imm = 0x26C
	movl	$8, %ecx
	callq	_KLoad1
	movl	$621, %esi              # imm = 0x26D
	movl	$8, %edx
.Ltmp332:
	.loc	3 165 3 is_stmt 1       # aes.c:165:3
	leaq	-64(%rbp), %rdi
	callq	_KLoad0
	.loc	3 348 78                # aes.c:348:78
.Ltmp333:
	movq	-64(%rbp), %rax
	.loc	3 348 34 is_stmt 0      # aes.c:348:34
	movzbl	%ah, %eax  # NOREX
	leaq	rijndael_dec_it_tab+2048(,%rax,8), %rdi
	movq	%rax, %r14
	movl	$622, %esi              # imm = 0x26E
	movl	$623, %edx              # imm = 0x26F
	movl	$8, %ecx
	callq	_KLoad1
	movl	$624, %esi              # imm = 0x270
	movl	$8, %edx
.Ltmp334:
	.loc	3 164 3 is_stmt 1       # aes.c:164:3
	leaq	-72(%rbp), %rdi
	callq	_KLoad0
	.loc	3 349 78                # aes.c:349:78
.Ltmp335:
	movq	-72(%rbp), %r13
	shrq	$13, %r13
	.loc	3 349 34 is_stmt 0      # aes.c:349:34
	andq	$2040, %r13             # imm = 0x7F8
	leaq	rijndael_dec_it_tab+4096(%r13), %rdi
	movl	$625, %esi              # imm = 0x271
	movl	$626, %edx              # imm = 0x272
	movl	$8, %ecx
	callq	_KLoad1
	movl	$627, %esi              # imm = 0x273
	movl	$8, %edx
	leaq	-80(%rbp), %rdi
	callq	_KLoad0
	.loc	3 350 78 is_stmt 1      # aes.c:350:78
	movq	-80(%rbp), %rbx
	shrq	$21, %rbx
	.loc	3 350 34 is_stmt 0      # aes.c:350:34
	andq	$2040, %rbx             # imm = 0x7F8
	leaq	rijndael_dec_it_tab+6144(%rbx), %rdi
	movl	$628, %esi              # imm = 0x274
	movl	$629, %edx              # imm = 0x275
	movl	$8, %ecx
	callq	_KLoad1
	.loc	3 347 34 is_stmt 1      # aes.c:347:34
	xorq	rijndael_dec_it_tab(,%r15,8), %r12
	xorq	rijndael_dec_it_tab+2048(,%r14,8), %r12
	xorq	rijndael_dec_it_tab+4096(%r13), %r12
	.loc	3 347 15 is_stmt 0      # aes.c:347:15
	xorq	rijndael_dec_it_tab+6144(%rbx), %r12
	movl	$2, 48(%rsp)
	movl	$628, 40(%rsp)          # imm = 0x274
	movl	$3, 32(%rsp)
	movl	$625, 24(%rsp)          # imm = 0x271
	movl	$4, 16(%rsp)
	movl	$622, 8(%rsp)           # imm = 0x26E
	movl	$4, (%rsp)
	movl	$630, %edi              # imm = 0x276
	movl	$14, %esi
	movl	$4, %edx
	movl	$617, %ecx              # imm = 0x269
	movl	$1, %r8d
	movl	$619, %r9d              # imm = 0x26B
	callq	_KTimestamp6
	movl	$630, %edi              # imm = 0x276
	movl	$8, %edx
	movq	-160(%rbp), %r15        # 8-byte Reload
	movq	%r15, %rsi
	callq	_KStore
	.loc	3 347 7                 # aes.c:347:7
	movq	%r12, -88(%rbp)
	movq	-128(%rbp), %r14        # 8-byte Reload
	movq	-120(%rbp), %rbx        # 8-byte Reload
.Ltmp336:
	#DEBUG_VALUE: rijndael_dec_decrypt:cx <- RBX
	.loc	3 351 17 is_stmt 1      # aes.c:351:17
	leaq	752(%rbx,%r14,8), %rdi
	movl	$631, %esi              # imm = 0x277
	movl	$8, %edx
	callq	_KLoad0
	.loc	3 351 15 is_stmt 0      # aes.c:351:15
	movq	752(%rbx,%r14,8), %r12
.Ltmp337:
	#DEBUG_VALUE: rijndael_dec_decrypt:cx <- [RBP+-120]
	movl	$632, %esi              # imm = 0x278
	movl	$8, %edx
	movq	-136(%rbp), %rdi        # 8-byte Reload
	callq	_KLoad0
	.loc	3 351 76                # aes.c:351:76
	movzbl	-112(%rbp), %r14d
	.loc	3 351 34                # aes.c:351:34
	leaq	rijndael_dec_it_tab(,%r14,8), %rdi
	movl	$633, %esi              # imm = 0x279
	movl	$634, %edx              # imm = 0x27A
	movl	$8, %ecx
	callq	_KLoad1
	movl	$635, %esi              # imm = 0x27B
	movl	$8, %edx
	movq	%r15, %rdi
	callq	_KLoad0
	.loc	3 352 78 is_stmt 1      # aes.c:352:78
	movq	-88(%rbp), %rax
	.loc	3 352 34 is_stmt 0      # aes.c:352:34
	movzbl	%ah, %eax  # NOREX
	movq	%rax, -176(%rbp)        # 8-byte Spill
	leaq	rijndael_dec_it_tab+2048(,%rax,8), %rdi
	movl	$636, %esi              # imm = 0x27C
	movl	$637, %edx              # imm = 0x27D
	movl	$8, %ecx
	callq	_KLoad1
	movl	$638, %esi              # imm = 0x27E
	movl	$8, %edx
	movq	-152(%rbp), %rdi        # 8-byte Reload
	callq	_KLoad0
	.loc	3 353 78 is_stmt 1      # aes.c:353:78
	movq	-96(%rbp), %r13
	shrq	$13, %r13
	.loc	3 353 34 is_stmt 0      # aes.c:353:34
	andq	$2040, %r13             # imm = 0x7F8
	leaq	rijndael_dec_it_tab+4096(%r13), %rdi
	movl	$639, %esi              # imm = 0x27F
	movl	$640, %edx              # imm = 0x280
	movl	$8, %ecx
	callq	_KLoad1
	movl	$641, %esi              # imm = 0x281
	movl	$8, %edx
	movq	-144(%rbp), %r15        # 8-byte Reload
	movq	%r15, %rdi
	callq	_KLoad0
	.loc	3 354 78 is_stmt 1      # aes.c:354:78
	movq	-104(%rbp), %rbx
	shrq	$21, %rbx
	.loc	3 354 34 is_stmt 0      # aes.c:354:34
	andq	$2040, %rbx             # imm = 0x7F8
	leaq	rijndael_dec_it_tab+6144(%rbx), %rdi
	movl	$642, %esi              # imm = 0x282
	movl	$643, %edx              # imm = 0x283
	movl	$8, %ecx
	callq	_KLoad1
	.loc	3 351 34 is_stmt 1      # aes.c:351:34
	xorq	rijndael_dec_it_tab(,%r14,8), %r12
	movq	-176(%rbp), %rax        # 8-byte Reload
	xorq	rijndael_dec_it_tab+2048(,%rax,8), %r12
	xorq	rijndael_dec_it_tab+4096(%r13), %r12
	.loc	3 351 15 is_stmt 0      # aes.c:351:15
	xorq	rijndael_dec_it_tab+6144(%rbx), %r12
	movl	$2, 48(%rsp)
	movl	$642, 40(%rsp)          # imm = 0x282
	movl	$3, 32(%rsp)
	movl	$639, 24(%rsp)          # imm = 0x27F
	movl	$4, 16(%rsp)
	movl	$636, 8(%rsp)           # imm = 0x27C
	movl	$4, (%rsp)
	movl	$644, %edi              # imm = 0x284
	movl	$14, %esi
	movl	$4, %edx
	movl	$631, %ecx              # imm = 0x277
	movl	$1, %r8d
	movl	$633, %r9d              # imm = 0x279
	callq	_KTimestamp6
	movl	$644, %edi              # imm = 0x284
	movl	$8, %edx
	leaq	-80(%rbp), %rsi
	callq	_KStore
	.loc	3 351 7                 # aes.c:351:7
	movq	%r12, -80(%rbp)
	movq	-128(%rbp), %r14        # 8-byte Reload
	movq	-120(%rbp), %rbx        # 8-byte Reload
.Ltmp338:
	#DEBUG_VALUE: rijndael_dec_decrypt:cx <- RBX
	.loc	3 355 15 is_stmt 1      # aes.c:355:15
	leaq	760(%rbx,%r14,8), %rdi
	movl	$645, %esi              # imm = 0x285
	movl	$8, %edx
	callq	_KLoad0
	movq	760(%rbx,%r14,8), %r12
.Ltmp339:
	#DEBUG_VALUE: rijndael_dec_decrypt:cx <- [RBP+-120]
	movl	$646, %esi              # imm = 0x286
	movl	$8, %edx
	movq	%r15, %rdi
	callq	_KLoad0
	.loc	3 355 76 is_stmt 0      # aes.c:355:76
	movzbl	-104(%rbp), %r14d
	.loc	3 355 34                # aes.c:355:34
	leaq	rijndael_dec_it_tab(,%r14,8), %rdi
	movl	$647, %esi              # imm = 0x287
	movl	$648, %edx              # imm = 0x288
	movl	$8, %ecx
	callq	_KLoad1
	movl	$649, %esi              # imm = 0x289
	movl	$8, %edx
	movq	-136(%rbp), %rdi        # 8-byte Reload
	callq	_KLoad0
	.loc	3 356 78 is_stmt 1      # aes.c:356:78
	movq	-112(%rbp), %rax
	.loc	3 356 34 is_stmt 0      # aes.c:356:34
	movzbl	%ah, %eax  # NOREX
	movq	%rax, -176(%rbp)        # 8-byte Spill
	leaq	rijndael_dec_it_tab+2048(,%rax,8), %rdi
	movl	$650, %esi              # imm = 0x28A
	movl	$651, %edx              # imm = 0x28B
	movl	$8, %ecx
	callq	_KLoad1
	movl	$652, %esi              # imm = 0x28C
	movl	$8, %edx
	movq	-160(%rbp), %rdi        # 8-byte Reload
	callq	_KLoad0
	.loc	3 357 78 is_stmt 1      # aes.c:357:78
	movq	-88(%rbp), %r13
	shrq	$13, %r13
	.loc	3 357 34 is_stmt 0      # aes.c:357:34
	andq	$2040, %r13             # imm = 0x7F8
	leaq	rijndael_dec_it_tab+4096(%r13), %rdi
	movl	$653, %esi              # imm = 0x28D
	movl	$654, %edx              # imm = 0x28E
	movl	$8, %ecx
	callq	_KLoad1
	movl	$655, %esi              # imm = 0x28F
	movl	$8, %edx
	movq	-152(%rbp), %r15        # 8-byte Reload
	movq	%r15, %rdi
	callq	_KLoad0
	.loc	3 358 78 is_stmt 1      # aes.c:358:78
	movq	-96(%rbp), %rbx
	shrq	$21, %rbx
	.loc	3 358 34 is_stmt 0      # aes.c:358:34
	andq	$2040, %rbx             # imm = 0x7F8
	leaq	rijndael_dec_it_tab+6144(%rbx), %rdi
	movl	$656, %esi              # imm = 0x290
	movl	$657, %edx              # imm = 0x291
	movl	$8, %ecx
	callq	_KLoad1
	.loc	3 355 34 is_stmt 1      # aes.c:355:34
	xorq	rijndael_dec_it_tab(,%r14,8), %r12
	movq	-176(%rbp), %rax        # 8-byte Reload
	xorq	rijndael_dec_it_tab+2048(,%rax,8), %r12
	xorq	rijndael_dec_it_tab+4096(%r13), %r12
	.loc	3 355 15 is_stmt 0      # aes.c:355:15
	xorq	rijndael_dec_it_tab+6144(%rbx), %r12
	movl	$2, 48(%rsp)
	movl	$656, 40(%rsp)          # imm = 0x290
	movl	$3, 32(%rsp)
	movl	$653, 24(%rsp)          # imm = 0x28D
	movl	$4, 16(%rsp)
	movl	$650, 8(%rsp)           # imm = 0x28A
	movl	$4, (%rsp)
	movl	$658, %edi              # imm = 0x292
	movl	$14, %esi
	movl	$4, %edx
	movl	$645, %ecx              # imm = 0x285
	movl	$1, %r8d
	movl	$647, %r9d              # imm = 0x287
	callq	_KTimestamp6
	movl	$658, %edi              # imm = 0x292
	movl	$8, %edx
.Ltmp340:
	.loc	3 164 3 is_stmt 1       # aes.c:164:3
	leaq	-72(%rbp), %rsi
	callq	_KStore
	.loc	3 355 7                 # aes.c:355:7
.Ltmp341:
	movq	%r12, -72(%rbp)
	movq	-128(%rbp), %r14        # 8-byte Reload
	movq	-120(%rbp), %rbx        # 8-byte Reload
.Ltmp342:
	#DEBUG_VALUE: rijndael_dec_decrypt:cx <- RBX
	.loc	3 359 15                # aes.c:359:15
	leaq	768(%rbx,%r14,8), %rdi
	movl	$659, %esi              # imm = 0x293
	movl	$8, %edx
	callq	_KLoad0
	movq	768(%rbx,%r14,8), %r12
.Ltmp343:
	#DEBUG_VALUE: rijndael_dec_decrypt:cx <- [RBP+-120]
	movl	$660, %esi              # imm = 0x294
	movl	$8, %edx
	movq	%r15, %rdi
	callq	_KLoad0
	.loc	3 359 76 is_stmt 0      # aes.c:359:76
	movzbl	-96(%rbp), %r15d
	.loc	3 359 34                # aes.c:359:34
	leaq	rijndael_dec_it_tab(,%r15,8), %rdi
	movl	$661, %esi              # imm = 0x295
	movl	$662, %edx              # imm = 0x296
	movl	$8, %ecx
	callq	_KLoad1
	movl	$663, %esi              # imm = 0x297
	movl	$8, %edx
	movq	-144(%rbp), %rdi        # 8-byte Reload
	callq	_KLoad0
	.loc	3 360 78 is_stmt 1      # aes.c:360:78
	movq	-104(%rbp), %rax
	.loc	3 360 34 is_stmt 0      # aes.c:360:34
	movzbl	%ah, %eax  # NOREX
	movq	%rax, -176(%rbp)        # 8-byte Spill
	leaq	rijndael_dec_it_tab+2048(,%rax,8), %rdi
	movl	$664, %esi              # imm = 0x298
	movl	$665, %edx              # imm = 0x299
	movl	$8, %ecx
	callq	_KLoad1
	movl	$666, %esi              # imm = 0x29A
	movl	$8, %edx
	movq	-136(%rbp), %rdi        # 8-byte Reload
	callq	_KLoad0
	.loc	3 361 78 is_stmt 1      # aes.c:361:78
	movq	-112(%rbp), %r13
	shrq	$13, %r13
	.loc	3 361 34 is_stmt 0      # aes.c:361:34
	andq	$2040, %r13             # imm = 0x7F8
	leaq	rijndael_dec_it_tab+4096(%r13), %rdi
	movl	$667, %esi              # imm = 0x29B
	movl	$668, %edx              # imm = 0x29C
	movl	$8, %ecx
	callq	_KLoad1
	movl	$669, %esi              # imm = 0x29D
	movl	$8, %edx
	movq	-160(%rbp), %r14        # 8-byte Reload
	movq	%r14, %rdi
	callq	_KLoad0
	.loc	3 362 78 is_stmt 1      # aes.c:362:78
	movq	-88(%rbp), %rbx
	shrq	$21, %rbx
	.loc	3 362 34 is_stmt 0      # aes.c:362:34
	andq	$2040, %rbx             # imm = 0x7F8
	leaq	rijndael_dec_it_tab+6144(%rbx), %rdi
	movl	$670, %esi              # imm = 0x29E
	movl	$671, %edx              # imm = 0x29F
	movl	$8, %ecx
	callq	_KLoad1
	.loc	3 359 34 is_stmt 1      # aes.c:359:34
	xorq	rijndael_dec_it_tab(,%r15,8), %r12
	movq	-176(%rbp), %rax        # 8-byte Reload
	xorq	rijndael_dec_it_tab+2048(,%rax,8), %r12
	xorq	rijndael_dec_it_tab+4096(%r13), %r12
	.loc	3 359 15 is_stmt 0      # aes.c:359:15
	xorq	rijndael_dec_it_tab+6144(%rbx), %r12
	movl	$2, 48(%rsp)
	movl	$670, 40(%rsp)          # imm = 0x29E
	movl	$3, 32(%rsp)
	movl	$667, 24(%rsp)          # imm = 0x29B
	movl	$4, 16(%rsp)
	movl	$664, 8(%rsp)           # imm = 0x298
	movl	$4, (%rsp)
	movl	$672, %edi              # imm = 0x2A0
	movl	$14, %esi
	movl	$4, %edx
	movl	$659, %ecx              # imm = 0x293
	movl	$1, %r8d
	movl	$661, %r9d              # imm = 0x295
	callq	_KTimestamp6
	movl	$672, %edi              # imm = 0x2A0
	movl	$8, %edx
.Ltmp344:
	.loc	3 165 3 is_stmt 1       # aes.c:165:3
	leaq	-64(%rbp), %rsi
	callq	_KStore
	.loc	3 359 7                 # aes.c:359:7
.Ltmp345:
	movq	%r12, -64(%rbp)
	movq	-120(%rbp), %r15        # 8-byte Reload
.Ltmp346:
	#DEBUG_VALUE: rijndael_dec_decrypt:cx <- R15
	movq	-128(%rbp), %rbx        # 8-byte Reload
	.loc	3 363 15                # aes.c:363:15
	leaq	776(%r15,%rbx,8), %rdi
	movl	$673, %esi              # imm = 0x2A1
	movl	$8, %edx
	callq	_KLoad0
	movq	776(%r15,%rbx,8), %r12
.Ltmp347:
	#DEBUG_VALUE: rijndael_dec_decrypt:cx <- [RBP+-120]
	movl	$674, %esi              # imm = 0x2A2
	movl	$8, %edx
	movq	%r14, %rdi
	callq	_KLoad0
	.loc	3 363 76 is_stmt 0      # aes.c:363:76
	movzbl	-88(%rbp), %r15d
	.loc	3 363 34                # aes.c:363:34
	leaq	rijndael_dec_it_tab(,%r15,8), %rdi
	movl	$675, %esi              # imm = 0x2A3
	movl	$676, %edx              # imm = 0x2A4
	movl	$8, %ecx
	callq	_KLoad1
	movl	$677, %esi              # imm = 0x2A5
	movl	$8, %edx
	movq	-152(%rbp), %rdi        # 8-byte Reload
	callq	_KLoad0
	.loc	3 364 78 is_stmt 1      # aes.c:364:78
	movq	-96(%rbp), %rax
	.loc	3 364 34 is_stmt 0      # aes.c:364:34
	movzbl	%ah, %eax  # NOREX
	leaq	rijndael_dec_it_tab+2048(,%rax,8), %rdi
	movq	%rax, %r14
	movl	$678, %esi              # imm = 0x2A6
	movl	$679, %edx              # imm = 0x2A7
	movl	$8, %ecx
	callq	_KLoad1
	movl	$680, %esi              # imm = 0x2A8
	movl	$8, %edx
	movq	-144(%rbp), %rdi        # 8-byte Reload
	callq	_KLoad0
	.loc	3 365 78 is_stmt 1      # aes.c:365:78
	movq	-104(%rbp), %r13
	shrq	$13, %r13
	.loc	3 365 34 is_stmt 0      # aes.c:365:34
	andq	$2040, %r13             # imm = 0x7F8
	leaq	rijndael_dec_it_tab+4096(%r13), %rdi
	movl	$681, %esi              # imm = 0x2A9
	movl	$682, %edx              # imm = 0x2AA
	movl	$8, %ecx
	callq	_KLoad1
	movl	$683, %esi              # imm = 0x2AB
	movl	$8, %edx
	movq	-136(%rbp), %rdi        # 8-byte Reload
	callq	_KLoad0
	.loc	3 366 78 is_stmt 1      # aes.c:366:78
	movq	-112(%rbp), %rbx
	shrq	$21, %rbx
	.loc	3 366 34 is_stmt 0      # aes.c:366:34
	andq	$2040, %rbx             # imm = 0x7F8
	leaq	rijndael_dec_it_tab+6144(%rbx), %rdi
	movl	$684, %esi              # imm = 0x2AC
	movl	$685, %edx              # imm = 0x2AD
	movl	$8, %ecx
	callq	_KLoad1
	.loc	3 363 34 is_stmt 1      # aes.c:363:34
	xorq	rijndael_dec_it_tab(,%r15,8), %r12
	xorq	rijndael_dec_it_tab+2048(,%r14,8), %r12
	xorq	rijndael_dec_it_tab+4096(%r13), %r12
	.loc	3 363 15 is_stmt 0      # aes.c:363:15
	xorq	rijndael_dec_it_tab+6144(%rbx), %r12
	movl	$2, 48(%rsp)
	movl	$684, 40(%rsp)          # imm = 0x2AC
	movl	$3, 32(%rsp)
	movl	$681, 24(%rsp)          # imm = 0x2A9
	movl	$4, 16(%rsp)
	movl	$678, 8(%rsp)           # imm = 0x2A6
	movl	$4, (%rsp)
	movl	$686, %edi              # imm = 0x2AE
	movl	$14, %esi
	movl	$4, %edx
	movl	$673, %ecx              # imm = 0x2A1
	movl	$1, %r8d
	movl	$675, %r9d              # imm = 0x2A3
	callq	_KTimestamp6
	movl	$686, %edi              # imm = 0x2AE
	movl	$8, %edx
.Ltmp348:
	.loc	3 166 3 is_stmt 1       # aes.c:166:3
	leaq	-56(%rbp), %r13
	movq	%r13, %r15
	movq	%r15, %rsi
	callq	_KStore
	.loc	3 363 7                 # aes.c:363:7
.Ltmp349:
	movq	%r12, -56(%rbp)
	movq	-128(%rbp), %r14        # 8-byte Reload
	movq	-120(%rbp), %rbx        # 8-byte Reload
.Ltmp350:
	#DEBUG_VALUE: rijndael_dec_decrypt:cx <- RBX
	.loc	3 367 17                # aes.c:367:17
	leaq	784(%rbx,%r14,8), %rdi
	movl	$687, %esi              # imm = 0x2AF
	movl	$8, %edx
	callq	_KLoad0
	.loc	3 367 15 is_stmt 0      # aes.c:367:15
	movq	784(%rbx,%r14,8), %r12
.Ltmp351:
	#DEBUG_VALUE: rijndael_dec_decrypt:cx <- [RBP+-120]
	movl	$688, %esi              # imm = 0x2B0
	movl	$8, %edx
	leaq	-80(%rbp), %rdi
	callq	_KLoad0
	.loc	3 367 76                # aes.c:367:76
	movzbl	-80(%rbp), %r14d
	.loc	3 367 34                # aes.c:367:34
	leaq	rijndael_dec_it_tab(,%r14,8), %rdi
	movl	$689, %esi              # imm = 0x2B1
	movl	$690, %edx              # imm = 0x2B2
	movl	$8, %ecx
	callq	_KLoad1
	movl	$691, %esi              # imm = 0x2B3
	movl	$8, %edx
	movq	%r15, %rdi
	callq	_KLoad0
	.loc	3 368 78 is_stmt 1      # aes.c:368:78
	movq	-56(%rbp), %rax
	.loc	3 368 34 is_stmt 0      # aes.c:368:34
	movzbl	%ah, %eax  # NOREX
	movq	%rax, -176(%rbp)        # 8-byte Spill
	leaq	rijndael_dec_it_tab+2048(,%rax,8), %rdi
	movl	$692, %esi              # imm = 0x2B4
	movl	$693, %edx              # imm = 0x2B5
	movl	$8, %ecx
	callq	_KLoad1
	movl	$694, %esi              # imm = 0x2B6
	movl	$8, %edx
.Ltmp352:
	.loc	3 165 3 is_stmt 1       # aes.c:165:3
	leaq	-64(%rbp), %rdi
	callq	_KLoad0
	.loc	3 369 78                # aes.c:369:78
.Ltmp353:
	movq	-64(%rbp), %r13
	shrq	$13, %r13
	.loc	3 369 34 is_stmt 0      # aes.c:369:34
	andq	$2040, %r13             # imm = 0x7F8
	leaq	rijndael_dec_it_tab+4096(%r13), %rdi
	movl	$695, %esi              # imm = 0x2B7
	movl	$696, %edx              # imm = 0x2B8
	movl	$8, %ecx
	callq	_KLoad1
	movl	$697, %esi              # imm = 0x2B9
	movl	$8, %edx
.Ltmp354:
	.loc	3 164 3 is_stmt 1       # aes.c:164:3
	leaq	-72(%rbp), %r15
	movq	%r15, %rdi
	callq	_KLoad0
	.loc	3 370 78                # aes.c:370:78
.Ltmp355:
	movq	-72(%rbp), %rbx
	shrq	$21, %rbx
	.loc	3 370 34 is_stmt 0      # aes.c:370:34
	andq	$2040, %rbx             # imm = 0x7F8
	leaq	rijndael_dec_it_tab+6144(%rbx), %rdi
	movl	$698, %esi              # imm = 0x2BA
	movl	$699, %edx              # imm = 0x2BB
	movl	$8, %ecx
	callq	_KLoad1
	.loc	3 367 34 is_stmt 1      # aes.c:367:34
	xorq	rijndael_dec_it_tab(,%r14,8), %r12
	movq	-176(%rbp), %rax        # 8-byte Reload
	xorq	rijndael_dec_it_tab+2048(,%rax,8), %r12
	xorq	rijndael_dec_it_tab+4096(%r13), %r12
	.loc	3 367 15 is_stmt 0      # aes.c:367:15
	xorq	rijndael_dec_it_tab+6144(%rbx), %r12
	movl	$2, 48(%rsp)
	movl	$698, 40(%rsp)          # imm = 0x2BA
	movl	$3, 32(%rsp)
	movl	$695, 24(%rsp)          # imm = 0x2B7
	movl	$4, 16(%rsp)
	movl	$692, 8(%rsp)           # imm = 0x2B4
	movl	$4, (%rsp)
	movl	$700, %edi              # imm = 0x2BC
	movl	$14, %esi
	movl	$4, %edx
	movl	$687, %ecx              # imm = 0x2AF
	movl	$1, %r8d
	movl	$689, %r9d              # imm = 0x2B1
	callq	_KTimestamp6
	movl	$700, %edi              # imm = 0x2BC
	movl	$8, %edx
	movq	-136(%rbp), %rsi        # 8-byte Reload
	callq	_KStore
	.loc	3 367 7                 # aes.c:367:7
	movq	%r12, -112(%rbp)
	movq	-128(%rbp), %r14        # 8-byte Reload
	movq	-120(%rbp), %rbx        # 8-byte Reload
.Ltmp356:
	#DEBUG_VALUE: rijndael_dec_decrypt:cx <- RBX
	.loc	3 371 15 is_stmt 1      # aes.c:371:15
	leaq	792(%rbx,%r14,8), %rdi
	movl	$701, %esi              # imm = 0x2BD
	movl	$8, %edx
	callq	_KLoad0
	movq	792(%rbx,%r14,8), %r12
.Ltmp357:
	#DEBUG_VALUE: rijndael_dec_decrypt:cx <- [RBP+-120]
	movl	$702, %esi              # imm = 0x2BE
	movl	$8, %edx
	movq	%r15, %rdi
	callq	_KLoad0
	.loc	3 371 76 is_stmt 0      # aes.c:371:76
	movzbl	-72(%rbp), %r15d
	.loc	3 371 34                # aes.c:371:34
	leaq	rijndael_dec_it_tab(,%r15,8), %rdi
	movl	$703, %esi              # imm = 0x2BF
	movl	$704, %edx              # imm = 0x2C0
	movl	$8, %ecx
	callq	_KLoad1
	movl	$705, %esi              # imm = 0x2C1
	movl	$8, %edx
	leaq	-80(%rbp), %rdi
	callq	_KLoad0
	.loc	3 372 78 is_stmt 1      # aes.c:372:78
	movq	-80(%rbp), %rax
	.loc	3 372 34 is_stmt 0      # aes.c:372:34
	movzbl	%ah, %eax  # NOREX
	movq	%rax, -176(%rbp)        # 8-byte Spill
	leaq	rijndael_dec_it_tab+2048(,%rax,8), %rdi
	movl	$706, %esi              # imm = 0x2C2
	movl	$707, %edx              # imm = 0x2C3
	movl	$8, %ecx
	callq	_KLoad1
	movl	$708, %esi              # imm = 0x2C4
	movl	$8, %edx
.Ltmp358:
	.loc	3 166 3 is_stmt 1       # aes.c:166:3
	leaq	-56(%rbp), %rdi
	callq	_KLoad0
	.loc	3 373 78                # aes.c:373:78
.Ltmp359:
	movq	-56(%rbp), %r13
	shrq	$13, %r13
	.loc	3 373 34 is_stmt 0      # aes.c:373:34
	andq	$2040, %r13             # imm = 0x7F8
	leaq	rijndael_dec_it_tab+4096(%r13), %rdi
	movl	$709, %esi              # imm = 0x2C5
	movl	$710, %edx              # imm = 0x2C6
	movl	$8, %ecx
	callq	_KLoad1
	movl	$711, %esi              # imm = 0x2C7
	movl	$8, %edx
.Ltmp360:
	.loc	3 165 3 is_stmt 1       # aes.c:165:3
	leaq	-64(%rbp), %r14
	movq	%r14, %rdi
	callq	_KLoad0
	.loc	3 374 78                # aes.c:374:78
.Ltmp361:
	movq	-64(%rbp), %rbx
	shrq	$21, %rbx
	.loc	3 374 34 is_stmt 0      # aes.c:374:34
	andq	$2040, %rbx             # imm = 0x7F8
	leaq	rijndael_dec_it_tab+6144(%rbx), %rdi
	movl	$712, %esi              # imm = 0x2C8
	movl	$713, %edx              # imm = 0x2C9
	movl	$8, %ecx
	callq	_KLoad1
	.loc	3 371 34 is_stmt 1      # aes.c:371:34
	xorq	rijndael_dec_it_tab(,%r15,8), %r12
	movq	-176(%rbp), %rax        # 8-byte Reload
	xorq	rijndael_dec_it_tab+2048(,%rax,8), %r12
	xorq	rijndael_dec_it_tab+4096(%r13), %r12
	.loc	3 371 15 is_stmt 0      # aes.c:371:15
	xorq	rijndael_dec_it_tab+6144(%rbx), %r12
	movl	$2, 48(%rsp)
	movl	$712, 40(%rsp)          # imm = 0x2C8
	movl	$3, 32(%rsp)
	movl	$709, 24(%rsp)          # imm = 0x2C5
	movl	$4, 16(%rsp)
	movl	$706, 8(%rsp)           # imm = 0x2C2
	movl	$4, (%rsp)
	movl	$714, %edi              # imm = 0x2CA
	movl	$14, %esi
	movl	$4, %edx
	movl	$701, %ecx              # imm = 0x2BD
	movl	$1, %r8d
	movl	$703, %r9d              # imm = 0x2BF
	callq	_KTimestamp6
	movl	$714, %edi              # imm = 0x2CA
	movl	$8, %edx
	movq	-144(%rbp), %rsi        # 8-byte Reload
	callq	_KStore
	.loc	3 371 7                 # aes.c:371:7
	movq	%r12, -104(%rbp)
	movq	-128(%rbp), %r15        # 8-byte Reload
	movq	-120(%rbp), %rbx        # 8-byte Reload
.Ltmp362:
	#DEBUG_VALUE: rijndael_dec_decrypt:cx <- RBX
	.loc	3 375 15 is_stmt 1      # aes.c:375:15
	leaq	800(%rbx,%r15,8), %rdi
	movl	$715, %esi              # imm = 0x2CB
	movl	$8, %edx
	callq	_KLoad0
	movq	800(%rbx,%r15,8), %r12
.Ltmp363:
	#DEBUG_VALUE: rijndael_dec_decrypt:cx <- [RBP+-120]
	movl	$716, %esi              # imm = 0x2CC
	movl	$8, %edx
	movq	%r14, %rdi
	callq	_KLoad0
	.loc	3 375 76 is_stmt 0      # aes.c:375:76
	movzbl	-64(%rbp), %r15d
	.loc	3 375 34                # aes.c:375:34
	leaq	rijndael_dec_it_tab(,%r15,8), %rdi
	movl	$717, %esi              # imm = 0x2CD
	movl	$718, %edx              # imm = 0x2CE
	movl	$8, %ecx
	callq	_KLoad1
	movl	$719, %esi              # imm = 0x2CF
	movl	$8, %edx
.Ltmp364:
	.loc	3 164 3 is_stmt 1       # aes.c:164:3
	leaq	-72(%rbp), %rdi
	callq	_KLoad0
	.loc	3 376 78                # aes.c:376:78
.Ltmp365:
	movq	-72(%rbp), %rax
	.loc	3 376 34 is_stmt 0      # aes.c:376:34
	movzbl	%ah, %eax  # NOREX
	movq	%rax, -176(%rbp)        # 8-byte Spill
	leaq	rijndael_dec_it_tab+2048(,%rax,8), %rdi
	movl	$720, %esi              # imm = 0x2D0
	movl	$721, %edx              # imm = 0x2D1
	movl	$8, %ecx
	callq	_KLoad1
	movl	$722, %esi              # imm = 0x2D2
	movl	$8, %edx
	leaq	-80(%rbp), %rdi
	callq	_KLoad0
	.loc	3 377 78 is_stmt 1      # aes.c:377:78
	movq	-80(%rbp), %r13
	shrq	$13, %r13
	.loc	3 377 34 is_stmt 0      # aes.c:377:34
	andq	$2040, %r13             # imm = 0x7F8
	leaq	rijndael_dec_it_tab+4096(%r13), %rdi
	movl	$723, %esi              # imm = 0x2D3
	movl	$724, %edx              # imm = 0x2D4
	movl	$8, %ecx
	callq	_KLoad1
	movl	$725, %esi              # imm = 0x2D5
	movl	$8, %edx
.Ltmp366:
	.loc	3 166 3 is_stmt 1       # aes.c:166:3
	leaq	-56(%rbp), %r14
	movq	%r14, %rdi
	callq	_KLoad0
	.loc	3 378 78                # aes.c:378:78
.Ltmp367:
	movq	-56(%rbp), %rbx
	shrq	$21, %rbx
	.loc	3 378 34 is_stmt 0      # aes.c:378:34
	andq	$2040, %rbx             # imm = 0x7F8
	leaq	rijndael_dec_it_tab+6144(%rbx), %rdi
	movl	$726, %esi              # imm = 0x2D6
	movl	$727, %edx              # imm = 0x2D7
	movl	$8, %ecx
	callq	_KLoad1
	.loc	3 375 34 is_stmt 1      # aes.c:375:34
	xorq	rijndael_dec_it_tab(,%r15,8), %r12
	movq	-176(%rbp), %rax        # 8-byte Reload
	xorq	rijndael_dec_it_tab+2048(,%rax,8), %r12
	xorq	rijndael_dec_it_tab+4096(%r13), %r12
	.loc	3 375 15 is_stmt 0      # aes.c:375:15
	xorq	rijndael_dec_it_tab+6144(%rbx), %r12
	movl	$2, 48(%rsp)
	movl	$726, 40(%rsp)          # imm = 0x2D6
	movl	$3, 32(%rsp)
	movl	$723, 24(%rsp)          # imm = 0x2D3
	movl	$4, 16(%rsp)
	movl	$720, 8(%rsp)           # imm = 0x2D0
	movl	$4, (%rsp)
	movl	$728, %edi              # imm = 0x2D8
	movl	$14, %esi
	movl	$4, %edx
	movl	$715, %ecx              # imm = 0x2CB
	movl	$1, %r8d
	movl	$717, %r9d              # imm = 0x2CD
	callq	_KTimestamp6
	movl	$728, %edi              # imm = 0x2D8
	movl	$8, %edx
	movq	-152(%rbp), %rsi        # 8-byte Reload
	callq	_KStore
	.loc	3 375 7                 # aes.c:375:7
	movq	%r12, -96(%rbp)
	movq	-128(%rbp), %r15        # 8-byte Reload
	movq	-120(%rbp), %rbx        # 8-byte Reload
.Ltmp368:
	#DEBUG_VALUE: rijndael_dec_decrypt:cx <- RBX
	.loc	3 379 15 is_stmt 1      # aes.c:379:15
	leaq	808(%rbx,%r15,8), %rdi
	movl	$729, %esi              # imm = 0x2D9
	movl	$8, %edx
	callq	_KLoad0
	movq	808(%rbx,%r15,8), %r12
.Ltmp369:
	#DEBUG_VALUE: rijndael_dec_decrypt:cx <- [RBP+-120]
	movl	$730, %esi              # imm = 0x2DA
	movl	$8, %edx
	movq	%r14, %rdi
	callq	_KLoad0
	.loc	3 379 76 is_stmt 0      # aes.c:379:76
	movzbl	-56(%rbp), %r15d
	.loc	3 379 34                # aes.c:379:34
	leaq	rijndael_dec_it_tab(,%r15,8), %rdi
	movl	$731, %esi              # imm = 0x2DB
	movl	$732, %edx              # imm = 0x2DC
	movl	$8, %ecx
	callq	_KLoad1
	movl	$733, %esi              # imm = 0x2DD
	movl	$8, %edx
.Ltmp370:
	.loc	3 165 3 is_stmt 1       # aes.c:165:3
	leaq	-64(%rbp), %rdi
	callq	_KLoad0
	.loc	3 380 78                # aes.c:380:78
.Ltmp371:
	movq	-64(%rbp), %rax
	.loc	3 380 34 is_stmt 0      # aes.c:380:34
	movzbl	%ah, %eax  # NOREX
	leaq	rijndael_dec_it_tab+2048(,%rax,8), %rdi
	movq	%rax, %r14
	movl	$734, %esi              # imm = 0x2DE
	movl	$735, %edx              # imm = 0x2DF
	movl	$8, %ecx
	callq	_KLoad1
	movl	$736, %esi              # imm = 0x2E0
	movl	$8, %edx
.Ltmp372:
	.loc	3 164 3 is_stmt 1       # aes.c:164:3
	leaq	-72(%rbp), %rdi
	callq	_KLoad0
	.loc	3 381 78                # aes.c:381:78
.Ltmp373:
	movq	-72(%rbp), %r13
	shrq	$13, %r13
	.loc	3 381 34 is_stmt 0      # aes.c:381:34
	andq	$2040, %r13             # imm = 0x7F8
	leaq	rijndael_dec_it_tab+4096(%r13), %rdi
	movl	$737, %esi              # imm = 0x2E1
	movl	$738, %edx              # imm = 0x2E2
	movl	$8, %ecx
	callq	_KLoad1
	movl	$739, %esi              # imm = 0x2E3
	movl	$8, %edx
	leaq	-80(%rbp), %rdi
	callq	_KLoad0
	.loc	3 382 78 is_stmt 1      # aes.c:382:78
	movq	-80(%rbp), %rbx
	shrq	$21, %rbx
	.loc	3 382 34 is_stmt 0      # aes.c:382:34
	andq	$2040, %rbx             # imm = 0x7F8
	leaq	rijndael_dec_it_tab+6144(%rbx), %rdi
	movl	$740, %esi              # imm = 0x2E4
	movl	$741, %edx              # imm = 0x2E5
	movl	$8, %ecx
	callq	_KLoad1
	.loc	3 379 34 is_stmt 1      # aes.c:379:34
	xorq	rijndael_dec_it_tab(,%r15,8), %r12
	xorq	rijndael_dec_it_tab+2048(,%r14,8), %r12
	xorq	rijndael_dec_it_tab+4096(%r13), %r12
	.loc	3 379 15 is_stmt 0      # aes.c:379:15
	xorq	rijndael_dec_it_tab+6144(%rbx), %r12
	movl	$2, 48(%rsp)
	movl	$740, 40(%rsp)          # imm = 0x2E4
	movl	$3, 32(%rsp)
	movl	$737, 24(%rsp)          # imm = 0x2E1
	movl	$4, 16(%rsp)
	movl	$734, 8(%rsp)           # imm = 0x2DE
	movl	$4, (%rsp)
	movl	$742, %edi              # imm = 0x2E6
	movl	$14, %esi
	movl	$4, %edx
	movl	$729, %ecx              # imm = 0x2D9
	movl	$1, %r8d
	movl	$731, %r9d              # imm = 0x2DB
	callq	_KTimestamp6
	movl	$742, %edi              # imm = 0x2E6
	movl	$8, %edx
	movq	-160(%rbp), %r13        # 8-byte Reload
	movq	%r13, %rsi
	callq	_KStore
	.loc	3 379 7                 # aes.c:379:7
	movq	%r12, -88(%rbp)
	movq	-128(%rbp), %r14        # 8-byte Reload
	movq	-120(%rbp), %rbx        # 8-byte Reload
.Ltmp374:
	#DEBUG_VALUE: rijndael_dec_decrypt:cx <- RBX
	.loc	3 383 17 is_stmt 1      # aes.c:383:17
	leaq	816(%rbx,%r14,8), %rdi
	movl	$743, %esi              # imm = 0x2E7
	movl	$8, %edx
	callq	_KLoad0
	.loc	3 383 15 is_stmt 0      # aes.c:383:15
	movq	816(%rbx,%r14,8), %r12
.Ltmp375:
	#DEBUG_VALUE: rijndael_dec_decrypt:cx <- [RBP+-120]
	movl	$744, %esi              # imm = 0x2E8
	movl	$8, %edx
	movq	-136(%rbp), %rdi        # 8-byte Reload
	callq	_KLoad0
	.loc	3 383 76                # aes.c:383:76
	movzbl	-112(%rbp), %r15d
	.loc	3 383 34                # aes.c:383:34
	leaq	rijndael_dec_il_tab(,%r15,8), %rdi
	movl	$745, %esi              # imm = 0x2E9
	movl	$746, %edx              # imm = 0x2EA
	movl	$8, %ecx
	callq	_KLoad1
	movl	$747, %esi              # imm = 0x2EB
	movl	$8, %edx
	movq	%r13, %rdi
	callq	_KLoad0
	.loc	3 384 78 is_stmt 1      # aes.c:384:78
	movq	-88(%rbp), %rax
	.loc	3 384 34 is_stmt 0      # aes.c:384:34
	movzbl	%ah, %eax  # NOREX
	movq	%rax, -176(%rbp)        # 8-byte Spill
	leaq	rijndael_dec_il_tab+2048(,%rax,8), %rdi
	movl	$748, %esi              # imm = 0x2EC
	movl	$749, %edx              # imm = 0x2ED
	movl	$8, %ecx
	callq	_KLoad1
	movl	$750, %esi              # imm = 0x2EE
	movl	$8, %edx
	movq	-152(%rbp), %rdi        # 8-byte Reload
	callq	_KLoad0
	.loc	3 385 78 is_stmt 1      # aes.c:385:78
	movq	-96(%rbp), %r13
	shrq	$13, %r13
	.loc	3 385 34 is_stmt 0      # aes.c:385:34
	andq	$2040, %r13             # imm = 0x7F8
	leaq	rijndael_dec_il_tab+4096(%r13), %rdi
	movl	$751, %esi              # imm = 0x2EF
	movl	$752, %edx              # imm = 0x2F0
	movl	$8, %ecx
	callq	_KLoad1
	movl	$753, %esi              # imm = 0x2F1
	movl	$8, %edx
	movq	-144(%rbp), %r14        # 8-byte Reload
	movq	%r14, %rdi
	callq	_KLoad0
	.loc	3 386 78 is_stmt 1      # aes.c:386:78
	movq	-104(%rbp), %rbx
	shrq	$21, %rbx
	.loc	3 386 34 is_stmt 0      # aes.c:386:34
	andq	$2040, %rbx             # imm = 0x7F8
	leaq	rijndael_dec_il_tab+6144(%rbx), %rdi
	movl	$754, %esi              # imm = 0x2F2
	movl	$755, %edx              # imm = 0x2F3
	movl	$8, %ecx
	callq	_KLoad1
	.loc	3 383 34 is_stmt 1      # aes.c:383:34
	xorq	rijndael_dec_il_tab(,%r15,8), %r12
	movq	-176(%rbp), %rax        # 8-byte Reload
	xorq	rijndael_dec_il_tab+2048(,%rax,8), %r12
	xorq	rijndael_dec_il_tab+4096(%r13), %r12
	.loc	3 383 15 is_stmt 0      # aes.c:383:15
	xorq	rijndael_dec_il_tab+6144(%rbx), %r12
	movl	$4, 48(%rsp)
	movl	$745, 40(%rsp)          # imm = 0x2E9
	movl	$1, 32(%rsp)
	movl	$743, 24(%rsp)          # imm = 0x2E7
	movl	$2, 16(%rsp)
	movl	$754, 8(%rsp)           # imm = 0x2F2
	movl	$3, (%rsp)
	movl	$756, %edi              # imm = 0x2F4
	movl	$14, %esi
	movl	$4, %edx
	movl	$748, %ecx              # imm = 0x2EC
	movl	$4, %r8d
	movl	$751, %r9d              # imm = 0x2EF
	callq	_KTimestamp6
	movl	$756, %edi              # imm = 0x2F4
	movl	$8, %edx
	leaq	-80(%rbp), %rsi
	callq	_KStore
	.loc	3 383 7                 # aes.c:383:7
	movq	%r12, -80(%rbp)
	movq	-128(%rbp), %r15        # 8-byte Reload
	movq	-120(%rbp), %rbx        # 8-byte Reload
.Ltmp376:
	#DEBUG_VALUE: rijndael_dec_decrypt:cx <- RBX
	.loc	3 387 15 is_stmt 1      # aes.c:387:15
	leaq	824(%rbx,%r15,8), %rdi
	movl	$757, %esi              # imm = 0x2F5
	movl	$8, %edx
	callq	_KLoad0
	movq	824(%rbx,%r15,8), %r12
.Ltmp377:
	#DEBUG_VALUE: rijndael_dec_decrypt:cx <- [RBP+-120]
	movl	$758, %esi              # imm = 0x2F6
	movl	$8, %edx
	movq	%r14, %rdi
	callq	_KLoad0
	.loc	3 387 76 is_stmt 0      # aes.c:387:76
	movzbl	-104(%rbp), %r14d
	.loc	3 387 34                # aes.c:387:34
	leaq	rijndael_dec_il_tab(,%r14,8), %rdi
	movl	$759, %esi              # imm = 0x2F7
	movl	$760, %edx              # imm = 0x2F8
	movl	$8, %ecx
	callq	_KLoad1
	movl	$761, %esi              # imm = 0x2F9
	movl	$8, %edx
	movq	-136(%rbp), %rdi        # 8-byte Reload
	callq	_KLoad0
	.loc	3 388 78 is_stmt 1      # aes.c:388:78
	movq	-112(%rbp), %rax
	.loc	3 388 34 is_stmt 0      # aes.c:388:34
	movzbl	%ah, %eax  # NOREX
	movq	%rax, -176(%rbp)        # 8-byte Spill
	leaq	rijndael_dec_il_tab+2048(,%rax,8), %rdi
	movl	$762, %esi              # imm = 0x2FA
	movl	$763, %edx              # imm = 0x2FB
	movl	$8, %ecx
	callq	_KLoad1
	movl	$764, %esi              # imm = 0x2FC
	movl	$8, %edx
	movq	-160(%rbp), %rdi        # 8-byte Reload
	callq	_KLoad0
	.loc	3 389 78 is_stmt 1      # aes.c:389:78
	movq	-88(%rbp), %r13
	shrq	$13, %r13
	.loc	3 389 34 is_stmt 0      # aes.c:389:34
	andq	$2040, %r13             # imm = 0x7F8
	leaq	rijndael_dec_il_tab+4096(%r13), %rdi
	movl	$765, %esi              # imm = 0x2FD
	movl	$766, %edx              # imm = 0x2FE
	movl	$8, %ecx
	callq	_KLoad1
	movl	$767, %esi              # imm = 0x2FF
	movl	$8, %edx
	movq	-152(%rbp), %r15        # 8-byte Reload
	movq	%r15, %rdi
	callq	_KLoad0
	.loc	3 390 78 is_stmt 1      # aes.c:390:78
	movq	-96(%rbp), %rbx
	shrq	$21, %rbx
	.loc	3 390 34 is_stmt 0      # aes.c:390:34
	andq	$2040, %rbx             # imm = 0x7F8
	leaq	rijndael_dec_il_tab+6144(%rbx), %rdi
	movl	$768, %esi              # imm = 0x300
	movl	$769, %edx              # imm = 0x301
	movl	$8, %ecx
	callq	_KLoad1
	.loc	3 387 34 is_stmt 1      # aes.c:387:34
	xorq	rijndael_dec_il_tab(,%r14,8), %r12
	movq	-176(%rbp), %rax        # 8-byte Reload
	xorq	rijndael_dec_il_tab+2048(,%rax,8), %r12
	xorq	rijndael_dec_il_tab+4096(%r13), %r12
	.loc	3 387 15 is_stmt 0      # aes.c:387:15
	xorq	rijndael_dec_il_tab+6144(%rbx), %r12
	movl	$2, 48(%rsp)
	movl	$768, 40(%rsp)          # imm = 0x300
	movl	$3, 32(%rsp)
	movl	$765, 24(%rsp)          # imm = 0x2FD
	movl	$4, 16(%rsp)
	movl	$762, 8(%rsp)           # imm = 0x2FA
	movl	$4, (%rsp)
	movl	$770, %edi              # imm = 0x302
	movl	$14, %esi
	movl	$4, %edx
	movl	$757, %ecx              # imm = 0x2F5
	movl	$1, %r8d
	movl	$759, %r9d              # imm = 0x2F7
	callq	_KTimestamp6
	movl	$770, %edi              # imm = 0x302
	movl	$8, %edx
.Ltmp378:
	.loc	3 164 3 is_stmt 1       # aes.c:164:3
	leaq	-72(%rbp), %rsi
	callq	_KStore
	.loc	3 387 7                 # aes.c:387:7
.Ltmp379:
	movq	%r12, -72(%rbp)
	movq	-128(%rbp), %r14        # 8-byte Reload
	movq	-120(%rbp), %rbx        # 8-byte Reload
.Ltmp380:
	#DEBUG_VALUE: rijndael_dec_decrypt:cx <- RBX
	.loc	3 391 15                # aes.c:391:15
	leaq	832(%rbx,%r14,8), %rdi
	movl	$771, %esi              # imm = 0x303
	movl	$8, %edx
	callq	_KLoad0
	movq	832(%rbx,%r14,8), %r12
.Ltmp381:
	#DEBUG_VALUE: rijndael_dec_decrypt:cx <- [RBP+-120]
	movl	$772, %esi              # imm = 0x304
	movl	$8, %edx
	movq	%r15, %rdi
	callq	_KLoad0
	.loc	3 391 76 is_stmt 0      # aes.c:391:76
	movzbl	-96(%rbp), %r15d
	.loc	3 391 34                # aes.c:391:34
	leaq	rijndael_dec_il_tab(,%r15,8), %rdi
	movl	$773, %esi              # imm = 0x305
	movl	$774, %edx              # imm = 0x306
	movl	$8, %ecx
	callq	_KLoad1
	movl	$775, %esi              # imm = 0x307
	movl	$8, %edx
	movq	-144(%rbp), %rdi        # 8-byte Reload
	callq	_KLoad0
	.loc	3 392 78 is_stmt 1      # aes.c:392:78
	movq	-104(%rbp), %rax
	.loc	3 392 34 is_stmt 0      # aes.c:392:34
	movzbl	%ah, %eax  # NOREX
	movq	%rax, -176(%rbp)        # 8-byte Spill
	leaq	rijndael_dec_il_tab+2048(,%rax,8), %rdi
	movl	$776, %esi              # imm = 0x308
	movl	$777, %edx              # imm = 0x309
	movl	$8, %ecx
	callq	_KLoad1
	movl	$778, %esi              # imm = 0x30A
	movl	$8, %edx
	movq	-136(%rbp), %rdi        # 8-byte Reload
	callq	_KLoad0
	.loc	3 393 78 is_stmt 1      # aes.c:393:78
	movq	-112(%rbp), %r13
	shrq	$13, %r13
	.loc	3 393 34 is_stmt 0      # aes.c:393:34
	andq	$2040, %r13             # imm = 0x7F8
	leaq	rijndael_dec_il_tab+4096(%r13), %rdi
	movl	$779, %esi              # imm = 0x30B
	movl	$780, %edx              # imm = 0x30C
	movl	$8, %ecx
	callq	_KLoad1
	movl	$781, %esi              # imm = 0x30D
	movl	$8, %edx
	movq	-160(%rbp), %r14        # 8-byte Reload
	movq	%r14, %rdi
	callq	_KLoad0
	.loc	3 394 78 is_stmt 1      # aes.c:394:78
	movq	-88(%rbp), %rbx
	shrq	$21, %rbx
	.loc	3 394 34 is_stmt 0      # aes.c:394:34
	andq	$2040, %rbx             # imm = 0x7F8
	leaq	rijndael_dec_il_tab+6144(%rbx), %rdi
	movl	$782, %esi              # imm = 0x30E
	movl	$783, %edx              # imm = 0x30F
	movl	$8, %ecx
	callq	_KLoad1
	.loc	3 391 34 is_stmt 1      # aes.c:391:34
	xorq	rijndael_dec_il_tab(,%r15,8), %r12
	movq	-176(%rbp), %rax        # 8-byte Reload
	xorq	rijndael_dec_il_tab+2048(,%rax,8), %r12
	xorq	rijndael_dec_il_tab+4096(%r13), %r12
	.loc	3 391 15 is_stmt 0      # aes.c:391:15
	xorq	rijndael_dec_il_tab+6144(%rbx), %r12
	movl	$2, 48(%rsp)
	movl	$782, 40(%rsp)          # imm = 0x30E
	movl	$3, 32(%rsp)
	movl	$779, 24(%rsp)          # imm = 0x30B
	movl	$4, 16(%rsp)
	movl	$776, 8(%rsp)           # imm = 0x308
	movl	$4, (%rsp)
	movl	$784, %edi              # imm = 0x310
	movl	$14, %esi
	movl	$4, %edx
	movl	$771, %ecx              # imm = 0x303
	movl	$1, %r8d
	movl	$773, %r9d              # imm = 0x305
	callq	_KTimestamp6
	movl	$784, %edi              # imm = 0x310
	movl	$8, %edx
.Ltmp382:
	.loc	3 165 3 is_stmt 1       # aes.c:165:3
	leaq	-64(%rbp), %rsi
	callq	_KStore
	.loc	3 391 7                 # aes.c:391:7
.Ltmp383:
	movq	%r12, -64(%rbp)
	movq	-120(%rbp), %r15        # 8-byte Reload
.Ltmp384:
	#DEBUG_VALUE: rijndael_dec_decrypt:cx <- R15
	movq	-128(%rbp), %rbx        # 8-byte Reload
	.loc	3 395 15                # aes.c:395:15
	leaq	840(%r15,%rbx,8), %rdi
	movl	$785, %esi              # imm = 0x311
	movl	$8, %edx
	callq	_KLoad0
	movq	840(%r15,%rbx,8), %r15
.Ltmp385:
	movl	$786, %esi              # imm = 0x312
	movl	$8, %edx
	movq	%r14, %rdi
	callq	_KLoad0
	.loc	3 395 76 is_stmt 0      # aes.c:395:76
	movzbl	-88(%rbp), %r14d
	.loc	3 395 34                # aes.c:395:34
	leaq	rijndael_dec_il_tab(,%r14,8), %rdi
	movl	$787, %esi              # imm = 0x313
	movl	$788, %edx              # imm = 0x314
	movl	$8, %ecx
	callq	_KLoad1
	movl	$789, %esi              # imm = 0x315
	movl	$8, %edx
	movq	-152(%rbp), %rdi        # 8-byte Reload
	callq	_KLoad0
	.loc	3 396 78 is_stmt 1      # aes.c:396:78
	movq	-96(%rbp), %rax
	.loc	3 396 34 is_stmt 0      # aes.c:396:34
	movzbl	%ah, %eax  # NOREX
	leaq	rijndael_dec_il_tab+2048(,%rax,8), %rdi
	movq	%rax, %r13
	movl	$790, %esi              # imm = 0x316
	movl	$791, %edx              # imm = 0x317
	movl	$8, %ecx
	callq	_KLoad1
	movl	$792, %esi              # imm = 0x318
	movl	$8, %edx
	movq	-144(%rbp), %rdi        # 8-byte Reload
	callq	_KLoad0
	.loc	3 397 78 is_stmt 1      # aes.c:397:78
	movq	-104(%rbp), %r12
	shrq	$13, %r12
	.loc	3 397 34 is_stmt 0      # aes.c:397:34
	andq	$2040, %r12             # imm = 0x7F8
	leaq	rijndael_dec_il_tab+4096(%r12), %rdi
	movl	$793, %esi              # imm = 0x319
	movl	$794, %edx              # imm = 0x31A
	movl	$8, %ecx
	callq	_KLoad1
	movl	$795, %esi              # imm = 0x31B
	movl	$8, %edx
	movq	-136(%rbp), %rdi        # 8-byte Reload
	callq	_KLoad0
	.loc	3 398 78 is_stmt 1      # aes.c:398:78
	movq	-112(%rbp), %rbx
	shrq	$21, %rbx
	.loc	3 398 34 is_stmt 0      # aes.c:398:34
	andq	$2040, %rbx             # imm = 0x7F8
	leaq	rijndael_dec_il_tab+6144(%rbx), %rdi
	movl	$796, %esi              # imm = 0x31C
	movl	$797, %edx              # imm = 0x31D
	movl	$8, %ecx
	callq	_KLoad1
	.loc	3 395 34 is_stmt 1      # aes.c:395:34
	xorq	rijndael_dec_il_tab(,%r14,8), %r15
	xorq	rijndael_dec_il_tab+2048(,%r13,8), %r15
	xorq	rijndael_dec_il_tab+4096(%r12), %r15
	.loc	3 395 15 is_stmt 0      # aes.c:395:15
	xorq	rijndael_dec_il_tab+6144(%rbx), %r15
	movl	$2, 48(%rsp)
	movl	$796, 40(%rsp)          # imm = 0x31C
	movl	$3, 32(%rsp)
	movl	$793, 24(%rsp)          # imm = 0x319
	movl	$4, 16(%rsp)
	movl	$790, 8(%rsp)           # imm = 0x316
	movl	$4, (%rsp)
	movl	$798, %edi              # imm = 0x31E
	movl	$14, %esi
	movl	$4, %edx
	movl	$785, %ecx              # imm = 0x311
	movl	$1, %r8d
	movl	$787, %r9d              # imm = 0x313
	callq	_KTimestamp6
	movl	$798, %edi              # imm = 0x31E
	movl	$8, %edx
.Ltmp386:
	.loc	3 166 3 is_stmt 1       # aes.c:166:3
	leaq	-56(%rbp), %rbx
	movq	%rbx, %rsi
	callq	_KStore
	.loc	3 395 7                 # aes.c:395:7
.Ltmp387:
	movq	%r15, -56(%rbp)
	callq	_KPopCDep
	movabsq	$-8262840961745842078, %r13 # imm = 0x8D547DEC77979062
	movq	%rbx, %r12
.Ltmp388:
.LBB1_10:                               # %sw.epilog
	#DEBUG_VALUE: rijndael_dec_decrypt:out_blk <- [RBP+-168]
	#DEBUG_VALUE: rijndael_dec_decrypt:b0 <- [RBP+-80]
	#DEBUG_VALUE: rijndael_dec_decrypt:b1 <- [RBP+-112]
	movl	$808, %edi              # imm = 0x328
	callq	_KPushCDep
	movl	$20, %edi
	callq	_KWork
	leaq	-80(%rbp), %rdi
	movl	$799, %esi              # imm = 0x31F
	movl	$8, %edx
	callq	_KLoad0
	.loc	3 400 35                # aes.c:400:35
	movq	-80(%rbp), %r14
	movl	$799, %edi              # imm = 0x31F
	movl	$799, %esi              # imm = 0x31F
	xorl	%edx, %edx
	callq	_KTimestamp1
	movl	$799, %edi              # imm = 0x31F
	movl	$8, %edx
	movq	-168(%rbp), %rbx        # 8-byte Reload
.Ltmp389:
	#DEBUG_VALUE: rijndael_dec_decrypt:out_blk <- RBX
	movq	%rbx, %rsi
	callq	_KStore
	.loc	3 400 3 is_stmt 0       # aes.c:400:3
	movq	%r14, (%rbx)
	movl	$800, %esi              # imm = 0x320
	movl	$8, %edx
	.loc	3 164 3 is_stmt 1       # aes.c:164:3
	leaq	-72(%rbp), %rdi
	callq	_KLoad0
	.loc	3 401 43                # aes.c:401:43
	movq	-72(%rbp), %r14
	.loc	3 401 25 is_stmt 0      # aes.c:401:25
	leaq	4(%rbx), %r15
	movl	$800, %edi              # imm = 0x320
	movl	$800, %esi              # imm = 0x320
	xorl	%edx, %edx
	callq	_KTimestamp1
	movl	$800, %edi              # imm = 0x320
	movl	$8, %edx
	movq	%r15, %rsi
	callq	_KStore
	.loc	3 401 3                 # aes.c:401:3
	movq	%r14, 4(%rbx)
	movl	$801, %esi              # imm = 0x321
	movl	$8, %edx
	.loc	3 165 3 is_stmt 1       # aes.c:165:3
	leaq	-64(%rbp), %rdi
	callq	_KLoad0
	.loc	3 402 43                # aes.c:402:43
	movq	-64(%rbp), %r14
	.loc	3 402 25 is_stmt 0      # aes.c:402:25
	leaq	8(%rbx), %r15
	movl	$801, %edi              # imm = 0x321
	movl	$801, %esi              # imm = 0x321
	xorl	%edx, %edx
	callq	_KTimestamp1
	movl	$801, %edi              # imm = 0x321
	movl	$8, %edx
	movq	%r15, %rsi
	callq	_KStore
	.loc	3 402 3                 # aes.c:402:3
	movq	%r14, 8(%rbx)
	movl	$802, %esi              # imm = 0x322
	movl	$8, %edx
	movq	%r12, %rdi
	callq	_KLoad0
	.loc	3 403 44 is_stmt 1      # aes.c:403:44
	movq	-56(%rbp), %r14
	.loc	3 403 25 is_stmt 0      # aes.c:403:25
	leaq	12(%rbx), %r15
	movl	$802, %edi              # imm = 0x322
	movl	$802, %esi              # imm = 0x322
	xorl	%edx, %edx
	callq	_KTimestamp1
	movl	$802, %edi              # imm = 0x322
	movl	$8, %edx
	movq	%r15, %rsi
	callq	_KStore
	.loc	3 403 3                 # aes.c:403:3
	movq	%r14, 12(%rbx)
	callq	_KPopCDep
	movw	$1, %bx
.Ltmp390:
.LBB1_11:                               # %return
	movl	$803, %edi              # imm = 0x323
	xorl	%esi, %esi
	movl	$808, %edx              # imm = 0x328
	callq	_KPhi1To1
	movl	$803, %edi              # imm = 0x323
	movl	$803, %esi              # imm = 0x323
	xorl	%edx, %edx
	callq	_KTimestamp1
	movl	$803, %edi              # imm = 0x323
	callq	_KReturn
	xorl	%esi, %esi
	movq	%r13, %rdi
	callq	_KExitRegion
	.loc	3 405 1 is_stmt 1       # aes.c:405:1
	movzwl	%bx, %eax
	addq	$280, %rsp              # imm = 0x118
	popq	%rbx
	popq	%r12
	popq	%r13
	popq	%r14
	popq	%r15
	popq	%rbp
	retq
.Ltmp391:
.Ltmp392:
	.size	rijndael_dec_decrypt, .Ltmp392-rijndael_dec_decrypt
.Lfunc_end1:
	.cfi_endproc

	.type	rijndael_dec_rcon_tab,@object # @rijndael_dec_rcon_tab
	.section	.rodata,"a",@progbits
	.globl	rijndael_dec_rcon_tab
	.align	16
rijndael_dec_rcon_tab:
	.quad	1                       # 0x1
	.quad	2                       # 0x2
	.quad	4                       # 0x4
	.quad	8                       # 0x8
	.quad	16                      # 0x10
	.quad	32                      # 0x20
	.quad	64                      # 0x40
	.quad	128                     # 0x80
	.quad	27                      # 0x1b
	.quad	54                      # 0x36
	.quad	108                     # 0x6c
	.quad	216                     # 0xd8
	.quad	171                     # 0xab
	.quad	77                      # 0x4d
	.quad	154                     # 0x9a
	.quad	47                      # 0x2f
	.quad	94                      # 0x5e
	.quad	188                     # 0xbc
	.quad	99                      # 0x63
	.quad	198                     # 0xc6
	.quad	151                     # 0x97
	.quad	53                      # 0x35
	.quad	106                     # 0x6a
	.quad	212                     # 0xd4
	.quad	179                     # 0xb3
	.quad	125                     # 0x7d
	.quad	250                     # 0xfa
	.quad	239                     # 0xef
	.quad	197                     # 0xc5
	.size	rijndael_dec_rcon_tab, 232

	.type	rijndael_dec_it_tab,@object # @rijndael_dec_it_tab
	.globl	rijndael_dec_it_tab
	.align	16
rijndael_dec_it_tab:
	.quad	1353184337              # 0x50a7f451
	.quad	1399144830              # 0x5365417e
	.quad	3282310938              # 0xc3a4171a
	.quad	2522752826              # 0x965e273a
	.quad	3412831035              # 0xcb6bab3b
	.quad	4047871263              # 0xf1459d1f
	.quad	2874735276              # 0xab58faac
	.quad	2466505547              # 0x9303e34b
	.quad	1442459680              # 0x55fa3020
	.quad	4134368941              # 0xf66d76ad
	.quad	2440481928              # 0x9176cc88
	.quad	625738485               # 0x254c02f5
	.quad	4242007375              # 0xfcd7e54f
	.quad	3620416197              # 0xd7cb2ac5
	.quad	2151953702              # 0x80443526
	.quad	2409849525              # 0x8fa362b5
	.quad	1230680542              # 0x495ab1de
	.quad	1729870373              # 0x671bba25
	.quad	2551114309              # 0x980eea45
	.quad	3787521629              # 0xe1c0fe5d
	.quad	41234371                # 0x2752fc3
	.quad	317738113               # 0x12f04c81
	.quad	2744600205              # 0xa397468d
	.quad	3338261355              # 0xc6f9d36b
	.quad	3881799427              # 0xe75f8f03
	.quad	2510066197              # 0x959c9215
	.quad	3950669247              # 0xeb7a6dbf
	.quad	3663286933              # 0xda595295
	.quad	763608788               # 0x2d83bed4
	.quad	3542185048              # 0xd3217458
	.quad	694804553               # 0x2969e049
	.quad	1154009486              # 0x44c8c98e
	.quad	1787413109              # 0x6a89c275
	.quad	2021232372              # 0x78798ef4
	.quad	1799248025              # 0x6b3e5899
	.quad	3715217703              # 0xdd71b927
	.quad	3058688446              # 0xb64fe1be
	.quad	397248752               # 0x17ad88f0
	.quad	1722556617              # 0x66ac20c9
	.quad	3023752829              # 0xb43ace7d
	.quad	407560035               # 0x184adf63
	.quad	2184256229              # 0x82311ae5
	.quad	1613975959              # 0x60335197
	.quad	1165972322              # 0x457f5362
	.quad	3765920945              # 0xe07764b1
	.quad	2226023355              # 0x84ae6bbb
	.quad	480281086               # 0x1ca081fe
	.quad	2485848313              # 0x942b08f9
	.quad	1483229296              # 0x58684870
	.quad	436028815               # 0x19fd458f
	.quad	2272059028              # 0x876cde94
	.quad	3086515026              # 0xb7f87b52
	.quad	601060267               # 0x23d373ab
	.quad	3791801202              # 0xe2024b72
	.quad	1468997603              # 0x578f1fe3
	.quad	715871590               # 0x2aab5566
	.quad	120122290               # 0x728ebb2
	.quad	63092015                # 0x3c2b52f
	.quad	2591802758              # 0x9a7bc586
	.quad	2768779219              # 0xa50837d3
	.quad	4068943920              # 0xf2872830
	.quad	2997206819              # 0xb2a5bf23
	.quad	3127509762              # 0xba6a0302
	.quad	1552029421              # 0x5c8216ed
	.quad	723308426               # 0x2b1ccf8a
	.quad	2461301159              # 0x92b479a7
	.quad	4042393587              # 0xf0f207f3
	.quad	2715969870              # 0xa1e2694e
	.quad	3455375973              # 0xcdf4da65
	.quad	3586000134              # 0xd5be0506
	.quad	526529745               # 0x1f6234d1
	.quad	2331944644              # 0x8afea6c4
	.quad	2639474228              # 0x9d532e34
	.quad	2689987490              # 0xa055f3a2
	.quad	853641733               # 0x32e18a05
	.quad	1978398372              # 0x75ebf6a4
	.quad	971801355               # 0x39ec830b
	.quad	2867814464              # 0xaaef6040
	.quad	111112542               # 0x69f715e
	.quad	1360031421              # 0x51106ebd
	.quad	4186579262              # 0xf98a213e
	.quad	1023860118              # 0x3d06dd96
	.quad	2919579357              # 0xae053edd
	.quad	1186850381              # 0x46bde64d
	.quad	3045938321              # 0xb58d5491
	.quad	90031217                # 0x55dc471
	.quad	1876166148              # 0x6fd40604
	.quad	4279586912              # 0xff155060
	.quad	620468249               # 0x24fb9819
	.quad	2548678102              # 0x97e9bdd6
	.quad	3426959497              # 0xcc434089
	.quad	2006899047              # 0x779ed967
	.quad	3175278768              # 0xbd42e8b0
	.quad	2290845959              # 0x888b8907
	.quad	945494503               # 0x385b19e7
	.quad	3689859193              # 0xdbeec879
	.quad	1191869601              # 0x470a7ca1
	.quad	3910091388              # 0xe90f427c
	.quad	3374220536              # 0xc91e84f8
	.quad	0                       # 0x0
	.quad	2206629897              # 0x83868009
	.quad	1223502642              # 0x48ed2b32
	.quad	2893025566              # 0xac70111e
	.quad	1316117100              # 0x4e725a6c
	.quad	4227796733              # 0xfbff0efd
	.quad	1446544655              # 0x5638850f
	.quad	517320253               # 0x1ed5ae3d
	.quad	658058550               # 0x27392d36
	.quad	1691946762              # 0x64d90f0a
	.quad	564550760               # 0x21a65c68
	.quad	3511966619              # 0xd1545b9b
	.quad	976107044               # 0x3a2e3624
	.quad	2976320012              # 0xb1670a0c
	.quad	266819475               # 0xfe75793
	.quad	3533106868              # 0xd296eeb4
	.quad	2660342555              # 0x9e919b1b
	.quad	1338359936              # 0x4fc5c080
	.quad	2720062561              # 0xa220dc61
	.quad	1766553434              # 0x694b775a
	.quad	370807324               # 0x161a121c
	.quad	179999714               # 0xaba93e2
	.quad	3844776128              # 0xe52aa0c0
	.quad	1138762300              # 0x43e0223c
	.quad	488053522               # 0x1d171b12
	.quad	185403662               # 0xb0d090e
	.quad	2915535858              # 0xadc78bf2
	.quad	3114841645              # 0xb9a8b62d
	.quad	3366526484              # 0xc8a91e14
	.quad	2233069911              # 0x8519f157
	.quad	1275557295              # 0x4c0775af
	.quad	3151862254              # 0xbbdd99ee
	.quad	4250959779              # 0xfd607fa3
	.quad	2670068215              # 0x9f2601f7
	.quad	3170202204              # 0xbcf5725c
	.quad	3309004356              # 0xc53b6644
	.quad	880737115               # 0x347efb5b
	.quad	1982415755              # 0x7629438b
	.quad	3703972811              # 0xdcc623cb
	.quad	1761406390              # 0x68fcedb6
	.quad	1676797112              # 0x63f1e4b8
	.quad	3403428311              # 0xcadc31d7
	.quad	277177154               # 0x10856342
	.quad	1076008723              # 0x40229713
	.quad	538035844               # 0x2011c684
	.quad	2099530373              # 0x7d244a85
	.quad	4164795346              # 0xf83dbbd2
	.quad	288553390               # 0x1132f9ae
	.quad	1839278535              # 0x6da129c7
	.quad	1261411869              # 0x4b2f9e1d
	.quad	4080055004              # 0xf330b2dc
	.quad	3964831245              # 0xec52860d
	.quad	3504587127              # 0xd0e3c177
	.quad	1813426987              # 0x6c16b32b
	.quad	2579067049              # 0x99b970a9
	.quad	4199060497              # 0xfa489411
	.quad	577038663               # 0x2264e947
	.quad	3297574056              # 0xc48cfca8
	.quad	440397984               # 0x1a3ff0a0
	.quad	3626794326              # 0xd82c7d56
	.quad	4019204898              # 0xef903322
	.quad	3343796615              # 0xc74e4987
	.quad	3251714265              # 0xc1d138d9
	.quad	4272081548              # 0xfea2ca8c
	.quad	906744984               # 0x360bd498
	.quad	3481400742              # 0xcf81f5a6
	.quad	685669029               # 0x28de7aa5
	.quad	646887386               # 0x268eb7da
	.quad	2764025151              # 0xa4bfad3f
	.quad	3835509292              # 0xe49d3a2c
	.quad	227702864               # 0xd927850
	.quad	2613862250              # 0x9bcc5f6a
	.quad	1648787028              # 0x62467e54
	.quad	3256061430              # 0xc2138df6
	.quad	3904428176              # 0xe8b8d890
	.quad	1593260334              # 0x5ef7392e
	.quad	4121936770              # 0xf5afc382
	.quad	3196083615              # 0xbe805d9f
	.quad	2090061929              # 0x7c93d069
	.quad	2838353263              # 0xa92dd56f
	.quad	3004310991              # 0xb31225cf
	.quad	999926984               # 0x3b99acc8
	.quad	2809993232              # 0xa77d1810
	.quad	1852021992              # 0x6e639ce8
	.quad	2075868123              # 0x7bbb3bdb
	.quad	158869197               # 0x97826cd
	.quad	4095236462              # 0xf418596e
	.quad	28809964                # 0x1b79aec
	.quad	2828685187              # 0xa89a4f83
	.quad	1701746150              # 0x656e95e6
	.quad	2129067946              # 0x7ee6ffaa
	.quad	147831841               # 0x8cfbc21
	.quad	3873969647              # 0xe6e815ef
	.quad	3650873274              # 0xd99be7ba
	.quad	3459673930              # 0xce366f4a
	.quad	3557400554              # 0xd4099fea
	.quad	3598495785              # 0xd67cb029
	.quad	2947720241              # 0xafb2a431
	.quad	824393514               # 0x31233f2a
	.quad	815048134               # 0x3094a5c6
	.quad	3227951669              # 0xc066a235
	.quad	935087732               # 0x37bc4e74
	.quad	2798289660              # 0xa6ca82fc
	.quad	2966458592              # 0xb0d090e0
	.quad	366520115               # 0x15d8a733
	.quad	1251476721              # 0x4a9804f1
	.quad	4158319681              # 0xf7daec41
	.quad	240176511               # 0xe50cd7f
	.quad	804688151               # 0x2ff69117
	.quad	2379631990              # 0x8dd64d76
	.quad	1303441219              # 0x4db0ef43
	.quad	1414376140              # 0x544daacc
	.quad	3741619940              # 0xdf0496e4
	.quad	3820343710              # 0xe3b5d19e
	.quad	461924940               # 0x1b886a4c
	.quad	3089050817              # 0xb81f2cc1
	.quad	2136040774              # 0x7f516546
	.quad	82468509                # 0x4ea5e9d
	.quad	1563790337              # 0x5d358c01
	.quad	1937016826              # 0x737487fa
	.quad	776014843               # 0x2e410bfb
	.quad	1511876531              # 0x5a1d67b3
	.quad	1389550482              # 0x52d2db92
	.quad	861278441               # 0x335610e9
	.quad	323475053               # 0x1347d66d
	.quad	2355222426              # 0x8c61d79a
	.quad	2047648055              # 0x7a0ca137
	.quad	2383738969              # 0x8e14f859
	.quad	2302415851              # 0x893c13eb
	.quad	3995576782              # 0xee27a9ce
	.quad	902390199               # 0x35c961b7
	.quad	3991215329              # 0xede51ce1
	.quad	1018251130              # 0x3cb1477a
	.quad	1507840668              # 0x59dfd29c
	.quad	1064563285              # 0x3f73f255
	.quad	2043548696              # 0x79ce1418
	.quad	3208103795              # 0xbf37c773
	.quad	3939366739              # 0xeacdf753
	.quad	1537932639              # 0x5baafd5f
	.quad	342834655               # 0x146f3ddf
	.quad	2262516856              # 0x86db4478
	.quad	2180231114              # 0x81f3afca
	.quad	1053059257              # 0x3ec468b9
	.quad	741614648               # 0x2c342438
	.quad	1598071746              # 0x5f40a3c2
	.quad	1925389590              # 0x72c31d16
	.quad	203809468               # 0xc25e2bc
	.quad	2336832552              # 0x8b493c28
	.quad	1100287487              # 0x41950dff
	.quad	1895934009              # 0x7101a839
	.quad	3736275976              # 0xdeb30c08
	.quad	2632234200              # 0x9ce4b4d8
	.quad	2428589668              # 0x90c15664
	.quad	1636092795              # 0x6184cb7b
	.quad	1890988757              # 0x70b632d5
	.quad	1952214088              # 0x745c6c48
	.quad	1113045200              # 0x4257b8d0
	.quad	2817806672              # 0xa7f45150
	.quad	1698790995              # 0x65417e53
	.quad	2752977603              # 0xa4171ac3
	.quad	1579629206              # 0x5e273a96
	.quad	1806384075              # 0x6bab3bcb
	.quad	1167925233              # 0x459d1ff1
	.quad	1492823211              # 0x58faacab
	.quad	65227667                # 0x3e34b93
	.quad	4197458005              # 0xfa302055
	.quad	1836494326              # 0x6d76adf6
	.quad	1993115793              # 0x76cc8891
	.quad	1275262245              # 0x4c02f525
	.quad	3622129660              # 0xd7e54ffc
	.quad	3408578007              # 0xcb2ac5d7
	.quad	1144333952              # 0x44352680
	.quad	2741155215              # 0xa362b58f
	.quad	1521606217              # 0x5ab1de49
	.quad	465184103               # 0x1bba2567
	.quad	250234264               # 0xeea4598
	.quad	3237895649              # 0xc0fe5de1
	.quad	1966064386              # 0x752fc302
	.quad	4031545618              # 0xf04c8112
	.quad	2537983395              # 0x97468da3
	.quad	4191382470              # 0xf9d36bc6
	.quad	1603208167              # 0x5f8f03e7
	.quad	2626819477              # 0x9c921595
	.quad	2054012907              # 0x7a6dbfeb
	.quad	1498584538              # 0x595295da
	.quad	2210321453              # 0x83bed42d
	.quad	561273043               # 0x217458d3
	.quad	1776306473              # 0x69e04929
	.quad	3368652356              # 0xc8c98e44
	.quad	2311222634              # 0x89c2756a
	.quad	2039411832              # 0x798ef478
	.quad	1045993835              # 0x3e58996b
	.quad	1907959773              # 0x71b927dd
	.quad	1340194486              # 0x4fe1beb6
	.quad	2911432727              # 0xad88f017
	.quad	2887829862              # 0xac20c966
	.quad	986611124               # 0x3ace7db4
	.quad	1256153880              # 0x4adf6318
	.quad	823846274               # 0x311ae582
	.quad	860985184               # 0x33519760
	.quad	2136171077              # 0x7f536245
	.quad	2003087840              # 0x7764b1e0
	.quad	2926295940              # 0xae6bbb84
	.quad	2692873756              # 0xa081fe1c
	.quad	722008468               # 0x2b08f994
	.quad	1749577816              # 0x68487058
	.quad	4249194265              # 0xfd458f19
	.quad	1826526343              # 0x6cde9487
	.quad	4168831671              # 0xf87b52b7
	.quad	3547573027              # 0xd373ab23
	.quad	38499042                # 0x24b72e2
	.quad	2401231703              # 0x8f1fe357
	.quad	2874500650              # 0xab55662a
	.quad	686535175               # 0x28ebb207
	.quad	3266653955              # 0xc2b52f03
	.quad	2076542618              # 0x7bc5869a
	.quad	137876389               # 0x837d3a5
	.quad	2267558130              # 0x872830f2
	.quad	2780767154              # 0xa5bf23b2
	.quad	1778582202              # 0x6a0302ba
	.quad	2182540636              # 0x8216ed5c
	.quad	483363371               # 0x1ccf8a2b
	.quad	3027871634              # 0xb479a792
	.quad	4060607472              # 0xf207f3f0
	.quad	3798552225              # 0xe2694ea1
	.quad	4107953613              # 0xf4da65cd
	.quad	3188000469              # 0xbe0506d5
	.quad	1647628575              # 0x6234d11f
	.quad	4272342154              # 0xfea6c48a
	.quad	1395537053              # 0x532e349d
	.quad	1442030240              # 0x55f3a2a0
	.quad	3783918898              # 0xe18a0532
	.quad	3958809717              # 0xebf6a475
	.quad	3968011065              # 0xec830b39
	.quad	4016062634              # 0xef6040aa
	.quad	2675006982              # 0x9f715e06
	.quad	275692881               # 0x106ebd51
	.quad	2317434617              # 0x8a213ef9
	.quad	115185213               # 0x6dd963d
	.quad	88006062                # 0x53eddae
	.quad	3185986886              # 0xbde64d46
	.quad	2371129781              # 0x8d5491b5
	.quad	1573155077              # 0x5dc47105
	.quad	3557164143              # 0xd406046f
	.quad	357589247               # 0x155060ff
	.quad	4221049124              # 0xfb981924
	.quad	3921532567              # 0xe9bdd697
	.quad	1128303052              # 0x434089cc
	.quad	2665047927              # 0x9ed96777
	.quad	1122545853              # 0x42e8b0bd
	.quad	2341013384              # 0x8b890788
	.quad	1528424248              # 0x5b19e738
	.quad	4006115803              # 0xeec879db
	.quad	175939911               # 0xa7ca147
	.quad	256015593               # 0xf427ce9
	.quad	512030921               # 0x1e84f8c9
	.quad	0                       # 0x0
	.quad	2256537987              # 0x86800983
	.quad	3979031112              # 0xed2b3248
	.quad	1880170156              # 0x70111eac
	.quad	1918528590              # 0x725a6c4e
	.quad	4279172603              # 0xff0efdfb
	.quad	948244310               # 0x38850f56
	.quad	3584965918              # 0xd5ae3d1e
	.quad	959264295               # 0x392d3627
	.quad	3641641572              # 0xd90f0a64
	.quad	2791073825              # 0xa65c6821
	.quad	1415289809              # 0x545b9bd1
	.quad	775300154               # 0x2e36243a
	.quad	1728711857              # 0x670a0cb1
	.quad	3881276175              # 0xe757930f
	.quad	2532226258              # 0x96eeb4d2
	.quad	2442861470              # 0x919b1b9e
	.quad	3317727311              # 0xc5c0804f
	.quad	551313826               # 0x20dc61a2
	.quad	1266113129              # 0x4b775a69
	.quad	437394454               # 0x1a121c16
	.quad	3130253834              # 0xba93e20a
	.quad	715178213               # 0x2aa0c0e5
	.quad	3760340035              # 0xe0223c43
	.quad	387650077               # 0x171b121d
	.quad	218697227               # 0xd090e0b
	.quad	3347837613              # 0xc78bf2ad
	.quad	2830511545              # 0xa8b62db9
	.quad	2837320904              # 0xa91e14c8
	.quad	435246981               # 0x19f15785
	.quad	125153100               # 0x775af4c
	.quad	3717852859              # 0xdd99eebb
	.quad	1618977789              # 0x607fa3fd
	.quad	637663135               # 0x2601f79f
	.quad	4117912764              # 0xf5725cbc
	.quad	996558021               # 0x3b6644c5
	.quad	2130402100              # 0x7efb5b34
	.quad	692292470               # 0x29438b76
	.quad	3324234716              # 0xc623cbdc
	.quad	4243437160              # 0xfcedb668
	.quad	4058298467              # 0xf1e4b863
	.quad	3694254026              # 0xdc31d7ca
	.quad	2237874704              # 0x85634210
	.quad	580326208               # 0x22971340
	.quad	298222624               # 0x11c68420
	.quad	608863613               # 0x244a857d
	.quad	1035719416              # 0x3dbbd2f8
	.quad	855223825               # 0x32f9ae11
	.quad	2703869805              # 0xa129c76d
	.quad	798891339               # 0x2f9e1d4b
	.quad	817028339               # 0x30b2dcf3
	.quad	1384517100              # 0x52860dec
	.quad	3821107152              # 0xe3c177d0
	.quad	380840812               # 0x16b32b6c
	.quad	3111168409              # 0xb970a999
	.quad	1217663482              # 0x489411fa
	.quad	1693009698              # 0x64e94722
	.quad	2365368516              # 0x8cfca8c4
	.quad	1072734234              # 0x3ff0a01a
	.quad	746411736               # 0x2c7d56d8
	.quad	2419270383              # 0x903322ef
	.quad	1313441735              # 0x4e4987c7
	.quad	3510163905              # 0xd138d9c1
	.quad	2731183358              # 0xa2ca8cfe
	.quad	198481974               # 0xbd49836
	.quad	2180359887              # 0x81f5a6cf
	.quad	3732579624              # 0xde7aa528
	.quad	2394413606              # 0x8eb7da26
	.quad	3215802276              # 0xbfad3fa4
	.quad	2637835492              # 0x9d3a2ce4
	.quad	2457358349              # 0x9278500d
	.quad	3428805275              # 0xcc5f6a9b
	.quad	1182684258              # 0x467e5462
	.quad	328070850               # 0x138df6c2
	.quad	3101200616              # 0xb8d890e8
	.quad	4147719774              # 0xf7392e5e
	.quad	2948825845              # 0xafc382f5
	.quad	2153619390              # 0x805d9fbe
	.quad	2479909244              # 0x93d0697c
	.quad	768962473               # 0x2dd56fa9
	.quad	304467891               # 0x1225cfb3
	.quad	2578237499              # 0x99acc83b
	.quad	2098729127              # 0x7d1810a7
	.quad	1671227502              # 0x639ce86e
	.quad	3141262203              # 0xbb3bdb7b
	.quad	2015808777              # 0x7826cd09
	.quad	408514292               # 0x18596ef4
	.quad	3080383489              # 0xb79aec01
