	.text
	.file	"rijndael_dec_libc.simplifycfg.mem2reg.indvars.elimsinglephis.criticalpath.regioninstrument.renamemain.O3.bc"
	.text
	.globl	rijndael_dec_toupper
	.align	16, 0x90
	.type	rijndael_dec_toupper,@function
rijndael_dec_toupper:                   # @rijndael_dec_toupper
.Lfunc_begin0:
	.file	2 "rijndael_dec_libc.c"
	.loc	2 4 0                   # rijndael_dec_libc.c:4:0
	.cfi_startproc
# BB#0:                                 # %entry
	pushq	%rbp
.Ltmp0:
	.cfi_def_cfa_offset 16
.Ltmp1:
	.cfi_offset %rbp, -16
	movq	%rsp, %rbp
.Ltmp2:
	.cfi_def_cfa_register %rbp
	pushq	%r15
	pushq	%r14
	pushq	%r12
	pushq	%rbx
.Ltmp3:
	.cfi_offset %rbx, -48
.Ltmp4:
	.cfi_offset %r12, -40
.Ltmp5:
	.cfi_offset %r14, -32
.Ltmp6:
	.cfi_offset %r15, -24
	#DEBUG_VALUE: rijndael_dec_toupper:c <- EDI
	movl	%edi, %r12d
.Ltmp7:
	#DEBUG_VALUE: rijndael_dec_toupper:c <- R12D
	movabsq	$6780740279087917252, %r14 # imm = 0x5E1A075BA137E8C4
	xorl	%esi, %esi
	movq	%r14, %rdi
	callq	_KEnterRegion
	movl	$5, %edi
	xorl	%esi, %esi
	callq	_KPrepRTable
	movl	$3, %r15d
	movl	$3, %edi
	callq	_KWork
	movl	$1, %edi
	callq	_KDeqArg
	.loc	2 5 8 prologue_end      # rijndael_dec_libc.c:5:8
.Ltmp8:
	leal	-97(%r12), %ebx
	movl	$4, %edi
	movl	$1, %esi
	movl	$2, %edx
	callq	_KTimestamp1
	movl	$4, %edi
	callq	_KPushCDep
	cmpl	$25, %ebx
	ja	.LBB0_2
.Ltmp9:
# BB#1:                                 # %if.then
	#DEBUG_VALUE: rijndael_dec_toupper:c <- R12D
	movl	$2, %edi
	callq	_KWork
	.loc	2 6 12                  # rijndael_dec_libc.c:6:12
.Ltmp10:
	addl	$-32, %r12d
.Ltmp11:
	movl	$3, %edi
	movl	$1, %esi
	movl	$4, %edx
	callq	_KTimestamp1
	callq	_KPopCDep
	jmp	.LBB0_3
.Ltmp12:
.LBB0_2:                                # %if.end
	#DEBUG_VALUE: rijndael_dec_toupper:c <- R12D
	movl	$1, %edi
	movl	$1, %esi
	xorl	%edx, %edx
	callq	_KTimestamp1
	callq	_KPopCDep
	movl	$1, %r15d
.Ltmp13:
.LBB0_3:                                # %return
	movl	$2, %edi
	movl	$4, %edx
	movl	%r15d, %esi
	callq	_KPhi1To1
	movl	$2, %edi
	movl	$2, %esi
	xorl	%edx, %edx
	callq	_KTimestamp1
	movl	$2, %edi
	callq	_KReturn
	xorl	%esi, %esi
	movq	%r14, %rdi
	callq	_KExitRegion
	.loc	2 8 1                   # rijndael_dec_libc.c:8:1
	movl	%r12d, %eax
	popq	%rbx
	popq	%r12
	popq	%r14
	popq	%r15
	popq	%rbp
	retq
.Ltmp14:
.Ltmp15:
	.size	rijndael_dec_toupper, .Ltmp15-rijndael_dec_toupper
.Lfunc_end0:
	.cfi_endproc

	.globl	rijndael_dec_fread
	.align	16, 0x90
	.type	rijndael_dec_fread,@function
rijndael_dec_fread:                     # @rijndael_dec_fread
.Lfunc_begin1:
	.loc	2 12 0                  # rijndael_dec_libc.c:12:0
	.cfi_startproc
# BB#0:                                 # %entry
	pushq	%rbp
.Ltmp16:
	.cfi_def_cfa_offset 16
.Ltmp17:
	.cfi_offset %rbp, -16
	movq	%rsp, %rbp
.Ltmp18:
	.cfi_def_cfa_register %rbp
	pushq	%r15
	pushq	%r14
	pushq	%r13
	pushq	%r12
	pushq	%rbx
	subq	$104, %rsp
.Ltmp19:
	.cfi_offset %rbx, -56
.Ltmp20:
	.cfi_offset %r12, -48
.Ltmp21:
	.cfi_offset %r13, -40
.Ltmp22:
	.cfi_offset %r14, -32
.Ltmp23:
	.cfi_offset %r15, -24
	#DEBUG_VALUE: rijndael_dec_fread:ptr <- RDI
	#DEBUG_VALUE: rijndael_dec_fread:size <- RSI
	#DEBUG_VALUE: rijndael_dec_fread:count <- RDX
	#DEBUG_VALUE: rijndael_dec_fread:stream <- RCX
	movq	%rcx, %rbx
.Ltmp24:
	#DEBUG_VALUE: rijndael_dec_fread:stream <- RBX
	movq	%rbx, -80(%rbp)         # 8-byte Spill
	movq	%rdx, -48(%rbp)         # 8-byte Spill
.Ltmp25:
	#DEBUG_VALUE: rijndael_dec_fread:count <- [RBP+-48]
	movq	%rsi, %r12
.Ltmp26:
	#DEBUG_VALUE: rijndael_dec_fread:size <- R12
	movq	%rdi, -88(%rbp)         # 8-byte Spill
.Ltmp27:
	#DEBUG_VALUE: rijndael_dec_fread:ptr <- [RBP+-88]
	movabsq	$-6702417361372325097, %rdi # imm = 0xA2FC3AEBB6FDDB17
	xorl	%esi, %esi
	callq	_KEnterRegion
	movl	$22, %edi
	movl	$2, %esi
	callq	_KPrepRTable
	movl	$16, %edi
	callq	_KWork
	movl	$2, %edi
	callq	_KDeqArg
	movl	$1, %edi
	callq	_KDeqArg
	.loc	2 13 16 prologue_end    # rijndael_dec_libc.c:13:16
.Ltmp28:
	leaq	16(%rbx), %r13
	movl	$3, %esi
	movl	$4, %edx
	movq	%r13, %rdi
	callq	_KLoad0
	movl	16(%rbx), %eax
.Ltmp29:
	#DEBUG_VALUE: rijndael_dec_fread:i2 <- 0
	#DEBUG_VALUE: rijndael_dec_fread:i <- [RBP+-72]
	.loc	2 15 5                  # rijndael_dec_libc.c:15:5
	movq	%rax, -72(%rbp)         # 8-byte Spill
	leaq	8(%rbx), %r14
	movl	$4, %esi
	movl	$8, %edx
	movq	%r14, %rdi
	callq	_KLoad0
	movq	8(%rbx), %r15
	movl	$5, %esi
	movl	$4, %edx
	movq	%r13, %rdi
	callq	_KLoad0
	.loc	2 15 20 is_stmt 0       # rijndael_dec_libc.c:15:20
	movl	16(%rbx), %eax
.Ltmp30:
	#DEBUG_VALUE: rijndael_dec_fread:stream <- [RBP+-80]
	.loc	2 15 5                  # rijndael_dec_libc.c:15:5
	subq	%rax, %r15
	.loc	2 15 39                 # rijndael_dec_libc.c:15:39
	imulq	-48(%rbp), %r12         # 8-byte Folded Reload
.Ltmp31:
	movq	%r12, -64(%rbp)         # 8-byte Spill
	movl	$3, %edi
	movl	$3, %esi
	xorl	%edx, %edx
	callq	_KTimestamp1
	movl	$2, 16(%rsp)
	movl	$5, 8(%rsp)
	movl	$3, (%rsp)
	movl	$17, %edi
	movl	$4, %esi
	movl	$2, %edx
	movl	$1, %ecx
	movl	$3, %r8d
	movl	$2, %r9d
	callq	_KTimestamp4
	movl	$17, %edi
	callq	_KPushCDep
	.loc	2 15 5                  # rijndael_dec_libc.c:15:5
	cmpq	%r12, %r15
	jae	.LBB1_1
# BB#2:                                 # %cond.false
	#DEBUG_VALUE: rijndael_dec_fread:ptr <- [RBP+-88]
	#DEBUG_VALUE: rijndael_dec_fread:stream <- [RBP+-80]
	#DEBUG_VALUE: rijndael_dec_fread:i <- [RBP+-72]
	#DEBUG_VALUE: rijndael_dec_fread:i2 <- 0
	movl	$9, %edi
	callq	_KWork
	movl	$6, %esi
	movl	$8, %edx
	movq	%r14, %rdi
	callq	_KLoad0
	.loc	2 16 20 is_stmt 1       # rijndael_dec_libc.c:16:20
	movq	(%r14), %rbx
	movl	$7, %esi
	movl	$4, %edx
	movq	%r13, %rdi
	callq	_KLoad0
	.loc	2 16 35 is_stmt 0       # rijndael_dec_libc.c:16:35
	movl	(%r13), %eax
	.loc	2 16 20                 # rijndael_dec_libc.c:16:20
	subq	%rax, %rbx
	movq	%rbx, -64(%rbp)         # 8-byte Spill
	movl	$1, 48(%rsp)
	movl	$7, 40(%rsp)
	movl	$1, 32(%rsp)
	movl	$6, 24(%rsp)
	movl	$3, 16(%rsp)
	movl	$5, 8(%rsp)
	movl	$4, (%rsp)
	movl	$16, %edi
	movl	$4, %esi
	movl	$3, %edx
	movl	$1, %ecx
	movl	$4, %r8d
	movl	$2, %r9d
	callq	_KTimestamp6
	callq	_KPopCDep
	movq	%r13, %r12
	movl	$16, %ebx
	jmp	.LBB1_3
.LBB1_1:                                # %cond.true
	#DEBUG_VALUE: rijndael_dec_fread:ptr <- [RBP+-88]
	#DEBUG_VALUE: rijndael_dec_fread:stream <- [RBP+-80]
	#DEBUG_VALUE: rijndael_dec_fread:i <- [RBP+-72]
	#DEBUG_VALUE: rijndael_dec_fread:i2 <- 0
	movl	$2, %edi
	callq	_KWork
	movl	$4, 16(%rsp)
	movl	$5, 8(%rsp)
	movl	$5, (%rsp)
	movl	$15, %ebx
	movl	$15, %edi
	movl	$4, %esi
	movl	$4, %edx
	movl	$1, %ecx
	movl	$5, %r8d
	movl	$2, %r9d
	callq	_KTimestamp4
	callq	_KPopCDep
	movq	%r13, %r12
.LBB1_3:                                # %cond.end
	#DEBUG_VALUE: rijndael_dec_fread:ptr <- [RBP+-88]
	#DEBUG_VALUE: rijndael_dec_fread:stream <- [RBP+-80]
	#DEBUG_VALUE: rijndael_dec_fread:i <- [RBP+-72]
	#DEBUG_VALUE: rijndael_dec_fread:i2 <- 0
	movl	$14, %edi
	movl	$17, %edx
	movl	%ebx, %esi
	callq	_KPhi1To1
	xorl	%ebx, %ebx
	movl	$14, %edi
	movl	$14, %esi
	xorl	%edx, %edx
	callq	_KTimestamp1
	movl	$21, %edi
	callq	_KInduction
	movl	$1, %esi
	movabsq	$-9103037853602193549, %rdi # imm = 0x81AB834D571B5F73
	callq	_KEnterRegion
	movl	$3, %r13d
	movabsq	$4898259453472464989, %r15 # imm = 0x43FA1D0555ECE05D
	xorl	%r14d, %r14d
	jmp	.LBB1_4
	.align	16, 0x90
.LBB1_5:                                # %while.body
                                        #   in Loop: Header=BB1_4 Depth=1
	#DEBUG_VALUE: rijndael_dec_fread:ptr <- [RBP+-88]
	#DEBUG_VALUE: rijndael_dec_fread:stream <- [RBP+-80]
	#DEBUG_VALUE: rijndael_dec_fread:i <- [RBP+-72]
	#DEBUG_VALUE: rijndael_dec_fread:i2 <- 0
.Ltmp32:
	#DEBUG_VALUE: rijndael_dec_fread:number_of_chars_to_read <- [RBP+-64]
	movl	$2, %esi
	movq	%r15, %rdi
	callq	_KEnterRegion
	movl	$20, %edi
	callq	_KPushCDep
	movl	$10, %edi
	callq	_KWork
	movl	$9, %esi
	movl	$8, %edx
	movq	-80(%rbp), %rbx         # 8-byte Reload
.Ltmp33:
	#DEBUG_VALUE: rijndael_dec_fread:stream <- RBX
	movq	%rbx, %rdi
	callq	_KLoad0
	.loc	2 19 40 is_stmt 1       # rijndael_dec_libc.c:19:40
	movq	(%rbx), %rbx
.Ltmp34:
	#DEBUG_VALUE: rijndael_dec_fread:stream <- [RBP+-80]
	leaq	(%rbx,%r13), %rdi
	movl	$10, %esi
	movl	$11, %edx
	movl	$1, %ecx
	callq	_KLoad1
	movb	(%rbx,%r13), %al
.Ltmp35:
	#DEBUG_VALUE: rijndael_dec_fread:i2 <- R14D
	movb	%al, -49(%rbp)          # 1-byte Spill
	movq	%r12, -48(%rbp)         # 8-byte Spill
	.loc	2 19 5 is_stmt 0        # rijndael_dec_libc.c:19:5
	movl	%r14d, %r12d
	.loc	2 19 32                 # rijndael_dec_libc.c:19:32
	incl	%r14d
.Ltmp36:
	movq	%r14, %r13
	movq	-88(%rbp), %r14         # 8-byte Reload
.Ltmp37:
	#DEBUG_VALUE: rijndael_dec_fread:ptr <- R14
	.loc	2 19 5                  # rijndael_dec_libc.c:19:5
	leaq	(%r14,%r12), %rbx
	movl	$10, %edi
	movl	$10, %esi
	xorl	%edx, %edx
	callq	_KTimestamp1
	movl	$10, %edi
	movl	$1, %edx
	movq	%rbx, %rsi
	movl	$20, %ebx
	callq	_KStore
	movb	-49(%rbp), %al          # 1-byte Reload
	movb	%al, (%r14,%r12)
.Ltmp38:
	#DEBUG_VALUE: rijndael_dec_fread:ptr <- [RBP+-88]
	movq	%r13, %r14
	movq	-48(%rbp), %r12         # 8-byte Reload
	movl	$19, %r13d
	movl	$19, %edi
	movl	$18, %esi
	movl	$1, %edx
	movl	$20, %ecx
	movl	$1, %r8d
	callq	_KTimestamp2
	callq	_KPopCDep
	movl	$2, %esi
	movq	%r15, %rdi
	callq	_KExitRegion
.LBB1_4:                                # %while.cond
                                        # =>This Inner Loop Header: Depth=1
	#DEBUG_VALUE: rijndael_dec_fread:ptr <- [RBP+-88]
	#DEBUG_VALUE: rijndael_dec_fread:stream <- [RBP+-80]
	#DEBUG_VALUE: rijndael_dec_fread:i <- [RBP+-72]
.Ltmp39:
	#DEBUG_VALUE: rijndael_dec_fread:i2 <- 0
	#DEBUG_VALUE: rijndael_dec_fread:number_of_chars_to_read <- [RBP+-64]
	movl	$18, %edi
	movl	%r13d, %esi
	movl	%ebx, %edx
	callq	_KPhi1To1
	movl	$6, %edi
	callq	_KWork
	.loc	2 18 11 is_stmt 1 discriminator 2 # rijndael_dec_libc.c:18:11
.Ltmp40:
	movq	-72(%rbp), %rax         # 8-byte Reload
	leal	(%rax,%r14), %r13d
	movl	$8, %esi
	movl	$4, %edx
	movq	%r12, %rdi
	callq	_KLoad0
.Ltmp41:
	.loc	2 18 15 is_stmt 0       # rijndael_dec_libc.c:18:15
	movl	(%r12), %ebx
	addq	-64(%rbp), %rbx         # 8-byte Folded Reload
	movl	$2, (%rsp)
	movl	$20, %edi
	movl	$18, %esi
	movl	$1, %edx
	movl	$8, %ecx
	movl	$2, %r8d
	movl	$14, %r9d
	callq	_KTimestamp3
	movl	$18, %edi
	movl	$20, %esi
	callq	_KPhiAddCond
	movl	$18, %edi
	movl	$18, %esi
	xorl	%edx, %edx
	callq	_KTimestamp1
	.loc	2 18 3                  # rijndael_dec_libc.c:18:3
	cmpq	%rbx, %r13
	jb	.LBB1_5
# BB#6:                                 # %while.cond.pre_exit.while.end
	#DEBUG_VALUE: rijndael_dec_fread:i2 <- 0
	#DEBUG_VALUE: rijndael_dec_fread:number_of_chars_to_read <- [RBP+-64]
	movl	$1, %esi
	movabsq	$-9103037853602193549, %rdi # imm = 0x81AB834D571B5F73
	callq	_KExitRegion
	movl	$6, %edi
	callq	_KWork
	movl	$12, %esi
	movl	$4, %edx
	movq	%r12, %rdi
	callq	_KLoad0
	movl	(%r12), %ebx
	movq	-64(%rbp), %r14         # 8-byte Reload
.Ltmp42:
	#DEBUG_VALUE: rijndael_dec_fread:number_of_chars_to_read <- R14
	.loc	2 20 3 is_stmt 1        # rijndael_dec_libc.c:20:3
	addl	%r14d, %ebx
	movl	$13, %edi
	movl	$12, %esi
	movl	$1, %edx
	movl	$14, %ecx
	movl	$1, %r8d
	callq	_KTimestamp2
	movl	$13, %edi
	movl	$4, %edx
	movq	%r12, %rsi
	callq	_KStore
	movl	%ebx, (%r12)
	movl	$14, %edi
	callq	_KReturn
	xorl	%esi, %esi
	movabsq	$-6702417361372325097, %rdi # imm = 0xA2FC3AEBB6FDDB17
	callq	_KExitRegion
	.loc	2 21 3                  # rijndael_dec_libc.c:21:3
	movq	%r14, %rax
	addq	$104, %rsp
	popq	%rbx
	popq	%r12
	popq	%r13
	popq	%r14
.Ltmp43:
	popq	%r15
	popq	%rbp
	retq
.Ltmp44:
.Ltmp45:
	.size	rijndael_dec_fread, .Ltmp45-rijndael_dec_fread
.Lfunc_end1:
	.cfi_endproc

	.globl	rijndael_dec_fwrite
	.align	16, 0x90
	.type	rijndael_dec_fwrite,@function
rijndael_dec_fwrite:                    # @rijndael_dec_fwrite
.Lfunc_begin2:
	.loc	2 26 0                  # rijndael_dec_libc.c:26:0
	.cfi_startproc
# BB#0:                                 # %entry
	pushq	%rbp
.Ltmp46:
	.cfi_def_cfa_offset 16
.Ltmp47:
	.cfi_offset %rbp, -16
	movq	%rsp, %rbp
.Ltmp48:
	.cfi_def_cfa_register %rbp
	pushq	%r15
	pushq	%r14
	pushq	%r13
	pushq	%r12
	pushq	%rbx
	subq	$104, %rsp
.Ltmp49:
	.cfi_offset %rbx, -56
.Ltmp50:
	.cfi_offset %r12, -48
.Ltmp51:
	.cfi_offset %r13, -40
.Ltmp52:
	.cfi_offset %r14, -32
.Ltmp53:
	.cfi_offset %r15, -24
	#DEBUG_VALUE: rijndael_dec_fwrite:ptr <- RDI
	#DEBUG_VALUE: rijndael_dec_fwrite:size <- RSI
	#DEBUG_VALUE: rijndael_dec_fwrite:count <- RDX
	#DEBUG_VALUE: rijndael_dec_fwrite:stream <- RCX
	movq	%rcx, %rbx
.Ltmp54:
	#DEBUG_VALUE: rijndael_dec_fwrite:stream <- RBX
	movq	%rbx, -72(%rbp)         # 8-byte Spill
	movq	%rdx, -48(%rbp)         # 8-byte Spill
.Ltmp55:
	#DEBUG_VALUE: rijndael_dec_fwrite:count <- [RBP+-48]
	movq	%rsi, %r12
.Ltmp56:
	#DEBUG_VALUE: rijndael_dec_fwrite:size <- R12
	movq	%rdi, -80(%rbp)         # 8-byte Spill
.Ltmp57:
	#DEBUG_VALUE: rijndael_dec_fwrite:ptr <- [RBP+-80]
	movabsq	$2998776218379164955, %rdi # imm = 0x299DCB1519611D1B
	xorl	%esi, %esi
	callq	_KEnterRegion
	movl	$22, %edi
	movl	$2, %esi
	callq	_KPrepRTable
	movl	$16, %edi
	callq	_KWork
	movl	$2, %edi
	callq	_KDeqArg
	movl	$1, %edi
	callq	_KDeqArg
	.loc	2 27 16 prologue_end    # rijndael_dec_libc.c:27:16
.Ltmp58:
	leaq	16(%rbx), %r13
	movl	$3, %esi
	movl	$4, %edx
	movq	%r13, %rdi
	callq	_KLoad0
	movl	16(%rbx), %eax
.Ltmp59:
	#DEBUG_VALUE: rijndael_dec_fwrite:i2 <- 0
	#DEBUG_VALUE: rijndael_dec_fwrite:i <- [RBP+-64]
	.loc	2 29 5                  # rijndael_dec_libc.c:29:5
	movq	%rax, -64(%rbp)         # 8-byte Spill
	leaq	8(%rbx), %r14
	movl	$4, %esi
	movl	$8, %edx
	movq	%r14, %rdi
	callq	_KLoad0
	movq	8(%rbx), %r15
	movl	$5, %esi
	movl	$4, %edx
	movq	%r13, %rdi
	callq	_KLoad0
	.loc	2 29 20 is_stmt 0       # rijndael_dec_libc.c:29:20
	movl	16(%rbx), %eax
.Ltmp60:
	#DEBUG_VALUE: rijndael_dec_fwrite:stream <- [RBP+-72]
	.loc	2 29 5                  # rijndael_dec_libc.c:29:5
	subq	%rax, %r15
	.loc	2 29 39                 # rijndael_dec_libc.c:29:39
	imulq	-48(%rbp), %r12         # 8-byte Folded Reload
.Ltmp61:
	movq	%r12, -56(%rbp)         # 8-byte Spill
	movl	$2, 16(%rsp)
	movl	$5, 8(%rsp)
	movl	$2, (%rsp)
	movl	$17, %edi
	movl	$2, %esi
	movl	$3, %edx
	movl	$1, %ecx
	movl	$3, %r8d
	movl	$4, %r9d
	callq	_KTimestamp4
	movl	$3, %edi
	movl	$3, %esi
	xorl	%edx, %edx
	callq	_KTimestamp1
	movl	$17, %edi
	callq	_KPushCDep
	.loc	2 29 5                  # rijndael_dec_libc.c:29:5
	cmpq	%r12, %r15
	jae	.LBB2_1
# BB#2:                                 # %cond.false
	#DEBUG_VALUE: rijndael_dec_fwrite:ptr <- [RBP+-80]
	#DEBUG_VALUE: rijndael_dec_fwrite:stream <- [RBP+-72]
	#DEBUG_VALUE: rijndael_dec_fwrite:i <- [RBP+-64]
	#DEBUG_VALUE: rijndael_dec_fwrite:i2 <- 0
	movl	$9, %edi
	callq	_KWork
	movl	$6, %esi
	movl	$8, %edx
	movq	%r14, %rdi
	callq	_KLoad0
	.loc	2 30 20 is_stmt 1       # rijndael_dec_libc.c:30:20
	movq	(%r14), %rbx
	movl	$7, %esi
	movl	$4, %edx
	movq	%r13, %rdi
	callq	_KLoad0
	.loc	2 30 35 is_stmt 0       # rijndael_dec_libc.c:30:35
	movl	(%r13), %eax
	.loc	2 30 20                 # rijndael_dec_libc.c:30:20
	subq	%rax, %rbx
	movq	%rbx, -56(%rbp)         # 8-byte Spill
	movl	$1, 48(%rsp)
	movl	$6, 40(%rsp)
	movl	$3, 32(%rsp)
	movl	$5, 24(%rsp)
	movl	$3, 16(%rsp)
	movl	$4, 8(%rsp)
	movl	$1, (%rsp)
	movl	$16, %edi
	movl	$2, %esi
	movl	$4, %edx
	movl	$1, %ecx
	movl	$4, %r8d
	movl	$7, %r9d
	callq	_KTimestamp6
	callq	_KPopCDep
	movq	%r13, %r15
	movl	$16, %ebx
	jmp	.LBB2_3
.LBB2_1:                                # %cond.true
	#DEBUG_VALUE: rijndael_dec_fwrite:ptr <- [RBP+-80]
	#DEBUG_VALUE: rijndael_dec_fwrite:stream <- [RBP+-72]
	#DEBUG_VALUE: rijndael_dec_fwrite:i <- [RBP+-64]
	#DEBUG_VALUE: rijndael_dec_fwrite:i2 <- 0
	movl	$2, %edi
	callq	_KWork
	movl	$4, 16(%rsp)
	movl	$5, 8(%rsp)
	movl	$4, (%rsp)
	movl	$15, %ebx
	movl	$15, %edi
	movl	$2, %esi
	movl	$5, %edx
	movl	$1, %ecx
	movl	$5, %r8d
	movl	$4, %r9d
	callq	_KTimestamp4
	callq	_KPopCDep
	movq	%r13, %r15
.LBB2_3:                                # %cond.end
	#DEBUG_VALUE: rijndael_dec_fwrite:ptr <- [RBP+-80]
	#DEBUG_VALUE: rijndael_dec_fwrite:stream <- [RBP+-72]
	#DEBUG_VALUE: rijndael_dec_fwrite:i <- [RBP+-64]
	#DEBUG_VALUE: rijndael_dec_fwrite:i2 <- 0
	movl	$14, %edi
	movl	$17, %edx
	movl	%ebx, %esi
	callq	_KPhi1To1
	xorl	%ebx, %ebx
	movl	$14, %edi
	movl	$14, %esi
	xorl	%edx, %edx
	callq	_KTimestamp1
	movl	$21, %edi
	callq	_KInduction
	movl	$1, %esi
	movabsq	$-989386919017466356, %rdi # imm = 0xF244FDD6D28BB60C
	callq	_KEnterRegion
	movl	$3, %r13d
	movabsq	$5962551799048651217, %r12 # imm = 0x52BF3D45312941D1
	xorl	%r14d, %r14d
	jmp	.LBB2_4
	.align	16, 0x90
.LBB2_5:                                # %while.body
                                        #   in Loop: Header=BB2_4 Depth=1
	#DEBUG_VALUE: rijndael_dec_fwrite:ptr <- [RBP+-80]
	#DEBUG_VALUE: rijndael_dec_fwrite:stream <- [RBP+-72]
	#DEBUG_VALUE: rijndael_dec_fwrite:i <- [RBP+-64]
	#DEBUG_VALUE: rijndael_dec_fwrite:i2 <- 0
.Ltmp62:
	#DEBUG_VALUE: rijndael_dec_fwrite:number_of_chars_to_write <- [RBP+-56]
	movl	$2, %esi
	movq	%r12, %rdi
	callq	_KEnterRegion
	movl	$20, %edi
	callq	_KPushCDep
	movl	$10, %edi
	callq	_KWork
.Ltmp63:
	#DEBUG_VALUE: rijndael_dec_fwrite:i2 <- R14D
	.loc	2 33 25 is_stmt 1       # rijndael_dec_libc.c:33:25
	movl	%r14d, %r12d
	.loc	2 33 52 is_stmt 0       # rijndael_dec_libc.c:33:52
	incl	%r14d
.Ltmp64:
	movq	-80(%rbp), %rbx         # 8-byte Reload
.Ltmp65:
	#DEBUG_VALUE: rijndael_dec_fwrite:ptr <- RBX
	.loc	2 33 25                 # rijndael_dec_libc.c:33:25
	leaq	(%rbx,%r12), %rdi
	movl	$9, %esi
	movl	$10, %edx
	movl	$1, %ecx
	callq	_KLoad1
	movb	(%rbx,%r12), %al
	movb	%al, -48(%rbp)          # 1-byte Spill
.Ltmp66:
	#DEBUG_VALUE: rijndael_dec_fwrite:ptr <- [RBP+-80]
	movl	$11, %esi
	movl	$8, %edx
	movq	-72(%rbp), %rbx         # 8-byte Reload
.Ltmp67:
	#DEBUG_VALUE: rijndael_dec_fwrite:stream <- RBX
	movq	%rbx, %rdi
	callq	_KLoad0
	movq	%r15, %r12
	.loc	2 33 5                  # rijndael_dec_libc.c:33:5
	movq	(%rbx), %r15
.Ltmp68:
	#DEBUG_VALUE: rijndael_dec_fwrite:stream <- [RBP+-72]
	leaq	(%r15,%r13), %rbx
	movl	$9, %edi
	movl	$9, %esi
	xorl	%edx, %edx
	callq	_KTimestamp1
	movl	$9, %edi
	movl	$1, %edx
	movq	%rbx, %rsi
	movl	$20, %ebx
	callq	_KStore
	movb	-48(%rbp), %al          # 1-byte Reload
	movb	%al, (%r15,%r13)
	movq	%r12, %r15
	movl	$19, %r13d
	movl	$19, %edi
	movl	$18, %esi
	movl	$1, %edx
	movl	$20, %ecx
	movl	$1, %r8d
	callq	_KTimestamp2
	callq	_KPopCDep
	movl	$2, %esi
	movabsq	$5962551799048651217, %rdi # imm = 0x52BF3D45312941D1
	movq	%rdi, %r12
	callq	_KExitRegion
.LBB2_4:                                # %while.cond
                                        # =>This Inner Loop Header: Depth=1
	#DEBUG_VALUE: rijndael_dec_fwrite:ptr <- [RBP+-80]
	#DEBUG_VALUE: rijndael_dec_fwrite:stream <- [RBP+-72]
	#DEBUG_VALUE: rijndael_dec_fwrite:i <- [RBP+-64]
.Ltmp69:
	#DEBUG_VALUE: rijndael_dec_fwrite:i2 <- 0
	#DEBUG_VALUE: rijndael_dec_fwrite:number_of_chars_to_write <- [RBP+-56]
	movl	$18, %edi
	movl	%r13d, %esi
	movl	%ebx, %edx
	callq	_KPhi1To1
	movl	$6, %edi
	callq	_KWork
	.loc	2 32 11 is_stmt 1 discriminator 2 # rijndael_dec_libc.c:32:11
.Ltmp70:
	movq	-64(%rbp), %rax         # 8-byte Reload
	leal	(%rax,%r14), %r13d
	movl	$8, %esi
	movl	$4, %edx
	movq	%r15, %rdi
	callq	_KLoad0
.Ltmp71:
	.loc	2 32 15 is_stmt 0       # rijndael_dec_libc.c:32:15
	movl	(%r15), %ebx
	addq	-56(%rbp), %rbx         # 8-byte Folded Reload
	movl	$2, (%rsp)
	movl	$20, %edi
	movl	$14, %esi
	movl	$2, %edx
	movl	$18, %ecx
	movl	$1, %r8d
	movl	$8, %r9d
	callq	_KTimestamp3
	movl	$18, %edi
	movl	$20, %esi
	callq	_KPhiAddCond
	movl	$18, %edi
	movl	$18, %esi
	xorl	%edx, %edx
	callq	_KTimestamp1
	.loc	2 32 3                  # rijndael_dec_libc.c:32:3
	cmpq	%rbx, %r13
	jb	.LBB2_5
# BB#6:                                 # %while.cond.pre_exit.while.end
	#DEBUG_VALUE: rijndael_dec_fwrite:i2 <- 0
	#DEBUG_VALUE: rijndael_dec_fwrite:number_of_chars_to_write <- [RBP+-56]
	movl	$1, %esi
	movabsq	$-989386919017466356, %rdi # imm = 0xF244FDD6D28BB60C
	callq	_KExitRegion
	movl	$6, %edi
	callq	_KWork
	movl	$12, %esi
	movl	$4, %edx
	movq	%r15, %rdi
	callq	_KLoad0
	movl	(%r15), %ebx
	movq	-56(%rbp), %r14         # 8-byte Reload
.Ltmp72:
	#DEBUG_VALUE: rijndael_dec_fwrite:number_of_chars_to_write <- R14
	.loc	2 34 3 is_stmt 1        # rijndael_dec_libc.c:34:3
	addl	%r14d, %ebx
	movl	$13, %edi
	movl	$12, %esi
	movl	$1, %edx
	movl	$14, %ecx
	movl	$1, %r8d
	callq	_KTimestamp2
	movl	$13, %edi
	movl	$4, %edx
	movq	%r15, %rsi
	callq	_KStore
	movl	%ebx, (%r15)
	movl	$14, %edi
	callq	_KReturn
	xorl	%esi, %esi
	movabsq	$2998776218379164955, %rdi # imm = 0x299DCB1519611D1B
	callq	_KExitRegion
	.loc	2 35 3                  # rijndael_dec_libc.c:35:3
	movq	%r14, %rax
	addq	$104, %rsp
	popq	%rbx
	popq	%r12
	popq	%r13
	popq	%r14
.Ltmp73:
	popq	%r15
	popq	%rbp
	retq
.Ltmp74:
.Ltmp75:
	.size	rijndael_dec_fwrite, .Ltmp75-rijndael_dec_fwrite
.Lfunc_end2:
	.cfi_endproc

	.globl	rijndael_dec_fseek
	.align	16, 0x90
	.type	rijndael_dec_fseek,@function
rijndael_dec_fseek:                     # @rijndael_dec_fseek
.Lfunc_begin3:
	.loc	2 40 0                  # rijndael_dec_libc.c:40:0
	.cfi_startproc
# BB#0:                                 # %entry
	pushq	%rbp
.Ltmp76:
	.cfi_def_cfa_offset 16
.Ltmp77:
	.cfi_offset %rbp, -16
	movq	%rsp, %rbp
.Ltmp78:
	.cfi_def_cfa_register %rbp
	pushq	%r15
	pushq	%r14
	pushq	%r13
	pushq	%r12
	pushq	%rbx
	pushq	%rax
.Ltmp79:
	.cfi_offset %rbx, -56
.Ltmp80:
	.cfi_offset %r12, -48
.Ltmp81:
	.cfi_offset %r13, -40
.Ltmp82:
	.cfi_offset %r14, -32
.Ltmp83:
	.cfi_offset %r15, -24
	#DEBUG_VALUE: rijndael_dec_fseek:stream <- RDI
	#DEBUG_VALUE: rijndael_dec_fseek:offset <- RSI
	#DEBUG_VALUE: rijndael_dec_fseek:origin <- EDX
	movl	%edx, %ebx
.Ltmp84:
	#DEBUG_VALUE: rijndael_dec_fseek:origin <- EBX
	movq	%rsi, %r15
.Ltmp85:
	#DEBUG_VALUE: rijndael_dec_fseek:offset <- R15
	movq	%rdi, %r13
.Ltmp86:
	#DEBUG_VALUE: rijndael_dec_fseek:stream <- R13
	movabsq	$-2448797610183123407, %rdi # imm = 0xDE041F8C3E359E31
	xorl	%r12d, %r12d
	xorl	%esi, %esi
	callq	_KEnterRegion
	movl	$12, %edi
	xorl	%esi, %esi
	callq	_KPrepRTable
	movl	$1, %edi
	callq	_KWork
	movl	$2, %edi
	callq	_KDeqArg
	movl	$1, %edi
	callq	_KDeqArg
	movl	$9, %edi
	movl	$2, %esi
	movl	$1, %edx
	callq	_KTimestamp1
	movl	$9, %edi
	callq	_KPushCDep
	movl	$1, %edi
	callq	_KWork
	.loc	2 41 8 prologue_end     # rijndael_dec_libc.c:41:8
.Ltmp87:
	testl	%ebx, %ebx
	je	.LBB3_1
.Ltmp88:
# BB#2:                                 # %if.else
	#DEBUG_VALUE: rijndael_dec_fseek:stream <- R13
	#DEBUG_VALUE: rijndael_dec_fseek:offset <- R15
	#DEBUG_VALUE: rijndael_dec_fseek:origin <- EBX
	movl	$10, %r14d
	movl	$10, %edi
	movl	$2, %esi
	movl	$2, %edx
	callq	_KTimestamp1
	callq	_KPopCDep
	movl	$10, %edi
	callq	_KPushCDep
	.loc	2 45 10                 # rijndael_dec_libc.c:45:10
.Ltmp89:
	cmpl	$1, %ebx
	jne	.LBB3_4
.Ltmp90:
# BB#3:                                 # %if.then3
	#DEBUG_VALUE: rijndael_dec_fseek:stream <- R13
	#DEBUG_VALUE: rijndael_dec_fseek:offset <- R15
	movl	$6, %edi
	callq	_KWork
	.loc	2 46 7                  # rijndael_dec_libc.c:46:7
.Ltmp91:
	leaq	16(%r13), %rbx
	movl	$4, %esi
	movl	$4, %edx
	movq	%rbx, %rdi
	callq	_KLoad0
	addl	16(%r13), %r15d
.Ltmp92:
	movl	$1, (%rsp)
	movl	$5, %edi
	movl	$2, %esi
	movl	$3, %edx
	movl	$4, %ecx
	movl	$1, %r8d
	movl	$1, %r9d
	callq	_KTimestamp3
	movl	$5, %edi
	movl	$4, %edx
	movq	%rbx, %rsi
	callq	_KStore
	movl	%r15d, 16(%r13)
	callq	_KPopCDep
	xorl	%r12d, %r12d
	xorl	%ebx, %ebx
	jmp	.LBB3_8
.Ltmp93:
.LBB3_1:                                # %if.then
	#DEBUG_VALUE: rijndael_dec_fseek:stream <- R13
	#DEBUG_VALUE: rijndael_dec_fseek:offset <- R15
	.loc	2 42 5                  # rijndael_dec_libc.c:42:5
	leaq	16(%r13), %rbx
	movl	$3, %edi
	movl	$2, %esi
	movl	$1, %edx
	movl	$1, %ecx
	xorl	%r8d, %r8d
	callq	_KTimestamp2
	movl	$3, %edi
	movl	$4, %edx
	movq	%rbx, %rsi
	callq	_KStore
	movl	%r15d, 16(%r13)
	callq	_KPopCDep
	xorl	%r14d, %r14d
	xorl	%ebx, %ebx
	jmp	.LBB3_8
.Ltmp94:
.LBB3_4:                                # %if.else7
	#DEBUG_VALUE: rijndael_dec_fseek:stream <- R13
	#DEBUG_VALUE: rijndael_dec_fseek:offset <- R15
	#DEBUG_VALUE: rijndael_dec_fseek:origin <- EBX
	movl	$1, %edi
	callq	_KWork
	movl	$11, %r12d
	movl	$11, %edi
	movl	$2, %esi
	movl	$3, %edx
	callq	_KTimestamp1
	callq	_KPopCDep
	movl	$11, %edi
	callq	_KPushCDep
	.loc	2 49 12                 # rijndael_dec_libc.c:49:12
.Ltmp95:
	cmpl	$2, %ebx
	jne	.LBB3_6
.Ltmp96:
# BB#5:                                 # %if.then10
	#DEBUG_VALUE: rijndael_dec_fseek:stream <- R13
	#DEBUG_VALUE: rijndael_dec_fseek:offset <- R15
	movl	$6, %edi
	callq	_KWork
	.loc	2 50 27                 # rijndael_dec_libc.c:50:27
.Ltmp97:
	leaq	8(%r13), %rdi
	movl	$6, %esi
	movl	$8, %edx
	callq	_KLoad0
	addl	8(%r13), %r15d
.Ltmp98:
	.loc	2 50 9 is_stmt 0        # rijndael_dec_libc.c:50:9
	leaq	16(%r13), %rbx
	movl	$1, (%rsp)
	movl	$7, %edi
	movl	$2, %esi
	movl	$4, %edx
	movl	$1, %ecx
	movl	$1, %r8d
	movl	$6, %r9d
	callq	_KTimestamp3
	movl	$7, %edi
	movl	$4, %edx
	movq	%rbx, %rsi
	callq	_KStore
	movl	%r15d, 16(%r13)
	callq	_KPopCDep
	xorl	%ebx, %ebx
	jmp	.LBB3_7
.Ltmp99:
.LBB3_6:                                # %if.end15
	callq	_KPopCDep
	movl	$-1, %ebx
.LBB3_7:                                # %return
	movl	$10, %r14d
.LBB3_8:                                # %return
	movl	$8, %edi
	xorl	%esi, %esi
	movl	$9, %edx
	movl	%r14d, %ecx
	movl	%r12d, %r8d
	callq	_KPhi3To1
	movl	$8, %edi
	movl	$8, %esi
	xorl	%edx, %edx
	callq	_KTimestamp1
	movl	$8, %edi
	callq	_KReturn
	xorl	%esi, %esi
	movabsq	$-2448797610183123407, %rdi # imm = 0xDE041F8C3E359E31
	callq	_KExitRegion
	.loc	2 54 1 is_stmt 1        # rijndael_dec_libc.c:54:1
	movl	%ebx, %eax
	addq	$8, %rsp
	popq	%rbx
	popq	%r12
	popq	%r13
	popq	%r14
	popq	%r15
	popq	%rbp
	retq
.Ltmp100:
.Ltmp101:
	.size	rijndael_dec_fseek, .Ltmp101-rijndael_dec_fseek
.Lfunc_end3:
	.cfi_endproc

	.globl	rijndael_dec_fgetpos
	.align	16, 0x90
	.type	rijndael_dec_fgetpos,@function
rijndael_dec_fgetpos:                   # @rijndael_dec_fgetpos
.Lfunc_begin4:
	.loc	2 58 0                  # rijndael_dec_libc.c:58:0
	.cfi_startproc
# BB#0:                                 # %entry
	pushq	%rbp
.Ltmp102:
	.cfi_def_cfa_offset 16
.Ltmp103:
	.cfi_offset %rbp, -16
	movq	%rsp, %rbp
.Ltmp104:
	.cfi_def_cfa_register %rbp
	pushq	%r15
	pushq	%r14
	pushq	%rbx
	pushq	%rax
.Ltmp105:
	.cfi_offset %rbx, -40
.Ltmp106:
	.cfi_offset %r14, -32
.Ltmp107:
	.cfi_offset %r15, -24
	#DEBUG_VALUE: rijndael_dec_fgetpos:stream <- RDI
	#DEBUG_VALUE: rijndael_dec_fgetpos:position <- RSI
	movq	%rsi, %r15
.Ltmp108:
	#DEBUG_VALUE: rijndael_dec_fgetpos:position <- R15
	movq	%rdi, %rbx
.Ltmp109:
	#DEBUG_VALUE: rijndael_dec_fgetpos:stream <- RBX
	movabsq	$-4770511148542256222, %r14 # imm = 0xBDCBBD62BA191BA2
	xorl	%esi, %esi
	movq	%r14, %rdi
	callq	_KEnterRegion
	movl	$2, %edi
	xorl	%esi, %esi
	callq	_KPrepRTable
	movl	$5, %edi
	callq	_KWork
	.loc	2 59 15 prologue_end    # rijndael_dec_libc.c:59:15
.Ltmp110:
	leaq	16(%rbx), %rdi
	movl	$1, %esi
	movl	$4, %edx
	callq	_KLoad0
	movl	16(%rbx), %ebx
.Ltmp111:
	movl	$1, %edi
	movl	$1, %esi
	xorl	%edx, %edx
	callq	_KTimestamp1
	movl	$1, %edi
	movl	$4, %edx
	movq	%r15, %rsi
	callq	_KStore
	.loc	2 59 3 is_stmt 0        # rijndael_dec_libc.c:59:3
	movl	%ebx, (%r15)
	callq	_KReturnConst
	xorl	%esi, %esi
	movq	%r14, %rdi
	callq	_KExitRegion
	xorl	%eax, %eax
	.loc	2 60 3 is_stmt 1        # rijndael_dec_libc.c:60:3
	addq	$8, %rsp
	popq	%rbx
	popq	%r14
	popq	%r15
.Ltmp112:
	popq	%rbp
	retq
.Ltmp113:
.Ltmp114:
	.size	rijndael_dec_fgetpos, .Ltmp114-rijndael_dec_fgetpos
.Lfunc_end4:
	.cfi_endproc

	.globl	rijndael_dec_feof
	.align	16, 0x90
	.type	rijndael_dec_feof,@function
rijndael_dec_feof:                      # @rijndael_dec_feof
.Lfunc_begin5:
	.loc	2 64 0                  # rijndael_dec_libc.c:64:0
	.cfi_startproc
# BB#0:                                 # %entry
	pushq	%rbp
.Ltmp115:
	.cfi_def_cfa_offset 16
.Ltmp116:
	.cfi_offset %rbp, -16
	movq	%rsp, %rbp
.Ltmp117:
	.cfi_def_cfa_register %rbp
	pushq	%r15
	pushq	%r14
	pushq	%rbx
	pushq	%rax
.Ltmp118:
	.cfi_offset %rbx, -40
.Ltmp119:
	.cfi_offset %r14, -32
.Ltmp120:
	.cfi_offset %r15, -24
	#DEBUG_VALUE: rijndael_dec_feof:stream <- RDI
	movq	%rdi, %rbx
.Ltmp121:
	#DEBUG_VALUE: rijndael_dec_feof:stream <- RBX
	movabsq	$-3901215564060256219, %r14 # imm = 0xC9DC191D2FF69825
	xorl	%esi, %esi
	movq	%r14, %rdi
	callq	_KEnterRegion
	movl	$4, %edi
	xorl	%esi, %esi
	callq	_KPrepRTable
	movl	$9, %edi
	callq	_KWork
	.loc	2 65 10 prologue_end    # rijndael_dec_libc.c:65:10
.Ltmp122:
	leaq	16(%rbx), %rdi
	movl	$1, %esi
	movl	$4, %edx
	callq	_KLoad0
	movl	16(%rbx), %r15d
	.loc	2 65 29 is_stmt 0       # rijndael_dec_libc.c:65:29
	leaq	8(%rbx), %rdi
	movl	$2, %esi
	movl	$8, %edx
	callq	_KLoad0
	.loc	2 65 10                 # rijndael_dec_libc.c:65:10
	cmpq	8(%rbx), %r15
	sete	%al
	movzbl	%al, %ebx
.Ltmp123:
	movl	$3, %edi
	movl	$1, %esi
	movl	$1, %edx
	movl	$2, %ecx
	movl	$1, %r8d
	callq	_KTimestamp2
	movl	$3, %edi
	callq	_KReturn
	xorl	%esi, %esi
	movq	%r14, %rdi
	callq	_KExitRegion
	.loc	2 65 3                  # rijndael_dec_libc.c:65:3
	movl	%ebx, %eax
	addq	$8, %rsp
	popq	%rbx
	popq	%r14
	popq	%r15
	popq	%rbp
	retq
.Ltmp124:
.Ltmp125:
	.size	rijndael_dec_feof, .Ltmp125-rijndael_dec_feof
.Lfunc_end5:
	.cfi_endproc

	.type	krem_prefix299dcb1519611d1b_krem_func_krem_rijndael_dec_libc.c_krem_rijndael_dec_fwrite_krem_24_krem_24_krem_,@object # @krem_prefix299dcb1519611d1b_krem_func_krem_rijndael_dec_libc.c_krem_rijndael_dec_fwrite_krem_24_krem_24_krem_
	.bss
	.globl	krem_prefix299dcb1519611d1b_krem_func_krem_rijndael_dec_libc.c_krem_rijndael_dec_fwrite_krem_24_krem_24_krem_
krem_prefix299dcb1519611d1b_krem_func_krem_rijndael_dec_libc.c_krem_rijndael_dec_fwrite_krem_24_krem_24_krem_:
	.byte	0                       # 0x0
	.size	krem_prefix299dcb1519611d1b_krem_func_krem_rijndael_dec_libc.c_krem_rijndael_dec_fwrite_krem_24_krem_24_krem_, 1

	.type	krem_prefix43fa1d0555ece05d_krem_loop_body_krem_rijndael_dec_libc.c_krem_rijndael_dec_fread_krem_13_krem_19_krem_,@object # @krem_prefix43fa1d0555ece05d_krem_loop_body_krem_rijndael_dec_libc.c_krem_rijndael_dec_fread_krem_13_krem_19_krem_
	.globl	krem_prefix43fa1d0555ece05d_krem_loop_body_krem_rijndael_dec_libc.c_krem_rijndael_dec_fread_krem_13_krem_19_krem_
krem_prefix43fa1d0555ece05d_krem_loop_body_krem_rijndael_dec_libc.c_krem_rijndael_dec_fread_krem_13_krem_19_krem_:
	.byte	0                       # 0x0
	.size	krem_prefix43fa1d0555ece05d_krem_loop_body_krem_rijndael_dec_libc.c_krem_rijndael_dec_fread_krem_13_krem_19_krem_, 1

	.type	krem_prefix52bf3d45312941d1_krem_loop_body_krem_rijndael_dec_libc.c_krem_rijndael_dec_fwrite_krem_27_krem_33_krem_,@object # @krem_prefix52bf3d45312941d1_krem_loop_body_krem_rijndael_dec_libc.c_krem_rijndael_dec_fwrite_krem_27_krem_33_krem_
	.globl	krem_prefix52bf3d45312941d1_krem_loop_body_krem_rijndael_dec_libc.c_krem_rijndael_dec_fwrite_krem_27_krem_33_krem_
krem_prefix52bf3d45312941d1_krem_loop_body_krem_rijndael_dec_libc.c_krem_rijndael_dec_fwrite_krem_27_krem_33_krem_:
	.byte	0                       # 0x0
	.size	krem_prefix52bf3d45312941d1_krem_loop_body_krem_rijndael_dec_libc.c_krem_rijndael_dec_fwrite_krem_27_krem_33_krem_, 1

	.type	krem_prefix5e1a075ba137e8c4_krem_func_krem_rijndael_dec_libc.c_krem_rijndael_dec_toupper_krem_3_krem_3_krem_,@object # @krem_prefix5e1a075ba137e8c4_krem_func_krem_rijndael_dec_libc.c_krem_rijndael_dec_toupper_krem_3_krem_3_krem_
	.globl	krem_prefix5e1a075ba137e8c4_krem_func_krem_rijndael_dec_libc.c_krem_rijndael_dec_toupper_krem_3_krem_3_krem_
krem_prefix5e1a075ba137e8c4_krem_func_krem_rijndael_dec_libc.c_krem_rijndael_dec_toupper_krem_3_krem_3_krem_:
	.byte	0                       # 0x0
	.size	krem_prefix5e1a075ba137e8c4_krem_func_krem_rijndael_dec_libc.c_krem_rijndael_dec_toupper_krem_3_krem_3_krem_, 1

	.type	krem_prefix81ab834d571b5f73_krem_loop_krem_rijndael_dec_libc.c_krem_rijndael_dec_fread_krem_13_krem_19_krem_,@object # @krem_prefix81ab834d571b5f73_krem_loop_krem_rijndael_dec_libc.c_krem_rijndael_dec_fread_krem_13_krem_19_krem_
	.globl	krem_prefix81ab834d571b5f73_krem_loop_krem_rijndael_dec_libc.c_krem_rijndael_dec_fread_krem_13_krem_19_krem_
krem_prefix81ab834d571b5f73_krem_loop_krem_rijndael_dec_libc.c_krem_rijndael_dec_fread_krem_13_krem_19_krem_:
	.byte	0                       # 0x0
	.size	krem_prefix81ab834d571b5f73_krem_loop_krem_rijndael_dec_libc.c_krem_rijndael_dec_fread_krem_13_krem_19_krem_, 1

	.type	krem_prefixa2fc3aebb6fddb17_krem_func_krem_rijndael_dec_libc.c_krem_rijndael_dec_fread_krem_10_krem_10_krem_,@object # @krem_prefixa2fc3aebb6fddb17_krem_func_krem_rijndael_dec_libc.c_krem_rijndael_dec_fread_krem_10_krem_10_krem_
	.globl	krem_prefixa2fc3aebb6fddb17_krem_func_krem_rijndael_dec_libc.c_krem_rijndael_dec_fread_krem_10_krem_10_krem_
krem_prefixa2fc3aebb6fddb17_krem_func_krem_rijndael_dec_libc.c_krem_rijndael_dec_fread_krem_10_krem_10_krem_:
	.byte	0                       # 0x0
	.size	krem_prefixa2fc3aebb6fddb17_krem_func_krem_rijndael_dec_libc.c_krem_rijndael_dec_fread_krem_10_krem_10_krem_, 1

	.type	krem_prefixbdcbbd62ba191ba2_krem_func_krem_rijndael_dec_libc.c_krem_rijndael_dec_fgetpos_krem_56_krem_56_krem_,@object # @krem_prefixbdcbbd62ba191ba2_krem_func_krem_rijndael_dec_libc.c_krem_rijndael_dec_fgetpos_krem_56_krem_56_krem_
	.globl	krem_prefixbdcbbd62ba191ba2_krem_func_krem_rijndael_dec_libc.c_krem_rijndael_dec_fgetpos_krem_56_krem_56_krem_
krem_prefixbdcbbd62ba191ba2_krem_func_krem_rijndael_dec_libc.c_krem_rijndael_dec_fgetpos_krem_56_krem_56_krem_:
	.byte	0                       # 0x0
	.size	krem_prefixbdcbbd62ba191ba2_krem_func_krem_rijndael_dec_libc.c_krem_rijndael_dec_fgetpos_krem_56_krem_56_krem_, 1

	.type	krem_prefixc9dc191d2ff69825_krem_func_krem_rijndael_dec_libc.c_krem_rijndael_dec_feof_krem_63_krem_63_krem_,@object # @krem_prefixc9dc191d2ff69825_krem_func_krem_rijndael_dec_libc.c_krem_rijndael_dec_feof_krem_63_krem_63_krem_
	.globl	krem_prefixc9dc191d2ff69825_krem_func_krem_rijndael_dec_libc.c_krem_rijndael_dec_feof_krem_63_krem_63_krem_
krem_prefixc9dc191d2ff69825_krem_func_krem_rijndael_dec_libc.c_krem_rijndael_dec_feof_krem_63_krem_63_krem_:
	.byte	0                       # 0x0
	.size	krem_prefixc9dc191d2ff69825_krem_func_krem_rijndael_dec_libc.c_krem_rijndael_dec_feof_krem_63_krem_63_krem_, 1

	.type	krem_prefixde041f8c3e359e31_krem_func_krem_rijndael_dec_libc.c_krem_rijndael_dec_fseek_krem_38_krem_38_krem_,@object # @krem_prefixde041f8c3e359e31_krem_func_krem_rijndael_dec_libc.c_krem_rijndael_dec_fseek_krem_38_krem_38_krem_
	.globl	krem_prefixde041f8c3e359e31_krem_func_krem_rijndael_dec_libc.c_krem_rijndael_dec_fseek_krem_38_krem_38_krem_
krem_prefixde041f8c3e359e31_krem_func_krem_rijndael_dec_libc.c_krem_rijndael_dec_fseek_krem_38_krem_38_krem_:
	.byte	0                       # 0x0
	.size	krem_prefixde041f8c3e359e31_krem_func_krem_rijndael_dec_libc.c_krem_rijndael_dec_fseek_krem_38_krem_38_krem_, 1

	.type	krem_prefixf244fdd6d28bb60c_krem_loop_krem_rijndael_dec_libc.c_krem_rijndael_dec_fwrite_krem_27_krem_33_krem_,@object # @krem_prefixf244fdd6d28bb60c_krem_loop_krem_rijndael_dec_libc.c_krem_rijndael_dec_fwrite_krem_27_krem_33_krem_
	.globl	krem_prefixf244fdd6d28bb60c_krem_loop_krem_rijndael_dec_libc.c_krem_rijndael_dec_fwrite_krem_27_krem_33_krem_
krem_prefixf244fdd6d28bb60c_krem_loop_krem_rijndael_dec_libc.c_krem_rijndael_dec_fwrite_krem_27_krem_33_krem_:
	.byte	0                       # 0x0
	.size	krem_prefixf244fdd6d28bb60c_krem_loop_krem_rijndael_dec_libc.c_krem_rijndael_dec_fwrite_krem_27_krem_33_krem_, 1

	.text
.Ldebug_end0:
	.section	".note.GNU-stack","",@progbits