	.text
	.file	"local_support.simplifycfg.mem2reg.indvars.elimsinglephis.criticalpath.regioninstrument.renamemain.O3.bc"
	.text
	.globl	run_benchmark
	.align	16, 0x90
	.type	run_benchmark,@function
run_benchmark:                          # @run_benchmark
.Lfunc_begin0:
	.loc	1 6 0                   # local_support.c:6:0
	.cfi_startproc
# BB#0:                                 # %entry
	pushq	%rbp
.Ltmp0:
	.cfi_def_cfa_offset 16
.Ltmp1:
	.cfi_offset %rbp, -16
	movq	%rsp, %rbp
.Ltmp2:
	.cfi_def_cfa_register %rbp
	pushq	%r15
	pushq	%r14
	pushq	%rbx
	pushq	%rax
.Ltmp3:
	.cfi_offset %rbx, -40
.Ltmp4:
	.cfi_offset %r14, -32
.Ltmp5:
	.cfi_offset %r15, -24
	#DEBUG_VALUE: run_benchmark:vargs <- RDI
	movq	%rdi, %rbx
.Ltmp6:
	#DEBUG_VALUE: run_benchmark:vargs <- RBX
	movabsq	$3862668819228705092, %r14 # imm = 0x359AF4D3671AC144
	xorl	%esi, %esi
	movq	%r14, %rdi
	callq	_KEnterRegion
	movl	$1, %edi
	xorl	%esi, %esi
	callq	_KPrepRTable
	.loc	1 8 24 prologue_end     # local_support.c:8:24
.Ltmp7:
	movq	%rbx, %r15
	subq	$-128, %r15
	movabsq	$8529996880469001576, %rdi # imm = 0x7660A2F80B8B8568
	xorl	%esi, %esi
	callq	_KPrepCall
	.loc	1 8 36 is_stmt 0        # local_support.c:8:36
	leaq	256(%rbx), %rdx
	.loc	1 8 52                  # local_support.c:8:52
	leaq	512(%rbx), %rcx
	.loc	1 8 68                  # local_support.c:8:68
	leaq	768(%rbx), %r8
	.loc	1 8 77                  # local_support.c:8:77
	leaq	67332(%rbx), %r9
	.loc	1 8 3                   # local_support.c:8:3
	movq	%rbx, %rdi
	movq	%r15, %rsi
	callq	needwun
	xorl	%esi, %esi
	movq	%r14, %rdi
	addq	$8, %rsp
	popq	%rbx
.Ltmp8:
	popq	%r14
	popq	%r15
	popq	%rbp
	jmp	_KExitRegion            # TAILCALL
.Ltmp9:
.Ltmp10:
	.size	run_benchmark, .Ltmp10-run_benchmark
.Lfunc_end0:
	.cfi_endproc

	.globl	input_to_data
	.align	16, 0x90
	.type	input_to_data,@function
input_to_data:                          # @input_to_data
.Lfunc_begin1:
	.loc	1 18 0 is_stmt 1        # local_support.c:18:0
	.cfi_startproc
# BB#0:                                 # %entry
	pushq	%rbp
.Ltmp11:
	.cfi_def_cfa_offset 16
.Ltmp12:
	.cfi_offset %rbp, -16
	movq	%rsp, %rbp
.Ltmp13:
	.cfi_def_cfa_register %rbp
	pushq	%r15
	pushq	%r14
	pushq	%r12
	pushq	%rbx
.Ltmp14:
	.cfi_offset %rbx, -48
.Ltmp15:
	.cfi_offset %r12, -40
.Ltmp16:
	.cfi_offset %r14, -32
.Ltmp17:
	.cfi_offset %r15, -24
	#DEBUG_VALUE: input_to_data:fd <- EDI
	#DEBUG_VALUE: input_to_data:vdata <- RSI
	movq	%rsi, %r15
.Ltmp18:
	#DEBUG_VALUE: input_to_data:vdata <- R15
	movl	%edi, %ebx
.Ltmp19:
	#DEBUG_VALUE: input_to_data:fd <- EBX
	movabsq	$-6621481163062197625, %r14 # imm = 0xA41BC5F6DCBCC287
	xorl	%esi, %esi
	movq	%r14, %rdi
	callq	_KEnterRegion
	movl	$4, %edi
	xorl	%esi, %esi
	callq	_KPrepRTable
	movl	$1, %edi
	callq	_KDeqArg
	xorl	%esi, %esi
	movl	$83976, %edx            # imm = 0x14808
	.loc	1 22 3 prologue_end     # local_support.c:22:3
.Ltmp20:
	movq	%r15, %rdi
	callq	memset
	movabsq	$-1993189723613795903, %rdi # imm = 0xE456C481BA0A69C1
	xorl	%esi, %esi
	callq	_KPrepCall
	movl	$1, %edi
	movl	$1, %esi
	xorl	%edx, %edx
	callq	_KTimestamp1
	movl	$1, %edi
	callq	_KEnqArg
	.loc	1 24 7                  # local_support.c:24:7
	movl	%ebx, %edi
.Ltmp21:
	#DEBUG_VALUE: input_to_data:fd <- EDI
	callq	readfile
	movq	%rax, %rbx
.Ltmp22:
	#DEBUG_VALUE: input_to_data:p <- RBX
	movabsq	$-7773845289601164280, %rdi # imm = 0x941DC0E58E7A9C08
.Ltmp23:
	xorl	%esi, %esi
	callq	_KPrepCall
	callq	_KEnqArgConst
	movl	$1, %esi
	.loc	1 26 7                  # local_support.c:26:7
	movq	%rbx, %rdi
	callq	find_section_start
	movq	%rax, %r12
.Ltmp24:
	#DEBUG_VALUE: input_to_data:s <- R12
	movabsq	$782789933538655314, %rdi # imm = 0xADD074C1252BC52
	xorl	%esi, %esi
	callq	_KPrepCall
	callq	_KEnqArgConst
	movl	$2, %edi
	callq	_KLinkReturn
	movl	$128, %edx
	.loc	1 27 3                  # local_support.c:27:3
	movq	%r12, %rdi
	movq	%r15, %rsi
	callq	parse_string
	movabsq	$-250842785628314898, %rdi # imm = 0xFC84D3D0C427A2EE
	xorl	%esi, %esi
	callq	_KPrepCall
	callq	_KEnqArgConst
	movl	$2, %esi
	.loc	1 29 7                  # local_support.c:29:7
	movq	%rbx, %rdi
	callq	find_section_start
	movq	%rax, %r12
.Ltmp25:
	#DEBUG_VALUE: input_to_data:s <- R12
	.loc	1 30 19                 # local_support.c:30:19
	subq	$-128, %r15
.Ltmp26:
	movabsq	$-324848532010284172, %rdi # imm = 0xFB7DE7FB33B84B74
	xorl	%esi, %esi
	callq	_KPrepCall
	callq	_KEnqArgConst
	movl	$3, %edi
	callq	_KLinkReturn
	movl	$128, %edx
	.loc	1 30 3 is_stmt 0        # local_support.c:30:3
	movq	%r12, %rdi
	movq	%r15, %rsi
	callq	parse_string
	.loc	1 31 3 is_stmt 1        # local_support.c:31:3
	movq	%rbx, %rdi
	callq	free
	movq	%rbx, %rdi
	callq	_KFree
	xorl	%esi, %esi
	movq	%r14, %rdi
	popq	%rbx
.Ltmp27:
	popq	%r12
.Ltmp28:
	popq	%r14
	popq	%r15
	popq	%rbp
	jmp	_KExitRegion            # TAILCALL
.Ltmp29:
.Ltmp30:
	.size	input_to_data, .Ltmp30-input_to_data
.Lfunc_end1:
	.cfi_endproc

	.globl	data_to_input
	.align	16, 0x90
	.type	data_to_input,@function
data_to_input:                          # @data_to_input
.Lfunc_begin2:
	.loc	1 35 0                  # local_support.c:35:0
	.cfi_startproc
# BB#0:                                 # %entry
	pushq	%rbp
.Ltmp31:
	.cfi_def_cfa_offset 16
.Ltmp32:
	.cfi_offset %rbp, -16
	movq	%rsp, %rbp
.Ltmp33:
	.cfi_def_cfa_register %rbp
	pushq	%r15
	pushq	%r14
	pushq	%rbx
	pushq	%rax
.Ltmp34:
	.cfi_offset %rbx, -40
.Ltmp35:
	.cfi_offset %r14, -32
.Ltmp36:
	.cfi_offset %r15, -24
	#DEBUG_VALUE: data_to_input:fd <- EDI
	#DEBUG_VALUE: data_to_input:vdata <- RSI
	movq	%rsi, %r15
.Ltmp37:
	#DEBUG_VALUE: data_to_input:vdata <- R15
	movl	%edi, %ebx
.Ltmp38:
	#DEBUG_VALUE: data_to_input:fd <- EBX
	movabsq	$8265711678329185454, %r14 # imm = 0x72B5B4FA529BE4AE
	xorl	%esi, %esi
	movq	%r14, %rdi
	callq	_KEnterRegion
	movl	$7, %edi
	xorl	%esi, %esi
	callq	_KPrepRTable
	movl	$1, %edi
	callq	_KDeqArg
	movabsq	$-3681419575134453250, %rdi # imm = 0xCCE8F866C2F101FE
	xorl	%esi, %esi
	callq	_KPrepCall
	movl	$1, %edi
	movl	$1, %esi
	xorl	%edx, %edx
	callq	_KTimestamp1
	movl	$1, %edi
	callq	_KEnqArg
	movl	$2, %edi
	callq	_KLinkReturn
	.loc	1 38 3 prologue_end     # local_support.c:38:3
.Ltmp39:
	movl	%ebx, %edi
	callq	write_section_header
	movabsq	$-6871032354335469159, %rdi # imm = 0xA0A5307A5F9E5199
	xorl	%esi, %esi
	callq	_KPrepCall
	callq	_KEnqArgConst
	movl	$1, %edi
	callq	_KEnqArg
	movl	$3, %edi
	callq	_KLinkReturn
	movl	$128, %edx
	.loc	1 39 3                  # local_support.c:39:3
	movl	%ebx, %edi
	movq	%r15, %rsi
	callq	write_string
	movabsq	$-281345025543057582, %rdi # imm = 0xFC1876309D2ECF52
	xorl	%esi, %esi
	callq	_KPrepCall
	movl	$1, %edi
	callq	_KEnqArg
	movl	$4, %edi
	callq	_KLinkReturn
	.loc	1 41 3                  # local_support.c:41:3
	movl	%ebx, %edi
	callq	write_section_header
	.loc	1 42 20                 # local_support.c:42:20
	subq	$-128, %r15
.Ltmp40:
	movabsq	$9071652641761594328, %rdi # imm = 0x7DE4FC0395EF0BD8
	xorl	%esi, %esi
	callq	_KPrepCall
	callq	_KEnqArgConst
	movl	$1, %edi
	callq	_KEnqArg
	movl	$5, %edi
	callq	_KLinkReturn
	movl	$128, %edx
	.loc	1 42 3 is_stmt 0        # local_support.c:42:3
	movl	%ebx, %edi
	movq	%r15, %rsi
	callq	write_string
	movabsq	$-2777157036804193447, %rdi # imm = 0xD9758E6397CF4359
	xorl	%esi, %esi
	callq	_KPrepCall
	movl	$1, %edi
	callq	_KEnqArg
	movl	$6, %edi
	callq	_KLinkReturn
	.loc	1 44 3 is_stmt 1        # local_support.c:44:3
	movl	%ebx, %edi
	callq	write_section_header
	xorl	%esi, %esi
	movq	%r14, %rdi
	addq	$8, %rsp
	popq	%rbx
.Ltmp41:
	popq	%r14
	popq	%r15
	popq	%rbp
	jmp	_KExitRegion            # TAILCALL
.Ltmp42:
.Ltmp43:
	.size	data_to_input, .Ltmp43-data_to_input
.Lfunc_end2:
	.cfi_endproc

	.globl	output_to_data
	.align	16, 0x90
	.type	output_to_data,@function
output_to_data:                         # @output_to_data
.Lfunc_begin3:
	.loc	1 54 0                  # local_support.c:54:0
	.cfi_startproc
# BB#0:                                 # %entry
	pushq	%rbp
.Ltmp44:
	.cfi_def_cfa_offset 16
.Ltmp45:
	.cfi_offset %rbp, -16
	movq	%rsp, %rbp
.Ltmp46:
	.cfi_def_cfa_register %rbp
	pushq	%r15
	pushq	%r14
	pushq	%r13
	pushq	%r12
	pushq	%rbx
	pushq	%rax
.Ltmp47:
	.cfi_offset %rbx, -56
.Ltmp48:
	.cfi_offset %r12, -48
.Ltmp49:
	.cfi_offset %r13, -40
.Ltmp50:
	.cfi_offset %r14, -32
.Ltmp51:
	.cfi_offset %r15, -24
	#DEBUG_VALUE: output_to_data:fd <- EDI
	#DEBUG_VALUE: output_to_data:vdata <- RSI
	movq	%rsi, %r15
.Ltmp52:
	#DEBUG_VALUE: output_to_data:vdata <- R15
	movl	%edi, %ebx
.Ltmp53:
	#DEBUG_VALUE: output_to_data:fd <- EBX
	movabsq	$-4765534862784228176, %r14 # imm = 0xBDDD6B4A8B0194B0
	xorl	%esi, %esi
	movq	%r14, %rdi
	callq	_KEnterRegion
	movl	$4, %edi
	xorl	%esi, %esi
	callq	_KPrepRTable
	movl	$1, %edi
	callq	_KDeqArg
	xorl	%esi, %esi
	movl	$83976, %edx            # imm = 0x14808
	.loc	1 58 3 prologue_end     # local_support.c:58:3
.Ltmp54:
	movq	%r15, %rdi
	callq	memset
	movabsq	$-385552952406818665, %rdi # imm = 0xFAA63DA1EDB04097
	xorl	%esi, %esi
	callq	_KPrepCall
	movl	$1, %edi
	movl	$1, %esi
	xorl	%edx, %edx
	callq	_KTimestamp1
	movl	$1, %edi
	callq	_KEnqArg
	.loc	1 60 7                  # local_support.c:60:7
	movl	%ebx, %edi
.Ltmp55:
	#DEBUG_VALUE: output_to_data:fd <- EDI
	callq	readfile
	movq	%rax, %rbx
.Ltmp56:
	#DEBUG_VALUE: output_to_data:p <- RBX
	movabsq	$6643313995768179371, %rdi # imm = 0x5C31CAE1A124AAAB
.Ltmp57:
	xorl	%esi, %esi
	callq	_KPrepCall
	callq	_KEnqArgConst
	movl	$1, %esi
	.loc	1 62 7                  # local_support.c:62:7
	movq	%rbx, %rdi
	callq	find_section_start
	movq	%rax, %r12
.Ltmp58:
	#DEBUG_VALUE: output_to_data:s <- R12
	.loc	1 63 19                 # local_support.c:63:19
	leaq	256(%r15), %r13
	movabsq	$-3240041808338003435, %rdi # imm = 0xD3090F244C995A15
	xorl	%esi, %esi
	callq	_KPrepCall
	callq	_KEnqArgConst
	movl	$2, %edi
	callq	_KLinkReturn
	movl	$256, %edx              # imm = 0x100
	.loc	1 63 3 is_stmt 0        # local_support.c:63:3
	movq	%r12, %rdi
	movq	%r13, %rsi
	callq	parse_string
	movabsq	$-7909247772195641293, %rdi # imm = 0x923CB50E61BAA833
	xorl	%esi, %esi
	callq	_KPrepCall
	callq	_KEnqArgConst
	movl	$2, %esi
	.loc	1 65 7 is_stmt 1        # local_support.c:65:7
	movq	%rbx, %rdi
	callq	find_section_start
	movq	%rax, %r12
.Ltmp59:
	#DEBUG_VALUE: output_to_data:s <- R12
	.loc	1 66 19                 # local_support.c:66:19
	addq	$512, %r15              # imm = 0x200
.Ltmp60:
	movabsq	$4418067560255551760, %rdi # imm = 0x3D502109C2B57910
	xorl	%esi, %esi
	callq	_KPrepCall
	callq	_KEnqArgConst
	movl	$3, %edi
	callq	_KLinkReturn
	movl	$256, %edx              # imm = 0x100
	.loc	1 66 3 is_stmt 0        # local_support.c:66:3
	movq	%r12, %rdi
	movq	%r15, %rsi
	callq	parse_string
	.loc	1 67 3 is_stmt 1        # local_support.c:67:3
	movq	%rbx, %rdi
	callq	free
	movq	%rbx, %rdi
	callq	_KFree
	xorl	%esi, %esi
	movq	%r14, %rdi
	addq	$8, %rsp
	popq	%rbx
.Ltmp61:
	popq	%r12
.Ltmp62:
	popq	%r13
	popq	%r14
	popq	%r15
	popq	%rbp
	jmp	_KExitRegion            # TAILCALL
.Ltmp63:
.Ltmp64:
	.size	output_to_data, .Ltmp64-output_to_data
.Lfunc_end3:
	.cfi_endproc

	.globl	data_to_output
	.align	16, 0x90
	.type	data_to_output,@function
data_to_output:                         # @data_to_output
.Lfunc_begin4:
	.loc	1 70 0                  # local_support.c:70:0
	.cfi_startproc
# BB#0:                                 # %entry
	pushq	%rbp
.Ltmp65:
	.cfi_def_cfa_offset 16
.Ltmp66:
	.cfi_offset %rbp, -16
	movq	%rsp, %rbp
.Ltmp67:
	.cfi_def_cfa_register %rbp
	pushq	%r15
	pushq	%r14
	pushq	%r12
	pushq	%rbx
.Ltmp68:
	.cfi_offset %rbx, -48
.Ltmp69:
	.cfi_offset %r12, -40
.Ltmp70:
	.cfi_offset %r14, -32
.Ltmp71:
	.cfi_offset %r15, -24
	#DEBUG_VALUE: data_to_output:fd <- EDI
	#DEBUG_VALUE: data_to_output:vdata <- RSI
	movq	%rsi, %r15
.Ltmp72:
	#DEBUG_VALUE: data_to_output:vdata <- R15
	movl	%edi, %r12d
.Ltmp73:
	#DEBUG_VALUE: data_to_output:fd <- R12D
	movabsq	$2262382145700601508, %r14 # imm = 0x1F6598932CAB9EA4
	xorl	%esi, %esi
	movq	%r14, %rdi
	callq	_KEnterRegion
	movl	$7, %edi
	xorl	%esi, %esi
	callq	_KPrepRTable
	movl	$1, %edi
	callq	_KDeqArg
	movabsq	$-3411391565196058204, %rdi # imm = 0xD0A84D721EB9A1A4
	xorl	%esi, %esi
	callq	_KPrepCall
	movl	$1, %edi
	movl	$1, %esi
	xorl	%edx, %edx
	callq	_KTimestamp1
	movl	$1, %edi
	callq	_KEnqArg
	movl	$2, %edi
	callq	_KLinkReturn
	.loc	1 73 3 prologue_end     # local_support.c:73:3
.Ltmp74:
	movl	%r12d, %edi
	callq	write_section_header
	.loc	1 74 20                 # local_support.c:74:20
	leaq	256(%r15), %rbx
	movabsq	$4983694839061206089, %rdi # imm = 0x4529A40D2730D449
	xorl	%esi, %esi
	callq	_KPrepCall
	callq	_KEnqArgConst
	movl	$1, %edi
	callq	_KEnqArg
	movl	$3, %edi
	callq	_KLinkReturn
	movl	$256, %edx              # imm = 0x100
	.loc	1 74 3 is_stmt 0        # local_support.c:74:3
	movl	%r12d, %edi
	movq	%rbx, %rsi
	callq	write_string
	movabsq	$8639229904961887045, %rdi # imm = 0x77E4B5D3722F5B45
	xorl	%esi, %esi
	callq	_KPrepCall
	movl	$1, %edi
	callq	_KEnqArg
	movl	$4, %edi
	callq	_KLinkReturn
	.loc	1 76 3 is_stmt 1        # local_support.c:76:3
	movl	%r12d, %edi
	callq	write_section_header
	.loc	1 77 20                 # local_support.c:77:20
	addq	$512, %r15              # imm = 0x200
.Ltmp75:
	movabsq	$738747703244731916, %rdi # imm = 0xA408F1F3E89B60C
	xorl	%esi, %esi
	callq	_KPrepCall
	callq	_KEnqArgConst
	movl	$1, %edi
	callq	_KEnqArg
	movl	$5, %edi
	callq	_KLinkReturn
	movl	$256, %edx              # imm = 0x100
	.loc	1 77 3 is_stmt 0        # local_support.c:77:3
	movl	%r12d, %edi
	movq	%r15, %rsi
	callq	write_string
	movabsq	$-3240950190772016758, %rdi # imm = 0xD305D4F9084CA98A
	xorl	%esi, %esi
	callq	_KPrepCall
	movl	$1, %edi
	callq	_KEnqArg
	movl	$6, %edi
	callq	_KLinkReturn
	.loc	1 79 3 is_stmt 1        # local_support.c:79:3
	movl	%r12d, %edi
	callq	write_section_header
	xorl	%esi, %esi
	movq	%r14, %rdi
	popq	%rbx
	popq	%r12
.Ltmp76:
	popq	%r14
	popq	%r15
	popq	%rbp
	jmp	_KExitRegion            # TAILCALL
.Ltmp77:
.Ltmp78:
	.size	data_to_output, .Ltmp78-data_to_output
.Lfunc_end4:
	.cfi_endproc

	.globl	check_data
	.align	16, 0x90
	.type	check_data,@function
check_data:                             # @check_data
.Lfunc_begin5:
	.loc	1 82 0                  # local_support.c:82:0
	.cfi_startproc
# BB#0:                                 # %entry
	pushq	%rbp
.Ltmp79:
	.cfi_def_cfa_offset 16
.Ltmp80:
	.cfi_offset %rbp, -16
	movq	%rsp, %rbp
.Ltmp81:
	.cfi_def_cfa_register %rbp
	pushq	%r15
	pushq	%r14
	pushq	%r13
	pushq	%r12
	pushq	%rbx
	pushq	%rax
.Ltmp82:
	.cfi_offset %rbx, -56
.Ltmp83:
	.cfi_offset %r12, -48
.Ltmp84:
	.cfi_offset %r13, -40
.Ltmp85:
	.cfi_offset %r14, -32
.Ltmp86:
	.cfi_offset %r15, -24
	#DEBUG_VALUE: check_data:vdata <- RDI
	#DEBUG_VALUE: check_data:vref <- RSI
	movq	%rsi, %r15
.Ltmp87:
	#DEBUG_VALUE: check_data:vref <- R15
	movq	%rdi, %rbx
.Ltmp88:
	#DEBUG_VALUE: check_data:vdata <- RBX
	movabsq	$-5781956682475224108, %r14 # imm = 0xAFC25D080A5E43D4
	xorl	%esi, %esi
	movq	%r14, %rdi
	callq	_KEnterRegion
	movl	$4, %edi
	xorl	%esi, %esi
	callq	_KPrepRTable
	movl	$4, %edi
	callq	_KWork
.Ltmp89:
	#DEBUG_VALUE: check_data:has_errors <- 0
	.loc	1 87 24 prologue_end    # local_support.c:87:24
	leaq	256(%rbx), %r12
	.loc	1 87 40 is_stmt 0       # local_support.c:87:40
	leaq	256(%r15), %r13
	movabsq	$-4019379000323511377, %rdi # imm = 0xC8384C18440D6BAF
	xorl	%esi, %esi
	callq	_KPrepCall
	callq	_KEnqArgConst
	movl	$1, %edi
	callq	_KLinkReturn
	movl	$256, %edx              # imm = 0x100
	.loc	1 87 17                 # local_support.c:87:17
	movq	%r12, %rdi
	movq	%r13, %rsi
	callq	memcmp
	movl	%eax, %r12d
.Ltmp90:
	#DEBUG_VALUE: check_data:has_errors <- R12D
	.loc	1 88 24 is_stmt 1       # local_support.c:88:24
	addq	$512, %rbx              # imm = 0x200
.Ltmp91:
	.loc	1 88 40 is_stmt 0       # local_support.c:88:40
	addq	$512, %r15              # imm = 0x200
.Ltmp92:
	movabsq	$-3832077813385357729, %rdi # imm = 0xCAD1B9882D82965F
	xorl	%esi, %esi
	callq	_KPrepCall
	callq	_KEnqArgConst
	movl	$2, %edi
	callq	_KLinkReturn
	movl	$256, %edx              # imm = 0x100
	.loc	1 88 17                 # local_support.c:88:17
	movq	%rbx, %rdi
	movq	%r15, %rsi
	callq	memcmp
	.loc	1 91 10 is_stmt 1       # local_support.c:91:10
	orl	%r12d, %eax
	sete	%al
	movzbl	%al, %ebx
	movl	$3, %edi
	movl	$2, %esi
	movl	$3, %edx
	movl	$1, %ecx
	movl	$4, %r8d
	callq	_KTimestamp2
	movl	$3, %edi
	callq	_KReturn
	xorl	%esi, %esi
	movq	%r14, %rdi
	callq	_KExitRegion
	.loc	1 91 3 is_stmt 0        # local_support.c:91:3
	movl	%ebx, %eax
	addq	$8, %rsp
	popq	%rbx
	popq	%r12
.Ltmp93:
	popq	%r13
	popq	%r14
	popq	%r15
	popq	%rbp
	retq
.Ltmp94:
.Ltmp95:
	.size	check_data, .Ltmp95-check_data
.Lfunc_end5:
	.cfi_endproc

	.type	INPUT_SIZE,@object      # @INPUT_SIZE
	.data
	.globl	INPUT_SIZE
	.align	4
INPUT_SIZE:
	.long	83976                   # 0x14808
	.size	INPUT_SIZE, 4

	.type	krem_prefix7660a2f80b8b8568_krem_callsiteId_krem_local_support.c_krem_run_benchmark_krem_8_krem_8_krem_,@object # @krem_prefix7660a2f80b8b8568_krem_callsiteId_krem_local_support.c_krem_run_benchmark_krem_8_krem_8_krem_
	.bss
	.globl	krem_prefix7660a2f80b8b8568_krem_callsiteId_krem_local_support.c_krem_run_benchmark_krem_8_krem_8_krem_
krem_prefix7660a2f80b8b8568_krem_callsiteId_krem_local_support.c_krem_run_benchmark_krem_8_krem_8_krem_:
	.byte	0                       # 0x0
	.size	krem_prefix7660a2f80b8b8568_krem_callsiteId_krem_local_support.c_krem_run_benchmark_krem_8_krem_8_krem_, 1

	.type	krem_prefixe456c481ba0a69c1_krem_callsiteId_krem_local_support.c_krem_input_to_data_krem_24_krem_24_krem_,@object # @krem_prefixe456c481ba0a69c1_krem_callsiteId_krem_local_support.c_krem_input_to_data_krem_24_krem_24_krem_
	.globl	krem_prefixe456c481ba0a69c1_krem_callsiteId_krem_local_support.c_krem_input_to_data_krem_24_krem_24_krem_
krem_prefixe456c481ba0a69c1_krem_callsiteId_krem_local_support.c_krem_input_to_data_krem_24_krem_24_krem_:
	.byte	0                       # 0x0
	.size	krem_prefixe456c481ba0a69c1_krem_callsiteId_krem_local_support.c_krem_input_to_data_krem_24_krem_24_krem_, 1

	.type	krem_prefix941dc0e58e7a9c08_krem_callsiteId_krem_local_support.c_krem_input_to_data_krem_26_krem_26_krem_,@object # @krem_prefix941dc0e58e7a9c08_krem_callsiteId_krem_local_support.c_krem_input_to_data_krem_26_krem_26_krem_
	.globl	krem_prefix941dc0e58e7a9c08_krem_callsiteId_krem_local_support.c_krem_input_to_data_krem_26_krem_26_krem_
krem_prefix941dc0e58e7a9c08_krem_callsiteId_krem_local_support.c_krem_input_to_data_krem_26_krem_26_krem_:
	.byte	0                       # 0x0
	.size	krem_prefix941dc0e58e7a9c08_krem_callsiteId_krem_local_support.c_krem_input_to_data_krem_26_krem_26_krem_, 1

	.type	krem_prefix0add074c1252bc52_krem_callsiteId_krem_local_support.c_krem_input_to_data_krem_27_krem_27_krem_,@object # @krem_prefix0add074c1252bc52_krem_callsiteId_krem_local_support.c_krem_input_to_data_krem_27_krem_27_krem_
	.globl	krem_prefix0add074c1252bc52_krem_callsiteId_krem_local_support.c_krem_input_to_data_krem_27_krem_27_krem_
krem_prefix0add074c1252bc52_krem_callsiteId_krem_local_support.c_krem_input_to_data_krem_27_krem_27_krem_:
	.byte	0                       # 0x0
	.size	krem_prefix0add074c1252bc52_krem_callsiteId_krem_local_support.c_krem_input_to_data_krem_27_krem_27_krem_, 1

	.type	krem_prefixfc84d3d0c427a2ee_krem_callsiteId_krem_local_support.c_krem_input_to_data_krem_29_krem_29_krem_,@object # @krem_prefixfc84d3d0c427a2ee_krem_callsiteId_krem_local_support.c_krem_input_to_data_krem_29_krem_29_krem_
	.globl	krem_prefixfc84d3d0c427a2ee_krem_callsiteId_krem_local_support.c_krem_input_to_data_krem_29_krem_29_krem_
krem_prefixfc84d3d0c427a2ee_krem_callsiteId_krem_local_support.c_krem_input_to_data_krem_29_krem_29_krem_:
	.byte	0                       # 0x0
	.size	krem_prefixfc84d3d0c427a2ee_krem_callsiteId_krem_local_support.c_krem_input_to_data_krem_29_krem_29_krem_, 1

	.type	krem_prefixfb7de7fb33b84b74_krem_callsiteId_krem_local_support.c_krem_input_to_data_krem_30_krem_30_krem_,@object # @krem_prefixfb7de7fb33b84b74_krem_callsiteId_krem_local_support.c_krem_input_to_data_krem_30_krem_30_krem_
	.globl	krem_prefixfb7de7fb33b84b74_krem_callsiteId_krem_local_support.c_krem_input_to_data_krem_30_krem_30_krem_
krem_prefixfb7de7fb33b84b74_krem_callsiteId_krem_local_support.c_krem_input_to_data_krem_30_krem_30_krem_:
	.byte	0                       # 0x0
	.size	krem_prefixfb7de7fb33b84b74_krem_callsiteId_krem_local_support.c_krem_input_to_data_krem_30_krem_30_krem_, 1

	.type	krem_prefixcce8f866c2f101fe_krem_callsiteId_krem_local_support.c_krem_data_to_input_krem_38_krem_38_krem_,@object # @krem_prefixcce8f866c2f101fe_krem_callsiteId_krem_local_support.c_krem_data_to_input_krem_38_krem_38_krem_
	.globl	krem_prefixcce8f866c2f101fe_krem_callsiteId_krem_local_support.c_krem_data_to_input_krem_38_krem_38_krem_
krem_prefixcce8f866c2f101fe_krem_callsiteId_krem_local_support.c_krem_data_to_input_krem_38_krem_38_krem_:
	.byte	0                       # 0x0
	.size	krem_prefixcce8f866c2f101fe_krem_callsiteId_krem_local_support.c_krem_data_to_input_krem_38_krem_38_krem_, 1

	.type	krem_prefixa0a5307a5f9e5199_krem_callsiteId_krem_local_support.c_krem_data_to_input_krem_39_krem_39_krem_,@object # @krem_prefixa0a5307a5f9e5199_krem_callsiteId_krem_local_support.c_krem_data_to_input_krem_39_krem_39_krem_
	.globl	krem_prefixa0a5307a5f9e5199_krem_callsiteId_krem_local_support.c_krem_data_to_input_krem_39_krem_39_krem_
krem_prefixa0a5307a5f9e5199_krem_callsiteId_krem_local_support.c_krem_data_to_input_krem_39_krem_39_krem_:
	.byte	0                       # 0x0
	.size	krem_prefixa0a5307a5f9e5199_krem_callsiteId_krem_local_support.c_krem_data_to_input_krem_39_krem_39_krem_, 1

	.type	krem_prefixfc1876309d2ecf52_krem_callsiteId_krem_local_support.c_krem_data_to_input_krem_41_krem_41_krem_,@object # @krem_prefixfc1876309d2ecf52_krem_callsiteId_krem_local_support.c_krem_data_to_input_krem_41_krem_41_krem_
	.globl	krem_prefixfc1876309d2ecf52_krem_callsiteId_krem_local_support.c_krem_data_to_input_krem_41_krem_41_krem_
krem_prefixfc1876309d2ecf52_krem_callsiteId_krem_local_support.c_krem_data_to_input_krem_41_krem_41_krem_:
	.byte	0                       # 0x0
	.size	krem_prefixfc1876309d2ecf52_krem_callsiteId_krem_local_support.c_krem_data_to_input_krem_41_krem_41_krem_, 1

	.type	krem_prefix7de4fc0395ef0bd8_krem_callsiteId_krem_local_support.c_krem_data_to_input_krem_42_krem_42_krem_,@object # @krem_prefix7de4fc0395ef0bd8_krem_callsiteId_krem_local_support.c_krem_data_to_input_krem_42_krem_42_krem_
	.globl	krem_prefix7de4fc0395ef0bd8_krem_callsiteId_krem_local_support.c_krem_data_to_input_krem_42_krem_42_krem_
krem_prefix7de4fc0395ef0bd8_krem_callsiteId_krem_local_support.c_krem_data_to_input_krem_42_krem_42_krem_:
	.byte	0                       # 0x0
	.size	krem_prefix7de4fc0395ef0bd8_krem_callsiteId_krem_local_support.c_krem_data_to_input_krem_42_krem_42_krem_, 1

	.type	krem_prefixd9758e6397cf4359_krem_callsiteId_krem_local_support.c_krem_data_to_input_krem_44_krem_44_krem_,@object # @krem_prefixd9758e6397cf4359_krem_callsiteId_krem_local_support.c_krem_data_to_input_krem_44_krem_44_krem_
	.globl	krem_prefixd9758e6397cf4359_krem_callsiteId_krem_local_support.c_krem_data_to_input_krem_44_krem_44_krem_
krem_prefixd9758e6397cf4359_krem_callsiteId_krem_local_support.c_krem_data_to_input_krem_44_krem_44_krem_:
	.byte	0                       # 0x0
	.size	krem_prefixd9758e6397cf4359_krem_callsiteId_krem_local_support.c_krem_data_to_input_krem_44_krem_44_krem_, 1

	.type	krem_prefixfaa63da1edb04097_krem_callsiteId_krem_local_support.c_krem_output_to_data_krem_60_krem_60_krem_,@object # @krem_prefixfaa63da1edb04097_krem_callsiteId_krem_local_support.c_krem_output_to_data_krem_60_krem_60_krem_
	.globl	krem_prefixfaa63da1edb04097_krem_callsiteId_krem_local_support.c_krem_output_to_data_krem_60_krem_60_krem_
krem_prefixfaa63da1edb04097_krem_callsiteId_krem_local_support.c_krem_output_to_data_krem_60_krem_60_krem_:
	.byte	0                       # 0x0
	.size	krem_prefixfaa63da1edb04097_krem_callsiteId_krem_local_support.c_krem_output_to_data_krem_60_krem_60_krem_, 1

	.type	krem_prefix5c31cae1a124aaab_krem_callsiteId_krem_local_support.c_krem_output_to_data_krem_62_krem_62_krem_,@object # @krem_prefix5c31cae1a124aaab_krem_callsiteId_krem_local_support.c_krem_output_to_data_krem_62_krem_62_krem_
	.globl	krem_prefix5c31cae1a124aaab_krem_callsiteId_krem_local_support.c_krem_output_to_data_krem_62_krem_62_krem_
krem_prefix5c31cae1a124aaab_krem_callsiteId_krem_local_support.c_krem_output_to_data_krem_62_krem_62_krem_:
	.byte	0                       # 0x0
	.size	krem_prefix5c31cae1a124aaab_krem_callsiteId_krem_local_support.c_krem_output_to_data_krem_62_krem_62_krem_, 1

	.type	krem_prefixd3090f244c995a15_krem_callsiteId_krem_local_support.c_krem_output_to_data_krem_63_krem_63_krem_,@object # @krem_prefixd3090f244c995a15_krem_callsiteId_krem_local_support.c_krem_output_to_data_krem_63_krem_63_krem_
	.globl	krem_prefixd3090f244c995a15_krem_callsiteId_krem_local_support.c_krem_output_to_data_krem_63_krem_63_krem_
krem_prefixd3090f244c995a15_krem_callsiteId_krem_local_support.c_krem_output_to_data_krem_63_krem_63_krem_:
	.byte	0                       # 0x0
	.size	krem_prefixd3090f244c995a15_krem_callsiteId_krem_local_support.c_krem_output_to_data_krem_63_krem_63_krem_, 1

	.type	krem_prefix923cb50e61baa833_krem_callsiteId_krem_local_support.c_krem_output_to_data_krem_65_krem_65_krem_,@object # @krem_prefix923cb50e61baa833_krem_callsiteId_krem_local_support.c_krem_output_to_data_krem_65_krem_65_krem_
	.globl	krem_prefix923cb50e61baa833_krem_callsiteId_krem_local_support.c_krem_output_to_data_krem_65_krem_65_krem_
krem_prefix923cb50e61baa833_krem_callsiteId_krem_local_support.c_krem_output_to_data_krem_65_krem_65_krem_:
	.byte	0                       # 0x0
	.size	krem_prefix923cb50e61baa833_krem_callsiteId_krem_local_support.c_krem_output_to_data_krem_65_krem_65_krem_, 1

	.type	krem_prefix3d502109c2b57910_krem_callsiteId_krem_local_support.c_krem_output_to_data_krem_66_krem_66_krem_,@object # @krem_prefix3d502109c2b57910_krem_callsiteId_krem_local_support.c_krem_output_to_data_krem_66_krem_66_krem_
	.globl	krem_prefix3d502109c2b57910_krem_callsiteId_krem_local_support.c_krem_output_to_data_krem_66_krem_66_krem_
krem_prefix3d502109c2b57910_krem_callsiteId_krem_local_support.c_krem_output_to_data_krem_66_krem_66_krem_:
	.byte	0                       # 0x0
	.size	krem_prefix3d502109c2b57910_krem_callsiteId_krem_local_support.c_krem_output_to_data_krem_66_krem_66_krem_, 1

	.type	krem_prefixd0a84d721eb9a1a4_krem_callsiteId_krem_local_support.c_krem_data_to_output_krem_73_krem_73_krem_,@object # @krem_prefixd0a84d721eb9a1a4_krem_callsiteId_krem_local_support.c_krem_data_to_output_krem_73_krem_73_krem_
	.globl	krem_prefixd0a84d721eb9a1a4_krem_callsiteId_krem_local_support.c_krem_data_to_output_krem_73_krem_73_krem_
krem_prefixd0a84d721eb9a1a4_krem_callsiteId_krem_local_support.c_krem_data_to_output_krem_73_krem_73_krem_:
	.byte	0                       # 0x0
	.size	krem_prefixd0a84d721eb9a1a4_krem_callsiteId_krem_local_support.c_krem_data_to_output_krem_73_krem_73_krem_, 1

	.type	krem_prefix4529a40d2730d449_krem_callsiteId_krem_local_support.c_krem_data_to_output_krem_74_krem_74_krem_,@object # @krem_prefix4529a40d2730d449_krem_callsiteId_krem_local_support.c_krem_data_to_output_krem_74_krem_74_krem_
	.globl	krem_prefix4529a40d2730d449_krem_callsiteId_krem_local_support.c_krem_data_to_output_krem_74_krem_74_krem_
krem_prefix4529a40d2730d449_krem_callsiteId_krem_local_support.c_krem_data_to_output_krem_74_krem_74_krem_:
	.byte	0                       # 0x0
	.size	krem_prefix4529a40d2730d449_krem_callsiteId_krem_local_support.c_krem_data_to_output_krem_74_krem_74_krem_, 1

	.type	krem_prefix77e4b5d3722f5b45_krem_callsiteId_krem_local_support.c_krem_data_to_output_krem_76_krem_76_krem_,@object # @krem_prefix77e4b5d3722f5b45_krem_callsiteId_krem_local_support.c_krem_data_to_output_krem_76_krem_76_krem_
	.globl	krem_prefix77e4b5d3722f5b45_krem_callsiteId_krem_local_support.c_krem_data_to_output_krem_76_krem_76_krem_
krem_prefix77e4b5d3722f5b45_krem_callsiteId_krem_local_support.c_krem_data_to_output_krem_76_krem_76_krem_:
	.byte	0                       # 0x0
	.size	krem_prefix77e4b5d3722f5b45_krem_callsiteId_krem_local_support.c_krem_data_to_output_krem_76_krem_76_krem_, 1

	.type	krem_prefix0a408f1f3e89b60c_krem_callsiteId_krem_local_support.c_krem_data_to_output_krem_77_krem_77_krem_,@object # @krem_prefix0a408f1f3e89b60c_krem_callsiteId_krem_local_support.c_krem_data_to_output_krem_77_krem_77_krem_
	.globl	krem_prefix0a408f1f3e89b60c_krem_callsiteId_krem_local_support.c_krem_data_to_output_krem_77_krem_77_krem_
krem_prefix0a408f1f3e89b60c_krem_callsiteId_krem_local_support.c_krem_data_to_output_krem_77_krem_77_krem_:
	.byte	0                       # 0x0
	.size	krem_prefix0a408f1f3e89b60c_krem_callsiteId_krem_local_support.c_krem_data_to_output_krem_77_krem_77_krem_, 1

	.type	krem_prefixd305d4f9084ca98a_krem_callsiteId_krem_local_support.c_krem_data_to_output_krem_79_krem_79_krem_,@object # @krem_prefixd305d4f9084ca98a_krem_callsiteId_krem_local_support.c_krem_data_to_output_krem_79_krem_79_krem_
	.globl	krem_prefixd305d4f9084ca98a_krem_callsiteId_krem_local_support.c_krem_data_to_output_krem_79_krem_79_krem_
krem_prefixd305d4f9084ca98a_krem_callsiteId_krem_local_support.c_krem_data_to_output_krem_79_krem_79_krem_:
	.byte	0                       # 0x0
	.size	krem_prefixd305d4f9084ca98a_krem_callsiteId_krem_local_support.c_krem_data_to_output_krem_79_krem_79_krem_, 1

	.type	krem_prefixc8384c18440d6baf_krem_callsiteId_krem_local_support.c_krem_check_data_krem_87_krem_87_krem_,@object # @krem_prefixc8384c18440d6baf_krem_callsiteId_krem_local_support.c_krem_check_data_krem_87_krem_87_krem_
	.globl	krem_prefixc8384c18440d6baf_krem_callsiteId_krem_local_support.c_krem_check_data_krem_87_krem_87_krem_
krem_prefixc8384c18440d6baf_krem_callsiteId_krem_local_support.c_krem_check_data_krem_87_krem_87_krem_:
	.byte	0                       # 0x0
	.size	krem_prefixc8384c18440d6baf_krem_callsiteId_krem_local_support.c_krem_check_data_krem_87_krem_87_krem_, 1

	.type	krem_prefixcad1b9882d82965f_krem_callsiteId_krem_local_support.c_krem_check_data_krem_88_krem_88_krem_,@object # @krem_prefixcad1b9882d82965f_krem_callsiteId_krem_local_support.c_krem_check_data_krem_88_krem_88_krem_
	.globl	krem_prefixcad1b9882d82965f_krem_callsiteId_krem_local_support.c_krem_check_data_krem_88_krem_88_krem_
krem_prefixcad1b9882d82965f_krem_callsiteId_krem_local_support.c_krem_check_data_krem_88_krem_88_krem_:
	.byte	0                       # 0x0
	.size	krem_prefixcad1b9882d82965f_krem_callsiteId_krem_local_support.c_krem_check_data_krem_88_krem_88_krem_, 1

	.type	krem_prefix1f6598932cab9ea4_krem_func_krem_local_support.c_krem_data_to_output_krem_70_krem_70_krem_,@object # @krem_prefix1f6598932cab9ea4_krem_func_krem_local_support.c_krem_data_to_output_krem_70_krem_70_krem_
	.globl	krem_prefix1f6598932cab9ea4_krem_func_krem_local_support.c_krem_data_to_output_krem_70_krem_70_krem_
krem_prefix1f6598932cab9ea4_krem_func_krem_local_support.c_krem_data_to_output_krem_70_krem_70_krem_:
	.byte	0                       # 0x0
	.size	krem_prefix1f6598932cab9ea4_krem_func_krem_local_support.c_krem_data_to_output_krem_70_krem_70_krem_, 1

	.type	krem_prefix359af4d3671ac144_krem_func_krem_local_support.c_krem_run_benchmark_krem_6_krem_6_krem_,@object # @krem_prefix359af4d3671ac144_krem_func_krem_local_support.c_krem_run_benchmark_krem_6_krem_6_krem_
	.globl	krem_prefix359af4d3671ac144_krem_func_krem_local_support.c_krem_run_benchmark_krem_6_krem_6_krem_
krem_prefix359af4d3671ac144_krem_func_krem_local_support.c_krem_run_benchmark_krem_6_krem_6_krem_:
	.byte	0                       # 0x0
	.size	krem_prefix359af4d3671ac144_krem_func_krem_local_support.c_krem_run_benchmark_krem_6_krem_6_krem_, 1

	.type	krem_prefix72b5b4fa529be4ae_krem_func_krem_local_support.c_krem_data_to_input_krem_35_krem_35_krem_,@object # @krem_prefix72b5b4fa529be4ae_krem_func_krem_local_support.c_krem_data_to_input_krem_35_krem_35_krem_
	.globl	krem_prefix72b5b4fa529be4ae_krem_func_krem_local_support.c_krem_data_to_input_krem_35_krem_35_krem_
krem_prefix72b5b4fa529be4ae_krem_func_krem_local_support.c_krem_data_to_input_krem_35_krem_35_krem_:
	.byte	0                       # 0x0
	.size	krem_prefix72b5b4fa529be4ae_krem_func_krem_local_support.c_krem_data_to_input_krem_35_krem_35_krem_, 1

	.type	krem_prefixa41bc5f6dcbcc287_krem_func_krem_local_support.c_krem_input_to_data_krem_18_krem_18_krem_,@object # @krem_prefixa41bc5f6dcbcc287_krem_func_krem_local_support.c_krem_input_to_data_krem_18_krem_18_krem_
	.globl	krem_prefixa41bc5f6dcbcc287_krem_func_krem_local_support.c_krem_input_to_data_krem_18_krem_18_krem_
krem_prefixa41bc5f6dcbcc287_krem_func_krem_local_support.c_krem_input_to_data_krem_18_krem_18_krem_:
	.byte	0                       # 0x0
	.size	krem_prefixa41bc5f6dcbcc287_krem_func_krem_local_support.c_krem_input_to_data_krem_18_krem_18_krem_, 1

	.type	krem_prefixafc25d080a5e43d4_krem_func_krem_local_support.c_krem_check_data_krem_82_krem_82_krem_,@object # @krem_prefixafc25d080a5e43d4_krem_func_krem_local_support.c_krem_check_data_krem_82_krem_82_krem_
	.globl	krem_prefixafc25d080a5e43d4_krem_func_krem_local_support.c_krem_check_data_krem_82_krem_82_krem_
krem_prefixafc25d080a5e43d4_krem_func_krem_local_support.c_krem_check_data_krem_82_krem_82_krem_:
	.byte	0                       # 0x0
	.size	krem_prefixafc25d080a5e43d4_krem_func_krem_local_support.c_krem_check_data_krem_82_krem_82_krem_, 1

	.type	krem_prefixbddd6b4a8b0194b0_krem_func_krem_local_support.c_krem_output_to_data_krem_54_krem_54_krem_,@object # @krem_prefixbddd6b4a8b0194b0_krem_func_krem_local_support.c_krem_output_to_data_krem_54_krem_54_krem_
	.globl	krem_prefixbddd6b4a8b0194b0_krem_func_krem_local_support.c_krem_output_to_data_krem_54_krem_54_krem_
krem_prefixbddd6b4a8b0194b0_krem_func_krem_local_support.c_krem_output_to_data_krem_54_krem_54_krem_:
	.byte	0                       # 0x0
	.size	krem_prefixbddd6b4a8b0194b0_krem_func_krem_local_support.c_krem_output_to_data_krem_54_krem_54_krem_, 1

	.data
.Ldebug_end0:
	.text
.Ldebug_end1:
	.section	".note.GNU-stack","",@progbits