	.text
	.file	"/home/patmos/github/bachelor_project_HLS/candidates/MachSuite/common/support.simplifycfg.mem2reg.indvars.elimsinglephis.criticalpath.regioninstrument.renamemain.O3.bc"
	.text
	.globl	readfile
	.align	16, 0x90
	.type	readfile,@function
readfile:                               # @readfile
.Lfunc_begin0:
	.file	3 "/home/patmos/github/bachelor_project_HLS/candidates/MachSuite/common/support.c"
	.loc	3 34 0                  # /home/patmos/github/bachelor_project_HLS/candidates/MachSuite/common/support.c:34:0
	.cfi_startproc
# BB#0:                                 # %entry
	pushq	%rbp
.Ltmp0:
	.cfi_def_cfa_offset 16
.Ltmp1:
	.cfi_offset %rbp, -16
	movq	%rsp, %rbp
.Ltmp2:
	.cfi_def_cfa_register %rbp
	pushq	%r15
	pushq	%r14
	pushq	%r13
	pushq	%r12
	pushq	%rbx
	subq	$184, %rsp
.Ltmp3:
	.cfi_offset %rbx, -56
.Ltmp4:
	.cfi_offset %r12, -48
.Ltmp5:
	.cfi_offset %r13, -40
.Ltmp6:
	.cfi_offset %r14, -32
.Ltmp7:
	.cfi_offset %r15, -24
	#DEBUG_VALUE: readfile:fd <- EDI
	movl	%edi, %r15d
.Ltmp8:
	#DEBUG_VALUE: readfile:fd <- R15D
	movabsq	$4804266437375031175, %r14 # imm = 0x42AC2EDEE611F787
	xorl	%esi, %esi
	movq	%r14, %rdi
	callq	_KEnterRegion
	movl	$15, %edi
	movl	$2, %esi
	callq	_KPrepRTable
	movl	$1, %edi
	callq	_KWork
	movl	$1, %edi
	callq	_KDeqArg
	movl	$13, %edi
	movl	$1, %esi
	movl	$1, %edx
	callq	_KTimestamp1
	movl	$13, %edi
	callq	_KPushCDep
	.loc	3 40 3 prologue_end     # /home/patmos/github/bachelor_project_HLS/candidates/MachSuite/common/support.c:40:3
.Ltmp9:
	cmpl	$1, %r15d
	jle	.LBB0_8
.Ltmp10:
# BB#1:                                 # %cond.end
	#DEBUG_VALUE: readfile:fd <- R15D
	movabsq	$-5986593557843432089, %rdi # imm = 0xACEB58E0A219AD67
	xorl	%esi, %esi
	callq	_KPrepCall
	movl	$1, %edi
	movl	$1, %esi
	xorl	%edx, %edx
	callq	_KTimestamp1
	movl	$1, %edi
	callq	_KEnqArg
	movl	$2, %edi
	callq	_KLinkReturn
	movl	$1, %edi
	callq	_KWork
	leaq	-184(%rbp), %rsi
.Ltmp11:
	#DEBUG_VALUE: readfile:s <- [RSI+0]
	.loc	3 41 3                  # /home/patmos/github/bachelor_project_HLS/candidates/MachSuite/common/support.c:41:3
	movl	%r15d, %edi
	callq	fstat
	movl	%eax, %ebx
	movl	$14, %edi
	movl	$1, %esi
.Ltmp12:
	movl	$2, %edx
	movl	$2, %ecx
	movl	$1, %r8d
	callq	_KTimestamp2
	callq	_KPopCDep
	movl	$14, %edi
	callq	_KPushCDep
	testl	%ebx, %ebx
	jne	.LBB0_9
.Ltmp13:
# BB#2:                                 # %cond.end5
	#DEBUG_VALUE: readfile:fd <- R15D
	movl	%r15d, -196(%rbp)       # 4-byte Spill
.Ltmp14:
	#DEBUG_VALUE: readfile:fd <- [RBP+-196]
	movl	$5, %edi
	callq	_KWork
	.loc	3 42 9                  # /home/patmos/github/bachelor_project_HLS/candidates/MachSuite/common/support.c:42:9
	leaq	-136(%rbp), %rdi
	movl	$3, %esi
	movl	$8, %edx
	callq	_KLoad0
	movq	-136(%rbp), %r14
.Ltmp15:
	#DEBUG_VALUE: readfile:len <- R14
	movl	$1, (%rsp)
	movl	$8, %edi
	movl	$1, %esi
	movl	$3, %edx
	movl	$2, %ecx
	movl	$2, %r8d
	movl	$3, %r9d
	callq	_KTimestamp3
	movl	$3, %edi
	movl	$3, %esi
	xorl	%edx, %edx
	callq	_KTimestamp1
	callq	_KPopCDep
	movl	$8, %edi
	callq	_KPushCDep
	.loc	3 43 3                  # /home/patmos/github/bachelor_project_HLS/candidates/MachSuite/common/support.c:43:3
	testq	%r14, %r14
	jle	.LBB0_10
.Ltmp16:
# BB#3:                                 # %cond.end10
	#DEBUG_VALUE: readfile:fd <- [RBP+-196]
	#DEBUG_VALUE: readfile:len <- R14
	movabsq	$2444372450501334189, %r15 # imm = 0x21EC27CAFAE214AD
	movl	$1, %edi
	callq	_KWork
	.loc	3 44 22                 # /home/patmos/github/bachelor_project_HLS/candidates/MachSuite/common/support.c:44:22
	leaq	1(%r14), %rbx
	.loc	3 44 15 is_stmt 0       # /home/patmos/github/bachelor_project_HLS/candidates/MachSuite/common/support.c:44:15
	movq	%rbx, %rdi
	callq	malloc
.Ltmp17:
	#DEBUG_VALUE: readfile:p <- RAX
	movq	%rax, -208(%rbp)        # 8-byte Spill
	movl	$4, %edx
	movq	%rax, %rdi
.Ltmp18:
	#DEBUG_VALUE: readfile:p <- [RBP+-208]
	movq	%rbx, %rsi
	callq	_KMalloc
.Ltmp19:
	#DEBUG_VALUE: readfile:bytes_read <- 0
	callq	_KPopCDep
	movl	$1, %esi
	movq	%r15, %rdi
	callq	_KEnterRegion
	movabsq	$69007349269106099, %r12 # imm = 0xF529D18C138DB3
	xorl	%ebx, %ebx
	xorl	%r15d, %r15d
	xorl	%eax, %eax
	movq	%rax, -192(%rbp)        # 8-byte Spill
	xorl	%r13d, %r13d
	jmp	.LBB0_4
.Ltmp20:
	.align	16, 0x90
.LBB0_6:                                # %cond.end18
                                        #   in Loop: Header=BB0_4 Depth=1
	#DEBUG_VALUE: readfile:fd <- [RBP+-196]
	#DEBUG_VALUE: readfile:len <- R14
	#DEBUG_VALUE: readfile:p <- [RBP+-208]
	#DEBUG_VALUE: readfile:bytes_read <- 0
	#DEBUG_VALUE: readfile:status <- [RBP+-192]
	movl	$12, %r13d
	movl	$12, %edi
	callq	_KPushCDep
	movl	$1, %edi
	callq	_KWork
	.loc	3 49 5 is_stmt 1        # /home/patmos/github/bachelor_project_HLS/candidates/MachSuite/common/support.c:49:5
.Ltmp21:
	addq	%rbx, -192(%rbp)        # 8-byte Folded Spill
.Ltmp22:
	#DEBUG_VALUE: readfile:bytes_read <- [RBP+-192]
	movl	$2, (%rsp)
	movl	$11, %r15d
	movl	$9, %ebx
	movl	$11, %edi
	movl	$7, %esi
	movl	$1, %edx
	movl	$9, %ecx
	movl	$2, %r8d
	movl	$5, %r9d
	callq	_KTimestamp3
	callq	_KPopCDep
	movl	$2, %esi
	movq	%r12, %rdi
	callq	_KExitRegion
.Ltmp23:
.LBB0_4:                                # %while.cond
                                        # =>This Inner Loop Header: Depth=1
	#DEBUG_VALUE: readfile:fd <- [RBP+-196]
	#DEBUG_VALUE: readfile:len <- R14
	#DEBUG_VALUE: readfile:p <- [RBP+-208]
	#DEBUG_VALUE: readfile:bytes_read <- 0
	movl	$8, %edi
	callq	_KPushCDep
	movl	$7, %edi
	movl	$8, %edx
	movl	%r15d, %esi
	movl	%ebx, %ecx
	movl	%r13d, %r8d
	callq	_KPhi3To1
	movl	$1, %edi
	callq	_KWork
	movl	$1, (%rsp)
	movl	$9, %edi
	movl	$3, %esi
	movl	$1, %edx
	movl	$8, %ecx
	movl	$1, %r8d
	movl	$7, %r9d
	callq	_KTimestamp3
	movl	$7, %edi
	movl	$7, %esi
	xorl	%edx, %edx
	callq	_KTimestamp1
	movl	$7, %edi
	movl	$9, %esi
	callq	_KPhiAddCond
	callq	_KPopCDep
	.loc	3 46 3                  # /home/patmos/github/bachelor_project_HLS/candidates/MachSuite/common/support.c:46:3
	movq	%r14, %rbx
	subq	-192(%rbp), %rbx        # 8-byte Folded Reload
	jle	.LBB0_7
.Ltmp24:
# BB#5:                                 # %while.body
                                        #   in Loop: Header=BB0_4 Depth=1
	#DEBUG_VALUE: readfile:fd <- [RBP+-196]
	#DEBUG_VALUE: readfile:len <- R14
	#DEBUG_VALUE: readfile:p <- [RBP+-208]
	#DEBUG_VALUE: readfile:bytes_read <- 0
	movl	$2, %esi
	movq	%r12, %rdi
	callq	_KEnterRegion
	movl	$9, %edi
	callq	_KPushCDep
	movl	$2, %edi
	callq	_KWork
	.loc	3 47 23                 # /home/patmos/github/bachelor_project_HLS/candidates/MachSuite/common/support.c:47:23
.Ltmp25:
	movq	-208(%rbp), %rax        # 8-byte Reload
	movq	-192(%rbp), %rcx        # 8-byte Reload
	leaq	(%rax,%rcx), %r15
	xorl	%esi, %esi
	movabsq	$-5855362843927551768, %rdi # imm = 0xAEBD928438AD60E8
	callq	_KPrepCall
	movl	$1, (%rsp)
	movl	$6, %edi
	movl	$3, %esi
	movl	$1, %edx
	movl	$7, %ecx
	movl	$1, %r8d
	movl	$9, %r9d
	callq	_KTimestamp3
	movl	$6, %edi
	callq	_KEnqArg
	movl	$1, %edi
	callq	_KEnqArg
	movl	$5, %edi
	callq	_KLinkReturn
	.loc	3 47 14 is_stmt 0       # /home/patmos/github/bachelor_project_HLS/candidates/MachSuite/common/support.c:47:14
	movl	-196(%rbp), %edi        # 4-byte Reload
	movq	%r15, %rsi
	movq	%rbx, %rdx
	callq	read
	movq	%rax, %rbx
	#DEBUG_VALUE: readfile:status <- [RBP+-192]
	movl	$12, %edi
	movl	$9, %esi
	movl	$1, %edx
	movl	$5, %ecx
	movl	$1, %r8d
	callq	_KTimestamp2
	callq	_KPopCDep
	.loc	3 48 5 is_stmt 1        # /home/patmos/github/bachelor_project_HLS/candidates/MachSuite/common/support.c:48:5
	testq	%rbx, %rbx
	jns	.LBB0_6
.Ltmp26:
# BB#11:                                # %while.body.pre_exit.cond.false17
	#DEBUG_VALUE: readfile:bytes_read <- 0
	movl	$2, %esi
	movq	%r12, %rdi
	callq	_KExitRegion
	movl	$1, %esi
	movabsq	$2444372450501334189, %rdi # imm = 0x21EC27CAFAE214AD
	callq	_KExitRegion
	movl	$12, %edi
	callq	_KPushCDep
	movabsq	$-8921235742590191401, %rdi # imm = 0x8431675BDD64B8D7
	xorl	%esi, %esi
	callq	_KPrepCall
	callq	_KEnqArgConst
	xorl	%esi, %esi
	movabsq	$4804266437375031175, %rdi # imm = 0x42AC2EDEE611F787
	callq	_KExitRegion
	.loc	3 48 5 is_stmt 0 discriminator 4 # /home/patmos/github/bachelor_project_HLS/candidates/MachSuite/common/support.c:48:5
.Ltmp27:
	movl	$.L.str8, %edi
	movl	$.L.str2, %esi
	movl	$48, %edx
	movl	$.L__PRETTY_FUNCTION__.readfile, %ecx
	callq	__assert_fail
.Ltmp28:
.LBB0_7:                                # %while.cond.pre_exit.while.end
	#DEBUG_VALUE: readfile:fd <- [RBP+-196]
	#DEBUG_VALUE: readfile:len <- R14
	#DEBUG_VALUE: readfile:p <- [RBP+-208]
	#DEBUG_VALUE: readfile:bytes_read <- 0
	movl	$1, %esi
	movabsq	$2444372450501334189, %rdi # imm = 0x21EC27CAFAE214AD
	callq	_KExitRegion
	movl	$9, %edi
	callq	_KPushCDep
	movl	$1, %edi
	callq	_KWork
	movq	-208(%rbp), %rbx        # 8-byte Reload
.Ltmp29:
	#DEBUG_VALUE: readfile:p <- RBX
	.loc	3 51 3 is_stmt 1        # /home/patmos/github/bachelor_project_HLS/candidates/MachSuite/common/support.c:51:3
	movq	%rbx, %rdi
	addq	%r14, %rdi
	movl	$1, %esi
	callq	_KStoreConst
	movb	$0, (%rbx,%r14)
	movabsq	$3434323911546372511, %rdi # imm = 0x2FA92B66D75A019F
	xorl	%esi, %esi
	callq	_KPrepCall
	movl	$1, %edi
	callq	_KEnqArg
	movl	$10, %edi
	callq	_KLinkReturn
	.loc	3 52 3                  # /home/patmos/github/bachelor_project_HLS/candidates/MachSuite/common/support.c:52:3
	movl	-196(%rbp), %edi        # 4-byte Reload
	callq	close
	callq	_KPopCDep
	xorl	%esi, %esi
	movabsq	$4804266437375031175, %rdi # imm = 0x42AC2EDEE611F787
	callq	_KExitRegion
	.loc	3 53 3                  # /home/patmos/github/bachelor_project_HLS/candidates/MachSuite/common/support.c:53:3
	movq	%rbx, %rax
	addq	$184, %rsp
	popq	%rbx
.Ltmp30:
	popq	%r12
	popq	%r13
	popq	%r14
.Ltmp31:
	popq	%r15
	popq	%rbp
	retq
.LBB0_8:                                # %cond.false
	movabsq	$4355584733754577236, %rdi # imm = 0x3C72253D0C8E5154
	xorl	%esi, %esi
	callq	_KPrepCall
	callq	_KEnqArgConst
	xorl	%esi, %esi
	movq	%r14, %rdi
	callq	_KExitRegion
	.loc	3 40 3 discriminator 4  # /home/patmos/github/bachelor_project_HLS/candidates/MachSuite/common/support.c:40:3
.Ltmp32:
	movl	$.L.str1, %edi
	movl	$.L.str2, %esi
	movl	$40, %edx
	movl	$.L__PRETTY_FUNCTION__.readfile, %ecx
	callq	__assert_fail
.LBB0_9:                                # %cond.false4
	movabsq	$290501184289854703, %rdi # imm = 0x4081149B86D54EF
	xorl	%esi, %esi
	callq	_KPrepCall
	callq	_KEnqArgConst
	xorl	%esi, %esi
	movq	%r14, %rdi
	callq	_KExitRegion
	.loc	3 41 3 discriminator 4  # /home/patmos/github/bachelor_project_HLS/candidates/MachSuite/common/support.c:41:3
	movl	$.L.str4, %edi
	movl	$.L.str2, %esi
	movl	$41, %edx
	movl	$.L__PRETTY_FUNCTION__.readfile, %ecx
	callq	__assert_fail
.LBB0_10:                               # %cond.false9
	movabsq	$5780957992387089234, %rdi # imm = 0x503A16AA4DB01352
	xorl	%esi, %esi
	callq	_KPrepCall
	callq	_KEnqArgConst
	xorl	%esi, %esi
	movabsq	$4804266437375031175, %rdi # imm = 0x42AC2EDEE611F787
	callq	_KExitRegion
	.loc	3 43 3 discriminator 4  # /home/patmos/github/bachelor_project_HLS/candidates/MachSuite/common/support.c:43:3
	movl	$.L.str6, %edi
	movl	$.L.str2, %esi
	movl	$43, %edx
	movl	$.L__PRETTY_FUNCTION__.readfile, %ecx
	callq	__assert_fail
.Ltmp33:
.Ltmp34:
	.size	readfile, .Ltmp34-readfile
.Lfunc_end0:
	.cfi_endproc

	.globl	find_section_start
	.align	16, 0x90
	.type	find_section_start,@function
find_section_start:                     # @find_section_start
.Lfunc_begin1:
	.loc	3 56 0                  # /home/patmos/github/bachelor_project_HLS/candidates/MachSuite/common/support.c:56:0
	.cfi_startproc
# BB#0:                                 # %entry
	pushq	%rbp
.Ltmp35:
	.cfi_def_cfa_offset 16
.Ltmp36:
	.cfi_offset %rbp, -16
	movq	%rsp, %rbp
.Ltmp37:
	.cfi_def_cfa_register %rbp
	pushq	%r15
	pushq	%r14
	pushq	%r13
	pushq	%r12
	pushq	%rbx
	subq	$56, %rsp
.Ltmp38:
	.cfi_offset %rbx, -56
.Ltmp39:
	.cfi_offset %r12, -48
.Ltmp40:
	.cfi_offset %r13, -40
.Ltmp41:
	.cfi_offset %r14, -32
.Ltmp42:
	.cfi_offset %r15, -24
	#DEBUG_VALUE: find_section_start:s <- RDI
	#DEBUG_VALUE: find_section_start:n <- ESI
	movl	%esi, %ebx
.Ltmp43:
	#DEBUG_VALUE: find_section_start:n <- EBX
	movl	%ebx, -52(%rbp)         # 4-byte Spill
	movq	%rdi, %r14
.Ltmp44:
	#DEBUG_VALUE: find_section_start:s <- R14
	movabsq	$4224449335153044892, %rdi # imm = 0x3AA04249C96EAD9C
	xorl	%r12d, %r12d
	xorl	%esi, %esi
	callq	_KEnterRegion
	movl	$24, %edi
	movl	$2, %esi
	callq	_KPrepRTable
	movl	$1, %edi
	callq	_KDeqArg
	movl	$1, %edi
	callq	_KWork
	movl	$23, %edi
	movl	$1, %esi
	movl	$1, %edx
	callq	_KTimestamp1
	movl	$23, %edi
	callq	_KPushCDep
.Ltmp45:
	#DEBUG_VALUE: find_section_start:i <- 0
	.loc	3 59 3 prologue_end     # /home/patmos/github/bachelor_project_HLS/candidates/MachSuite/common/support.c:59:3
	testl	%ebx, %ebx
	js	.LBB1_18
.Ltmp46:
# BB#1:                                 # %cond.end
	#DEBUG_VALUE: find_section_start:s <- R14
	#DEBUG_VALUE: find_section_start:n <- EBX
	#DEBUG_VALUE: find_section_start:i <- 0
	movl	$1, %edi
	callq	_KWork
	movl	$14, %r15d
	movl	$14, %edi
	movl	$14, %esi
	xorl	%edx, %edx
	callq	_KTimestamp1
	movl	$9, %edi
	movl	$1, %esi
	movl	$2, %edx
	callq	_KTimestamp1
	callq	_KPopCDep
	movl	$9, %edi
	callq	_KPushCDep
	callq	_KPopCDep
	.loc	3 60 6                  # /home/patmos/github/bachelor_project_HLS/candidates/MachSuite/common/support.c:60:6
.Ltmp47:
	testl	%ebx, %ebx
	je	.LBB1_17
.Ltmp48:
# BB#2:                                 # %while.cond.preheader1
	#DEBUG_VALUE: find_section_start:s <- R14
	#DEBUG_VALUE: find_section_start:n <- EBX
	#DEBUG_VALUE: find_section_start:i <- 0
	movabsq	$-479564457144668431, %rdi # imm = 0xF9583EAAC4FD2EF1
	movl	$1, %esi
	callq	_KEnterRegion
	movl	$14, %r15d
	xorl	%r12d, %r12d
	movabsq	$-6044022837850797472, %rdi # imm = 0xAC1F5140678E0A60
	xorl	%r13d, %r13d
	movl	$0, -48(%rbp)           # 4-byte Folded Spill
	jmp	.LBB1_3
.Ltmp49:
	.align	16, 0x90
.LBB1_12:                               # %if.end19
                                        #   in Loop: Header=BB1_3 Depth=1
	#DEBUG_VALUE: find_section_start:n <- [RBP+-52]
	#DEBUG_VALUE: find_section_start:i <- 0
	movl	$10, %r12d
	movl	$10, %edi
	callq	_KPushCDep
	movl	$8, %r13d
	movl	$8, %edi
	movl	$10, %edx
	movl	$17, %ecx
	movl	%r15d, %esi
	movl	%ebx, %r8d
	movl	-44(%rbp), %r9d         # 4-byte Reload
	callq	_KPhi4To1
	movl	$13, %r15d
	movl	$13, %edi
	movl	$12, %esi
	xorl	%edx, %edx
	movl	$10, %ecx
	xorl	%r8d, %r8d
	callq	_KTimestamp2
	movl	$8, %edi
	movl	$8, %esi
	xorl	%edx, %edx
	callq	_KTimestamp1
	callq	_KPopCDep
	movl	$2, %esi
	movabsq	$-6044022837850797472, %rbx # imm = 0xAC1F5140678E0A60
	movq	%rbx, %rdi
	callq	_KExitRegion
	movq	%rbx, %rdi
	movl	-52(%rbp), %ebx         # 4-byte Reload
.Ltmp50:
	#DEBUG_VALUE: find_section_start:n <- EBX
.LBB1_3:                                # %while.cond
                                        # =>This Inner Loop Header: Depth=1
	#DEBUG_VALUE: find_section_start:n <- EBX
	#DEBUG_VALUE: find_section_start:i <- 0
	movl	$2, %esi
	callq	_KEnterRegion
	movl	$9, %edi
	callq	_KPushCDep
	movl	$7, %edi
	movl	$9, %edx
	movl	%r13d, %esi
	movl	%r12d, %ecx
	callq	_KPhi2To1
	movl	$12, %edi
	movl	$9, %edx
	movl	%r15d, %esi
	movl	%r12d, %ecx
	callq	_KPhi2To1
	movl	$1, %edi
	callq	_KWork
	movl	$12, %edi
	movl	$12, %esi
	xorl	%edx, %edx
	callq	_KTimestamp1
	movl	$1, (%rsp)
	movl	$11, %edi
	movl	$1, %esi
	movl	$1, %edx
	movl	$9, %ecx
	movl	$1, %r8d
	movl	$7, %r9d
	callq	_KTimestamp3
	movl	$7, %edi
	movl	$7, %esi
	xorl	%edx, %edx
	callq	_KTimestamp1
	callq	_KPopCDep
	.loc	3 64 9                  # /home/patmos/github/bachelor_project_HLS/candidates/MachSuite/common/support.c:64:9
	cmpl	%ebx, -48(%rbp)         # 4-byte Folded Reload
	jge	.LBB1_13
.Ltmp51:
# BB#4:                                 # %land.rhs
                                        #   in Loop: Header=BB1_3 Depth=1
	#DEBUG_VALUE: find_section_start:n <- EBX
	#DEBUG_VALUE: find_section_start:i <- 0
	movl	$11, %edi
	callq	_KPushCDep
	movl	$5, %edi
	callq	_KWork
	movl	$2, %esi
	movl	$1, %edx
	movq	%r14, %rdi
	callq	_KLoad0
	.loc	3 64 16 is_stmt 0       # /home/patmos/github/bachelor_project_HLS/candidates/MachSuite/common/support.c:64:16
	movb	(%r14), %bl
.Ltmp52:
	movl	$15, %edi
	movl	$11, %esi
	movl	$1, %edx
	movl	$2, %ecx
	movl	$1, %r8d
	callq	_KTimestamp2
	callq	_KPopCDep
	movl	$9, %edi
	callq	_KPushCDep
	movl	$10, %edi
	movl	$10, %esi
	xorl	%edx, %edx
	callq	_KTimestamp1
	movl	$10, %edi
	movl	$15, %esi
	movl	$9, %edx
	movl	$11, %ecx
	callq	_KPhi2To1
	callq	_KPopCDep
	cmpb	$0, %bl
	je	.LBB1_14
# BB#5:                                 # %while.body
                                        #   in Loop: Header=BB1_3 Depth=1
.Ltmp53:
	#DEBUG_VALUE: find_section_start:n <- EBX
	#DEBUG_VALUE: find_section_start:n <- [RBP+-52]
	#DEBUG_VALUE: find_section_start:i <- 0
	movl	$10, %edi
	callq	_KPushCDep
	movl	$3, %esi
	movl	$1, %edx
	movq	%r14, %rdi
	callq	_KLoad0
	movl	$5, %edi
	callq	_KWork
	.loc	3 66 9 is_stmt 1        # /home/patmos/github/bachelor_project_HLS/candidates/MachSuite/common/support.c:66:9
.Ltmp54:
	movzbl	(%r14), %ebx
	movl	$17, %edi
	movl	$10, %esi
	movl	$1, %edx
	movl	$3, %ecx
	movl	$1, %r8d
	callq	_KTimestamp2
	callq	_KPopCDep
	cmpl	$37, %ebx
	jne	.LBB1_6
# BB#7:                                 # %land.lhs.true8
                                        #   in Loop: Header=BB1_3 Depth=1
	#DEBUG_VALUE: find_section_start:n <- [RBP+-52]
	#DEBUG_VALUE: find_section_start:i <- 0
	movl	$17, %edi
	callq	_KPushCDep
	movl	$5, %edi
	callq	_KWork
	.loc	3 66 22 is_stmt 0 discriminator 1 # /home/patmos/github/bachelor_project_HLS/candidates/MachSuite/common/support.c:66:22
	leaq	1(%r14), %rdi
	movl	$4, %esi
	movl	$1, %edx
	movq	%rdi, %r12
	callq	_KLoad0
.Ltmp55:
	.loc	3 66 9                  # /home/patmos/github/bachelor_project_HLS/candidates/MachSuite/common/support.c:66:9
	movzbl	1(%r14), %ebx
	movl	$1, (%rsp)
	movl	$18, %edi
	movl	$10, %esi
	movl	$2, %edx
	movl	$3, %ecx
	movl	$2, %r8d
	movl	$4, %r9d
	callq	_KTimestamp3
	callq	_KPopCDep
	cmpl	$37, %ebx
	jne	.LBB1_8
# BB#9:                                 # %land.lhs.true13
                                        #   in Loop: Header=BB1_3 Depth=1
	#DEBUG_VALUE: find_section_start:n <- [RBP+-52]
	#DEBUG_VALUE: find_section_start:i <- 0
	movl	$18, %edi
	callq	_KPushCDep
	movl	$5, %edi
	callq	_KWork
	.loc	3 66 35 discriminator 2 # /home/patmos/github/bachelor_project_HLS/candidates/MachSuite/common/support.c:66:35
.Ltmp56:
	leaq	2(%r14), %rdi
	movl	$5, %esi
	movl	$1, %edx
	callq	_KLoad0
.Ltmp57:
	.loc	3 66 9                  # /home/patmos/github/bachelor_project_HLS/candidates/MachSuite/common/support.c:66:9
	movzbl	2(%r14), %ebx
	movl	$1, 16(%rsp)
	movl	$5, 8(%rsp)
	movl	$2, (%rsp)
	movl	$19, %edi
	movl	$10, %esi
	movl	$3, %edx
	movl	$3, %ecx
	movl	$3, %r8d
	movl	$4, %r9d
	callq	_KTimestamp4
	callq	_KPopCDep
	cmpl	$10, %ebx
	jne	.LBB1_10
# BB#11:                                # %if.then18
                                        #   in Loop: Header=BB1_3 Depth=1
	#DEBUG_VALUE: find_section_start:n <- [RBP+-52]
	#DEBUG_VALUE: find_section_start:i <- 0
	movl	$19, -44(%rbp)          # 4-byte Folded Spill
	movl	$19, %edi
	callq	_KPushCDep
	movl	$1, %edi
	callq	_KWork
	.loc	3 67 7 is_stmt 1        # /home/patmos/github/bachelor_project_HLS/candidates/MachSuite/common/support.c:67:7
.Ltmp58:
	incl	-48(%rbp)               # 4-byte Folded Spill
.Ltmp59:
	#DEBUG_VALUE: find_section_start:i <- [RBP+-48]
	movl	$2, 32(%rsp)
	movl	$5, 24(%rsp)
	movl	$3, 16(%rsp)
	movl	$4, 8(%rsp)
	movl	$4, (%rsp)
	movl	$16, %r15d
	movl	$16, %edi
	movl	$7, %esi
	movl	$1, %edx
	movl	$10, %ecx
	movl	$4, %r8d
	movl	$3, %r9d
	callq	_KTimestamp5
	callq	_KPopCDep
	movq	%r12, %r14
	movl	$18, %ebx
	jmp	.LBB1_12
.Ltmp60:
	.align	16, 0x90
.LBB1_6:                                # %while.body.if.end19_crit_edge
                                        #   in Loop: Header=BB1_3 Depth=1
	#DEBUG_VALUE: find_section_start:n <- [RBP+-52]
	#DEBUG_VALUE: find_section_start:i <- 0
	.loc	3 69 5                  # /home/patmos/github/bachelor_project_HLS/candidates/MachSuite/common/support.c:69:5
	incq	%r14
	movl	$7, %r15d
	movl	$0, -44(%rbp)           # 4-byte Folded Spill
	xorl	%ebx, %ebx
	jmp	.LBB1_12
.Ltmp61:
	.align	16, 0x90
.LBB1_8:                                #   in Loop: Header=BB1_3 Depth=1
	#DEBUG_VALUE: find_section_start:n <- [RBP+-52]
	#DEBUG_VALUE: find_section_start:i <- 0
	movq	%r12, %r14
	movl	$18, %ebx
	movl	$0, -44(%rbp)           # 4-byte Folded Spill
	movl	$7, %r15d
	jmp	.LBB1_12
.LBB1_10:                               #   in Loop: Header=BB1_3 Depth=1
	#DEBUG_VALUE: find_section_start:n <- [RBP+-52]
	#DEBUG_VALUE: find_section_start:i <- 0
	movq	%r12, %r14
	movl	$18, %ebx
	movl	$19, -44(%rbp)          # 4-byte Folded Spill
	movl	$7, %r15d
	jmp	.LBB1_12
.LBB1_13:                               # %land.end.pre_exit.while.end.critedge
	#DEBUG_VALUE: find_section_start:i <- 0
	movl	$9, %edi
	callq	_KPushCDep
	movl	$10, %edi
	movl	$10, %esi
	xorl	%edx, %edx
	callq	_KTimestamp1
	movl	$10, %edi
	xorl	%esi, %esi
	movl	$9, %edx
	movl	$11, %ecx
	callq	_KPhi2To1
	callq	_KPopCDep
.LBB1_14:                               # %land.end.pre_exit.while.end
	#DEBUG_VALUE: find_section_start:i <- 0
	movl	$2, %esi
	movabsq	$-6044022837850797472, %rdi # imm = 0xAC1F5140678E0A60
	callq	_KExitRegion
	movl	$1, %esi
	movabsq	$-479564457144668431, %rdi # imm = 0xF9583EAAC4FD2EF1
	callq	_KExitRegion
	movl	$9, %edi
	callq	_KPushCDep
	movl	$6, %esi
	movl	$1, %edx
	movq	%r14, %rdi
	callq	_KLoad0
	movl	$5, %edi
	callq	_KWork
	.loc	3 71 6                  # /home/patmos/github/bachelor_project_HLS/candidates/MachSuite/common/support.c:71:6
.Ltmp62:
	movb	(%r14), %bl
	movl	$22, %r12d
	movl	$22, %edi
	movl	$1, %esi
	movl	$3, %edx
	movl	$6, %ecx
	movl	$1, %r8d
	callq	_KTimestamp2
	callq	_KPopCDep
	movl	$22, %edi
	callq	_KPushCDep
	cmpb	$0, %bl
.Ltmp63:
	.loc	3 71 6 is_stmt 0        # /home/patmos/github/bachelor_project_HLS/candidates/MachSuite/common/support.c:71:6
	je	.LBB1_16
# BB#15:                                # %if.then23
	#DEBUG_VALUE: find_section_start:i <- 0
	.loc	3 72 12 is_stmt 1       # /home/patmos/github/bachelor_project_HLS/candidates/MachSuite/common/support.c:72:12
.Ltmp64:
	addq	$2, %r14
	movl	$1, (%rsp)
	movl	$21, %r15d
	movl	$21, %edi
	movl	$1, %esi
	movl	$3, %edx
	movl	$12, %ecx
	xorl	%r8d, %r8d
	movl	$6, %r9d
	callq	_KTimestamp3
	callq	_KPopCDep
	jmp	.LBB1_17
.Ltmp65:
.LBB1_16:                               # %if.end24
	#DEBUG_VALUE: find_section_start:i <- 0
	callq	_KPopCDep
	movl	$12, %r15d
.LBB1_17:                               # %return
	#DEBUG_VALUE: find_section_start:i <- 0
	movl	$23, %edi
	callq	_KPushCDep
	movl	$20, %edi
	movl	$9, %edx
	movl	$23, %r8d
	movl	%r15d, %esi
	movl	%r12d, %ecx
	callq	_KPhi3To1
	callq	_KPopCDep
	xorl	%esi, %esi
	movabsq	$4224449335153044892, %rdi # imm = 0x3AA04249C96EAD9C
	callq	_KExitRegion
	.loc	3 74 1                  # /home/patmos/github/bachelor_project_HLS/candidates/MachSuite/common/support.c:74:1
	movq	%r14, %rax
	addq	$56, %rsp
	popq	%rbx
	popq	%r12
	popq	%r13
	popq	%r14
	popq	%r15
	popq	%rbp
	retq
.LBB1_18:                               # %cond.false
	#DEBUG_VALUE: find_section_start:i <- 0
	movabsq	$6114368907523028353, %rdi # imm = 0x54DA9A20469A7581
	xorl	%esi, %esi
	callq	_KPrepCall
	callq	_KEnqArgConst
	xorl	%esi, %esi
	movabsq	$4224449335153044892, %rdi # imm = 0x3AA04249C96EAD9C
	callq	_KExitRegion
	.loc	3 59 3 discriminator 4  # /home/patmos/github/bachelor_project_HLS/candidates/MachSuite/common/support.c:59:3
.Ltmp66:
	movl	$.L.str10, %edi
	movl	$.L.str2, %esi
	movl	$59, %edx
	movl	$.L__PRETTY_FUNCTION__.find_section_start, %ecx
	callq	__assert_fail
.Ltmp67:
.Ltmp68:
	.size	find_section_start, .Ltmp68-find_section_start
.Lfunc_end1:
	.cfi_endproc

	.globl	parse_string
	.align	16, 0x90
	.type	parse_string,@function
parse_string:                           # @parse_string
.Lfunc_begin2:
	.loc	3 77 0                  # /home/patmos/github/bachelor_project_HLS/candidates/MachSuite/common/support.c:77:0
	.cfi_startproc
# BB#0:                                 # %entry
	pushq	%rbp
.Ltmp69:
	.cfi_def_cfa_offset 16
.Ltmp70:
	.cfi_offset %rbp, -16
	movq	%rsp, %rbp
.Ltmp71:
	.cfi_def_cfa_register %rbp
	pushq	%r15
	pushq	%r14
	pushq	%r13
	pushq	%r12
	pushq	%rbx
	subq	$88, %rsp
.Ltmp72:
	.cfi_offset %rbx, -56
.Ltmp73:
	.cfi_offset %r12, -48
.Ltmp74:
	.cfi_offset %r13, -40
.Ltmp75:
	.cfi_offset %r14, -32
.Ltmp76:
	.cfi_offset %r15, -24
	#DEBUG_VALUE: parse_string:s <- RDI
	#DEBUG_VALUE: parse_string:arr <- RSI
	#DEBUG_VALUE: parse_string:n <- EDX
.Ltmp77:
	#DEBUG_VALUE: parse_string:k <- EDX
	movl	%edx, %r12d
.Ltmp78:
	#DEBUG_VALUE: parse_string:k <- R12D
	#DEBUG_VALUE: parse_string:n <- R12D
	movq	%rsi, %r14
.Ltmp79:
	#DEBUG_VALUE: parse_string:arr <- R14
	movq	%rdi, %rbx
.Ltmp80:
	#DEBUG_VALUE: parse_string:s <- RBX
	movq	%rbx, -48(%rbp)         # 8-byte Spill
	movabsq	$-7207262255140644781, %r15 # imm = 0x9BFAA92A2742D853
	xorl	%esi, %esi
	movq	%r15, %rdi
	callq	_KEnterRegion
	movl	$26, %edi
	movl	$2, %esi
	callq	_KPrepRTable
	movl	$1, %edi
	callq	_KWork
	movl	$1, %edi
	callq	_KDeqArg
	movl	$22, %edi
	movl	$14, %esi
	movl	$1, %edx
	callq	_KTimestamp1
	movl	$22, %edi
	callq	_KPushCDep
	.loc	3 79 3 prologue_end     # /home/patmos/github/bachelor_project_HLS/candidates/MachSuite/common/support.c:79:3
.Ltmp81:
	testq	%rbx, %rbx
.Ltmp82:
	#DEBUG_VALUE: parse_string:s <- [RBP+-48]
	je	.LBB2_23
.Ltmp83:
# BB#1:                                 # %cond.end
	#DEBUG_VALUE: parse_string:s <- [RBP+-48]
	#DEBUG_VALUE: parse_string:arr <- R14
	#DEBUG_VALUE: parse_string:n <- R12D
	movq	%r14, -56(%rbp)         # 8-byte Spill
.Ltmp84:
	#DEBUG_VALUE: parse_string:arr <- [RBP+-56]
	movl	$1, %r14d
	movl	$1, %edi
	callq	_KWork
	movl	$13, %edi
	movl	$14, %esi
	movl	$2, %edx
	movl	$1, %ecx
	movl	$1, %r8d
	callq	_KTimestamp2
	callq	_KPopCDep
	movl	$13, %edi
	callq	_KPushCDep
	.loc	3 81 7                  # /home/patmos/github/bachelor_project_HLS/candidates/MachSuite/common/support.c:81:7
	testl	%r12d, %r12d
	js	.LBB2_2
.Ltmp85:
# BB#14:                                # %if.else
	#DEBUG_VALUE: parse_string:s <- [RBP+-48]
	#DEBUG_VALUE: parse_string:arr <- [RBP+-56]
	#DEBUG_VALUE: parse_string:n <- R12D
	movl	$1, %edi
	movl	$1, %esi
	xorl	%edx, %edx
	callq	_KTimestamp1
	callq	_KPopCDep
	movl	%r12d, %r13d
	jmp	.LBB2_20
.Ltmp86:
.LBB2_2:                                # %if.then
	#DEBUG_VALUE: parse_string:s <- [RBP+-48]
	#DEBUG_VALUE: parse_string:arr <- [RBP+-56]
	#DEBUG_VALUE: parse_string:n <- R12D
	movl	%r12d, -60(%rbp)        # 4-byte Spill
.Ltmp87:
	#DEBUG_VALUE: parse_string:n <- [RBP+-60]
	movabsq	$8557801256059988748, %rbx # imm = 0x76C36AE6B5D8EB0C
.Ltmp88:
	#DEBUG_VALUE: parse_string:k <- 0
	movl	$10, %edi
	callq	_KInduction
	callq	_KPopCDep
	movl	$1, %esi
	movq	%rbx, %rdi
	callq	_KEnterRegion
	xorl	%r13d, %r13d
	movabsq	$-1469707889508463909, %r12 # imm = 0xEB9A8C761A424ADB
	movq	-48(%rbp), %r15         # 8-byte Reload
.Ltmp89:
	#DEBUG_VALUE: parse_string:s <- R15
	jmp	.LBB2_3
.Ltmp90:
	.align	16, 0x90
.LBB2_13:                               # %while.body
                                        #   in Loop: Header=BB2_3 Depth=1
	#DEBUG_VALUE: parse_string:s <- R15
	#DEBUG_VALUE: parse_string:arr <- [RBP+-56]
	#DEBUG_VALUE: parse_string:n <- [RBP+-60]
	.loc	3 83 5                  # /home/patmos/github/bachelor_project_HLS/candidates/MachSuite/common/support.c:83:5
	incq	%r13
	movl	$24, %edi
	callq	_KPushCDep
	callq	_KPopCDep
	movl	$2, %esi
	movq	%r12, %rdi
	callq	_KExitRegion
.Ltmp91:
.LBB2_3:                                # %while.cond
                                        # =>This Inner Loop Header: Depth=1
	#DEBUG_VALUE: parse_string:s <- R15
	#DEBUG_VALUE: parse_string:arr <- [RBP+-56]
	#DEBUG_VALUE: parse_string:n <- [RBP+-60]
	movl	$13, %edi
	callq	_KPushCDep
	movl	$5, %edi
	callq	_KWork
	leaq	(%r15,%r13), %r14
	movl	$2, %esi
	movl	$1, %edx
	movq	%r14, %rdi
	callq	_KLoad0
	.loc	3 83 12 is_stmt 0       # /home/patmos/github/bachelor_project_HLS/candidates/MachSuite/common/support.c:83:12
	movb	(%r15,%r13), %bl
	movl	$20, %edi
	movl	$13, %esi
	xorl	%edx, %edx
	movl	$10, %ecx
	xorl	%r8d, %r8d
	callq	_KTimestamp2
	movl	$15, %edi
	movl	$13, %esi
	movl	$1, %edx
	movl	$2, %ecx
	movl	$1, %r8d
	callq	_KTimestamp2
	callq	_KPopCDep
	cmpb	$0, %bl
	je	.LBB2_15
.Ltmp92:
# BB#4:                                 # %land.lhs.true4
                                        #   in Loop: Header=BB2_3 Depth=1
	#DEBUG_VALUE: parse_string:s <- R15
	#DEBUG_VALUE: parse_string:arr <- [RBP+-56]
	#DEBUG_VALUE: parse_string:n <- [RBP+-60]
	movl	$2, %esi
	movq	%r12, %rdi
	callq	_KEnterRegion
	movl	$15, %edi
	callq	_KPushCDep
	movl	$5, %edi
	callq	_KWork
	leaq	1(%r15,%r13), %r12
	movl	$3, %esi
	movl	$1, %edx
	movq	%r12, %rdi
	callq	_KLoad0
	.loc	3 83 29                 # /home/patmos/github/bachelor_project_HLS/candidates/MachSuite/common/support.c:83:29
	movb	1(%r15,%r13), %bl
	movl	$23, %edi
	movl	$15, %esi
	movl	$1, %edx
	movl	$3, %ecx
	movl	$1, %r8d
	callq	_KTimestamp2
	callq	_KPopCDep
	cmpb	$0, %bl
	.loc	3 83 12                 # /home/patmos/github/bachelor_project_HLS/candidates/MachSuite/common/support.c:83:12
	je	.LBB2_16
.Ltmp93:
# BB#5:                                 # %land.lhs.true10
                                        #   in Loop: Header=BB2_3 Depth=1
	#DEBUG_VALUE: parse_string:s <- R15
	#DEBUG_VALUE: parse_string:arr <- [RBP+-56]
	#DEBUG_VALUE: parse_string:n <- [RBP+-60]
	movl	$23, %edi
	callq	_KPushCDep
	movl	$6, %edi
	callq	_KWork
	movq	%r15, %rbx
.Ltmp94:
	#DEBUG_VALUE: parse_string:s <- RBX
	leaq	2(%rbx,%r13), %r15
	movl	$4, %esi
	movl	$5, %edx
	movl	$1, %ecx
	movq	%r15, %rdi
	callq	_KLoad1
	.loc	3 83 48                 # /home/patmos/github/bachelor_project_HLS/candidates/MachSuite/common/support.c:83:48
	movb	2(%rbx,%r13), %bl
.Ltmp95:
	#DEBUG_VALUE: parse_string:s <- [RBP+-48]
	movl	$1, (%rsp)
	movl	$16, %edi
	movl	$15, %esi
	movl	$2, %edx
	movl	$3, %ecx
	movl	$2, %r8d
	movl	$4, %r9d
	callq	_KTimestamp3
	callq	_KPopCDep
	cmpb	$0, %bl
	je	.LBB2_17
# BB#6:                                 # %land.rhs
                                        #   in Loop: Header=BB2_3 Depth=1
	#DEBUG_VALUE: parse_string:s <- [RBP+-48]
	#DEBUG_VALUE: parse_string:arr <- [RBP+-56]
	#DEBUG_VALUE: parse_string:n <- [RBP+-60]
	movl	$16, %edi
	callq	_KPushCDep
	movl	$5, %edi
	callq	_KWork
	movl	$6, %esi
	movl	$1, %edx
	movq	%r14, %rdi
	callq	_KLoad0
	.loc	3 84 14 is_stmt 1       # /home/patmos/github/bachelor_project_HLS/candidates/MachSuite/common/support.c:84:14
	movzbl	(%r14), %ebx
	movl	$1, 16(%rsp)
	movl	$6, 8(%rsp)
	movl	$2, (%rsp)
	movl	$17, %edi
	movl	$15, %esi
	movl	$3, %edx
	movl	$3, %ecx
	movl	$3, %r8d
	movl	$4, %r9d
	callq	_KTimestamp4
	callq	_KPopCDep
	cmpl	$10, %ebx
	jne	.LBB2_11
# BB#7:                                 # %land.lhs.true22
                                        #   in Loop: Header=BB2_3 Depth=1
	#DEBUG_VALUE: parse_string:s <- [RBP+-48]
	#DEBUG_VALUE: parse_string:arr <- [RBP+-56]
	#DEBUG_VALUE: parse_string:n <- [RBP+-60]
	movl	$17, %edi
	callq	_KPushCDep
	movl	$5, %edi
	callq	_KWork
	movl	$7, %esi
	movl	$1, %edx
	movq	%r12, %rdi
	callq	_KLoad0
	movzbl	(%r12), %ebx
	movl	$1, 32(%rsp)
	movl	$7, 24(%rsp)
	movl	$2, 16(%rsp)
	movl	$6, 8(%rsp)
	movl	$3, (%rsp)
	movl	$18, %edi
	movl	$15, %esi
	movl	$4, %edx
	movl	$3, %ecx
	movl	$4, %r8d
	movl	$4, %r9d
	callq	_KTimestamp5
	callq	_KPopCDep
	cmpl	$37, %ebx
	jne	.LBB2_10
# BB#8:                                 # %land.rhs29
                                        #   in Loop: Header=BB2_3 Depth=1
	#DEBUG_VALUE: parse_string:s <- [RBP+-48]
	#DEBUG_VALUE: parse_string:arr <- [RBP+-56]
	#DEBUG_VALUE: parse_string:n <- [RBP+-60]
	movl	$18, %edi
	callq	_KPushCDep
	movl	$6, %edi
	callq	_KWork
	movl	$8, %esi
	movl	$9, %edx
	movl	$1, %ecx
	movq	%r15, %rdi
	callq	_KLoad1
	.loc	3 84 48 is_stmt 0       # /home/patmos/github/bachelor_project_HLS/candidates/MachSuite/common/support.c:84:48
	movzbl	(%r15), %r14d
	movl	$1, 48(%rsp)
	movl	$8, 40(%rsp)
	movl	$2, 32(%rsp)
	movl	$7, 24(%rsp)
	movl	$3, 16(%rsp)
	movl	$6, 8(%rsp)
	movl	$4, (%rsp)
	movl	$12, %edi
	movl	$15, %esi
	movl	$5, %edx
	movl	$3, %ecx
	movl	$5, %r8d
	movl	$4, %r9d
	callq	_KTimestamp6
	callq	_KPopCDep
	movl	$16, %edi
	callq	_KPushCDep
	movl	$11, %edi
	movl	$12, %esi
	movl	$16, %edx
	movl	$17, %ecx
	movl	$18, %r8d
	callq	_KPhi3To1
	movl	$1, %edi
	callq	_KWork
	movl	$1, 16(%rsp)
	movl	$11, 8(%rsp)
	movl	$2, (%rsp)
	movl	$24, %edi
	movl	$15, %esi
	movl	$3, %edx
	movl	$3, %ecx
	movl	$3, %r8d
	movl	$4, %r9d
	callq	_KTimestamp4
	callq	_KPopCDep
	cmpl	$37, %r14d
	movq	-48(%rbp), %r15         # 8-byte Reload
.Ltmp96:
	#DEBUG_VALUE: parse_string:s <- R15
	movabsq	$-1469707889508463909, %r12 # imm = 0xEB9A8C761A424ADB
	jne	.LBB2_13
	jmp	.LBB2_9
.Ltmp97:
	.align	16, 0x90
.LBB2_11:                               # %while.body.critedge1
                                        #   in Loop: Header=BB2_3 Depth=1
	#DEBUG_VALUE: parse_string:s <- [RBP+-48]
	#DEBUG_VALUE: parse_string:arr <- [RBP+-56]
	#DEBUG_VALUE: parse_string:n <- [RBP+-60]
	movl	$16, %edi
	callq	_KPushCDep
	movl	$11, %edi
	xorl	%esi, %esi
	movl	$16, %edx
	movl	$17, %ecx
	xorl	%r8d, %r8d
	jmp	.LBB2_12
	.align	16, 0x90
.LBB2_10:                               # %while.body.critedge
                                        #   in Loop: Header=BB2_3 Depth=1
	#DEBUG_VALUE: parse_string:s <- [RBP+-48]
	#DEBUG_VALUE: parse_string:arr <- [RBP+-56]
	#DEBUG_VALUE: parse_string:n <- [RBP+-60]
	movl	$16, %edi
	callq	_KPushCDep
	movl	$11, %edi
	xorl	%esi, %esi
	movl	$16, %edx
	movl	$17, %ecx
	movl	$18, %r8d
.LBB2_12:                               # %while.body
                                        #   in Loop: Header=BB2_3 Depth=1
	callq	_KPhi3To1
	movl	$1, %edi
	callq	_KWork
	movl	$1, 16(%rsp)
	movl	$11, 8(%rsp)
	movl	$2, (%rsp)
	movl	$24, %edi
	movl	$15, %esi
	movl	$3, %edx
	movl	$3, %ecx
	movl	$3, %r8d
	movl	$4, %r9d
	callq	_KTimestamp4
	callq	_KPopCDep
	movq	-48(%rbp), %r15         # 8-byte Reload
.Ltmp98:
	#DEBUG_VALUE: parse_string:s <- R15
	movabsq	$-1469707889508463909, %r12 # imm = 0xEB9A8C761A424ADB
	jmp	.LBB2_13
.Ltmp99:
.LBB2_15:                               # %while.cond.pre_exit.if.end.loopexit
	#DEBUG_VALUE: parse_string:s <- R15
	#DEBUG_VALUE: parse_string:arr <- [RBP+-56]
	#DEBUG_VALUE: parse_string:n <- [RBP+-60]
	movq	%r15, -48(%rbp)         # 8-byte Spill
	jmp	.LBB2_19
.Ltmp100:
.LBB2_16:                               # %land.lhs.true4.pre_exit.if.end.loopexit
	#DEBUG_VALUE: parse_string:s <- R15
	#DEBUG_VALUE: parse_string:arr <- [RBP+-56]
	#DEBUG_VALUE: parse_string:n <- [RBP+-60]
	movq	%r15, -48(%rbp)         # 8-byte Spill
.Ltmp101:
.LBB2_17:                               # %land.lhs.true10.pre_exit.if.end.loopexit
	#DEBUG_VALUE: parse_string:s <- [RBP+-48]
	#DEBUG_VALUE: parse_string:arr <- [RBP+-56]
	#DEBUG_VALUE: parse_string:n <- [RBP+-60]
	movl	$2, %esi
	movabsq	$-1469707889508463909, %rdi # imm = 0xEB9A8C761A424ADB
.LBB2_18:                               # %if.end.loopexit
	callq	_KExitRegion
.LBB2_19:                               # %if.end.loopexit
	movl	$1, %esi
	movabsq	$8557801256059988748, %rdi # imm = 0x76C36AE6B5D8EB0C
	callq	_KExitRegion
	movabsq	$-7207262255140644781, %rbx # imm = 0x9BFAA92A2742D853
	movq	%rbx, %r15
	#DEBUG_VALUE: parse_string:s <- [RBP+-48]
	#DEBUG_VALUE: parse_string:arr <- [RBP+-56]
	#DEBUG_VALUE: parse_string:n <- [RBP+-60]
	movl	$13, %edi
	callq	_KPushCDep
	movl	$19, %r14d
	movl	$19, %edi
	movl	$20, %esi
	movl	$13, %edx
	callq	_KPhi1To1
	movl	$19, %edi
	movl	$19, %esi
	xorl	%edx, %edx
	callq	_KTimestamp1
	callq	_KPopCDep
	movl	-60(%rbp), %r12d        # 4-byte Reload
.Ltmp102:
	#DEBUG_VALUE: parse_string:n <- R12D
.LBB2_20:                               # %if.end
	#DEBUG_VALUE: parse_string:s <- [RBP+-48]
	#DEBUG_VALUE: parse_string:arr <- [RBP+-56]
	#DEBUG_VALUE: parse_string:n <- R12D
	movl	$22, %edi
	callq	_KPushCDep
	movl	$21, %edi
	movl	$22, %edx
	movl	$13, %ecx
	movl	%r14d, %esi
	callq	_KPhi2To1
	movl	$1, %edi
	callq	_KWork
	.loc	3 91 19 is_stmt 1       # /home/patmos/github/bachelor_project_HLS/candidates/MachSuite/common/support.c:91:19
	movslq	%r13d, %r14
	movq	-56(%rbp), %rbx         # 8-byte Reload
.Ltmp103:
	#DEBUG_VALUE: parse_string:arr <- RBX
	.loc	3 91 3 is_stmt 0        # /home/patmos/github/bachelor_project_HLS/candidates/MachSuite/common/support.c:91:3
	movq	%rbx, %rdi
	movq	-48(%rbp), %rsi         # 8-byte Reload
	movq	%r14, %rdx
	callq	memcpy
	movl	$25, %edi
	movl	$14, %esi
	movl	$2, %edx
	movl	$1, %ecx
	movl	$1, %r8d
	callq	_KTimestamp2
	callq	_KPopCDep
	.loc	3 92 7 is_stmt 1        # /home/patmos/github/bachelor_project_HLS/candidates/MachSuite/common/support.c:92:7
	testl	%r12d, %r12d
	jns	.LBB2_22
.Ltmp104:
# BB#21:                                # %if.then40
	#DEBUG_VALUE: parse_string:arr <- RBX
	movl	$25, %edi
	callq	_KPushCDep
	movl	$1, %edi
	callq	_KWork
	.loc	3 93 5                  # /home/patmos/github/bachelor_project_HLS/candidates/MachSuite/common/support.c:93:5
.Ltmp105:
	leaq	(%rbx,%r14), %rdi
	movl	$1, %esi
	callq	_KStoreConst
	movb	$0, (%rbx,%r14)
	callq	_KPopCDep
.Ltmp106:
.LBB2_22:                               # %if.end43
	movl	$22, %edi
	callq	_KPushCDep
	callq	_KReturnConst
	callq	_KPopCDep
	xorl	%esi, %esi
	movq	%r15, %rdi
	callq	_KExitRegion
	xorl	%eax, %eax
	.loc	3 95 3                  # /home/patmos/github/bachelor_project_HLS/candidates/MachSuite/common/support.c:95:3
	addq	$88, %rsp
	popq	%rbx
	popq	%r12
	popq	%r13
	popq	%r14
	popq	%r15
	popq	%rbp
	retq
.LBB2_9:                                # %land.end.pre_exit.if.end.loopexit
.Ltmp107:
	#DEBUG_VALUE: parse_string:s <- R15
	#DEBUG_VALUE: parse_string:s <- [RBP+-48]
	#DEBUG_VALUE: parse_string:arr <- [RBP+-56]
	#DEBUG_VALUE: parse_string:n <- [RBP+-60]
	movl	$2, %esi
	movq	%r12, %rdi
	jmp	.LBB2_18
.LBB2_23:                               # %cond.false
	movabsq	$-2214210478341696293, %rdi # imm = 0xE1458B4D247ED4DB
	xorl	%esi, %esi
	callq	_KPrepCall
	callq	_KEnqArgConst
	xorl	%esi, %esi
	movq	%r15, %rdi
	callq	_KExitRegion
	.loc	3 79 3 discriminator 4  # /home/patmos/github/bachelor_project_HLS/candidates/MachSuite/common/support.c:79:3
.Ltmp108:
	movl	$.L.str12, %edi
	movl	$.L.str2, %esi
	movl	$79, %edx
	movl	$.L__PRETTY_FUNCTION__.parse_string, %ecx
	callq	__assert_fail
.Ltmp109:
.Ltmp110:
	.size	parse_string, .Ltmp110-parse_string
.Lfunc_end2:
	.cfi_endproc

	.globl	parse_uint8_t_array
	.align	16, 0x90
	.type	parse_uint8_t_array,@function
parse_uint8_t_array:                    # @parse_uint8_t_array
.Lfunc_begin3:
	.loc	3 132 0                 # /home/patmos/github/bachelor_project_HLS/candidates/MachSuite/common/support.c:132:0
	.cfi_startproc
# BB#0:                                 # %entry
	pushq	%rbp
.Ltmp111:
	.cfi_def_cfa_offset 16
.Ltmp112:
	.cfi_offset %rbp, -16
	movq	%rsp, %rbp
.Ltmp113:
	.cfi_def_cfa_register %rbp
	pushq	%r15
	pushq	%r14
	pushq	%r13
	pushq	%r12
	pushq	%rbx
	subq	$40, %rsp
.Ltmp114:
	.cfi_offset %rbx, -56
.Ltmp115:
	.cfi_offset %r12, -48
.Ltmp116:
	.cfi_offset %r13, -40
.Ltmp117:
	.cfi_offset %r14, -32
.Ltmp118:
	.cfi_offset %r15, -24
	#DEBUG_VALUE: parse_uint8_t_array:s <- RDI
	#DEBUG_VALUE: parse_uint8_t_array:arr <- RSI
	#DEBUG_VALUE: parse_uint8_t_array:n <- EDX
	movl	%edx, %r14d
.Ltmp119:
	#DEBUG_VALUE: parse_uint8_t_array:n <- R14D
	movq	%rsi, -64(%rbp)         # 8-byte Spill
.Ltmp120:
	#DEBUG_VALUE: parse_uint8_t_array:arr <- [RBP+-64]
	movq	%rdi, %rbx
.Ltmp121:
	#DEBUG_VALUE: parse_uint8_t_array:s <- RBX
	movabsq	$-378846780643633660, %rdi # imm = 0xFABE10DC376F9604
	xorl	%esi, %esi
	callq	_KEnterRegion
	movl	$21, %edi
	movl	$2, %esi
	callq	_KPrepRTable
	movl	$1, %edi
	callq	_KDeqArg
	movl	$1, %edi
	callq	_KWork
.Ltmp122:
	#DEBUG_VALUE: parse_uint8_t_array:i <- 0
	movl	$14, %edi
	movl	$15, %esi
	movl	$1, %edx
	callq	_KTimestamp1
	movl	$14, %edi
	callq	_KPushCDep
	.loc	3 132 1 prologue_end    # /home/patmos/github/bachelor_project_HLS/candidates/MachSuite/common/support.c:132:1
.Ltmp123:
	testq	%rbx, %rbx
	je	.LBB3_11
.Ltmp124:
# BB#1:                                 # %cond.end
	#DEBUG_VALUE: parse_uint8_t_array:s <- RBX
	#DEBUG_VALUE: parse_uint8_t_array:arr <- [RBP+-64]
	#DEBUG_VALUE: parse_uint8_t_array:n <- R14D
	#DEBUG_VALUE: parse_uint8_t_array:i <- 0
	movabsq	$-3376504607342801414, %r15 # imm = 0xD1243EF2F8DCCDFA
	movabsq	$182792196381331433, %rdi # imm = 0x2896888BD05CFE9
	xorl	%esi, %esi
	callq	_KPrepCall
	.loc	3 132 1 is_stmt 0 discriminator 6 # /home/patmos/github/bachelor_project_HLS/candidates/MachSuite/common/support.c:132:1
.Ltmp125:
	movl	$.L.str13, %esi
	movq	%rbx, %rdi
	callq	strtok
	movq	%rax, %r12
.Ltmp126:
	#DEBUG_VALUE: parse_uint8_t_array:line <- R12
	movslq	%r14d, %rax
	movq	%rax, -56(%rbp)         # 8-byte Spill
	movl	$18, %edi
	movl	$15, %esi
	movl	$1, %edx
	movl	$1, %ecx
	xorl	%r8d, %r8d
	callq	_KTimestamp2
	movl	$12, %ebx
.Ltmp127:
	movl	$12, %edi
	movl	$12, %esi
	xorl	%edx, %edx
	callq	_KTimestamp1
	movl	$11, %edi
	callq	_KInduction
	callq	_KPopCDep
	movl	$1, %esi
	movq	%r15, %rdi
	callq	_KEnterRegion
	movabsq	$777562392579515007, %r14 # imm = 0xACA74E05867A27F
.Ltmp128:
	xorl	%r15d, %r15d
	xorl	%r13d, %r13d
	jmp	.LBB3_2
.Ltmp129:
	.align	16, 0x90
.LBB3_6:                                # %if.end
                                        #   in Loop: Header=BB3_2 Depth=1
	#DEBUG_VALUE: parse_uint8_t_array:arr <- [RBP+-64]
	#DEBUG_VALUE: parse_uint8_t_array:i <- 0
	#DEBUG_VALUE: parse_uint8_t_array:endptr <- R12
	#DEBUG_VALUE: parse_uint8_t_array:endptr <- [RBP+-72]
	#DEBUG_VALUE: parse_uint8_t_array:v <- R14B
	movl	$8, %r13d
	movl	$8, %edi
	callq	_KPushCDep
	movl	$2, %edi
	callq	_KWork
	movq	-64(%rbp), %rbx         # 8-byte Reload
.Ltmp130:
	#DEBUG_VALUE: parse_uint8_t_array:arr <- RBX
	leaq	(%rbx,%r15), %rsi
	movl	$7, %edi
	movl	$1, %edx
	callq	_KStore
	.loc	3 132 1 discriminator 14 # /home/patmos/github/bachelor_project_HLS/candidates/MachSuite/common/support.c:132:1
.Ltmp131:
	movb	%r14b, (%rbx,%r15)
.Ltmp132:
	#DEBUG_VALUE: parse_uint8_t_array:arr <- [RBP+-64]
	.loc	3 132 1                 # /home/patmos/github/bachelor_project_HLS/candidates/MachSuite/common/support.c:132:1
	incq	%r15
	xorl	%esi, %esi
	movabsq	$-6538288620865373517, %rdi # imm = 0xA543552402573AB3
	callq	_KPrepCall
	movl	$9, %edi
	callq	_KLinkReturn
	.loc	3 132 1 discriminator 14 # /home/patmos/github/bachelor_project_HLS/candidates/MachSuite/common/support.c:132:1
.Ltmp133:
	movq	%r12, %rdi
	callq	strlen
	movq	%rax, %rbx
	leaq	(%r12,%rbx), %rdi
	movl	$1, %esi
	callq	_KStoreConst
	movb	$10, (%r12,%rbx)
	xorl	%esi, %esi
	movabsq	$-5870163396193855275, %rdi # imm = 0xAE88FD7E1C5D58D5
	callq	_KPrepCall
	xorl	%edi, %edi
.Ltmp134:
	.loc	3 132 1 discriminator 6 # /home/patmos/github/bachelor_project_HLS/candidates/MachSuite/common/support.c:132:1
	movl	$.L.str13, %esi
.Ltmp135:
	.loc	3 132 1 discriminator 14 # /home/patmos/github/bachelor_project_HLS/candidates/MachSuite/common/support.c:132:1
	callq	strtok
	movq	%rax, %r12
.Ltmp136:
	#DEBUG_VALUE: parse_uint8_t_array:line <- R12
	movl	$13, %ebx
	movl	$13, %edi
	movl	$13, %esi
	xorl	%edx, %edx
	callq	_KTimestamp1
	callq	_KPopCDep
	movl	$2, %esi
	movabsq	$777562392579515007, %r14 # imm = 0xACA74E05867A27F
.Ltmp137:
	movq	%r14, %rdi
	callq	_KExitRegion
.Ltmp138:
.LBB3_2:                                # %while.cond
                                        # =>This Inner Loop Header: Depth=1
	#DEBUG_VALUE: parse_uint8_t_array:arr <- [RBP+-64]
	#DEBUG_VALUE: parse_uint8_t_array:i <- 0
	#DEBUG_VALUE: parse_uint8_t_array:endptr <- R12
	movl	$2, %esi
	movq	%r14, %rdi
	callq	_KEnterRegion
	movl	$14, %edi
	callq	_KPushCDep
	movl	$2, %edi
	movl	$14, %edx
	movl	%ebx, %esi
	movl	%r13d, %ecx
	callq	_KPhi2To1
	movl	$1, %edi
	callq	_KWork
	movl	$2, %edi
	movl	$2, %esi
	xorl	%edx, %edx
	callq	_KTimestamp1
	movl	$16, %edi
	movl	$14, %esi
	movl	$1, %edx
	movl	$2, %ecx
	movl	$1, %r8d
	callq	_KTimestamp2
	movl	$11, %edi
	movl	$11, %esi
	xorl	%edx, %edx
	callq	_KTimestamp1
	callq	_KPopCDep
	.loc	3 132 1 discriminator 15 # /home/patmos/github/bachelor_project_HLS/candidates/MachSuite/common/support.c:132:1
.Ltmp139:
	testq	%r12, %r12
	je	.LBB3_7
.Ltmp140:
# BB#3:                                 # %land.rhs
                                        #   in Loop: Header=BB3_2 Depth=1
	#DEBUG_VALUE: parse_uint8_t_array:arr <- [RBP+-64]
	#DEBUG_VALUE: parse_uint8_t_array:i <- 0
	#DEBUG_VALUE: parse_uint8_t_array:endptr <- R12
	movl	$16, %edi
	callq	_KPushCDep
	movl	$1, %edi
	callq	_KWork
	movl	$1, (%rsp)
	movl	$17, %edi
	movl	$18, %esi
	movl	$1, %edx
	movl	$11, %ecx
	movl	$1, %r8d
	movl	$16, %r9d
	callq	_KTimestamp3
	callq	_KPopCDep
	movl	$14, %edi
	callq	_KPushCDep
	movl	$8, %edi
	movl	$8, %esi
	xorl	%edx, %edx
	callq	_KTimestamp1
	movl	$8, %edi
	movl	$17, %esi
	movl	$14, %edx
	movl	$16, %ecx
	callq	_KPhi2To1
	callq	_KPopCDep
	movb	$1, %bl
	.loc	3 132 1 discriminator 9 # /home/patmos/github/bachelor_project_HLS/candidates/MachSuite/common/support.c:132:1
	cmpq	-56(%rbp), %r15         # 8-byte Folded Reload
	jge	.LBB3_8
.Ltmp141:
# BB#4:                                 # %while.body
                                        #   in Loop: Header=BB3_2 Depth=1
	#DEBUG_VALUE: parse_uint8_t_array:arr <- [RBP+-64]
	#DEBUG_VALUE: parse_uint8_t_array:i <- 0
	#DEBUG_VALUE: parse_uint8_t_array:endptr <- R12
	movl	$8, %edi
	callq	_KPushCDep
	movl	$10, %edi
	callq	_KWork
.Ltmp142:
	#DEBUG_VALUE: parse_uint8_t_array:endptr <- [RBP+-72]
	movl	$2, %edi
	movl	$8, %edx
	leaq	-48(%rbp), %rbx
.Ltmp143:
	#DEBUG_VALUE: parse_uint8_t_array:endptr <- [RBX+0]
	movq	%rbx, %rsi
	callq	_KStore
	.loc	3 132 1 discriminator 10 # /home/patmos/github/bachelor_project_HLS/candidates/MachSuite/common/support.c:132:1
.Ltmp144:
	movq	%r12, -48(%rbp)
	xorl	%esi, %esi
	movabsq	$-4091860483489640859, %rdi # imm = 0xC736CA91E3244E65
	callq	_KPrepCall
	callq	_KEnqArgConst
	movl	$3, %edi
	callq	_KLinkReturn
	movl	$10, %edx
	movq	%r12, %rdi
	movq	%rbx, %rsi
	callq	strtol
	movq	%rax, %r14
	movl	$4, %esi
	movl	$8, %edx
	movq	%rbx, %rdi
.Ltmp145:
	#DEBUG_VALUE: parse_uint8_t_array:endptr <- [RBP+-72]
	callq	_KLoad0
	.loc	3 132 1                 # /home/patmos/github/bachelor_project_HLS/candidates/MachSuite/common/support.c:132:1
.Ltmp146:
	movq	-48(%rbp), %rbx
	movl	$5, %esi
	movl	$1, %edx
	movq	%rbx, %rdi
	callq	_KLoad0
	movb	(%rbx), %bl
	movl	$7, %edi
	movl	$8, %esi
	xorl	%edx, %edx
	movl	$3, %ecx
	xorl	%r8d, %r8d
	callq	_KTimestamp2
	callq	_KPopCDep
	movl	$19, %edi
	movl	$8, %esi
	movl	$1, %edx
	movl	$5, %ecx
	movl	$1, %r8d
	callq	_KTimestamp2
	cmpb	$0, %bl
.Ltmp147:
	#DEBUG_VALUE: parse_uint8_t_array:v <- R14B
	je	.LBB3_6
.Ltmp148:
# BB#5:                                 # %if.then
                                        #   in Loop: Header=BB3_2 Depth=1
	#DEBUG_VALUE: parse_uint8_t_array:arr <- [RBP+-64]
	#DEBUG_VALUE: parse_uint8_t_array:i <- 0
	#DEBUG_VALUE: parse_uint8_t_array:endptr <- R12
	#DEBUG_VALUE: parse_uint8_t_array:endptr <- [RBP+-72]
	#DEBUG_VALUE: parse_uint8_t_array:v <- R14B
	movl	$19, %edi
	callq	_KPushCDep
	movl	$stderr, %edi
	movl	$6, %esi
	movl	$8, %edx
	callq	_KLoad0
	movl	$4, %edi
	callq	_KWork
	.loc	3 132 1 discriminator 12 # /home/patmos/github/bachelor_project_HLS/candidates/MachSuite/common/support.c:132:1
.Ltmp149:
	movq	stderr(%rip), %rdi
	movl	$.L.str14, %esi
	xorl	%eax, %eax
	movl	%r15d, %edx
	callq	fprintf
	callq	_KPopCDep
	jmp	.LBB3_6
.Ltmp150:
.LBB3_7:                                # %land.end.pre_exit.while.end.critedge
	#DEBUG_VALUE: parse_uint8_t_array:i <- 0
	movl	$14, %edi
	callq	_KPushCDep
	xorl	%ebx, %ebx
	movl	$8, %edi
	movl	$8, %esi
	xorl	%edx, %edx
	callq	_KTimestamp1
	movl	$8, %edi
	xorl	%esi, %esi
	movl	$14, %edx
	movl	$16, %ecx
	callq	_KPhi2To1
	callq	_KPopCDep
	xorl	%r12d, %r12d
.LBB3_8:                                # %land.end.pre_exit.while.end
	#DEBUG_VALUE: parse_uint8_t_array:i <- 0
	movl	$2, %esi
	movq	%r14, %rdi
	callq	_KExitRegion
	movl	$1, %esi
	movabsq	$-3376504607342801414, %rdi # imm = 0xD1243EF2F8DCCDFA
	callq	_KExitRegion
	movl	$14, %edi
	callq	_KPushCDep
	movl	$1, %edi
	callq	_KWork
	callq	_KPopCDep
	movl	$20, %edi
	movl	$15, %esi
	movl	$2, %edx
	movl	$2, %ecx
	movl	$1, %r8d
	callq	_KTimestamp2
	.loc	3 132 1                 # /home/patmos/github/bachelor_project_HLS/candidates/MachSuite/common/support.c:132:1
	testb	%bl, %bl
	je	.LBB3_10
# BB#9:                                 # %if.then13
	#DEBUG_VALUE: parse_uint8_t_array:i <- 0
	movl	$20, %edi
	callq	_KPushCDep
	movabsq	$8922707282455561949, %rdi # imm = 0x7BD3D2FFB58E06DD
	xorl	%esi, %esi
	callq	_KPrepCall
	movl	$10, %edi
	callq	_KLinkReturn
	movl	$1, %edi
	callq	_KWork
	.loc	3 132 1 discriminator 16 # /home/patmos/github/bachelor_project_HLS/candidates/MachSuite/common/support.c:132:1
.Ltmp151:
	movq	%r12, %rdi
	callq	strlen
	movq	%rax, %rbx
	leaq	(%r12,%rbx), %rdi
	movl	$1, %esi
	callq	_KStoreConst
	movb	$10, (%r12,%rbx)
	callq	_KPopCDep
.Ltmp152:
.LBB3_10:                               # %if.end16
	#DEBUG_VALUE: parse_uint8_t_array:i <- 0
	movl	$14, %edi
	callq	_KPushCDep
	callq	_KReturnConst
	callq	_KPopCDep
	xorl	%esi, %esi
	movabsq	$-378846780643633660, %rdi # imm = 0xFABE10DC376F9604
	callq	_KExitRegion
	xorl	%eax, %eax
	.loc	3 132 1 discriminator 18 # /home/patmos/github/bachelor_project_HLS/candidates/MachSuite/common/support.c:132:1
.Ltmp153:
	addq	$40, %rsp
	popq	%rbx
	popq	%r12
	popq	%r13
	popq	%r14
	popq	%r15
	popq	%rbp
	retq
.Ltmp154:
.LBB3_11:                               # %cond.false
	#DEBUG_VALUE: parse_uint8_t_array:i <- 0
	movabsq	$-6332749409476289768, %rdi # imm = 0xA81D8DF6E499DB18
	xorl	%esi, %esi
	callq	_KPrepCall
	callq	_KEnqArgConst
	xorl	%esi, %esi
	movabsq	$-378846780643633660, %rdi # imm = 0xFABE10DC376F9604
	callq	_KExitRegion
	.loc	3 132 1 discriminator 4 # /home/patmos/github/bachelor_project_HLS/candidates/MachSuite/common/support.c:132:1
.Ltmp155:
	movl	$.L.str12, %edi
	movl	$.L.str2, %esi
	movl	$132, %edx
	movl	$.L__PRETTY_FUNCTION__.parse_uint8_t_array, %ecx
	callq	__assert_fail
.Ltmp156:
.Ltmp157:
	.size	parse_uint8_t_array, .Ltmp157-parse_uint8_t_array
.Lfunc_end3:
	.cfi_endproc

	.globl	parse_uint16_t_array
	.align	16, 0x90
	.type	parse_uint16_t_array,@function
parse_uint16_t_array:                   # @parse_uint16_t_array
.Lfunc_begin4:
	.loc	3 133 0 is_stmt 1       # /home/patmos/github/bachelor_project_HLS/candidates/MachSuite/common/support.c:133:0
	.cfi_startproc
# BB#0:                                 # %entry
	pushq	%rbp
.Ltmp158:
	.cfi_def_cfa_offset 16
.Ltmp159:
	.cfi_offset %rbp, -16
	movq	%rsp, %rbp
.Ltmp160:
	.cfi_def_cfa_register %rbp
	pushq	%r15
	pushq	%r14
	pushq	%r13
	pushq	%r12
	pushq	%rbx
	subq	$56, %rsp
.Ltmp161:
	.cfi_offset %rbx, -56
.Ltmp162:
	.cfi_offset %r12, -48
.Ltmp163:
	.cfi_offset %r13, -40
.Ltmp164:
	.cfi_offset %r14, -32
.Ltmp165:
	.cfi_offset %r15, -24
	#DEBUG_VALUE: parse_uint16_t_array:s <- RDI
	#DEBUG_VALUE: parse_uint16_t_array:arr <- RSI
	#DEBUG_VALUE: parse_uint16_t_array:n <- EDX
	movl	%edx, %r14d
.Ltmp166:
	#DEBUG_VALUE: parse_uint16_t_array:n <- R14D
	movq	%rsi, -64(%rbp)         # 8-byte Spill
.Ltmp167:
	#DEBUG_VALUE: parse_uint16_t_array:arr <- [RBP+-64]
	movq	%rdi, %rbx
.Ltmp168:
	#DEBUG_VALUE: parse_uint16_t_array:s <- RBX
	movabsq	$4082976042775274633, %rdi # imm = 0x38A9A514100CE489
	xorl	%esi, %esi
	callq	_KEnterRegion
	movl	$21, %edi
	movl	$2, %esi
	callq	_KPrepRTable
	movl	$1, %edi
	callq	_KDeqArg
	movl	$1, %edi
	callq	_KWork
.Ltmp169:
	#DEBUG_VALUE: parse_uint16_t_array:i <- 0
	movl	$14, %edi
	movl	$15, %esi
	movl	$1, %edx
	callq	_KTimestamp1
	movl	$14, %edi
	callq	_KPushCDep
	.loc	3 133 1 prologue_end    # /home/patmos/github/bachelor_project_HLS/candidates/MachSuite/common/support.c:133:1
.Ltmp170:
	testq	%rbx, %rbx
	je	.LBB4_11
.Ltmp171:
# BB#1:                                 # %cond.end
	#DEBUG_VALUE: parse_uint16_t_array:s <- RBX
	#DEBUG_VALUE: parse_uint16_t_array:arr <- [RBP+-64]
	#DEBUG_VALUE: parse_uint16_t_array:n <- R14D
	#DEBUG_VALUE: parse_uint16_t_array:i <- 0
	movabsq	$-2290974998350880680, %r15 # imm = 0xE034D26089FEA058
	movabsq	$-7794953850951416394, %rdi # imm = 0x93D2C2C5A17A45B6
	xorl	%esi, %esi
	callq	_KPrepCall
	.loc	3 133 1 is_stmt 0 discriminator 6 # /home/patmos/github/bachelor_project_HLS/candidates/MachSuite/common/support.c:133:1
.Ltmp172:
	movl	$.L.str13, %esi
	movq	%rbx, %rdi
	callq	strtok
	movq	%rax, %r12
.Ltmp173:
	#DEBUG_VALUE: parse_uint16_t_array:line <- R12
	movslq	%r14d, %rax
	movq	%rax, -72(%rbp)         # 8-byte Spill
	movl	$12, %r13d
	movl	$12, %edi
	movl	$12, %esi
	xorl	%edx, %edx
	callq	_KTimestamp1
	movl	$11, %edi
	callq	_KInduction
	movl	$18, %edi
	movl	$1, %esi
	xorl	%edx, %edx
	movl	$15, %ecx
	movl	$1, %r8d
	callq	_KTimestamp2
	callq	_KPopCDep
	movl	$1, %esi
	movq	%r15, %rdi
	callq	_KEnterRegion
	movabsq	$-4010637532787270464, %rbx # imm = 0xC8575A69C75D9CC0
.Ltmp174:
	xorl	%eax, %eax
	movq	%rax, -56(%rbp)         # 8-byte Spill
	xorl	%r14d, %r14d
.Ltmp175:
	jmp	.LBB4_2
.Ltmp176:
	.align	16, 0x90
.LBB4_6:                                # %if.end
                                        #   in Loop: Header=BB4_2 Depth=1
	#DEBUG_VALUE: parse_uint16_t_array:i <- 0
	#DEBUG_VALUE: parse_uint16_t_array:endptr <- R12
	#DEBUG_VALUE: parse_uint16_t_array:endptr <- [RBP+-80]
	#DEBUG_VALUE: parse_uint16_t_array:v <- R13W
	movl	$8, %r14d
	movl	$8, %edi
	callq	_KPushCDep
	movl	$2, %edi
	callq	_KWork
	movl	$7, %edi
	movl	$2, %edx
	movq	-64(%rbp), %r15         # 8-byte Reload
	movq	%r15, %rsi
	callq	_KStore
	.loc	3 133 1 discriminator 14 # /home/patmos/github/bachelor_project_HLS/candidates/MachSuite/common/support.c:133:1
.Ltmp177:
	movw	%r13w, (%r15)
.Ltmp178:
	.loc	3 133 1                 # /home/patmos/github/bachelor_project_HLS/candidates/MachSuite/common/support.c:133:1
	incq	-56(%rbp)               # 8-byte Folded Spill
	xorl	%esi, %esi
	movabsq	$2367939873963874332, %rdi # imm = 0x20DC9CC4FD19981C
	callq	_KPrepCall
	movl	$9, %edi
	callq	_KLinkReturn
	.loc	3 133 1 discriminator 14 # /home/patmos/github/bachelor_project_HLS/candidates/MachSuite/common/support.c:133:1
.Ltmp179:
	movq	%r12, %rdi
	callq	strlen
	movq	%rax, %rbx
	leaq	(%r12,%rbx), %rdi
	movl	$1, %esi
	callq	_KStoreConst
	movb	$10, (%r12,%rbx)
	xorl	%esi, %esi
	movabsq	$1540287044870994373, %rdi # imm = 0x156032E811ABF9C5
	callq	_KPrepCall
	xorl	%edi, %edi
.Ltmp180:
	.loc	3 133 1 discriminator 6 # /home/patmos/github/bachelor_project_HLS/candidates/MachSuite/common/support.c:133:1
	movl	$.L.str13, %esi
.Ltmp181:
	.loc	3 133 1 discriminator 14 # /home/patmos/github/bachelor_project_HLS/candidates/MachSuite/common/support.c:133:1
	callq	strtok
	movq	%rax, %r12
.Ltmp182:
	#DEBUG_VALUE: parse_uint16_t_array:line <- R12
	movl	$13, %r13d
.Ltmp183:
	movl	$13, %edi
	movl	$13, %esi
	xorl	%edx, %edx
	callq	_KTimestamp1
	callq	_KPopCDep
	movl	$2, %esi
	movabsq	$-4010637532787270464, %rbx # imm = 0xC8575A69C75D9CC0
	movq	%rbx, %rdi
	callq	_KExitRegion
	addq	$2, %r15
	movq	%r15, -64(%rbp)         # 8-byte Spill
.Ltmp184:
.LBB4_2:                                # %while.cond
                                        # =>This Inner Loop Header: Depth=1
	#DEBUG_VALUE: parse_uint16_t_array:i <- 0
	#DEBUG_VALUE: parse_uint16_t_array:endptr <- R12
	movl	$2, %esi
	movq	%rbx, %rdi
	callq	_KEnterRegion
	movl	$14, %edi
	callq	_KPushCDep
	movl	$2, %edi
	movl	$14, %edx
	movl	%r13d, %esi
	movl	%r14d, %ecx
	callq	_KPhi2To1
	movl	$1, %edi
	callq	_KWork
	movl	$2, %edi
	movl	$2, %esi
	xorl	%edx, %edx
	callq	_KTimestamp1
	movl	$11, %edi
	movl	$11, %esi
	xorl	%edx, %edx
	callq	_KTimestamp1
	movl	$16, %edi
	movl	$14, %esi
	movl	$1, %edx
	movl	$2, %ecx
	movl	$1, %r8d
	callq	_KTimestamp2
	callq	_KPopCDep
	.loc	3 133 1 discriminator 15 # /home/patmos/github/bachelor_project_HLS/candidates/MachSuite/common/support.c:133:1
.Ltmp185:
	testq	%r12, %r12
	je	.LBB4_7
.Ltmp186:
# BB#3:                                 # %land.rhs
                                        #   in Loop: Header=BB4_2 Depth=1
	#DEBUG_VALUE: parse_uint16_t_array:i <- 0
	#DEBUG_VALUE: parse_uint16_t_array:endptr <- R12
	movl	$16, %edi
	callq	_KPushCDep
	movl	$1, %edi
	callq	_KWork
	movl	$1, (%rsp)
	movl	$17, %edi
	movl	$18, %esi
	movl	$1, %edx
	movl	$11, %ecx
	movl	$1, %r8d
	movl	$16, %r9d
	callq	_KTimestamp3
	callq	_KPopCDep
	movl	$14, %edi
	callq	_KPushCDep
	movl	$8, %edi
	movl	$17, %esi
	movl	$14, %edx
	movl	$16, %ecx
	callq	_KPhi2To1
	movl	$8, %edi
	movl	$8, %esi
	xorl	%edx, %edx
	callq	_KTimestamp1
	callq	_KPopCDep
	movb	$1, %bl
	.loc	3 133 1 discriminator 9 # /home/patmos/github/bachelor_project_HLS/candidates/MachSuite/common/support.c:133:1
	movq	-56(%rbp), %rax         # 8-byte Reload
	cmpq	-72(%rbp), %rax         # 8-byte Folded Reload
	jge	.LBB4_8
.Ltmp187:
# BB#4:                                 # %while.body
                                        #   in Loop: Header=BB4_2 Depth=1
	#DEBUG_VALUE: parse_uint16_t_array:i <- 0
	#DEBUG_VALUE: parse_uint16_t_array:endptr <- R12
	movl	$8, %edi
	callq	_KPushCDep
.Ltmp188:
	#DEBUG_VALUE: parse_uint16_t_array:endptr <- [RBP+-80]
	movl	$2, %edi
	movl	$8, %edx
	leaq	-48(%rbp), %rbx
.Ltmp189:
	#DEBUG_VALUE: parse_uint16_t_array:endptr <- [RBX+0]
	movq	%rbx, %rsi
	callq	_KStore
	movl	$10, %edi
	callq	_KWork
	.loc	3 133 1 discriminator 10 # /home/patmos/github/bachelor_project_HLS/candidates/MachSuite/common/support.c:133:1
.Ltmp190:
	movq	%r12, -48(%rbp)
	xorl	%esi, %esi
	movabsq	$5663968647540323505, %rdi # imm = 0x4E9A7579D79734B1
	callq	_KPrepCall
	callq	_KEnqArgConst
	movl	$3, %edi
	callq	_KLinkReturn
	movl	$10, %edx
	movq	%r12, %rdi
	movq	%rbx, %rsi
	callq	strtol
	movq	%rax, %r13
	movl	$4, %esi
	movl	$8, %edx
	movq	%rbx, %rdi
.Ltmp191:
	#DEBUG_VALUE: parse_uint16_t_array:endptr <- [RBP+-80]
	callq	_KLoad0
	.loc	3 133 1                 # /home/patmos/github/bachelor_project_HLS/candidates/MachSuite/common/support.c:133:1
.Ltmp192:
	movq	-48(%rbp), %rbx
	movl	$5, %esi
	movl	$1, %edx
	movq	%rbx, %rdi
	callq	_KLoad0
	movb	(%rbx), %bl
	movl	$7, %edi
	movl	$8, %esi
	xorl	%edx, %edx
	movl	$3, %ecx
	xorl	%r8d, %r8d
	callq	_KTimestamp2
	movl	$19, %edi
	movl	$8, %esi
	movl	$1, %edx
	movl	$5, %ecx
	movl	$1, %r8d
	callq	_KTimestamp2
	callq	_KPopCDep
	cmpb	$0, %bl
.Ltmp193:
	#DEBUG_VALUE: parse_uint16_t_array:v <- R13W
	je	.LBB4_6
.Ltmp194:
# BB#5:                                 # %if.then
                                        #   in Loop: Header=BB4_2 Depth=1
	#DEBUG_VALUE: parse_uint16_t_array:i <- 0
	#DEBUG_VALUE: parse_uint16_t_array:endptr <- R12
	#DEBUG_VALUE: parse_uint16_t_array:endptr <- [RBP+-80]
	#DEBUG_VALUE: parse_uint16_t_array:v <- R13W
	movl	$19, %edi
	callq	_KPushCDep
	movl	$4, %edi
	callq	_KWork
	movl	$stderr, %edi
	movl	$6, %esi
	movl	$8, %edx
	callq	_KLoad0
	.loc	3 133 1 discriminator 12 # /home/patmos/github/bachelor_project_HLS/candidates/MachSuite/common/support.c:133:1
.Ltmp195:
	movq	stderr(%rip), %rdi
	movl	$.L.str14, %esi
	xorl	%eax, %eax
	movq	-56(%rbp), %rdx         # 8-byte Reload
                                        # kill: EDX<def> EDX<kill> RDX<kill>
	callq	fprintf
	callq	_KPopCDep
	jmp	.LBB4_6
.Ltmp196:
.LBB4_7:                                # %land.end.pre_exit.while.end.critedge
	#DEBUG_VALUE: parse_uint16_t_array:i <- 0
	movl	$14, %edi
	callq	_KPushCDep
	xorl	%ebx, %ebx
	movl	$8, %edi
	xorl	%esi, %esi
	movl	$14, %edx
	movl	$16, %ecx
	callq	_KPhi2To1
	movl	$8, %edi
	movl	$8, %esi
	xorl	%edx, %edx
	callq	_KTimestamp1
	callq	_KPopCDep
	xorl	%r12d, %r12d
.LBB4_8:                                # %land.end.pre_exit.while.end
	#DEBUG_VALUE: parse_uint16_t_array:i <- 0
	movl	$2, %esi
	movabsq	$-4010637532787270464, %rdi # imm = 0xC8575A69C75D9CC0
	callq	_KExitRegion
	movl	$1, %esi
	movabsq	$-2290974998350880680, %rdi # imm = 0xE034D26089FEA058
	callq	_KExitRegion
	movl	$14, %edi
	callq	_KPushCDep
	movl	$1, %edi
	callq	_KWork
	movl	$20, %edi
	movl	$15, %esi
	movl	$2, %edx
	movl	$2, %ecx
	movl	$1, %r8d
	callq	_KTimestamp2
	callq	_KPopCDep
	.loc	3 133 1                 # /home/patmos/github/bachelor_project_HLS/candidates/MachSuite/common/support.c:133:1
	testb	%bl, %bl
	je	.LBB4_10
# BB#9:                                 # %if.then13
	#DEBUG_VALUE: parse_uint16_t_array:i <- 0
	movl	$20, %edi
	callq	_KPushCDep
	movabsq	$-5493925935298043387, %rdi # imm = 0xB3C1A7784C412205
	xorl	%esi, %esi
	callq	_KPrepCall
	movl	$10, %edi
	callq	_KLinkReturn
	movl	$1, %edi
	callq	_KWork
	.loc	3 133 1 discriminator 16 # /home/patmos/github/bachelor_project_HLS/candidates/MachSuite/common/support.c:133:1
.Ltmp197:
	movq	%r12, %rdi
	callq	strlen
	movq	%rax, %rbx
	leaq	(%r12,%rbx), %rdi
	movl	$1, %esi
	callq	_KStoreConst
	movb	$10, (%r12,%rbx)
	callq	_KPopCDep
.Ltmp198:
.LBB4_10:                               # %if.end16
	#DEBUG_VALUE: parse_uint16_t_array:i <- 0
	movl	$14, %edi
	callq	_KPushCDep
	callq	_KReturnConst
	callq	_KPopCDep
	xorl	%esi, %esi
	movabsq	$4082976042775274633, %rdi # imm = 0x38A9A514100CE489
	callq	_KExitRegion
	xorl	%eax, %eax
	.loc	3 133 1 discriminator 18 # /home/patmos/github/bachelor_project_HLS/candidates/MachSuite/common/support.c:133:1
.Ltmp199:
	addq	$56, %rsp
	popq	%rbx
	popq	%r12
	popq	%r13
	popq	%r14
	popq	%r15
	popq	%rbp
	retq
.Ltmp200:
.LBB4_11:                               # %cond.false
	#DEBUG_VALUE: parse_uint16_t_array:i <- 0
	movabsq	$-5364988628081004758, %rdi # imm = 0xB58BBB448738AF2A
	xorl	%esi, %esi
	callq	_KPrepCall
	callq	_KEnqArgConst
	xorl	%esi, %esi
	movabsq	$4082976042775274633, %rdi # imm = 0x38A9A514100CE489
	callq	_KExitRegion
	.loc	3 133 1 discriminator 4 # /home/patmos/github/bachelor_project_HLS/candidates/MachSuite/common/support.c:133:1
.Ltmp201:
	movl	$.L.str12, %edi
	movl	$.L.str2, %esi
	movl	$133, %edx
	movl	$.L__PRETTY_FUNCTION__.parse_uint16_t_array, %ecx
	callq	__assert_fail
.Ltmp202:
.Ltmp203:
	.size	parse_uint16_t_array, .Ltmp203-parse_uint16_t_array
.Lfunc_end4:
	.cfi_endproc

	.globl	parse_uint32_t_array
	.align	16, 0x90
	.type	parse_uint32_t_array,@function
parse_uint32_t_array:                   # @parse_uint32_t_array
.Lfunc_begin5:
	.loc	3 134 0 is_stmt 1       # /home/patmos/github/bachelor_project_HLS/candidates/MachSuite/common/support.c:134:0
	.cfi_startproc
# BB#0:                                 # %entry
	pushq	%rbp
.Ltmp204:
	.cfi_def_cfa_offset 16
.Ltmp205:
	.cfi_offset %rbp, -16
	movq	%rsp, %rbp
.Ltmp206:
	.cfi_def_cfa_register %rbp
	pushq	%r15
	pushq	%r14
	pushq	%r13
	pushq	%r12
	pushq	%rbx
	subq	$56, %rsp
.Ltmp207:
	.cfi_offset %rbx, -56
.Ltmp208:
	.cfi_offset %r12, -48
.Ltmp209:
	.cfi_offset %r13, -40
.Ltmp210:
	.cfi_offset %r14, -32
.Ltmp211:
	.cfi_offset %r15, -24
	#DEBUG_VALUE: parse_uint32_t_array:s <- RDI
	#DEBUG_VALUE: parse_uint32_t_array:arr <- RSI
	#DEBUG_VALUE: parse_uint32_t_array:n <- EDX
	movl	%edx, %r14d
.Ltmp212:
	#DEBUG_VALUE: parse_uint32_t_array:n <- R14D
	movq	%rsi, -64(%rbp)         # 8-byte Spill
.Ltmp213:
	#DEBUG_VALUE: parse_uint32_t_array:arr <- [RBP+-64]
	movq	%rdi, %rbx
.Ltmp214:
	#DEBUG_VALUE: parse_uint32_t_array:s <- RBX
	movabsq	$-8187611902334989939, %rdi # imm = 0x8E5FC25ACA90098D
	xorl	%esi, %esi
	callq	_KEnterRegion
	movl	$21, %edi
	movl	$2, %esi
	callq	_KPrepRTable
	movl	$1, %edi
	callq	_KWork
	movl	$1, %edi
	callq	_KDeqArg
.Ltmp215:
	#DEBUG_VALUE: parse_uint32_t_array:i <- 0
	movl	$14, %edi
	movl	$15, %esi
	movl	$1, %edx
	callq	_KTimestamp1
	movl	$14, %edi
	callq	_KPushCDep
	.loc	3 134 1 prologue_end    # /home/patmos/github/bachelor_project_HLS/candidates/MachSuite/common/support.c:134:1
.Ltmp216:
	testq	%rbx, %rbx
	je	.LBB5_11
.Ltmp217:
# BB#1:                                 # %cond.end
	#DEBUG_VALUE: parse_uint32_t_array:s <- RBX
	#DEBUG_VALUE: parse_uint32_t_array:arr <- [RBP+-64]
	#DEBUG_VALUE: parse_uint32_t_array:n <- R14D
	#DEBUG_VALUE: parse_uint32_t_array:i <- 0
	movabsq	$-4762240836716142988, %r15 # imm = 0xBDE91F30C0ACDE74
	movabsq	$-1631206967728182257, %rdi # imm = 0xE95CC9E7C56B6C0F
	xorl	%esi, %esi
	callq	_KPrepCall
	.loc	3 134 1 is_stmt 0 discriminator 6 # /home/patmos/github/bachelor_project_HLS/candidates/MachSuite/common/support.c:134:1
.Ltmp218:
	movl	$.L.str13, %esi
	movq	%rbx, %rdi
	callq	strtok
	movq	%rax, %r12
.Ltmp219:
	#DEBUG_VALUE: parse_uint32_t_array:line <- R12
	movslq	%r14d, %rax
	movq	%rax, -72(%rbp)         # 8-byte Spill
	movl	$18, %edi
	movl	$1, %esi
	xorl	%edx, %edx
	movl	$15, %ecx
	movl	$1, %r8d
	callq	_KTimestamp2
	movl	$11, %edi
	callq	_KInduction
	movl	$12, %ebx
.Ltmp220:
	movl	$12, %edi
	movl	$12, %esi
	xorl	%edx, %edx
	callq	_KTimestamp1
	callq	_KPopCDep
	movl	$1, %esi
	movq	%r15, %rdi
	callq	_KEnterRegion
	movabsq	$5405915494116036665, %r14 # imm = 0x4B05AB8008911039
.Ltmp221:
	xorl	%eax, %eax
	movq	%rax, -56(%rbp)         # 8-byte Spill
	xorl	%r13d, %r13d
	jmp	.LBB5_2
.Ltmp222:
	.align	16, 0x90
.LBB5_6:                                # %if.end
                                        #   in Loop: Header=BB5_2 Depth=1
	#DEBUG_VALUE: parse_uint32_t_array:i <- 0
	#DEBUG_VALUE: parse_uint32_t_array:endptr <- R12
	#DEBUG_VALUE: parse_uint32_t_array:endptr <- [RBP+-80]
	#DEBUG_VALUE: parse_uint32_t_array:v <- R14D
	movl	$8, %r13d
	movl	$8, %edi
	callq	_KPushCDep
	movl	$2, %edi
	callq	_KWork
	movl	$7, %edi
	movl	$4, %edx
	movq	-64(%rbp), %r15         # 8-byte Reload
	movq	%r15, %rsi
	callq	_KStore
	.loc	3 134 1 discriminator 14 # /home/patmos/github/bachelor_project_HLS/candidates/MachSuite/common/support.c:134:1
.Ltmp223:
	movl	%r14d, (%r15)
.Ltmp224:
	.loc	3 134 1                 # /home/patmos/github/bachelor_project_HLS/candidates/MachSuite/common/support.c:134:1
	incq	-56(%rbp)               # 8-byte Folded Spill
	xorl	%esi, %esi
	movabsq	$5116310115023053216, %rdi # imm = 0x4700C8F136AFE1A0
	callq	_KPrepCall
	movl	$9, %edi
	callq	_KLinkReturn
	.loc	3 134 1 discriminator 14 # /home/patmos/github/bachelor_project_HLS/candidates/MachSuite/common/support.c:134:1
.Ltmp225:
	movq	%r12, %rdi
	callq	strlen
	movq	%rax, %rbx
	leaq	(%r12,%rbx), %rdi
	movl	$1, %esi
	callq	_KStoreConst
	movb	$10, (%r12,%rbx)
	xorl	%esi, %esi
	movabsq	$-8932605813389836322, %rdi # imm = 0x84090256F64F3FDE
	callq	_KPrepCall
	xorl	%edi, %edi
.Ltmp226:
	.loc	3 134 1 discriminator 6 # /home/patmos/github/bachelor_project_HLS/candidates/MachSuite/common/support.c:134:1
	movl	$.L.str13, %esi
.Ltmp227:
	.loc	3 134 1 discriminator 14 # /home/patmos/github/bachelor_project_HLS/candidates/MachSuite/common/support.c:134:1
	callq	strtok
	movq	%rax, %r12
.Ltmp228:
	#DEBUG_VALUE: parse_uint32_t_array:line <- R12
	movl	$13, %ebx
	movl	$13, %edi
	movl	$13, %esi
	xorl	%edx, %edx
	callq	_KTimestamp1
	callq	_KPopCDep
	movl	$2, %esi
	movabsq	$5405915494116036665, %r14 # imm = 0x4B05AB8008911039
.Ltmp229:
	movq	%r14, %rdi
	callq	_KExitRegion
	addq	$4, %r15
	movq	%r15, -64(%rbp)         # 8-byte Spill
.Ltmp230:
.LBB5_2:                                # %while.cond
                                        # =>This Inner Loop Header: Depth=1
	#DEBUG_VALUE: parse_uint32_t_array:i <- 0
	#DEBUG_VALUE: parse_uint32_t_array:endptr <- R12
	movl	$2, %esi
	movq	%r14, %rdi
	callq	_KEnterRegion
	movl	$14, %edi
	callq	_KPushCDep
	movl	$2, %edi
	movl	$14, %edx
	movl	%ebx, %esi
	movl	%r13d, %ecx
	callq	_KPhi2To1
	movl	$1, %edi
	callq	_KWork
	movl	$2, %edi
	movl	$2, %esi
	xorl	%edx, %edx
	callq	_KTimestamp1
	movl	$16, %edi
	movl	$14, %esi
	movl	$1, %edx
	movl	$2, %ecx
	movl	$1, %r8d
	callq	_KTimestamp2
	movl	$11, %edi
	movl	$11, %esi
	xorl	%edx, %edx
	callq	_KTimestamp1
	callq	_KPopCDep
	.loc	3 134 1 discriminator 15 # /home/patmos/github/bachelor_project_HLS/candidates/MachSuite/common/support.c:134:1
.Ltmp231:
	testq	%r12, %r12
	je	.LBB5_7
.Ltmp232:
# BB#3:                                 # %land.rhs
                                        #   in Loop: Header=BB5_2 Depth=1
	#DEBUG_VALUE: parse_uint32_t_array:i <- 0
	#DEBUG_VALUE: parse_uint32_t_array:endptr <- R12
	movl	$16, %edi
	callq	_KPushCDep
	movl	$1, %edi
	callq	_KWork
	movl	$1, (%rsp)
	movl	$17, %edi
	movl	$18, %esi
	movl	$1, %edx
	movl	$11, %ecx
	movl	$1, %r8d
	movl	$16, %r9d
	callq	_KTimestamp3
	callq	_KPopCDep
	movl	$14, %edi
	callq	_KPushCDep
	movl	$8, %edi
	movl	$17, %esi
	movl	$14, %edx
	movl	$16, %ecx
	callq	_KPhi2To1
	movl	$8, %edi
	movl	$8, %esi
	xorl	%edx, %edx
	callq	_KTimestamp1
	callq	_KPopCDep
	movb	$1, %bl
	.loc	3 134 1 discriminator 9 # /home/patmos/github/bachelor_project_HLS/candidates/MachSuite/common/support.c:134:1
	movq	-56(%rbp), %rax         # 8-byte Reload
	cmpq	-72(%rbp), %rax         # 8-byte Folded Reload
	jge	.LBB5_8
.Ltmp233:
# BB#4:                                 # %while.body
                                        #   in Loop: Header=BB5_2 Depth=1
	#DEBUG_VALUE: parse_uint32_t_array:i <- 0
	#DEBUG_VALUE: parse_uint32_t_array:endptr <- R12
	movl	$8, %edi
	callq	_KPushCDep
	movl	$10, %edi
	callq	_KWork
.Ltmp234:
	#DEBUG_VALUE: parse_uint32_t_array:endptr <- [RBP+-80]
	movl	$2, %edi
	movl	$8, %edx
	leaq	-48(%rbp), %rbx
.Ltmp235:
	#DEBUG_VALUE: parse_uint32_t_array:endptr <- [RBX+0]
	movq	%rbx, %rsi
	callq	_KStore
	.loc	3 134 1 discriminator 10 # /home/patmos/github/bachelor_project_HLS/candidates/MachSuite/common/support.c:134:1
.Ltmp236:
	movq	%r12, -48(%rbp)
	xorl	%esi, %esi
	movabsq	$-7009502977483656945, %rdi # imm = 0x9EB93E2E0F0B310F
	callq	_KPrepCall
	callq	_KEnqArgConst
	movl	$3, %edi
	callq	_KLinkReturn
	movl	$10, %edx
	movq	%r12, %rdi
	movq	%rbx, %rsi
	callq	strtol
	movq	%rax, %r14
	movl	$4, %esi
	movl	$8, %edx
	movq	%rbx, %rdi
.Ltmp237:
	#DEBUG_VALUE: parse_uint32_t_array:endptr <- [RBP+-80]
	callq	_KLoad0
	.loc	3 134 1                 # /home/patmos/github/bachelor_project_HLS/candidates/MachSuite/common/support.c:134:1
.Ltmp238:
	movq	-48(%rbp), %rbx
	movl	$5, %esi
	movl	$1, %edx
	movq	%rbx, %rdi
	callq	_KLoad0
	movb	(%rbx), %bl
	movl	$7, %edi
	movl	$8, %esi
	xorl	%edx, %edx
	movl	$3, %ecx
	xorl	%r8d, %r8d
	callq	_KTimestamp2
	movl	$19, %edi
	movl	$8, %esi
	movl	$1, %edx
	movl	$5, %ecx
	movl	$1, %r8d
	callq	_KTimestamp2
	callq	_KPopCDep
	cmpb	$0, %bl
.Ltmp239:
	#DEBUG_VALUE: parse_uint32_t_array:v <- R14D
	je	.LBB5_6
.Ltmp240:
# BB#5:                                 # %if.then
                                        #   in Loop: Header=BB5_2 Depth=1
	#DEBUG_VALUE: parse_uint32_t_array:i <- 0
	#DEBUG_VALUE: parse_uint32_t_array:endptr <- R12
	#DEBUG_VALUE: parse_uint32_t_array:endptr <- [RBP+-80]
	#DEBUG_VALUE: parse_uint32_t_array:v <- R14D
	movl	$19, %edi
	callq	_KPushCDep
	movl	$4, %edi
	callq	_KWork
	movl	$stderr, %edi
	movl	$6, %esi
	movl	$8, %edx
	callq	_KLoad0
	.loc	3 134 1 discriminator 12 # /home/patmos/github/bachelor_project_HLS/candidates/MachSuite/common/support.c:134:1
.Ltmp241:
	movq	stderr(%rip), %rdi
	movl	$.L.str14, %esi
	xorl	%eax, %eax
	movq	-56(%rbp), %rdx         # 8-byte Reload
                                        # kill: EDX<def> EDX<kill> RDX<kill>
	callq	fprintf
	callq	_KPopCDep
	jmp	.LBB5_6
.Ltmp242:
.LBB5_7:                                # %land.end.pre_exit.while.end.critedge
	#DEBUG_VALUE: parse_uint32_t_array:i <- 0
	movl	$14, %edi
	callq	_KPushCDep
	xorl	%ebx, %ebx
	movl	$8, %edi
	xorl	%esi, %esi
	movl	$14, %edx
	movl	$16, %ecx
	callq	_KPhi2To1
	movl	$8, %edi
	movl	$8, %esi
	xorl	%edx, %edx
	callq	_KTimestamp1
	callq	_KPopCDep
	xorl	%r12d, %r12d
.LBB5_8:                                # %land.end.pre_exit.while.end
	#DEBUG_VALUE: parse_uint32_t_array:i <- 0
	movl	$2, %esi
	movq	%r14, %rdi
	callq	_KExitRegion
	movl	$1, %esi
	movabsq	$-4762240836716142988, %rdi # imm = 0xBDE91F30C0ACDE74
	callq	_KExitRegion
	movl	$14, %edi
	callq	_KPushCDep
	movl	$1, %edi
	callq	_KWork
	movl	$20, %edi
	movl	$15, %esi
	movl	$2, %edx
	movl	$2, %ecx
	movl	$1, %r8d
	callq	_KTimestamp2
	callq	_KPopCDep
	.loc	3 134 1                 # /home/patmos/github/bachelor_project_HLS/candidates/MachSuite/common/support.c:134:1
	testb	%bl, %bl
	je	.LBB5_10
# BB#9:                                 # %if.then13
	#DEBUG_VALUE: parse_uint32_t_array:i <- 0
	movl	$20, %edi
	callq	_KPushCDep
	movabsq	$-3562636282571779503, %rdi # imm = 0xCE8EF92D39641251
	xorl	%esi, %esi
	callq	_KPrepCall
	movl	$10, %edi
	callq	_KLinkReturn
	movl	$1, %edi
	callq	_KWork
	.loc	3 134 1 discriminator 16 # /home/patmos/github/bachelor_project_HLS/candidates/MachSuite/common/support.c:134:1
.Ltmp243:
	movq	%r12, %rdi
	callq	strlen
	movq	%rax, %rbx
	leaq	(%r12,%rbx), %rdi
	movl	$1, %esi
	callq	_KStoreConst
	movb	$10, (%r12,%rbx)
	callq	_KPopCDep
.Ltmp244:
.LBB5_10:                               # %if.end16
	#DEBUG_VALUE: parse_uint32_t_array:i <- 0
	movl	$14, %edi
	callq	_KPushCDep
	callq	_KReturnConst
	callq	_KPopCDep
	xorl	%esi, %esi
	movabsq	$-8187611902334989939, %rdi # imm = 0x8E5FC25ACA90098D
	callq	_KExitRegion
	xorl	%eax, %eax
	.loc	3 134 1 discriminator 18 # /home/patmos/github/bachelor_project_HLS/candidates/MachSuite/common/support.c:134:1
.Ltmp245:
	addq	$56, %rsp
	popq	%rbx
	popq	%r12
	popq	%r13
	popq	%r14
	popq	%r15
	popq	%rbp
	retq
.Ltmp246:
.LBB5_11:                               # %cond.false
	#DEBUG_VALUE: parse_uint32_t_array:i <- 0
	movabsq	$-2107932605219195618, %rdi # imm = 0xE2BF1E76BF72351E
	xorl	%esi, %esi
	callq	_KPrepCall
	callq	_KEnqArgConst
	xorl	%esi, %esi
	movabsq	$-8187611902334989939, %rdi # imm = 0x8E5FC25ACA90098D
	callq	_KExitRegion
	.loc	3 134 1 discriminator 4 # /home/patmos/github/bachelor_project_HLS/candidates/MachSuite/common/support.c:134:1
.Ltmp247:
	movl	$.L.str12, %edi
	movl	$.L.str2, %esi
	movl	$134, %edx
	movl	$.L__PRETTY_FUNCTION__.parse_uint32_t_array, %ecx
	callq	__assert_fail
.Ltmp248:
.Ltmp249:
	.size	parse_uint32_t_array, .Ltmp249-parse_uint32_t_array
.Lfunc_end5:
	.cfi_endproc

	.globl	parse_uint64_t_array
	.align	16, 0x90
	.type	parse_uint64_t_array,@function
parse_uint64_t_array:                   # @parse_uint64_t_array
.Lfunc_begin6:
	.loc	3 135 0 is_stmt 1       # /home/patmos/github/bachelor_project_HLS/candidates/MachSuite/common/support.c:135:0
	.cfi_startproc
# BB#0:                                 # %entry
	pushq	%rbp
.Ltmp250:
	.cfi_def_cfa_offset 16
.Ltmp251:
	.cfi_offset %rbp, -16
	movq	%rsp, %rbp
.Ltmp252:
	.cfi_def_cfa_register %rbp
	pushq	%r15
	pushq	%r14
	pushq	%r13
	pushq	%r12
	pushq	%rbx
	subq	$56, %rsp
.Ltmp253:
	.cfi_offset %rbx, -56
.Ltmp254:
	.cfi_offset %r12, -48
.Ltmp255:
	.cfi_offset %r13, -40
.Ltmp256:
	.cfi_offset %r14, -32
.Ltmp257:
	.cfi_offset %r15, -24
	#DEBUG_VALUE: parse_uint64_t_array:s <- RDI
	#DEBUG_VALUE: parse_uint64_t_array:arr <- RSI
	#DEBUG_VALUE: parse_uint64_t_array:n <- EDX
	movl	%edx, %r14d
.Ltmp258:
	#DEBUG_VALUE: parse_uint64_t_array:n <- R14D
	movq	%rsi, -64(%rbp)         # 8-byte Spill
.Ltmp259:
	#DEBUG_VALUE: parse_uint64_t_array:arr <- [RBP+-64]
	movq	%rdi, %rbx
.Ltmp260:
	#DEBUG_VALUE: parse_uint64_t_array:s <- RBX
	movabsq	$6984281343801798025, %rdi # imm = 0x60ED26E0BCB1AD89
	xorl	%esi, %esi
	callq	_KEnterRegion
	movl	$20, %edi
	movl	$2, %esi
	callq	_KPrepRTable
	movl	$1, %edi
	callq	_KWork
	movl	$1, %edi
	callq	_KDeqArg
.Ltmp261:
	#DEBUG_VALUE: parse_uint64_t_array:i <- 0
	movl	$12, %edi
	movl	$13, %esi
	movl	$1, %edx
	callq	_KTimestamp1
	movl	$12, %edi
	callq	_KPushCDep
	.loc	3 135 1 prologue_end    # /home/patmos/github/bachelor_project_HLS/candidates/MachSuite/common/support.c:135:1
.Ltmp262:
	testq	%rbx, %rbx
	je	.LBB6_11
.Ltmp263:
# BB#1:                                 # %cond.end
	#DEBUG_VALUE: parse_uint64_t_array:s <- RBX
	#DEBUG_VALUE: parse_uint64_t_array:arr <- [RBP+-64]
	#DEBUG_VALUE: parse_uint64_t_array:n <- R14D
	#DEBUG_VALUE: parse_uint64_t_array:i <- 0
	movabsq	$7214050137224118387, %r15 # imm = 0x641D7460CD1A0073
	movabsq	$3496153734698579009, %rdi # imm = 0x3084D54C5CDD3441
	xorl	%esi, %esi
	callq	_KPrepCall
	.loc	3 135 1 is_stmt 0 discriminator 6 # /home/patmos/github/bachelor_project_HLS/candidates/MachSuite/common/support.c:135:1
.Ltmp264:
	movl	$.L.str13, %esi
	movq	%rbx, %rdi
	callq	strtok
	movq	%rax, %r12
.Ltmp265:
	#DEBUG_VALUE: parse_uint64_t_array:line <- R12
	movslq	%r14d, %rax
	movq	%rax, -72(%rbp)         # 8-byte Spill
	movl	$17, %edi
	movl	$1, %esi
	xorl	%edx, %edx
	movl	$13, %ecx
	movl	$1, %r8d
	callq	_KTimestamp2
	movl	$10, %r14d
.Ltmp266:
	movl	$10, %edi
	movl	$10, %esi
	xorl	%edx, %edx
	callq	_KTimestamp1
	movl	$9, %edi
	callq	_KInduction
	callq	_KPopCDep
	movl	$1, %esi
	movq	%r15, %rdi
	callq	_KEnterRegion
	movabsq	$4951939367140304187, %rbx # imm = 0x44B8D29E2FABA53B
.Ltmp267:
	xorl	%eax, %eax
	movq	%rax, -56(%rbp)         # 8-byte Spill
	xorl	%r13d, %r13d
	jmp	.LBB6_2
.Ltmp268:
	.align	16, 0x90
.LBB6_6:                                # %if.end
                                        #   in Loop: Header=BB6_2 Depth=1
	#DEBUG_VALUE: parse_uint64_t_array:i <- 0
	#DEBUG_VALUE: parse_uint64_t_array:endptr <- R12
	#DEBUG_VALUE: parse_uint64_t_array:endptr <- [RBP+-80]
	#DEBUG_VALUE: parse_uint64_t_array:v <- R14
	movl	$14, %r13d
	movl	$14, %edi
	callq	_KPushCDep
	movl	$2, %edi
	callq	_KWork
	movl	$3, %edi
	movl	$8, %edx
	movq	-64(%rbp), %r15         # 8-byte Reload
	movq	%r15, %rsi
	callq	_KStore
	.loc	3 135 1 discriminator 14 # /home/patmos/github/bachelor_project_HLS/candidates/MachSuite/common/support.c:135:1
.Ltmp269:
	movq	%r14, (%r15)
.Ltmp270:
	.loc	3 135 1                 # /home/patmos/github/bachelor_project_HLS/candidates/MachSuite/common/support.c:135:1
	incq	-56(%rbp)               # 8-byte Folded Spill
	xorl	%esi, %esi
	movabsq	$-5920682277003075274, %rdi # imm = 0xADD582D69347E136
	callq	_KPrepCall
	movl	$7, %edi
	callq	_KLinkReturn
	.loc	3 135 1 discriminator 14 # /home/patmos/github/bachelor_project_HLS/candidates/MachSuite/common/support.c:135:1
.Ltmp271:
	movq	%r12, %rdi
	callq	strlen
	movq	%rax, %rbx
	leaq	(%r12,%rbx), %rdi
	movl	$1, %esi
	callq	_KStoreConst
	movb	$10, (%r12,%rbx)
	xorl	%esi, %esi
	movabsq	$4202948355333987261, %rdi # imm = 0x3A53DF42D0FE9BBD
	callq	_KPrepCall
	xorl	%edi, %edi
.Ltmp272:
	.loc	3 135 1 discriminator 6 # /home/patmos/github/bachelor_project_HLS/candidates/MachSuite/common/support.c:135:1
	movl	$.L.str13, %esi
.Ltmp273:
	.loc	3 135 1 discriminator 14 # /home/patmos/github/bachelor_project_HLS/candidates/MachSuite/common/support.c:135:1
	callq	strtok
	movq	%rax, %r12
.Ltmp274:
	#DEBUG_VALUE: parse_uint64_t_array:line <- R12
	movl	$11, %r14d
.Ltmp275:
	movl	$11, %edi
	movl	$11, %esi
	xorl	%edx, %edx
	callq	_KTimestamp1
	callq	_KPopCDep
	movl	$2, %esi
	movabsq	$4951939367140304187, %rbx # imm = 0x44B8D29E2FABA53B
	movq	%rbx, %rdi
	callq	_KExitRegion
	addq	$8, %r15
	movq	%r15, -64(%rbp)         # 8-byte Spill
.Ltmp276:
.LBB6_2:                                # %while.cond
                                        # =>This Inner Loop Header: Depth=1
	#DEBUG_VALUE: parse_uint64_t_array:i <- 0
	#DEBUG_VALUE: parse_uint64_t_array:endptr <- R12
	movl	$2, %esi
	movq	%rbx, %rdi
	callq	_KEnterRegion
	movl	$12, %edi
	callq	_KPushCDep
	movl	$2, %edi
	movl	$12, %edx
	movl	%r14d, %esi
	movl	%r13d, %ecx
	callq	_KPhi2To1
	movl	$1, %edi
	callq	_KWork
	movl	$2, %edi
	movl	$2, %esi
	xorl	%edx, %edx
	callq	_KTimestamp1
	movl	$15, %edi
	movl	$12, %esi
	movl	$1, %edx
	movl	$2, %ecx
	movl	$1, %r8d
	callq	_KTimestamp2
	movl	$9, %edi
	movl	$9, %esi
	xorl	%edx, %edx
	callq	_KTimestamp1
	callq	_KPopCDep
	.loc	3 135 1 discriminator 15 # /home/patmos/github/bachelor_project_HLS/candidates/MachSuite/common/support.c:135:1
.Ltmp277:
	testq	%r12, %r12
	je	.LBB6_7
.Ltmp278:
# BB#3:                                 # %land.rhs
                                        #   in Loop: Header=BB6_2 Depth=1
	#DEBUG_VALUE: parse_uint64_t_array:i <- 0
	#DEBUG_VALUE: parse_uint64_t_array:endptr <- R12
	movl	$15, %edi
	callq	_KPushCDep
	movl	$1, %edi
	callq	_KWork
	movl	$1, (%rsp)
	movl	$16, %edi
	movl	$17, %esi
	movl	$1, %edx
	movl	$9, %ecx
	movl	$1, %r8d
	movl	$15, %r9d
	callq	_KTimestamp3
	callq	_KPopCDep
	movl	$12, %edi
	callq	_KPushCDep
	movl	$14, %edi
	movl	$14, %esi
	xorl	%edx, %edx
	callq	_KTimestamp1
	movl	$14, %edi
	movl	$16, %esi
	movl	$12, %edx
	movl	$15, %ecx
	callq	_KPhi2To1
	callq	_KPopCDep
	movb	$1, %bl
	.loc	3 135 1 discriminator 9 # /home/patmos/github/bachelor_project_HLS/candidates/MachSuite/common/support.c:135:1
	movq	-56(%rbp), %rax         # 8-byte Reload
	cmpq	-72(%rbp), %rax         # 8-byte Folded Reload
	jge	.LBB6_8
.Ltmp279:
# BB#4:                                 # %while.body
                                        #   in Loop: Header=BB6_2 Depth=1
	#DEBUG_VALUE: parse_uint64_t_array:i <- 0
	#DEBUG_VALUE: parse_uint64_t_array:endptr <- R12
	movl	$14, %edi
	callq	_KPushCDep
	movl	$10, %edi
	callq	_KWork
.Ltmp280:
	#DEBUG_VALUE: parse_uint64_t_array:endptr <- [RBP+-80]
	movl	$2, %edi
	movl	$8, %edx
	leaq	-48(%rbp), %rbx
.Ltmp281:
	#DEBUG_VALUE: parse_uint64_t_array:endptr <- [RBX+0]
	movq	%rbx, %rsi
	callq	_KStore
	.loc	3 135 1 discriminator 10 # /home/patmos/github/bachelor_project_HLS/candidates/MachSuite/common/support.c:135:1
.Ltmp282:
	movq	%r12, -48(%rbp)
	xorl	%esi, %esi
	movabsq	$-5514493445419178825, %rdi # imm = 0xB378956DAD91E4B7
	callq	_KPrepCall
	callq	_KEnqArgConst
	movl	$3, %edi
	callq	_KLinkReturn
	movl	$10, %edx
	movq	%r12, %rdi
	movq	%rbx, %rsi
	callq	strtol
	movq	%rax, %r14
.Ltmp283:
	#DEBUG_VALUE: parse_uint64_t_array:v <- R14
	movl	$4, %esi
	movl	$8, %edx
	movq	%rbx, %rdi
.Ltmp284:
	#DEBUG_VALUE: parse_uint64_t_array:endptr <- [RBP+-80]
	callq	_KLoad0
	.loc	3 135 1                 # /home/patmos/github/bachelor_project_HLS/candidates/MachSuite/common/support.c:135:1
.Ltmp285:
	movq	-48(%rbp), %rbx
	movl	$5, %esi
	movl	$1, %edx
	movq	%rbx, %rdi
	callq	_KLoad0
	movb	(%rbx), %bl
	movl	$3, %edi
	movl	$3, %esi
	xorl	%edx, %edx
	callq	_KTimestamp1
	movl	$18, %edi
	movl	$14, %esi
	movl	$1, %edx
	movl	$5, %ecx
	movl	$1, %r8d
	callq	_KTimestamp2
	callq	_KPopCDep
	cmpb	$0, %bl
	je	.LBB6_6
.Ltmp286:
# BB#5:                                 # %if.then
                                        #   in Loop: Header=BB6_2 Depth=1
	#DEBUG_VALUE: parse_uint64_t_array:i <- 0
	#DEBUG_VALUE: parse_uint64_t_array:endptr <- R12
	#DEBUG_VALUE: parse_uint64_t_array:endptr <- [RBP+-80]
	#DEBUG_VALUE: parse_uint64_t_array:v <- R14
	movl	$18, %edi
	callq	_KPushCDep
	movl	$stderr, %edi
	movl	$6, %esi
	movl	$8, %edx
	callq	_KLoad0
	movl	$4, %edi
	callq	_KWork
	.loc	3 135 1 discriminator 12 # /home/patmos/github/bachelor_project_HLS/candidates/MachSuite/common/support.c:135:1
.Ltmp287:
	movq	stderr(%rip), %rdi
	movl	$.L.str14, %esi
	xorl	%eax, %eax
	movq	-56(%rbp), %rdx         # 8-byte Reload
                                        # kill: EDX<def> EDX<kill> RDX<kill>
	callq	fprintf
	callq	_KPopCDep
	jmp	.LBB6_6
.Ltmp288:
.LBB6_7:                                # %land.end.pre_exit.while.end.critedge
	#DEBUG_VALUE: parse_uint64_t_array:i <- 0
	movl	$12, %edi
	callq	_KPushCDep
	xorl	%ebx, %ebx
	movl	$14, %edi
	movl	$14, %esi
	xorl	%edx, %edx
	callq	_KTimestamp1
	movl	$14, %edi
	xorl	%esi, %esi
	movl	$12, %edx
	movl	$15, %ecx
	callq	_KPhi2To1
	callq	_KPopCDep
	xorl	%r12d, %r12d
.LBB6_8:                                # %land.end.pre_exit.while.end
	#DEBUG_VALUE: parse_uint64_t_array:i <- 0
	movl	$2, %esi
	movabsq	$4951939367140304187, %rdi # imm = 0x44B8D29E2FABA53B
	callq	_KExitRegion
	movl	$1, %esi
	movabsq	$7214050137224118387, %rdi # imm = 0x641D7460CD1A0073
	callq	_KExitRegion
	movl	$12, %edi
	callq	_KPushCDep
	movl	$1, %edi
	callq	_KWork
	movl	$19, %edi
	movl	$13, %esi
	movl	$2, %edx
	movl	$2, %ecx
	movl	$1, %r8d
	callq	_KTimestamp2
	callq	_KPopCDep
	.loc	3 135 1                 # /home/patmos/github/bachelor_project_HLS/candidates/MachSuite/common/support.c:135:1
	testb	%bl, %bl
	je	.LBB6_10
# BB#9:                                 # %if.then12
	#DEBUG_VALUE: parse_uint64_t_array:i <- 0
	movl	$19, %edi
	callq	_KPushCDep
	movl	$1, %edi
	callq	_KWork
	movabsq	$-2221820665482465619, %rdi # imm = 0xE12A81E05F4BAEAD
	xorl	%esi, %esi
	callq	_KPrepCall
	movl	$8, %edi
	callq	_KLinkReturn
	.loc	3 135 1 discriminator 16 # /home/patmos/github/bachelor_project_HLS/candidates/MachSuite/common/support.c:135:1
.Ltmp289:
	movq	%r12, %rdi
	callq	strlen
	movq	%rax, %rbx
	leaq	(%r12,%rbx), %rdi
	movl	$1, %esi
	callq	_KStoreConst
	movb	$10, (%r12,%rbx)
	callq	_KPopCDep
.Ltmp290:
.LBB6_10:                               # %if.end15
	#DEBUG_VALUE: parse_uint64_t_array:i <- 0
	movl	$12, %edi
	callq	_KPushCDep
	callq	_KReturnConst
	callq	_KPopCDep
	xorl	%esi, %esi
	movabsq	$6984281343801798025, %rdi # imm = 0x60ED26E0BCB1AD89
	callq	_KExitRegion
	xorl	%eax, %eax
	.loc	3 135 1 discriminator 18 # /home/patmos/github/bachelor_project_HLS/candidates/MachSuite/common/support.c:135:1
.Ltmp291:
	addq	$56, %rsp
	popq	%rbx
	popq	%r12
	popq	%r13
	popq	%r14
	popq	%r15
	popq	%rbp
	retq
.Ltmp292:
.LBB6_11:                               # %cond.false
	#DEBUG_VALUE: parse_uint64_t_array:i <- 0
	movabsq	$8993101523210997051, %rdi # imm = 0x7CCDEA3018040D3B
	xorl	%esi, %esi
	callq	_KPrepCall
	callq	_KEnqArgConst
	xorl	%esi, %esi
	movabsq	$6984281343801798025, %rdi # imm = 0x60ED26E0BCB1AD89
	callq	_KExitRegion
	.loc	3 135 1 discriminator 4 # /home/patmos/github/bachelor_project_HLS/candidates/MachSuite/common/support.c:135:1
.Ltmp293:
	movl	$.L.str12, %edi
	movl	$.L.str2, %esi
	movl	$135, %edx
	movl	$.L__PRETTY_FUNCTION__.parse_uint64_t_array, %ecx
	callq	__assert_fail
.Ltmp294:
.Ltmp295:
	.size	parse_uint64_t_array, .Ltmp295-parse_uint64_t_array
.Lfunc_end6:
	.cfi_endproc

	.globl	parse_int8_t_array
	.align	16, 0x90
	.type	parse_int8_t_array,@function
parse_int8_t_array:                     # @parse_int8_t_array
.Lfunc_begin7:
	.loc	3 136 0 is_stmt 1       # /home/patmos/github/bachelor_project_HLS/candidates/MachSuite/common/support.c:136:0
	.cfi_startproc
# BB#0:                                 # %entry
	pushq	%rbp
.Ltmp296:
	.cfi_def_cfa_offset 16
.Ltmp297:
	.cfi_offset %rbp, -16
	movq	%rsp, %rbp
.Ltmp298:
	.cfi_def_cfa_register %rbp
	pushq	%r15
	pushq	%r14
	pushq	%r13
	pushq	%r12
	pushq	%rbx
	subq	$40, %rsp
.Ltmp299:
	.cfi_offset %rbx, -56
.Ltmp300:
	.cfi_offset %r12, -48
.Ltmp301:
	.cfi_offset %r13, -40
.Ltmp302:
	.cfi_offset %r14, -32
.Ltmp303:
	.cfi_offset %r15, -24
	#DEBUG_VALUE: parse_int8_t_array:s <- RDI
	#DEBUG_VALUE: parse_int8_t_array:arr <- RSI
	#DEBUG_VALUE: parse_int8_t_array:n <- EDX
	movl	%edx, %r14d
.Ltmp304:
	#DEBUG_VALUE: parse_int8_t_array:n <- R14D
	movq	%rsi, -64(%rbp)         # 8-byte Spill
.Ltmp305:
	#DEBUG_VALUE: parse_int8_t_array:arr <- [RBP+-64]
	movq	%rdi, %rbx
.Ltmp306:
	#DEBUG_VALUE: parse_int8_t_array:s <- RBX
	movabsq	$-8078100781023498995, %rdi # imm = 0x8FE4D223A749ED0D
	xorl	%esi, %esi
	callq	_KEnterRegion
	movl	$21, %edi
	movl	$2, %esi
	callq	_KPrepRTable
	movl	$1, %edi
	callq	_KDeqArg
	movl	$1, %edi
	callq	_KWork
.Ltmp307:
	#DEBUG_VALUE: parse_int8_t_array:i <- 0
	movl	$14, %edi
	movl	$15, %esi
	movl	$1, %edx
	callq	_KTimestamp1
	movl	$14, %edi
	callq	_KPushCDep
	.loc	3 136 1 prologue_end    # /home/patmos/github/bachelor_project_HLS/candidates/MachSuite/common/support.c:136:1
.Ltmp308:
	testq	%rbx, %rbx
	je	.LBB7_11
.Ltmp309:
# BB#1:                                 # %cond.end
	#DEBUG_VALUE: parse_int8_t_array:s <- RBX
	#DEBUG_VALUE: parse_int8_t_array:arr <- [RBP+-64]
	#DEBUG_VALUE: parse_int8_t_array:n <- R14D
	#DEBUG_VALUE: parse_int8_t_array:i <- 0
	movabsq	$-4242343600279942306, %r15 # imm = 0xC5202AF8F2298B5E
	movabsq	$-4796752297663601889, %rdi # imm = 0xBD6E83331638E31F
	xorl	%esi, %esi
	callq	_KPrepCall
	.loc	3 136 1 is_stmt 0 discriminator 6 # /home/patmos/github/bachelor_project_HLS/candidates/MachSuite/common/support.c:136:1
.Ltmp310:
	movl	$.L.str13, %esi
	movq	%rbx, %rdi
	callq	strtok
	movq	%rax, %r12
.Ltmp311:
	#DEBUG_VALUE: parse_int8_t_array:line <- R12
	movslq	%r14d, %rax
	movq	%rax, -56(%rbp)         # 8-byte Spill
	movl	$12, %r14d
.Ltmp312:
	movl	$12, %edi
	movl	$12, %esi
	xorl	%edx, %edx
	callq	_KTimestamp1
	movl	$18, %edi
	movl	$1, %esi
	xorl	%edx, %edx
	movl	$15, %ecx
	movl	$1, %r8d
	callq	_KTimestamp2
	movl	$11, %edi
	callq	_KInduction
	callq	_KPopCDep
	movl	$1, %esi
	movq	%r15, %rdi
	callq	_KEnterRegion
	movabsq	$2182092212517917540, %rbx # imm = 0x1E48594E5A46D364
.Ltmp313:
	xorl	%r15d, %r15d
	xorl	%r13d, %r13d
	jmp	.LBB7_2
.Ltmp314:
	.align	16, 0x90
.LBB7_6:                                # %if.end
                                        #   in Loop: Header=BB7_2 Depth=1
	#DEBUG_VALUE: parse_int8_t_array:arr <- [RBP+-64]
	#DEBUG_VALUE: parse_int8_t_array:i <- 0
	#DEBUG_VALUE: parse_int8_t_array:endptr <- R12
	#DEBUG_VALUE: parse_int8_t_array:endptr <- [RBP+-72]
	#DEBUG_VALUE: parse_int8_t_array:v <- R14B
	movl	$8, %r13d
	movl	$8, %edi
	callq	_KPushCDep
	movl	$2, %edi
	callq	_KWork
	movq	-64(%rbp), %rbx         # 8-byte Reload
.Ltmp315:
	#DEBUG_VALUE: parse_int8_t_array:arr <- RBX
	leaq	(%rbx,%r15), %rsi
	movl	$7, %edi
	movl	$1, %edx
	callq	_KStore
	.loc	3 136 1 discriminator 14 # /home/patmos/github/bachelor_project_HLS/candidates/MachSuite/common/support.c:136:1
.Ltmp316:
	movb	%r14b, (%rbx,%r15)
.Ltmp317:
	#DEBUG_VALUE: parse_int8_t_array:arr <- [RBP+-64]
	.loc	3 136 1                 # /home/patmos/github/bachelor_project_HLS/candidates/MachSuite/common/support.c:136:1
	incq	%r15
	xorl	%esi, %esi
	movabsq	$4000752993215261101, %rdi # imm = 0x378587A682AD29AD
	callq	_KPrepCall
	movl	$9, %edi
	callq	_KLinkReturn
	.loc	3 136 1 discriminator 14 # /home/patmos/github/bachelor_project_HLS/candidates/MachSuite/common/support.c:136:1
.Ltmp318:
	movq	%r12, %rdi
	callq	strlen
	movq	%rax, %rbx
	leaq	(%r12,%rbx), %rdi
	movl	$1, %esi
	callq	_KStoreConst
	movb	$10, (%r12,%rbx)
	xorl	%esi, %esi
	movabsq	$2265813018447608944, %rdi # imm = 0x1F71C8EF7C067C70
	callq	_KPrepCall
	xorl	%edi, %edi
.Ltmp319:
	.loc	3 136 1 discriminator 6 # /home/patmos/github/bachelor_project_HLS/candidates/MachSuite/common/support.c:136:1
	movl	$.L.str13, %esi
.Ltmp320:
	.loc	3 136 1 discriminator 14 # /home/patmos/github/bachelor_project_HLS/candidates/MachSuite/common/support.c:136:1
	callq	strtok
	movq	%rax, %r12
.Ltmp321:
	#DEBUG_VALUE: parse_int8_t_array:line <- R12
	movl	$13, %r14d
.Ltmp322:
	movl	$13, %edi
	movl	$13, %esi
	xorl	%edx, %edx
	callq	_KTimestamp1
	callq	_KPopCDep
	movl	$2, %esi
	movabsq	$2182092212517917540, %rbx # imm = 0x1E48594E5A46D364
	movq	%rbx, %rdi
	callq	_KExitRegion
.Ltmp323:
.LBB7_2:                                # %while.cond
                                        # =>This Inner Loop Header: Depth=1
	#DEBUG_VALUE: parse_int8_t_array:arr <- [RBP+-64]
	#DEBUG_VALUE: parse_int8_t_array:i <- 0
	#DEBUG_VALUE: parse_int8_t_array:endptr <- R12
	movl	$2, %esi
	movq	%rbx, %rdi
	callq	_KEnterRegion
	movl	$14, %edi
	callq	_KPushCDep
	movl	$2, %edi
	movl	$14, %edx
	movl	%r14d, %esi
	movl	%r13d, %ecx
	callq	_KPhi2To1
	movl	$1, %edi
	callq	_KWork
	movl	$2, %edi
	movl	$2, %esi
	xorl	%edx, %edx
	callq	_KTimestamp1
	movl	$16, %edi
	movl	$2, %esi
	movl	$1, %edx
	movl	$14, %ecx
	movl	$1, %r8d
	callq	_KTimestamp2
	movl	$11, %edi
	movl	$11, %esi
	xorl	%edx, %edx
	callq	_KTimestamp1
	callq	_KPopCDep
	.loc	3 136 1 discriminator 15 # /home/patmos/github/bachelor_project_HLS/candidates/MachSuite/common/support.c:136:1
.Ltmp324:
	testq	%r12, %r12
	je	.LBB7_7
.Ltmp325:
# BB#3:                                 # %land.rhs
                                        #   in Loop: Header=BB7_2 Depth=1
	#DEBUG_VALUE: parse_int8_t_array:arr <- [RBP+-64]
	#DEBUG_VALUE: parse_int8_t_array:i <- 0
	#DEBUG_VALUE: parse_int8_t_array:endptr <- R12
	movl	$16, %edi
	callq	_KPushCDep
	movl	$1, %edi
	callq	_KWork
	movl	$1, (%rsp)
	movl	$17, %edi
	movl	$18, %esi
	movl	$1, %edx
	movl	$11, %ecx
	movl	$1, %r8d
	movl	$16, %r9d
	callq	_KTimestamp3
	callq	_KPopCDep
	movl	$14, %edi
	callq	_KPushCDep
	movl	$8, %edi
	movl	$17, %esi
	movl	$14, %edx
	movl	$16, %ecx
	callq	_KPhi2To1
	movl	$8, %edi
	movl	$8, %esi
	xorl	%edx, %edx
	callq	_KTimestamp1
	callq	_KPopCDep
	movb	$1, %bl
	.loc	3 136 1 discriminator 9 # /home/patmos/github/bachelor_project_HLS/candidates/MachSuite/common/support.c:136:1
	cmpq	-56(%rbp), %r15         # 8-byte Folded Reload
	jge	.LBB7_8
.Ltmp326:
# BB#4:                                 # %while.body
                                        #   in Loop: Header=BB7_2 Depth=1
	#DEBUG_VALUE: parse_int8_t_array:arr <- [RBP+-64]
	#DEBUG_VALUE: parse_int8_t_array:i <- 0
	#DEBUG_VALUE: parse_int8_t_array:endptr <- R12
	movl	$8, %edi
	callq	_KPushCDep
.Ltmp327:
	#DEBUG_VALUE: parse_int8_t_array:endptr <- [RBP+-72]
	movl	$2, %edi
	movl	$8, %edx
	leaq	-48(%rbp), %rbx
.Ltmp328:
	#DEBUG_VALUE: parse_int8_t_array:endptr <- [RBX+0]
	movq	%rbx, %rsi
	callq	_KStore
	movl	$10, %edi
	callq	_KWork
	.loc	3 136 1 discriminator 10 # /home/patmos/github/bachelor_project_HLS/candidates/MachSuite/common/support.c:136:1
.Ltmp329:
	movq	%r12, -48(%rbp)
	xorl	%esi, %esi
	movabsq	$-8850317639654695683, %rdi # imm = 0x852D5AFF6B021CFD
	callq	_KPrepCall
	callq	_KEnqArgConst
	movl	$3, %edi
	callq	_KLinkReturn
	movl	$10, %edx
	movq	%r12, %rdi
	movq	%rbx, %rsi
	callq	strtol
	movq	%rax, %r14
	movl	$4, %esi
	movl	$8, %edx
	movq	%rbx, %rdi
.Ltmp330:
	#DEBUG_VALUE: parse_int8_t_array:endptr <- [RBP+-72]
	callq	_KLoad0
	.loc	3 136 1                 # /home/patmos/github/bachelor_project_HLS/candidates/MachSuite/common/support.c:136:1
.Ltmp331:
	movq	-48(%rbp), %rbx
	movl	$5, %esi
	movl	$1, %edx
	movq	%rbx, %rdi
	callq	_KLoad0
	movb	(%rbx), %bl
	movl	$7, %edi
	movl	$8, %esi
	xorl	%edx, %edx
	movl	$3, %ecx
	xorl	%r8d, %r8d
	callq	_KTimestamp2
	movl	$19, %edi
	movl	$8, %esi
	movl	$1, %edx
	movl	$5, %ecx
	movl	$1, %r8d
	callq	_KTimestamp2
	callq	_KPopCDep
	cmpb	$0, %bl
.Ltmp332:
	#DEBUG_VALUE: parse_int8_t_array:v <- R14B
	je	.LBB7_6
.Ltmp333:
# BB#5:                                 # %if.then
                                        #   in Loop: Header=BB7_2 Depth=1
	#DEBUG_VALUE: parse_int8_t_array:arr <- [RBP+-64]
	#DEBUG_VALUE: parse_int8_t_array:i <- 0
	#DEBUG_VALUE: parse_int8_t_array:endptr <- R12
	#DEBUG_VALUE: parse_int8_t_array:endptr <- [RBP+-72]
	#DEBUG_VALUE: parse_int8_t_array:v <- R14B
	movl	$19, %edi
	callq	_KPushCDep
	movl	$4, %edi
	callq	_KWork
	movl	$stderr, %edi
	movl	$6, %esi
	movl	$8, %edx
	callq	_KLoad0
	.loc	3 136 1 discriminator 12 # /home/patmos/github/bachelor_project_HLS/candidates/MachSuite/common/support.c:136:1
.Ltmp334:
	movq	stderr(%rip), %rdi
	movl	$.L.str14, %esi
	xorl	%eax, %eax
	movl	%r15d, %edx
	callq	fprintf
	callq	_KPopCDep
	jmp	.LBB7_6
.Ltmp335:
.LBB7_7:                                # %land.end.pre_exit.while.end.critedge
	#DEBUG_VALUE: parse_int8_t_array:i <- 0
	movl	$14, %edi
	callq	_KPushCDep
	xorl	%ebx, %ebx
	movl	$8, %edi
	xorl	%esi, %esi
	movl	$14, %edx
	movl	$16, %ecx
	callq	_KPhi2To1
	movl	$8, %edi
	movl	$8, %esi
	xorl	%edx, %edx
	callq	_KTimestamp1
	callq	_KPopCDep
	xorl	%r12d, %r12d
.LBB7_8:                                # %land.end.pre_exit.while.end
	#DEBUG_VALUE: parse_int8_t_array:i <- 0
	movl	$2, %esi
	movabsq	$2182092212517917540, %rdi # imm = 0x1E48594E5A46D364
	callq	_KExitRegion
	movl	$1, %esi
	movabsq	$-4242343600279942306, %rdi # imm = 0xC5202AF8F2298B5E
	callq	_KExitRegion
	movl	$14, %edi
	callq	_KPushCDep
	movl	$1, %edi
	callq	_KWork
	movl	$20, %edi
	movl	$2, %esi
	movl	$1, %edx
	movl	$15, %ecx
	movl	$2, %r8d
	callq	_KTimestamp2
	callq	_KPopCDep
	.loc	3 136 1                 # /home/patmos/github/bachelor_project_HLS/candidates/MachSuite/common/support.c:136:1
	testb	%bl, %bl
	je	.LBB7_10
# BB#9:                                 # %if.then13
	#DEBUG_VALUE: parse_int8_t_array:i <- 0
	movl	$20, %edi
	callq	_KPushCDep
	movabsq	$2804112255198370950, %rdi # imm = 0x26EA353D416B1C86
	xorl	%esi, %esi
	callq	_KPrepCall
	movl	$10, %edi
	callq	_KLinkReturn
	movl	$1, %edi
	callq	_KWork
	.loc	3 136 1 discriminator 16 # /home/patmos/github/bachelor_project_HLS/candidates/MachSuite/common/support.c:136:1
.Ltmp336:
	movq	%r12, %rdi
	callq	strlen
	movq	%rax, %rbx
	leaq	(%r12,%rbx), %rdi
	movl	$1, %esi
	callq	_KStoreConst
	movb	$10, (%r12,%rbx)
	callq	_KPopCDep
.Ltmp337:
.LBB7_10:                               # %if.end16
	#DEBUG_VALUE: parse_int8_t_array:i <- 0
	movl	$14, %edi
	callq	_KPushCDep
	callq	_KReturnConst
	callq	_KPopCDep
	xorl	%esi, %esi
	movabsq	$-8078100781023498995, %rdi # imm = 0x8FE4D223A749ED0D
	callq	_KExitRegion
	xorl	%eax, %eax
	.loc	3 136 1 discriminator 18 # /home/patmos/github/bachelor_project_HLS/candidates/MachSuite/common/support.c:136:1
.Ltmp338:
	addq	$40, %rsp
	popq	%rbx
	popq	%r12
	popq	%r13
	popq	%r14
	popq	%r15
	popq	%rbp
	retq
.Ltmp339:
.LBB7_11:                               # %cond.false
	#DEBUG_VALUE: parse_int8_t_array:i <- 0
	movabsq	$-6018538163857667250, %rdi # imm = 0xAC79DB6D7421CB4E
	xorl	%esi, %esi
	callq	_KPrepCall
	callq	_KEnqArgConst
	xorl	%esi, %esi
	movabsq	$-8078100781023498995, %rdi # imm = 0x8FE4D223A749ED0D
	callq	_KExitRegion
	.loc	3 136 1 discriminator 4 # /home/patmos/github/bachelor_project_HLS/candidates/MachSuite/common/support.c:136:1
.Ltmp340:
	movl	$.L.str12, %edi
	movl	$.L.str2, %esi
	movl	$136, %edx
	movl	$.L__PRETTY_FUNCTION__.parse_int8_t_array, %ecx
	callq	__assert_fail
.Ltmp341:
.Ltmp342:
	.size	parse_int8_t_array, .Ltmp342-parse_int8_t_array
.Lfunc_end7:
	.cfi_endproc

	.globl	parse_int16_t_array
	.align	16, 0x90
	.type	parse_int16_t_array,@function
parse_int16_t_array:                    # @parse_int16_t_array
.Lfunc_begin8:
	.loc	3 137 0 is_stmt 1       # /home/patmos/github/bachelor_project_HLS/candidates/MachSuite/common/support.c:137:0
	.cfi_startproc
# BB#0:                                 # %entry
	pushq	%rbp
.Ltmp343:
	.cfi_def_cfa_offset 16
.Ltmp344:
	.cfi_offset %rbp, -16
	movq	%rsp, %rbp
.Ltmp345:
	.cfi_def_cfa_register %rbp
	pushq	%r15
	pushq	%r14
	pushq	%r13
	pushq	%r12
	pushq	%rbx
	subq	$56, %rsp
.Ltmp346:
	.cfi_offset %rbx, -56
.Ltmp347:
	.cfi_offset %r12, -48
.Ltmp348:
	.cfi_offset %r13, -40
.Ltmp349:
	.cfi_offset %r14, -32
.Ltmp350:
	.cfi_offset %r15, -24
	#DEBUG_VALUE: parse_int16_t_array:s <- RDI
	#DEBUG_VALUE: parse_int16_t_array:arr <- RSI
	#DEBUG_VALUE: parse_int16_t_array:n <- EDX
	movl	%edx, %r14d
.Ltmp351:
	#DEBUG_VALUE: parse_int16_t_array:n <- R14D
	movq	%rsi, -64(%rbp)         # 8-byte Spill
.Ltmp352:
	#DEBUG_VALUE: parse_int16_t_array:arr <- [RBP+-64]
	movq	%rdi, %rbx
.Ltmp353:
	#DEBUG_VALUE: parse_int16_t_array:s <- RBX
	movabsq	$8652133816544483974, %rdi # imm = 0x78128DDD7C475A86
	xorl	%esi, %esi
	callq	_KEnterRegion
	movl	$21, %edi
	movl	$2, %esi
	callq	_KPrepRTable
	movl	$1, %edi
	callq	_KWork
	movl	$1, %edi
	callq	_KDeqArg
.Ltmp354:
	#DEBUG_VALUE: parse_int16_t_array:i <- 0
	movl	$14, %edi
	movl	$15, %esi
	movl	$1, %edx
	callq	_KTimestamp1
	movl	$14, %edi
	callq	_KPushCDep
	.loc	3 137 1 prologue_end    # /home/patmos/github/bachelor_project_HLS/candidates/MachSuite/common/support.c:137:1
.Ltmp355:
	testq	%rbx, %rbx
	je	.LBB8_11
.Ltmp356:
# BB#1:                                 # %cond.end
	#DEBUG_VALUE: parse_int16_t_array:s <- RBX
	#DEBUG_VALUE: parse_int16_t_array:arr <- [RBP+-64]
	#DEBUG_VALUE: parse_int16_t_array:n <- R14D
	#DEBUG_VALUE: parse_int16_t_array:i <- 0
	movabsq	$9176842507570509250, %r15 # imm = 0x7F5AB1A3BF71F5C2
	movabsq	$2059623274767571002, %rdi # imm = 0x1C954074BFA5D83A
	xorl	%esi, %esi
	callq	_KPrepCall
	.loc	3 137 1 is_stmt 0 discriminator 6 # /home/patmos/github/bachelor_project_HLS/candidates/MachSuite/common/support.c:137:1
.Ltmp357:
	movl	$.L.str13, %esi
	movq	%rbx, %rdi
	callq	strtok
	movq	%rax, %r12
.Ltmp358:
	#DEBUG_VALUE: parse_int16_t_array:line <- R12
	movslq	%r14d, %rax
	movq	%rax, -72(%rbp)         # 8-byte Spill
	movl	$18, %edi
	movl	$1, %esi
	xorl	%edx, %edx
	movl	$15, %ecx
	movl	$1, %r8d
	callq	_KTimestamp2
	movl	$12, %r14d
.Ltmp359:
	movl	$12, %edi
	movl	$12, %esi
	xorl	%edx, %edx
	callq	_KTimestamp1
	movl	$11, %edi
	callq	_KInduction
	callq	_KPopCDep
	movl	$1, %esi
	movq	%r15, %rdi
	callq	_KEnterRegion
	movabsq	$-7067787446941835097, %rbx # imm = 0x9DEA2CC3851120A7
.Ltmp360:
	xorl	%eax, %eax
	movq	%rax, -56(%rbp)         # 8-byte Spill
	xorl	%r13d, %r13d
	jmp	.LBB8_2
.Ltmp361:
	.align	16, 0x90
.LBB8_6:                                # %if.end
                                        #   in Loop: Header=BB8_2 Depth=1
	#DEBUG_VALUE: parse_int16_t_array:i <- 0
	#DEBUG_VALUE: parse_int16_t_array:endptr <- R12
	#DEBUG_VALUE: parse_int16_t_array:endptr <- [RBP+-80]
	#DEBUG_VALUE: parse_int16_t_array:v <- R14W
	movl	$8, %r13d
	movl	$8, %edi
	callq	_KPushCDep
	movl	$2, %edi
	callq	_KWork
	movl	$7, %edi
	movl	$2, %edx
	movq	-64(%rbp), %r15         # 8-byte Reload
	movq	%r15, %rsi
	callq	_KStore
	.loc	3 137 1 discriminator 14 # /home/patmos/github/bachelor_project_HLS/candidates/MachSuite/common/support.c:137:1
.Ltmp362:
	movw	%r14w, (%r15)
.Ltmp363:
	.loc	3 137 1                 # /home/patmos/github/bachelor_project_HLS/candidates/MachSuite/common/support.c:137:1
	incq	-56(%rbp)               # 8-byte Folded Spill
	xorl	%esi, %esi
	movabsq	$-2461898741540794039, %rdi # imm = 0xDDD59423657AD149
	callq	_KPrepCall
	movl	$9, %edi
	callq	_KLinkReturn
	.loc	3 137 1 discriminator 14 # /home/patmos/github/bachelor_project_HLS/candidates/MachSuite/common/support.c:137:1
.Ltmp364:
	movq	%r12, %rdi
	callq	strlen
	movq	%rax, %rbx
	leaq	(%r12,%rbx), %rdi
	movl	$1, %esi
	callq	_KStoreConst
	movb	$10, (%r12,%rbx)
	xorl	%esi, %esi
	movabsq	$-6502496692620446966, %rdi # imm = 0xA5C27DB5B334B30A
	callq	_KPrepCall
	xorl	%edi, %edi
.Ltmp365:
	.loc	3 137 1 discriminator 6 # /home/patmos/github/bachelor_project_HLS/candidates/MachSuite/common/support.c:137:1
	movl	$.L.str13, %esi
.Ltmp366:
	.loc	3 137 1 discriminator 14 # /home/patmos/github/bachelor_project_HLS/candidates/MachSuite/common/support.c:137:1
	callq	strtok
	movq	%rax, %r12
.Ltmp367:
	#DEBUG_VALUE: parse_int16_t_array:line <- R12
	movl	$13, %r14d
.Ltmp368:
	movl	$13, %edi
	movl	$13, %esi
	xorl	%edx, %edx
	callq	_KTimestamp1
	callq	_KPopCDep
	movl	$2, %esi
	movabsq	$-7067787446941835097, %rbx # imm = 0x9DEA2CC3851120A7
	movq	%rbx, %rdi
	callq	_KExitRegion
	addq	$2, %r15
	movq	%r15, -64(%rbp)         # 8-byte Spill
.Ltmp369:
.LBB8_2:                                # %while.cond
                                        # =>This Inner Loop Header: Depth=1
	#DEBUG_VALUE: parse_int16_t_array:i <- 0
	#DEBUG_VALUE: parse_int16_t_array:endptr <- R12
	movl	$2, %esi
	movq	%rbx, %rdi
	callq	_KEnterRegion
	movl	$14, %edi
	callq	_KPushCDep
	movl	$2, %edi
	movl	$14, %edx
	movl	%r14d, %esi
	movl	%r13d, %ecx
	callq	_KPhi2To1
	movl	$1, %edi
	callq	_KWork
	movl	$2, %edi
	movl	$2, %esi
	xorl	%edx, %edx
	callq	_KTimestamp1
	movl	$11, %edi
	movl	$11, %esi
	xorl	%edx, %edx
	callq	_KTimestamp1
	movl	$16, %edi
	movl	$14, %esi
	movl	$1, %edx
	movl	$2, %ecx
	movl	$1, %r8d
	callq	_KTimestamp2
	callq	_KPopCDep
	.loc	3 137 1 discriminator 15 # /home/patmos/github/bachelor_project_HLS/candidates/MachSuite/common/support.c:137:1
.Ltmp370:
	testq	%r12, %r12
	je	.LBB8_7
.Ltmp371:
# BB#3:                                 # %land.rhs
                                        #   in Loop: Header=BB8_2 Depth=1
	#DEBUG_VALUE: parse_int16_t_array:i <- 0
	#DEBUG_VALUE: parse_int16_t_array:endptr <- R12
	movl	$16, %edi
	callq	_KPushCDep
	movl	$1, %edi
	callq	_KWork
	movl	$1, (%rsp)
	movl	$17, %edi
	movl	$18, %esi
	movl	$1, %edx
	movl	$11, %ecx
	movl	$1, %r8d
	movl	$16, %r9d
	callq	_KTimestamp3
	callq	_KPopCDep
	movl	$14, %edi
	callq	_KPushCDep
	movl	$8, %edi
	movl	$17, %esi
	movl	$14, %edx
	movl	$16, %ecx
	callq	_KPhi2To1
	movl	$8, %edi
	movl	$8, %esi
	xorl	%edx, %edx
	callq	_KTimestamp1
	callq	_KPopCDep
	movb	$1, %bl
	.loc	3 137 1 discriminator 9 # /home/patmos/github/bachelor_project_HLS/candidates/MachSuite/common/support.c:137:1
	movq	-56(%rbp), %rax         # 8-byte Reload
	cmpq	-72(%rbp), %rax         # 8-byte Folded Reload
	jge	.LBB8_8
.Ltmp372:
# BB#4:                                 # %while.body
                                        #   in Loop: Header=BB8_2 Depth=1
	#DEBUG_VALUE: parse_int16_t_array:i <- 0
	#DEBUG_VALUE: parse_int16_t_array:endptr <- R12
	movl	$8, %edi
	callq	_KPushCDep
	movl	$10, %edi
	callq	_KWork
.Ltmp373:
	#DEBUG_VALUE: parse_int16_t_array:endptr <- [RBP+-80]
	movl	$2, %edi
	movl	$8, %edx
	leaq	-48(%rbp), %rbx
.Ltmp374:
	#DEBUG_VALUE: parse_int16_t_array:endptr <- [RBX+0]
	movq	%rbx, %rsi
	callq	_KStore
	.loc	3 137 1 discriminator 10 # /home/patmos/github/bachelor_project_HLS/candidates/MachSuite/common/support.c:137:1
.Ltmp375:
	movq	%r12, -48(%rbp)
	xorl	%esi, %esi
	movabsq	$8265825645525641339, %rdi # imm = 0x72B61CA160DEA87B
	callq	_KPrepCall
	callq	_KEnqArgConst
	movl	$3, %edi
	callq	_KLinkReturn
	movl	$10, %edx
	movq	%r12, %rdi
	movq	%rbx, %rsi
	callq	strtol
	movq	%rax, %r14
	movl	$4, %esi
	movl	$8, %edx
	movq	%rbx, %rdi
.Ltmp376:
	#DEBUG_VALUE: parse_int16_t_array:endptr <- [RBP+-80]
	callq	_KLoad0
	.loc	3 137 1                 # /home/patmos/github/bachelor_project_HLS/candidates/MachSuite/common/support.c:137:1
.Ltmp377:
	movq	-48(%rbp), %rbx
	movl	$5, %esi
	movl	$1, %edx
	movq	%rbx, %rdi
	callq	_KLoad0
	movb	(%rbx), %bl
	movl	$7, %edi
	movl	$8, %esi
	xorl	%edx, %edx
	movl	$3, %ecx
	xorl	%r8d, %r8d
	callq	_KTimestamp2
	movl	$19, %edi
	movl	$8, %esi
	movl	$1, %edx
	movl	$5, %ecx
	movl	$1, %r8d
	callq	_KTimestamp2
	callq	_KPopCDep
	cmpb	$0, %bl
.Ltmp378:
	#DEBUG_VALUE: parse_int16_t_array:v <- R14W
	je	.LBB8_6
.Ltmp379:
# BB#5:                                 # %if.then
                                        #   in Loop: Header=BB8_2 Depth=1
	#DEBUG_VALUE: parse_int16_t_array:i <- 0
	#DEBUG_VALUE: parse_int16_t_array:endptr <- R12
	#DEBUG_VALUE: parse_int16_t_array:endptr <- [RBP+-80]
	#DEBUG_VALUE: parse_int16_t_array:v <- R14W
	movl	$19, %edi
	callq	_KPushCDep
	movl	$4, %edi
	callq	_KWork
	movl	$stderr, %edi
	movl	$6, %esi
	movl	$8, %edx
	callq	_KLoad0
	.loc	3 137 1 discriminator 12 # /home/patmos/github/bachelor_project_HLS/candidates/MachSuite/common/support.c:137:1
.Ltmp380:
	movq	stderr(%rip), %rdi
	movl	$.L.str14, %esi
	xorl	%eax, %eax
	movq	-56(%rbp), %rdx         # 8-byte Reload
                                        # kill: EDX<def> EDX<kill> RDX<kill>
	callq	fprintf
	callq	_KPopCDep
	jmp	.LBB8_6
.Ltmp381:
.LBB8_7:                                # %land.end.pre_exit.while.end.critedge
	#DEBUG_VALUE: parse_int16_t_array:i <- 0
	movl	$14, %edi
	callq	_KPushCDep
	xorl	%ebx, %ebx
	movl	$8, %edi
	xorl	%esi, %esi
	movl	$14, %edx
	movl	$16, %ecx
	callq	_KPhi2To1
	movl	$8, %edi
	movl	$8, %esi
	xorl	%edx, %edx
	callq	_KTimestamp1
	callq	_KPopCDep
	xorl	%r12d, %r12d
.LBB8_8:                                # %land.end.pre_exit.while.end
	#DEBUG_VALUE: parse_int16_t_array:i <- 0
	movl	$2, %esi
	movabsq	$-7067787446941835097, %rdi # imm = 0x9DEA2CC3851120A7
	callq	_KExitRegion
	movl	$1, %esi
	movabsq	$9176842507570509250, %rdi # imm = 0x7F5AB1A3BF71F5C2
	callq	_KExitRegion
	movl	$14, %edi
	callq	_KPushCDep
	movl	$1, %edi
	callq	_KWork
	movl	$20, %edi
	movl	$15, %esi
	movl	$2, %edx
	movl	$2, %ecx
	movl	$1, %r8d
	callq	_KTimestamp2
	callq	_KPopCDep
	.loc	3 137 1                 # /home/patmos/github/bachelor_project_HLS/candidates/MachSuite/common/support.c:137:1
	testb	%bl, %bl
	je	.LBB8_10
# BB#9:                                 # %if.then13
	#DEBUG_VALUE: parse_int16_t_array:i <- 0
	movl	$20, %edi
	callq	_KPushCDep
	movl	$1, %edi
	callq	_KWork
	movabsq	$-6744427634421914392, %rdi # imm = 0xA266FACCCCF424E8
	xorl	%esi, %esi
	callq	_KPrepCall
	movl	$10, %edi
	callq	_KLinkReturn
	.loc	3 137 1 discriminator 16 # /home/patmos/github/bachelor_project_HLS/candidates/MachSuite/common/support.c:137:1
.Ltmp382:
	movq	%r12, %rdi
	callq	strlen
	movq	%rax, %rbx
	leaq	(%r12,%rbx), %rdi
	movl	$1, %esi
	callq	_KStoreConst
	movb	$10, (%r12,%rbx)
	callq	_KPopCDep
.Ltmp383:
.LBB8_10:                               # %if.end16
	#DEBUG_VALUE: parse_int16_t_array:i <- 0
	movl	$14, %edi
	callq	_KPushCDep
	callq	_KReturnConst
	callq	_KPopCDep
	xorl	%esi, %esi
	movabsq	$8652133816544483974, %rdi # imm = 0x78128DDD7C475A86
	callq	_KExitRegion
	xorl	%eax, %eax
	.loc	3 137 1 discriminator 18 # /home/patmos/github/bachelor_project_HLS/candidates/MachSuite/common/support.c:137:1
.Ltmp384:
	addq	$56, %rsp
	popq	%rbx
	popq	%r12
	popq	%r13
	popq	%r14
	popq	%r15
	popq	%rbp
	retq
.Ltmp385:
.LBB8_11:                               # %cond.false
	#DEBUG_VALUE: parse_int16_t_array:i <- 0
	movabsq	$6717802892249223329, %rdi # imm = 0x5D3A6E23579B50A1
	xorl	%esi, %esi
	callq	_KPrepCall
	callq	_KEnqArgConst
	xorl	%esi, %esi
	movabsq	$8652133816544483974, %rdi # imm = 0x78128DDD7C475A86
	callq	_KExitRegion
	.loc	3 137 1 discriminator 4 # /home/patmos/github/bachelor_project_HLS/candidates/MachSuite/common/support.c:137:1
.Ltmp386:
	movl	$.L.str12, %edi
	movl	$.L.str2, %esi
	movl	$137, %edx
	movl	$.L__PRETTY_FUNCTION__.parse_int16_t_array, %ecx
	callq	__assert_fail
.Ltmp387:
.Ltmp388:
	.size	parse_int16_t_array, .Ltmp388-parse_int16_t_array
.Lfunc_end8:
	.cfi_endproc

	.globl	parse_int32_t_array
	.align	16, 0x90
	.type	parse_int32_t_array,@function
parse_int32_t_array:                    # @parse_int32_t_array
.Lfunc_begin9:
	.loc	3 138 0 is_stmt 1       # /home/patmos/github/bachelor_project_HLS/candidates/MachSuite/common/support.c:138:0
	.cfi_startproc
# BB#0:                                 # %entry
	pushq	%rbp
.Ltmp389:
	.cfi_def_cfa_offset 16
.Ltmp390:
	.cfi_offset %rbp, -16
	movq	%rsp, %rbp
.Ltmp391:
	.cfi_def_cfa_register %rbp
	pushq	%r15
	pushq	%r14
	pushq	%r13
	pushq	%r12
	pushq	%rbx
	subq	$56, %rsp
.Ltmp392:
	.cfi_offset %rbx, -56
.Ltmp393:
	.cfi_offset %r12, -48
.Ltmp394:
	.cfi_offset %r13, -40
.Ltmp395:
	.cfi_offset %r14, -32
.Ltmp396:
	.cfi_offset %r15, -24
	#DEBUG_VALUE: parse_int32_t_array:s <- RDI
	#DEBUG_VALUE: parse_int32_t_array:arr <- RSI
	#DEBUG_VALUE: parse_int32_t_array:n <- EDX
	movl	%edx, %r14d
.Ltmp397:
	#DEBUG_VALUE: parse_int32_t_array:n <- R14D
	movq	%rsi, -64(%rbp)         # 8-byte Spill
.Ltmp398:
	#DEBUG_VALUE: parse_int32_t_array:arr <- [RBP+-64]
	movq	%rdi, %rbx
.Ltmp399:
	#DEBUG_VALUE: parse_int32_t_array:s <- RBX
	movabsq	$-8429308446114563787, %rdi # imm = 0x8B0514A0EF243935
	xorl	%esi, %esi
	callq	_KEnterRegion
	movl	$21, %edi
	movl	$2, %esi
	callq	_KPrepRTable
	movl	$1, %edi
	callq	_KWork
	movl	$1, %edi
	callq	_KDeqArg
.Ltmp400:
	#DEBUG_VALUE: parse_int32_t_array:i <- 0
	movl	$14, %edi
	movl	$15, %esi
	movl	$1, %edx
	callq	_KTimestamp1
	movl	$14, %edi
	callq	_KPushCDep
	.loc	3 138 1 prologue_end    # /home/patmos/github/bachelor_project_HLS/candidates/MachSuite/common/support.c:138:1
.Ltmp401:
	testq	%rbx, %rbx
	je	.LBB9_11
.Ltmp402:
# BB#1:                                 # %cond.end
	#DEBUG_VALUE: parse_int32_t_array:s <- RBX
	#DEBUG_VALUE: parse_int32_t_array:arr <- [RBP+-64]
	#DEBUG_VALUE: parse_int32_t_array:n <- R14D
	#DEBUG_VALUE: parse_int32_t_array:i <- 0
	movabsq	$-4246975899731457199, %r15 # imm = 0xC50FB5EBAEDC8B51
	movabsq	$-3009874424802525218, %rdi # imm = 0xD63AC7285B1CBFDE
	xorl	%esi, %esi
	callq	_KPrepCall
	.loc	3 138 1 is_stmt 0 discriminator 6 # /home/patmos/github/bachelor_project_HLS/candidates/MachSuite/common/support.c:138:1
.Ltmp403:
	movl	$.L.str13, %esi
	movq	%rbx, %rdi
	callq	strtok
	movq	%rax, %r12
.Ltmp404:
	#DEBUG_VALUE: parse_int32_t_array:line <- R12
	movslq	%r14d, %rax
	movq	%rax, -72(%rbp)         # 8-byte Spill
	movl	$18, %edi
	movl	$1, %esi
	xorl	%edx, %edx
	movl	$15, %ecx
	movl	$1, %r8d
	callq	_KTimestamp2
	movl	$12, %r14d
.Ltmp405:
	movl	$12, %edi
	movl	$12, %esi
	xorl	%edx, %edx
	callq	_KTimestamp1
	movl	$11, %edi
	callq	_KInduction
	callq	_KPopCDep
	movl	$1, %esi
	movq	%r15, %rdi
	callq	_KEnterRegion
	movabsq	$2989071964321440014, %rbx # imm = 0x297B511D6175610E
.Ltmp406:
	xorl	%eax, %eax
	movq	%rax, -56(%rbp)         # 8-byte Spill
	xorl	%r13d, %r13d
	jmp	.LBB9_2
.Ltmp407:
	.align	16, 0x90
.LBB9_6:                                # %if.end
                                        #   in Loop: Header=BB9_2 Depth=1
	#DEBUG_VALUE: parse_int32_t_array:i <- 0
	#DEBUG_VALUE: parse_int32_t_array:endptr <- R12
	#DEBUG_VALUE: parse_int32_t_array:endptr <- [RBP+-80]
	#DEBUG_VALUE: parse_int32_t_array:v <- R14D
	movl	$8, %r13d
	movl	$8, %edi
	callq	_KPushCDep
	movl	$2, %edi
	callq	_KWork
	movl	$7, %edi
	movl	$4, %edx
	movq	-64(%rbp), %r15         # 8-byte Reload
	movq	%r15, %rsi
	callq	_KStore
	.loc	3 138 1 discriminator 14 # /home/patmos/github/bachelor_project_HLS/candidates/MachSuite/common/support.c:138:1
.Ltmp408:
	movl	%r14d, (%r15)
.Ltmp409:
	.loc	3 138 1                 # /home/patmos/github/bachelor_project_HLS/candidates/MachSuite/common/support.c:138:1
	incq	-56(%rbp)               # 8-byte Folded Spill
	xorl	%esi, %esi
	movabsq	$1363958596011739012, %rdi # imm = 0x12EDC11DD39EC784
	callq	_KPrepCall
	movl	$9, %edi
	callq	_KLinkReturn
	.loc	3 138 1 discriminator 14 # /home/patmos/github/bachelor_project_HLS/candidates/MachSuite/common/support.c:138:1
.Ltmp410:
	movq	%r12, %rdi
	callq	strlen
	movq	%rax, %rbx
	leaq	(%r12,%rbx), %rdi
	movl	$1, %esi
	callq	_KStoreConst
	movb	$10, (%r12,%rbx)
	xorl	%esi, %esi
	movabsq	$4964969570984956713, %rdi # imm = 0x44E71D84EF2E9329
	callq	_KPrepCall
	xorl	%edi, %edi
.Ltmp411:
	.loc	3 138 1 discriminator 6 # /home/patmos/github/bachelor_project_HLS/candidates/MachSuite/common/support.c:138:1
	movl	$.L.str13, %esi
.Ltmp412:
	.loc	3 138 1 discriminator 14 # /home/patmos/github/bachelor_project_HLS/candidates/MachSuite/common/support.c:138:1
	callq	strtok
	movq	%rax, %r12
.Ltmp413:
	#DEBUG_VALUE: parse_int32_t_array:line <- R12
	movl	$13, %r14d
.Ltmp414:
	movl	$13, %edi
	movl	$13, %esi
	xorl	%edx, %edx
	callq	_KTimestamp1
	callq	_KPopCDep
	movl	$2, %esi
	movabsq	$2989071964321440014, %rbx # imm = 0x297B511D6175610E
	movq	%rbx, %rdi
	callq	_KExitRegion
	addq	$4, %r15
	movq	%r15, -64(%rbp)         # 8-byte Spill
.Ltmp415:
.LBB9_2:                                # %while.cond
                                        # =>This Inner Loop Header: Depth=1
	#DEBUG_VALUE: parse_int32_t_array:i <- 0
	#DEBUG_VALUE: parse_int32_t_array:endptr <- R12
	movl	$2, %esi
	movq	%rbx, %rdi
	callq	_KEnterRegion
	movl	$14, %edi
	callq	_KPushCDep
	movl	$2, %edi
	movl	$14, %edx
	movl	%r14d, %esi
	movl	%r13d, %ecx
	callq	_KPhi2To1
	movl	$1, %edi
	callq	_KWork
	movl	$2, %edi
	movl	$2, %esi
	xorl	%edx, %edx
	callq	_KTimestamp1
	movl	$11, %edi
	movl	$11, %esi
	xorl	%edx, %edx
	callq	_KTimestamp1
	movl	$16, %edi
	movl	$14, %esi
	movl	$1, %edx
	movl	$2, %ecx
	movl	$1, %r8d
	callq	_KTimestamp2
	callq	_KPopCDep
	.loc	3 138 1 discriminator 15 # /home/patmos/github/bachelor_project_HLS/candidates/MachSuite/common/support.c:138:1
.Ltmp416:
	testq	%r12, %r12
	je	.LBB9_7
.Ltmp417:
# BB#3:                                 # %land.rhs
                                        #   in Loop: Header=BB9_2 Depth=1
	#DEBUG_VALUE: parse_int32_t_array:i <- 0
	#DEBUG_VALUE: parse_int32_t_array:endptr <- R12
	movl	$16, %edi
	callq	_KPushCDep
	movl	$1, %edi
	callq	_KWork
	movl	$1, (%rsp)
	movl	$17, %edi
	movl	$18, %esi
	movl	$1, %edx
	movl	$11, %ecx
	movl	$1, %r8d
	movl	$16, %r9d
	callq	_KTimestamp3
	callq	_KPopCDep
	movl	$14, %edi
	callq	_KPushCDep
	movl	$8, %edi
	movl	$17, %esi
	movl	$14, %edx
	movl	$16, %ecx
	callq	_KPhi2To1
	movl	$8, %edi
	movl	$8, %esi
	xorl	%edx, %edx
	callq	_KTimestamp1
	callq	_KPopCDep
	movb	$1, %bl
	.loc	3 138 1 discriminator 9 # /home/patmos/github/bachelor_project_HLS/candidates/MachSuite/common/support.c:138:1
	movq	-56(%rbp), %rax         # 8-byte Reload
	cmpq	-72(%rbp), %rax         # 8-byte Folded Reload
	jge	.LBB9_8
.Ltmp418:
# BB#4:                                 # %while.body
                                        #   in Loop: Header=BB9_2 Depth=1
	#DEBUG_VALUE: parse_int32_t_array:i <- 0
	#DEBUG_VALUE: parse_int32_t_array:endptr <- R12
	movl	$8, %edi
	callq	_KPushCDep
	movl	$10, %edi
	callq	_KWork
.Ltmp419:
	#DEBUG_VALUE: parse_int32_t_array:endptr <- [RBP+-80]
	movl	$2, %edi
	movl	$8, %edx
	leaq	-48(%rbp), %rbx
.Ltmp420:
	#DEBUG_VALUE: parse_int32_t_array:endptr <- [RBX+0]
	movq	%rbx, %rsi
	callq	_KStore
	.loc	3 138 1 discriminator 10 # /home/patmos/github/bachelor_project_HLS/candidates/MachSuite/common/support.c:138:1
.Ltmp421:
	movq	%r12, -48(%rbp)
	xorl	%esi, %esi
	movabsq	$-3051327641325233070, %rdi # imm = 0xD5A781AD457A9C52
	callq	_KPrepCall
	callq	_KEnqArgConst
	movl	$3, %edi
	callq	_KLinkReturn
	movl	$10, %edx
	movq	%r12, %rdi
	movq	%rbx, %rsi
	callq	strtol
	movq	%rax, %r14
	movl	$4, %esi
	movl	$8, %edx
	movq	%rbx, %rdi
.Ltmp422:
	#DEBUG_VALUE: parse_int32_t_array:endptr <- [RBP+-80]
	callq	_KLoad0
	.loc	3 138 1                 # /home/patmos/github/bachelor_project_HLS/candidates/MachSuite/common/support.c:138:1
.Ltmp423:
	movq	-48(%rbp), %rbx
	movl	$5, %esi
	movl	$1, %edx
	movq	%rbx, %rdi
	callq	_KLoad0
	movb	(%rbx), %bl
	movl	$7, %edi
	movl	$8, %esi
	xorl	%edx, %edx
	movl	$3, %ecx
	xorl	%r8d, %r8d
	callq	_KTimestamp2
	movl	$19, %edi
	movl	$8, %esi
	movl	$1, %edx
	movl	$5, %ecx
	movl	$1, %r8d
	callq	_KTimestamp2
	callq	_KPopCDep
	cmpb	$0, %bl
.Ltmp424:
	#DEBUG_VALUE: parse_int32_t_array:v <- R14D
	je	.LBB9_6
.Ltmp425:
# BB#5:                                 # %if.then
                                        #   in Loop: Header=BB9_2 Depth=1
	#DEBUG_VALUE: parse_int32_t_array:i <- 0
	#DEBUG_VALUE: parse_int32_t_array:endptr <- R12
	#DEBUG_VALUE: parse_int32_t_array:endptr <- [RBP+-80]
	#DEBUG_VALUE: parse_int32_t_array:v <- R14D
	movl	$19, %edi
	callq	_KPushCDep
	movl	$stderr, %edi
	movl	$6, %esi
	movl	$8, %edx
	callq	_KLoad0
	movl	$4, %edi
	callq	_KWork
	.loc	3 138 1 discriminator 12 # /home/patmos/github/bachelor_project_HLS/candidates/MachSuite/common/support.c:138:1
.Ltmp426:
	movq	stderr(%rip), %rdi
	movl	$.L.str14, %esi
	xorl	%eax, %eax
	movq	-56(%rbp), %rdx         # 8-byte Reload
                                        # kill: EDX<def> EDX<kill> RDX<kill>
	callq	fprintf
	callq	_KPopCDep
	jmp	.LBB9_6
.Ltmp427:
.LBB9_7:                                # %land.end.pre_exit.while.end.critedge
	#DEBUG_VALUE: parse_int32_t_array:i <- 0
	movl	$14, %edi
	callq	_KPushCDep
	xorl	%ebx, %ebx
	movl	$8, %edi
	xorl	%esi, %esi
	movl	$14, %edx
	movl	$16, %ecx
	callq	_KPhi2To1
	movl	$8, %edi
	movl	$8, %esi
	xorl	%edx, %edx
	callq	_KTimestamp1
	callq	_KPopCDep
	xorl	%r12d, %r12d
.LBB9_8:                                # %land.end.pre_exit.while.end
	#DEBUG_VALUE: parse_int32_t_array:i <- 0
	movl	$2, %esi
	movabsq	$2989071964321440014, %rdi # imm = 0x297B511D6175610E
	callq	_KExitRegion
	movl	$1, %esi
	movabsq	$-4246975899731457199, %rdi # imm = 0xC50FB5EBAEDC8B51
	callq	_KExitRegion
	movl	$14, %edi
	callq	_KPushCDep
	movl	$1, %edi
	callq	_KWork
	movl	$20, %edi
	movl	$15, %esi
	movl	$2, %edx
	movl	$2, %ecx
	movl	$1, %r8d
	callq	_KTimestamp2
	callq	_KPopCDep
	.loc	3 138 1                 # /home/patmos/github/bachelor_project_HLS/candidates/MachSuite/common/support.c:138:1
	testb	%bl, %bl
	je	.LBB9_10
# BB#9:                                 # %if.then13
	#DEBUG_VALUE: parse_int32_t_array:i <- 0
	movl	$20, %edi
	callq	_KPushCDep
	movl	$1, %edi
	callq	_KWork
	movabsq	$7162872271917237921, %rdi # imm = 0x6367A2617B1F46A1
	xorl	%esi, %esi
	callq	_KPrepCall
	movl	$10, %edi
	callq	_KLinkReturn
	.loc	3 138 1 discriminator 16 # /home/patmos/github/bachelor_project_HLS/candidates/MachSuite/common/support.c:138:1
.Ltmp428:
	movq	%r12, %rdi
	callq	strlen
	movq	%rax, %rbx
	leaq	(%r12,%rbx), %rdi
	movl	$1, %esi
	callq	_KStoreConst
	movb	$10, (%r12,%rbx)
	callq	_KPopCDep
.Ltmp429:
.LBB9_10:                               # %if.end16
	#DEBUG_VALUE: parse_int32_t_array:i <- 0
	movl	$14, %edi
	callq	_KPushCDep
	callq	_KReturnConst
	callq	_KPopCDep
	xorl	%esi, %esi
	movabsq	$-8429308446114563787, %rdi # imm = 0x8B0514A0EF243935
	callq	_KExitRegion
	xorl	%eax, %eax
	.loc	3 138 1 discriminator 18 # /home/patmos/github/bachelor_project_HLS/candidates/MachSuite/common/support.c:138:1
.Ltmp430:
	addq	$56, %rsp
	popq	%rbx
	popq	%r12
	popq	%r13
	popq	%r14
	popq	%r15
	popq	%rbp
	retq
.Ltmp431:
.LBB9_11:                               # %cond.false
	#DEBUG_VALUE: parse_int32_t_array:i <- 0
	movabsq	$-3171534289861588020, %rdi # imm = 0xD3FC725DEBD44BCC
	xorl	%esi, %esi
	callq	_KPrepCall
	callq	_KEnqArgConst
	xorl	%esi, %esi
	movabsq	$-8429308446114563787, %rdi # imm = 0x8B0514A0EF243935
	callq	_KExitRegion
	.loc	3 138 1 discriminator 4 # /home/patmos/github/bachelor_project_HLS/candidates/MachSuite/common/support.c:138:1
.Ltmp432:
	movl	$.L.str12, %edi
	movl	$.L.str2, %esi
	movl	$138, %edx
	movl	$.L__PRETTY_FUNCTION__.parse_int32_t_array, %ecx
	callq	__assert_fail
.Ltmp433:
.Ltmp434:
	.size	parse_int32_t_array, .Ltmp434-parse_int32_t_array
.Lfunc_end9:
	.cfi_endproc

	.globl	parse_int64_t_array
	.align	16, 0x90
	.type	parse_int64_t_array,@function
parse_int64_t_array:                    # @parse_int64_t_array
.Lfunc_begin10:
	.loc	3 139 0 is_stmt 1       # /home/patmos/github/bachelor_project_HLS/candidates/MachSuite/common/support.c:139:0
	.cfi_startproc
# BB#0:                                 # %entry
	pushq	%rbp
.Ltmp435:
	.cfi_def_cfa_offset 16
.Ltmp436:
	.cfi_offset %rbp, -16
	movq	%rsp, %rbp
.Ltmp437:
	.cfi_def_cfa_register %rbp
	pushq	%r15
	pushq	%r14
	pushq	%r13
	pushq	%r12
	pushq	%rbx
	subq	$56, %rsp
.Ltmp438:
	.cfi_offset %rbx, -56
.Ltmp439:
	.cfi_offset %r12, -48
.Ltmp440:
	.cfi_offset %r13, -40
.Ltmp441:
	.cfi_offset %r14, -32
.Ltmp442:
	.cfi_offset %r15, -24
	#DEBUG_VALUE: parse_int64_t_array:s <- RDI
	#DEBUG_VALUE: parse_int64_t_array:arr <- RSI
	#DEBUG_VALUE: parse_int64_t_array:n <- EDX
	movl	%edx, %r14d
.Ltmp443:
	#DEBUG_VALUE: parse_int64_t_array:n <- R14D
	movq	%rsi, -64(%rbp)         # 8-byte Spill
.Ltmp444:
	#DEBUG_VALUE: parse_int64_t_array:arr <- [RBP+-64]
	movq	%rdi, %rbx
.Ltmp445:
	#DEBUG_VALUE: parse_int64_t_array:s <- RBX
	movabsq	$-4394163279587129986, %rdi # imm = 0xC304CBC74B24C57E
	xorl	%esi, %esi
	callq	_KEnterRegion
	movl	$20, %edi
	movl	$2, %esi
	callq	_KPrepRTable
	movl	$1, %edi
	callq	_KWork
	movl	$1, %edi
	callq	_KDeqArg
.Ltmp446:
	#DEBUG_VALUE: parse_int64_t_array:i <- 0
	movl	$12, %edi
	movl	$13, %esi
	movl	$1, %edx
	callq	_KTimestamp1
	movl	$12, %edi
	callq	_KPushCDep
	.loc	3 139 1 prologue_end    # /home/patmos/github/bachelor_project_HLS/candidates/MachSuite/common/support.c:139:1
.Ltmp447:
	testq	%rbx, %rbx
	je	.LBB10_11
.Ltmp448:
# BB#1:                                 # %cond.end
	#DEBUG_VALUE: parse_int64_t_array:s <- RBX
	#DEBUG_VALUE: parse_int64_t_array:arr <- [RBP+-64]
	#DEBUG_VALUE: parse_int64_t_array:n <- R14D
	#DEBUG_VALUE: parse_int64_t_array:i <- 0
	movabsq	$-3670769202316478557, %r15 # imm = 0xCD0ECEDBEB7B77A3
	movabsq	$-7308612888985935515, %rdi # imm = 0x9A92974CD726E165
	xorl	%esi, %esi
	callq	_KPrepCall
	.loc	3 139 1 is_stmt 0 discriminator 6 # /home/patmos/github/bachelor_project_HLS/candidates/MachSuite/common/support.c:139:1
.Ltmp449:
	movl	$.L.str13, %esi
	movq	%rbx, %rdi
	callq	strtok
	movq	%rax, %r12
.Ltmp450:
	#DEBUG_VALUE: parse_int64_t_array:line <- R12
	movslq	%r14d, %rax
	movq	%rax, -72(%rbp)         # 8-byte Spill
	movl	$10, %r14d
.Ltmp451:
	movl	$10, %edi
	movl	$10, %esi
	xorl	%edx, %edx
	callq	_KTimestamp1
	movl	$17, %edi
	movl	$1, %esi
	xorl	%edx, %edx
	movl	$13, %ecx
	movl	$1, %r8d
	callq	_KTimestamp2
	movl	$9, %edi
	callq	_KInduction
	callq	_KPopCDep
	movl	$1, %esi
	movq	%r15, %rdi
	callq	_KEnterRegion
	movabsq	$-5650286517120539828, %rbx # imm = 0xB196265963D9E34C
.Ltmp452:
	xorl	%eax, %eax
	movq	%rax, -56(%rbp)         # 8-byte Spill
	xorl	%r13d, %r13d
	jmp	.LBB10_2
.Ltmp453:
	.align	16, 0x90
.LBB10_6:                               # %if.end
                                        #   in Loop: Header=BB10_2 Depth=1
	#DEBUG_VALUE: parse_int64_t_array:i <- 0
	#DEBUG_VALUE: parse_int64_t_array:endptr <- R12
	#DEBUG_VALUE: parse_int64_t_array:endptr <- [RBP+-80]
	#DEBUG_VALUE: parse_int64_t_array:v <- R14
	movl	$14, %r13d
	movl	$14, %edi
	callq	_KPushCDep
	movl	$2, %edi
	callq	_KWork
	movl	$3, %edi
	movl	$8, %edx
	movq	-64(%rbp), %r15         # 8-byte Reload
	movq	%r15, %rsi
	callq	_KStore
	.loc	3 139 1 discriminator 14 # /home/patmos/github/bachelor_project_HLS/candidates/MachSuite/common/support.c:139:1
.Ltmp454:
	movq	%r14, (%r15)
.Ltmp455:
	.loc	3 139 1                 # /home/patmos/github/bachelor_project_HLS/candidates/MachSuite/common/support.c:139:1
	incq	-56(%rbp)               # 8-byte Folded Spill
	xorl	%esi, %esi
	movabsq	$7932724530445571778, %rdi # imm = 0x6E16B2EE5A3C56C2
	callq	_KPrepCall
	movl	$7, %edi
	callq	_KLinkReturn
	.loc	3 139 1 discriminator 14 # /home/patmos/github/bachelor_project_HLS/candidates/MachSuite/common/support.c:139:1
.Ltmp456:
	movq	%r12, %rdi
	callq	strlen
	movq	%rax, %rbx
	leaq	(%r12,%rbx), %rdi
	movl	$1, %esi
	callq	_KStoreConst
	movb	$10, (%r12,%rbx)
	xorl	%esi, %esi
	movabsq	$5071115438702979215, %rdi # imm = 0x4660389FA2E3E88F
	callq	_KPrepCall
	xorl	%edi, %edi
.Ltmp457:
	.loc	3 139 1 discriminator 6 # /home/patmos/github/bachelor_project_HLS/candidates/MachSuite/common/support.c:139:1
	movl	$.L.str13, %esi
.Ltmp458:
	.loc	3 139 1 discriminator 14 # /home/patmos/github/bachelor_project_HLS/candidates/MachSuite/common/support.c:139:1
	callq	strtok
	movq	%rax, %r12
.Ltmp459:
	#DEBUG_VALUE: parse_int64_t_array:line <- R12
	movl	$11, %r14d
.Ltmp460:
	movl	$11, %edi
	movl	$11, %esi
	xorl	%edx, %edx
	callq	_KTimestamp1
	callq	_KPopCDep
	movl	$2, %esi
	movabsq	$-5650286517120539828, %rbx # imm = 0xB196265963D9E34C
	movq	%rbx, %rdi
	callq	_KExitRegion
	addq	$8, %r15
	movq	%r15, -64(%rbp)         # 8-byte Spill
.Ltmp461:
.LBB10_2:                               # %while.cond
                                        # =>This Inner Loop Header: Depth=1
	#DEBUG_VALUE: parse_int64_t_array:i <- 0
	#DEBUG_VALUE: parse_int64_t_array:endptr <- R12
	movl	$2, %esi
	movq	%rbx, %rdi
	callq	_KEnterRegion
	movl	$12, %edi
	callq	_KPushCDep
	movl	$2, %edi
	movl	$12, %edx
	movl	%r14d, %esi
	movl	%r13d, %ecx
	callq	_KPhi2To1
	movl	$1, %edi
	callq	_KWork
	movl	$2, %edi
	movl	$2, %esi
	xorl	%edx, %edx
	callq	_KTimestamp1
	movl	$15, %edi
	movl	$12, %esi
	movl	$1, %edx
	movl	$2, %ecx
	movl	$1, %r8d
	callq	_KTimestamp2
	movl	$9, %edi
	movl	$9, %esi
	xorl	%edx, %edx
	callq	_KTimestamp1
	callq	_KPopCDep
	.loc	3 139 1 discriminator 15 # /home/patmos/github/bachelor_project_HLS/candidates/MachSuite/common/support.c:139:1
.Ltmp462:
	testq	%r12, %r12
	je	.LBB10_7
.Ltmp463:
# BB#3:                                 # %land.rhs
                                        #   in Loop: Header=BB10_2 Depth=1
	#DEBUG_VALUE: parse_int64_t_array:i <- 0
	#DEBUG_VALUE: parse_int64_t_array:endptr <- R12
	movl	$15, %edi
	callq	_KPushCDep
	movl	$1, %edi
	callq	_KWork
	movl	$1, (%rsp)
	movl	$16, %edi
	movl	$17, %esi
	movl	$1, %edx
	movl	$9, %ecx
	movl	$1, %r8d
	movl	$15, %r9d
	callq	_KTimestamp3
	callq	_KPopCDep
	movl	$12, %edi
	callq	_KPushCDep
	movl	$14, %edi
	movl	$14, %esi
	xorl	%edx, %edx
	callq	_KTimestamp1
	movl	$14, %edi
	movl	$16, %esi
	movl	$12, %edx
	movl	$15, %ecx
	callq	_KPhi2To1
	callq	_KPopCDep
	movb	$1, %bl
	.loc	3 139 1 discriminator 9 # /home/patmos/github/bachelor_project_HLS/candidates/MachSuite/common/support.c:139:1
	movq	-56(%rbp), %rax         # 8-byte Reload
	cmpq	-72(%rbp), %rax         # 8-byte Folded Reload
	jge	.LBB10_8
.Ltmp464:
# BB#4:                                 # %while.body
                                        #   in Loop: Header=BB10_2 Depth=1
	#DEBUG_VALUE: parse_int64_t_array:i <- 0
	#DEBUG_VALUE: parse_int64_t_array:endptr <- R12
	movl	$14, %edi
	callq	_KPushCDep
.Ltmp465:
	#DEBUG_VALUE: parse_int64_t_array:endptr <- [RBP+-80]
	movl	$2, %edi
	movl	$8, %edx
	leaq	-48(%rbp), %rbx
.Ltmp466:
	#DEBUG_VALUE: parse_int64_t_array:endptr <- [RBX+0]
	movq	%rbx, %rsi
	callq	_KStore
	movl	$10, %edi
	callq	_KWork
	.loc	3 139 1 discriminator 10 # /home/patmos/github/bachelor_project_HLS/candidates/MachSuite/common/support.c:139:1
.Ltmp467:
	movq	%r12, -48(%rbp)
	xorl	%esi, %esi
	movabsq	$-5349638365116220657, %rdi # imm = 0xB5C2444022723B0F
	callq	_KPrepCall
	callq	_KEnqArgConst
	movl	$3, %edi
	callq	_KLinkReturn
	movl	$10, %edx
	movq	%r12, %rdi
	movq	%rbx, %rsi
	callq	strtol
	movq	%rax, %r14
.Ltmp468:
	#DEBUG_VALUE: parse_int64_t_array:v <- R14
	movl	$4, %esi
	movl	$8, %edx
	movq	%rbx, %rdi
.Ltmp469:
	#DEBUG_VALUE: parse_int64_t_array:endptr <- [RBP+-80]
	callq	_KLoad0
	.loc	3 139 1                 # /home/patmos/github/bachelor_project_HLS/candidates/MachSuite/common/support.c:139:1
.Ltmp470:
	movq	-48(%rbp), %rbx
	movl	$5, %esi
	movl	$1, %edx
	movq	%rbx, %rdi
	callq	_KLoad0
	movb	(%rbx), %bl
	movl	$3, %edi
	movl	$3, %esi
	xorl	%edx, %edx
	callq	_KTimestamp1
	movl	$18, %edi
	movl	$14, %esi
	movl	$1, %edx
	movl	$5, %ecx
	movl	$1, %r8d
	callq	_KTimestamp2
	callq	_KPopCDep
	cmpb	$0, %bl
	je	.LBB10_6
.Ltmp471:
# BB#5:                                 # %if.then
                                        #   in Loop: Header=BB10_2 Depth=1
	#DEBUG_VALUE: parse_int64_t_array:i <- 0
	#DEBUG_VALUE: parse_int64_t_array:endptr <- R12
	#DEBUG_VALUE: parse_int64_t_array:endptr <- [RBP+-80]
	#DEBUG_VALUE: parse_int64_t_array:v <- R14
	movl	$18, %edi
	callq	_KPushCDep
	movl	$stderr, %edi
	movl	$6, %esi
	movl	$8, %edx
	callq	_KLoad0
	movl	$4, %edi
	callq	_KWork
	.loc	3 139 1 discriminator 12 # /home/patmos/github/bachelor_project_HLS/candidates/MachSuite/common/support.c:139:1
.Ltmp472:
	movq	stderr(%rip), %rdi
	movl	$.L.str14, %esi
	xorl	%eax, %eax
	movq	-56(%rbp), %rdx         # 8-byte Reload
                                        # kill: EDX<def> EDX<kill> RDX<kill>
	callq	fprintf
	callq	_KPopCDep
	jmp	.LBB10_6
.Ltmp473:
.LBB10_7:                               # %land.end.pre_exit.while.end.critedge
	#DEBUG_VALUE: parse_int64_t_array:i <- 0
	movl	$12, %edi
	callq	_KPushCDep
	xorl	%ebx, %ebx
	movl	$14, %edi
	movl	$14, %esi
	xorl	%edx, %edx
	callq	_KTimestamp1
	movl	$14, %edi
	xorl	%esi, %esi
	movl	$12, %edx
	movl	$15, %ecx
	callq	_KPhi2To1
	callq	_KPopCDep
	xorl	%r12d, %r12d
.LBB10_8:                               # %land.end.pre_exit.while.end
	#DEBUG_VALUE: parse_int64_t_array:i <- 0
	movl	$2, %esi
	movabsq	$-5650286517120539828, %rdi # imm = 0xB196265963D9E34C
	callq	_KExitRegion
	movl	$1, %esi
	movabsq	$-3670769202316478557, %rdi # imm = 0xCD0ECEDBEB7B77A3
	callq	_KExitRegion
	movl	$12, %edi
	callq	_KPushCDep
	movl	$1, %edi
	callq	_KWork
	movl	$19, %edi
	movl	$13, %esi
	movl	$2, %edx
	movl	$2, %ecx
	movl	$1, %r8d
	callq	_KTimestamp2
	callq	_KPopCDep
	.loc	3 139 1                 # /home/patmos/github/bachelor_project_HLS/candidates/MachSuite/common/support.c:139:1
	testb	%bl, %bl
	je	.LBB10_10
# BB#9:                                 # %if.then12
	#DEBUG_VALUE: parse_int64_t_array:i <- 0
	movl	$19, %edi
	callq	_KPushCDep
	movl	$1, %edi
	callq	_KWork
	movabsq	$7769170973317669538, %rdi # imm = 0x6BD1A3D65FE022A2
	xorl	%esi, %esi
	callq	_KPrepCall
	movl	$8, %edi
	callq	_KLinkReturn
	.loc	3 139 1 discriminator 16 # /home/patmos/github/bachelor_project_HLS/candidates/MachSuite/common/support.c:139:1
.Ltmp474:
	movq	%r12, %rdi
	callq	strlen
	movq	%rax, %rbx
	leaq	(%r12,%rbx), %rdi
	movl	$1, %esi
	callq	_KStoreConst
	movb	$10, (%r12,%rbx)
	callq	_KPopCDep
.Ltmp475:
.LBB10_10:                              # %if.end15
	#DEBUG_VALUE: parse_int64_t_array:i <- 0
	movl	$12, %edi
	callq	_KPushCDep
	callq	_KReturnConst
	callq	_KPopCDep
	xorl	%esi, %esi
	movabsq	$-4394163279587129986, %rdi # imm = 0xC304CBC74B24C57E
	callq	_KExitRegion
	xorl	%eax, %eax
	.loc	3 139 1 discriminator 18 # /home/patmos/github/bachelor_project_HLS/candidates/MachSuite/common/support.c:139:1
.Ltmp476:
	addq	$56, %rsp
	popq	%rbx
	popq	%r12
	popq	%r13
	popq	%r14
	popq	%r15
	popq	%rbp
	retq
.Ltmp477:
.LBB10_11:                              # %cond.false
	#DEBUG_VALUE: parse_int64_t_array:i <- 0
	movabsq	$-6232883102892479993, %rdi # imm = 0xA98059D7558F2A07
	xorl	%esi, %esi
	callq	_KPrepCall
	callq	_KEnqArgConst
	xorl	%esi, %esi
	movabsq	$-4394163279587129986, %rdi # imm = 0xC304CBC74B24C57E
	callq	_KExitRegion
	.loc	3 139 1 discriminator 4 # /home/patmos/github/bachelor_project_HLS/candidates/MachSuite/common/support.c:139:1
.Ltmp478:
	movl	$.L.str12, %edi
	movl	$.L.str2, %esi
	movl	$139, %edx
	movl	$.L__PRETTY_FUNCTION__.parse_int64_t_array, %ecx
	callq	__assert_fail
.Ltmp479:
.Ltmp480:
	.size	parse_int64_t_array, .Ltmp480-parse_int64_t_array
.Lfunc_end10:
	.cfi_endproc

	.globl	parse_float_array
	.align	16, 0x90
	.type	parse_float_array,@function
parse_float_array:                      # @parse_float_array
.Lfunc_begin11:
	.loc	3 141 0 is_stmt 1       # /home/patmos/github/bachelor_project_HLS/candidates/MachSuite/common/support.c:141:0
	.cfi_startproc
# BB#0:                                 # %entry
	pushq	%rbp
.Ltmp481:
	.cfi_def_cfa_offset 16
.Ltmp482:
	.cfi_offset %rbp, -16
	movq	%rsp, %rbp
.Ltmp483:
	.cfi_def_cfa_register %rbp
	pushq	%r15
	pushq	%r14
	pushq	%r13
	pushq	%r12
	pushq	%rbx
	subq	$56, %rsp
.Ltmp484:
	.cfi_offset %rbx, -56
.Ltmp485:
	.cfi_offset %r12, -48
.Ltmp486:
	.cfi_offset %r13, -40
.Ltmp487:
	.cfi_offset %r14, -32
.Ltmp488:
	.cfi_offset %r15, -24
	#DEBUG_VALUE: parse_float_array:s <- RDI
	#DEBUG_VALUE: parse_float_array:arr <- RSI
	#DEBUG_VALUE: parse_float_array:n <- EDX
	movl	%edx, %r14d
.Ltmp489:
	#DEBUG_VALUE: parse_float_array:n <- R14D
	movq	%rsi, -64(%rbp)         # 8-byte Spill
.Ltmp490:
	#DEBUG_VALUE: parse_float_array:arr <- [RBP+-64]
	movq	%rdi, %rbx
.Ltmp491:
	#DEBUG_VALUE: parse_float_array:s <- RBX
	movabsq	$-8044861637768995244, %rdi # imm = 0x905AE8F6C59C9E54
	xorl	%esi, %esi
	callq	_KEnterRegion
	movl	$20, %edi
	movl	$2, %esi
	callq	_KPrepRTable
	movl	$1, %edi
	callq	_KWork
	movl	$1, %edi
	callq	_KDeqArg
.Ltmp492:
	#DEBUG_VALUE: parse_float_array:i <- 0
	movl	$12, %edi
	movl	$13, %esi
	movl	$1, %edx
	callq	_KTimestamp1
	movl	$12, %edi
	callq	_KPushCDep
	.loc	3 141 1 prologue_end    # /home/patmos/github/bachelor_project_HLS/candidates/MachSuite/common/support.c:141:1
.Ltmp493:
	testq	%rbx, %rbx
	je	.LBB11_11
.Ltmp494:
# BB#1:                                 # %cond.end
	#DEBUG_VALUE: parse_float_array:s <- RBX
	#DEBUG_VALUE: parse_float_array:arr <- [RBP+-64]
	#DEBUG_VALUE: parse_float_array:n <- R14D
	#DEBUG_VALUE: parse_float_array:i <- 0
	movabsq	$1990351644397210770, %r15 # imm = 0x1B9F264676690C92
	movabsq	$-7762860358498442095, %rdi # imm = 0x9444C7A222BD2491
	xorl	%esi, %esi
	callq	_KPrepCall
	.loc	3 141 1 is_stmt 0 discriminator 6 # /home/patmos/github/bachelor_project_HLS/candidates/MachSuite/common/support.c:141:1
.Ltmp495:
	movl	$.L.str13, %esi
	movq	%rbx, %rdi
	callq	strtok
	movq	%rax, %r12
.Ltmp496:
	#DEBUG_VALUE: parse_float_array:line <- R12
	movslq	%r14d, %rax
	movq	%rax, -80(%rbp)         # 8-byte Spill
	movl	$10, %r14d
.Ltmp497:
	movl	$10, %edi
	movl	$10, %esi
	xorl	%edx, %edx
	callq	_KTimestamp1
	movl	$9, %edi
	callq	_KInduction
	movl	$17, %edi
	movl	$1, %esi
	xorl	%edx, %edx
	movl	$13, %ecx
	movl	$1, %r8d
	callq	_KTimestamp2
	callq	_KPopCDep
	movl	$1, %esi
	movq	%r15, %rdi
	callq	_KEnterRegion
	movabsq	$8539312347214916176, %rbx # imm = 0x7681BB5629DA2A50
.Ltmp498:
	xorl	%eax, %eax
	movq	%rax, -56(%rbp)         # 8-byte Spill
	xorl	%r13d, %r13d
	jmp	.LBB11_2
.Ltmp499:
	.align	16, 0x90
.LBB11_6:                               # %if.end
                                        #   in Loop: Header=BB11_2 Depth=1
	#DEBUG_VALUE: parse_float_array:i <- 0
	#DEBUG_VALUE: parse_float_array:endptr <- R12
	#DEBUG_VALUE: parse_float_array:endptr <- [RBP+-72]
	#DEBUG_VALUE: parse_float_array:v <- [RBP+-72]
	movl	$14, %r13d
	movl	$14, %edi
	callq	_KPushCDep
	movl	$2, %edi
	callq	_KWork
	movl	$3, %edi
	movl	$4, %edx
	movq	-64(%rbp), %r15         # 8-byte Reload
	movq	%r15, %rsi
	callq	_KStore
	.loc	3 141 1 discriminator 14 # /home/patmos/github/bachelor_project_HLS/candidates/MachSuite/common/support.c:141:1
.Ltmp500:
	movss	-72(%rbp), %xmm0        # 4-byte Reload
	movss	%xmm0, (%r15)
.Ltmp501:
	.loc	3 141 1                 # /home/patmos/github/bachelor_project_HLS/candidates/MachSuite/common/support.c:141:1
	incq	%r14
	movq	%r14, -56(%rbp)         # 8-byte Spill
	xorl	%esi, %esi
	movabsq	$-7778131576453433298, %rdi # imm = 0x940E868AA13E782E
	callq	_KPrepCall
	movl	$7, %edi
	callq	_KLinkReturn
	.loc	3 141 1 discriminator 14 # /home/patmos/github/bachelor_project_HLS/candidates/MachSuite/common/support.c:141:1
.Ltmp502:
	movq	%r12, %rdi
	callq	strlen
	movq	%rax, %rbx
	leaq	(%r12,%rbx), %rdi
	movl	$1, %esi
	callq	_KStoreConst
	movb	$10, (%r12,%rbx)
	xorl	%esi, %esi
	movabsq	$6526825203786778168, %rdi # imm = 0x5A93F0F136C70638
	callq	_KPrepCall
	xorl	%edi, %edi
.Ltmp503:
	.loc	3 141 1 discriminator 6 # /home/patmos/github/bachelor_project_HLS/candidates/MachSuite/common/support.c:141:1
	movl	$.L.str13, %esi
.Ltmp504:
	.loc	3 141 1 discriminator 14 # /home/patmos/github/bachelor_project_HLS/candidates/MachSuite/common/support.c:141:1
	callq	strtok
	movq	%rax, %r12
.Ltmp505:
	#DEBUG_VALUE: parse_float_array:line <- R12
	movl	$11, %r14d
	movl	$11, %edi
	movl	$11, %esi
	xorl	%edx, %edx
	callq	_KTimestamp1
	callq	_KPopCDep
	movl	$2, %esi
	movabsq	$8539312347214916176, %rbx # imm = 0x7681BB5629DA2A50
	movq	%rbx, %rdi
	callq	_KExitRegion
	addq	$4, %r15
	movq	%r15, -64(%rbp)         # 8-byte Spill
.Ltmp506:
.LBB11_2:                               # %while.cond
                                        # =>This Inner Loop Header: Depth=1
	#DEBUG_VALUE: parse_float_array:i <- 0
	#DEBUG_VALUE: parse_float_array:endptr <- R12
	movl	$2, %esi
	movq	%rbx, %rdi
	callq	_KEnterRegion
	movl	$12, %edi
	callq	_KPushCDep
	movl	$2, %edi
	movl	$12, %edx
	movl	%r14d, %esi
	movl	%r13d, %ecx
	callq	_KPhi2To1
	movl	$1, %edi
	callq	_KWork
	movl	$2, %edi
	movl	$2, %esi
	xorl	%edx, %edx
	callq	_KTimestamp1
	movl	$9, %edi
	movl	$9, %esi
	xorl	%edx, %edx
	callq	_KTimestamp1
	movl	$15, %edi
	movl	$2, %esi
	movl	$1, %edx
	movl	$12, %ecx
	movl	$1, %r8d
	callq	_KTimestamp2
	callq	_KPopCDep
	.loc	3 141 1 discriminator 15 # /home/patmos/github/bachelor_project_HLS/candidates/MachSuite/common/support.c:141:1
.Ltmp507:
	testq	%r12, %r12
	je	.LBB11_7
.Ltmp508:
# BB#3:                                 # %land.rhs
                                        #   in Loop: Header=BB11_2 Depth=1
	#DEBUG_VALUE: parse_float_array:i <- 0
	#DEBUG_VALUE: parse_float_array:endptr <- R12
	movl	$15, %edi
	callq	_KPushCDep
	movl	$1, %edi
	callq	_KWork
	movl	$1, (%rsp)
	movl	$16, %edi
	movl	$17, %esi
	movl	$1, %edx
	movl	$9, %ecx
	movl	$1, %r8d
	movl	$15, %r9d
	callq	_KTimestamp3
	callq	_KPopCDep
	movl	$12, %edi
	callq	_KPushCDep
	movl	$14, %edi
	movl	$16, %esi
	movl	$12, %edx
	movl	$15, %ecx
	callq	_KPhi2To1
	movl	$14, %edi
	movl	$14, %esi
	xorl	%edx, %edx
	callq	_KTimestamp1
	callq	_KPopCDep
	movb	$1, %bl
	movq	-56(%rbp), %r14         # 8-byte Reload
	.loc	3 141 1 discriminator 9 # /home/patmos/github/bachelor_project_HLS/candidates/MachSuite/common/support.c:141:1
	cmpq	-80(%rbp), %r14         # 8-byte Folded Reload
	jge	.LBB11_8
.Ltmp509:
# BB#4:                                 # %while.body
                                        #   in Loop: Header=BB11_2 Depth=1
	#DEBUG_VALUE: parse_float_array:i <- 0
	#DEBUG_VALUE: parse_float_array:endptr <- R12
	movl	$14, %edi
	callq	_KPushCDep
	movl	$10, %edi
	callq	_KWork
.Ltmp510:
	#DEBUG_VALUE: parse_float_array:endptr <- [RBP+-72]
	movl	$2, %edi
	movl	$8, %edx
	leaq	-48(%rbp), %rbx
.Ltmp511:
	#DEBUG_VALUE: parse_float_array:endptr <- [RBX+0]
	movq	%rbx, %rsi
	callq	_KStore
	.loc	3 141 1 discriminator 10 # /home/patmos/github/bachelor_project_HLS/candidates/MachSuite/common/support.c:141:1
.Ltmp512:
	movq	%r12, -48(%rbp)
	xorl	%esi, %esi
	movabsq	$9140894353471226931, %rdi # imm = 0x7EDAFAFBE406C433
	callq	_KPrepCall
	movl	$3, %edi
	callq	_KLinkReturn
	movq	%r12, %rdi
	movq	%rbx, %rsi
	callq	strtof
	movss	%xmm0, -72(%rbp)        # 4-byte Spill
	#DEBUG_VALUE: parse_float_array:v <- [RBP+-72]
	movl	$4, %esi
	movl	$8, %edx
	movq	%rbx, %rdi
.Ltmp513:
	#DEBUG_VALUE: parse_float_array:endptr <- [RBP+-72]
	callq	_KLoad0
	.loc	3 141 1                 # /home/patmos/github/bachelor_project_HLS/candidates/MachSuite/common/support.c:141:1
.Ltmp514:
	movq	-48(%rbp), %rbx
	movl	$5, %esi
	movl	$1, %edx
	movq	%rbx, %rdi
	callq	_KLoad0
	movb	(%rbx), %bl
	movl	$3, %edi
	movl	$3, %esi
	xorl	%edx, %edx
	callq	_KTimestamp1
	movl	$18, %edi
	movl	$14, %esi
	movl	$1, %edx
	movl	$5, %ecx
	movl	$1, %r8d
	callq	_KTimestamp2
	callq	_KPopCDep
	cmpb	$0, %bl
	je	.LBB11_6
# BB#5:                                 # %if.then
                                        #   in Loop: Header=BB11_2 Depth=1
	#DEBUG_VALUE: parse_float_array:i <- 0
.Ltmp515:
	#DEBUG_VALUE: parse_float_array:endptr <- R12
	#DEBUG_VALUE: parse_float_array:endptr <- [RBP+-72]
	#DEBUG_VALUE: parse_float_array:v <- [RBP+-72]
	movl	$18, %edi
	callq	_KPushCDep
	movl	$stderr, %edi
	movl	$6, %esi
	movl	$8, %edx
	callq	_KLoad0
	movl	$4, %edi
	callq	_KWork
	.loc	3 141 1 discriminator 12 # /home/patmos/github/bachelor_project_HLS/candidates/MachSuite/common/support.c:141:1
.Ltmp516:
	movq	stderr(%rip), %rdi
	movl	$.L.str14, %esi
	xorl	%eax, %eax
	movl	%r14d, %edx
	callq	fprintf
	callq	_KPopCDep
	jmp	.LBB11_6
.Ltmp517:
.LBB11_7:                               # %land.end.pre_exit.while.end.critedge
	#DEBUG_VALUE: parse_float_array:i <- 0
	movl	$12, %edi
	callq	_KPushCDep
	xorl	%ebx, %ebx
	movl	$14, %edi
	xorl	%esi, %esi
	movl	$12, %edx
	movl	$15, %ecx
	callq	_KPhi2To1
	movl	$14, %edi
	movl	$14, %esi
	xorl	%edx, %edx
	callq	_KTimestamp1
	callq	_KPopCDep
	xorl	%r12d, %r12d
.LBB11_8:                               # %land.end.pre_exit.while.end
	#DEBUG_VALUE: parse_float_array:i <- 0
	movl	$2, %esi
	movabsq	$8539312347214916176, %rdi # imm = 0x7681BB5629DA2A50
	callq	_KExitRegion
	movl	$1, %esi
	movabsq	$1990351644397210770, %rdi # imm = 0x1B9F264676690C92
	callq	_KExitRegion
	movl	$12, %edi
	callq	_KPushCDep
	movl	$1, %edi
	callq	_KWork
	movl	$19, %edi
	movl	$13, %esi
	movl	$2, %edx
	movl	$2, %ecx
	movl	$1, %r8d
	callq	_KTimestamp2
	callq	_KPopCDep
	.loc	3 141 1                 # /home/patmos/github/bachelor_project_HLS/candidates/MachSuite/common/support.c:141:1
	testb	%bl, %bl
	je	.LBB11_10
# BB#9:                                 # %if.then12
	#DEBUG_VALUE: parse_float_array:i <- 0
	movl	$19, %edi
	callq	_KPushCDep
	movabsq	$-3680340716227581862, %rdi # imm = 0xCCECCD9E2CD9285A
	xorl	%esi, %esi
	callq	_KPrepCall
	movl	$8, %edi
	callq	_KLinkReturn
	movl	$1, %edi
	callq	_KWork
	.loc	3 141 1 discriminator 16 # /home/patmos/github/bachelor_project_HLS/candidates/MachSuite/common/support.c:141:1
.Ltmp518:
	movq	%r12, %rdi
	callq	strlen
	movq	%rax, %rbx
	leaq	(%r12,%rbx), %rdi
	movl	$1, %esi
	callq	_KStoreConst
	movb	$10, (%r12,%rbx)
	callq	_KPopCDep
.Ltmp519:
.LBB11_10:                              # %if.end15
	#DEBUG_VALUE: parse_float_array:i <- 0
	movl	$12, %edi
	callq	_KPushCDep
	callq	_KReturnConst
	callq	_KPopCDep
	xorl	%esi, %esi
	movabsq	$-8044861637768995244, %rdi # imm = 0x905AE8F6C59C9E54
	callq	_KExitRegion
	xorl	%eax, %eax
	.loc	3 141 1 discriminator 18 # /home/patmos/github/bachelor_project_HLS/candidates/MachSuite/common/support.c:141:1
.Ltmp520:
	addq	$56, %rsp
	popq	%rbx
	popq	%r12
	popq	%r13
	popq	%r14
	popq	%r15
	popq	%rbp
	retq
.Ltmp521:
.LBB11_11:                              # %cond.false
	#DEBUG_VALUE: parse_float_array:i <- 0
	movabsq	$-3231765418337923234, %rdi # imm = 0xD326767982938F5E
	xorl	%esi, %esi
	callq	_KPrepCall
	callq	_KEnqArgConst
	xorl	%esi, %esi
	movabsq	$-8044861637768995244, %rdi # imm = 0x905AE8F6C59C9E54
	callq	_KExitRegion
	.loc	3 141 1 discriminator 4 # /home/patmos/github/bachelor_project_HLS/candidates/MachSuite/common/support.c:141:1
.Ltmp522:
	movl	$.L.str12, %edi
	movl	$.L.str2, %esi
	movl	$141, %edx
	movl	$.L__PRETTY_FUNCTION__.parse_float_array, %ecx
	callq	__assert_fail
.Ltmp523:
.Ltmp524:
	.size	parse_float_array, .Ltmp524-parse_float_array
.Lfunc_end11:
	.cfi_endproc

	.globl	parse_double_array
	.align	16, 0x90
	.type	parse_double_array,@function
parse_double_array:                     # @parse_double_array
.Lfunc_begin12:
	.loc	3 142 0 is_stmt 1       # /home/patmos/github/bachelor_project_HLS/candidates/MachSuite/common/support.c:142:0
	.cfi_startproc
# BB#0:                                 # %entry
	pushq	%rbp
.Ltmp525:
	.cfi_def_cfa_offset 16
.Ltmp526:
	.cfi_offset %rbp, -16
	movq	%rsp, %rbp
.Ltmp527:
	.cfi_def_cfa_register %rbp
	pushq	%r15
	pushq	%r14
	pushq	%r13
	pushq	%r12
	pushq	%rbx
	subq	$56, %rsp
.Ltmp528:
	.cfi_offset %rbx, -56
.Ltmp529:
	.cfi_offset %r12, -48
.Ltmp530:
	.cfi_offset %r13, -40
.Ltmp531:
	.cfi_offset %r14, -32
.Ltmp532:
	.cfi_offset %r15, -24
	#DEBUG_VALUE: parse_double_array:s <- RDI
	#DEBUG_VALUE: parse_double_array:arr <- RSI
	#DEBUG_VALUE: parse_double_array:n <- EDX
	movl	%edx, %r14d
.Ltmp533:
	#DEBUG_VALUE: parse_double_array:n <- R14D
	movq	%rsi, -64(%rbp)         # 8-byte Spill
.Ltmp534:
	#DEBUG_VALUE: parse_double_array:arr <- [RBP+-64]
	movq	%rdi, %rbx
.Ltmp535:
	#DEBUG_VALUE: parse_double_array:s <- RBX
	movabsq	$-2681809680890785728, %rdi # imm = 0xDAC84C4DD74D1040
	xorl	%esi, %esi
	callq	_KEnterRegion
	movl	$20, %edi
	movl	$2, %esi
	callq	_KPrepRTable
	movl	$1, %edi
	callq	_KWork
	movl	$1, %edi
	callq	_KDeqArg
.Ltmp536:
	#DEBUG_VALUE: parse_double_array:i <- 0
	movl	$12, %edi
	movl	$13, %esi
	movl	$1, %edx
	callq	_KTimestamp1
	movl	$12, %edi
	callq	_KPushCDep
	.loc	3 142 1 prologue_end    # /home/patmos/github/bachelor_project_HLS/candidates/MachSuite/common/support.c:142:1
.Ltmp537:
	testq	%rbx, %rbx
	je	.LBB12_11
.Ltmp538:
# BB#1:                                 # %cond.end
	#DEBUG_VALUE: parse_double_array:s <- RBX
	#DEBUG_VALUE: parse_double_array:arr <- [RBP+-64]
	#DEBUG_VALUE: parse_double_array:n <- R14D
	#DEBUG_VALUE: parse_double_array:i <- 0
	movabsq	$-4744440632313635901, %r15 # imm = 0xBE285C61CD041BC3
	movabsq	$-5731589515742162032, %rdi # imm = 0xB0754DB3E3D5D390
	xorl	%esi, %esi
	callq	_KPrepCall
	.loc	3 142 1 is_stmt 0 discriminator 6 # /home/patmos/github/bachelor_project_HLS/candidates/MachSuite/common/support.c:142:1
.Ltmp539:
	movl	$.L.str13, %esi
	movq	%rbx, %rdi
	callq	strtok
	movq	%rax, %r12
.Ltmp540:
	#DEBUG_VALUE: parse_double_array:line <- R12
	movslq	%r14d, %rax
	movq	%rax, -80(%rbp)         # 8-byte Spill
	movl	$17, %edi
	movl	$1, %esi
	xorl	%edx, %edx
	movl	$13, %ecx
	movl	$1, %r8d
	callq	_KTimestamp2
	movl	$9, %edi
	callq	_KInduction
	movl	$10, %r14d
.Ltmp541:
	movl	$10, %edi
	movl	$10, %esi
	xorl	%edx, %edx
	callq	_KTimestamp1
	callq	_KPopCDep
	movl	$1, %esi
	movq	%r15, %rdi
	callq	_KEnterRegion
	movabsq	$-2938561679880914458, %rbx # imm = 0xD73821B8A81F79E6
.Ltmp542:
	xorl	%eax, %eax
	movq	%rax, -56(%rbp)         # 8-byte Spill
	xorl	%r13d, %r13d
	jmp	.LBB12_2
.Ltmp543:
	.align	16, 0x90
.LBB12_6:                               # %if.end
                                        #   in Loop: Header=BB12_2 Depth=1
	#DEBUG_VALUE: parse_double_array:i <- 0
	#DEBUG_VALUE: parse_double_array:endptr <- R12
	#DEBUG_VALUE: parse_double_array:endptr <- [RBP+-72]
	#DEBUG_VALUE: parse_double_array:v <- [RBP+-72]
	movl	$14, %r13d
	movl	$14, %edi
	callq	_KPushCDep
	movl	$2, %edi
	callq	_KWork
	movl	$3, %edi
	movl	$8, %edx
	movq	-64(%rbp), %r15         # 8-byte Reload
	movq	%r15, %rsi
	callq	_KStore
	.loc	3 142 1 discriminator 14 # /home/patmos/github/bachelor_project_HLS/candidates/MachSuite/common/support.c:142:1
.Ltmp544:
	movsd	-72(%rbp), %xmm0        # 8-byte Reload
	movsd	%xmm0, (%r15)
.Ltmp545:
	.loc	3 142 1                 # /home/patmos/github/bachelor_project_HLS/candidates/MachSuite/common/support.c:142:1
	incq	%r14
	movq	%r14, -56(%rbp)         # 8-byte Spill
	xorl	%esi, %esi
	movabsq	$-8178462730121442622, %rdi # imm = 0x8E80437A72570AC2
	callq	_KPrepCall
	movl	$7, %edi
	callq	_KLinkReturn
	.loc	3 142 1 discriminator 14 # /home/patmos/github/bachelor_project_HLS/candidates/MachSuite/common/support.c:142:1
.Ltmp546:
	movq	%r12, %rdi
	callq	strlen
	movq	%rax, %rbx
	leaq	(%r12,%rbx), %rdi
	movl	$1, %esi
	callq	_KStoreConst
	movb	$10, (%r12,%rbx)
	xorl	%esi, %esi
	movabsq	$3504899840561812114, %rdi # imm = 0x30A3E7D5D2029292
	callq	_KPrepCall
	xorl	%edi, %edi
.Ltmp547:
	.loc	3 142 1 discriminator 6 # /home/patmos/github/bachelor_project_HLS/candidates/MachSuite/common/support.c:142:1
	movl	$.L.str13, %esi
.Ltmp548:
	.loc	3 142 1 discriminator 14 # /home/patmos/github/bachelor_project_HLS/candidates/MachSuite/common/support.c:142:1
	callq	strtok
	movq	%rax, %r12
.Ltmp549:
	#DEBUG_VALUE: parse_double_array:line <- R12
	movl	$11, %r14d
	movl	$11, %edi
	movl	$11, %esi
	xorl	%edx, %edx
	callq	_KTimestamp1
	callq	_KPopCDep
	movl	$2, %esi
	movabsq	$-2938561679880914458, %rbx # imm = 0xD73821B8A81F79E6
	movq	%rbx, %rdi
	callq	_KExitRegion
	addq	$8, %r15
	movq	%r15, -64(%rbp)         # 8-byte Spill
.Ltmp550:
.LBB12_2:                               # %while.cond
                                        # =>This Inner Loop Header: Depth=1
	#DEBUG_VALUE: parse_double_array:i <- 0
	#DEBUG_VALUE: parse_double_array:endptr <- R12
	movl	$2, %esi
	movq	%rbx, %rdi
	callq	_KEnterRegion
	movl	$12, %edi
	callq	_KPushCDep
	movl	$2, %edi
	movl	$12, %edx
	movl	%r14d, %esi
	movl	%r13d, %ecx
	callq	_KPhi2To1
	movl	$1, %edi
	callq	_KWork
	movl	$2, %edi
	movl	$2, %esi
	xorl	%edx, %edx
	callq	_KTimestamp1
	movl	$9, %edi
	movl	$9, %esi
	xorl	%edx, %edx
	callq	_KTimestamp1
	movl	$15, %edi
	movl	$12, %esi
	movl	$1, %edx
	movl	$2, %ecx
	movl	$1, %r8d
	callq	_KTimestamp2
	callq	_KPopCDep
	.loc	3 142 1 discriminator 15 # /home/patmos/github/bachelor_project_HLS/candidates/MachSuite/common/support.c:142:1
.Ltmp551:
	testq	%r12, %r12
	je	.LBB12_7
.Ltmp552:
# BB#3:                                 # %land.rhs
                                        #   in Loop: Header=BB12_2 Depth=1
	#DEBUG_VALUE: parse_double_array:i <- 0
	#DEBUG_VALUE: parse_double_array:endptr <- R12
	movl	$15, %edi
	callq	_KPushCDep
	movl	$1, %edi
	callq	_KWork
	movl	$1, (%rsp)
	movl	$16, %edi
	movl	$17, %esi
	movl	$1, %edx
	movl	$9, %ecx
	movl	$1, %r8d
	movl	$15, %r9d
	callq	_KTimestamp3
	callq	_KPopCDep
	movl	$12, %edi
	callq	_KPushCDep
	movl	$14, %edi
	movl	$14, %esi
	xorl	%edx, %edx
	callq	_KTimestamp1
	movl	$14, %edi
	movl	$16, %esi
	movl	$12, %edx
	movl	$15, %ecx
	callq	_KPhi2To1
	callq	_KPopCDep
	movb	$1, %bl
	movq	-56(%rbp), %r14         # 8-byte Reload
	.loc	3 142 1 discriminator 9 # /home/patmos/github/bachelor_project_HLS/candidates/MachSuite/common/support.c:142:1
	cmpq	-80(%rbp), %r14         # 8-byte Folded Reload
	jge	.LBB12_8
.Ltmp553:
# BB#4:                                 # %while.body
                                        #   in Loop: Header=BB12_2 Depth=1
	#DEBUG_VALUE: parse_double_array:i <- 0
	#DEBUG_VALUE: parse_double_array:endptr <- R12
	movl	$14, %edi
	callq	_KPushCDep
.Ltmp554:
	#DEBUG_VALUE: parse_double_array:endptr <- [RBP+-72]
	movl	$2, %edi
	movl	$8, %edx
	leaq	-48(%rbp), %rbx
.Ltmp555:
	#DEBUG_VALUE: parse_double_array:endptr <- [RBX+0]
	movq	%rbx, %rsi
	callq	_KStore
	movl	$10, %edi
	callq	_KWork
	.loc	3 142 1 discriminator 10 # /home/patmos/github/bachelor_project_HLS/candidates/MachSuite/common/support.c:142:1
.Ltmp556:
	movq	%r12, -48(%rbp)
	xorl	%esi, %esi
	movabsq	$495476040992757587, %rdi # imm = 0x6E048D58A171753
	callq	_KPrepCall
	movl	$3, %edi
	callq	_KLinkReturn
	movq	%r12, %rdi
	movq	%rbx, %rsi
	callq	strtod
	movsd	%xmm0, -72(%rbp)        # 8-byte Spill
	#DEBUG_VALUE: parse_double_array:v <- [RBP+-72]
	movl	$4, %esi
	movl	$8, %edx
	movq	%rbx, %rdi
.Ltmp557:
	#DEBUG_VALUE: parse_double_array:endptr <- [RBP+-72]
	callq	_KLoad0
	.loc	3 142 1                 # /home/patmos/github/bachelor_project_HLS/candidates/MachSuite/common/support.c:142:1
.Ltmp558:
	movq	-48(%rbp), %rbx
	movl	$5, %esi
	movl	$1, %edx
	movq	%rbx, %rdi
	callq	_KLoad0
	movb	(%rbx), %bl
	movl	$3, %edi
	movl	$3, %esi
	xorl	%edx, %edx
	callq	_KTimestamp1
	movl	$18, %edi
	movl	$14, %esi
	movl	$1, %edx
	movl	$5, %ecx
	movl	$1, %r8d
	callq	_KTimestamp2
	callq	_KPopCDep
	cmpb	$0, %bl
	je	.LBB12_6
# BB#5:                                 # %if.then
                                        #   in Loop: Header=BB12_2 Depth=1
	#DEBUG_VALUE: parse_double_array:i <- 0
.Ltmp559:
	#DEBUG_VALUE: parse_double_array:endptr <- R12
	#DEBUG_VALUE: parse_double_array:endptr <- [RBP+-72]
	#DEBUG_VALUE: parse_double_array:v <- [RBP+-72]
	movl	$18, %edi
	callq	_KPushCDep
	movl	$4, %edi
	callq	_KWork
	movl	$stderr, %edi
	movl	$6, %esi
	movl	$8, %edx
	callq	_KLoad0
	.loc	3 142 1 discriminator 12 # /home/patmos/github/bachelor_project_HLS/candidates/MachSuite/common/support.c:142:1
.Ltmp560:
	movq	stderr(%rip), %rdi
	movl	$.L.str14, %esi
	xorl	%eax, %eax
	movl	%r14d, %edx
	callq	fprintf
	callq	_KPopCDep
	jmp	.LBB12_6
.Ltmp561:
.LBB12_7:                               # %land.end.pre_exit.while.end.critedge
	#DEBUG_VALUE: parse_double_array:i <- 0
	movl	$12, %edi
	callq	_KPushCDep
	xorl	%ebx, %ebx
	movl	$14, %edi
	movl	$14, %esi
	xorl	%edx, %edx
	callq	_KTimestamp1
	movl	$14, %edi
	xorl	%esi, %esi
	movl	$12, %edx
	movl	$15, %ecx
	callq	_KPhi2To1
	callq	_KPopCDep
	xorl	%r12d, %r12d
.LBB12_8:                               # %land.end.pre_exit.while.end
	#DEBUG_VALUE: parse_double_array:i <- 0
	movl	$2, %esi
	movabsq	$-2938561679880914458, %rdi # imm = 0xD73821B8A81F79E6
	callq	_KExitRegion
	movl	$1, %esi
	movabsq	$-4744440632313635901, %rdi # imm = 0xBE285C61CD041BC3
	callq	_KExitRegion
	movl	$12, %edi
	callq	_KPushCDep
	movl	$1, %edi
	callq	_KWork
	movl	$19, %edi
	movl	$13, %esi
	movl	$2, %edx
	movl	$2, %ecx
	movl	$1, %r8d
	callq	_KTimestamp2
	callq	_KPopCDep
	.loc	3 142 1                 # /home/patmos/github/bachelor_project_HLS/candidates/MachSuite/common/support.c:142:1
	testb	%bl, %bl
	je	.LBB12_10
# BB#9:                                 # %if.then12
	#DEBUG_VALUE: parse_double_array:i <- 0
	movl	$19, %edi
	callq	_KPushCDep
	movl	$1, %edi
	callq	_KWork
	movabsq	$2102465565156816173, %rdi # imm = 0x1D2D754ACBA9B52D
	xorl	%esi, %esi
	callq	_KPrepCall
	movl	$8, %edi
	callq	_KLinkReturn
	.loc	3 142 1 discriminator 16 # /home/patmos/github/bachelor_project_HLS/candidates/MachSuite/common/support.c:142:1
.Ltmp562:
	movq	%r12, %rdi
	callq	strlen
	movq	%rax, %rbx
	leaq	(%r12,%rbx), %rdi
	movl	$1, %esi
	callq	_KStoreConst
	movb	$10, (%r12,%rbx)
	callq	_KPopCDep
.Ltmp563:
.LBB12_10:                              # %if.end15
	#DEBUG_VALUE: parse_double_array:i <- 0
	movl	$12, %edi
	callq	_KPushCDep
	callq	_KReturnConst
	callq	_KPopCDep
	xorl	%esi, %esi
	movabsq	$-2681809680890785728, %rdi # imm = 0xDAC84C4DD74D1040
	callq	_KExitRegion
	xorl	%eax, %eax
	.loc	3 142 1 discriminator 18 # /home/patmos/github/bachelor_project_HLS/candidates/MachSuite/common/support.c:142:1
.Ltmp564:
	addq	$56, %rsp
	popq	%rbx
	popq	%r12
	popq	%r13
	popq	%r14
	popq	%r15
	popq	%rbp
	retq
.Ltmp565:
.LBB12_11:                              # %cond.false
	#DEBUG_VALUE: parse_double_array:i <- 0
	movabsq	$8200518727291590602, %rdi # imm = 0x71CE1855922757CA
	xorl	%esi, %esi
	callq	_KPrepCall
	callq	_KEnqArgConst
	xorl	%esi, %esi
	movabsq	$-2681809680890785728, %rdi # imm = 0xDAC84C4DD74D1040
	callq	_KExitRegion
	.loc	3 142 1 discriminator 4 # /home/patmos/github/bachelor_project_HLS/candidates/MachSuite/common/support.c:142:1
.Ltmp566:
	movl	$.L.str12, %edi
	movl	$.L.str2, %esi
	movl	$142, %edx
	movl	$.L__PRETTY_FUNCTION__.parse_double_array, %ecx
	callq	__assert_fail
.Ltmp567:
.Ltmp568:
	.size	parse_double_array, .Ltmp568-parse_double_array
.Lfunc_end12:
	.cfi_endproc

	.globl	write_string
	.align	16, 0x90
	.type	write_string,@function
write_string:                           # @write_string
.Lfunc_begin13:
	.loc	3 145 0 is_stmt 1       # /home/patmos/github/bachelor_project_HLS/candidates/MachSuite/common/support.c:145:0
	.cfi_startproc
# BB#0:                                 # %entry
	pushq	%rbp
.Ltmp569:
	.cfi_def_cfa_offset 16
.Ltmp570:
	.cfi_offset %rbp, -16
	movq	%rsp, %rbp
.Ltmp571:
	.cfi_def_cfa_register %rbp
	pushq	%r15
	pushq	%r14
	pushq	%r13
	pushq	%r12
	pushq	%rbx
	subq	$40, %rsp
.Ltmp572:
	.cfi_offset %rbx, -56
.Ltmp573:
	.cfi_offset %r12, -48
.Ltmp574:
	.cfi_offset %r13, -40
.Ltmp575:
	.cfi_offset %r14, -32
.Ltmp576:
	.cfi_offset %r15, -24
	#DEBUG_VALUE: write_string:fd <- EDI
	#DEBUG_VALUE: write_string:arr <- RSI
	#DEBUG_VALUE: write_string:n <- EDX
	movl	%edx, %r12d
.Ltmp577:
	#DEBUG_VALUE: write_string:n <- R12D
	movq	%rsi, -72(%rbp)         # 8-byte Spill
.Ltmp578:
	#DEBUG_VALUE: write_string:arr <- [RBP+-72]
	movl	%edi, %ebx
.Ltmp579:
	#DEBUG_VALUE: write_string:fd <- EBX
	movl	%ebx, -52(%rbp)         # 4-byte Spill
	movabsq	$-7202452009705221824, %r15 # imm = 0x9C0BC00EB1B8D140
	xorl	%esi, %esi
	movq	%r15, %rdi
	callq	_KEnterRegion
	movl	$2, %r14d
	movl	$18, %edi
	movl	$2, %esi
	callq	_KPrepRTable
	movl	$1, %edi
	callq	_KWork
	movl	$2, %edi
	callq	_KDeqArg
	movl	$1, %edi
	callq	_KDeqArg
	movl	$8, %edi
	movl	$1, %esi
	movl	$1, %edx
	callq	_KTimestamp1
	movl	$8, %edi
	callq	_KPushCDep
	.loc	3 147 3 prologue_end    # /home/patmos/github/bachelor_project_HLS/candidates/MachSuite/common/support.c:147:3
.Ltmp580:
	cmpl	$1, %ebx
.Ltmp581:
	#DEBUG_VALUE: write_string:fd <- [RBP+-52]
	jle	.LBB13_12
.Ltmp582:
# BB#1:                                 # %cond.end
	#DEBUG_VALUE: write_string:fd <- [RBP+-52]
	#DEBUG_VALUE: write_string:arr <- [RBP+-72]
	#DEBUG_VALUE: write_string:n <- R12D
	movl	$1, %edi
	callq	_KWork
	movl	$2, %edi
	movl	$2, %esi
	xorl	%edx, %edx
	callq	_KTimestamp1
	movl	$12, %edi
	movl	$2, %esi
	movl	$1, %edx
	movl	$1, %ecx
	movl	$2, %r8d
	callq	_KTimestamp2
	callq	_KPopCDep
	movabsq	$-2185286549680384431, %rbx # imm = 0xE1AC4D7611DC9651
	.loc	3 148 7                 # /home/patmos/github/bachelor_project_HLS/candidates/MachSuite/common/support.c:148:7
	testl	%r12d, %r12d
	jns	.LBB13_3
.Ltmp583:
# BB#2:                                 # %if.then
	#DEBUG_VALUE: write_string:fd <- [RBP+-52]
	#DEBUG_VALUE: write_string:arr <- [RBP+-72]
	movl	$12, %edi
	callq	_KPushCDep
	movabsq	$-7317478494005051930, %rdi # imm = 0x9A7318145144BDE6
	xorl	%esi, %esi
	callq	_KPrepCall
	movl	$3, %edi
	callq	_KLinkReturn
	.loc	3 149 9                 # /home/patmos/github/bachelor_project_HLS/candidates/MachSuite/common/support.c:149:9
.Ltmp584:
	movq	-72(%rbp), %rdi         # 8-byte Reload
	callq	strlen
	movq	%rax, %r12
.Ltmp585:
	#DEBUG_VALUE: write_string:n <- R12D
	movl	$0, (%rsp)
	movl	$11, %r14d
	movl	$11, %edi
	movl	$2, %esi
	movl	$1, %edx
	movl	$1, %ecx
	movl	$2, %r8d
	movl	$3, %r9d
	callq	_KTimestamp3
	callq	_KPopCDep
.Ltmp586:
.LBB13_3:                               # %if.end
	#DEBUG_VALUE: write_string:fd <- [RBP+-52]
	#DEBUG_VALUE: write_string:arr <- [RBP+-72]
	movq	%r12, -64(%rbp)         # 8-byte Spill
	movl	$8, %edi
	callq	_KPushCDep
	movl	$6, %edi
	movl	$8, %edx
	movl	$12, %ecx
	movl	%r14d, %esi
	callq	_KPhi2To1
.Ltmp587:
	#DEBUG_VALUE: write_string:written <- 0
	movl	$6, %edi
	movl	$6, %esi
	xorl	%edx, %edx
	callq	_KTimestamp1
	callq	_KPopCDep
	movl	$1, %esi
	movq	%rbx, %rdi
	callq	_KEnterRegion
	movabsq	$-154740166444740514, %r14 # imm = 0xFDDA40A37293905E
	xorl	%r13d, %r13d
	xorl	%r12d, %r12d
	xorl	%eax, %eax
	movq	%rax, -48(%rbp)         # 8-byte Spill
	xorl	%r15d, %r15d
	jmp	.LBB13_4
	.align	16, 0x90
.LBB13_9:                               # %cond.end12
                                        #   in Loop: Header=BB13_4 Depth=1
	#DEBUG_VALUE: write_string:fd <- [RBP+-52]
	#DEBUG_VALUE: write_string:arr <- [RBP+-72]
	#DEBUG_VALUE: write_string:written <- 0
.Ltmp588:
	#DEBUG_VALUE: write_string:status <- EBX
	movl	$14, %r13d
	movl	$14, %edi
	callq	_KPushCDep
	movl	$1, %edi
	callq	_KWork
	.loc	3 155 5                 # /home/patmos/github/bachelor_project_HLS/candidates/MachSuite/common/support.c:155:5
.Ltmp589:
	movq	-48(%rbp), %rax         # 8-byte Reload
	addl	%eax, %ebx
.Ltmp590:
	#DEBUG_VALUE: write_string:written <- EBX
	movl	$2, (%rsp)
	movl	$13, %r15d
	movl	$9, %r12d
	movl	$13, %edi
	movl	$7, %esi
	movl	$1, %edx
	movl	$9, %ecx
	movl	$2, %r8d
	movl	$4, %r9d
	callq	_KTimestamp3
	callq	_KPopCDep
	movl	$2, %esi
	movq	%r14, %rdi
	callq	_KExitRegion
                                        # kill: EBX<def> EBX<kill> RBX<kill> RBX<def>
.Ltmp591:
	movq	%rbx, -48(%rbp)         # 8-byte Spill
.Ltmp592:
.LBB13_4:                               # %while.cond
                                        # =>This Inner Loop Header: Depth=1
	#DEBUG_VALUE: write_string:fd <- [RBP+-52]
	#DEBUG_VALUE: write_string:arr <- [RBP+-72]
	#DEBUG_VALUE: write_string:written <- 0
	movl	$8, %edi
	callq	_KPushCDep
	movl	$7, %edi
	movl	$8, %edx
	movl	%r15d, %esi
	movl	%r12d, %ecx
	movl	%r13d, %r8d
	callq	_KPhi3To1
	movl	$1, %edi
	callq	_KWork
	movl	$1, %edi
	movl	$1, %esi
	xorl	%edx, %edx
	callq	_KTimestamp1
	movl	$1, (%rsp)
	movl	$9, %edi
	movl	$8, %esi
	movl	$1, %edx
	movl	$6, %ecx
	movl	$1, %r8d
	movl	$7, %r9d
	callq	_KTimestamp3
	movl	$7, %edi
	movl	$7, %esi
	xorl	%edx, %edx
	callq	_KTimestamp1
	movl	$7, %edi
	movl	$9, %esi
	callq	_KPhiAddCond
	callq	_KPopCDep
	movq	-64(%rbp), %rax         # 8-byte Reload
	.loc	3 152 9                 # /home/patmos/github/bachelor_project_HLS/candidates/MachSuite/common/support.c:152:9
	movl	%eax, %ebx
	movq	-48(%rbp), %rax         # 8-byte Reload
	subl	%eax, %ebx
	jle	.LBB13_5
# BB#8:                                 # %while.body
                                        #   in Loop: Header=BB13_4 Depth=1
	#DEBUG_VALUE: write_string:fd <- [RBP+-52]
	#DEBUG_VALUE: write_string:arr <- [RBP+-72]
	#DEBUG_VALUE: write_string:written <- 0
	movl	$2, %esi
	movq	%r14, %rdi
	callq	_KEnterRegion
	movl	$9, %edi
	callq	_KPushCDep
	movl	$2, %edi
	callq	_KWork
	.loc	3 153 24                # /home/patmos/github/bachelor_project_HLS/candidates/MachSuite/common/support.c:153:24
.Ltmp593:
	movq	-48(%rbp), %rax         # 8-byte Reload
	movslq	%eax, %r12
	addq	-72(%rbp), %r12         # 8-byte Folded Reload
	.loc	3 153 39 is_stmt 0      # /home/patmos/github/bachelor_project_HLS/candidates/MachSuite/common/support.c:153:39
	movslq	%ebx, %r15
	movl	$1, (%rsp)
	movl	$5, %edi
	movl	$6, %esi
	movl	$1, %edx
	movl	$7, %ecx
	movl	$1, %r8d
	movl	$9, %r9d
	callq	_KTimestamp3
	xorl	%esi, %esi
	movabsq	$745763039719008056, %rdi # imm = 0xA597B888D112738
	callq	_KPrepCall
	movl	$5, %edi
	callq	_KEnqArg
	movl	$1, %edi
	callq	_KEnqArg
	movl	$4, %edi
	callq	_KLinkReturn
	.loc	3 153 14                # /home/patmos/github/bachelor_project_HLS/candidates/MachSuite/common/support.c:153:14
	movl	-52(%rbp), %edi         # 4-byte Reload
	movq	%r12, %rsi
	movq	%r15, %rdx
	callq	write
	movq	%rax, %rbx
.Ltmp594:
	#DEBUG_VALUE: write_string:status <- EBX
	movl	$14, %edi
	movl	$9, %esi
	movl	$1, %edx
	movl	$4, %ecx
	movl	$1, %r8d
	callq	_KTimestamp2
	callq	_KPopCDep
	.loc	3 154 5 is_stmt 1       # /home/patmos/github/bachelor_project_HLS/candidates/MachSuite/common/support.c:154:5
	testl	%ebx, %ebx
	jns	.LBB13_9
.Ltmp595:
# BB#13:                                # %while.body.pre_exit.cond.false11
	#DEBUG_VALUE: write_string:written <- 0
	movl	$2, %esi
	movq	%r14, %rdi
	callq	_KExitRegion
	movl	$1, %esi
	movabsq	$-2185286549680384431, %rdi # imm = 0xE1AC4D7611DC9651
	callq	_KExitRegion
	movl	$14, %edi
	callq	_KPushCDep
	movabsq	$-121103920348965053, %rdi # imm = 0xFE51C0A046B15743
	xorl	%esi, %esi
	callq	_KPrepCall
	callq	_KEnqArgConst
	xorl	%esi, %esi
	movabsq	$-7202452009705221824, %rdi # imm = 0x9C0BC00EB1B8D140
	callq	_KExitRegion
	.loc	3 154 5 is_stmt 0 discriminator 4 # /home/patmos/github/bachelor_project_HLS/candidates/MachSuite/common/support.c:154:5
.Ltmp596:
	movl	$.L.str16, %edi
	movl	$.L.str2, %esi
	movl	$154, %edx
	movl	$.L__PRETTY_FUNCTION__.write_string, %ecx
	callq	__assert_fail
.Ltmp597:
.LBB13_5:                               # %while.cond.pre_exit.do.body.preheader
	#DEBUG_VALUE: write_string:fd <- [RBP+-52]
	#DEBUG_VALUE: write_string:written <- 0
	movabsq	$4408265085678541149, %r14 # imm = 0x3D2D4DBD4BA0595D
	movl	$1, %esi
	movabsq	$-2185286549680384431, %rdi # imm = 0xE1AC4D7611DC9651
	callq	_KExitRegion
	movl	$9, %edi
	callq	_KPushCDep
	callq	_KPopCDep
	movl	$1, %esi
	movq	%r14, %rdi
	callq	_KEnterRegion
	movabsq	$-4848848189247245391, %r15 # imm = 0xBCB56E431E1F33B1
	movabsq	$2219929870039870981, %r13 # imm = 0x1ECEC67482016E05
	.align	16, 0x90
.LBB13_6:                               # %do.body
                                        # =>This Inner Loop Header: Depth=1
	#DEBUG_VALUE: write_string:fd <- [RBP+-52]
	#DEBUG_VALUE: write_string:written <- 0
	movl	$9, %edi
	callq	_KPushCDep
	xorl	%esi, %esi
	movq	%r15, %rdi
	callq	_KPrepCall
	callq	_KEnqArgConst
	movl	$1, %edi
	callq	_KEnqArg
	movl	$10, %edi
	callq	_KLinkReturn
	movl	$1, %edi
	callq	_KWork
	.loc	3 159 14 is_stmt 1      # /home/patmos/github/bachelor_project_HLS/candidates/MachSuite/common/support.c:159:14
.Ltmp598:
	movl	$.L.str13, %esi
	movl	$1, %edx
	movl	-52(%rbp), %edi         # 4-byte Reload
	callq	write
	movq	%rax, %rbx
.Ltmp599:
	#DEBUG_VALUE: write_string:status <- EBX
	movl	$16, %edi
	movl	$9, %esi
	xorl	%edx, %edx
	movl	$10, %ecx
	xorl	%r8d, %r8d
	callq	_KTimestamp2
	movl	$15, %edi
	movl	$9, %esi
	movl	$1, %edx
	movl	$10, %ecx
	movl	$1, %r8d
	callq	_KTimestamp2
	callq	_KPopCDep
	.loc	3 160 5                 # /home/patmos/github/bachelor_project_HLS/candidates/MachSuite/common/support.c:160:5
	testl	%ebx, %ebx
	js	.LBB13_7
.Ltmp600:
# BB#10:                                # %do.cond
                                        #   in Loop: Header=BB13_6 Depth=1
	#DEBUG_VALUE: write_string:fd <- [RBP+-52]
	#DEBUG_VALUE: write_string:written <- 0
	#DEBUG_VALUE: write_string:status <- EBX
	movl	$2, %esi
	movq	%r13, %rdi
	callq	_KEnterRegion
	movl	$15, %edi
	callq	_KPushCDep
	movl	$1, %edi
	callq	_KWork
	movl	$17, %edi
	movl	$16, %esi
	movl	$1, %edx
	movl	$15, %ecx
	movl	$1, %r8d
	callq	_KTimestamp2
	callq	_KPopCDep
	movl	$2, %esi
	movq	%r13, %rdi
	callq	_KExitRegion
	.loc	3 161 11 discriminator 1 # /home/patmos/github/bachelor_project_HLS/candidates/MachSuite/common/support.c:161:11
	testl	%ebx, %ebx
	je	.LBB13_6
.Ltmp601:
# BB#11:                                # %do.cond.pre_exit.do.end
	#DEBUG_VALUE: write_string:written <- 0
	movl	$1, %esi
	movq	%r14, %rdi
	callq	_KExitRegion
	movl	$17, %edi
	callq	_KPushCDep
	callq	_KReturnConst
	callq	_KPopCDep
	xorl	%esi, %esi
	movabsq	$-7202452009705221824, %rdi # imm = 0x9C0BC00EB1B8D140
	callq	_KExitRegion
	xorl	%eax, %eax
	.loc	3 163 3                 # /home/patmos/github/bachelor_project_HLS/candidates/MachSuite/common/support.c:163:3
	addq	$40, %rsp
	popq	%rbx
	popq	%r12
	popq	%r13
	popq	%r14
	popq	%r15
	popq	%rbp
	retq
.LBB13_7:                               # %do.body.pre_exit.cond.false19
	#DEBUG_VALUE: write_string:written <- 0
	movl	$1, %esi
	movq	%r14, %rdi
	callq	_KExitRegion
	movl	$15, %edi
	callq	_KPushCDep
	movabsq	$1711716765106363279, %rdi # imm = 0x17C13D542C3EDB8F
	xorl	%esi, %esi
	callq	_KPrepCall
	callq	_KEnqArgConst
	xorl	%esi, %esi
	movabsq	$-7202452009705221824, %rdi # imm = 0x9C0BC00EB1B8D140
	callq	_KExitRegion
	.loc	3 160 5 discriminator 4 # /home/patmos/github/bachelor_project_HLS/candidates/MachSuite/common/support.c:160:5
.Ltmp602:
	movl	$.L.str16, %edi
	movl	$.L.str2, %esi
	movl	$160, %edx
	movl	$.L__PRETTY_FUNCTION__.write_string, %ecx
	callq	__assert_fail
.Ltmp603:
.LBB13_12:                              # %cond.false
	movabsq	$-2185914816935976799, %rdi # imm = 0xE1AA120E3344A0A1
	xorl	%esi, %esi
	callq	_KPrepCall
	callq	_KEnqArgConst
	xorl	%esi, %esi
	movq	%r15, %rdi
	callq	_KExitRegion
	.loc	3 147 3 discriminator 4 # /home/patmos/github/bachelor_project_HLS/candidates/MachSuite/common/support.c:147:3
.Ltmp604:
	movl	$.L.str1, %edi
	movl	$.L.str2, %esi
	movl	$147, %edx
	movl	$.L__PRETTY_FUNCTION__.write_string, %ecx
	callq	__assert_fail
.Ltmp605:
.Ltmp606:
	.size	write_string, .Ltmp606-write_string
.Lfunc_end13:
	.cfi_endproc

	.globl	write_uint8_t_array
	.align	16, 0x90
	.type	write_uint8_t_array,@function
write_uint8_t_array:                    # @write_uint8_t_array
.Lfunc_begin14:
	.loc	3 177 0                 # /home/patmos/github/bachelor_project_HLS/candidates/MachSuite/common/support.c:177:0
	.cfi_startproc
# BB#0:                                 # %entry
	pushq	%rbp
.Ltmp607:
	.cfi_def_cfa_offset 16
.Ltmp608:
	.cfi_offset %rbp, -16
	movq	%rsp, %rbp
.Ltmp609:
	.cfi_def_cfa_register %rbp
	pushq	%r15
	pushq	%r14
	pushq	%r13
	pushq	%r12
	pushq	%rbx
	pushq	%rax
.Ltmp610:
	.cfi_offset %rbx, -56
.Ltmp611:
	.cfi_offset %r12, -48
.Ltmp612:
	.cfi_offset %r13, -40
.Ltmp613:
	.cfi_offset %r14, -32
.Ltmp614:
	.cfi_offset %r15, -24
	#DEBUG_VALUE: write_uint8_t_array:fd <- EDI
	#DEBUG_VALUE: write_uint8_t_array:arr <- RSI
	#DEBUG_VALUE: write_uint8_t_array:n <- EDX
	movl	%edx, %r14d
.Ltmp615:
	#DEBUG_VALUE: write_uint8_t_array:n <- R14D
	movq	%rsi, %rbx
.Ltmp616:
	#DEBUG_VALUE: write_uint8_t_array:arr <- RBX
	movl	%edi, %r15d
.Ltmp617:
	#DEBUG_VALUE: write_uint8_t_array:fd <- R15D
	movabsq	$-6460977857766425422, %rdi # imm = 0xA655FEDEBE2AFCB2
	xorl	%esi, %esi
	callq	_KEnterRegion
	movl	$10, %edi
	movl	$2, %esi
	callq	_KPrepRTable
	movl	$1, %edi
	callq	_KWork
	movl	$2, %edi
	callq	_KDeqArg
	movl	$1, %edi
	callq	_KDeqArg
	movl	$7, %edi
	movl	$1, %esi
	movl	$1, %edx
	callq	_KTimestamp1
	movl	$7, %edi
	callq	_KPushCDep
	.loc	3 177 1 prologue_end    # /home/patmos/github/bachelor_project_HLS/candidates/MachSuite/common/support.c:177:1
.Ltmp618:
	cmpl	$1, %r15d
	jle	.LBB14_5
.Ltmp619:
# BB#1:                                 # %cond.end
	#DEBUG_VALUE: write_uint8_t_array:fd <- R15D
	#DEBUG_VALUE: write_uint8_t_array:arr <- RBX
	#DEBUG_VALUE: write_uint8_t_array:n <- R14D
	movabsq	$-7577882060406783493, %r12 # imm = 0x96D5F46A57A601FB
.Ltmp620:
	#DEBUG_VALUE: write_uint8_t_array:i <- 0
	movl	$6, %edi
	movl	$2, %esi
	xorl	%edx, %edx
	movl	$1, %ecx
	movl	$1, %r8d
	callq	_KTimestamp2
	movl	$9, %edi
	callq	_KInduction
	callq	_KPopCDep
	movl	$1, %esi
	movq	%r12, %rdi
	callq	_KEnterRegion
	movl	$7, %edi
	callq	_KPushCDep
	movl	$1, %edi
	callq	_KWork
	movl	$1, (%rsp)
	movl	$8, %edi
	movl	$7, %esi
	movl	$1, %edx
	movl	$6, %ecx
	movl	$1, %r8d
	movl	$9, %r9d
	callq	_KTimestamp3
	callq	_KPopCDep
	.loc	3 177 1 is_stmt 0       # /home/patmos/github/bachelor_project_HLS/candidates/MachSuite/common/support.c:177:1
.Ltmp621:
	testl	%r14d, %r14d
	jle	.LBB14_4
.Ltmp622:
# BB#2:                                 # %for.body.lr.ph
	#DEBUG_VALUE: write_uint8_t_array:fd <- R15D
	#DEBUG_VALUE: write_uint8_t_array:arr <- RBX
	#DEBUG_VALUE: write_uint8_t_array:n <- R14D
	#DEBUG_VALUE: write_uint8_t_array:i <- 0
	movslq	%r14d, %r14
.Ltmp623:
	movabsq	$-5755581142682155150, %r13 # imm = 0xB0201171F27E4772
.Ltmp624:
	.align	16, 0x90
.LBB14_3:                               # %for.body
                                        # =>This Inner Loop Header: Depth=1
	#DEBUG_VALUE: write_uint8_t_array:fd <- R15D
	#DEBUG_VALUE: write_uint8_t_array:i <- 0
	movl	$2, %esi
	movq	%r13, %rdi
	callq	_KEnterRegion
	movl	$8, %edi
	callq	_KPushCDep
	movl	$4, %edi
	callq	_KWork
	movl	$3, %esi
	movl	$1, %edx
	movq	%rbx, %rdi
	callq	_KLoad0
	.loc	3 177 1 discriminator 8 # /home/patmos/github/bachelor_project_HLS/candidates/MachSuite/common/support.c:177:1
.Ltmp625:
	movzbl	(%rbx), %r12d
	xorl	%esi, %esi
	movabsq	$-4275122822972452119, %rdi # imm = 0xC4ABB6716D8FD2E9
	callq	_KPrepCall
	movl	$5, %edi
	movl	$8, %esi
	xorl	%edx, %edx
	movl	$3, %ecx
	xorl	%r8d, %r8d
	callq	_KTimestamp2
	movl	$5, %edi
	callq	_KEnqArg
	movl	$1, %edi
	movl	$1, %esi
	xorl	%edx, %edx
	callq	_KTimestamp1
	movl	$1, %edi
	callq	_KEnqArg
	movl	$4, %edi
	callq	_KLinkReturn
	movl	$.L.str17, %esi
	xorl	%eax, %eax
	movl	%r15d, %edi
	movl	%r12d, %edx
	callq	fd_printf
	callq	_KPopCDep
	movl	$2, %esi
	movq	%r13, %rdi
	callq	_KExitRegion
	movl	$7, %edi
	callq	_KPushCDep
	movl	$1, %edi
	callq	_KWork
	movl	$1, (%rsp)
	movl	$8, %edi
	movl	$7, %esi
	movl	$1, %edx
	movl	$6, %ecx
	movl	$1, %r8d
	movl	$9, %r9d
	callq	_KTimestamp3
	callq	_KPopCDep
.Ltmp626:
	.loc	3 177 1                 # /home/patmos/github/bachelor_project_HLS/candidates/MachSuite/common/support.c:177:1
	incq	%rbx
	decq	%r14
	jne	.LBB14_3
.Ltmp627:
.LBB14_4:                               # %for.cond.pre_exit.for.end
	#DEBUG_VALUE: write_uint8_t_array:i <- 0
	movl	$1, %esi
	movabsq	$-7577882060406783493, %rdi # imm = 0x96D5F46A57A601FB
	callq	_KExitRegion
	movl	$7, %edi
	callq	_KPushCDep
	callq	_KReturnConst
	callq	_KPopCDep
	xorl	%esi, %esi
	movabsq	$-6460977857766425422, %rdi # imm = 0xA655FEDEBE2AFCB2
	callq	_KExitRegion
	xorl	%eax, %eax
	.loc	3 177 1 discriminator 9 # /home/patmos/github/bachelor_project_HLS/candidates/MachSuite/common/support.c:177:1
	addq	$8, %rsp
	popq	%rbx
	popq	%r12
	popq	%r13
	popq	%r14
	popq	%r15
	popq	%rbp
	retq
.LBB14_5:                               # %cond.false
	movabsq	$6680852295719233073, %rdi # imm = 0x5CB727C42B32A631
	xorl	%esi, %esi
	callq	_KPrepCall
	callq	_KEnqArgConst
	xorl	%esi, %esi
	movabsq	$-6460977857766425422, %rdi # imm = 0xA655FEDEBE2AFCB2
	callq	_KExitRegion
	.loc	3 177 1 discriminator 4 # /home/patmos/github/bachelor_project_HLS/candidates/MachSuite/common/support.c:177:1
.Ltmp628:
	movl	$.L.str1, %edi
	movl	$.L.str2, %esi
	movl	$177, %edx
	movl	$.L__PRETTY_FUNCTION__.write_uint8_t_array, %ecx
	callq	__assert_fail
.Ltmp629:
.Ltmp630:
	.size	write_uint8_t_array, .Ltmp630-write_uint8_t_array
.Lfunc_end14:
	.cfi_endproc

	.align	16, 0x90
	.type	fd_printf,@function
fd_printf:                              # @fd_printf
.Lfunc_begin15:
	.loc	3 15 0 is_stmt 1        # /home/patmos/github/bachelor_project_HLS/candidates/MachSuite/common/support.c:15:0
	.cfi_startproc
# BB#0:                                 # %entry
	pushq	%rbp
.Ltmp631:
	.cfi_def_cfa_offset 16
.Ltmp632:
	.cfi_offset %rbp, -16
	movq	%rsp, %rbp
.Ltmp633:
	.cfi_def_cfa_register %rbp
	pushq	%r15
	pushq	%r14
	pushq	%rbx
	subq	$456, %rsp              # imm = 0x1C8
.Ltmp634:
	.cfi_offset %rbx, -40
.Ltmp635:
	.cfi_offset %r14, -32
.Ltmp636:
	.cfi_offset %r15, -24
	movq	%rsi, %rbx
	movl	%edi, %r14d
	testb	%al, %al
	je	.LBB15_2
# BB#1:                                 # %entry
	movaps	%xmm0, -432(%rbp)
	movaps	%xmm1, -416(%rbp)
	movaps	%xmm2, -400(%rbp)
	movaps	%xmm3, -384(%rbp)
	movaps	%xmm4, -368(%rbp)
	movaps	%xmm5, -352(%rbp)
	movaps	%xmm6, -336(%rbp)
	movaps	%xmm7, -320(%rbp)
.LBB15_2:                               # %entry
	movq	%r9, -440(%rbp)
	movq	%r8, -448(%rbp)
	movq	%rcx, -456(%rbp)
	movq	%rdx, -464(%rbp)
	leaq	-480(%rbp), %rax
	.loc	3 19 3 prologue_end     # /home/patmos/github/bachelor_project_HLS/candidates/MachSuite/common/support.c:19:3
.Ltmp637:
	movq	%rax, -32(%rbp)
	leaq	16(%rbp), %rax
	movq	%rax, -40(%rbp)
	movl	$48, -44(%rbp)
	movl	$16, -48(%rbp)
	leaq	-304(%rbp), %rdi
	leaq	-48(%rbp), %rcx
	movl	$256, %esi              # imm = 0x100
	.loc	3 20 14                 # /home/patmos/github/bachelor_project_HLS/candidates/MachSuite/common/support.c:20:14
	movq	%rbx, %rdx
	callq	vsnprintf
	movl	%eax, %r15d
.Ltmp638:
	#DEBUG_VALUE: fd_printf:buffered <- R15D
	.loc	3 22 3                  # /home/patmos/github/bachelor_project_HLS/candidates/MachSuite/common/support.c:22:3
	cmpl	$255, %r15d
	jg	.LBB15_7
.Ltmp639:
# BB#3:                                 # %while.cond.preheader
	#DEBUG_VALUE: fd_printf:buffered <- R15D
	xorl	%ebx, %ebx
	.loc	3 24 9                  # /home/patmos/github/bachelor_project_HLS/candidates/MachSuite/common/support.c:24:9
	testl	%r15d, %r15d
	jle	.LBB15_4
.Ltmp640:
	.align	16, 0x90
.LBB15_9:                               # %while.body
                                        # =>This Inner Loop Header: Depth=1
	#DEBUG_VALUE: fd_printf:buffered <- R15D
	.loc	3 25 24                 # /home/patmos/github/bachelor_project_HLS/candidates/MachSuite/common/support.c:25:24
	movslq	%ebx, %rax
	leaq	-304(%rbp,%rax), %rsi
	.loc	3 25 42 is_stmt 0       # /home/patmos/github/bachelor_project_HLS/candidates/MachSuite/common/support.c:25:42
	movl	%r15d, %ecx
	subl	%eax, %ecx
	movslq	%ecx, %rdx
	.loc	3 25 14                 # /home/patmos/github/bachelor_project_HLS/candidates/MachSuite/common/support.c:25:14
	movl	%r14d, %edi
	callq	write
.Ltmp641:
	#DEBUG_VALUE: fd_printf:status <- EAX
	.loc	3 26 5 is_stmt 1        # /home/patmos/github/bachelor_project_HLS/candidates/MachSuite/common/support.c:26:5
	testl	%eax, %eax
	js	.LBB15_10
.Ltmp642:
# BB#8:                                 # %while.cond
                                        #   in Loop: Header=BB15_9 Depth=1
	#DEBUG_VALUE: fd_printf:buffered <- R15D
	#DEBUG_VALUE: fd_printf:status <- EAX
	.loc	3 27 5                  # /home/patmos/github/bachelor_project_HLS/candidates/MachSuite/common/support.c:27:5
	addl	%ebx, %eax
.Ltmp643:
	#DEBUG_VALUE: fd_printf:written <- EAX
	.loc	3 24 3                  # /home/patmos/github/bachelor_project_HLS/candidates/MachSuite/common/support.c:24:3
	cmpl	%eax, %r15d
	movl	%eax, %ebx
	jg	.LBB15_9
	jmp	.LBB15_5
.Ltmp644:
.LBB15_4:
	#DEBUG_VALUE: fd_printf:buffered <- R15D
	xorl	%eax, %eax
.Ltmp645:
.LBB15_5:                               # %while.end
	#DEBUG_VALUE: fd_printf:buffered <- R15D
	.loc	3 29 3                  # /home/patmos/github/bachelor_project_HLS/candidates/MachSuite/common/support.c:29:3
	cmpl	%eax, %r15d
	jne	.LBB15_6
.Ltmp646:
# BB#11:                                # %cond.end20
	addq	$456, %rsp              # imm = 0x1C8
	popq	%rbx
	popq	%r14
	popq	%r15
	popq	%rbp
	retq
.LBB15_10:                              # %cond.false13
	.loc	3 26 5 discriminator 4  # /home/patmos/github/bachelor_project_HLS/candidates/MachSuite/common/support.c:26:5
.Ltmp647:
	movl	$.L.str16, %edi
	movl	$.L.str2, %esi
	movl	$26, %edx
	movl	$.L__PRETTY_FUNCTION__.fd_printf, %ecx
	callq	__assert_fail
.Ltmp648:
.LBB15_7:                               # %cond.false
	.loc	3 22 3 discriminator 4  # /home/patmos/github/bachelor_project_HLS/candidates/MachSuite/common/support.c:22:3
	movl	$.L.str24, %edi
	movl	$.L.str2, %esi
	movl	$22, %edx
	movl	$.L__PRETTY_FUNCTION__.fd_printf, %ecx
	callq	__assert_fail
.LBB15_6:                               # %cond.false19
	.loc	3 29 3 discriminator 4  # /home/patmos/github/bachelor_project_HLS/candidates/MachSuite/common/support.c:29:3
	movl	$.L.str26, %edi
	movl	$.L.str2, %esi
	movl	$29, %edx
	movl	$.L__PRETTY_FUNCTION__.fd_printf, %ecx
	callq	__assert_fail
.Ltmp649:
.Ltmp650:
	.size	fd_printf, .Ltmp650-fd_printf
.Lfunc_end15:
	.cfi_endproc

	.globl	write_uint16_t_array
	.align	16, 0x90
	.type	write_uint16_t_array,@function
write_uint16_t_array:                   # @write_uint16_t_array
.Lfunc_begin16:
	.loc	3 178 0                 # /home/patmos/github/bachelor_project_HLS/candidates/MachSuite/common/support.c:178:0
	.cfi_startproc
# BB#0:                                 # %entry
	pushq	%rbp
.Ltmp651:
	.cfi_def_cfa_offset 16
.Ltmp652:
	.cfi_offset %rbp, -16
	movq	%rsp, %rbp
.Ltmp653:
	.cfi_def_cfa_register %rbp
	pushq	%r15
	pushq	%r14
	pushq	%r13
	pushq	%r12
	pushq	%rbx
	pushq	%rax
.Ltmp654:
	.cfi_offset %rbx, -56
.Ltmp655:
	.cfi_offset %r12, -48
.Ltmp656:
	.cfi_offset %r13, -40
.Ltmp657:
	.cfi_offset %r14, -32
.Ltmp658:
	.cfi_offset %r15, -24
	#DEBUG_VALUE: write_uint16_t_array:fd <- EDI
	#DEBUG_VALUE: write_uint16_t_array:arr <- RSI
	#DEBUG_VALUE: write_uint16_t_array:n <- EDX
	movl	%edx, %r14d
.Ltmp659:
	#DEBUG_VALUE: write_uint16_t_array:n <- R14D
	movq	%rsi, %rbx
.Ltmp660:
	#DEBUG_VALUE: write_uint16_t_array:arr <- RBX
	movl	%edi, %r15d
.Ltmp661:
	#DEBUG_VALUE: write_uint16_t_array:fd <- R15D
	movabsq	$-3303714784501793054, %rdi # imm = 0xD226D8E846907EE2
	xorl	%esi, %esi
	callq	_KEnterRegion
	movl	$10, %edi
	movl	$2, %esi
	callq	_KPrepRTable
	movl	$2, %edi
	callq	_KDeqArg
	movl	$1, %edi
	callq	_KDeqArg
	movl	$1, %edi
	callq	_KWork
	movl	$7, %edi
	movl	$1, %esi
	movl	$1, %edx
	callq	_KTimestamp1
	movl	$7, %edi
	callq	_KPushCDep
	.loc	3 178 1 prologue_end    # /home/patmos/github/bachelor_project_HLS/candidates/MachSuite/common/support.c:178:1
.Ltmp662:
	cmpl	$1, %r15d
	jle	.LBB16_5
.Ltmp663:
# BB#1:                                 # %cond.end
	#DEBUG_VALUE: write_uint16_t_array:fd <- R15D
	#DEBUG_VALUE: write_uint16_t_array:arr <- RBX
	#DEBUG_VALUE: write_uint16_t_array:n <- R14D
	movabsq	$985572960275241665, %r12 # imm = 0xDAD7562B56F9AC1
.Ltmp664:
	#DEBUG_VALUE: write_uint16_t_array:i <- 0
	movl	$6, %edi
	movl	$1, %esi
	movl	$1, %edx
	movl	$2, %ecx
	xorl	%r8d, %r8d
	callq	_KTimestamp2
	movl	$9, %edi
	callq	_KInduction
	callq	_KPopCDep
	movl	$1, %esi
	movq	%r12, %rdi
	callq	_KEnterRegion
	movl	$7, %edi
	callq	_KPushCDep
	movl	$1, %edi
	callq	_KWork
	movl	$1, (%rsp)
	movl	$8, %edi
	movl	$7, %esi
	movl	$1, %edx
	movl	$6, %ecx
	movl	$1, %r8d
	movl	$9, %r9d
	callq	_KTimestamp3
	callq	_KPopCDep
	.loc	3 178 1 is_stmt 0       # /home/patmos/github/bachelor_project_HLS/candidates/MachSuite/common/support.c:178:1
.Ltmp665:
	testl	%r14d, %r14d
	jle	.LBB16_4
.Ltmp666:
# BB#2:                                 # %for.body.lr.ph
	#DEBUG_VALUE: write_uint16_t_array:fd <- R15D
	#DEBUG_VALUE: write_uint16_t_array:arr <- RBX
	#DEBUG_VALUE: write_uint16_t_array:n <- R14D
	#DEBUG_VALUE: write_uint16_t_array:i <- 0
	movslq	%r14d, %r14
.Ltmp667:
	movabsq	$4578949391889547882, %r13 # imm = 0x3F8BB2362C11426A
.Ltmp668:
	.align	16, 0x90
.LBB16_3:                               # %for.body
                                        # =>This Inner Loop Header: Depth=1
	#DEBUG_VALUE: write_uint16_t_array:fd <- R15D
	#DEBUG_VALUE: write_uint16_t_array:i <- 0
	movl	$2, %esi
	movq	%r13, %rdi
	callq	_KEnterRegion
	movl	$8, %edi
	callq	_KPushCDep
	movl	$4, %edi
	callq	_KWork
	movl	$3, %esi
	movl	$2, %edx
	movq	%rbx, %rdi
	callq	_KLoad0
	.loc	3 178 1 discriminator 8 # /home/patmos/github/bachelor_project_HLS/candidates/MachSuite/common/support.c:178:1
.Ltmp669:
	movzwl	(%rbx), %r12d
	movl	$1, %edi
	movl	$1, %esi
	xorl	%edx, %edx
	callq	_KTimestamp1
	xorl	%esi, %esi
	movabsq	$-4627584992235967272, %rdi # imm = 0xBFC783F7B1D8ACD8
	callq	_KPrepCall
	movl	$5, %edi
	movl	$8, %esi
	xorl	%edx, %edx
	movl	$3, %ecx
	xorl	%r8d, %r8d
	callq	_KTimestamp2
	movl	$5, %edi
	callq	_KEnqArg
	movl	$1, %edi
	callq	_KEnqArg
	movl	$4, %edi
	callq	_KLinkReturn
	movl	$.L.str17, %esi
	xorl	%eax, %eax
	movl	%r15d, %edi
	movl	%r12d, %edx
	callq	fd_printf
	callq	_KPopCDep
	movl	$2, %esi
	movq	%r13, %rdi
	callq	_KExitRegion
	movl	$7, %edi
	callq	_KPushCDep
	movl	$1, %edi
	callq	_KWork
	movl	$1, (%rsp)
	movl	$8, %edi
	movl	$7, %esi
	movl	$1, %edx
	movl	$6, %ecx
	movl	$1, %r8d
	movl	$9, %r9d
	callq	_KTimestamp3
	callq	_KPopCDep
.Ltmp670:
	.loc	3 178 1                 # /home/patmos/github/bachelor_project_HLS/candidates/MachSuite/common/support.c:178:1
	addq	$2, %rbx
	decq	%r14
	jne	.LBB16_3
.Ltmp671:
.LBB16_4:                               # %for.cond.pre_exit.for.end
	#DEBUG_VALUE: write_uint16_t_array:i <- 0
	movl	$1, %esi
	movabsq	$985572960275241665, %rdi # imm = 0xDAD7562B56F9AC1
	callq	_KExitRegion
	movl	$7, %edi
	callq	_KPushCDep
	callq	_KReturnConst
	callq	_KPopCDep
	xorl	%esi, %esi
	movabsq	$-3303714784501793054, %rdi # imm = 0xD226D8E846907EE2
	callq	_KExitRegion
	xorl	%eax, %eax
	.loc	3 178 1 discriminator 9 # /home/patmos/github/bachelor_project_HLS/candidates/MachSuite/common/support.c:178:1
	addq	$8, %rsp
	popq	%rbx
	popq	%r12
	popq	%r13
	popq	%r14
	popq	%r15
	popq	%rbp
	retq
.LBB16_5:                               # %cond.false
	movabsq	$-8762636668207747252, %rdi # imm = 0x8664DC606FAA2F4C
	xorl	%esi, %esi
	callq	_KPrepCall
	callq	_KEnqArgConst
	xorl	%esi, %esi
	movabsq	$-3303714784501793054, %rdi # imm = 0xD226D8E846907EE2
	callq	_KExitRegion
	.loc	3 178 1 discriminator 4 # /home/patmos/github/bachelor_project_HLS/candidates/MachSuite/common/support.c:178:1
.Ltmp672:
	movl	$.L.str1, %edi
	movl	$.L.str2, %esi
	movl	$178, %edx
	movl	$.L__PRETTY_FUNCTION__.write_uint16_t_array, %ecx
	callq	__assert_fail
.Ltmp673:
.Ltmp674:
	.size	write_uint16_t_array, .Ltmp674-write_uint16_t_array
.Lfunc_end16:
	.cfi_endproc

	.globl	write_uint32_t_array
	.align	16, 0x90
	.type	write_uint32_t_array,@function
write_uint32_t_array:                   # @write_uint32_t_array
.Lfunc_begin17:
	.loc	3 179 0 is_stmt 1       # /home/patmos/github/bachelor_project_HLS/candidates/MachSuite/common/support.c:179:0
	.cfi_startproc
# BB#0:                                 # %entry
	pushq	%rbp
.Ltmp675:
	.cfi_def_cfa_offset 16
.Ltmp676:
	.cfi_offset %rbp, -16
	movq	%rsp, %rbp
.Ltmp677:
	.cfi_def_cfa_register %rbp
	pushq	%r15
	pushq	%r14
	pushq	%r13
	pushq	%r12
	pushq	%rbx
	pushq	%rax
.Ltmp678:
	.cfi_offset %rbx, -56
.Ltmp679:
	.cfi_offset %r12, -48
.Ltmp680:
	.cfi_offset %r13, -40
.Ltmp681:
	.cfi_offset %r14, -32
.Ltmp682:
	.cfi_offset %r15, -24
	#DEBUG_VALUE: write_uint32_t_array:fd <- EDI
	#DEBUG_VALUE: write_uint32_t_array:arr <- RSI
	#DEBUG_VALUE: write_uint32_t_array:n <- EDX
	movl	%edx, %r14d
.Ltmp683:
	#DEBUG_VALUE: write_uint32_t_array:n <- R14D
	movq	%rsi, %rbx
.Ltmp684:
	#DEBUG_VALUE: write_uint32_t_array:arr <- RBX
	movl	%edi, %r15d
.Ltmp685:
	#DEBUG_VALUE: write_uint32_t_array:fd <- R15D
	movabsq	$5084888746074507704, %rdi # imm = 0x4691275FA82709B8
	xorl	%esi, %esi
	callq	_KEnterRegion
	movl	$9, %edi
	movl	$2, %esi
	callq	_KPrepRTable
	movl	$1, %edi
	callq	_KWork
	movl	$2, %edi
	callq	_KDeqArg
	movl	$1, %edi
	callq	_KDeqArg
	movl	$6, %edi
	movl	$1, %esi
	movl	$1, %edx
	callq	_KTimestamp1
	movl	$6, %edi
	callq	_KPushCDep
	.loc	3 179 1 prologue_end    # /home/patmos/github/bachelor_project_HLS/candidates/MachSuite/common/support.c:179:1
.Ltmp686:
	cmpl	$1, %r15d
	jle	.LBB17_5
.Ltmp687:
# BB#1:                                 # %cond.end
	#DEBUG_VALUE: write_uint32_t_array:fd <- R15D
	#DEBUG_VALUE: write_uint32_t_array:arr <- RBX
	#DEBUG_VALUE: write_uint32_t_array:n <- R14D
	movabsq	$70921062247895758, %r12 # imm = 0xFBF654926112CE
.Ltmp688:
	#DEBUG_VALUE: write_uint32_t_array:i <- 0
	movl	$5, %edi
	callq	_KInduction
	callq	_KPopCDep
	movl	$7, %edi
	movl	$1, %esi
	movl	$1, %edx
	movl	$2, %ecx
	xorl	%r8d, %r8d
	callq	_KTimestamp2
	movl	$1, %esi
	movq	%r12, %rdi
	callq	_KEnterRegion
	movl	$6, %edi
	callq	_KPushCDep
	movl	$1, %edi
	callq	_KWork
	callq	_KPopCDep
	movl	$1, (%rsp)
	movl	$8, %edi
	movl	$6, %esi
	movl	$1, %edx
	movl	$7, %ecx
	movl	$1, %r8d
	movl	$5, %r9d
	callq	_KTimestamp3
	.loc	3 179 1 is_stmt 0       # /home/patmos/github/bachelor_project_HLS/candidates/MachSuite/common/support.c:179:1
.Ltmp689:
	testl	%r14d, %r14d
	jle	.LBB17_4
.Ltmp690:
# BB#2:                                 # %for.body.lr.ph
	#DEBUG_VALUE: write_uint32_t_array:fd <- R15D
	#DEBUG_VALUE: write_uint32_t_array:arr <- RBX
	#DEBUG_VALUE: write_uint32_t_array:n <- R14D
	#DEBUG_VALUE: write_uint32_t_array:i <- 0
	movslq	%r14d, %r14
.Ltmp691:
	movabsq	$2533581874172581222, %r13 # imm = 0x2329174A836CD566
.Ltmp692:
	.align	16, 0x90
.LBB17_3:                               # %for.body
                                        # =>This Inner Loop Header: Depth=1
	#DEBUG_VALUE: write_uint32_t_array:fd <- R15D
	#DEBUG_VALUE: write_uint32_t_array:i <- 0
	movl	$2, %esi
	movq	%r13, %rdi
	callq	_KEnterRegion
	movl	$8, %edi
	callq	_KPushCDep
	movl	$4, %edi
	callq	_KWork
	movl	$3, %esi
	movl	$4, %edx
	movq	%rbx, %rdi
	callq	_KLoad0
	.loc	3 179 1 discriminator 8 # /home/patmos/github/bachelor_project_HLS/candidates/MachSuite/common/support.c:179:1
.Ltmp693:
	movl	(%rbx), %r12d
	movl	$3, %edi
	movl	$3, %esi
	xorl	%edx, %edx
	callq	_KTimestamp1
	xorl	%esi, %esi
	movabsq	$6118807623545068772, %rdi # imm = 0x54EA5F1D625B1CE4
	callq	_KPrepCall
	movl	$3, %edi
	callq	_KEnqArg
	movl	$1, %edi
	movl	$1, %esi
	xorl	%edx, %edx
	callq	_KTimestamp1
	movl	$1, %edi
	callq	_KEnqArg
	movl	$4, %edi
	callq	_KLinkReturn
	movl	$.L.str17, %esi
	xorl	%eax, %eax
	movl	%r15d, %edi
	movl	%r12d, %edx
	callq	fd_printf
	callq	_KPopCDep
	movl	$2, %esi
	movq	%r13, %rdi
	callq	_KExitRegion
	movl	$6, %edi
	callq	_KPushCDep
	movl	$1, %edi
	callq	_KWork
	callq	_KPopCDep
	movl	$1, (%rsp)
	movl	$8, %edi
	movl	$6, %esi
	movl	$1, %edx
	movl	$7, %ecx
	movl	$1, %r8d
	movl	$5, %r9d
	callq	_KTimestamp3
.Ltmp694:
	.loc	3 179 1                 # /home/patmos/github/bachelor_project_HLS/candidates/MachSuite/common/support.c:179:1
	addq	$4, %rbx
	decq	%r14
	jne	.LBB17_3
.Ltmp695:
.LBB17_4:                               # %for.cond.pre_exit.for.end
	#DEBUG_VALUE: write_uint32_t_array:i <- 0
	movl	$1, %esi
	movabsq	$70921062247895758, %rdi # imm = 0xFBF654926112CE
	callq	_KExitRegion
	movl	$6, %edi
	callq	_KPushCDep
	callq	_KReturnConst
	callq	_KPopCDep
	xorl	%esi, %esi
	movabsq	$5084888746074507704, %rdi # imm = 0x4691275FA82709B8
	callq	_KExitRegion
	xorl	%eax, %eax
	.loc	3 179 1 discriminator 9 # /home/patmos/github/bachelor_project_HLS/candidates/MachSuite/common/support.c:179:1
	addq	$8, %rsp
	popq	%rbx
	popq	%r12
	popq	%r13
	popq	%r14
	popq	%r15
	popq	%rbp
	retq
.LBB17_5:                               # %cond.false
	movabsq	$8368088224841056672, %rdi # imm = 0x74216BE78AC7C1A0
	xorl	%esi, %esi
	callq	_KPrepCall
	callq	_KEnqArgConst
	xorl	%esi, %esi
	movabsq	$5084888746074507704, %rdi # imm = 0x4691275FA82709B8
	callq	_KExitRegion
	.loc	3 179 1 discriminator 4 # /home/patmos/github/bachelor_project_HLS/candidates/MachSuite/common/support.c:179:1
.Ltmp696:
	movl	$.L.str1, %edi
	movl	$.L.str2, %esi
	movl	$179, %edx
	movl	$.L__PRETTY_FUNCTION__.write_uint32_t_array, %ecx
	callq	__assert_fail
.Ltmp697:
.Ltmp698:
	.size	write_uint32_t_array, .Ltmp698-write_uint32_t_array
.Lfunc_end17:
	.cfi_endproc

	.globl	write_uint64_t_array
	.align	16, 0x90
	.type	write_uint64_t_array,@function
write_uint64_t_array:                   # @write_uint64_t_array
.Lfunc_begin18:
	.loc	3 180 0 is_stmt 1       # /home/patmos/github/bachelor_project_HLS/candidates/MachSuite/common/support.c:180:0
	.cfi_startproc
# BB#0:                                 # %entry
	pushq	%rbp
.Ltmp699:
	.cfi_def_cfa_offset 16
.Ltmp700:
	.cfi_offset %rbp, -16
	movq	%rsp, %rbp
.Ltmp701:
	.cfi_def_cfa_register %rbp
	pushq	%r15
	pushq	%r14
	pushq	%r13
	pushq	%r12
	pushq	%rbx
	pushq	%rax
.Ltmp702:
	.cfi_offset %rbx, -56
.Ltmp703:
	.cfi_offset %r12, -48
.Ltmp704:
	.cfi_offset %r13, -40
.Ltmp705:
	.cfi_offset %r14, -32
.Ltmp706:
	.cfi_offset %r15, -24
	#DEBUG_VALUE: write_uint64_t_array:fd <- EDI
	#DEBUG_VALUE: write_uint64_t_array:arr <- RSI
	#DEBUG_VALUE: write_uint64_t_array:n <- EDX
	movl	%edx, %r14d
.Ltmp707:
	#DEBUG_VALUE: write_uint64_t_array:n <- R14D
	movq	%rsi, %rbx
.Ltmp708:
	#DEBUG_VALUE: write_uint64_t_array:arr <- RBX
	movl	%edi, %r15d
.Ltmp709:
	#DEBUG_VALUE: write_uint64_t_array:fd <- R15D
	movabsq	$1066726867581595272, %rdi # imm = 0xECDC66F2E90EE88
	xorl	%esi, %esi
	callq	_KEnterRegion
	movl	$9, %edi
	movl	$2, %esi
	callq	_KPrepRTable
	movl	$2, %edi
	callq	_KDeqArg
	movl	$1, %edi
	callq	_KDeqArg
	movl	$1, %edi
	callq	_KWork
	movl	$6, %edi
	movl	$1, %esi
	movl	$1, %edx
	callq	_KTimestamp1
	movl	$6, %edi
	callq	_KPushCDep
	.loc	3 180 1 prologue_end    # /home/patmos/github/bachelor_project_HLS/candidates/MachSuite/common/support.c:180:1
.Ltmp710:
	cmpl	$1, %r15d
	jle	.LBB18_5
.Ltmp711:
# BB#1:                                 # %cond.end
	#DEBUG_VALUE: write_uint64_t_array:fd <- R15D
	#DEBUG_VALUE: write_uint64_t_array:arr <- RBX
	#DEBUG_VALUE: write_uint64_t_array:n <- R14D
	movabsq	$-3933094062380255640, %r12 # imm = 0xC96AD7C9E7A07668
.Ltmp712:
	#DEBUG_VALUE: write_uint64_t_array:i <- 0
	movl	$5, %edi
	callq	_KInduction
	movl	$7, %edi
	movl	$1, %esi
	movl	$1, %edx
	movl	$2, %ecx
	xorl	%r8d, %r8d
	callq	_KTimestamp2
	callq	_KPopCDep
	movl	$1, %esi
	movq	%r12, %rdi
	callq	_KEnterRegion
	movl	$6, %edi
	callq	_KPushCDep
	movl	$1, %edi
	callq	_KWork
	movl	$1, (%rsp)
	movl	$8, %edi
	movl	$6, %esi
	movl	$1, %edx
	movl	$7, %ecx
	movl	$1, %r8d
	movl	$5, %r9d
	callq	_KTimestamp3
	callq	_KPopCDep
	.loc	3 180 1 is_stmt 0       # /home/patmos/github/bachelor_project_HLS/candidates/MachSuite/common/support.c:180:1
.Ltmp713:
	testl	%r14d, %r14d
	jle	.LBB18_4
.Ltmp714:
# BB#2:                                 # %for.body.lr.ph
	#DEBUG_VALUE: write_uint64_t_array:fd <- R15D
	#DEBUG_VALUE: write_uint64_t_array:arr <- RBX
	#DEBUG_VALUE: write_uint64_t_array:n <- R14D
	#DEBUG_VALUE: write_uint64_t_array:i <- 0
	movslq	%r14d, %r14
.Ltmp715:
	movabsq	$-4598896653429183526, %r13 # imm = 0xC02D6FDC159EEBDA
.Ltmp716:
	.align	16, 0x90
.LBB18_3:                               # %for.body
                                        # =>This Inner Loop Header: Depth=1
	#DEBUG_VALUE: write_uint64_t_array:fd <- R15D
	#DEBUG_VALUE: write_uint64_t_array:i <- 0
	movl	$2, %esi
	movq	%r13, %rdi
	callq	_KEnterRegion
	movl	$8, %edi
	callq	_KPushCDep
	movl	$4, %edi
	callq	_KWork
	movl	$3, %esi
	movl	$8, %edx
	movq	%rbx, %rdi
	callq	_KLoad0
	.loc	3 180 1 discriminator 8 # /home/patmos/github/bachelor_project_HLS/candidates/MachSuite/common/support.c:180:1
.Ltmp717:
	movq	(%rbx), %r12
	movl	$1, %edi
	movl	$1, %esi
	xorl	%edx, %edx
	callq	_KTimestamp1
	xorl	%esi, %esi
	movabsq	$-7626872190429203767, %rdi # imm = 0x9627E826D62972C9
	callq	_KPrepCall
	movl	$3, %edi
	movl	$3, %esi
	xorl	%edx, %edx
	callq	_KTimestamp1
	movl	$3, %edi
	callq	_KEnqArg
	movl	$1, %edi
	callq	_KEnqArg
	movl	$4, %edi
	callq	_KLinkReturn
	movl	$.L.str18, %esi
	xorl	%eax, %eax
	movl	%r15d, %edi
	movq	%r12, %rdx
	callq	fd_printf
	callq	_KPopCDep
	movl	$2, %esi
	movq	%r13, %rdi
	callq	_KExitRegion
	movl	$6, %edi
	callq	_KPushCDep
	movl	$1, %edi
	callq	_KWork
	movl	$1, (%rsp)
	movl	$8, %edi
	movl	$6, %esi
	movl	$1, %edx
	movl	$7, %ecx
	movl	$1, %r8d
	movl	$5, %r9d
	callq	_KTimestamp3
	callq	_KPopCDep
.Ltmp718:
	.loc	3 180 1                 # /home/patmos/github/bachelor_project_HLS/candidates/MachSuite/common/support.c:180:1
	addq	$8, %rbx
	decq	%r14
	jne	.LBB18_3
.Ltmp719:
.LBB18_4:                               # %for.cond.pre_exit.for.end
	#DEBUG_VALUE: write_uint64_t_array:i <- 0
	movl	$1, %esi
	movabsq	$-3933094062380255640, %rdi # imm = 0xC96AD7C9E7A07668
	callq	_KExitRegion
	movl	$6, %edi
	callq	_KPushCDep
	callq	_KReturnConst
	callq	_KPopCDep
	xorl	%esi, %esi
	movabsq	$1066726867581595272, %rdi # imm = 0xECDC66F2E90EE88
	callq	_KExitRegion
	xorl	%eax, %eax
	.loc	3 180 1 discriminator 9 # /home/patmos/github/bachelor_project_HLS/candidates/MachSuite/common/support.c:180:1
	addq	$8, %rsp
	popq	%rbx
	popq	%r12
	popq	%r13
	popq	%r14
	popq	%r15
	popq	%rbp
	retq
.LBB18_5:                               # %cond.false
	movabsq	$-7847916305454015192, %rdi # imm = 0x931699B3426ADD28
	xorl	%esi, %esi
	callq	_KPrepCall
	callq	_KEnqArgConst
	xorl	%esi, %esi
	movabsq	$1066726867581595272, %rdi # imm = 0xECDC66F2E90EE88
	callq	_KExitRegion
	.loc	3 180 1 discriminator 4 # /home/patmos/github/bachelor_project_HLS/candidates/MachSuite/common/support.c:180:1
.Ltmp720:
	movl	$.L.str1, %edi
	movl	$.L.str2, %esi
	movl	$180, %edx
	movl	$.L__PRETTY_FUNCTION__.write_uint64_t_array, %ecx
	callq	__assert_fail
.Ltmp721:
.Ltmp722:
	.size	write_uint64_t_array, .Ltmp722-write_uint64_t_array
.Lfunc_end18:
	.cfi_endproc

	.globl	write_int8_t_array
	.align	16, 0x90
	.type	write_int8_t_array,@function
write_int8_t_array:                     # @write_int8_t_array
.Lfunc_begin19:
	.loc	3 181 0 is_stmt 1       # /home/patmos/github/bachelor_project_HLS/candidates/MachSuite/common/support.c:181:0
	.cfi_startproc
# BB#0:                                 # %entry
	pushq	%rbp
.Ltmp723:
	.cfi_def_cfa_offset 16
.Ltmp724:
	.cfi_offset %rbp, -16
	movq	%rsp, %rbp
.Ltmp725:
	.cfi_def_cfa_register %rbp
	pushq	%r15
	pushq	%r14
	pushq	%r13
	pushq	%r12
	pushq	%rbx
	pushq	%rax
.Ltmp726:
	.cfi_offset %rbx, -56
.Ltmp727:
	.cfi_offset %r12, -48
.Ltmp728:
	.cfi_offset %r13, -40
.Ltmp729:
	.cfi_offset %r14, -32
.Ltmp730:
	.cfi_offset %r15, -24
	#DEBUG_VALUE: write_int8_t_array:fd <- EDI
	#DEBUG_VALUE: write_int8_t_array:arr <- RSI
	#DEBUG_VALUE: write_int8_t_array:n <- EDX
	movl	%edx, %r14d
.Ltmp731:
	#DEBUG_VALUE: write_int8_t_array:n <- R14D
	movq	%rsi, %rbx
.Ltmp732:
	#DEBUG_VALUE: write_int8_t_array:arr <- RBX
	movl	%edi, %r15d
.Ltmp733:
	#DEBUG_VALUE: write_int8_t_array:fd <- R15D
	movabsq	$1996429349242365806, %rdi # imm = 0x1BB4BDEA64C1676E
	xorl	%esi, %esi
	callq	_KEnterRegion
	movl	$10, %edi
	movl	$2, %esi
	callq	_KPrepRTable
	movl	$1, %edi
	callq	_KWork
	movl	$2, %edi
	callq	_KDeqArg
	movl	$1, %edi
	callq	_KDeqArg
	movl	$7, %edi
	movl	$1, %esi
	movl	$1, %edx
	callq	_KTimestamp1
	movl	$7, %edi
	callq	_KPushCDep
	.loc	3 181 1 prologue_end    # /home/patmos/github/bachelor_project_HLS/candidates/MachSuite/common/support.c:181:1
.Ltmp734:
	cmpl	$1, %r15d
	jle	.LBB19_5
.Ltmp735:
# BB#1:                                 # %cond.end
	#DEBUG_VALUE: write_int8_t_array:fd <- R15D
	#DEBUG_VALUE: write_int8_t_array:arr <- RBX
	#DEBUG_VALUE: write_int8_t_array:n <- R14D
	movabsq	$-9209587401811489075, %r12 # imm = 0x8030F90D731D0ECD
.Ltmp736:
	#DEBUG_VALUE: write_int8_t_array:i <- 0
	movl	$6, %edi
	movl	$1, %esi
	movl	$1, %edx
	movl	$2, %ecx
	xorl	%r8d, %r8d
	callq	_KTimestamp2
	movl	$9, %edi
	callq	_KInduction
	callq	_KPopCDep
	movl	$1, %esi
	movq	%r12, %rdi
	callq	_KEnterRegion
	movl	$7, %edi
	callq	_KPushCDep
	movl	$1, %edi
	callq	_KWork
	movl	$1, (%rsp)
	movl	$8, %edi
	movl	$7, %esi
	movl	$1, %edx
	movl	$6, %ecx
	movl	$1, %r8d
	movl	$9, %r9d
	callq	_KTimestamp3
	callq	_KPopCDep
	.loc	3 181 1 is_stmt 0       # /home/patmos/github/bachelor_project_HLS/candidates/MachSuite/common/support.c:181:1
.Ltmp737:
	testl	%r14d, %r14d
	jle	.LBB19_4
.Ltmp738:
# BB#2:                                 # %for.body.lr.ph
	#DEBUG_VALUE: write_int8_t_array:fd <- R15D
	#DEBUG_VALUE: write_int8_t_array:arr <- RBX
	#DEBUG_VALUE: write_int8_t_array:n <- R14D
	#DEBUG_VALUE: write_int8_t_array:i <- 0
	movslq	%r14d, %r14
.Ltmp739:
	movabsq	$2736654604714958980, %r13 # imm = 0x25FA8CDD12F8E084
.Ltmp740:
	.align	16, 0x90
.LBB19_3:                               # %for.body
                                        # =>This Inner Loop Header: Depth=1
	#DEBUG_VALUE: write_int8_t_array:fd <- R15D
	#DEBUG_VALUE: write_int8_t_array:i <- 0
	movl	$2, %esi
	movq	%r13, %rdi
	callq	_KEnterRegion
	movl	$8, %edi
	callq	_KPushCDep
	movl	$4, %edi
	callq	_KWork
	movl	$3, %esi
	movl	$1, %edx
	movq	%rbx, %rdi
	callq	_KLoad0
	.loc	3 181 1 discriminator 8 # /home/patmos/github/bachelor_project_HLS/candidates/MachSuite/common/support.c:181:1
.Ltmp741:
	movsbl	(%rbx), %r12d
	xorl	%esi, %esi
	movabsq	$-5653535293917541724, %rdi # imm = 0xB18A9B9A98E94AA4
	callq	_KPrepCall
	movl	$5, %edi
	movl	$8, %esi
	xorl	%edx, %edx
	movl	$3, %ecx
	xorl	%r8d, %r8d
	callq	_KTimestamp2
	movl	$5, %edi
	callq	_KEnqArg
	movl	$1, %edi
	movl	$1, %esi
	xorl	%edx, %edx
	callq	_KTimestamp1
	movl	$1, %edi
	callq	_KEnqArg
	movl	$4, %edi
	callq	_KLinkReturn
	movl	$.L.str19, %esi
	xorl	%eax, %eax
	movl	%r15d, %edi
	movl	%r12d, %edx
	callq	fd_printf
	callq	_KPopCDep
	movl	$2, %esi
	movq	%r13, %rdi
	callq	_KExitRegion
	movl	$7, %edi
	callq	_KPushCDep
	movl	$1, %edi
	callq	_KWork
	movl	$1, (%rsp)
	movl	$8, %edi
	movl	$7, %esi
	movl	$1, %edx
	movl	$6, %ecx
	movl	$1, %r8d
	movl	$9, %r9d
	callq	_KTimestamp3
	callq	_KPopCDep
.Ltmp742:
	.loc	3 181 1                 # /home/patmos/github/bachelor_project_HLS/candidates/MachSuite/common/support.c:181:1
	incq	%rbx
	decq	%r14
	jne	.LBB19_3
.Ltmp743:
.LBB19_4:                               # %for.cond.pre_exit.for.end
	#DEBUG_VALUE: write_int8_t_array:i <- 0
	movl	$1, %esi
	movabsq	$-9209587401811489075, %rdi # imm = 0x8030F90D731D0ECD
	callq	_KExitRegion
	movl	$7, %edi
	callq	_KPushCDep
	callq	_KReturnConst
	callq	_KPopCDep
	xorl	%esi, %esi
	movabsq	$1996429349242365806, %rdi # imm = 0x1BB4BDEA64C1676E
	callq	_KExitRegion
	xorl	%eax, %eax
	.loc	3 181 1 discriminator 9 # /home/patmos/github/bachelor_project_HLS/candidates/MachSuite/common/support.c:181:1
	addq	$8, %rsp
	popq	%rbx
	popq	%r12
	popq	%r13
	popq	%r14
	popq	%r15
	popq	%rbp
	retq
.LBB19_5:                               # %cond.false
	movabsq	$-7023408332692761579, %rdi # imm = 0x9E87D75541545415
	xorl	%esi, %esi
	callq	_KPrepCall
	callq	_KEnqArgConst
	xorl	%esi, %esi
	movabsq	$1996429349242365806, %rdi # imm = 0x1BB4BDEA64C1676E
	callq	_KExitRegion
	.loc	3 181 1 discriminator 4 # /home/patmos/github/bachelor_project_HLS/candidates/MachSuite/common/support.c:181:1
.Ltmp744:
	movl	$.L.str1, %edi
	movl	$.L.str2, %esi
	movl	$181, %edx
	movl	$.L__PRETTY_FUNCTION__.write_int8_t_array, %ecx
	callq	__assert_fail
.Ltmp745:
.Ltmp746:
	.size	write_int8_t_array, .Ltmp746-write_int8_t_array
.Lfunc_end19:
	.cfi_endproc

	.globl	write_int16_t_array
	.align	16, 0x90
	.type	write_int16_t_array,@function
write_int16_t_array:                    # @write_int16_t_array
.Lfunc_begin20:
	.loc	3 182 0 is_stmt 1       # /home/patmos/github/bachelor_project_HLS/candidates/MachSuite/common/support.c:182:0
	.cfi_startproc
# BB#0:                                 # %entry
	pushq	%rbp
.Ltmp747:
	.cfi_def_cfa_offset 16
.Ltmp748:
	.cfi_offset %rbp, -16
	movq	%rsp, %rbp
.Ltmp749:
	.cfi_def_cfa_register %rbp
	pushq	%r15
	pushq	%r14
	pushq	%r13
	pushq	%r12
	pushq	%rbx
	pushq	%rax
.Ltmp750:
	.cfi_offset %rbx, -56
.Ltmp751:
	.cfi_offset %r12, -48
.Ltmp752:
	.cfi_offset %r13, -40
.Ltmp753:
	.cfi_offset %r14, -32
.Ltmp754:
	.cfi_offset %r15, -24
	#DEBUG_VALUE: write_int16_t_array:fd <- EDI
	#DEBUG_VALUE: write_int16_t_array:arr <- RSI
	#DEBUG_VALUE: write_int16_t_array:n <- EDX
	movl	%edx, %r14d
.Ltmp755:
	#DEBUG_VALUE: write_int16_t_array:n <- R14D
	movq	%rsi, %rbx
.Ltmp756:
	#DEBUG_VALUE: write_int16_t_array:arr <- RBX
	movl	%edi, %r15d
.Ltmp757:
	#DEBUG_VALUE: write_int16_t_array:fd <- R15D
	movabsq	$-1033992673877707304, %rdi # imm = 0xF1A685243529B5D8
	xorl	%esi, %esi
	callq	_KEnterRegion
	movl	$10, %edi
	movl	$2, %esi
	callq	_KPrepRTable
	movl	$1, %edi
	callq	_KWork
	movl	$2, %edi
	callq	_KDeqArg
	movl	$1, %edi
	callq	_KDeqArg
	movl	$7, %edi
	movl	$1, %esi
	movl	$1, %edx
	callq	_KTimestamp1
	movl	$7, %edi
	callq	_KPushCDep
	.loc	3 182 1 prologue_end    # /home/patmos/github/bachelor_project_HLS/candidates/MachSuite/common/support.c:182:1
.Ltmp758:
	cmpl	$1, %r15d
	jle	.LBB20_5
.Ltmp759:
# BB#1:                                 # %cond.end
	#DEBUG_VALUE: write_int16_t_array:fd <- R15D
	#DEBUG_VALUE: write_int16_t_array:arr <- RBX
	#DEBUG_VALUE: write_int16_t_array:n <- R14D
	movabsq	$-3454426280993521043, %r12 # imm = 0xD00F69998A9B826D
.Ltmp760:
	#DEBUG_VALUE: write_int16_t_array:i <- 0
	movl	$6, %edi
	movl	$1, %esi
	movl	$1, %edx
	movl	$2, %ecx
	xorl	%r8d, %r8d
	callq	_KTimestamp2
	movl	$9, %edi
	callq	_KInduction
	callq	_KPopCDep
	movl	$1, %esi
	movq	%r12, %rdi
	callq	_KEnterRegion
	movl	$7, %edi
	callq	_KPushCDep
	movl	$1, %edi
	callq	_KWork
	movl	$1, (%rsp)
	movl	$8, %edi
	movl	$7, %esi
	movl	$1, %edx
	movl	$6, %ecx
	movl	$1, %r8d
	movl	$9, %r9d
	callq	_KTimestamp3
	callq	_KPopCDep
	.loc	3 182 1 is_stmt 0       # /home/patmos/github/bachelor_project_HLS/candidates/MachSuite/common/support.c:182:1
.Ltmp761:
	testl	%r14d, %r14d
	jle	.LBB20_4
.Ltmp762:
# BB#2:                                 # %for.body.lr.ph
	#DEBUG_VALUE: write_int16_t_array:fd <- R15D
	#DEBUG_VALUE: write_int16_t_array:arr <- RBX
	#DEBUG_VALUE: write_int16_t_array:n <- R14D
	#DEBUG_VALUE: write_int16_t_array:i <- 0
	movslq	%r14d, %r14
.Ltmp763:
	movabsq	$-7991532076424000536, %r13 # imm = 0x91185FEADD9B8BE8
.Ltmp764:
	.align	16, 0x90
.LBB20_3:                               # %for.body
                                        # =>This Inner Loop Header: Depth=1
	#DEBUG_VALUE: write_int16_t_array:fd <- R15D
	#DEBUG_VALUE: write_int16_t_array:i <- 0
	movl	$2, %esi
	movq	%r13, %rdi
	callq	_KEnterRegion
	movl	$8, %edi
	callq	_KPushCDep
	movl	$4, %edi
	callq	_KWork
	movl	$3, %esi
	movl	$2, %edx
	movq	%rbx, %rdi
	callq	_KLoad0
	.loc	3 182 1 discriminator 8 # /home/patmos/github/bachelor_project_HLS/candidates/MachSuite/common/support.c:182:1
.Ltmp765:
	movswl	(%rbx), %r12d
	xorl	%esi, %esi
	movabsq	$2528624083347724444, %rdi # imm = 0x23177A34E270589C
	callq	_KPrepCall
	movl	$5, %edi
	movl	$8, %esi
	xorl	%edx, %edx
	movl	$3, %ecx
	xorl	%r8d, %r8d
	callq	_KTimestamp2
	movl	$5, %edi
	callq	_KEnqArg
	movl	$1, %edi
	movl	$1, %esi
	xorl	%edx, %edx
	callq	_KTimestamp1
	movl	$1, %edi
	callq	_KEnqArg
	movl	$4, %edi
	callq	_KLinkReturn
	movl	$.L.str19, %esi
	xorl	%eax, %eax
	movl	%r15d, %edi
	movl	%r12d, %edx
	callq	fd_printf
	callq	_KPopCDep
	movl	$2, %esi
	movq	%r13, %rdi
	callq	_KExitRegion
	movl	$7, %edi
	callq	_KPushCDep
	movl	$1, %edi
	callq	_KWork
	movl	$1, (%rsp)
	movl	$8, %edi
	movl	$7, %esi
	movl	$1, %edx
	movl	$6, %ecx
	movl	$1, %r8d
	movl	$9, %r9d
	callq	_KTimestamp3
	callq	_KPopCDep
.Ltmp766:
	.loc	3 182 1                 # /home/patmos/github/bachelor_project_HLS/candidates/MachSuite/common/support.c:182:1
	addq	$2, %rbx
	decq	%r14
	jne	.LBB20_3
.Ltmp767:
.LBB20_4:                               # %for.cond.pre_exit.for.end
	#DEBUG_VALUE: write_int16_t_array:i <- 0
	movl	$1, %esi
	movabsq	$-3454426280993521043, %rdi # imm = 0xD00F69998A9B826D
	callq	_KExitRegion
	movl	$7, %edi
	callq	_KPushCDep
	callq	_KReturnConst
	callq	_KPopCDep
	xorl	%esi, %esi
	movabsq	$-1033992673877707304, %rdi # imm = 0xF1A685243529B5D8
	callq	_KExitRegion
	xorl	%eax, %eax
	.loc	3 182 1 discriminator 9 # /home/patmos/github/bachelor_project_HLS/candidates/MachSuite/common/support.c:182:1
	addq	$8, %rsp
	popq	%rbx
	popq	%r12
	popq	%r13
	popq	%r14
	popq	%r15
	popq	%rbp
	retq
.LBB20_5:                               # %cond.false
	movabsq	$3636180976143981983, %rdi # imm = 0x32764F551E185D9F
	xorl	%esi, %esi
	callq	_KPrepCall
	callq	_KEnqArgConst
	xorl	%esi, %esi
	movabsq	$-1033992673877707304, %rdi # imm = 0xF1A685243529B5D8
	callq	_KExitRegion
	.loc	3 182 1 discriminator 4 # /home/patmos/github/bachelor_project_HLS/candidates/MachSuite/common/support.c:182:1
.Ltmp768:
	movl	$.L.str1, %edi
	movl	$.L.str2, %esi
	movl	$182, %edx
	movl	$.L__PRETTY_FUNCTION__.write_int16_t_array, %ecx
	callq	__assert_fail
.Ltmp769:
.Ltmp770:
	.size	write_int16_t_array, .Ltmp770-write_int16_t_array
.Lfunc_end20:
	.cfi_endproc

	.globl	write_int32_t_array
	.align	16, 0x90
	.type	write_int32_t_array,@function
write_int32_t_array:                    # @write_int32_t_array
.Lfunc_begin21:
	.loc	3 183 0 is_stmt 1       # /home/patmos/github/bachelor_project_HLS/candidates/MachSuite/common/support.c:183:0
	.cfi_startproc
# BB#0:                                 # %entry
	pushq	%rbp
.Ltmp771:
	.cfi_def_cfa_offset 16
.Ltmp772:
	.cfi_offset %rbp, -16
	movq	%rsp, %rbp
.Ltmp773:
	.cfi_def_cfa_register %rbp
	pushq	%r15
	pushq	%r14
	pushq	%r13
	pushq	%r12
	pushq	%rbx
	pushq	%rax
.Ltmp774:
	.cfi_offset %rbx, -56
.Ltmp775:
	.cfi_offset %r12, -48
.Ltmp776:
	.cfi_offset %r13, -40
.Ltmp777:
	.cfi_offset %r14, -32
.Ltmp778:
	.cfi_offset %r15, -24
	#DEBUG_VALUE: write_int32_t_array:fd <- EDI
	#DEBUG_VALUE: write_int32_t_array:arr <- RSI
	#DEBUG_VALUE: write_int32_t_array:n <- EDX
	movl	%edx, %r14d
.Ltmp779:
	#DEBUG_VALUE: write_int32_t_array:n <- R14D
	movq	%rsi, %rbx
.Ltmp780:
	#DEBUG_VALUE: write_int32_t_array:arr <- RBX
	movl	%edi, %r15d
.Ltmp781:
	#DEBUG_VALUE: write_int32_t_array:fd <- R15D
	movabsq	$-4906675504519333745, %rdi # imm = 0xBBE7FCA01503B88F
	xorl	%esi, %esi
	callq	_KEnterRegion
	movl	$9, %edi
	movl	$2, %esi
	callq	_KPrepRTable
	movl	$2, %edi
	callq	_KDeqArg
	movl	$1, %edi
	callq	_KDeqArg
	movl	$1, %edi
	callq	_KWork
	movl	$6, %edi
	movl	$1, %esi
	movl	$1, %edx
	callq	_KTimestamp1
	movl	$6, %edi
	callq	_KPushCDep
	.loc	3 183 1 prologue_end    # /home/patmos/github/bachelor_project_HLS/candidates/MachSuite/common/support.c:183:1
.Ltmp782:
	cmpl	$1, %r15d
	jle	.LBB21_5
.Ltmp783:
# BB#1:                                 # %cond.end
	#DEBUG_VALUE: write_int32_t_array:fd <- R15D
	#DEBUG_VALUE: write_int32_t_array:arr <- RBX
	#DEBUG_VALUE: write_int32_t_array:n <- R14D
	movabsq	$-2234749069658943353, %r12 # imm = 0xE0FC938FB4D81087
.Ltmp784:
	#DEBUG_VALUE: write_int32_t_array:i <- 0
	movl	$5, %edi
	callq	_KInduction
	movl	$7, %edi
	movl	$1, %esi
	movl	$1, %edx
	movl	$2, %ecx
	xorl	%r8d, %r8d
	callq	_KTimestamp2
	callq	_KPopCDep
	movl	$1, %esi
	movq	%r12, %rdi
	callq	_KEnterRegion
	movl	$6, %edi
	callq	_KPushCDep
	movl	$1, %edi
	callq	_KWork
	movl	$1, (%rsp)
	movl	$8, %edi
	movl	$6, %esi
	movl	$1, %edx
	movl	$7, %ecx
	movl	$1, %r8d
	movl	$5, %r9d
	callq	_KTimestamp3
	callq	_KPopCDep
	.loc	3 183 1 is_stmt 0       # /home/patmos/github/bachelor_project_HLS/candidates/MachSuite/common/support.c:183:1
.Ltmp785:
	testl	%r14d, %r14d
	jle	.LBB21_4
.Ltmp786:
# BB#2:                                 # %for.body.lr.ph
	#DEBUG_VALUE: write_int32_t_array:fd <- R15D
	#DEBUG_VALUE: write_int32_t_array:arr <- RBX
	#DEBUG_VALUE: write_int32_t_array:n <- R14D
	#DEBUG_VALUE: write_int32_t_array:i <- 0
	movslq	%r14d, %r14
.Ltmp787:
	movabsq	$694227438188795656, %r13 # imm = 0x9A2642D46929708
.Ltmp788:
	.align	16, 0x90
.LBB21_3:                               # %for.body
                                        # =>This Inner Loop Header: Depth=1
	#DEBUG_VALUE: write_int32_t_array:fd <- R15D
	#DEBUG_VALUE: write_int32_t_array:i <- 0
	movl	$2, %esi
	movq	%r13, %rdi
	callq	_KEnterRegion
	movl	$8, %edi
	callq	_KPushCDep
	movl	$4, %edi
	callq	_KWork
	movl	$3, %esi
	movl	$4, %edx
	movq	%rbx, %rdi
	callq	_KLoad0
	.loc	3 183 1 discriminator 8 # /home/patmos/github/bachelor_project_HLS/candidates/MachSuite/common/support.c:183:1
.Ltmp789:
	movl	(%rbx), %r12d
	xorl	%esi, %esi
	movabsq	$-4041869100711062124, %rdi # imm = 0xC7E86577B77D5594
	callq	_KPrepCall
	movl	$3, %edi
	movl	$3, %esi
	xorl	%edx, %edx
	callq	_KTimestamp1
	movl	$3, %edi
	callq	_KEnqArg
	movl	$1, %edi
	movl	$1, %esi
	xorl	%edx, %edx
	callq	_KTimestamp1
	movl	$1, %edi
	callq	_KEnqArg
	movl	$4, %edi
	callq	_KLinkReturn
	movl	$.L.str19, %esi
	xorl	%eax, %eax
	movl	%r15d, %edi
	movl	%r12d, %edx
	callq	fd_printf
	callq	_KPopCDep
	movl	$2, %esi
	movq	%r13, %rdi
	callq	_KExitRegion
	movl	$6, %edi
	callq	_KPushCDep
	movl	$1, %edi
	callq	_KWork
	movl	$1, (%rsp)
	movl	$8, %edi
	movl	$6, %esi
	movl	$1, %edx
	movl	$7, %ecx
	movl	$1, %r8d
	movl	$5, %r9d
	callq	_KTimestamp3
	callq	_KPopCDep
.Ltmp790:
	.loc	3 183 1                 # /home/patmos/github/bachelor_project_HLS/candidates/MachSuite/common/support.c:183:1
	addq	$4, %rbx
	decq	%r14
	jne	.LBB21_3
.Ltmp791:
.LBB21_4:                               # %for.cond.pre_exit.for.end
	#DEBUG_VALUE: write_int32_t_array:i <- 0
	movl	$1, %esi
	movabsq	$-2234749069658943353, %rdi # imm = 0xE0FC938FB4D81087
	callq	_KExitRegion
	movl	$6, %edi
	callq	_KPushCDep
	callq	_KReturnConst
	callq	_KPopCDep
	xorl	%esi, %esi
	movabsq	$-4906675504519333745, %rdi # imm = 0xBBE7FCA01503B88F
	callq	_KExitRegion
	xorl	%eax, %eax
	.loc	3 183 1 discriminator 9 # /home/patmos/github/bachelor_project_HLS/candidates/MachSuite/common/support.c:183:1
	addq	$8, %rsp
	popq	%rbx
	popq	%r12
	popq	%r13
	popq	%r14
	popq	%r15
	popq	%rbp
	retq
.LBB21_5:                               # %cond.false
	movabsq	$3515366885471635798, %rdi # imm = 0x30C9178E9FB54956
	xorl	%esi, %esi
	callq	_KPrepCall
	callq	_KEnqArgConst
	xorl	%esi, %esi
	movabsq	$-4906675504519333745, %rdi # imm = 0xBBE7FCA01503B88F
	callq	_KExitRegion
	.loc	3 183 1 discriminator 4 # /home/patmos/github/bachelor_project_HLS/candidates/MachSuite/common/support.c:183:1
.Ltmp792:
	movl	$.L.str1, %edi
	movl	$.L.str2, %esi
	movl	$183, %edx
	movl	$.L__PRETTY_FUNCTION__.write_int32_t_array, %ecx
	callq	__assert_fail
.Ltmp793:
.Ltmp794:
	.size	write_int32_t_array, .Ltmp794-write_int32_t_array
.Lfunc_end21:
	.cfi_endproc

	.globl	write_int64_t_array
	.align	16, 0x90
	.type	write_int64_t_array,@function
write_int64_t_array:                    # @write_int64_t_array
.Lfunc_begin22:
	.loc	3 184 0 is_stmt 1       # /home/patmos/github/bachelor_project_HLS/candidates/MachSuite/common/support.c:184:0
	.cfi_startproc
# BB#0:                                 # %entry
	pushq	%rbp
.Ltmp795:
	.cfi_def_cfa_offset 16
.Ltmp796:
	.cfi_offset %rbp, -16
	movq	%rsp, %rbp
.Ltmp797:
	.cfi_def_cfa_register %rbp
	pushq	%r15
	pushq	%r14
	pushq	%r13
	pushq	%r12
	pushq	%rbx
	pushq	%rax
.Ltmp798:
	.cfi_offset %rbx, -56
.Ltmp799:
	.cfi_offset %r12, -48
.Ltmp800:
	.cfi_offset %r13, -40
.Ltmp801:
	.cfi_offset %r14, -32
.Ltmp802:
	.cfi_offset %r15, -24
	#DEBUG_VALUE: write_int64_t_array:fd <- EDI
	#DEBUG_VALUE: write_int64_t_array:arr <- RSI
	#DEBUG_VALUE: write_int64_t_array:n <- EDX
	movl	%edx, %r14d
.Ltmp803:
	#DEBUG_VALUE: write_int64_t_array:n <- R14D
	movq	%rsi, %rbx
.Ltmp804:
	#DEBUG_VALUE: write_int64_t_array:arr <- RBX
	movl	%edi, %r15d
.Ltmp805:
	#DEBUG_VALUE: write_int64_t_array:fd <- R15D
	movabsq	$-4022121019593469203, %rdi # imm = 0xC82E8E3E277FD2ED
	xorl	%esi, %esi
	callq	_KEnterRegion
	movl	$9, %edi
	movl	$2, %esi
	callq	_KPrepRTable
	movl	$2, %edi
	callq	_KDeqArg
	movl	$1, %edi
	callq	_KDeqArg
	movl	$1, %edi
	callq	_KWork
	movl	$6, %edi
	movl	$1, %esi
	movl	$1, %edx
	callq	_KTimestamp1
	movl	$6, %edi
	callq	_KPushCDep
	.loc	3 184 1 prologue_end    # /home/patmos/github/bachelor_project_HLS/candidates/MachSuite/common/support.c:184:1
.Ltmp806:
	cmpl	$1, %r15d
	jle	.LBB22_5
.Ltmp807:
# BB#1:                                 # %cond.end
	#DEBUG_VALUE: write_int64_t_array:fd <- R15D
	#DEBUG_VALUE: write_int64_t_array:arr <- RBX
	#DEBUG_VALUE: write_int64_t_array:n <- R14D
	movabsq	$5589946355557675413, %r12 # imm = 0x4D937A97F4813195
.Ltmp808:
	#DEBUG_VALUE: write_int64_t_array:i <- 0
	movl	$5, %edi
	callq	_KInduction
	movl	$7, %edi
	movl	$1, %esi
	movl	$1, %edx
	movl	$2, %ecx
	xorl	%r8d, %r8d
	callq	_KTimestamp2
	callq	_KPopCDep
	movl	$1, %esi
	movq	%r12, %rdi
	callq	_KEnterRegion
	movl	$6, %edi
	callq	_KPushCDep
	movl	$1, %edi
	callq	_KWork
	movl	$1, (%rsp)
	movl	$8, %edi
	movl	$6, %esi
	movl	$1, %edx
	movl	$7, %ecx
	movl	$1, %r8d
	movl	$5, %r9d
	callq	_KTimestamp3
	callq	_KPopCDep
	.loc	3 184 1 is_stmt 0       # /home/patmos/github/bachelor_project_HLS/candidates/MachSuite/common/support.c:184:1
.Ltmp809:
	testl	%r14d, %r14d
	jle	.LBB22_4
.Ltmp810:
# BB#2:                                 # %for.body.lr.ph
	#DEBUG_VALUE: write_int64_t_array:fd <- R15D
	#DEBUG_VALUE: write_int64_t_array:arr <- RBX
	#DEBUG_VALUE: write_int64_t_array:n <- R14D
	#DEBUG_VALUE: write_int64_t_array:i <- 0
	movslq	%r14d, %r14
.Ltmp811:
	movabsq	$5464470880803383264, %r13 # imm = 0x4BD5B35067C067E0
.Ltmp812:
	.align	16, 0x90
.LBB22_3:                               # %for.body
                                        # =>This Inner Loop Header: Depth=1
	#DEBUG_VALUE: write_int64_t_array:fd <- R15D
	#DEBUG_VALUE: write_int64_t_array:i <- 0
	movl	$2, %esi
	movq	%r13, %rdi
	callq	_KEnterRegion
	movl	$8, %edi
	callq	_KPushCDep
	movl	$4, %edi
	callq	_KWork
	movl	$3, %esi
	movl	$8, %edx
	movq	%rbx, %rdi
	callq	_KLoad0
	.loc	3 184 1 discriminator 8 # /home/patmos/github/bachelor_project_HLS/candidates/MachSuite/common/support.c:184:1
.Ltmp813:
	movq	(%rbx), %r12
	xorl	%esi, %esi
	movabsq	$-1010369364438155001, %rdi # imm = 0xF1FA726A8CBA0107
	callq	_KPrepCall
	movl	$3, %edi
	movl	$3, %esi
	xorl	%edx, %edx
	callq	_KTimestamp1
	movl	$3, %edi
	callq	_KEnqArg
	movl	$1, %edi
	movl	$1, %esi
	xorl	%edx, %edx
	callq	_KTimestamp1
	movl	$1, %edi
	callq	_KEnqArg
	movl	$4, %edi
	callq	_KLinkReturn
	movl	$.L.str20, %esi
	xorl	%eax, %eax
	movl	%r15d, %edi
	movq	%r12, %rdx
	callq	fd_printf
	callq	_KPopCDep
	movl	$2, %esi
	movq	%r13, %rdi
	callq	_KExitRegion
	movl	$6, %edi
	callq	_KPushCDep
	movl	$1, %edi
	callq	_KWork
	movl	$1, (%rsp)
	movl	$8, %edi
	movl	$6, %esi
	movl	$1, %edx
	movl	$7, %ecx
	movl	$1, %r8d
	movl	$5, %r9d
	callq	_KTimestamp3
	callq	_KPopCDep
.Ltmp814:
	.loc	3 184 1                 # /home/patmos/github/bachelor_project_HLS/candidates/MachSuite/common/support.c:184:1
	addq	$8, %rbx
	decq	%r14
	jne	.LBB22_3
.Ltmp815:
.LBB22_4:                               # %for.cond.pre_exit.for.end
	#DEBUG_VALUE: write_int64_t_array:i <- 0
	movl	$1, %esi
	movabsq	$5589946355557675413, %rdi # imm = 0x4D937A97F4813195
	callq	_KExitRegion
	movl	$6, %edi
	callq	_KPushCDep
	callq	_KReturnConst
	callq	_KPopCDep
	xorl	%esi, %esi
	movabsq	$-4022121019593469203, %rdi # imm = 0xC82E8E3E277FD2ED
	callq	_KExitRegion
	xorl	%eax, %eax
	.loc	3 184 1 discriminator 9 # /home/patmos/github/bachelor_project_HLS/candidates/MachSuite/common/support.c:184:1
	addq	$8, %rsp
	popq	%rbx
	popq	%r12
	popq	%r13
	popq	%r14
	popq	%r15
	popq	%rbp
	retq
.LBB22_5:                               # %cond.false
	movabsq	$-6091584399793887038, %rdi # imm = 0xAB76584352F968C2
	xorl	%esi, %esi
	callq	_KPrepCall
	callq	_KEnqArgConst
	xorl	%esi, %esi
	movabsq	$-4022121019593469203, %rdi # imm = 0xC82E8E3E277FD2ED
	callq	_KExitRegion
	.loc	3 184 1 discriminator 4 # /home/patmos/github/bachelor_project_HLS/candidates/MachSuite/common/support.c:184:1
.Ltmp816:
	movl	$.L.str1, %edi
	movl	$.L.str2, %esi
	movl	$184, %edx
	movl	$.L__PRETTY_FUNCTION__.write_int64_t_array, %ecx
	callq	__assert_fail
.Ltmp817:
.Ltmp818:
	.size	write_int64_t_array, .Ltmp818-write_int64_t_array
.Lfunc_end22:
	.cfi_endproc

	.globl	write_float_array
	.align	16, 0x90
	.type	write_float_array,@function
write_float_array:                      # @write_float_array
.Lfunc_begin23:
	.loc	3 186 0 is_stmt 1       # /home/patmos/github/bachelor_project_HLS/candidates/MachSuite/common/support.c:186:0
	.cfi_startproc
# BB#0:                                 # %entry
	pushq	%rbp
.Ltmp819:
	.cfi_def_cfa_offset 16
.Ltmp820:
	.cfi_offset %rbp, -16
	movq	%rsp, %rbp
.Ltmp821:
	.cfi_def_cfa_register %rbp
	pushq	%r15
	pushq	%r14
	pushq	%r13
	pushq	%r12
	pushq	%rbx
	subq	$24, %rsp
.Ltmp822:
	.cfi_offset %rbx, -56
.Ltmp823:
	.cfi_offset %r12, -48
.Ltmp824:
	.cfi_offset %r13, -40
.Ltmp825:
	.cfi_offset %r14, -32
.Ltmp826:
	.cfi_offset %r15, -24
	#DEBUG_VALUE: write_float_array:fd <- EDI
	#DEBUG_VALUE: write_float_array:arr <- RSI
	#DEBUG_VALUE: write_float_array:n <- EDX
	movl	%edx, %r14d
.Ltmp827:
	#DEBUG_VALUE: write_float_array:n <- R14D
	movq	%rsi, %rbx
.Ltmp828:
	#DEBUG_VALUE: write_float_array:arr <- RBX
	movl	%edi, %r15d
.Ltmp829:
	#DEBUG_VALUE: write_float_array:fd <- R15D
	movabsq	$334673261070660700, %rdi # imm = 0x4A4FF8EC9F0345C
	xorl	%esi, %esi
	callq	_KEnterRegion
	movl	$10, %edi
	movl	$2, %esi
	callq	_KPrepRTable
	movl	$1, %edi
	callq	_KWork
	movl	$2, %edi
	callq	_KDeqArg
	movl	$1, %edi
	callq	_KDeqArg
	movl	$7, %edi
	movl	$1, %esi
	movl	$1, %edx
	callq	_KTimestamp1
	movl	$7, %edi
	callq	_KPushCDep
	.loc	3 186 1 prologue_end    # /home/patmos/github/bachelor_project_HLS/candidates/MachSuite/common/support.c:186:1
.Ltmp830:
	cmpl	$1, %r15d
	jle	.LBB23_5
.Ltmp831:
# BB#1:                                 # %cond.end
	#DEBUG_VALUE: write_float_array:fd <- R15D
	#DEBUG_VALUE: write_float_array:arr <- RBX
	#DEBUG_VALUE: write_float_array:n <- R14D
	movabsq	$83210498179555225, %r12 # imm = 0x1279F81D9935F99
.Ltmp832:
	#DEBUG_VALUE: write_float_array:i <- 0
	movl	$6, %edi
	movl	$1, %esi
	movl	$1, %edx
	movl	$2, %ecx
	xorl	%r8d, %r8d
	callq	_KTimestamp2
	movl	$9, %edi
	callq	_KInduction
	callq	_KPopCDep
	movl	$1, %esi
	movq	%r12, %rdi
	callq	_KEnterRegion
	movl	$7, %edi
	callq	_KPushCDep
	movl	$1, %edi
	callq	_KWork
	movl	$1, (%rsp)
	movl	$8, %edi
	movl	$7, %esi
	movl	$1, %edx
	movl	$6, %ecx
	movl	$1, %r8d
	movl	$9, %r9d
	callq	_KTimestamp3
	callq	_KPopCDep
	.loc	3 186 1 is_stmt 0       # /home/patmos/github/bachelor_project_HLS/candidates/MachSuite/common/support.c:186:1
.Ltmp833:
	testl	%r14d, %r14d
	jle	.LBB23_4
.Ltmp834:
# BB#2:                                 # %for.body.lr.ph
	#DEBUG_VALUE: write_float_array:fd <- R15D
	#DEBUG_VALUE: write_float_array:arr <- RBX
	#DEBUG_VALUE: write_float_array:n <- R14D
	#DEBUG_VALUE: write_float_array:i <- 0
	movslq	%r14d, %r12
	movabsq	$9183693743712842425, %r13 # imm = 0x7F7308CD77FB32B9
	movabsq	$5602815882928443686, %r14 # imm = 0x4DC1335C4BDDD126
.Ltmp835:
	.align	16, 0x90
.LBB23_3:                               # %for.body
                                        # =>This Inner Loop Header: Depth=1
	#DEBUG_VALUE: write_float_array:fd <- R15D
	#DEBUG_VALUE: write_float_array:i <- 0
	movl	$2, %esi
	movq	%r13, %rdi
	callq	_KEnterRegion
	movl	$8, %edi
	callq	_KPushCDep
	movl	$4, %edi
	callq	_KWork
	movl	$3, %esi
	movl	$4, %edx
	movq	%rbx, %rdi
	callq	_KLoad0
	.loc	3 186 1 discriminator 8 # /home/patmos/github/bachelor_project_HLS/candidates/MachSuite/common/support.c:186:1
.Ltmp836:
	movss	(%rbx), %xmm0
	cvtss2sd	%xmm0, %xmm0
	movsd	%xmm0, -48(%rbp)        # 8-byte Spill
	xorl	%esi, %esi
	movq	%r14, %rdi
	callq	_KPrepCall
	movl	$5, %edi
	movl	$8, %esi
	xorl	%edx, %edx
	movl	$3, %ecx
	xorl	%r8d, %r8d
	callq	_KTimestamp2
	movl	$5, %edi
	callq	_KEnqArg
	movl	$1, %edi
	movl	$1, %esi
	xorl	%edx, %edx
	callq	_KTimestamp1
	movl	$1, %edi
	callq	_KEnqArg
	movl	$4, %edi
	callq	_KLinkReturn
	movl	$.L.str21, %esi
	movb	$1, %al
	movl	%r15d, %edi
	movsd	-48(%rbp), %xmm0        # 8-byte Reload
	callq	fd_printf
	callq	_KPopCDep
	movl	$2, %esi
	movq	%r13, %rdi
	callq	_KExitRegion
	movl	$7, %edi
	callq	_KPushCDep
	movl	$1, %edi
	callq	_KWork
	movl	$1, (%rsp)
	movl	$8, %edi
	movl	$7, %esi
	movl	$1, %edx
	movl	$6, %ecx
	movl	$1, %r8d
	movl	$9, %r9d
	callq	_KTimestamp3
	callq	_KPopCDep
.Ltmp837:
	.loc	3 186 1                 # /home/patmos/github/bachelor_project_HLS/candidates/MachSuite/common/support.c:186:1
	addq	$4, %rbx
	decq	%r12
	jne	.LBB23_3
.Ltmp838:
.LBB23_4:                               # %for.cond.pre_exit.for.end
	#DEBUG_VALUE: write_float_array:i <- 0
	movl	$1, %esi
	movabsq	$83210498179555225, %rdi # imm = 0x1279F81D9935F99
	callq	_KExitRegion
	movl	$7, %edi
	callq	_KPushCDep
	callq	_KReturnConst
	callq	_KPopCDep
	xorl	%esi, %esi
	movabsq	$334673261070660700, %rdi # imm = 0x4A4FF8EC9F0345C
	callq	_KExitRegion
	xorl	%eax, %eax
	.loc	3 186 1 discriminator 9 # /home/patmos/github/bachelor_project_HLS/candidates/MachSuite/common/support.c:186:1
	addq	$24, %rsp
	popq	%rbx
	popq	%r12
	popq	%r13
	popq	%r14
	popq	%r15
	popq	%rbp
	retq
.LBB23_5:                               # %cond.false
	movabsq	$4623425749338686067, %rdi # imm = 0x4029B5391ABA0273
	xorl	%esi, %esi
	callq	_KPrepCall
	callq	_KEnqArgConst
	xorl	%esi, %esi
	movabsq	$334673261070660700, %rdi # imm = 0x4A4FF8EC9F0345C
	callq	_KExitRegion
	.loc	3 186 1 discriminator 4 # /home/patmos/github/bachelor_project_HLS/candidates/MachSuite/common/support.c:186:1
.Ltmp839:
	movl	$.L.str1, %edi
	movl	$.L.str2, %esi
	movl	$186, %edx
	movl	$.L__PRETTY_FUNCTION__.write_float_array, %ecx
	callq	__assert_fail
.Ltmp840:
.Ltmp841:
	.size	write_float_array, .Ltmp841-write_float_array
.Lfunc_end23:
	.cfi_endproc

	.globl	write_double_array
	.align	16, 0x90
	.type	write_double_array,@function
write_double_array:                     # @write_double_array
.Lfunc_begin24:
	.loc	3 187 0 is_stmt 1       # /home/patmos/github/bachelor_project_HLS/candidates/MachSuite/common/support.c:187:0
	.cfi_startproc
# BB#0:                                 # %entry
	pushq	%rbp
.Ltmp842:
	.cfi_def_cfa_offset 16
.Ltmp843:
	.cfi_offset %rbp, -16
	movq	%rsp, %rbp
.Ltmp844:
	.cfi_def_cfa_register %rbp
	pushq	%r15
	pushq	%r14
	pushq	%r13
	pushq	%r12
	pushq	%rbx
	subq	$24, %rsp
.Ltmp845:
	.cfi_offset %rbx, -56
.Ltmp846:
	.cfi_offset %r12, -48
.Ltmp847:
	.cfi_offset %r13, -40
.Ltmp848:
	.cfi_offset %r14, -32
.Ltmp849:
	.cfi_offset %r15, -24
	#DEBUG_VALUE: write_double_array:fd <- EDI
	#DEBUG_VALUE: write_double_array:arr <- RSI
	#DEBUG_VALUE: write_double_array:n <- EDX
	movl	%edx, %r14d
.Ltmp850:
	#DEBUG_VALUE: write_double_array:n <- R14D
	movq	%rsi, %rbx
.Ltmp851:
	#DEBUG_VALUE: write_double_array:arr <- RBX
	movl	%edi, %r15d
.Ltmp852:
	#DEBUG_VALUE: write_double_array:fd <- R15D
	movabsq	$1923433350779250899, %rdi # imm = 0x1AB16871165628D3
	xorl	%esi, %esi
	callq	_KEnterRegion
	movl	$9, %edi
	movl	$2, %esi
	callq	_KPrepRTable
	movl	$2, %edi
	callq	_KDeqArg
	movl	$1, %edi
	callq	_KDeqArg
	movl	$1, %edi
	callq	_KWork
	movl	$6, %edi
	movl	$1, %esi
	movl	$1, %edx
	callq	_KTimestamp1
	movl	$6, %edi
	callq	_KPushCDep
	.loc	3 187 1 prologue_end    # /home/patmos/github/bachelor_project_HLS/candidates/MachSuite/common/support.c:187:1
.Ltmp853:
	cmpl	$1, %r15d
	jle	.LBB24_5
.Ltmp854:
# BB#1:                                 # %cond.end
	#DEBUG_VALUE: write_double_array:fd <- R15D
	#DEBUG_VALUE: write_double_array:arr <- RBX
	#DEBUG_VALUE: write_double_array:n <- R14D
	movabsq	$9158109203980071109, %r12 # imm = 0x7F1823CC9D77B0C5
.Ltmp855:
	#DEBUG_VALUE: write_double_array:i <- 0
	movl	$5, %edi
	callq	_KInduction
	movl	$7, %edi
	movl	$1, %esi
	movl	$1, %edx
	movl	$2, %ecx
	xorl	%r8d, %r8d
	callq	_KTimestamp2
	callq	_KPopCDep
	movl	$1, %esi
	movq	%r12, %rdi
	callq	_KEnterRegion
	movl	$6, %edi
	callq	_KPushCDep
	movl	$1, %edi
	callq	_KWork
	movl	$1, (%rsp)
	movl	$8, %edi
	movl	$6, %esi
	movl	$1, %edx
	movl	$7, %ecx
	movl	$1, %r8d
	movl	$5, %r9d
	callq	_KTimestamp3
	callq	_KPopCDep
	.loc	3 187 1 is_stmt 0       # /home/patmos/github/bachelor_project_HLS/candidates/MachSuite/common/support.c:187:1
.Ltmp856:
	testl	%r14d, %r14d
	jle	.LBB24_4
.Ltmp857:
# BB#2:                                 # %for.body.lr.ph
	#DEBUG_VALUE: write_double_array:fd <- R15D
	#DEBUG_VALUE: write_double_array:arr <- RBX
	#DEBUG_VALUE: write_double_array:n <- R14D
	#DEBUG_VALUE: write_double_array:i <- 0
	movslq	%r14d, %r12
	movabsq	$3906920466435732022, %r13 # imm = 0x36382B76E79AF236
	movabsq	$-2763514264863540440, %r14 # imm = 0xD9A6066AF7157B28
.Ltmp858:
	.align	16, 0x90
.LBB24_3:                               # %for.body
                                        # =>This Inner Loop Header: Depth=1
	#DEBUG_VALUE: write_double_array:fd <- R15D
	#DEBUG_VALUE: write_double_array:i <- 0
	movl	$2, %esi
	movq	%r13, %rdi
	callq	_KEnterRegion
	movl	$8, %edi
	callq	_KPushCDep
	movl	$4, %edi
	callq	_KWork
	movl	$3, %esi
	movl	$8, %edx
	movq	%rbx, %rdi
	callq	_KLoad0
	.loc	3 187 1 discriminator 8 # /home/patmos/github/bachelor_project_HLS/candidates/MachSuite/common/support.c:187:1
.Ltmp859:
	movsd	(%rbx), %xmm0
	movsd	%xmm0, -48(%rbp)        # 8-byte Spill
	xorl	%esi, %esi
	movq	%r14, %rdi
	callq	_KPrepCall
	movl	$3, %edi
	movl	$3, %esi
	xorl	%edx, %edx
	callq	_KTimestamp1
	movl	$3, %edi
	callq	_KEnqArg
	movl	$1, %edi
	movl	$1, %esi
	xorl	%edx, %edx
	callq	_KTimestamp1
	movl	$1, %edi
	callq	_KEnqArg
	movl	$4, %edi
	callq	_KLinkReturn
	movl	$.L.str21, %esi
	movb	$1, %al
	movl	%r15d, %edi
	movsd	-48(%rbp), %xmm0        # 8-byte Reload
	callq	fd_printf
	callq	_KPopCDep
	movl	$2, %esi
	movq	%r13, %rdi
	callq	_KExitRegion
	movl	$6, %edi
	callq	_KPushCDep
	movl	$1, %edi
	callq	_KWork
	movl	$1, (%rsp)
	movl	$8, %edi
	movl	$6, %esi
	movl	$1, %edx
	movl	$7, %ecx
	movl	$1, %r8d
	movl	$5, %r9d
	callq	_KTimestamp3
	callq	_KPopCDep
.Ltmp860:
	.loc	3 187 1                 # /home/patmos/github/bachelor_project_HLS/candidates/MachSuite/common/support.c:187:1
	addq	$8, %rbx
	decq	%r12
	jne	.LBB24_3
.Ltmp861:
.LBB24_4:                               # %for.cond.pre_exit.for.end
	#DEBUG_VALUE: write_double_array:i <- 0
	movl	$1, %esi
	movabsq	$9158109203980071109, %rdi # imm = 0x7F1823CC9D77B0C5
	callq	_KExitRegion
	movl	$6, %edi
	callq	_KPushCDep
	callq	_KReturnConst
	callq	_KPopCDep
	xorl	%esi, %esi
	movabsq	$1923433350779250899, %rdi # imm = 0x1AB16871165628D3
	callq	_KExitRegion
	xorl	%eax, %eax
	.loc	3 187 1 discriminator 9 # /home/patmos/github/bachelor_project_HLS/candidates/MachSuite/common/support.c:187:1
	addq	$24, %rsp
	popq	%rbx
	popq	%r12
	popq	%r13
	popq	%r14
	popq	%r15
	popq	%rbp
	retq
.LBB24_5:                               # %cond.false
	movabsq	$-8266533292741136802, %rdi # imm = 0x8D475FC4AA396E5E
	xorl	%esi, %esi
	callq	_KPrepCall
	callq	_KEnqArgConst
	xorl	%esi, %esi
	movabsq	$1923433350779250899, %rdi # imm = 0x1AB16871165628D3
	callq	_KExitRegion
	.loc	3 187 1 discriminator 4 # /home/patmos/github/bachelor_project_HLS/candidates/MachSuite/common/support.c:187:1
.Ltmp862:
	movl	$.L.str1, %edi
	movl	$.L.str2, %esi
	movl	$187, %edx
	movl	$.L__PRETTY_FUNCTION__.write_double_array, %ecx
	callq	__assert_fail
.Ltmp863:
.Ltmp864:
	.size	write_double_array, .Ltmp864-write_double_array
.Lfunc_end24:
	.cfi_endproc

	.globl	write_section_header
	.align	16, 0x90
	.type	write_section_header,@function
write_section_header:                   # @write_section_header
.Lfunc_begin25:
	.loc	3 189 0 is_stmt 1       # /home/patmos/github/bachelor_project_HLS/candidates/MachSuite/common/support.c:189:0
	.cfi_startproc
# BB#0:                                 # %entry
	pushq	%rbp
.Ltmp865:
	.cfi_def_cfa_offset 16
.Ltmp866:
	.cfi_offset %rbp, -16
	movq	%rsp, %rbp
.Ltmp867:
	.cfi_def_cfa_register %rbp
	pushq	%r14
	pushq	%rbx
.Ltmp868:
	.cfi_offset %rbx, -32
.Ltmp869:
	.cfi_offset %r14, -24
	#DEBUG_VALUE: write_section_header:fd <- EDI
	movl	%edi, %ebx
.Ltmp870:
	#DEBUG_VALUE: write_section_header:fd <- EBX
	movabsq	$1651520443893317859, %r14 # imm = 0x16EB6117F58E80E3
	xorl	%esi, %esi
	movq	%r14, %rdi
	callq	_KEnterRegion
	movl	$4, %edi
	xorl	%esi, %esi
	callq	_KPrepRTable
	movl	$1, %edi
	callq	_KDeqArg
	movl	$1, %edi
	callq	_KWork
	movl	$3, %edi
	movl	$1, %esi
	movl	$1, %edx
	callq	_KTimestamp1
	movl	$3, %edi
	callq	_KPushCDep
	.loc	3 190 3 prologue_end    # /home/patmos/github/bachelor_project_HLS/candidates/MachSuite/common/support.c:190:3
.Ltmp871:
	cmpl	$1, %ebx
	jle	.LBB25_2
.Ltmp872:
# BB#1:                                 # %cond.end
	#DEBUG_VALUE: write_section_header:fd <- EBX
	movl	$1, %edi
	movl	$1, %esi
	xorl	%edx, %edx
	callq	_KTimestamp1
	movabsq	$-5282962413495005357, %rdi # imm = 0xB6AF25ACDDE3CF53
	xorl	%esi, %esi
	callq	_KPrepCall
	movl	$1, %edi
	callq	_KEnqArg
	movl	$2, %edi
	callq	_KLinkReturn
	.loc	3 191 3                 # /home/patmos/github/bachelor_project_HLS/candidates/MachSuite/common/support.c:191:3
	movl	$.L.str22, %esi
	xorl	%eax, %eax
	movl	%ebx, %edi
	callq	fd_printf
	callq	_KReturnConst
	callq	_KPopCDep
	xorl	%esi, %esi
	movq	%r14, %rdi
	callq	_KExitRegion
	xorl	%eax, %eax
	.loc	3 192 3                 # /home/patmos/github/bachelor_project_HLS/candidates/MachSuite/common/support.c:192:3
	popq	%rbx
.Ltmp873:
	popq	%r14
	popq	%rbp
	retq
.LBB25_2:                               # %cond.false
	movabsq	$6991505929682037590, %rdi # imm = 0x6106D199B7BC2B56
	xorl	%esi, %esi
	callq	_KPrepCall
	callq	_KEnqArgConst
	xorl	%esi, %esi
	movq	%r14, %rdi
	callq	_KExitRegion
	.loc	3 190 3 discriminator 4 # /home/patmos/github/bachelor_project_HLS/candidates/MachSuite/common/support.c:190:3
.Ltmp874:
	movl	$.L.str1, %edi
	movl	$.L.str2, %esi
	movl	$190, %edx
	movl	$.L__PRETTY_FUNCTION__.write_section_header, %ecx
	callq	__assert_fail
.Ltmp875:
.Ltmp876:
	.size	write_section_header, .Ltmp876-write_section_header
.Lfunc_end25:
	.cfi_endproc

	.type	.L.str1,@object         # @.str1
	.section	.rodata.str1.1,"aMS",@progbits,1
.L.str1:
	.asciz	"fd>1 && \"Invalid file descriptor\""
	.size	.L.str1, 34

	.type	.L.str2,@object         # @.str2
.L.str2:
	.asciz	"/home/patmos/github/bachelor_project_HLS/candidates/MachSuite/common/support.c"
	.size	.L.str2, 79

	.type	.L__PRETTY_FUNCTION__.readfile,@object # @__PRETTY_FUNCTION__.readfile
.L__PRETTY_FUNCTION__.readfile:
	.asciz	"char *readfile(int)"
	.size	.L__PRETTY_FUNCTION__.readfile, 20

	.type	.L.str4,@object         # @.str4
.L.str4:
	.asciz	"0==fstat(fd, &s) && \"Couldn't determine file size\""
	.size	.L.str4, 51

	.type	.L.str6,@object         # @.str6
.L.str6:
	.asciz	"len>0 && \"File is empty\""
	.size	.L.str6, 25

	.type	.L.str8,@object         # @.str8
.L.str8:
	.asciz	"status>=0 && \"read() failed\""
	.size	.L.str8, 29

	.type	.L.str10,@object        # @.str10
.L.str10:
	.asciz	"n>=0 && \"Invalid section number\""
	.size	.L.str10, 33

	.type	.L__PRETTY_FUNCTION__.find_section_start,@object # @__PRETTY_FUNCTION__.find_section_start
.L__PRETTY_FUNCTION__.find_section_start:
	.asciz	"char *find_section_start(char *, int)"
	.size	.L__PRETTY_FUNCTION__.find_section_start, 38

	.type	.L.str12,@object        # @.str12
.L.str12:
	.asciz	"s!=NULL && \"Invalid input string\""
	.size	.L.str12, 34

	.type	.L__PRETTY_FUNCTION__.parse_string,@object # @__PRETTY_FUNCTION__.parse_string
.L__PRETTY_FUNCTION__.parse_string:
	.asciz	"int parse_string(char *, char *, int)"
	.size	.L__PRETTY_FUNCTION__.parse_string, 38

	.type	.L__PRETTY_FUNCTION__.parse_uint8_t_array,@object # @__PRETTY_FUNCTION__.parse_uint8_t_array
.L__PRETTY_FUNCTION__.parse_uint8_t_array:
	.asciz	"int parse_uint8_t_array(char *, uint8_t *, int)"
	.size	.L__PRETTY_FUNCTION__.parse_uint8_t_array, 48

	.type	.L.str13,@object        # @.str13
.L.str13:
	.asciz	"\n"
	.size	.L.str13, 2

	.type	.L.str14,@object        # @.str14
.L.str14:
	.asciz	"Invalid input: line %d of section\n"
	.size	.L.str14, 35

	.type	.L__PRETTY_FUNCTION__.parse_uint16_t_array,@object # @__PRETTY_FUNCTION__.parse_uint16_t_array
.L__PRETTY_FUNCTION__.parse_uint16_t_array:
	.asciz	"int parse_uint16_t_array(char *, uint16_t *, int)"
	.size	.L__PRETTY_FUNCTION__.parse_uint16_t_array, 50

	.type	.L__PRETTY_FUNCTION__.parse_uint32_t_array,@object # @__PRETTY_FUNCTION__.parse_uint32_t_array
.L__PRETTY_FUNCTION__.parse_uint32_t_array:
	.asciz	"int parse_uint32_t_array(char *, uint32_t *, int)"
	.size	.L__PRETTY_FUNCTION__.parse_uint32_t_array, 50

	.type	.L__PRETTY_FUNCTION__.parse_uint64_t_array,@object # @__PRETTY_FUNCTION__.parse_uint64_t_array
.L__PRETTY_FUNCTION__.parse_uint64_t_array:
	.asciz	"int parse_uint64_t_array(char *, uint64_t *, int)"
	.size	.L__PRETTY_FUNCTION__.parse_uint64_t_array, 50

	.type	.L__PRETTY_FUNCTION__.parse_int8_t_array,@object # @__PRETTY_FUNCTION__.parse_int8_t_array
.L__PRETTY_FUNCTION__.parse_int8_t_array:
	.asciz	"int parse_int8_t_array(char *, int8_t *, int)"
	.size	.L__PRETTY_FUNCTION__.parse_int8_t_array, 46

	.type	.L__PRETTY_FUNCTION__.parse_int16_t_array,@object # @__PRETTY_FUNCTION__.parse_int16_t_array
.L__PRETTY_FUNCTION__.parse_int16_t_array:
	.asciz	"int parse_int16_t_array(char *, int16_t *, int)"
	.size	.L__PRETTY_FUNCTION__.parse_int16_t_array, 48

	.type	.L__PRETTY_FUNCTION__.parse_int32_t_array,@object # @__PRETTY_FUNCTION__.parse_int32_t_array
.L__PRETTY_FUNCTION__.parse_int32_t_array:
	.asciz	"int parse_int32_t_array(char *, int32_t *, int)"
	.size	.L__PRETTY_FUNCTION__.parse_int32_t_array, 48

	.type	.L__PRETTY_FUNCTION__.parse_int64_t_array,@object # @__PRETTY_FUNCTION__.parse_int64_t_array
.L__PRETTY_FUNCTION__.parse_int64_t_array:
	.asciz	"int parse_int64_t_array(char *, int64_t *, int)"
	.size	.L__PRETTY_FUNCTION__.parse_int64_t_array, 48

	.type	.L__PRETTY_FUNCTION__.parse_float_array,@object # @__PRETTY_FUNCTION__.parse_float_array
.L__PRETTY_FUNCTION__.parse_float_array:
	.asciz	"int parse_float_array(char *, float *, int)"
	.size	.L__PRETTY_FUNCTION__.parse_float_array, 44

	.type	.L__PRETTY_FUNCTION__.parse_double_array,@object # @__PRETTY_FUNCTION__.parse_double_array
.L__PRETTY_FUNCTION__.parse_double_array:
	.asciz	"int parse_double_array(char *, double *, int)"
	.size	.L__PRETTY_FUNCTION__.parse_double_array, 46

	.type	.L__PRETTY_FUNCTION__.write_string,@object # @__PRETTY_FUNCTION__.write_string
.L__PRETTY_FUNCTION__.write_string:
	.asciz	"int write_string(int, char *, int)"
	.size	.L__PRETTY_FUNCTION__.write_string, 35

	.type	.L.str16,@object        # @.str16
.L.str16:
	.asciz	"status>=0 && \"Write failed\""
	.size	.L.str16, 28

	.type	.L__PRETTY_FUNCTION__.write_uint8_t_array,@object # @__PRETTY_FUNCTION__.write_uint8_t_array
.L__PRETTY_FUNCTION__.write_uint8_t_array:
	.asciz	"int write_uint8_t_array(int, uint8_t *, int)"
	.size	.L__PRETTY_FUNCTION__.write_uint8_t_array, 45

	.type	.L.str17,@object        # @.str17
.L.str17:
	.asciz	"%u\n"
	.size	.L.str17, 4

	.type	.L__PRETTY_FUNCTION__.write_uint16_t_array,@object # @__PRETTY_FUNCTION__.write_uint16_t_array
.L__PRETTY_FUNCTION__.write_uint16_t_array:
	.asciz	"int write_uint16_t_array(int, uint16_t *, int)"
	.size	.L__PRETTY_FUNCTION__.write_uint16_t_array, 47

	.type	.L__PRETTY_FUNCTION__.write_uint32_t_array,@object # @__PRETTY_FUNCTION__.write_uint32_t_array
.L__PRETTY_FUNCTION__.write_uint32_t_array:
	.asciz	"int write_uint32_t_array(int, uint32_t *, int)"
	.size	.L__PRETTY_FUNCTION__.write_uint32_t_array, 47

	.type	.L__PRETTY_FUNCTION__.write_uint64_t_array,@object # @__PRETTY_FUNCTION__.write_uint64_t_array
.L__PRETTY_FUNCTION__.write_uint64_t_array:
	.asciz	"int write_uint64_t_array(int, uint64_t *, int)"
	.size	.L__PRETTY_FUNCTION__.write_uint64_t_array, 47

	.type	.L.str18,@object        # @.str18
.L.str18:
	.asciz	"%lu\n"
	.size	.L.str18, 5

	.type	.L__PRETTY_FUNCTION__.write_int8_t_array,@object # @__PRETTY_FUNCTION__.write_int8_t_array
.L__PRETTY_FUNCTION__.write_int8_t_array:
	.asciz	"int write_int8_t_array(int, int8_t *, int)"
	.size	.L__PRETTY_FUNCTION__.write_int8_t_array, 43

	.type	.L.str19,@object        # @.str19
.L.str19:
	.asciz	"%d\n"
	.size	.L.str19, 4

	.type	.L__PRETTY_FUNCTION__.write_int16_t_array,@object # @__PRETTY_FUNCTION__.write_int16_t_array
.L__PRETTY_FUNCTION__.write_int16_t_array:
	.asciz	"int write_int16_t_array(int, int16_t *, int)"
	.size	.L__PRETTY_FUNCTION__.write_int16_t_array, 45

	.type	.L__PRETTY_FUNCTION__.write_int32_t_array,@object # @__PRETTY_FUNCTION__.write_int32_t_array
.L__PRETTY_FUNCTION__.write_int32_t_array:
	.asciz	"int write_int32_t_array(int, int32_t *, int)"
	.size	.L__PRETTY_FUNCTION__.write_int32_t_array, 45

	.type	.L__PRETTY_FUNCTION__.write_int64_t_array,@object # @__PRETTY_FUNCTION__.write_int64_t_array
.L__PRETTY_FUNCTION__.write_int64_t_array:
	.asciz	"int write_int64_t_array(int, int64_t *, int)"
	.size	.L__PRETTY_FUNCTION__.write_int64_t_array, 45

	.type	.L.str20,@object        # @.str20
.L.str20:
	.asciz	"%ld\n"
	.size	.L.str20, 5

	.type	.L__PRETTY_FUNCTION__.write_float_array,@object # @__PRETTY_FUNCTION__.write_float_array
.L__PRETTY_FUNCTION__.write_float_array:
	.asciz	"int write_float_array(int, float *, int)"
	.size	.L__PRETTY_FUNCTION__.write_float_array, 41

	.type	.L.str21,@object        # @.str21
.L.str21:
	.asciz	"%.16f\n"
	.size	.L.str21, 7

	.type	.L__PRETTY_FUNCTION__.write_double_array,@object # @__PRETTY_FUNCTION__.write_double_array
.L__PRETTY_FUNCTION__.write_double_array:
	.asciz	"int write_double_array(int, double *, int)"
	.size	.L__PRETTY_FUNCTION__.write_double_array, 43

	.type	.L__PRETTY_FUNCTION__.write_section_header,@object # @__PRETTY_FUNCTION__.write_section_header
.L__PRETTY_FUNCTION__.write_section_header:
	.asciz	"int write_section_header(int)"
	.size	.L__PRETTY_FUNCTION__.write_section_header, 30

	.type	.L.str22,@object        # @.str22
.L.str22:
	.asciz	"%%%%\n"
	.size	.L.str22, 6

	.type	.L.str24,@object        # @.str24
.L.str24:
	.asciz	"buffered<SUFFICIENT_SPRINTF_SPACE && \"Overran fd_printf buffer---output possibly corrupt\""
	.size	.L.str24, 90

	.type	.L__PRETTY_FUNCTION__.fd_printf,@object # @__PRETTY_FUNCTION__.fd_printf
.L__PRETTY_FUNCTION__.fd_printf:
	.asciz	"int fd_printf(int, const char *, ...)"
	.size	.L__PRETTY_FUNCTION__.fd_printf, 38

	.type	.L.str26,@object        # @.str26
.L.str26:
	.asciz	"written==buffered && \"Wrote more data than given\""
	.size	.L.str26, 50

	.type	krem_prefix3c72253d0c8e5154_krem_callsiteId_krem_support.c_krem_readfile_krem_40_krem_40_krem_,@object # @krem_prefix3c72253d0c8e5154_krem_callsiteId_krem_support.c_krem_readfile_krem_40_krem_40_krem_
	.bss
	.globl	krem_prefix3c72253d0c8e5154_krem_callsiteId_krem_support.c_krem_readfile_krem_40_krem_40_krem_
krem_prefix3c72253d0c8e5154_krem_callsiteId_krem_support.c_krem_readfile_krem_40_krem_40_krem_:
	.byte	0                       # 0x0
	.size	krem_prefix3c72253d0c8e5154_krem_callsiteId_krem_support.c_krem_readfile_krem_40_krem_40_krem_, 1

	.type	krem_prefixaceb58e0a219ad67_krem_callsiteId_krem_support.c_krem_readfile_krem_41_krem_41_krem_,@object # @krem_prefixaceb58e0a219ad67_krem_callsiteId_krem_support.c_krem_readfile_krem_41_krem_41_krem_
	.globl	krem_prefixaceb58e0a219ad67_krem_callsiteId_krem_support.c_krem_readfile_krem_41_krem_41_krem_
krem_prefixaceb58e0a219ad67_krem_callsiteId_krem_support.c_krem_readfile_krem_41_krem_41_krem_:
	.byte	0                       # 0x0
	.size	krem_prefixaceb58e0a219ad67_krem_callsiteId_krem_support.c_krem_readfile_krem_41_krem_41_krem_, 1

	.type	krem_prefix04081149b86d54ef_krem_callsiteId_krem_support.c_krem_readfile_krem_41_krem_41_krem_,@object # @krem_prefix04081149b86d54ef_krem_callsiteId_krem_support.c_krem_readfile_krem_41_krem_41_krem_
	.globl	krem_prefix04081149b86d54ef_krem_callsiteId_krem_support.c_krem_readfile_krem_41_krem_41_krem_
krem_prefix04081149b86d54ef_krem_callsiteId_krem_support.c_krem_readfile_krem_41_krem_41_krem_:
	.byte	0                       # 0x0
	.size	krem_prefix04081149b86d54ef_krem_callsiteId_krem_support.c_krem_readfile_krem_41_krem_41_krem_, 1

	.type	krem_prefix503a16aa4db01352_krem_callsiteId_krem_support.c_krem_readfile_krem_43_krem_43_krem_,@object # @krem_prefix503a16aa4db01352_krem_callsiteId_krem_support.c_krem_readfile_krem_43_krem_43_krem_
	.globl	krem_prefix503a16aa4db01352_krem_callsiteId_krem_support.c_krem_readfile_krem_43_krem_43_krem_
krem_prefix503a16aa4db01352_krem_callsiteId_krem_support.c_krem_readfile_krem_43_krem_43_krem_:
	.byte	0                       # 0x0
	.size	krem_prefix503a16aa4db01352_krem_callsiteId_krem_support.c_krem_readfile_krem_43_krem_43_krem_, 1

	.type	krem_prefixaebd928438ad60e8_krem_callsiteId_krem_support.c_krem_readfile_krem_47_krem_47_krem_,@object # @krem_prefixaebd928438ad60e8_krem_callsiteId_krem_support.c_krem_readfile_krem_47_krem_47_krem_
	.globl	krem_prefixaebd928438ad60e8_krem_callsiteId_krem_support.c_krem_readfile_krem_47_krem_47_krem_
krem_prefixaebd928438ad60e8_krem_callsiteId_krem_support.c_krem_readfile_krem_47_krem_47_krem_:
	.byte	0                       # 0x0
	.size	krem_prefixaebd928438ad60e8_krem_callsiteId_krem_support.c_krem_readfile_krem_47_krem_47_krem_, 1

	.type	krem_prefix8431675bdd64b8d7_krem_callsiteId_krem_support.c_krem_readfile_krem_48_krem_48_krem_,@object # @krem_prefix8431675bdd64b8d7_krem_callsiteId_krem_support.c_krem_readfile_krem_48_krem_48_krem_
	.globl	krem_prefix8431675bdd64b8d7_krem_callsiteId_krem_support.c_krem_readfile_krem_48_krem_48_krem_
krem_prefix8431675bdd64b8d7_krem_callsiteId_krem_support.c_krem_readfile_krem_48_krem_48_krem_:
	.byte	0                       # 0x0
	.size	krem_prefix8431675bdd64b8d7_krem_callsiteId_krem_support.c_krem_readfile_krem_48_krem_48_krem_, 1

	.type	krem_prefix2fa92b66d75a019f_krem_callsiteId_krem_support.c_krem_readfile_krem_52_krem_52_krem_,@object # @krem_prefix2fa92b66d75a019f_krem_callsiteId_krem_support.c_krem_readfile_krem_52_krem_52_krem_
	.globl	krem_prefix2fa92b66d75a019f_krem_callsiteId_krem_support.c_krem_readfile_krem_52_krem_52_krem_
krem_prefix2fa92b66d75a019f_krem_callsiteId_krem_support.c_krem_readfile_krem_52_krem_52_krem_:
	.byte	0                       # 0x0
	.size	krem_prefix2fa92b66d75a019f_krem_callsiteId_krem_support.c_krem_readfile_krem_52_krem_52_krem_, 1

	.type	krem_prefix54da9a20469a7581_krem_callsiteId_krem_support.c_krem_find_section_start_krem_59_krem_59_krem_,@object # @krem_prefix54da9a20469a7581_krem_callsiteId_krem_support.c_krem_find_section_start_krem_59_krem_59_krem_
	.globl	krem_prefix54da9a20469a7581_krem_callsiteId_krem_support.c_krem_find_section_start_krem_59_krem_59_krem_
krem_prefix54da9a20469a7581_krem_callsiteId_krem_support.c_krem_find_section_start_krem_59_krem_59_krem_:
	.byte	0                       # 0x0
	.size	krem_prefix54da9a20469a7581_krem_callsiteId_krem_support.c_krem_find_section_start_krem_59_krem_59_krem_, 1

	.type	krem_prefixe1458b4d247ed4db_krem_callsiteId_krem_support.c_krem_parse_string_krem_79_krem_79_krem_,@object # @krem_prefixe1458b4d247ed4db_krem_callsiteId_krem_support.c_krem_parse_string_krem_79_krem_79_krem_
	.globl	krem_prefixe1458b4d247ed4db_krem_callsiteId_krem_support.c_krem_parse_string_krem_79_krem_79_krem_
krem_prefixe1458b4d247ed4db_krem_callsiteId_krem_support.c_krem_parse_string_krem_79_krem_79_krem_:
	.byte	0                       # 0x0
	.size	krem_prefixe1458b4d247ed4db_krem_callsiteId_krem_support.c_krem_parse_string_krem_79_krem_79_krem_, 1

	.type	krem_prefixa81d8df6e499db18_krem_callsiteId_krem_support.c_krem_parse_uint8_t_array_krem_132_krem_132_krem_,@object # @krem_prefixa81d8df6e499db18_krem_callsiteId_krem_support.c_krem_parse_uint8_t_array_krem_132_krem_132_krem_
	.globl	krem_prefixa81d8df6e499db18_krem_callsiteId_krem_support.c_krem_parse_uint8_t_array_krem_132_krem_132_krem_
krem_prefixa81d8df6e499db18_krem_callsiteId_krem_support.c_krem_parse_uint8_t_array_krem_132_krem_132_krem_:
	.byte	0                       # 0x0
	.size	krem_prefixa81d8df6e499db18_krem_callsiteId_krem_support.c_krem_parse_uint8_t_array_krem_132_krem_132_krem_, 1

	.type	krem_prefix02896888bd05cfe9_krem_callsiteId_krem_support.c_krem_parse_uint8_t_array_krem_132_krem_132_krem_,@object # @krem_prefix02896888bd05cfe9_krem_callsiteId_krem_support.c_krem_parse_uint8_t_array_krem_132_krem_132_krem_
	.globl	krem_prefix02896888bd05cfe9_krem_callsiteId_krem_support.c_krem_parse_uint8_t_array_krem_132_krem_132_krem_
krem_prefix02896888bd05cfe9_krem_callsiteId_krem_support.c_krem_parse_uint8_t_array_krem_132_krem_132_krem_:
	.byte	0                       # 0x0
	.size	krem_prefix02896888bd05cfe9_krem_callsiteId_krem_support.c_krem_parse_uint8_t_array_krem_132_krem_132_krem_, 1

	.type	krem_prefixc736ca91e3244e65_krem_callsiteId_krem_support.c_krem_parse_uint8_t_array_krem_132_krem_132_krem_,@object # @krem_prefixc736ca91e3244e65_krem_callsiteId_krem_support.c_krem_parse_uint8_t_array_krem_132_krem_132_krem_
	.globl	krem_prefixc736ca91e3244e65_krem_callsiteId_krem_support.c_krem_parse_uint8_t_array_krem_132_krem_132_krem_
krem_prefixc736ca91e3244e65_krem_callsiteId_krem_support.c_krem_parse_uint8_t_array_krem_132_krem_132_krem_:
	.byte	0                       # 0x0
	.size	krem_prefixc736ca91e3244e65_krem_callsiteId_krem_support.c_krem_parse_uint8_t_array_krem_132_krem_132_krem_, 1

	.type	krem_prefixa543552402573ab3_krem_callsiteId_krem_support.c_krem_parse_uint8_t_array_krem_132_krem_132_krem_,@object # @krem_prefixa543552402573ab3_krem_callsiteId_krem_support.c_krem_parse_uint8_t_array_krem_132_krem_132_krem_
	.globl	krem_prefixa543552402573ab3_krem_callsiteId_krem_support.c_krem_parse_uint8_t_array_krem_132_krem_132_krem_
krem_prefixa543552402573ab3_krem_callsiteId_krem_support.c_krem_parse_uint8_t_array_krem_132_krem_132_krem_:
	.byte	0                       # 0x0
	.size	krem_prefixa543552402573ab3_krem_callsiteId_krem_support.c_krem_parse_uint8_t_array_krem_132_krem_132_krem_, 1

	.type	krem_prefixae88fd7e1c5d58d5_krem_callsiteId_krem_support.c_krem_parse_uint8_t_array_krem_132_krem_132_krem_,@object # @krem_prefixae88fd7e1c5d58d5_krem_callsiteId_krem_support.c_krem_parse_uint8_t_array_krem_132_krem_132_krem_
	.globl	krem_prefixae88fd7e1c5d58d5_krem_callsiteId_krem_support.c_krem_parse_uint8_t_array_krem_132_krem_132_krem_
krem_prefixae88fd7e1c5d58d5_krem_callsiteId_krem_support.c_krem_parse_uint8_t_array_krem_132_krem_132_krem_:
	.byte	0                       # 0x0
	.size	krem_prefixae88fd7e1c5d58d5_krem_callsiteId_krem_support.c_krem_parse_uint8_t_array_krem_132_krem_132_krem_, 1

	.type	krem_prefix7bd3d2ffb58e06dd_krem_callsiteId_krem_support.c_krem_parse_uint8_t_array_krem_132_krem_132_krem_,@object # @krem_prefix7bd3d2ffb58e06dd_krem_callsiteId_krem_support.c_krem_parse_uint8_t_array_krem_132_krem_132_krem_
	.globl	krem_prefix7bd3d2ffb58e06dd_krem_callsiteId_krem_support.c_krem_parse_uint8_t_array_krem_132_krem_132_krem_
krem_prefix7bd3d2ffb58e06dd_krem_callsiteId_krem_support.c_krem_parse_uint8_t_array_krem_132_krem_132_krem_:
	.byte	0                       # 0x0
	.size	krem_prefix7bd3d2ffb58e06dd_krem_callsiteId_krem_support.c_krem_parse_uint8_t_array_krem_132_krem_132_krem_, 1

	.type	krem_prefixb58bbb448738af2a_krem_callsiteId_krem_support.c_krem_parse_uint16_t_array_krem_133_krem_133_krem_,@object # @krem_prefixb58bbb448738af2a_krem_callsiteId_krem_support.c_krem_parse_uint16_t_array_krem_133_krem_133_krem_
	.globl	krem_prefixb58bbb448738af2a_krem_callsiteId_krem_support.c_krem_parse_uint16_t_array_krem_133_krem_133_krem_
krem_prefixb58bbb448738af2a_krem_callsiteId_krem_support.c_krem_parse_uint16_t_array_krem_133_krem_133_krem_:
	.byte	0                       # 0x0
	.size	krem_prefixb58bbb448738af2a_krem_callsiteId_krem_support.c_krem_parse_uint16_t_array_krem_133_krem_133_krem_, 1

	.type	krem_prefix93d2c2c5a17a45b6_krem_callsiteId_krem_support.c_krem_parse_uint16_t_array_krem_133_krem_133_krem_,@object # @krem_prefix93d2c2c5a17a45b6_krem_callsiteId_krem_support.c_krem_parse_uint16_t_array_krem_133_krem_133_krem_
	.globl	krem_prefix93d2c2c5a17a45b6_krem_callsiteId_krem_support.c_krem_parse_uint16_t_array_krem_133_krem_133_krem_
krem_prefix93d2c2c5a17a45b6_krem_callsiteId_krem_support.c_krem_parse_uint16_t_array_krem_133_krem_133_krem_:
	.byte	0                       # 0x0
	.size	krem_prefix93d2c2c5a17a45b6_krem_callsiteId_krem_support.c_krem_parse_uint16_t_array_krem_133_krem_133_krem_, 1

	.type	krem_prefix4e9a7579d79734b1_krem_callsiteId_krem_support.c_krem_parse_uint16_t_array_krem_133_krem_133_krem_,@object # @krem_prefix4e9a7579d79734b1_krem_callsiteId_krem_support.c_krem_parse_uint16_t_array_krem_133_krem_133_krem_
	.globl	krem_prefix4e9a7579d79734b1_krem_callsiteId_krem_support.c_krem_parse_uint16_t_array_krem_133_krem_133_krem_
krem_prefix4e9a7579d79734b1_krem_callsiteId_krem_support.c_krem_parse_uint16_t_array_krem_133_krem_133_krem_:
	.byte	0                       # 0x0
	.size	krem_prefix4e9a7579d79734b1_krem_callsiteId_krem_support.c_krem_parse_uint16_t_array_krem_133_krem_133_krem_, 1

	.type	krem_prefix20dc9cc4fd19981c_krem_callsiteId_krem_support.c_krem_parse_uint16_t_array_krem_133_krem_133_krem_,@object # @krem_prefix20dc9cc4fd19981c_krem_callsiteId_krem_support.c_krem_parse_uint16_t_array_krem_133_krem_133_krem_
	.globl	krem_prefix20dc9cc4fd19981c_krem_callsiteId_krem_support.c_krem_parse_uint16_t_array_krem_133_krem_133_krem_
krem_prefix20dc9cc4fd19981c_krem_callsiteId_krem_support.c_krem_parse_uint16_t_array_krem_133_krem_133_krem_:
	.byte	0                       # 0x0
	.size	krem_prefix20dc9cc4fd19981c_krem_callsiteId_krem_support.c_krem_parse_uint16_t_array_krem_133_krem_133_krem_, 1

	.type	krem_prefix156032e811abf9c5_krem_callsiteId_krem_support.c_krem_parse_uint16_t_array_krem_133_krem_133_krem_,@object # @krem_prefix156032e811abf9c5_krem_callsiteId_krem_support.c_krem_parse_uint16_t_array_krem_133_krem_133_krem_
	.globl	krem_prefix156032e811abf9c5_krem_callsiteId_krem_support.c_krem_parse_uint16_t_array_krem_133_krem_133_krem_
