	.text
	.file	"fac.simplifycfg.mem2reg.indvars.elimsinglephis.criticalpath.regioninstrument.renamemain.O3.bc"
	.text
	.globl	fac_init
	.align	16, 0x90
	.type	fac_init,@function
fac_init:                               # @fac_init
.Lfunc_begin0:
	.loc	1 47 0                  # fac.c:47:0
	.cfi_startproc
# BB#0:                                 # %entry
	pushq	%rbp
.Ltmp0:
	.cfi_def_cfa_offset 16
.Ltmp1:
	.cfi_offset %rbp, -16
	movq	%rsp, %rbp
.Ltmp2:
	.cfi_def_cfa_register %rbp
	pushq	%rbx
	pushq	%rax
.Ltmp3:
	.cfi_offset %rbx, -24
	movabsq	$5806772334113606467, %rbx # imm = 0x5095CCAC1A684B43
	xorl	%esi, %esi
	movq	%rbx, %rdi
	callq	_KEnterRegion
	movl	$1, %edi
	xorl	%esi, %esi
	callq	_KPrepRTable
	movl	$2, %edi
	callq	_KWork
	movl	$fac_s, %edi
	movl	$4, %esi
	callq	_KStoreConst
	.loc	1 48 3 prologue_end     # fac.c:48:3
.Ltmp4:
	movl	$0, fac_s(%rip)
	movl	$fac_n, %edi
	movl	$4, %esi
	callq	_KStoreConst
	.loc	1 49 3                  # fac.c:49:3
	movl	$5, fac_n(%rip)
	xorl	%esi, %esi
	movq	%rbx, %rdi
	addq	$8, %rsp
	popq	%rbx
	popq	%rbp
	jmp	_KExitRegion            # TAILCALL
.Ltmp5:
.Ltmp6:
	.size	fac_init, .Ltmp6-fac_init
.Lfunc_end0:
	.cfi_endproc

	.globl	fac_return
	.align	16, 0x90
	.type	fac_return,@function
fac_return:                             # @fac_return
.Lfunc_begin1:
	.loc	1 54 0                  # fac.c:54:0
	.cfi_startproc
# BB#0:                                 # %entry
	pushq	%rbp
.Ltmp7:
	.cfi_def_cfa_offset 16
.Ltmp8:
	.cfi_offset %rbp, -16
	movq	%rsp, %rbp
.Ltmp9:
	.cfi_def_cfa_register %rbp
	pushq	%r14
	pushq	%rbx
.Ltmp10:
	.cfi_offset %rbx, -32
.Ltmp11:
	.cfi_offset %r14, -24
	movabsq	$2948684770597448745, %r14 # imm = 0x28EBD52D1210AC29
	xorl	%esi, %esi
	movq	%r14, %rdi
	callq	_KEnterRegion
	movl	$3, %edi
	xorl	%esi, %esi
	callq	_KPrepRTable
	movl	$5, %edi
	callq	_KWork
.Ltmp12:
	#DEBUG_VALUE: fac_return:expected_result <- 154
	movl	$fac_s, %edi
	movl	$1, %esi
	movl	$4, %edx
	callq	_KLoad0
	.loc	1 56 10 prologue_end    # fac.c:56:10
.Ltmp13:
	movl	fac_s(%rip), %ebx
	addl	$-154, %ebx
	movl	$2, %edi
	movl	$1, %esi
	movl	$1, %edx
	callq	_KTimestamp1
	movl	$2, %edi
	callq	_KReturn
	xorl	%esi, %esi
	movq	%r14, %rdi
	callq	_KExitRegion
	.loc	1 56 3 is_stmt 0        # fac.c:56:3
	movl	%ebx, %eax
	popq	%rbx
	popq	%r14
	popq	%rbp
	retq
.Ltmp14:
.Ltmp15:
	.size	fac_return, .Ltmp15-fac_return
.Lfunc_end1:
	.cfi_endproc

	.globl	fac_fac
	.align	16, 0x90
	.type	fac_fac,@function
fac_fac:                                # @fac_fac
.Lfunc_begin2:
	.loc	1 66 0 is_stmt 1        # fac.c:66:0
	.cfi_startproc
# BB#0:                                 # %entry
	pushq	%rbp
.Ltmp16:
	.cfi_def_cfa_offset 16
.Ltmp17:
	.cfi_offset %rbp, -16
	movq	%rsp, %rbp
.Ltmp18:
	.cfi_def_cfa_register %rbp
	pushq	%r15
	pushq	%r14
	pushq	%r12
	pushq	%rbx
.Ltmp19:
	.cfi_offset %rbx, -48
.Ltmp20:
	.cfi_offset %r12, -40
.Ltmp21:
	.cfi_offset %r14, -32
.Ltmp22:
	.cfi_offset %r15, -24
	#DEBUG_VALUE: fac_fac:n <- EDI
	movl	%edi, %r15d
.Ltmp23:
	#DEBUG_VALUE: fac_fac:n <- R15D
	movabsq	$-4966926442787202205, %r14 # imm = 0xBB11EEB7582C9B63
	xorl	%r12d, %r12d
	xorl	%esi, %esi
	movq	%r14, %rdi
	callq	_KEnterRegion
	movl	$7, %edi
	xorl	%esi, %esi
	callq	_KPrepRTable
	movl	$1, %ebx
	movl	$1, %edi
	callq	_KDeqArg
	movl	$1, %edi
	callq	_KWork
	movl	$6, %edi
	movl	$1, %esi
	movl	$1, %edx
	callq	_KTimestamp1
	movl	$6, %edi
	callq	_KPushCDep
	.loc	1 67 8 prologue_end     # fac.c:67:8
.Ltmp24:
	testl	%r15d, %r15d
	je	.LBB2_2
.Ltmp25:
# BB#1:                                 # %if.else
	#DEBUG_VALUE: fac_fac:n <- R15D
	movl	$3, %edi
	callq	_KWork
	.loc	1 70 28                 # fac.c:70:28
.Ltmp26:
	leal	-1(%r15), %ebx
	movabsq	$-1043532564044154579, %rdi # imm = 0xF184A0A97098792D
	xorl	%esi, %esi
	callq	_KPrepCall
	movl	$3, %edi
	movl	$1, %esi
	movl	$2, %edx
	callq	_KTimestamp1
	movl	$3, %edi
	callq	_KEnqArg
	movl	$2, %edi
	callq	_KLinkReturn
	.loc	1 70 18 is_stmt 0       # fac.c:70:18
	movl	%ebx, %edi
	callq	fac_fac
	movl	%eax, %ebx
	.loc	1 70 14                 # fac.c:70:14
	imull	%r15d, %ebx
	movl	$5, %r12d
	movl	$5, %edi
	movl	$1, %esi
	movl	$3, %edx
	movl	$2, %ecx
	movl	$2, %r8d
	callq	_KTimestamp2
.Ltmp27:
.LBB2_2:                                # %return
	callq	_KPopCDep
	movl	$4, %edi
	movl	$6, %edx
	movl	%r12d, %esi
	callq	_KPhi1To1
	movl	$4, %edi
	movl	$4, %esi
	xorl	%edx, %edx
	callq	_KTimestamp1
	movl	$4, %edi
	callq	_KReturn
	xorl	%esi, %esi
	movq	%r14, %rdi
	callq	_KExitRegion
	.loc	1 71 1 is_stmt 1        # fac.c:71:1
	movl	%ebx, %eax
	popq	%rbx
	popq	%r12
	popq	%r14
	popq	%r15
	popq	%rbp
	retq
.Ltmp28:
.Ltmp29:
	.size	fac_fac, .Ltmp29-fac_fac
.Lfunc_end2:
	.cfi_endproc

	.globl	fac_main
	.align	16, 0x90
	.type	fac_main,@function
fac_main:                               # @fac_main
.Lfunc_begin3:
	.loc	1 80 0                  # fac.c:80:0
	.cfi_startproc
# BB#0:                                 # %entry
	pushq	%rbp
.Ltmp30:
	.cfi_def_cfa_offset 16
.Ltmp31:
	.cfi_offset %rbp, -16
	movq	%rsp, %rbp
.Ltmp32:
	.cfi_def_cfa_register %rbp
	pushq	%r15
	pushq	%r14
	pushq	%r13
	pushq	%r12
	pushq	%rbx
	pushq	%rax
.Ltmp33:
	.cfi_offset %rbx, -56
.Ltmp34:
	.cfi_offset %r12, -48
.Ltmp35:
	.cfi_offset %r13, -40
.Ltmp36:
	.cfi_offset %r14, -32
.Ltmp37:
	.cfi_offset %r15, -24
	movabsq	$-2669257317971154048, %rbx # imm = 0xDAF4E49C9437AB80
	movabsq	$6920646558945581235, %rdi # imm = 0x600B1360D1FB18B3
	xorl	%r15d, %r15d
	xorl	%esi, %esi
	callq	_KEnterRegion
	movl	$7, %edi
	movl	$2, %esi
	callq	_KPrepRTable
.Ltmp38:
	#DEBUG_VALUE: fac_main:i <- 0
	movl	$3, %edi
	callq	_KInduction
	movl	$1, %esi
	movq	%rbx, %rdi
	callq	_KEnterRegion
	movabsq	$-3456759434316794653, %r12 # imm = 0xD0071F9BF39134E3
	movabsq	$-2453994587169584952, %r13 # imm = 0xDDF1A8ECBF0688C8
	jmp	.LBB3_1
	.align	16, 0x90
.LBB3_2:                                # %for.body
                                        #   in Loop: Header=BB3_1 Depth=1
	#DEBUG_VALUE: fac_main:i <- 0
	movl	$2, %esi
	movq	%r12, %rdi
	callq	_KEnterRegion
	movl	$6, %edi
	callq	_KPushCDep
	movl	$6, %edi
	callq	_KWork
	xorl	%esi, %esi
	movq	%r13, %rdi
	callq	_KPrepCall
	movl	$3, %edi
	callq	_KEnqArg
	movl	$2, %edi
	callq	_KLinkReturn
	.loc	1 86 14 prologue_end    # fac.c:86:14
.Ltmp39:
	movl	%r15d, %edi
	callq	fac_fac
	movl	%eax, %r14d
	movl	$fac_s, %edi
	movl	$4, %esi
	movl	$4, %edx
	callq	_KLoad0
	.loc	1 86 5 is_stmt 0        # fac.c:86:5
	addl	fac_s(%rip), %r14d
	movl	$1, (%rsp)
	movl	$5, %edi
	movl	$6, %esi
	movl	$1, %edx
	movl	$2, %ecx
	movl	$1, %r8d
	movl	$4, %r9d
	callq	_KTimestamp3
	movl	$5, %edi
	movl	$fac_s, %esi
	movl	$4, %edx
	callq	_KStore
	movl	%r14d, fac_s(%rip)
.Ltmp40:
	.loc	1 84 29 is_stmt 1       # fac.c:84:29
	incl	%r15d
.Ltmp41:
	#DEBUG_VALUE: fac_main:i <- R15D
	callq	_KPopCDep
	movl	$2, %esi
	movq	%r12, %rdi
	callq	_KExitRegion
.Ltmp42:
.LBB3_1:                                # %for.cond
                                        # =>This Inner Loop Header: Depth=1
	#DEBUG_VALUE: fac_main:i <- 0
	movl	$fac_n, %edi
	movl	$1, %esi
	movl	$4, %edx
	callq	_KLoad0
	movl	$5, %edi
	callq	_KWork
	.loc	1 84 17 is_stmt 0       # fac.c:84:17
	movl	fac_n(%rip), %ebx
	movl	$6, %edi
	movl	$3, %esi
	movl	$1, %edx
	movl	$1, %ecx
	movl	$1, %r8d
	callq	_KTimestamp2
	movl	$3, %edi
	movl	$3, %esi
	xorl	%edx, %edx
	callq	_KTimestamp1
	cmpl	%ebx, %r15d
	jle	.LBB3_2
.Ltmp43:
# BB#3:                                 # %for.cond.pre_exit.for.end
	#DEBUG_VALUE: fac_main:i <- 0
	movl	$1, %esi
	movabsq	$-2669257317971154048, %rdi # imm = 0xDAF4E49C9437AB80
	callq	_KExitRegion
	xorl	%esi, %esi
	movabsq	$6920646558945581235, %rdi # imm = 0x600B1360D1FB18B3
	addq	$8, %rsp
	popq	%rbx
	popq	%r12
	popq	%r13
	popq	%r14
	popq	%r15
	popq	%rbp
	jmp	_KExitRegion            # TAILCALL
.Ltmp44:
	.size	fac_main, .Ltmp44-fac_main
.Lfunc_end3:
	.cfi_endproc

	.globl	__main
	.align	16, 0x90
	.type	__main,@function
__main:                                 # @__main
.Lfunc_begin4:
	.loc	1 93 0 is_stmt 1        # fac.c:93:0
	.cfi_startproc
# BB#0:                                 # %entry
	pushq	%rbp
.Ltmp45:
	.cfi_def_cfa_offset 16
.Ltmp46:
	.cfi_offset %rbp, -16
	movq	%rsp, %rbp
.Ltmp47:
	.cfi_def_cfa_register %rbp
	pushq	%r15
	pushq	%r14
	pushq	%rbx
	pushq	%rax
.Ltmp48:
	.cfi_offset %rbx, -40
.Ltmp49:
	.cfi_offset %r14, -32
.Ltmp50:
	.cfi_offset %r15, -24
	callq	_KInit
	movabsq	$-3677947425469889523, %r14 # imm = 0xCCF54E4D9A4E040D
	xorl	%esi, %esi
	movq	%r14, %rdi
	callq	_KEnterRegion
	movl	$2, %edi
	xorl	%esi, %esi
	callq	_KPrepRTable
	movabsq	$2141419859992594489, %rdi # imm = 0x1DB7DA0455D34839
	xorl	%esi, %esi
	callq	_KPrepCall
	movabsq	$5806772334113606467, %rbx # imm = 0x5095CCAC1A684B43
	xorl	%esi, %esi
	.loc	1 94 3 prologue_end     # fac.c:94:3
.Ltmp51:
	movq	%rbx, %rdi
	callq	_KEnterRegion
	movl	$1, %edi
	xorl	%esi, %esi
	callq	_KPrepRTable
	movl	$2, %edi
	callq	_KWork
	movl	$fac_s, %edi
	movl	$4, %esi
	callq	_KStoreConst
	.loc	1 48 3                  # fac.c:48:3
.Ltmp52:
	movl	$0, fac_s(%rip)
.Ltmp53:
	.loc	1 94 3                  # fac.c:94:3
	movl	$fac_n, %edi
	movl	$4, %esi
	callq	_KStoreConst
	.loc	1 49 3                  # fac.c:49:3
.Ltmp54:
	movl	$5, fac_n(%rip)
	xorl	%esi, %esi
.Ltmp55:
	.loc	1 94 3                  # fac.c:94:3
	movq	%rbx, %rdi
	callq	_KExitRegion
	movabsq	$7151191526967426439, %rdi # imm = 0x633E22CE1DAD3D87
	xorl	%esi, %esi
	callq	_KPrepCall
	.loc	1 95 3                  # fac.c:95:3
	callq	fac_main
	movabsq	$-2009593586745622301, %rdi # imm = 0xE41C7D47B71FC0E3
	xorl	%esi, %esi
	callq	_KPrepCall
	movl	$1, %edi
	callq	_KLinkReturn
	movabsq	$2948684770597448745, %r15 # imm = 0x28EBD52D1210AC29
	xorl	%esi, %esi
	.loc	1 97 12                 # fac.c:97:12
	movq	%r15, %rdi
	callq	_KEnterRegion
	movl	$3, %edi
	xorl	%esi, %esi
	callq	_KPrepRTable
	movl	$5, %edi
	callq	_KWork
.Ltmp56:
	#DEBUG_VALUE: fac_return:expected_result <- 154
	.loc	1 94 3                  # fac.c:94:3
	movl	$fac_s, %edi
	movl	$1, %esi
	movl	$4, %edx
	.loc	1 97 12                 # fac.c:97:12
	callq	_KLoad0
	.loc	1 56 10                 # fac.c:56:10
.Ltmp57:
	movl	fac_s(%rip), %ebx
	addl	$-154, %ebx
	movl	$2, %edi
	movl	$1, %esi
	movl	$1, %edx
.Ltmp58:
	.loc	1 97 12                 # fac.c:97:12
	callq	_KTimestamp1
	movl	$2, %edi
	callq	_KReturn
	xorl	%esi, %esi
	movq	%r15, %rdi
	callq	_KExitRegion
	movl	$1, %edi
	movl	$1, %esi
	xorl	%edx, %edx
	callq	_KTimestamp1
	movl	$1, %edi
	callq	_KReturn
	xorl	%esi, %esi
	movq	%r14, %rdi
	callq	_KExitRegion
	callq	_KDeinit
	.loc	1 97 3 is_stmt 0        # fac.c:97:3
	movl	%ebx, %eax
	addq	$8, %rsp
	popq	%rbx
	popq	%r14
	popq	%r15
	popq	%rbp
	retq
.Ltmp59:
.Ltmp60:
	.size	__main, .Ltmp60-__main
.Lfunc_end4:
	.cfi_endproc

	.type	fac_s,@object           # @fac_s
	.comm	fac_s,4,4
	.type	fac_n,@object           # @fac_n
	.comm	fac_n,4,4
	.type	krem_prefixf184a0a97098792d_krem_callsiteId_krem_fac.c_krem_fac_fac_krem_70_krem_70_krem_,@object # @krem_prefixf184a0a97098792d_krem_callsiteId_krem_fac.c_krem_fac_fac_krem_70_krem_70_krem_
	.bss
	.globl	krem_prefixf184a0a97098792d_krem_callsiteId_krem_fac.c_krem_fac_fac_krem_70_krem_70_krem_
krem_prefixf184a0a97098792d_krem_callsiteId_krem_fac.c_krem_fac_fac_krem_70_krem_70_krem_:
	.byte	0                       # 0x0
	.size	krem_prefixf184a0a97098792d_krem_callsiteId_krem_fac.c_krem_fac_fac_krem_70_krem_70_krem_, 1

	.type	krem_prefixddf1a8ecbf0688c8_krem_callsiteId_krem_fac.c_krem_fac_main_krem_86_krem_86_krem_,@object # @krem_prefixddf1a8ecbf0688c8_krem_callsiteId_krem_fac.c_krem_fac_main_krem_86_krem_86_krem_
	.globl	krem_prefixddf1a8ecbf0688c8_krem_callsiteId_krem_fac.c_krem_fac_main_krem_86_krem_86_krem_
krem_prefixddf1a8ecbf0688c8_krem_callsiteId_krem_fac.c_krem_fac_main_krem_86_krem_86_krem_:
	.byte	0                       # 0x0
	.size	krem_prefixddf1a8ecbf0688c8_krem_callsiteId_krem_fac.c_krem_fac_main_krem_86_krem_86_krem_, 1

	.type	krem_prefix1db7da0455d34839_krem_callsiteId_krem_fac.c_krem_main_krem_94_krem_94_krem_,@object # @krem_prefix1db7da0455d34839_krem_callsiteId_krem_fac.c_krem_main_krem_94_krem_94_krem_
	.globl	krem_prefix1db7da0455d34839_krem_callsiteId_krem_fac.c_krem_main_krem_94_krem_94_krem_
krem_prefix1db7da0455d34839_krem_callsiteId_krem_fac.c_krem_main_krem_94_krem_94_krem_:
	.byte	0                       # 0x0
	.size	krem_prefix1db7da0455d34839_krem_callsiteId_krem_fac.c_krem_main_krem_94_krem_94_krem_, 1

	.type	krem_prefix633e22ce1dad3d87_krem_callsiteId_krem_fac.c_krem_main_krem_95_krem_95_krem_,@object # @krem_prefix633e22ce1dad3d87_krem_callsiteId_krem_fac.c_krem_main_krem_95_krem_95_krem_
	.globl	krem_prefix633e22ce1dad3d87_krem_callsiteId_krem_fac.c_krem_main_krem_95_krem_95_krem_
krem_prefix633e22ce1dad3d87_krem_callsiteId_krem_fac.c_krem_main_krem_95_krem_95_krem_:
	.byte	0                       # 0x0
	.size	krem_prefix633e22ce1dad3d87_krem_callsiteId_krem_fac.c_krem_main_krem_95_krem_95_krem_, 1

	.type	krem_prefixe41c7d47b71fc0e3_krem_callsiteId_krem_fac.c_krem_main_krem_97_krem_97_krem_,@object # @krem_prefixe41c7d47b71fc0e3_krem_callsiteId_krem_fac.c_krem_main_krem_97_krem_97_krem_
	.globl	krem_prefixe41c7d47b71fc0e3_krem_callsiteId_krem_fac.c_krem_main_krem_97_krem_97_krem_
krem_prefixe41c7d47b71fc0e3_krem_callsiteId_krem_fac.c_krem_main_krem_97_krem_97_krem_:
	.byte	0                       # 0x0
	.size	krem_prefixe41c7d47b71fc0e3_krem_callsiteId_krem_fac.c_krem_main_krem_97_krem_97_krem_, 1

	.type	krem_prefix28ebd52d1210ac29_krem_func_krem_fac.c_krem_fac_return_krem_53_krem_53_krem_,@object # @krem_prefix28ebd52d1210ac29_krem_func_krem_fac.c_krem_fac_return_krem_53_krem_53_krem_
	.globl	krem_prefix28ebd52d1210ac29_krem_func_krem_fac.c_krem_fac_return_krem_53_krem_53_krem_
krem_prefix28ebd52d1210ac29_krem_func_krem_fac.c_krem_fac_return_krem_53_krem_53_krem_:
	.byte	0                       # 0x0
	.size	krem_prefix28ebd52d1210ac29_krem_func_krem_fac.c_krem_fac_return_krem_53_krem_53_krem_, 1

	.type	krem_prefix5095ccac1a684b43_krem_func_krem_fac.c_krem_fac_init_krem_46_krem_46_krem_,@object # @krem_prefix5095ccac1a684b43_krem_func_krem_fac.c_krem_fac_init_krem_46_krem_46_krem_
	.globl	krem_prefix5095ccac1a684b43_krem_func_krem_fac.c_krem_fac_init_krem_46_krem_46_krem_
krem_prefix5095ccac1a684b43_krem_func_krem_fac.c_krem_fac_init_krem_46_krem_46_krem_:
	.byte	0                       # 0x0
	.size	krem_prefix5095ccac1a684b43_krem_func_krem_fac.c_krem_fac_init_krem_46_krem_46_krem_, 1

	.type	krem_prefix600b1360d1fb18b3_krem_func_krem_fac.c_krem_fac_main_krem_79_krem_79_krem_,@object # @krem_prefix600b1360d1fb18b3_krem_func_krem_fac.c_krem_fac_main_krem_79_krem_79_krem_
	.globl	krem_prefix600b1360d1fb18b3_krem_func_krem_fac.c_krem_fac_main_krem_79_krem_79_krem_
krem_prefix600b1360d1fb18b3_krem_func_krem_fac.c_krem_fac_main_krem_79_krem_79_krem_:
	.byte	0                       # 0x0
	.size	krem_prefix600b1360d1fb18b3_krem_func_krem_fac.c_krem_fac_main_krem_79_krem_79_krem_, 1

	.type	krem_prefixbb11eeb7582c9b63_krem_func_krem_fac.c_krem_fac_fac_krem_65_krem_65_krem_,@object # @krem_prefixbb11eeb7582c9b63_krem_func_krem_fac.c_krem_fac_fac_krem_65_krem_65_krem_
	.globl	krem_prefixbb11eeb7582c9b63_krem_func_krem_fac.c_krem_fac_fac_krem_65_krem_65_krem_
krem_prefixbb11eeb7582c9b63_krem_func_krem_fac.c_krem_fac_fac_krem_65_krem_65_krem_:
	.byte	0                       # 0x0
	.size	krem_prefixbb11eeb7582c9b63_krem_func_krem_fac.c_krem_fac_fac_krem_65_krem_65_krem_, 1

	.type	krem_prefixccf54e4d9a4e040d_krem_func_krem_fac.c_krem_main_krem_92_krem_92_krem_,@object # @krem_prefixccf54e4d9a4e040d_krem_func_krem_fac.c_krem_main_krem_92_krem_92_krem_
	.globl	krem_prefixccf54e4d9a4e040d_krem_func_krem_fac.c_krem_main_krem_92_krem_92_krem_
krem_prefixccf54e4d9a4e040d_krem_func_krem_fac.c_krem_main_krem_92_krem_92_krem_:
	.byte	0                       # 0x0
	.size	krem_prefixccf54e4d9a4e040d_krem_func_krem_fac.c_krem_main_krem_92_krem_92_krem_, 1

	.type	krem_prefixd0071f9bf39134e3_krem_loop_body_krem_fac.c_krem_fac_main_krem_81_krem_86_krem_,@object # @krem_prefixd0071f9bf39134e3_krem_loop_body_krem_fac.c_krem_fac_main_krem_81_krem_86_krem_
	.globl	krem_prefixd0071f9bf39134e3_krem_loop_body_krem_fac.c_krem_fac_main_krem_81_krem_86_krem_
krem_prefixd0071f9bf39134e3_krem_loop_body_krem_fac.c_krem_fac_main_krem_81_krem_86_krem_:
	.byte	0                       # 0x0
	.size	krem_prefixd0071f9bf39134e3_krem_loop_body_krem_fac.c_krem_fac_main_krem_81_krem_86_krem_, 1

	.type	krem_prefixdaf4e49c9437ab80_krem_loop_krem_fac.c_krem_fac_main_krem_81_krem_86_krem_,@object # @krem_prefixdaf4e49c9437ab80_krem_loop_krem_fac.c_krem_fac_main_krem_81_krem_86_krem_
	.globl	krem_prefixdaf4e49c9437ab80_krem_loop_krem_fac.c_krem_fac_main_krem_81_krem_86_krem_
krem_prefixdaf4e49c9437ab80_krem_loop_krem_fac.c_krem_fac_main_krem_81_krem_86_krem_:
	.byte	0                       # 0x0
	.size	krem_prefixdaf4e49c9437ab80_krem_loop_krem_fac.c_krem_fac_main_krem_81_krem_86_krem_, 1

	.text
.Ldebug_end1:
	.section	".note.GNU-stack","",@progbits