	.text
	.file	"gemm.simplifycfg.mem2reg.indvars.elimsinglephis.criticalpath.regioninstrument.renamemain.O3.bc"
	.text
	.globl	gemm
	.align	16, 0x90
	.type	gemm,@function
gemm:                                   # @gemm
.Lfunc_begin0:
	.file	1 "gemm.c"
	.loc	1 3 0                   # gemm.c:3:0
	.cfi_startproc
# BB#0:                                 # %entry
	pushq	%rbp
.Ltmp0:
	.cfi_def_cfa_offset 16
.Ltmp1:
	.cfi_offset %rbp, -16
	movq	%rsp, %rbp
.Ltmp2:
	.cfi_def_cfa_register %rbp
	pushq	%r15
	pushq	%r14
	pushq	%r13
	pushq	%r12
	pushq	%rbx
	subq	$104, %rsp
.Ltmp3:
	.cfi_offset %rbx, -56
.Ltmp4:
	.cfi_offset %r12, -48
.Ltmp5:
	.cfi_offset %r13, -40
.Ltmp6:
	.cfi_offset %r14, -32
.Ltmp7:
	.cfi_offset %r15, -24
	#DEBUG_VALUE: gemm:m1 <- RDI
	#DEBUG_VALUE: gemm:m2 <- RSI
	#DEBUG_VALUE: gemm:prod <- RDX
	movq	%rdx, -96(%rbp)         # 8-byte Spill
.Ltmp8:
	#DEBUG_VALUE: gemm:prod <- [RBP+-96]
	movq	%rsi, -112(%rbp)        # 8-byte Spill
.Ltmp9:
	#DEBUG_VALUE: gemm:m2 <- [RBP+-112]
	movq	%rdi, -80(%rbp)         # 8-byte Spill
.Ltmp10:
	#DEBUG_VALUE: gemm:m1 <- [RBP+-80]
	movabsq	$-4981765370457209512, %r14 # imm = 0xBADD36CA438E4558
	movabsq	$5338081400153581475, %rdi # imm = 0x4A14ACC0464627A3
	xorl	%r15d, %r15d
	xorl	%esi, %esi
	callq	_KEnterRegion
	movl	$13, %edi
	movl	$6, %esi
	callq	_KPrepRTable
.Ltmp11:
	#DEBUG_VALUE: gemm:i <- 0
	movl	$6, %edi
	callq	_KInduction
	movl	$1, %esi
	movq	%r14, %rdi
	callq	_KEnterRegion
	movl	$1, %edi
	callq	_KWork
	movl	$10, %edi
	movl	$6, %esi
	movl	$1, %edx
	callq	_KTimestamp1
	movabsq	$6097065948256379694, %rbx # imm = 0x549D212D21F3A32E
	movabsq	$-5529114774096389628, %r14 # imm = 0xB344A3684F9EDA04
	movabsq	$3073269193332101825, %r12 # imm = 0x2AA6720C67B612C1
	movabsq	$-1440255112643481641, %r13 # imm = 0xEC032F9B18F1EFD7
	.align	16, 0x90
.LBB0_1:                                # %middle
                                        # =>This Loop Header: Depth=1
                                        #     Child Loop BB0_2 Depth 2
                                        #       Child Loop BB0_3 Depth 3
	#DEBUG_VALUE: gemm:m2 <- [RBP+-112]
	#DEBUG_VALUE: gemm:prod <- [RBP+-96]
	#DEBUG_VALUE: gemm:i <- 0
	movq	%r15, -104(%rbp)        # 8-byte Spill
	movl	$2, %esi
	movq	%rbx, %rdi
	callq	_KEnterRegion
	movl	$10, %edi
	callq	_KPushCDep
.Ltmp12:
	#DEBUG_VALUE: gemm:j <- 0
	movl	$7, %edi
	callq	_KInduction
	callq	_KPopCDep
	movl	$1, %esi
	movq	%r14, %rdi
	callq	_KEnterRegion
	movl	$10, %edi
	callq	_KPushCDep
	movl	$1, %edi
	callq	_KWork
	movl	$11, %edi
	movl	$10, %esi
	movl	$1, %edx
	movl	$7, %ecx
	movl	$1, %r8d
	callq	_KTimestamp2
	callq	_KPopCDep
	.loc	1 10 21 prologue_end    # gemm.c:10:21
.Ltmp13:
	shlq	$6, %r15
	movq	%r15, -88(%rbp)         # 8-byte Spill
	movq	-112(%rbp), %r14        # 8-byte Reload
	xorl	%ebx, %ebx
	.align	16, 0x90
.LBB0_2:                                # %for.body3
                                        #   Parent Loop BB0_1 Depth=1
                                        # =>  This Loop Header: Depth=2
                                        #       Child Loop BB0_3 Depth 3
	#DEBUG_VALUE: gemm:m2 <- [RBP+-112]
	#DEBUG_VALUE: gemm:prod <- [RBP+-96]
	#DEBUG_VALUE: gemm:i <- 0
	#DEBUG_VALUE: gemm:j <- 0
	movq	%rbx, -72(%rbp)         # 8-byte Spill
	movq	%r14, -64(%rbp)         # 8-byte Spill
	movl	$2, %esi
	movq	%r13, %rdi
	callq	_KEnterRegion
	movl	$11, %edi
	callq	_KPushCDep
	movl	$2, %edi
	callq	_KWork
.Ltmp14:
	#DEBUG_VALUE: gemm:k <- 0
	#DEBUG_VALUE: sum <- 0.000000e+00
	movl	$8, %edi
	callq	_KInduction
	callq	_KPopCDep
	movl	$1, %esi
	movq	%r12, %rdi
	callq	_KEnterRegion
	xorps	%xmm0, %xmm0
	movsd	%xmm0, -48(%rbp)        # 8-byte Spill
	xorl	%ebx, %ebx
	movl	$64, %r15d
	movq	%r14, %r12
	movq	-80(%rbp), %r14         # 8-byte Reload
	xorl	%r13d, %r13d
	jmp	.LBB0_3
	.align	16, 0x90
.LBB0_4:                                # %for.body6
                                        #   in Loop: Header=BB0_3 Depth=3
	#DEBUG_VALUE: gemm:m2 <- [RBP+-112]
	#DEBUG_VALUE: gemm:prod <- [RBP+-96]
	#DEBUG_VALUE: gemm:i <- 0
	#DEBUG_VALUE: gemm:j <- 0
	#DEBUG_VALUE: sum <- 0.000000e+00
	#DEBUG_VALUE: gemm:k <- 0
	movl	$2, %esi
	movabsq	$8008630310945402939, %rbx # imm = 0x6F245ED61553B03B
	movq	%rbx, %rdi
	callq	_KEnterRegion
	movl	$12, %edi
	callq	_KPushCDep
	movl	$19, %edi
	callq	_KWork
	movl	$1, %esi
	movl	$2, %edx
	movl	$8, %ecx
	movq	%r14, %rdi
	callq	_KLoad1
	.loc	1 14 24                 # gemm.c:14:24
.Ltmp15:
	movsd	(%r14), %xmm0
	movsd	%xmm0, -56(%rbp)        # 8-byte Spill
	movl	$3, %esi
	movl	$4, %edx
	movl	$8, %ecx
	movq	%r12, %rdi
	callq	_KLoad1
	movsd	-56(%rbp), %xmm1        # 8-byte Reload
	mulsd	(%r12), %xmm1
.Ltmp16:
	#DEBUG_VALUE: gemm:mult <- XMM1
	.loc	1 15 17                 # gemm.c:15:17
	movsd	-48(%rbp), %xmm0        # 8-byte Reload
	addsd	%xmm1, %xmm0
.Ltmp17:
	#DEBUG_VALUE: sum <- [RBP+-48]
	movsd	%xmm0, -48(%rbp)        # 8-byte Spill
	movl	$7, 16(%rsp)
	movl	$3, 8(%rsp)
	movl	$7, (%rsp)
	movl	$9, %r13d
	movl	$9, %edi
	movl	$5, %esi
	movl	$2, %edx
	movl	$12, %ecx
	movl	$7, %r8d
	movl	$1, %r9d
	callq	_KTimestamp4
	callq	_KPopCDep
	movl	$2, %esi
	movq	%rbx, %rdi
	movl	$12, %ebx
	callq	_KExitRegion
	addq	$8, %r14
	addq	$512, %r12              # imm = 0x200
	decq	%r15
.Ltmp18:
.LBB0_3:                                # %for.cond4
                                        #   Parent Loop BB0_1 Depth=1
                                        #     Parent Loop BB0_2 Depth=2
                                        # =>    This Inner Loop Header: Depth=3
	#DEBUG_VALUE: gemm:m2 <- [RBP+-112]
	#DEBUG_VALUE: gemm:prod <- [RBP+-96]
	#DEBUG_VALUE: gemm:i <- 0
	#DEBUG_VALUE: gemm:j <- 0
	#DEBUG_VALUE: sum <- 0.000000e+00
	#DEBUG_VALUE: gemm:k <- 0
	movl	$11, %edi
	callq	_KPushCDep
	movl	$5, %edi
	movl	$11, %edx
	movl	%r13d, %esi
	movl	%ebx, %ecx
	callq	_KPhi2To1
	movl	$1, %edi
	callq	_KWork
	movl	$5, %edi
	movl	$5, %esi
	xorl	%edx, %edx
	callq	_KTimestamp1
	movl	$12, %edi
	movl	$11, %esi
	movl	$1, %edx
	movl	$8, %ecx
	movl	$1, %r8d
	callq	_KTimestamp2
	movl	$5, %edi
	movl	$12, %esi
	callq	_KPhiAddCond
	callq	_KPopCDep
	.loc	1 12 19                 # gemm.c:12:19
	testq	%r15, %r15
	jne	.LBB0_4
.Ltmp19:
# BB#5:                                 # %for.cond4.pre_exit.for.end
                                        #   in Loop: Header=BB0_2 Depth=2
	#DEBUG_VALUE: gemm:m2 <- [RBP+-112]
	#DEBUG_VALUE: gemm:prod <- [RBP+-96]
	#DEBUG_VALUE: gemm:i <- 0
	#DEBUG_VALUE: gemm:j <- 0
	#DEBUG_VALUE: sum <- 0.000000e+00
	#DEBUG_VALUE: gemm:k <- 0
	movl	$1, %esi
	movabsq	$3073269193332101825, %r12 # imm = 0x2AA6720C67B612C1
	movq	%r12, %rdi
	callq	_KExitRegion
	movl	$11, %edi
	callq	_KPushCDep
	movl	$2, %edi
	callq	_KWork
	.loc	1 17 18                 # gemm.c:17:18
	movq	-88(%rbp), %rax         # 8-byte Reload
	movq	-72(%rbp), %rbx         # 8-byte Reload
	leaq	(%rbx,%rax), %r14
	movq	-96(%rbp), %r15         # 8-byte Reload
.Ltmp20:
	#DEBUG_VALUE: gemm:prod <- R15
	.loc	1 17 13 is_stmt 0       # gemm.c:17:13
	leaq	(%r15,%r14,8), %rsi
	movl	$5, %edi
	movl	$8, %edx
	callq	_KStore
	movsd	-48(%rbp), %xmm0        # 8-byte Reload
	movsd	%xmm0, (%r15,%r14,8)
.Ltmp21:
	#DEBUG_VALUE: gemm:prod <- [RBP+-96]
	.loc	1 9 16 is_stmt 1        # gemm.c:9:16
	incq	%rbx
	callq	_KPopCDep
	movl	$2, %esi
	movabsq	$-1440255112643481641, %r13 # imm = 0xEC032F9B18F1EFD7
	movq	%r13, %rdi
	callq	_KExitRegion
	movl	$10, %edi
	callq	_KPushCDep
	movl	$1, %edi
	callq	_KWork
	movl	$11, %edi
	movl	$10, %esi
	movl	$1, %edx
	movl	$7, %ecx
	movl	$1, %r8d
	callq	_KTimestamp2
	callq	_KPopCDep
	movq	-64(%rbp), %r14         # 8-byte Reload
.Ltmp22:
	.loc	1 9 16 is_stmt 0        # gemm.c:9:16
	addq	$8, %r14
	cmpq	$64, %rbx
	jne	.LBB0_2
.Ltmp23:
# BB#6:                                 # %for.cond1.pre_exit.for.inc19
                                        #   in Loop: Header=BB0_1 Depth=1
	#DEBUG_VALUE: gemm:m2 <- [RBP+-112]
	#DEBUG_VALUE: gemm:prod <- [RBP+-96]
	#DEBUG_VALUE: gemm:i <- 0
	#DEBUG_VALUE: gemm:j <- 0
	#DEBUG_VALUE: gemm:k <- 0
	movl	$1, %esi
	movabsq	$-5529114774096389628, %r14 # imm = 0xB344A3684F9EDA04
	movq	%r14, %rdi
	callq	_KExitRegion
	movl	$10, %edi
	callq	_KPushCDep
	movq	-104(%rbp), %r15        # 8-byte Reload
	.loc	1 8 11 is_stmt 1        # gemm.c:8:11
	incq	%r15
	callq	_KPopCDep
	movl	$2, %esi
	movabsq	$6097065948256379694, %rbx # imm = 0x549D212D21F3A32E
	movq	%rbx, %rdi
	callq	_KExitRegion
	movl	$1, %edi
	callq	_KWork
	movl	$10, %edi
	movl	$6, %esi
	movl	$1, %edx
	callq	_KTimestamp1
.Ltmp24:
	.loc	1 8 11 is_stmt 0        # gemm.c:8:11
	addq	$512, -80(%rbp)         # 8-byte Folded Spill
                                        # imm = 0x200
	cmpq	$64, %r15
	jne	.LBB0_1
.Ltmp25:
# BB#7:                                 # %for.cond.pre_exit.for.end21
	#DEBUG_VALUE: gemm:i <- 0
	#DEBUG_VALUE: gemm:j <- 0
	#DEBUG_VALUE: gemm:k <- 0
	movl	$1, %esi
	movabsq	$-4981765370457209512, %rdi # imm = 0xBADD36CA438E4558
	callq	_KExitRegion
	xorl	%esi, %esi
	movabsq	$5338081400153581475, %rdi # imm = 0x4A14ACC0464627A3
	addq	$104, %rsp
	popq	%rbx
	popq	%r12
	popq	%r13
	popq	%r14
	popq	%r15
	popq	%rbp
	jmp	_KExitRegion            # TAILCALL
.Ltmp26:
	.size	gemm, .Ltmp26-gemm
.Lfunc_end0:
	.cfi_endproc

	.type	krem_prefix2aa6720c67b612c1_krem_loop_krem_gemm.c_krem_gemm_krem_4_krem_15_krem_,@object # @krem_prefix2aa6720c67b612c1_krem_loop_krem_gemm.c_krem_gemm_krem_4_krem_15_krem_
	.bss
	.globl	krem_prefix2aa6720c67b612c1_krem_loop_krem_gemm.c_krem_gemm_krem_4_krem_15_krem_
krem_prefix2aa6720c67b612c1_krem_loop_krem_gemm.c_krem_gemm_krem_4_krem_15_krem_:
	.byte	0                       # 0x0
	.size	krem_prefix2aa6720c67b612c1_krem_loop_krem_gemm.c_krem_gemm_krem_4_krem_15_krem_, 1

	.type	krem_prefix4a14acc0464627a3_krem_func_krem_gemm.c_krem_gemm_krem_3_krem_3_krem_,@object # @krem_prefix4a14acc0464627a3_krem_func_krem_gemm.c_krem_gemm_krem_3_krem_3_krem_
	.globl	krem_prefix4a14acc0464627a3_krem_func_krem_gemm.c_krem_gemm_krem_3_krem_3_krem_
krem_prefix4a14acc0464627a3_krem_func_krem_gemm.c_krem_gemm_krem_3_krem_3_krem_:
	.byte	0                       # 0x0
	.size	krem_prefix4a14acc0464627a3_krem_func_krem_gemm.c_krem_gemm_krem_3_krem_3_krem_, 1

	.type	krem_prefix549d212d21f3a32e_krem_loop_body_krem_gemm.c_krem_gemm_krem_4_krem_17_krem_,@object # @krem_prefix549d212d21f3a32e_krem_loop_body_krem_gemm.c_krem_gemm_krem_4_krem_17_krem_
	.globl	krem_prefix549d212d21f3a32e_krem_loop_body_krem_gemm.c_krem_gemm_krem_4_krem_17_krem_
krem_prefix549d212d21f3a32e_krem_loop_body_krem_gemm.c_krem_gemm_krem_4_krem_17_krem_:
	.byte	0                       # 0x0
	.size	krem_prefix549d212d21f3a32e_krem_loop_body_krem_gemm.c_krem_gemm_krem_4_krem_17_krem_, 1

	.type	krem_prefix6f245ed61553b03b_krem_loop_body_krem_gemm.c_krem_gemm_krem_4_krem_15_krem_,@object # @krem_prefix6f245ed61553b03b_krem_loop_body_krem_gemm.c_krem_gemm_krem_4_krem_15_krem_
	.globl	krem_prefix6f245ed61553b03b_krem_loop_body_krem_gemm.c_krem_gemm_krem_4_krem_15_krem_
krem_prefix6f245ed61553b03b_krem_loop_body_krem_gemm.c_krem_gemm_krem_4_krem_15_krem_:
	.byte	0                       # 0x0
	.size	krem_prefix6f245ed61553b03b_krem_loop_body_krem_gemm.c_krem_gemm_krem_4_krem_15_krem_, 1

	.type	krem_prefixb344a3684f9eda04_krem_loop_krem_gemm.c_krem_gemm_krem_4_krem_17_krem_,@object # @krem_prefixb344a3684f9eda04_krem_loop_krem_gemm.c_krem_gemm_krem_4_krem_17_krem_
	.globl	krem_prefixb344a3684f9eda04_krem_loop_krem_gemm.c_krem_gemm_krem_4_krem_17_krem_
krem_prefixb344a3684f9eda04_krem_loop_krem_gemm.c_krem_gemm_krem_4_krem_17_krem_:
	.byte	0                       # 0x0
	.size	krem_prefixb344a3684f9eda04_krem_loop_krem_gemm.c_krem_gemm_krem_4_krem_17_krem_, 1

	.type	krem_prefixbadd36ca438e4558_krem_loop_krem_gemm.c_krem_gemm_krem_4_krem_17_krem_,@object # @krem_prefixbadd36ca438e4558_krem_loop_krem_gemm.c_krem_gemm_krem_4_krem_17_krem_
	.globl	krem_prefixbadd36ca438e4558_krem_loop_krem_gemm.c_krem_gemm_krem_4_krem_17_krem_
krem_prefixbadd36ca438e4558_krem_loop_krem_gemm.c_krem_gemm_krem_4_krem_17_krem_:
	.byte	0                       # 0x0
	.size	krem_prefixbadd36ca438e4558_krem_loop_krem_gemm.c_krem_gemm_krem_4_krem_17_krem_, 1

	.type	krem_prefixec032f9b18f1efd7_krem_loop_body_krem_gemm.c_krem_gemm_krem_4_krem_17_krem_,@object # @krem_prefixec032f9b18f1efd7_krem_loop_body_krem_gemm.c_krem_gemm_krem_4_krem_17_krem_
	.globl	krem_prefixec032f9b18f1efd7_krem_loop_body_krem_gemm.c_krem_gemm_krem_4_krem_17_krem_
krem_prefixec032f9b18f1efd7_krem_loop_body_krem_gemm.c_krem_gemm_krem_4_krem_17_krem_:
	.byte	0                       # 0x0
	.size	krem_prefixec032f9b18f1efd7_krem_loop_body_krem_gemm.c_krem_gemm_krem_4_krem_17_krem_, 1

	.text
.Ldebug_end0:
	.section	".note.GNU-stack","",@progbits