	.text
	.file	"wcclibm.simplifycfg.mem2reg.indvars.elimsinglephis.criticalpath.regioninstrument.renamemain.O3.bc"
	.section	.rodata.cst4,"aM",@progbits,4
	.align	4
.LCPI0_0:
	.long	1059256708              # float 0.636619806
.LCPI0_1:
	.long	1056964608              # float 0.5
.LCPI0_2:
	.long	3217624960              # float -1.57078552
.LCPI0_3:
	.long	926237763               # float 1.08043341E-5
.LCPI0_4:
	.long	926237696               # float 1.08042732E-5
.LCPI0_5:
	.long	780509960               # float 6.07709993E-11
.LCPI0_6:
	.long	780509952               # float 6.07709438E-11
.LCPI0_7:
	.long	613232946               # float 6.12323426E-17
.LCPI0_9:
	.long	1070141312              # float 1.57078552
.LCPI0_10:
	.long	3073721411              # float -1.08043341E-5
.LCPI0_11:
	.long	3073721344              # float -1.08042732E-5
.LCPI0_12:
	.long	2927993608              # float -6.07709993E-11
	.section	.rodata.cst16,"aM",@progbits,16
	.align	16
.LCPI0_8:
	.long	2147483648              # 0x80000000
	.long	2147483648              # 0x80000000
	.long	2147483648              # 0x80000000
	.long	2147483648              # 0x80000000
	.text
	.globl	__ieee754_rem_pio2f
	.align	16, 0x90
	.type	__ieee754_rem_pio2f,@function
__ieee754_rem_pio2f:                    # @__ieee754_rem_pio2f
.Lfunc_begin0:
	.loc	1 111 0                 # wcclibm.c:111:0
	.cfi_startproc
# BB#0:                                 # %entry
	pushq	%rbp
.Ltmp0:
	.cfi_def_cfa_offset 16
.Ltmp1:
	.cfi_offset %rbp, -16
	movq	%rsp, %rbp
.Ltmp2:
	.cfi_def_cfa_register %rbp
	pushq	%r15
	pushq	%r14
	pushq	%r13
	pushq	%r12
	pushq	%rbx
	subq	$88, %rsp
.Ltmp3:
	.cfi_offset %rbx, -56
.Ltmp4:
	.cfi_offset %r12, -48
.Ltmp5:
	.cfi_offset %r13, -40
.Ltmp6:
	.cfi_offset %r14, -32
.Ltmp7:
	.cfi_offset %r15, -24
	#DEBUG_VALUE: __ieee754_rem_pio2f:x <- XMM0
	#DEBUG_VALUE: __ieee754_rem_pio2f:y <- RDI
	movq	%rdi, %r12
.Ltmp8:
	#DEBUG_VALUE: __ieee754_rem_pio2f:y <- R12
	movss	%xmm0, -68(%rbp)        # 4-byte Spill
.Ltmp9:
	#DEBUG_VALUE: __ieee754_rem_pio2f:x <- [RBP+-68]
	#DEBUG_VALUE: __ieee754_rem_pio2f:x <- undef
	movabsq	$3429500432723054711, %rdi # imm = 0x2F98087929819077
	xorl	%r15d, %r15d
	xorl	%esi, %esi
	callq	_KEnterRegion
	movl	$56, %edi
	xorl	%esi, %esi
	callq	_KPrepRTable
	movl	$7, %edi
	callq	_KWork
	movl	$1, %edi
	callq	_KDeqArg
	movl	$1, %edi
	movl	$1, %esi
	xorl	%edx, %edx
	callq	_KTimestamp1
	leaq	-48(%rbp), %rbx
	movl	$1, %edi
	movl	$4, %edx
	movq	%rbx, %rsi
	callq	_KStore
	.loc	1 116 2 prologue_end    # wcclibm.c:116:2
.Ltmp10:
	movss	-68(%rbp), %xmm0        # 4-byte Reload
	movss	%xmm0, -48(%rbp)
.Ltmp11:
	#DEBUG_VALUE: __ieee754_rem_pio2f:x <- [RBP+-68]
	movl	$2, %esi
	movl	$4, %edx
	movq	%rbx, %rdi
	callq	_KLoad0
	movl	-48(%rbp), %r14d
.Ltmp12:
	#DEBUG_VALUE: __ieee754_rem_pio2f:hx <- R14D
	.loc	1 117 7                 # wcclibm.c:117:7
	movl	%r14d, %ebx
	andl	$2147483647, %ebx       # imm = 0x7FFFFFFF
.Ltmp13:
	#DEBUG_VALUE: __ieee754_rem_pio2f:ix <- EBX
	movl	$51, %edi
	movl	$2, %esi
	movl	$2, %edx
	callq	_KTimestamp1
	movl	$51, %edi
	callq	_KPushCDep
	.loc	1 118 5                 # wcclibm.c:118:5
	cmpl	$1061752792, %ebx       # imm = 0x3F490FD8
	ja	.LBB0_2
.Ltmp14:
# BB#1:                                 # %if.then
	#DEBUG_VALUE: __ieee754_rem_pio2f:x <- [RBP+-68]
	#DEBUG_VALUE: __ieee754_rem_pio2f:y <- R12
	movl	$2, %edi
	callq	_KWork
	movl	$1, %edi
	movl	$4, %edx
	movq	%r12, %rsi
	callq	_KStore
	.loc	1 119 7                 # wcclibm.c:119:7
.Ltmp15:
	movss	-68(%rbp), %xmm0        # 4-byte Reload
	movss	%xmm0, (%r12)
	.loc	1 119 17 is_stmt 0      # wcclibm.c:119:17
	leaq	4(%r12), %rdi
	movl	$4, %esi
	callq	_KStoreConst
	movl	$0, 4(%r12)
	callq	_KPopCDep
	xorl	%r12d, %r12d
.Ltmp16:
	xorl	%r13d, %r13d
	xorl	%ecx, %ecx
	jmp	.LBB0_28
.Ltmp17:
.LBB0_2:                                # %if.end
	#DEBUG_VALUE: __ieee754_rem_pio2f:x <- [RBP+-68]
	#DEBUG_VALUE: __ieee754_rem_pio2f:y <- R12
	#DEBUG_VALUE: __ieee754_rem_pio2f:hx <- R14D
	#DEBUG_VALUE: __ieee754_rem_pio2f:ix <- EBX
	movl	$1, %edi
	callq	_KWork
	movl	$50, %edi
	movl	$2, %esi
	movl	$3, %edx
	callq	_KTimestamp1
	callq	_KPopCDep
	movl	$50, %edi
	callq	_KPushCDep
	movl	$1, %edi
	callq	_KWork
	.loc	1 120 5 is_stmt 1       # wcclibm.c:120:5
	cmpl	$1075235811, %ebx       # imm = 0x4016CBE3
	ja	.LBB0_13
.Ltmp18:
# BB#3:                                 # %if.then3
	#DEBUG_VALUE: __ieee754_rem_pio2f:x <- [RBP+-68]
	#DEBUG_VALUE: __ieee754_rem_pio2f:y <- R12
	#DEBUG_VALUE: __ieee754_rem_pio2f:hx <- R14D
	movl	$49, %edi
	movl	$2, %esi
	movl	$4, %edx
	callq	_KTimestamp1
	callq	_KPopCDep
	movl	$49, %edi
	callq	_KPushCDep
	movl	$4, %edi
	callq	_KWork
	.loc	1 121 9                 # wcclibm.c:121:9
.Ltmp19:
	testl	%r14d, %r14d
	jle	.LBB0_9
.Ltmp20:
# BB#4:                                 # %if.then5
	#DEBUG_VALUE: __ieee754_rem_pio2f:x <- [RBP+-68]
	#DEBUG_VALUE: __ieee754_rem_pio2f:x <- undef
	#DEBUG_VALUE: __ieee754_rem_pio2f:y <- R12
	#DEBUG_VALUE: __ieee754_rem_pio2f:hx <- R14D
	.loc	1 122 7                 # wcclibm.c:122:7
	movss	-68(%rbp), %xmm0        # 4-byte Reload
	addss	.LCPI0_2(%rip), %xmm0
.Ltmp21:
	#DEBUG_VALUE: __ieee754_rem_pio2f:z <- undef
	movss	%xmm0, -68(%rbp)        # 4-byte Spill
.Ltmp22:
	#DEBUG_VALUE: __ieee754_rem_pio2f:z <- [RBP+-68]
	.loc	1 123 7                 # wcclibm.c:123:7
	andl	$2147483632, %r14d      # imm = 0x7FFFFFF0
.Ltmp23:
	movl	$52, %edi
	movl	$2, %esi
	movl	$6, %edx
	callq	_KTimestamp1
	callq	_KPopCDep
	movl	$52, %edi
	callq	_KPushCDep
	.loc	1 123 6 is_stmt 0       # wcclibm.c:123:6
	cmpl	$1070141392, %r14d      # imm = 0x3FC90FD0
	jne	.LBB0_5
.Ltmp24:
# BB#6:                                 # %if.else
	#DEBUG_VALUE: __ieee754_rem_pio2f:y <- R12
	#DEBUG_VALUE: __ieee754_rem_pio2f:z <- [RBP+-68]
	movl	$14, %edi
	callq	_KWork
	movss	-68(%rbp), %xmm0        # 4-byte Reload
.Ltmp25:
	#DEBUG_VALUE: __ieee754_rem_pio2f:z <- XMM0
	.loc	1 127 7 is_stmt 1       # wcclibm.c:127:7
	addss	.LCPI0_11(%rip), %xmm0
.Ltmp26:
	.loc	1 128 14                # wcclibm.c:128:14
	movss	%xmm0, -68(%rbp)        # 4-byte Spill
.Ltmp27:
	#DEBUG_VALUE: __ieee754_rem_pio2f:z <- [RBP+-68]
	addss	.LCPI0_12(%rip), %xmm0
	movss	%xmm0, -72(%rbp)        # 4-byte Spill
	movl	$6, %edi
	movl	$1, %esi
	movl	$6, %edx
	movl	$2, %ecx
	movl	$10, %r8d
	callq	_KTimestamp2
	movl	$6, %edi
	movl	$4, %edx
	movq	%r12, %rsi
	callq	_KStore
	.loc	1 128 7 is_stmt 0       # wcclibm.c:128:7
	movss	-72(%rbp), %xmm0        # 4-byte Reload
	movss	%xmm0, (%r12)
	movl	$7, %esi
	movl	$4, %edx
	movq	%r12, %rdi
	callq	_KLoad0
	movss	-68(%rbp), %xmm0        # 4-byte Reload
.Ltmp28:
	#DEBUG_VALUE: __ieee754_rem_pio2f:z <- XMM0
	.loc	1 129 15 is_stmt 1      # wcclibm.c:129:15
	subss	(%r12), %xmm0
.Ltmp29:
	.loc	1 129 14 is_stmt 0      # wcclibm.c:129:14
	addss	.LCPI0_12(%rip), %xmm0
	movss	%xmm0, -68(%rbp)        # 4-byte Spill
	.loc	1 129 7                 # wcclibm.c:129:7
	leaq	4(%r12), %rbx
	movl	$4, (%rsp)
	movl	$8, %edi
	movl	$1, %esi
	movl	$8, %edx
	movl	$2, %ecx
	movl	$12, %r8d
	movl	$7, %r9d
	callq	_KTimestamp3
	movl	$8, %edi
	jmp	.LBB0_7
.Ltmp30:
.LBB0_13:                               # %if.end42
	#DEBUG_VALUE: __ieee754_rem_pio2f:x <- [RBP+-68]
	#DEBUG_VALUE: __ieee754_rem_pio2f:y <- R12
	#DEBUG_VALUE: __ieee754_rem_pio2f:hx <- R14D
	#DEBUG_VALUE: __ieee754_rem_pio2f:ix <- EBX
	movl	$39, %edi
	movl	$2, %esi
	movl	$4, %edx
	callq	_KTimestamp1
	callq	_KPopCDep
	movl	$39, %edi
	callq	_KPushCDep
	.loc	1 145 5 is_stmt 1       # wcclibm.c:145:5
	cmpl	$1128861568, %ebx       # imm = 0x43490F80
	ja	.LBB0_25
.Ltmp31:
# BB#14:                                # %if.then44
	#DEBUG_VALUE: __ieee754_rem_pio2f:x <- [RBP+-68]
	#DEBUG_VALUE: __ieee754_rem_pio2f:y <- R12
	#DEBUG_VALUE: __ieee754_rem_pio2f:hx <- R14D
	#DEBUG_VALUE: __ieee754_rem_pio2f:ix <- EBX
	movabsq	$1663601750665610408, %rdi # imm = 0x17164CFA642444A8
	xorl	%esi, %esi
	callq	_KPrepCall
	movl	$1, %edi
	callq	_KEnqArg
	movl	$15, %edi
	callq	_KLinkReturn
	movl	$20, %edi
	callq	_KWork
	.loc	1 146 11                # wcclibm.c:146:11
.Ltmp32:
	movss	-68(%rbp), %xmm0        # 4-byte Reload
	callq	__fabsf
.Ltmp33:
	#DEBUG_VALUE: __ieee754_rem_pio2f:t <- XMM0
	movss	.LCPI0_0(%rip), %xmm1
	.loc	1 147 22                # wcclibm.c:147:22
	mulss	%xmm0, %xmm1
	addss	.LCPI0_1(%rip), %xmm1
	.loc	1 147 11 is_stmt 0      # wcclibm.c:147:11
	cvttss2si	%xmm1, %r13d
.Ltmp34:
	#DEBUG_VALUE: __ieee754_rem_pio2f:n <- R13D
	.loc	1 148 11 is_stmt 1      # wcclibm.c:148:11
	cvtsi2ssl	%r13d, %xmm2
.Ltmp35:
	#DEBUG_VALUE: __ieee754_rem_pio2f:fn <- XMM2
	movss	%xmm2, -96(%rbp)        # 4-byte Spill
	movss	.LCPI0_2(%rip), %xmm1
	.loc	1 149 13                # wcclibm.c:149:13
	mulss	%xmm2, %xmm1
	.loc	1 149 11 is_stmt 0      # wcclibm.c:149:11
	addss	%xmm0, %xmm1
.Ltmp36:
	#DEBUG_VALUE: __ieee754_rem_pio2f:r <- XMM1
	#DEBUG_VALUE: __ieee754_rem_pio2f:t <- XMM1
	movss	%xmm1, -68(%rbp)        # 4-byte Spill
.Ltmp37:
	#DEBUG_VALUE: __ieee754_rem_pio2f:r <- [RBP+-68]
	#DEBUG_VALUE: __ieee754_rem_pio2f:t <- [RBP+-68]
	movss	.LCPI0_3(%rip), %xmm0
	.loc	1 150 11 is_stmt 1      # wcclibm.c:150:11
	mulss	%xmm2, %xmm0
.Ltmp38:
	#DEBUG_VALUE: __ieee754_rem_pio2f:w <- XMM0
	movss	%xmm0, -72(%rbp)        # 4-byte Spill
.Ltmp39:
	#DEBUG_VALUE: __ieee754_rem_pio2f:w <- [RBP+-72]
	#DEBUG_VALUE: __ieee754_rem_pio2f:fn <- [RBP+-96]
	movl	$47, %edi
	movl	$2, %esi
	movl	$11, %edx
	movl	$15, %ecx
	movl	$7, %r8d
	callq	_KTimestamp2
	movl	$43, %edi
	movl	$2, %esi
	movl	$16, %edx
	movl	$15, %ecx
	movl	$12, %r8d
	callq	_KTimestamp2
	movl	$40, %edi
	movl	$2, %esi
	movl	$12, %edx
	movl	$15, %ecx
	movl	$8, %r8d
	callq	_KTimestamp2
	movl	$36, -76(%rbp)          # 4-byte Folded Spill
	movl	$36, %edi
	movl	$2, %esi
	movl	$18, %edx
	movl	$15, %ecx
	movl	$14, %r8d
	callq	_KTimestamp2
	callq	_KPopCDep
	.loc	1 151 9                 # wcclibm.c:151:9
	cmpl	$31, %r13d
	jg	.LBB0_17
.Ltmp40:
# BB#15:                                # %land.lhs.true
	#DEBUG_VALUE: __ieee754_rem_pio2f:y <- R12
	#DEBUG_VALUE: __ieee754_rem_pio2f:hx <- R14D
	#DEBUG_VALUE: __ieee754_rem_pio2f:ix <- EBX
	#DEBUG_VALUE: __ieee754_rem_pio2f:t <- [RBP+-68]
	#DEBUG_VALUE: __ieee754_rem_pio2f:n <- R13D
	#DEBUG_VALUE: __ieee754_rem_pio2f:fn <- [RBP+-96]
	#DEBUG_VALUE: __ieee754_rem_pio2f:r <- [RBP+-68]
	#DEBUG_VALUE: __ieee754_rem_pio2f:w <- [RBP+-72]
	movl	$40, %edi
	callq	_KPushCDep
	movl	$7, %edi
	callq	_KWork
	movl	%r14d, -100(%rbp)       # 4-byte Spill
.Ltmp41:
	#DEBUG_VALUE: __ieee754_rem_pio2f:hx <- [RBP+-100]
	.loc	1 151 25 is_stmt 0 discriminator 1 # wcclibm.c:151:25
	movl	-100(%rbp), %r14d       # 4-byte Reload
	andl	$2147483392, %r14d      # imm = 0x7FFFFF00
	.loc	1 151 50                # wcclibm.c:151:50
	leal	-1(%r13), %eax
	.loc	1 151 41                # wcclibm.c:151:41
	movslq	%eax, %r15
	leaq	npio2_hw(,%r15,4), %rdi
	movl	$16, %esi
	movl	$17, %edx
	movl	$4, %ecx
	callq	_KLoad1
	movl	$1, (%rsp)
	movl	$54, %edi
	movl	$2, %esi
	movl	$14, %edx
	movl	$15, %ecx
	movl	$10, %r8d
	movl	$16, %r9d
	callq	_KTimestamp3
	callq	_KPopCDep
	.loc	1 151 15                # wcclibm.c:151:15
	cmpl	npio2_hw(,%r15,4), %r14d
	movl	-100(%rbp), %r14d       # 4-byte Reload
.Ltmp42:
	#DEBUG_VALUE: __ieee754_rem_pio2f:hx <- R14D
	jne	.LBB0_16
.Ltmp43:
.LBB0_17:                               # %if.else60
	#DEBUG_VALUE: __ieee754_rem_pio2f:y <- R12
	#DEBUG_VALUE: __ieee754_rem_pio2f:hx <- R14D
	#DEBUG_VALUE: __ieee754_rem_pio2f:ix <- EBX
	#DEBUG_VALUE: __ieee754_rem_pio2f:t <- [RBP+-68]
	#DEBUG_VALUE: __ieee754_rem_pio2f:n <- R13D
	#DEBUG_VALUE: __ieee754_rem_pio2f:fn <- [RBP+-96]
	#DEBUG_VALUE: __ieee754_rem_pio2f:r <- [RBP+-68]
	#DEBUG_VALUE: __ieee754_rem_pio2f:w <- [RBP+-72]
	movl	%r14d, %r15d
.Ltmp44:
	#DEBUG_VALUE: __ieee754_rem_pio2f:hx <- R15D
	movq	%r13, -88(%rbp)         # 8-byte Spill
.Ltmp45:
	#DEBUG_VALUE: __ieee754_rem_pio2f:n <- [RBP+-88]
	movl	$40, %edi
	callq	_KPushCDep
	movl	$17, %edi
	callq	_KWork
	.loc	1 155 15 is_stmt 1      # wcclibm.c:155:15
.Ltmp46:
	shrl	$23, %ebx
.Ltmp47:
	#DEBUG_VALUE: __ieee754_rem_pio2f:j <- EBX
	#DEBUG_VALUE: __ieee754_rem_pio2f:r <- undef
	#DEBUG_VALUE: __ieee754_rem_pio2f:t <- undef
	.loc	1 156 17                # wcclibm.c:156:17
	movss	-68(%rbp), %xmm0        # 4-byte Reload
.Ltmp48:
	#DEBUG_VALUE: __ieee754_rem_pio2f:w <- undef
	#DEBUG_VALUE: __ieee754_rem_pio2f:r <- [RBP+-68]
	#DEBUG_VALUE: __ieee754_rem_pio2f:t <- [RBP+-68]
	subss	-72(%rbp), %xmm0        # 4-byte Folded Reload
	movss	%xmm0, -100(%rbp)       # 4-byte Spill
.Ltmp49:
	#DEBUG_VALUE: __ieee754_rem_pio2f:w <- [RBP+-72]
	movl	$19, %edi
	movl	$2, %esi
	movl	$20, %edx
	movl	$15, %ecx
	movl	$16, %r8d
	callq	_KTimestamp2
	movl	$19, %edi
	movl	$4, %edx
	movq	%r12, %rsi
	callq	_KStore
	.loc	1 156 10 is_stmt 0      # wcclibm.c:156:10
	movss	-100(%rbp), %xmm0       # 4-byte Reload
	movss	%xmm0, (%r12)
	movl	$20, %esi
	movl	$4, %edx
	movq	%r12, %rdi
	callq	_KLoad0
	.loc	1 157 3 is_stmt 1       # wcclibm.c:157:3
.Ltmp50:
	movss	(%r12), %xmm0
	movss	%xmm0, -100(%rbp)       # 4-byte Spill
	movl	$20, %edi
	movl	$20, %esi
	xorl	%edx, %edx
	callq	_KTimestamp1
	leaq	-56(%rbp), %r14
	movl	$20, %edi
	movl	$4, %edx
	movq	%r14, %rsi
	callq	_KStore
	movss	-100(%rbp), %xmm0       # 4-byte Reload
	movss	%xmm0, -56(%rbp)
	movl	$21, %esi
	movl	$4, %edx
	movq	%r14, %rdi
	callq	_KLoad0
	movl	-56(%rbp), %eax
.Ltmp51:
	#DEBUG_VALUE: high <- EAX
	.loc	1 158 18                # wcclibm.c:158:18
	shrl	$23, %eax
.Ltmp52:
	.loc	1 158 17 is_stmt 0      # wcclibm.c:158:17
	movzbl	%al, %eax
	.loc	1 158 14                # wcclibm.c:158:14
	movl	%ebx, %r14d
	subl	%eax, %r14d
.Ltmp53:
	#DEBUG_VALUE: __ieee754_rem_pio2f:i <- R14D
	movl	$4, (%rsp)
	movl	$41, %r13d
	movl	$41, %edi
	movl	$2, %esi
	movl	$16, %edx
	movl	$15, %ecx
	movl	$12, %r8d
	movl	$21, %r9d
	callq	_KTimestamp3
	callq	_KPopCDep
	.loc	1 159 13 is_stmt 1      # wcclibm.c:159:13
	cmpl	$9, %r14d
	jl	.LBB0_18
.Ltmp54:
# BB#19:                                # %if.then72
	#DEBUG_VALUE: __ieee754_rem_pio2f:y <- R12
	#DEBUG_VALUE: __ieee754_rem_pio2f:hx <- R15D
	#DEBUG_VALUE: __ieee754_rem_pio2f:t <- [RBP+-68]
	#DEBUG_VALUE: __ieee754_rem_pio2f:n <- [RBP+-88]
	#DEBUG_VALUE: __ieee754_rem_pio2f:fn <- [RBP+-96]
	#DEBUG_VALUE: __ieee754_rem_pio2f:r <- [RBP+-68]
	#DEBUG_VALUE: __ieee754_rem_pio2f:j <- EBX
	movl	$41, %r13d
	movl	$41, %edi
	callq	_KPushCDep
	movl	$34, %edi
	callq	_KWork
	movss	.LCPI0_4(%rip), %xmm0
	movss	-96(%rbp), %xmm3        # 4-byte Reload
.Ltmp55:
	#DEBUG_VALUE: __ieee754_rem_pio2f:fn <- XMM3
	.loc	1 161 12                # wcclibm.c:161:12
	mulss	%xmm3, %xmm0
.Ltmp56:
	#DEBUG_VALUE: __ieee754_rem_pio2f:w <- XMM0
	movss	-68(%rbp), %xmm2        # 4-byte Reload
.Ltmp57:
	#DEBUG_VALUE: __ieee754_rem_pio2f:r <- XMM2
	#DEBUG_VALUE: __ieee754_rem_pio2f:t <- XMM2
	.loc	1 162 12                # wcclibm.c:162:12
	movaps	%xmm2, %xmm4
	subss	%xmm0, %xmm4
.Ltmp58:
	#DEBUG_VALUE: __ieee754_rem_pio2f:r <- XMM4
	#DEBUG_VALUE: __ieee754_rem_pio2f:t <- XMM4
	movss	%xmm4, -100(%rbp)       # 4-byte Spill
	movss	.LCPI0_5(%rip), %xmm1
	.loc	1 163 12                # wcclibm.c:163:12
	mulss	%xmm3, %xmm1
.Ltmp59:
	#DEBUG_VALUE: __ieee754_rem_pio2f:fn <- [RBP+-96]
	.loc	1 163 25 is_stmt 0      # wcclibm.c:163:25
	subss	%xmm4, %xmm2
	.loc	1 163 24                # wcclibm.c:163:24
	subss	%xmm0, %xmm2
	.loc	1 163 12                # wcclibm.c:163:12
	subss	%xmm2, %xmm1
.Ltmp60:
	#DEBUG_VALUE: __ieee754_rem_pio2f:w <- XMM1
	.loc	1 164 14 is_stmt 1      # wcclibm.c:164:14
	movss	%xmm1, -72(%rbp)        # 4-byte Spill
.Ltmp61:
	#DEBUG_VALUE: __ieee754_rem_pio2f:r <- [RBP+-100]
	#DEBUG_VALUE: __ieee754_rem_pio2f:t <- [RBP+-100]
	subss	%xmm1, %xmm4
	movss	%xmm4, -68(%rbp)        # 4-byte Spill
.Ltmp62:
	#DEBUG_VALUE: __ieee754_rem_pio2f:w <- [RBP+-72]
	movl	$19, (%rsp)
	movl	$22, %edi
	movl	$2, %esi
	movl	$31, %edx
	movl	$15, %ecx
	movl	$27, %r8d
	movl	$21, %r9d
	callq	_KTimestamp3
	movl	$22, %edi
	movl	$4, %edx
	movq	%r12, %rsi
	callq	_KStore
	.loc	1 164 7 is_stmt 0       # wcclibm.c:164:7
	movss	-68(%rbp), %xmm0        # 4-byte Reload
	movss	%xmm0, (%r12)
	movl	$23, %esi
	movl	$4, %edx
	movq	%r12, %rdi
	callq	_KLoad0
	.loc	1 165 7 is_stmt 1       # wcclibm.c:165:7
.Ltmp63:
	movss	(%r12), %xmm0
	movss	%xmm0, -68(%rbp)        # 4-byte Spill
	movl	$23, %edi
	movl	$23, %esi
	xorl	%edx, %edx
	callq	_KTimestamp1
	leaq	-64(%rbp), %r14
	movl	$23, %edi
	movl	$4, %edx
	movq	%r14, %rsi
	callq	_KStore
	movss	-68(%rbp), %xmm0        # 4-byte Reload
	movss	%xmm0, -64(%rbp)
	movl	$24, %esi
	movl	$4, %edx
	movq	%r14, %rdi
	callq	_KLoad0
	movl	-64(%rbp), %eax
.Ltmp64:
	#DEBUG_VALUE: high <- EAX
	.loc	1 166 15                # wcclibm.c:166:15
	shrl	$23, %eax
.Ltmp65:
	.loc	1 166 14 is_stmt 0      # wcclibm.c:166:14
	movzbl	%al, %eax
	.loc	1 166 11                # wcclibm.c:166:11
	subl	%eax, %ebx
.Ltmp66:
	#DEBUG_VALUE: __ieee754_rem_pio2f:i <- EBX
	movl	$17, (%rsp)
	movl	$45, %edi
	movl	$2, %esi
	movl	$29, %edx
	movl	$15, %ecx
	movl	$25, %r8d
	movl	$21, %r9d
	callq	_KTimestamp3
	movl	$4, 16(%rsp)
	movl	$24, 8(%rsp)
	movl	$8, (%rsp)
	movl	$42, %edi
	movl	$2, %esi
	movl	$20, %edx
	movl	$15, %ecx
	movl	$16, %r8d
	movl	$21, %r9d
	callq	_KTimestamp4
	movl	$11, (%rsp)
	movl	$38, -76(%rbp)          # 4-byte Folded Spill
	movl	$38, %edi
	movl	$2, %esi
	movl	$23, %edx
	movl	$15, %ecx
	movl	$19, %r8d
	movl	$21, %r9d
	callq	_KTimestamp3
	callq	_KPopCDep
	.loc	1 167 10 is_stmt 1      # wcclibm.c:167:10
	cmpl	$26, %ebx
	movl	%r15d, %r14d
.Ltmp67:
	#DEBUG_VALUE: __ieee754_rem_pio2f:hx <- R14D
	jl	.LBB0_20
.Ltmp68:
# BB#21:                                # %if.then90
	#DEBUG_VALUE: __ieee754_rem_pio2f:y <- R12
	#DEBUG_VALUE: __ieee754_rem_pio2f:hx <- R14D
	#DEBUG_VALUE: __ieee754_rem_pio2f:t <- [RBP+-100]
	#DEBUG_VALUE: __ieee754_rem_pio2f:n <- [RBP+-88]
	#DEBUG_VALUE: __ieee754_rem_pio2f:fn <- [RBP+-96]
	#DEBUG_VALUE: __ieee754_rem_pio2f:r <- [RBP+-100]
	movl	$42, %r15d
	movl	$42, %edi
	callq	_KPushCDep
	movl	$21, %edi
	callq	_KWork
	movss	.LCPI0_6(%rip), %xmm0
	movss	-96(%rbp), %xmm3        # 4-byte Reload
.Ltmp69:
	#DEBUG_VALUE: __ieee754_rem_pio2f:fn <- XMM3
	.loc	1 169 13                # wcclibm.c:169:13
	mulss	%xmm3, %xmm0
.Ltmp70:
	#DEBUG_VALUE: __ieee754_rem_pio2f:w <- XMM0
	movss	-100(%rbp), %xmm2       # 4-byte Reload
.Ltmp71:
	#DEBUG_VALUE: __ieee754_rem_pio2f:r <- XMM2
	#DEBUG_VALUE: __ieee754_rem_pio2f:t <- XMM2
	.loc	1 170 13                # wcclibm.c:170:13
	movaps	%xmm2, %xmm1
	subss	%xmm0, %xmm1
.Ltmp72:
	#DEBUG_VALUE: __ieee754_rem_pio2f:r <- XMM1
	.loc	1 171 13                # wcclibm.c:171:13
	movss	%xmm1, -68(%rbp)        # 4-byte Spill
	mulss	.LCPI0_7(%rip), %xmm3
.Ltmp73:
	.loc	1 171 26 is_stmt 0      # wcclibm.c:171:26
	subss	%xmm1, %xmm2
.Ltmp74:
	.loc	1 171 25                # wcclibm.c:171:25
	subss	%xmm0, %xmm2
	.loc	1 171 13                # wcclibm.c:171:13
	subss	%xmm2, %xmm3
.Ltmp75:
	#DEBUG_VALUE: __ieee754_rem_pio2f:w <- XMM3
	.loc	1 172 15 is_stmt 1      # wcclibm.c:172:15
	movss	%xmm3, -96(%rbp)        # 4-byte Spill
.Ltmp76:
	#DEBUG_VALUE: __ieee754_rem_pio2f:r <- [RBP+-68]
	subss	%xmm3, %xmm1
	movss	%xmm1, -72(%rbp)        # 4-byte Spill
.Ltmp77:
	#DEBUG_VALUE: __ieee754_rem_pio2f:w <- [RBP+-96]
	movl	$19, 16(%rsp)
	movl	$24, 8(%rsp)
	movl	$23, (%rsp)
	movl	$25, %edi
	movl	$2, %esi
	movl	$35, %edx
	movl	$15, %ecx
	movl	$31, %r8d
	movl	$21, %r9d
	callq	_KTimestamp4
	movl	$25, %edi
	movl	$4, %edx
	movq	%r12, %rsi
	callq	_KStore
	.loc	1 172 8 is_stmt 0       # wcclibm.c:172:8
	movss	-72(%rbp), %xmm0        # 4-byte Reload
	movss	%xmm0, (%r12)
	movl	$17, 16(%rsp)
	movl	$24, 8(%rsp)
	movl	$21, (%rsp)
	movl	$44, %ebx
	movl	$44, %edi
	movl	$2, %esi
	movl	$33, %edx
	movl	$15, %ecx
	movl	$29, %r8d
	movl	$21, %r9d
	callq	_KTimestamp4
	movl	$11, 16(%rsp)
	movl	$24, 8(%rsp)
	movl	$15, (%rsp)
	movl	$37, -76(%rbp)          # 4-byte Folded Spill
	movl	$37, %edi
	movl	$2, %esi
	movl	$27, %edx
	movl	$15, %ecx
	movl	$23, %r8d
	movl	$21, %r9d
	callq	_KTimestamp4
	callq	_KPopCDep
	movss	-96(%rbp), %xmm0        # 4-byte Reload
	movss	%xmm0, -72(%rbp)        # 4-byte Spill
.Ltmp78:
	#DEBUG_VALUE: __ieee754_rem_pio2f:w <- [RBP+-72]
	jmp	.LBB0_22
.Ltmp79:
.LBB0_25:                               # %if.end117
	#DEBUG_VALUE: __ieee754_rem_pio2f:x <- [RBP+-68]
	#DEBUG_VALUE: __ieee754_rem_pio2f:y <- R12
	#DEBUG_VALUE: __ieee754_rem_pio2f:ix <- EBX
	movl	$1, %edi
	callq	_KWork
	movl	$55, %edi
	movl	$2, %esi
	movl	$5, %edx
	callq	_KTimestamp1
	callq	_KPopCDep
	movl	$55, %edi
	callq	_KPushCDep
	.loc	1 183 5 is_stmt 1       # wcclibm.c:183:5
	cmpl	$2139095040, %ebx       # imm = 0x7F800000
	jb	.LBB0_27
.Ltmp80:
# BB#26:                                # %if.then120
	#DEBUG_VALUE: __ieee754_rem_pio2f:x <- [RBP+-68]
	#DEBUG_VALUE: __ieee754_rem_pio2f:y <- R12
	movl	$4, %edi
	callq	_KWork
.Ltmp81:
	#DEBUG_VALUE: __ieee754_rem_pio2f:x <- undef
	.loc	1 184 16                # wcclibm.c:184:16
	movss	-68(%rbp), %xmm0        # 4-byte Reload
	subss	%xmm0, %xmm0
	movss	%xmm0, -68(%rbp)        # 4-byte Spill
	.loc	1 184 11 is_stmt 0      # wcclibm.c:184:11
	leaq	4(%r12), %rbx
	movl	$34, %edi
	movl	$1, %esi
	movl	$2, %edx
	movl	$2, %ecx
	movl	$7, %r8d
	callq	_KTimestamp2
	movl	$34, %edi
	movl	$4, %edx
	movq	%rbx, %rsi
	callq	_KStore
	movss	-68(%rbp), %xmm0        # 4-byte Reload
	movss	%xmm0, 4(%r12)
	movl	$34, %edi
	movl	$4, %edx
	movq	%r12, %rsi
	callq	_KStore
	.loc	1 184 6                 # wcclibm.c:184:6
	movss	-68(%rbp), %xmm0        # 4-byte Reload
	movss	%xmm0, (%r12)
.Ltmp82:
.LBB0_27:                               # %if.end124
	callq	_KPopCDep
	movl	$39, %ecx
	xorl	%r12d, %r12d
	movl	$50, %r15d
	xorl	%r13d, %r13d
.LBB0_28:                               # %return
	xorl	%ebx, %ebx
	xorl	%r14d, %r14d
	jmp	.LBB0_29
.LBB0_9:                                # %if.else23
.Ltmp83:
	#DEBUG_VALUE: __ieee754_rem_pio2f:x <- [RBP+-68]
	#DEBUG_VALUE: __ieee754_rem_pio2f:x <- undef
	#DEBUG_VALUE: __ieee754_rem_pio2f:y <- R12
	#DEBUG_VALUE: __ieee754_rem_pio2f:hx <- R14D
	.loc	1 133 7 is_stmt 1       # wcclibm.c:133:7
	movss	-68(%rbp), %xmm0        # 4-byte Reload
	addss	.LCPI0_9(%rip), %xmm0
.Ltmp84:
	#DEBUG_VALUE: __ieee754_rem_pio2f:z <- undef
	movss	%xmm0, -68(%rbp)        # 4-byte Spill
.Ltmp85:
	#DEBUG_VALUE: __ieee754_rem_pio2f:z <- [RBP+-68]
	.loc	1 134 7                 # wcclibm.c:134:7
	andl	$2147483632, %r14d      # imm = 0x7FFFFFF0
.Ltmp86:
	callq	_KPopCDep
	movl	$53, %edi
	movl	$2, %esi
	movl	$6, %edx
	callq	_KTimestamp1
	movl	$53, %edi
	callq	_KPushCDep
	.loc	1 134 6 is_stmt 0       # wcclibm.c:134:6
	cmpl	$1070141392, %r14d      # imm = 0x3FC90FD0
	jne	.LBB0_10
.Ltmp87:
# BB#11:                                # %if.else33
	#DEBUG_VALUE: __ieee754_rem_pio2f:y <- R12
	#DEBUG_VALUE: __ieee754_rem_pio2f:z <- [RBP+-68]
	movl	$14, %edi
	callq	_KWork
	movss	-68(%rbp), %xmm0        # 4-byte Reload
.Ltmp88:
	#DEBUG_VALUE: __ieee754_rem_pio2f:z <- XMM0
	.loc	1 138 7 is_stmt 1       # wcclibm.c:138:7
	addss	.LCPI0_4(%rip), %xmm0
.Ltmp89:
	.loc	1 139 14                # wcclibm.c:139:14
	movss	%xmm0, -68(%rbp)        # 4-byte Spill
.Ltmp90:
	#DEBUG_VALUE: __ieee754_rem_pio2f:z <- [RBP+-68]
	addss	.LCPI0_5(%rip), %xmm0
	movss	%xmm0, -72(%rbp)        # 4-byte Spill
	movl	$12, %edi
	movl	$1, %esi
	movl	$6, %edx
	movl	$2, %ecx
	movl	$10, %r8d
	callq	_KTimestamp2
	movl	$12, %edi
	movl	$4, %edx
	movq	%r12, %rsi
	callq	_KStore
	.loc	1 139 7 is_stmt 0       # wcclibm.c:139:7
	movss	-72(%rbp), %xmm0        # 4-byte Reload
	movss	%xmm0, (%r12)
	movl	$13, %esi
	movl	$4, %edx
	movq	%r12, %rdi
	callq	_KLoad0
	movss	-68(%rbp), %xmm0        # 4-byte Reload
.Ltmp91:
	#DEBUG_VALUE: __ieee754_rem_pio2f:z <- XMM0
	.loc	1 140 15 is_stmt 1      # wcclibm.c:140:15
	subss	(%r12), %xmm0
.Ltmp92:
	.loc	1 140 14 is_stmt 0      # wcclibm.c:140:14
	addss	.LCPI0_5(%rip), %xmm0
	movss	%xmm0, -68(%rbp)        # 4-byte Spill
	.loc	1 140 7                 # wcclibm.c:140:7
	leaq	4(%r12), %rbx
	movl	$4, (%rsp)
	movl	$14, %edi
	movl	$1, %esi
	movl	$8, %edx
	movl	$2, %ecx
	movl	$12, %r8d
	movl	$13, %r9d
	callq	_KTimestamp3
	movl	$14, %edi
	jmp	.LBB0_12
.Ltmp93:
.LBB0_5:                                # %if.then8
	#DEBUG_VALUE: __ieee754_rem_pio2f:y <- R12
	#DEBUG_VALUE: __ieee754_rem_pio2f:z <- [RBP+-68]
	movl	$12, %edi
	callq	_KWork
.Ltmp94:
	#DEBUG_VALUE: __ieee754_rem_pio2f:z <- undef
	.loc	1 124 14 is_stmt 1      # wcclibm.c:124:14
	movss	-68(%rbp), %xmm0        # 4-byte Reload
.Ltmp95:
	#DEBUG_VALUE: __ieee754_rem_pio2f:z <- [RBP+-68]
	addss	.LCPI0_10(%rip), %xmm0
	movss	%xmm0, -72(%rbp)        # 4-byte Spill
	movl	$3, %edi
	movl	$1, %esi
	movl	$4, %edx
	movl	$2, %ecx
	movl	$8, %r8d
	callq	_KTimestamp2
	movl	$3, %edi
	movl	$4, %edx
	movq	%r12, %rsi
	callq	_KStore
	.loc	1 124 7 is_stmt 0       # wcclibm.c:124:7
	movss	-72(%rbp), %xmm0        # 4-byte Reload
	movss	%xmm0, (%r12)
	movl	$4, %esi
	movl	$4, %edx
	movq	%r12, %rdi
	callq	_KLoad0
	movss	-68(%rbp), %xmm0        # 4-byte Reload
.Ltmp96:
	#DEBUG_VALUE: __ieee754_rem_pio2f:z <- XMM0
	.loc	1 125 15 is_stmt 1      # wcclibm.c:125:15
	subss	(%r12), %xmm0
.Ltmp97:
	.loc	1 125 14 is_stmt 0      # wcclibm.c:125:14
	addss	.LCPI0_10(%rip), %xmm0
	movss	%xmm0, -68(%rbp)        # 4-byte Spill
	.loc	1 125 7                 # wcclibm.c:125:7
	leaq	4(%r12), %rbx
	movl	$4, (%rsp)
	movl	$5, %edi
	movl	$1, %esi
	movl	$6, %edx
	movl	$2, %ecx
	movl	$10, %r8d
	movl	$4, %r9d
	callq	_KTimestamp3
	movl	$5, %edi
.Ltmp98:
.LBB0_7:                                # %if.end22
	movl	$4, %edx
	movq	%rbx, %rsi
	callq	_KStore
	.loc	1 129 7 is_stmt 1       # wcclibm.c:129:7
.Ltmp99:
	movss	-68(%rbp), %xmm0        # 4-byte Reload
	movss	%xmm0, 4(%r12)
	callq	_KPopCDep
	movl	$49, %r12d
	movl	$49, %edi
	callq	_KPushCDep
	callq	_KPopCDep
	movl	$1, %r14d
	jmp	.LBB0_8
.Ltmp100:
.LBB0_18:
	#DEBUG_VALUE: __ieee754_rem_pio2f:y <- R12
	#DEBUG_VALUE: __ieee754_rem_pio2f:hx <- R15D
	#DEBUG_VALUE: __ieee754_rem_pio2f:t <- [RBP+-68]
	#DEBUG_VALUE: __ieee754_rem_pio2f:n <- [RBP+-88]
	#DEBUG_VALUE: __ieee754_rem_pio2f:r <- [RBP+-68]
	#DEBUG_VALUE: __ieee754_rem_pio2f:w <- [RBP+-72]
	movl	%r15d, %r14d
.Ltmp101:
	#DEBUG_VALUE: __ieee754_rem_pio2f:hx <- R14D
	xorl	%r15d, %r15d
	movl	$43, %ebx
	jmp	.LBB0_22
.Ltmp102:
.LBB0_10:                               # %if.then26
	#DEBUG_VALUE: __ieee754_rem_pio2f:y <- R12
	#DEBUG_VALUE: __ieee754_rem_pio2f:z <- [RBP+-68]
	movl	$12, %edi
	callq	_KWork
.Ltmp103:
	#DEBUG_VALUE: __ieee754_rem_pio2f:z <- undef
	.loc	1 135 14                # wcclibm.c:135:14
	movss	-68(%rbp), %xmm0        # 4-byte Reload
.Ltmp104:
	#DEBUG_VALUE: __ieee754_rem_pio2f:z <- [RBP+-68]
	addss	.LCPI0_3(%rip), %xmm0
	movss	%xmm0, -72(%rbp)        # 4-byte Spill
	movl	$9, %edi
	movl	$1, %esi
	movl	$4, %edx
	movl	$2, %ecx
	movl	$8, %r8d
	callq	_KTimestamp2
	movl	$9, %edi
	movl	$4, %edx
	movq	%r12, %rsi
	callq	_KStore
	.loc	1 135 7 is_stmt 0       # wcclibm.c:135:7
	movss	-72(%rbp), %xmm0        # 4-byte Reload
	movss	%xmm0, (%r12)
	movl	$10, %esi
	movl	$4, %edx
	movq	%r12, %rdi
	callq	_KLoad0
	movss	-68(%rbp), %xmm0        # 4-byte Reload
.Ltmp105:
	#DEBUG_VALUE: __ieee754_rem_pio2f:z <- XMM0
	.loc	1 136 15 is_stmt 1      # wcclibm.c:136:15
	subss	(%r12), %xmm0
.Ltmp106:
	.loc	1 136 14 is_stmt 0      # wcclibm.c:136:14
	addss	.LCPI0_3(%rip), %xmm0
	movss	%xmm0, -68(%rbp)        # 4-byte Spill
	.loc	1 136 7                 # wcclibm.c:136:7
	leaq	4(%r12), %rbx
	movl	$4, (%rsp)
	movl	$11, %edi
	movl	$1, %esi
	movl	$6, %edx
	movl	$2, %ecx
	movl	$10, %r8d
	movl	$10, %r9d
	callq	_KTimestamp3
	movl	$11, %edi
.Ltmp107:
.LBB0_12:                               # %if.end41
	movl	$4, %edx
	movq	%rbx, %rsi
	callq	_KStore
	.loc	1 140 7 is_stmt 1       # wcclibm.c:140:7
.Ltmp108:
	movss	-68(%rbp), %xmm0        # 4-byte Reload
	movss	%xmm0, 4(%r12)
	callq	_KPopCDep
	movl	$49, %r12d
	movl	$49, %edi
	callq	_KPushCDep
	callq	_KPopCDep
	movl	$-1, %r14d
.Ltmp109:
.LBB0_8:                                # %return
	xorl	%r13d, %r13d
	movl	$50, %r15d
	xorl	%ecx, %ecx
	xorl	%ebx, %ebx
	jmp	.LBB0_29
.LBB0_16:                               # %if.then57
.Ltmp110:
	#DEBUG_VALUE: __ieee754_rem_pio2f:y <- R12
	#DEBUG_VALUE: __ieee754_rem_pio2f:hx <- R14D
	#DEBUG_VALUE: __ieee754_rem_pio2f:t <- [RBP+-68]
	#DEBUG_VALUE: __ieee754_rem_pio2f:n <- R13D
	#DEBUG_VALUE: __ieee754_rem_pio2f:r <- [RBP+-68]
	#DEBUG_VALUE: __ieee754_rem_pio2f:w <- [RBP+-72]
	movq	%r13, -88(%rbp)         # 8-byte Spill
.Ltmp111:
	#DEBUG_VALUE: __ieee754_rem_pio2f:n <- [RBP+-88]
	movl	$54, %edi
	callq	_KPushCDep
	movl	$3, %edi
	callq	_KWork
.Ltmp112:
	#DEBUG_VALUE: __ieee754_rem_pio2f:r <- undef
	#DEBUG_VALUE: __ieee754_rem_pio2f:t <- undef
	.loc	1 152 10                # wcclibm.c:152:10
	movss	-68(%rbp), %xmm0        # 4-byte Reload
.Ltmp113:
	#DEBUG_VALUE: __ieee754_rem_pio2f:w <- undef
	#DEBUG_VALUE: __ieee754_rem_pio2f:r <- [RBP+-68]
	#DEBUG_VALUE: __ieee754_rem_pio2f:t <- [RBP+-68]
	subss	-72(%rbp), %xmm0        # 4-byte Folded Reload
	movss	%xmm0, -96(%rbp)        # 4-byte Spill
.Ltmp114:
	#DEBUG_VALUE: __ieee754_rem_pio2f:w <- [RBP+-72]
	movl	$3, (%rsp)
	movl	$18, %edi
	movl	$2, %esi
	movl	$20, %edx
	movl	$15, %ecx
	movl	$16, %r8d
	movl	$16, %r9d
	callq	_KTimestamp3
	movl	$18, %edi
	movl	$4, %edx
	movq	%r12, %rsi
	callq	_KStore
	.loc	1 152 3 is_stmt 0       # wcclibm.c:152:3
	movss	-96(%rbp), %xmm0        # 4-byte Reload
	movss	%xmm0, (%r12)
	callq	_KPopCDep
	xorl	%r15d, %r15d
	xorl	%r13d, %r13d
	movl	$43, %ebx
	jmp	.LBB0_22
.Ltmp115:
.LBB0_20:
	#DEBUG_VALUE: __ieee754_rem_pio2f:y <- R12
	#DEBUG_VALUE: __ieee754_rem_pio2f:hx <- R14D
	#DEBUG_VALUE: __ieee754_rem_pio2f:t <- [RBP+-100]
	#DEBUG_VALUE: __ieee754_rem_pio2f:n <- [RBP+-88]
	#DEBUG_VALUE: __ieee754_rem_pio2f:r <- [RBP+-100]
	#DEBUG_VALUE: __ieee754_rem_pio2f:w <- [RBP+-72]
	movss	-100(%rbp), %xmm0       # 4-byte Reload
	movss	%xmm0, -68(%rbp)        # 4-byte Spill
.Ltmp116:
	#DEBUG_VALUE: __ieee754_rem_pio2f:r <- [RBP+-68]
	#DEBUG_VALUE: __ieee754_rem_pio2f:t <- [RBP+-68]
	movl	$42, %r15d
	movl	$45, %ebx
.Ltmp117:
.LBB0_22:                               # %if.end101
	#DEBUG_VALUE: __ieee754_rem_pio2f:y <- R12
	#DEBUG_VALUE: __ieee754_rem_pio2f:hx <- R14D
	#DEBUG_VALUE: __ieee754_rem_pio2f:n <- [RBP+-88]
	movl	$39, %edi
	callq	_KPushCDep
	movl	$29, %edi
	movl	$39, %edx
	movl	$40, %ecx
	movl	%ebx, %esi
	movl	%r13d, %r8d
	movl	%r15d, %r9d
	callq	_KPhi4To1
	movl	$28, %edi
	movl	$39, %edx
	movl	$40, %ecx
	movl	-76(%rbp), %esi         # 4-byte Reload
	movl	%r13d, %r8d
	movl	%r15d, %r9d
	callq	_KPhi4To1
	movl	$10, %edi
	callq	_KWork
	movl	$26, %esi
	movl	$4, %edx
	movq	%r12, %rdi
	callq	_KLoad0
	movss	-68(%rbp), %xmm0        # 4-byte Reload
	.loc	1 176 14 is_stmt 1      # wcclibm.c:176:14
	subss	(%r12), %xmm0
	.loc	1 176 13 is_stmt 0      # wcclibm.c:176:13
	subss	-72(%rbp), %xmm0        # 4-byte Folded Reload
	movss	%xmm0, -68(%rbp)        # 4-byte Spill
	.loc	1 176 6                 # wcclibm.c:176:6
	leaq	4(%r12), %rbx
	movl	$4, 16(%rsp)
	movl	$26, 8(%rsp)
	movl	$2, (%rsp)
	movl	$27, %edi
	movl	$28, %esi
	movl	$4, %edx
	movl	$2, %ecx
	movl	$8, %r8d
	movl	$29, %r9d
	callq	_KTimestamp4
	movl	$27, %edi
	movl	$4, %edx
	movq	%rbx, %rsi
	callq	_KStore
	movss	-68(%rbp), %xmm0        # 4-byte Reload
	movss	%xmm0, 4(%r12)
	movl	$48, %r13d
	movl	$48, %edi
	movl	$2, %esi
	movl	$5, %edx
	callq	_KTimestamp1
	callq	_KPopCDep
	movl	$48, %edi
	callq	_KPushCDep
	.loc	1 177 9 is_stmt 1       # wcclibm.c:177:9
	testl	%r14d, %r14d
	js	.LBB0_23
.Ltmp118:
# BB#24:                                # %if.else116
	#DEBUG_VALUE: __ieee754_rem_pio2f:n <- [RBP+-88]
	callq	_KPopCDep
	movl	$47, %ebx
	xorl	%r12d, %r12d
	movl	$50, %r15d
	movq	-88(%rbp), %r14         # 8-byte Reload
.Ltmp119:
	#DEBUG_VALUE: __ieee754_rem_pio2f:n <- R14D
	movl	$39, %ecx
	jmp	.LBB0_29
.Ltmp120:
.LBB0_23:                               # %if.then108
	#DEBUG_VALUE: __ieee754_rem_pio2f:y <- R12
	#DEBUG_VALUE: __ieee754_rem_pio2f:n <- [RBP+-88]
	movl	$15, %edi
	callq	_KWork
	movl	$30, %esi
	movl	$4, %edx
	movq	%r12, %rdi
	callq	_KLoad0
	.loc	1 177 25 is_stmt 0 discriminator 1 # wcclibm.c:177:25
.Ltmp121:
	movss	(%r12), %xmm0
	.loc	1 177 24                # wcclibm.c:177:24
	xorps	.LCPI0_8(%rip), %xmm0
	movss	%xmm0, -68(%rbp)        # 4-byte Spill
	movl	$31, %edi
	movl	$2, %esi
	movl	$7, %edx
	movl	$30, %ecx
	movl	$2, %r8d
	callq	_KTimestamp2
	movl	$31, %edi
	movl	$4, %edx
	movq	%r12, %rsi
	callq	_KStore
	.loc	1 177 17                # wcclibm.c:177:17
	movss	-68(%rbp), %xmm0        # 4-byte Reload
	movss	%xmm0, (%r12)
	movl	$32, %esi
	movl	$4, %edx
	movq	%rbx, %rdi
	callq	_KLoad0
	.loc	1 177 39                # wcclibm.c:177:39
	movss	4(%r12), %xmm0
	.loc	1 177 38                # wcclibm.c:177:38
	xorps	.LCPI0_8(%rip), %xmm0
	movss	%xmm0, -68(%rbp)        # 4-byte Spill
	movl	$33, %edi
	movl	$2, %esi
	movl	$7, %edx
	movl	$32, %ecx
	movl	$2, %r8d
	callq	_KTimestamp2
	movl	$33, %edi
	movl	$4, %edx
	movq	%rbx, %rsi
	callq	_KStore
	.loc	1 177 31                # wcclibm.c:177:31
	movss	-68(%rbp), %xmm0        # 4-byte Reload
	movss	%xmm0, 4(%r12)
	movq	-88(%rbp), %r14         # 8-byte Reload
.Ltmp122:
	#DEBUG_VALUE: __ieee754_rem_pio2f:n <- R14D
	.loc	1 177 52                # wcclibm.c:177:52
	negl	%r14d
.Ltmp123:
	movl	$46, %ebx
	movl	$46, %edi
	movl	$2, %esi
	movl	$12, %edx
	movl	$15, %ecx
	movl	$8, %r8d
	callq	_KTimestamp2
	callq	_KPopCDep
	xorl	%r12d, %r12d
.Ltmp124:
	movl	$50, %r15d
	movl	$39, %ecx
.Ltmp125:
.LBB0_29:                               # %return
	movl	%r15d, (%rsp)
	movl	$51, 8(%rsp)
	movl	$35, %edi
	movl	$5, %edx
	xorl	%eax, %eax
	movl	%ebx, %esi
	movl	%r13d, %r8d
	movl	%r12d, %r9d
	callq	_KPhi
	movl	$35, %edi
	movl	$35, %esi
	xorl	%edx, %edx
	callq	_KTimestamp1
	movl	$35, %edi
	callq	_KReturn
	xorl	%esi, %esi
	movabsq	$3429500432723054711, %rdi # imm = 0x2F98087929819077
	callq	_KExitRegion
	.loc	1 187 1 is_stmt 1       # wcclibm.c:187:1
	movl	%r14d, %eax
	addq	$88, %rsp
	popq	%rbx
	popq	%r12
	popq	%r13
	popq	%r14
	popq	%r15
	popq	%rbp
	retq
.Ltmp126:
.Ltmp127:
	.size	__ieee754_rem_pio2f, .Ltmp127-__ieee754_rem_pio2f
.Lfunc_end0:
	.cfi_endproc

	.globl	__fabsf
	.align	16, 0x90
	.type	__fabsf,@function
__fabsf:                                # @__fabsf
.Lfunc_begin1:
	.loc	1 549 0                 # wcclibm.c:549:0
	.cfi_startproc
# BB#0:                                 # %entry
	pushq	%rbp
.Ltmp128:
	.cfi_def_cfa_offset 16
.Ltmp129:
	.cfi_offset %rbp, -16
	movq	%rsp, %rbp
.Ltmp130:
	.cfi_def_cfa_register %rbp
	pushq	%r15
	pushq	%r14
	pushq	%rbx
	subq	$24, %rsp
.Ltmp131:
	.cfi_offset %rbx, -40
.Ltmp132:
	.cfi_offset %r14, -32
.Ltmp133:
	.cfi_offset %r15, -24
	#DEBUG_VALUE: __fabsf:x <- XMM0
	movss	%xmm0, -44(%rbp)        # 4-byte Spill
.Ltmp134:
	#DEBUG_VALUE: __fabsf:x <- [RBP+-44]
	movabsq	$857265203813712911, %r14 # imm = 0xBE59E292F9E840F
	xorl	%esi, %esi
	movq	%r14, %rdi
	callq	_KEnterRegion
	movl	$5, %edi
	xorl	%esi, %esi
	callq	_KPrepRTable
	movl	$1, %edi
	callq	_KDeqArg
	movl	$11, %edi
	callq	_KWork
	movl	$1, %edi
	movl	$1, %esi
	xorl	%edx, %edx
	callq	_KTimestamp1
	leaq	-32(%rbp), %rbx
	movl	$1, %edi
	movl	$4, %edx
	movq	%rbx, %rsi
	callq	_KStore
	.loc	1 551 2 prologue_end    # wcclibm.c:551:2
.Ltmp135:
	movss	-44(%rbp), %xmm0        # 4-byte Reload
	movss	%xmm0, -32(%rbp)
	movl	$2, %esi
	movl	$4, %edx
	movq	%rbx, %rdi
	callq	_KLoad0
	movl	$2147483647, %ebx       # imm = 0x7FFFFFFF
.Ltmp136:
	.loc	1 552 2                 # wcclibm.c:552:2
	andl	-32(%rbp), %ebx
	movl	$3, %edi
	movl	$2, %esi
	movl	$1, %edx
	callq	_KTimestamp1
	leaq	-40(%rbp), %r15
	movl	$3, %edi
	movl	$4, %edx
	movq	%r15, %rsi
	callq	_KStore
	movl	%ebx, -40(%rbp)
	movl	$4, %esi
	movl	$4, %edx
	movq	%r15, %rdi
	callq	_KLoad0
	movss	-40(%rbp), %xmm0
	#DEBUG_VALUE: __fabsf:x <- [RBP+-44]
	movss	%xmm0, -44(%rbp)        # 4-byte Spill
	movl	$4, %edi
	movl	$4, %esi
	xorl	%edx, %edx
	callq	_KTimestamp1
	movl	$4, %edi
	callq	_KReturn
	xorl	%esi, %esi
	movq	%r14, %rdi
	callq	_KExitRegion
.Ltmp137:
	.loc	1 553 9                 # wcclibm.c:553:9
	movss	-44(%rbp), %xmm0        # 4-byte Reload
	addq	$24, %rsp
	popq	%rbx
	popq	%r14
	popq	%r15
	popq	%rbp
	retq
.Ltmp138:
.Ltmp139:
	.size	__fabsf, .Ltmp139-__fabsf
.Lfunc_end1:
	.cfi_endproc

	.section	.rodata.cst4,"aM",@progbits,4
	.align	4
.LCPI2_0:
	.long	2907166542              # float -1.13596476E-11
.LCPI2_1:
	.long	823096566               # float 2.08757234E-9
.LCPI2_2:
	.long	3029594748              # float -2.75573143E-7
.LCPI2_3:
	.long	936381697               # float 2.48015876E-5
.LCPI2_4:
	.long	3132492641              # float -0.00138888892
.LCPI2_5:
	.long	1026206379              # float 0.0416666679
.LCPI2_6:
	.long	1049624576              # float 0.28125
.LCPI2_7:
	.long	1056964608              # float 0.5
.LCPI2_8:
	.long	1065353216              # float 1
	.text
	.globl	__kernel_cosf
	.align	16, 0x90
	.type	__kernel_cosf,@function
__kernel_cosf:                          # @__kernel_cosf
.Lfunc_begin2:
	.loc	1 228 0                 # wcclibm.c:228:0
	.cfi_startproc
# BB#0:                                 # %entry
	pushq	%rbp
.Ltmp140:
	.cfi_def_cfa_offset 16
.Ltmp141:
	.cfi_offset %rbp, -16
	movq	%rsp, %rbp
.Ltmp142:
	.cfi_def_cfa_register %rbp
	pushq	%r15
	pushq	%r14
	pushq	%r13
	pushq	%r12
	pushq	%rbx
	subq	$72, %rsp
.Ltmp143:
	.cfi_offset %rbx, -56
.Ltmp144:
	.cfi_offset %r12, -48
.Ltmp145:
	.cfi_offset %r13, -40
.Ltmp146:
	.cfi_offset %r14, -32
.Ltmp147:
	.cfi_offset %r15, -24
	#DEBUG_VALUE: __kernel_cosf:x <- XMM0
	#DEBUG_VALUE: __kernel_cosf:y <- XMM1
	movss	%xmm1, -64(%rbp)        # 4-byte Spill
.Ltmp148:
	#DEBUG_VALUE: __kernel_cosf:y <- [RBP+-64]
	movss	%xmm0, -60(%rbp)        # 4-byte Spill
.Ltmp149:
	#DEBUG_VALUE: __kernel_cosf:x <- [RBP+-60]
	#DEBUG_VALUE: __kernel_cosf:x <- undef
	movabsq	$-6823758871620933103, %r14 # imm = 0xA14D2375C81D2A11
	xorl	%esi, %esi
	movq	%r14, %rdi
	callq	_KEnterRegion
	movl	$14, %edi
	xorl	%esi, %esi
	callq	_KPrepRTable
	movl	$7, %edi
	callq	_KWork
	movl	$2, %edi
	callq	_KDeqArg
	movl	$1, %edi
	callq	_KDeqArg
	movl	$1, %edi
	movl	$1, %esi
	xorl	%edx, %edx
	callq	_KTimestamp1
	leaq	-48(%rbp), %rbx
	movl	$1, %edi
	movl	$4, %edx
	movq	%rbx, %rsi
	callq	_KStore
	.loc	1 231 2 prologue_end    # wcclibm.c:231:2
.Ltmp150:
	movss	-60(%rbp), %xmm0        # 4-byte Reload
	movss	%xmm0, -48(%rbp)
.Ltmp151:
	#DEBUG_VALUE: __kernel_cosf:x <- [RBP+-60]
	movl	$3, %esi
	movl	$4, %edx
	movq	%rbx, %rdi
	callq	_KLoad0
	movl	$2147483647, %ebx       # imm = 0x7FFFFFFF
.Ltmp152:
	.loc	1 232 2                 # wcclibm.c:232:2
	andl	-48(%rbp), %ebx
.Ltmp153:
	#DEBUG_VALUE: __kernel_cosf:ix <- EBX
	movl	$12, %edi
	movl	$3, %esi
	movl	$2, %edx
	callq	_KTimestamp1
	.loc	1 233 5                 # wcclibm.c:233:5
	cmpl	$838860799, %ebx        # imm = 0x31FFFFFF
	ja	.LBB2_3
.Ltmp154:
# BB#1:                                 # %if.then
	#DEBUG_VALUE: __kernel_cosf:x <- [RBP+-60]
	#DEBUG_VALUE: __kernel_cosf:y <- [RBP+-64]
	#DEBUG_VALUE: __kernel_cosf:ix <- EBX
	movl	$12, %edi
	callq	_KPushCDep
	movl	$1, %edi
	callq	_KWork
	.loc	1 234 10                # wcclibm.c:234:10
.Ltmp155:
	cvttss2si	-60(%rbp), %r15d # 4-byte Folded Reload
	movl	$13, %r13d
	movl	$13, %edi
	movl	$1, %esi
	movl	$1, %edx
	movl	$3, %ecx
	movl	$3, %r8d
	callq	_KTimestamp2
	callq	_KPopCDep
.Ltmp156:
	.loc	1 234 9 is_stmt 0       # wcclibm.c:234:9
	testl	%r15d, %r15d
	je	.LBB2_2
.Ltmp157:
.LBB2_3:                                # %if.end4
	#DEBUG_VALUE: __kernel_cosf:x <- [RBP+-60]
	#DEBUG_VALUE: __kernel_cosf:y <- [RBP+-64]
	#DEBUG_VALUE: __kernel_cosf:ix <- EBX
	movl	$12, %edi
	callq	_KPushCDep
	movl	$46, %edi
	callq	_KWork
	.loc	1 236 7 is_stmt 1       # wcclibm.c:236:7
	movss	-60(%rbp), %xmm1        # 4-byte Reload
	mulss	%xmm1, %xmm1
.Ltmp158:
	#DEBUG_VALUE: __kernel_cosf:z <- XMM1
	movss	%xmm1, -72(%rbp)        # 4-byte Spill
	movss	.LCPI2_0(%rip), %xmm0
	.loc	1 237 37                # wcclibm.c:237:37
	mulss	%xmm1, %xmm0
	addss	.LCPI2_1(%rip), %xmm0
	.loc	1 237 31 is_stmt 0      # wcclibm.c:237:31
	mulss	%xmm1, %xmm0
	.loc	1 237 28                # wcclibm.c:237:28
	addss	.LCPI2_2(%rip), %xmm0
	.loc	1 237 25                # wcclibm.c:237:25
	mulss	%xmm1, %xmm0
	.loc	1 237 22                # wcclibm.c:237:22
	addss	.LCPI2_3(%rip), %xmm0
	.loc	1 237 19                # wcclibm.c:237:19
	mulss	%xmm1, %xmm0
	.loc	1 237 16                # wcclibm.c:237:16
	addss	.LCPI2_4(%rip), %xmm0
	.loc	1 237 13                # wcclibm.c:237:13
	mulss	%xmm1, %xmm0
	.loc	1 237 10                # wcclibm.c:237:10
	addss	.LCPI2_5(%rip), %xmm0
	.loc	1 237 7                 # wcclibm.c:237:7
	mulss	%xmm1, %xmm0
.Ltmp159:
	#DEBUG_VALUE: __kernel_cosf:r <- XMM0
	#DEBUG_VALUE: __kernel_cosf:z <- [RBP+-72]
	movss	%xmm0, -68(%rbp)        # 4-byte Spill
.Ltmp160:
	#DEBUG_VALUE: __kernel_cosf:r <- [RBP+-68]
	movl	$8, %r15d
	movl	$8, %edi
	movl	$3, %esi
	movl	$3, %edx
	callq	_KTimestamp1
	callq	_KPopCDep
	movl	$8, %edi
	callq	_KPushCDep
	.loc	1 238 5 is_stmt 1       # wcclibm.c:238:5
	cmpl	$1050253721, %ebx       # imm = 0x3E999999
	ja	.LBB2_5
.Ltmp161:
# BB#4:                                 # %if.then17
	#DEBUG_VALUE: __kernel_cosf:x <- [RBP+-60]
	#DEBUG_VALUE: __kernel_cosf:y <- [RBP+-64]
	#DEBUG_VALUE: __kernel_cosf:z <- [RBP+-72]
	#DEBUG_VALUE: __kernel_cosf:r <- [RBP+-68]
	movl	$21, %edi
	callq	_KWork
	movss	.LCPI2_7(%rip), %xmm0
	movss	-72(%rbp), %xmm1        # 4-byte Reload
.Ltmp162:
	#DEBUG_VALUE: __kernel_cosf:z <- XMM1
	.loc	1 239 20                # wcclibm.c:239:20
	mulss	%xmm1, %xmm0
	movss	-68(%rbp), %xmm2        # 4-byte Reload
.Ltmp163:
	#DEBUG_VALUE: __kernel_cosf:r <- XMM2
	.loc	1 239 37 is_stmt 0      # wcclibm.c:239:37
	mulss	%xmm1, %xmm2
.Ltmp164:
	movss	-60(%rbp), %xmm1        # 4-byte Reload
.Ltmp165:
	#DEBUG_VALUE: __kernel_cosf:x <- XMM1
	.loc	1 239 43                # wcclibm.c:239:43
	mulss	-64(%rbp), %xmm1        # 4-byte Folded Reload
.Ltmp166:
	.loc	1 239 37                # wcclibm.c:239:37
	subss	%xmm1, %xmm2
	.loc	1 239 20                # wcclibm.c:239:20
	subss	%xmm2, %xmm0
	movss	.LCPI2_8(%rip), %xmm1
	.loc	1 239 13                # wcclibm.c:239:13
	subss	%xmm0, %xmm1
	movss	%xmm1, -60(%rbp)        # 4-byte Spill
	movl	$58, (%rsp)
	movl	$10, %r12d
	movl	$10, %edi
	movl	$2, %esi
	movl	$11, %edx
	movl	$1, %ecx
	movl	$56, %r8d
	movl	$3, %r9d
	callq	_KTimestamp3
	jmp	.LBB2_9
.LBB2_5:                                # %if.else
.Ltmp167:
	#DEBUG_VALUE: __kernel_cosf:x <- [RBP+-60]
	#DEBUG_VALUE: __kernel_cosf:y <- [RBP+-64]
	#DEBUG_VALUE: __kernel_cosf:ix <- EBX
	#DEBUG_VALUE: __kernel_cosf:z <- [RBP+-72]
	#DEBUG_VALUE: __kernel_cosf:r <- [RBP+-68]
	movl	$1, %edi
	callq	_KWork
	movl	$9, %edi
	movl	$3, %esi
	movl	$4, %edx
	callq	_KTimestamp1
	callq	_KPopCDep
	movl	$9, %edi
	callq	_KPushCDep
	.loc	1 241 9 is_stmt 1       # wcclibm.c:241:9
.Ltmp168:
	cmpl	$1061683201, %ebx       # imm = 0x3F480001
	jb	.LBB2_7
.Ltmp169:
# BB#6:                                 # %if.then25
	#DEBUG_VALUE: __kernel_cosf:x <- [RBP+-60]
	#DEBUG_VALUE: __kernel_cosf:y <- [RBP+-64]
	#DEBUG_VALUE: __kernel_cosf:z <- [RBP+-72]
	#DEBUG_VALUE: __kernel_cosf:r <- [RBP+-68]
	#DEBUG_VALUE: __kernel_cosf:qx <- 2.812500e-01
	callq	_KPopCDep
	movss	.LCPI2_6(%rip), %xmm0
	movss	%xmm0, -76(%rbp)        # 4-byte Spill
	xorl	%r12d, %r12d
	jmp	.LBB2_8
.LBB2_2:                                # %if.then3
	movl	$13, %edi
	callq	_KPushCDep
	callq	_KPopCDep
	movss	.LCPI2_8(%rip), %xmm0
	movss	%xmm0, -60(%rbp)        # 4-byte Spill
	xorl	%r15d, %r15d
	xorl	%r12d, %r12d
	jmp	.LBB2_10
.LBB2_7:                                # %if.else26
	#DEBUG_VALUE: __kernel_cosf:x <- [RBP+-60]
	#DEBUG_VALUE: __kernel_cosf:y <- [RBP+-64]
.Ltmp170:
	#DEBUG_VALUE: __kernel_cosf:ix <- EBX
	#DEBUG_VALUE: __kernel_cosf:z <- [RBP+-72]
	#DEBUG_VALUE: __kernel_cosf:r <- [RBP+-68]
	movl	$6, %edi
	callq	_KWork
	.loc	1 244 10                # wcclibm.c:244:10
.Ltmp171:
	addl	$-16777216, %ebx        # imm = 0xFFFFFFFFFF000000
.Ltmp172:
	movl	$5, %r12d
	movl	$4, %edi
	movl	$3, %esi
	movl	$5, %edx
	callq	_KTimestamp1
	leaq	-56(%rbp), %r15
	movl	$4, %edi
	movl	$4, %edx
	movq	%r15, %rsi
	callq	_KStore
	movl	%ebx, -56(%rbp)
	movl	$5, %esi
	movl	$4, %edx
	movq	%r15, %rdi
	callq	_KLoad0
	movss	-56(%rbp), %xmm0
.Ltmp173:
	#DEBUG_VALUE: __kernel_cosf:qx <- [RBP+-76]
	movss	%xmm0, -76(%rbp)        # 4-byte Spill
	movl	$5, %edi
	movl	$5, %esi
	xorl	%edx, %edx
	callq	_KTimestamp1
	callq	_KPopCDep
.Ltmp174:
.LBB2_8:                                # %if.end30
	#DEBUG_VALUE: __kernel_cosf:x <- [RBP+-60]
	#DEBUG_VALUE: __kernel_cosf:y <- [RBP+-64]
	#DEBUG_VALUE: __kernel_cosf:z <- [RBP+-72]
	#DEBUG_VALUE: __kernel_cosf:r <- [RBP+-68]
	movl	$8, %r15d
	movl	$8, %edi
	callq	_KPushCDep
	movl	$7, %edi
	movl	$8, %edx
	movl	$9, %ecx
	movl	%r12d, %esi
	callq	_KPhi2To1
	movl	$25, %edi
	callq	_KWork
	movss	.LCPI2_7(%rip), %xmm0
	movss	-72(%rbp), %xmm1        # 4-byte Reload
.Ltmp175:
	#DEBUG_VALUE: __kernel_cosf:z <- XMM1
	.loc	1 246 11                # wcclibm.c:246:11
	mulss	%xmm1, %xmm0
	movss	-76(%rbp), %xmm2        # 4-byte Reload
	subss	%xmm2, %xmm0
.Ltmp176:
	#DEBUG_VALUE: __kernel_cosf:hz <- XMM0
	movss	.LCPI2_8(%rip), %xmm3
	.loc	1 247 11                # wcclibm.c:247:11
	subss	%xmm2, %xmm3
.Ltmp177:
	#DEBUG_VALUE: __kernel_cosf:a <- XMM3
	movss	-68(%rbp), %xmm2        # 4-byte Reload
.Ltmp178:
	#DEBUG_VALUE: __kernel_cosf:r <- XMM2
	.loc	1 248 24                # wcclibm.c:248:24
	mulss	%xmm1, %xmm2
.Ltmp179:
	movss	-60(%rbp), %xmm1        # 4-byte Reload
.Ltmp180:
	#DEBUG_VALUE: __kernel_cosf:x <- XMM1
	.loc	1 248 28 is_stmt 0      # wcclibm.c:248:28
	mulss	-64(%rbp), %xmm1        # 4-byte Folded Reload
.Ltmp181:
	.loc	1 248 24                # wcclibm.c:248:24
	subss	%xmm1, %xmm2
	.loc	1 248 18                # wcclibm.c:248:18
	subss	%xmm2, %xmm0
.Ltmp182:
	.loc	1 248 13                # wcclibm.c:248:13
	subss	%xmm0, %xmm3
.Ltmp183:
	movss	%xmm3, -60(%rbp)        # 4-byte Spill
	movl	$6, 16(%rsp)
	movl	$7, 8(%rsp)
	movl	$58, (%rsp)
	movl	$11, %r12d
	movl	$11, %edi
	movl	$2, %esi
	movl	$11, %edx
	movl	$1, %ecx
	movl	$56, %r8d
	movl	$3, %r9d
	callq	_KTimestamp4
.Ltmp184:
.LBB2_9:                                # %return
	callq	_KPopCDep
	xorl	%r13d, %r13d
.LBB2_10:                               # %return
	movl	$6, %edi
	movl	$12, %edx
	movl	%r12d, %esi
	movl	%r13d, %ecx
	movl	%r15d, %r8d
	callq	_KPhi3To1
	movl	$6, %edi
	movl	$6, %esi
	xorl	%edx, %edx
	callq	_KTimestamp1
	movl	$6, %edi
	callq	_KReturn
	xorl	%esi, %esi
	movq	%r14, %rdi
	callq	_KExitRegion
	.loc	1 250 1 is_stmt 1       # wcclibm.c:250:1
	movss	-60(%rbp), %xmm0        # 4-byte Reload
	addq	$72, %rsp
	popq	%rbx
	popq	%r12
	popq	%r13
	popq	%r14
	popq	%r15
	popq	%rbp
	retq
.Ltmp185:
.Ltmp186:
	.size	__kernel_cosf, .Ltmp186-__kernel_cosf
.Lfunc_end2:
	.cfi_endproc

	.section	.rodata.cst4,"aM",@progbits,4
	.align	4
.LCPI3_0:
	.long	791595475               # float 1.58969102E-10
.LCPI3_1:
	.long	3000446772              # float -2.50507597E-8
.LCPI3_2:
	.long	909700891               # float 2.75573143E-6
.LCPI3_3:
	.long	3109031169              # float -1.98412701E-4
.LCPI3_4:
	.long	1007192201              # float 0.00833333377
.LCPI3_5:
	.long	1056964608              # float 0.5
.LCPI3_6:
	.long	1042983595              # float 0.166666672
.LCPI3_7:
	.long	3190467243              # float -0.166666672
	.text
	.globl	__kernel_sinf
	.align	16, 0x90
	.type	__kernel_sinf,@function
__kernel_sinf:                          # @__kernel_sinf
.Lfunc_begin3:
	.loc	1 291 0                 # wcclibm.c:291:0
	.cfi_startproc
# BB#0:                                 # %entry
	pushq	%rbp
.Ltmp187:
	.cfi_def_cfa_offset 16
.Ltmp188:
	.cfi_offset %rbp, -16
	movq	%rsp, %rbp
.Ltmp189:
	.cfi_def_cfa_register %rbp
	pushq	%r15
	pushq	%r14
	pushq	%r13
	pushq	%r12
	pushq	%rbx
	subq	$56, %rsp
.Ltmp190:
	.cfi_offset %rbx, -56
.Ltmp191:
	.cfi_offset %r12, -48
.Ltmp192:
	.cfi_offset %r13, -40
.Ltmp193:
	.cfi_offset %r14, -32
.Ltmp194:
	.cfi_offset %r15, -24
	#DEBUG_VALUE: __kernel_sinf:x <- XMM0
	#DEBUG_VALUE: __kernel_sinf:y <- XMM1
	#DEBUG_VALUE: __kernel_sinf:iy <- EDI
	movl	%edi, %r15d
.Ltmp195:
	#DEBUG_VALUE: __kernel_sinf:iy <- R15D
	movss	%xmm1, -68(%rbp)        # 4-byte Spill
.Ltmp196:
	#DEBUG_VALUE: __kernel_sinf:y <- [RBP+-68]
	movss	%xmm0, -52(%rbp)        # 4-byte Spill
.Ltmp197:
	#DEBUG_VALUE: __kernel_sinf:x <- [RBP+-52]
	#DEBUG_VALUE: __kernel_sinf:x <- undef
	movabsq	$2989251523966555869, %r14 # imm = 0x297BF46C5E5256DD
	xorl	%esi, %esi
	movq	%r14, %rdi
	callq	_KEnterRegion
	movl	$11, %edi
	xorl	%esi, %esi
	callq	_KPrepRTable
	movl	$7, %edi
	callq	_KWork
	movl	$3, %edi
	callq	_KDeqArg
	movl	$2, %edi
	callq	_KDeqArg
	movl	$1, %edi
	callq	_KDeqArg
	movl	$1, %edi
	movl	$1, %esi
	xorl	%edx, %edx
	callq	_KTimestamp1
	leaq	-48(%rbp), %rbx
	movl	$1, %edi
	movl	$4, %edx
	movq	%rbx, %rsi
	callq	_KStore
	.loc	1 294 2 prologue_end    # wcclibm.c:294:2
.Ltmp198:
	movss	-52(%rbp), %xmm0        # 4-byte Reload
	movss	%xmm0, -48(%rbp)
.Ltmp199:
	#DEBUG_VALUE: __kernel_sinf:x <- [RBP+-52]
	movl	$4, %esi
	movl	$4, %edx
	movq	%rbx, %rdi
	callq	_KLoad0
	movl	$2113929216, %ebx       # imm = 0x7E000000
.Ltmp200:
	.loc	1 295 2                 # wcclibm.c:295:2
	andl	-48(%rbp), %ebx
.Ltmp201:
	#DEBUG_VALUE: __kernel_sinf:ix <- EBX
	movl	$8, %edi
	movl	$4, %esi
	movl	$2, %edx
	callq	_KTimestamp1
	.loc	1 296 5                 # wcclibm.c:296:5
	cmpl	$838860799, %ebx        # imm = 0x31FFFFFF
	ja	.LBB3_3
.Ltmp202:
# BB#1:                                 # %if.then
	#DEBUG_VALUE: __kernel_sinf:x <- [RBP+-52]
	#DEBUG_VALUE: __kernel_sinf:y <- [RBP+-68]
	#DEBUG_VALUE: __kernel_sinf:iy <- R15D
	movl	$8, %edi
	callq	_KPushCDep
	movl	$1, %r13d
	movl	$1, %edi
	callq	_KWork
	.loc	1 297 9                 # wcclibm.c:297:9
.Ltmp203:
	cvttss2si	-52(%rbp), %r12d # 4-byte Folded Reload
	movl	$9, %ebx
	movl	$9, %edi
	movl	$4, %esi
	movl	$3, %edx
	movl	$1, %ecx
	movl	$1, %r8d
	callq	_KTimestamp2
	callq	_KPopCDep
.Ltmp204:
	.loc	1 297 9 is_stmt 0       # wcclibm.c:297:9
	testl	%r12d, %r12d
	je	.LBB3_2
.Ltmp205:
.LBB3_3:                                # %if.end4
	#DEBUG_VALUE: __kernel_sinf:x <- [RBP+-52]
	#DEBUG_VALUE: __kernel_sinf:y <- [RBP+-68]
	#DEBUG_VALUE: __kernel_sinf:iy <- R15D
	movl	$8, %edi
	callq	_KPushCDep
	movl	$39, %edi
	callq	_KWork
	movss	-52(%rbp), %xmm0        # 4-byte Reload
.Ltmp206:
	#DEBUG_VALUE: __kernel_sinf:x <- XMM0
	.loc	1 298 7 is_stmt 1       # wcclibm.c:298:7
	movaps	%xmm0, %xmm2
	mulss	%xmm2, %xmm2
.Ltmp207:
	#DEBUG_VALUE: __kernel_sinf:z <- XMM2
	.loc	1 299 7                 # wcclibm.c:299:7
	movss	%xmm2, -60(%rbp)        # 4-byte Spill
	movaps	%xmm2, %xmm1
	mulss	%xmm0, %xmm1
.Ltmp208:
	#DEBUG_VALUE: __kernel_sinf:v <- XMM0
	movss	%xmm1, -56(%rbp)        # 4-byte Spill
.Ltmp209:
	#DEBUG_VALUE: __kernel_sinf:v <- [RBP+-52]
	#DEBUG_VALUE: __kernel_sinf:x <- [RBP+-52]
	movss	.LCPI3_0(%rip), %xmm0
	.loc	1 300 28                # wcclibm.c:300:28
	mulss	%xmm2, %xmm0
	.loc	1 300 25 is_stmt 0      # wcclibm.c:300:25
	addss	.LCPI3_1(%rip), %xmm0
	.loc	1 300 22                # wcclibm.c:300:22
	mulss	%xmm2, %xmm0
	.loc	1 300 19                # wcclibm.c:300:19
	addss	.LCPI3_2(%rip), %xmm0
	.loc	1 300 16                # wcclibm.c:300:16
	mulss	%xmm2, %xmm0
	.loc	1 300 13                # wcclibm.c:300:13
	addss	.LCPI3_3(%rip), %xmm0
	.loc	1 300 10                # wcclibm.c:300:10
	mulss	%xmm2, %xmm0
.Ltmp210:
	#DEBUG_VALUE: __kernel_sinf:z <- [RBP+-60]
	.loc	1 300 7                 # wcclibm.c:300:7
	addss	.LCPI3_4(%rip), %xmm0
.Ltmp211:
	#DEBUG_VALUE: __kernel_sinf:r <- XMM0
	movss	%xmm0, -64(%rbp)        # 4-byte Spill
.Ltmp212:
	#DEBUG_VALUE: __kernel_sinf:r <- [RBP+-64]
	movl	$10, %r12d
	movl	$10, %edi
	movl	$4, %esi
	movl	$3, %edx
	movl	$3, %ecx
	movl	$1, %r8d
	callq	_KTimestamp2
	callq	_KPopCDep
	movl	$10, %edi
	callq	_KPushCDep
	.loc	1 301 5 is_stmt 1       # wcclibm.c:301:5
	testl	%r15d, %r15d
	je	.LBB3_4
.Ltmp213:
# BB#5:                                 # %if.else
	#DEBUG_VALUE: __kernel_sinf:x <- [RBP+-52]
	#DEBUG_VALUE: __kernel_sinf:y <- [RBP+-68]
	#DEBUG_VALUE: __kernel_sinf:z <- [RBP+-60]
	#DEBUG_VALUE: __kernel_sinf:v <- [RBP+-52]
	#DEBUG_VALUE: __kernel_sinf:r <- [RBP+-64]
	movl	$28, %edi
	callq	_KWork
	movss	.LCPI3_5(%rip), %xmm0
	movss	-68(%rbp), %xmm1        # 4-byte Reload
.Ltmp214:
	#DEBUG_VALUE: __kernel_sinf:y <- XMM1
	.loc	1 302 26                # wcclibm.c:302:26
	mulss	%xmm1, %xmm0
	movss	-56(%rbp), %xmm2        # 4-byte Reload
	movss	-64(%rbp), %xmm3        # 4-byte Reload
.Ltmp215:
	#DEBUG_VALUE: __kernel_sinf:r <- XMM3
	.loc	1 302 33 is_stmt 0      # wcclibm.c:302:33
	mulss	%xmm2, %xmm3
.Ltmp216:
	.loc	1 302 26                # wcclibm.c:302:26
	subss	%xmm3, %xmm0
	movss	-60(%rbp), %xmm3        # 4-byte Reload
.Ltmp217:
	#DEBUG_VALUE: __kernel_sinf:z <- XMM3
	.loc	1 302 23                # wcclibm.c:302:23
	mulss	%xmm0, %xmm3
.Ltmp218:
	subss	%xmm1, %xmm3
	.loc	1 302 41                # wcclibm.c:302:41
	mulss	.LCPI3_6(%rip), %xmm2
	addss	%xmm3, %xmm2
	.loc	1 302 19                # wcclibm.c:302:19
	movss	-52(%rbp), %xmm0        # 4-byte Reload
	subss	%xmm2, %xmm0
	movss	%xmm0, -52(%rbp)        # 4-byte Spill
	movl	$51, 16(%rsp)
	movl	$1, 8(%rsp)
	movl	$18, (%rsp)
	movl	$7, %r13d
	movl	$7, %edi
	movl	$4, %esi
	movl	$53, %edx
	movl	$3, %ecx
	movl	$19, %r8d
	movl	$2, %r9d
	callq	_KTimestamp4
	jmp	.LBB3_6
.Ltmp219:
.LBB3_4:                                # %if.then15
	#DEBUG_VALUE: __kernel_sinf:x <- [RBP+-52]
	#DEBUG_VALUE: __kernel_sinf:z <- [RBP+-60]
	#DEBUG_VALUE: __kernel_sinf:v <- [RBP+-52]
	#DEBUG_VALUE: __kernel_sinf:r <- [RBP+-64]
	movl	$14, %edi
	callq	_KWork
	movss	-60(%rbp), %xmm0        # 4-byte Reload
.Ltmp220:
	#DEBUG_VALUE: __kernel_sinf:z <- XMM0
	.loc	1 301 27 is_stmt 1      # wcclibm.c:301:27
	mulss	-64(%rbp), %xmm0        # 4-byte Folded Reload
.Ltmp221:
	.loc	1 301 24 is_stmt 0      # wcclibm.c:301:24
	addss	.LCPI3_7(%rip), %xmm0
	movss	-56(%rbp), %xmm1        # 4-byte Reload
	.loc	1 301 21                # wcclibm.c:301:21
	mulss	%xmm0, %xmm1
	.loc	1 301 19                # wcclibm.c:301:19
	movss	-52(%rbp), %xmm0        # 4-byte Reload
	addss	%xmm1, %xmm0
	movss	%xmm0, -52(%rbp)        # 4-byte Spill
	movl	$47, (%rsp)
	movl	$6, %r13d
	movl	$6, %edi
	movl	$4, %esi
	movl	$49, %edx
	movl	$3, %ecx
	movl	$15, %r8d
	movl	$1, %r9d
	callq	_KTimestamp3
.Ltmp222:
.LBB3_6:                                # %return
	callq	_KPopCDep
	xorl	%ebx, %ebx
	jmp	.LBB3_7
.LBB3_2:                                # %if.then3
	#DEBUG_VALUE: __kernel_sinf:x <- [RBP+-52]
	movl	$9, %edi
	callq	_KPushCDep
	callq	_KPopCDep
	xorl	%r12d, %r12d
.LBB3_7:                                # %return
	movl	$5, %edi
	movl	$8, %edx
	movl	%r13d, %esi
	movl	%ebx, %ecx
	movl	%r12d, %r8d
	callq	_KPhi3To1
	movl	$5, %edi
	movl	$5, %esi
	xorl	%edx, %edx
	callq	_KTimestamp1
	movl	$5, %edi
	callq	_KReturn
	xorl	%esi, %esi
	movq	%r14, %rdi
	callq	_KExitRegion
	.loc	1 303 1 is_stmt 1       # wcclibm.c:303:1
	movss	-52(%rbp), %xmm0        # 4-byte Reload
	addq	$56, %rsp
	popq	%rbx
	popq	%r12
	popq	%r13
	popq	%r14
	popq	%r15
	popq	%rbp
	retq
.Ltmp223:
.Ltmp224:
	.size	__kernel_sinf, .Ltmp224-__kernel_sinf
.Lfunc_end3:
	.cfi_endproc

	.section	.rodata.cst4,"aM",@progbits,4
	.align	4
.LCPI4_0:
	.long	3212836864              # float -1
.LCPI4_1:
	.long	3217031168              # float -1.5
.LCPI4_2:
	.long	1069547520              # float 1.5
.LCPI4_3:
	.long	1065353216              # float 1
.LCPI4_4:
	.long	1073741824              # float 2
.LCPI4_5:
	.long	1900671690              # float 1.00000002E+30
.LCPI4_6:
	.long	1015376343              # float 0.0162858199
.LCPI4_7:
	.long	1028381273              # float 0.0497687794
.LCPI4_8:
	.long	1032350517              # float 0.0666107312
.LCPI4_9:
	.long	1035611758              # float 0.0909088701
.LCPI4_10:
	.long	1041385765              # float 0.142857149
.LCPI4_11:
	.long	1051372203              # float 0.333333343
.LCPI4_12:
	.long	3172311585              # float -0.0365315713
.LCPI4_13:
	.long	3178164587              # float -0.0583357029
.LCPI4_14:
	.long	3181217685              # float -0.0769187585
.LCPI4_15:
	.long	3185806904              # float -0.111111104
.LCPI4_16:
	.long	3192704205              # float -0.200000003
.LCPI4_18:
	.long	3217625051              # float -1.57079637
.LCPI4_19:
	.long	1070141403              # float 1.57079637
	.section	.rodata.cst16,"aM",@progbits,16
	.align	16
.LCPI4_17:
	.long	2147483648              # 0x80000000
	.long	2147483648              # 0x80000000
	.long	2147483648              # 0x80000000
	.long	2147483648              # 0x80000000
	.text
	.globl	__atanf
	.align	16, 0x90
	.type	__atanf,@function
__atanf:                                # @__atanf
.Lfunc_begin4:
	.loc	1 378 0                 # wcclibm.c:378:0
	.cfi_startproc
# BB#0:                                 # %entry
	pushq	%rbp
.Ltmp225:
	.cfi_def_cfa_offset 16
.Ltmp226:
	.cfi_offset %rbp, -16
	movq	%rsp, %rbp
.Ltmp227:
	.cfi_def_cfa_register %rbp
	pushq	%r15
	pushq	%r14
	pushq	%r13
	pushq	%r12
	pushq	%rbx
	subq	$264, %rsp              # imm = 0x108
.Ltmp228:
	.cfi_offset %rbx, -56
.Ltmp229:
	.cfi_offset %r12, -48
.Ltmp230:
	.cfi_offset %r13, -40
.Ltmp231:
	.cfi_offset %r14, -32
.Ltmp232:
	.cfi_offset %r15, -24
	#DEBUG_VALUE: __atanf:x <- XMM0
	movss	%xmm0, -52(%rbp)        # 4-byte Spill
.Ltmp233:
	#DEBUG_VALUE: __atanf:x <- [RBP+-52]
	#DEBUG_VALUE: __atanf:x <- undef
	movabsq	$-7648233402848017154, %rdi # imm = 0x95DC043DFFF784FE
	xorl	%esi, %esi
	callq	_KEnterRegion
	movl	$47, %edi
	xorl	%esi, %esi
	callq	_KPrepRTable
	movl	$1, %edi
	callq	_KDeqArg
	movl	$7, %edi
	callq	_KWork
	movl	$1, %edi
	movl	$1, %esi
	xorl	%edx, %edx
	callq	_KTimestamp1
	leaq	-48(%rbp), %rbx
	movl	$1, %edi
	movl	$4, %edx
	movq	%rbx, %rsi
	callq	_KStore
	.loc	1 382 2 prologue_end    # wcclibm.c:382:2
.Ltmp234:
	movss	-52(%rbp), %xmm0        # 4-byte Reload
	movss	%xmm0, -48(%rbp)
.Ltmp235:
	#DEBUG_VALUE: __atanf:x <- [RBP+-52]
	movl	$2, %esi
	movl	$4, %edx
	movq	%rbx, %rdi
	callq	_KLoad0
	movl	-48(%rbp), %r14d
.Ltmp236:
	#DEBUG_VALUE: __atanf:hx <- R14D
	.loc	1 383 7                 # wcclibm.c:383:7
	movl	%r14d, %ebx
	andl	$2147483647, %ebx       # imm = 0x7FFFFFFF
.Ltmp237:
	#DEBUG_VALUE: __atanf:ix <- EBX
	movl	$24, %edi
	movl	$2, %esi
	movl	$2, %edx
	callq	_KTimestamp1
	movl	$24, %edi
	callq	_KPushCDep
	movl	$1, %edi
	callq	_KWork
	.loc	1 384 5                 # wcclibm.c:384:5
	cmpl	$1350565888, %ebx       # imm = 0x50800000
	jb	.LBB4_7
.Ltmp238:
# BB#1:                                 # %if.then
	#DEBUG_VALUE: __atanf:x <- [RBP+-52]
	#DEBUG_VALUE: __atanf:hx <- R14D
	#DEBUG_VALUE: __atanf:ix <- EBX
	movl	$44, %r13d
	movl	$44, %edi
	movl	$2, %esi
	movl	$3, %edx
	callq	_KTimestamp1
	callq	_KPopCDep
	movl	$44, %edi
	callq	_KPushCDep
	.loc	1 385 9                 # wcclibm.c:385:9
.Ltmp239:
	cmpl	$2139095041, %ebx       # imm = 0x7F800001
	jb	.LBB4_3
.Ltmp240:
# BB#2:                                 # %if.then2
	#DEBUG_VALUE: __atanf:x <- [RBP+-52]
	movl	$2, %edi
	callq	_KWork
.Ltmp241:
	#DEBUG_VALUE: __atanf:x <- undef
	.loc	1 386 10                # wcclibm.c:386:10
	movss	-52(%rbp), %xmm0        # 4-byte Reload
	addss	%xmm0, %xmm0
	movss	%xmm0, -52(%rbp)        # 4-byte Spill
	movl	$40, %r15d
	movl	$40, %edi
	movl	$1, %esi
	movl	$2, %edx
	movl	$2, %ecx
	movl	$5, %r8d
	callq	_KTimestamp2
	callq	_KPopCDep
	xorl	%r14d, %r14d
	xorl	%eax, %eax
	xorl	%ebx, %ebx
	xorl	%ecx, %ecx
	xorl	%r12d, %r12d
	jmp	.LBB4_25
.Ltmp242:
.LBB4_7:                                # %if.end7
	#DEBUG_VALUE: __atanf:x <- [RBP+-52]
	#DEBUG_VALUE: __atanf:hx <- R14D
	#DEBUG_VALUE: __atanf:ix <- EBX
	movl	$25, %edi
	movl	$2, %esi
	movl	$3, %edx
	callq	_KTimestamp1
	callq	_KPopCDep
	movl	$25, %edi
	callq	_KPushCDep
	movl	$1, %edi
	callq	_KWork
	.loc	1 389 8                 # wcclibm.c:389:8
	cmpl	$1054867455, %ebx       # imm = 0x3EDFFFFF
	ja	.LBB4_12
.Ltmp243:
# BB#8:                                 # %if.then9
	#DEBUG_VALUE: __atanf:x <- [RBP+-52]
	#DEBUG_VALUE: __atanf:hx <- R14D
	#DEBUG_VALUE: __atanf:ix <- EBX
	movl	%r14d, -68(%rbp)        # 4-byte Spill
.Ltmp244:
	#DEBUG_VALUE: __atanf:hx <- [RBP+-68]
	movl	$26, %r14d
	movl	$26, %edi
	movl	$2, %esi
	movl	$4, %edx
	callq	_KTimestamp1
	callq	_KPopCDep
	.loc	1 390 10                # wcclibm.c:390:10
.Ltmp245:
	cmpl	$822083583, %ebx        # imm = 0x30FFFFFF
	ja	.LBB4_11
.Ltmp246:
# BB#9:                                 # %if.then11
	#DEBUG_VALUE: __atanf:x <- [RBP+-52]
	#DEBUG_VALUE: __atanf:hx <- [RBP+-68]
	movl	$26, %ebx
	movl	$26, %edi
	callq	_KPushCDep
	movl	$4, %edi
	callq	_KWork
	movss	.LCPI4_5(%rip), %xmm0
	.loc	1 391 6                 # wcclibm.c:391:6
.Ltmp247:
	addss	-52(%rbp), %xmm0        # 4-byte Folded Reload
	movss	%xmm0, -56(%rbp)        # 4-byte Spill
	movl	$1, %r15d
	movl	$46, %edi
	movl	$1, %esi
	movl	$4, %edx
	movl	$2, %ecx
	movl	$8, %r8d
	callq	_KTimestamp2
	callq	_KPopCDep
.Ltmp248:
	.loc	1 391 6 is_stmt 0       # wcclibm.c:391:6
	movss	-56(%rbp), %xmm0        # 4-byte Reload
	ucomiss	.LCPI4_3(%rip), %xmm0
	jbe	.LBB4_11
.Ltmp249:
# BB#10:                                # %if.then14
	#DEBUG_VALUE: __atanf:x <- [RBP+-52]
	movl	$46, %edi
	callq	_KPushCDep
	callq	_KPopCDep
	movl	$25, %ecx
	xorl	%r14d, %r14d
	xorl	%r12d, %r12d
	xorl	%r13d, %r13d
	movl	$46, %eax
	jmp	.LBB4_25
.LBB4_3:                                # %if.end
.Ltmp250:
	#DEBUG_VALUE: __atanf:hx <- R14D
	movl	$5, %edi
	callq	_KWork
	movl	$atanhi+12, %edi
	movl	$3, %esi
	movl	$4, %edx
	callq	_KLoad0
	movl	$45, %r12d
	movl	$45, %edi
	movl	$2, %esi
	movl	$4, %edx
	callq	_KTimestamp1
	callq	_KPopCDep
	movl	$45, %edi
	callq	_KPushCDep
	.loc	1 387 9 is_stmt 1       # wcclibm.c:387:9
.Ltmp251:
	testl	%r14d, %r14d
	jle	.LBB4_6
.Ltmp252:
# BB#4:                                 # %if.then4
	movl	$6, %edi
	callq	_KWork
	movl	$atanlo+12, %edi
	movl	$4, %esi
	movl	$4, %edx
	callq	_KLoad0
	movl	$2, (%rsp)
	movl	$41, %r15d
	movl	$41, %edi
	movl	$2, %esi
	movl	$6, %edx
	movl	$3, %ecx
	movl	$2, %r8d
	movl	$4, %r9d
	callq	_KTimestamp3
	callq	_KPopCDep
	movss	.LCPI4_19(%rip), %xmm0
	jmp	.LBB4_5
.LBB4_12:                               # %if.else17
	#DEBUG_VALUE: __atanf:x <- [RBP+-52]
.Ltmp253:
	#DEBUG_VALUE: __atanf:hx <- R14D
	#DEBUG_VALUE: __atanf:ix <- EBX
	movabsq	$6190612655611049783, %rdi # imm = 0x55E9796937BBF737
	xorl	%esi, %esi
	callq	_KPrepCall
	movl	$1, %edi
	callq	_KEnqArg
	movl	$6, %edi
	callq	_KLinkReturn
	.loc	1 395 6                 # wcclibm.c:395:6
.Ltmp254:
	movss	-52(%rbp), %xmm0        # 4-byte Reload
	callq	__fabsf
	movss	%xmm0, -52(%rbp)        # 4-byte Spill
	#DEBUG_VALUE: __atanf:x <- [RBP+-52]
	movl	$27, %edi
	movl	$2, %esi
	movl	$4, %edx
	callq	_KTimestamp1
	callq	_KPopCDep
	movl	$27, %edi
	callq	_KPushCDep
	movl	$1, %edi
	callq	_KWork
	.loc	1 396 6                 # wcclibm.c:396:6
	cmpl	$1066926079, %ebx       # imm = 0x3F97FFFF
	ja	.LBB4_16
.Ltmp255:
# BB#13:                                # %if.then19
	#DEBUG_VALUE: __atanf:x <- [RBP+-52]
	#DEBUG_VALUE: __atanf:hx <- R14D
	#DEBUG_VALUE: __atanf:ix <- EBX
	movl	%r14d, -68(%rbp)        # 4-byte Spill
.Ltmp256:
	#DEBUG_VALUE: __atanf:hx <- [RBP+-68]
	movl	$28, %r13d
	movl	$28, %edi
	movl	$2, %esi
	movl	$5, %edx
	callq	_KTimestamp1
	callq	_KPopCDep
	movl	$28, %edi
	callq	_KPushCDep
	.loc	1 397 10                # wcclibm.c:397:10
.Ltmp257:
	cmpl	$1060110335, %ebx       # imm = 0x3F2FFFFF
	ja	.LBB4_15
.Ltmp258:
# BB#14:                                # %if.then21
	#DEBUG_VALUE: __atanf:x <- [RBP+-52]
	#DEBUG_VALUE: __atanf:hx <- [RBP+-68]
	movl	$29, %edi
	callq	_KWork
.Ltmp259:
	#DEBUG_VALUE: __atanf:id <- 0
	movss	-52(%rbp), %xmm1        # 4-byte Reload
.Ltmp260:
	#DEBUG_VALUE: __atanf:x <- XMM1
	.loc	1 398 16                # wcclibm.c:398:16
	movaps	%xmm1, %xmm0
	addss	%xmm0, %xmm0
	addss	.LCPI4_0(%rip), %xmm0
	.loc	1 398 36 is_stmt 0      # wcclibm.c:398:36
	addss	.LCPI4_4(%rip), %xmm1
.Ltmp261:
	.loc	1 398 15                # wcclibm.c:398:15
	divss	%xmm1, %xmm0
.Ltmp262:
	#DEBUG_VALUE: __atanf:x <- XMM0
	movss	%xmm0, -52(%rbp)        # 4-byte Spill
.Ltmp263:
	#DEBUG_VALUE: __atanf:x <- [RBP+-52]
	movl	$31, -56(%rbp)          # 4-byte Folded Spill
	movl	$27, %r15d
	movl	$31, %edi
	movl	$2, %esi
	movl	$32, %edx
	movl	$6, %ecx
	movl	$27, %r8d
	callq	_KTimestamp2
	callq	_KPopCDep
	xorl	%r12d, %r12d
	xorl	%r14d, %r14d
	xorl	%ebx, %ebx
	jmp	.LBB4_20
.Ltmp264:
.LBB4_11:                               # %if.end16
	#DEBUG_VALUE: __atanf:x <- [RBP+-52]
	#DEBUG_VALUE: __atanf:hx <- [RBP+-68]
	movl	$26, %edi
	callq	_KPushCDep
.Ltmp265:
	#DEBUG_VALUE: __atanf:id <- -1
	callq	_KPopCDep
	movl	$1, -56(%rbp)           # 4-byte Folded Spill
	movl	$-1, %ebx
	xorl	%r12d, %r12d
	xorl	%r13d, %r13d
	xorl	%r15d, %r15d
	jmp	.LBB4_20
.LBB4_16:                               # %if.else29
	#DEBUG_VALUE: __atanf:x <- [RBP+-52]
.Ltmp266:
	#DEBUG_VALUE: __atanf:hx <- R14D
	#DEBUG_VALUE: __atanf:ix <- EBX
	movl	%r14d, -68(%rbp)        # 4-byte Spill
.Ltmp267:
	#DEBUG_VALUE: __atanf:hx <- [RBP+-68]
	movl	$29, %r12d
	movl	$29, %edi
	movl	$2, %esi
	movl	$5, %edx
	callq	_KTimestamp1
	callq	_KPopCDep
	movl	$29, %edi
	callq	_KPushCDep
	.loc	1 403 10 is_stmt 1      # wcclibm.c:403:10
.Ltmp268:
	cmpl	$1075576831, %ebx       # imm = 0x401BFFFF
	ja	.LBB4_18
.Ltmp269:
# BB#17:                                # %if.then31
	#DEBUG_VALUE: __atanf:x <- [RBP+-52]
	#DEBUG_VALUE: __atanf:hx <- [RBP+-68]
	movl	$29, %r12d
	movl	$29, %edi
	callq	_KWork
.Ltmp270:
	#DEBUG_VALUE: __atanf:id <- 2
	movss	.LCPI4_1(%rip), %xmm0
	movss	-52(%rbp), %xmm1        # 4-byte Reload
.Ltmp271:
	#DEBUG_VALUE: __atanf:x <- XMM1
	.loc	1 404 17                # wcclibm.c:404:17
	addss	%xmm1, %xmm0
	.loc	1 404 37 is_stmt 0      # wcclibm.c:404:37
	mulss	.LCPI4_2(%rip), %xmm1
.Ltmp272:
	.loc	1 404 33                # wcclibm.c:404:33
	addss	.LCPI4_3(%rip), %xmm1
	.loc	1 404 16                # wcclibm.c:404:16
	divss	%xmm1, %xmm0
.Ltmp273:
	#DEBUG_VALUE: __atanf:x <- XMM0
	movss	%xmm0, -52(%rbp)        # 4-byte Spill
.Ltmp274:
	#DEBUG_VALUE: __atanf:x <- [RBP+-52]
	movl	$33, -56(%rbp)          # 4-byte Folded Spill
	movl	$27, %r15d
	movl	$33, %edi
	movl	$2, %esi
	movl	$32, %edx
	movl	$6, %ecx
	movl	$27, %r8d
	callq	_KTimestamp2
	callq	_KPopCDep
	xorl	%r13d, %r13d
	xorl	%r14d, %r14d
	movl	$2, %ebx
	jmp	.LBB4_20
.Ltmp275:
.LBB4_6:                                # %if.else
	movl	$8, %edi
	callq	_KWork
	movl	$atanlo+12, %edi
	movl	$5, %esi
	movl	$4, %edx
	callq	_KLoad0
	movl	$2, (%rsp)
	movl	$42, %r15d
	movl	$42, %edi
	movl	$2, %esi
	movl	$8, %edx
	movl	$3, %ecx
	movl	$4, %r8d
	movl	$5, %r9d
	callq	_KTimestamp3
	callq	_KPopCDep
	movss	.LCPI4_18(%rip), %xmm0
.LBB4_5:                                # %return
	movss	%xmm0, -52(%rbp)        # 4-byte Spill
	movl	$44, %r13d
	xorl	%r14d, %r14d
	xorl	%eax, %eax
	xorl	%ebx, %ebx
	xorl	%ecx, %ecx
	jmp	.LBB4_25
.LBB4_15:                               # %if.else24
	#DEBUG_VALUE: __atanf:x <- [RBP+-52]
	#DEBUG_VALUE: __atanf:hx <- [RBP+-68]
	movl	$24, %edi
	callq	_KWork
.Ltmp276:
	#DEBUG_VALUE: __atanf:id <- 1
	movss	.LCPI4_0(%rip), %xmm0
	movss	-52(%rbp), %xmm1        # 4-byte Reload
.Ltmp277:
	#DEBUG_VALUE: __atanf:x <- XMM1
	.loc	1 400 17 is_stmt 1      # wcclibm.c:400:17
	addss	%xmm1, %xmm0
	.loc	1 400 25 is_stmt 0      # wcclibm.c:400:25
	addss	.LCPI4_3(%rip), %xmm1
.Ltmp278:
	.loc	1 400 16                # wcclibm.c:400:16
	divss	%xmm1, %xmm0
.Ltmp279:
	#DEBUG_VALUE: __atanf:x <- XMM0
	movss	%xmm0, -52(%rbp)        # 4-byte Spill
.Ltmp280:
	#DEBUG_VALUE: __atanf:x <- [RBP+-52]
	movl	$32, -56(%rbp)          # 4-byte Folded Spill
	movl	$27, %r15d
	movl	$32, %edi
	movl	$2, %esi
	movl	$27, %edx
	movl	$6, %ecx
	movl	$22, %r8d
	callq	_KTimestamp2
	callq	_KPopCDep
	movl	$1, %ebx
	xorl	%r12d, %r12d
	jmp	.LBB4_19
.Ltmp281:
.LBB4_18:                               # %if.else36
	#DEBUG_VALUE: __atanf:x <- [RBP+-52]
	#DEBUG_VALUE: __atanf:hx <- [RBP+-68]
	movl	$20, %edi
	callq	_KWork
.Ltmp282:
	#DEBUG_VALUE: __atanf:id <- 3
	movss	.LCPI4_0(%rip), %xmm0
	.loc	1 406 16 is_stmt 1      # wcclibm.c:406:16
.Ltmp283:
	divss	-52(%rbp), %xmm0        # 4-byte Folded Reload
.Ltmp284:
	#DEBUG_VALUE: __atanf:x <- XMM0
	movss	%xmm0, -52(%rbp)        # 4-byte Spill
.Ltmp285:
	#DEBUG_VALUE: __atanf:x <- [RBP+-52]
	movl	$34, -56(%rbp)          # 4-byte Folded Spill
	movl	$34, %edi
	movl	$2, %esi
	movl	$25, %edx
	movl	$6, %ecx
	movl	$20, %r8d
	callq	_KTimestamp2
	callq	_KPopCDep
	movl	$3, %ebx
	movl	$27, %r15d
	xorl	%r13d, %r13d
.Ltmp286:
.LBB4_19:                               # %if.end40
	xorl	%r14d, %r14d
.LBB4_20:                               # %if.end40
	#DEBUG_VALUE: __atanf:hx <- [RBP+-68]
	movl	$25, %edi
	callq	_KPushCDep
	movl	%r12d, 16(%rsp)
	movl	%r13d, 8(%rsp)
	movl	%r15d, (%rsp)
	movl	$23, %edi
	movl	$0, %esi
	movl	$6, %edx
	movl	$24, %ecx
	movl	$25, %r8d
	xorl	%eax, %eax
	movl	%r14d, %r9d
	callq	_KPhi
	movl	%r12d, 16(%rsp)
	movl	%r13d, 8(%rsp)
	movl	%r15d, (%rsp)
	movl	$30, %edi
	movl	$6, %edx
	movl	$24, %ecx
	movl	$25, %r8d
	xorl	%eax, %eax
	movl	-56(%rbp), %esi         # 4-byte Reload
	movl	%r14d, %r9d
	callq	_KPhi
	movl	$128, %edi
	callq	_KWork
	.loc	1 410 6                 # wcclibm.c:410:6
	movss	-52(%rbp), %xmm0        # 4-byte Reload
	mulss	%xmm0, %xmm0
.Ltmp287:
	#DEBUG_VALUE: __atanf:z <- XMM0
	.loc	1 411 6                 # wcclibm.c:411:6
	movss	%xmm0, -60(%rbp)        # 4-byte Spill
.Ltmp288:
	#DEBUG_VALUE: __atanf:z <- [RBP+-60]
	mulss	%xmm0, %xmm0
.Ltmp289:
	#DEBUG_VALUE: __atanf:w <- XMM0
	movss	%xmm0, -56(%rbp)        # 4-byte Spill
.Ltmp290:
	#DEBUG_VALUE: __atanf:w <- [RBP+-56]
	movl	$aT, %edi
	movl	$7, %esi
	movl	$4, %edx
	callq	_KLoad0
	movl	$aT+8, %edi
	movl	$8, %esi
	movl	$4, %edx
	callq	_KLoad0
	movl	$aT+16, %edi
	movl	$9, %esi
	movl	$4, %edx
	callq	_KLoad0
	movl	$aT+24, %edi
	movl	$10, %esi
	movl	$4, %edx
	callq	_KLoad0
	movl	$aT+32, %edi
	movl	$11, %esi
	movl	$4, %edx
	callq	_KLoad0
	movl	$aT+40, %edi
	movl	$12, %esi
	movl	$4, %edx
	callq	_KLoad0
	movss	.LCPI4_6(%rip), %xmm1
	movss	-56(%rbp), %xmm0        # 4-byte Reload
.Ltmp291:
	#DEBUG_VALUE: __atanf:w <- XMM0
	.loc	1 413 52                # wcclibm.c:413:52
	mulss	%xmm0, %xmm1
	.loc	1 413 46 is_stmt 0      # wcclibm.c:413:46
	addss	.LCPI4_7(%rip), %xmm1
	.loc	1 413 43                # wcclibm.c:413:43
	mulss	%xmm0, %xmm1
	.loc	1 413 37                # wcclibm.c:413:37
	addss	.LCPI4_8(%rip), %xmm1
	.loc	1 413 34                # wcclibm.c:413:34
	mulss	%xmm0, %xmm1
	.loc	1 413 28                # wcclibm.c:413:28
	addss	.LCPI4_9(%rip), %xmm1
	.loc	1 413 25                # wcclibm.c:413:25
	mulss	%xmm0, %xmm1
	.loc	1 413 19                # wcclibm.c:413:19
	addss	.LCPI4_10(%rip), %xmm1
	.loc	1 413 16                # wcclibm.c:413:16
	mulss	%xmm0, %xmm1
.Ltmp292:
	#DEBUG_VALUE: __atanf:w <- [RBP+-56]
	.loc	1 413 10                # wcclibm.c:413:10
	addss	.LCPI4_11(%rip), %xmm1
	.loc	1 413 7                 # wcclibm.c:413:7
	mulss	-60(%rbp), %xmm1        # 4-byte Folded Reload
.Ltmp293:
	#DEBUG_VALUE: __atanf:s1 <- XMM1
	movss	%xmm1, -64(%rbp)        # 4-byte Spill
.Ltmp294:
	#DEBUG_VALUE: __atanf:s1 <- [RBP+-64]
	movl	$aT+4, %edi
	movl	$13, %esi
	movl	$4, %edx
	callq	_KLoad0
	movl	$aT+12, %edi
	movl	$14, %esi
	movl	$4, %edx
	callq	_KLoad0
	movl	$aT+20, %edi
	movl	$15, %esi
	movl	$4, %edx
	callq	_KLoad0
	movl	$aT+28, %edi
	movl	$16, %esi
	movl	$4, %edx
	callq	_KLoad0
	movl	$aT+36, %edi
	movl	$17, %esi
	movl	$4, %edx
	callq	_KLoad0
	movss	.LCPI4_12(%rip), %xmm0
	movss	-56(%rbp), %xmm1        # 4-byte Reload
.Ltmp295:
	#DEBUG_VALUE: __atanf:w <- XMM1
	.loc	1 414 43 is_stmt 1      # wcclibm.c:414:43
	mulss	%xmm1, %xmm0
	addss	.LCPI4_13(%rip), %xmm0
	.loc	1 414 34 is_stmt 0      # wcclibm.c:414:34
	mulss	%xmm1, %xmm0
	.loc	1 414 28                # wcclibm.c:414:28
	addss	.LCPI4_14(%rip), %xmm0
	.loc	1 414 25                # wcclibm.c:414:25
	mulss	%xmm1, %xmm0
	.loc	1 414 19                # wcclibm.c:414:19
	addss	.LCPI4_15(%rip), %xmm0
	.loc	1 414 16                # wcclibm.c:414:16
	mulss	%xmm1, %xmm0
	.loc	1 414 10                # wcclibm.c:414:10
	addss	.LCPI4_16(%rip), %xmm0
	.loc	1 414 7                 # wcclibm.c:414:7
	mulss	%xmm1, %xmm0
.Ltmp296:
	#DEBUG_VALUE: __atanf:s2 <- XMM0
	movss	%xmm0, -56(%rbp)        # 4-byte Spill
.Ltmp297:
	#DEBUG_VALUE: __atanf:s2 <- [RBP+-56]
	movl	$38, %r14d
	movl	$38, %edi
	movl	$2, %esi
	movl	$4, %edx
	movl	$23, %ecx
	movl	$1, %r8d
	callq	_KTimestamp2
	callq	_KPopCDep
	movl	$38, %edi
	callq	_KPushCDep
	.loc	1 415 6 is_stmt 1       # wcclibm.c:415:6
	testl	%ebx, %ebx
	js	.LBB4_21
.Ltmp298:
# BB#22:                                # %if.else68
	#DEBUG_VALUE: __atanf:hx <- [RBP+-68]
	#DEBUG_VALUE: __atanf:s1 <- [RBP+-64]
	#DEBUG_VALUE: __atanf:s2 <- [RBP+-56]
	movl	$22, %edi
	callq	_KWork
	.loc	1 417 10                # wcclibm.c:417:10
.Ltmp299:
	movslq	%ebx, %rbx
	leaq	atanhi(,%rbx,4), %rdi
	movl	$18, %esi
	movl	$19, %edx
	movl	$4, %ecx
	callq	_KLoad1
	movss	atanhi(,%rbx,4), %xmm0
	movss	%xmm0, -60(%rbp)        # 4-byte Spill
	movss	-56(%rbp), %xmm0        # 4-byte Reload
.Ltmp300:
	#DEBUG_VALUE: __atanf:s2 <- XMM0
	.loc	1 417 28 is_stmt 0      # wcclibm.c:417:28
	addss	-64(%rbp), %xmm0        # 4-byte Folded Reload
.Ltmp301:
	.loc	1 417 25                # wcclibm.c:417:25
	mulss	-52(%rbp), %xmm0        # 4-byte Folded Reload
	movss	%xmm0, -56(%rbp)        # 4-byte Spill
	.loc	1 417 37                # wcclibm.c:417:37
	leaq	atanlo(,%rbx,4), %rdi
	movl	$20, %esi
	movl	$21, %edx
	movl	$4, %ecx
	callq	_KLoad1
	movss	-56(%rbp), %xmm0        # 4-byte Reload
	.loc	1 417 25                # wcclibm.c:417:25
	subss	atanlo(,%rbx,4), %xmm0
	.loc	1 417 24                # wcclibm.c:417:24
	subss	-52(%rbp), %xmm0        # 4-byte Folded Reload
	movaps	%xmm0, %xmm1
	.loc	1 417 10                # wcclibm.c:417:10
	movss	-60(%rbp), %xmm0        # 4-byte Reload
	subss	%xmm1, %xmm0
.Ltmp302:
	#DEBUG_VALUE: __atanf:z <- undef
	movss	%xmm0, -60(%rbp)        # 4-byte Spill
.Ltmp303:
	#DEBUG_VALUE: __atanf:z <- [RBP+-60]
	movl	$6, 216(%rsp)
	movl	$20, 208(%rsp)
	movl	$2, 200(%rsp)
	movl	$18, 192(%rsp)
	movl	$46, 184(%rsp)
	movl	$17, 176(%rsp)
	movl	$41, 168(%rsp)
	movl	$16, 160(%rsp)
	movl	$34, 152(%rsp)
	movl	$15, 144(%rsp)
	movl	$27, 136(%rsp)
	movl	$14, 128(%rsp)
	movl	$20, 120(%rsp)
	movl	$13, 112(%rsp)
	movl	$53, 104(%rsp)
	movl	$12, 96(%rsp)
	movl	$48, 88(%rsp)
	movl	$11, 80(%rsp)
	movl	$41, 72(%rsp)
	movl	$10, 64(%rsp)
	movl	$34, 56(%rsp)
	movl	$9, 48(%rsp)
	movl	$27, 40(%rsp)
	movl	$8, 32(%rsp)
	movl	$20, 24(%rsp)
	movl	$7, 16(%rsp)
	movl	$63, 8(%rsp)
	movl	$30, (%rsp)
	movl	$37, %ebx
	movl	$37, %edi
	movl	$16, %esi
	movl	$2, %edx
	movl	$66, %ecx
	movl	$23, %r8d
	movl	$14, %r9d
	xorl	%eax, %eax
	callq	_KTimestamp
	movl	$39, %edi
	movl	$2, %esi
	movl	$5, %edx
	movl	$23, %ecx
	movl	$2, %r8d
	callq	_KTimestamp2
	callq	_KPopCDep
	.loc	1 418 13 is_stmt 1      # wcclibm.c:418:13
	cmpl	$0, -68(%rbp)           # 4-byte Folded Reload
	jns	.LBB4_24
# BB#23:                                # %cond.true
	#DEBUG_VALUE: __atanf:z <- [RBP+-60]
	movl	$39, %edi
	callq	_KPushCDep
	movl	$2, %edi
	callq	_KWork
	.loc	1 418 21 is_stmt 0      # wcclibm.c:418:21
	movss	-60(%rbp), %xmm0        # 4-byte Reload
	xorps	.LCPI4_17(%rip), %xmm0
	movss	%xmm0, -60(%rbp)        # 4-byte Spill
	movl	$8, 216(%rsp)
	movl	$20, 208(%rsp)
	movl	$4, 200(%rsp)
	movl	$18, 192(%rsp)
	movl	$48, 184(%rsp)
	movl	$17, 176(%rsp)
	movl	$43, 168(%rsp)
	movl	$16, 160(%rsp)
	movl	$36, 152(%rsp)
	movl	$15, 144(%rsp)
	movl	$29, 136(%rsp)
	movl	$14, 128(%rsp)
	movl	$22, 120(%rsp)
	movl	$13, 112(%rsp)
	movl	$55, 104(%rsp)
	movl	$12, 96(%rsp)
	movl	$50, 88(%rsp)
	movl	$11, 80(%rsp)
	movl	$43, 72(%rsp)
	movl	$10, 64(%rsp)
	movl	$36, 56(%rsp)
	movl	$9, 48(%rsp)
	movl	$29, 40(%rsp)
	movl	$8, 32(%rsp)
	movl	$22, 24(%rsp)
	movl	$7, 16(%rsp)
	movl	$65, 8(%rsp)
	movl	$30, (%rsp)
	movl	$36, %ebx
	movl	$36, %edi
	movl	$16, %esi
	movl	$2, %edx
	movl	$68, %ecx
	movl	$23, %r8d
	movl	$16, %r9d
	xorl	%eax, %eax
	callq	_KTimestamp
	callq	_KPopCDep
.Ltmp304:
.LBB4_24:                               # %cond.end
	movl	$38, %r14d
	movl	$38, %edi
	callq	_KPushCDep
	movl	$35, %r15d
	movl	$35, %edi
	movl	$35, %esi
	xorl	%edx, %edx
	callq	_KTimestamp1
	movl	$35, %edi
	movl	$38, %edx
	movl	$39, %ecx
	movl	%ebx, %esi
	callq	_KPhi2To1
	callq	_KPopCDep
	movl	$25, %ecx
	xorl	%ebx, %ebx
	xorl	%r12d, %r12d
	xorl	%r13d, %r13d
	movss	-60(%rbp), %xmm0        # 4-byte Reload
	movss	%xmm0, -52(%rbp)        # 4-byte Spill
	xorl	%eax, %eax
	jmp	.LBB4_25
.LBB4_21:                               # %if.then64
	#DEBUG_VALUE: __atanf:s1 <- [RBP+-64]
.Ltmp305:
	#DEBUG_VALUE: __atanf:s2 <- [RBP+-56]
	movl	$9, %edi
	callq	_KWork
	movss	-56(%rbp), %xmm1        # 4-byte Reload
.Ltmp306:
	#DEBUG_VALUE: __atanf:s2 <- XMM1
	.loc	1 415 26 is_stmt 1      # wcclibm.c:415:26
	addss	-64(%rbp), %xmm1        # 4-byte Folded Reload
.Ltmp307:
	movss	-52(%rbp), %xmm0        # 4-byte Reload
	.loc	1 415 23 is_stmt 0      # wcclibm.c:415:23
	mulss	%xmm0, %xmm1
	.loc	1 415 19                # wcclibm.c:415:19
	subss	%xmm1, %xmm0
	movss	%xmm0, -52(%rbp)        # 4-byte Spill
	movl	$42, 184(%rsp)
	movl	$17, 176(%rsp)
	movl	$37, 168(%rsp)
	movl	$16, 160(%rsp)
	movl	$30, 152(%rsp)
	movl	$15, 144(%rsp)
	movl	$23, 136(%rsp)
	movl	$14, 128(%rsp)
	movl	$16, 120(%rsp)
	movl	$13, 112(%rsp)
	movl	$49, 104(%rsp)
	movl	$12, 96(%rsp)
	movl	$44, 88(%rsp)
	movl	$11, 80(%rsp)
	movl	$37, 72(%rsp)
	movl	$10, 64(%rsp)
	movl	$30, 56(%rsp)
	movl	$9, 48(%rsp)
	movl	$23, 40(%rsp)
	movl	$8, 32(%rsp)
	movl	$16, 24(%rsp)
	movl	$7, 16(%rsp)
	movl	$59, 8(%rsp)
	movl	$30, (%rsp)
	movl	$43, %r15d
	movl	$43, %edi
	movl	$14, %esi
	movl	$2, %edx
	movl	$62, %ecx
	movl	$23, %r8d
	movl	$10, %r9d
	xorl	%eax, %eax
	callq	_KTimestamp
	callq	_KPopCDep
	xorl	%ebx, %ebx
	xorl	%r12d, %r12d
	xorl	%r13d, %r13d
	xorl	%eax, %eax
	movl	$25, %ecx
.Ltmp308:
.LBB4_25:                               # %return
	movl	%r14d, 24(%rsp)
	movl	%eax, 16(%rsp)
	movl	%ebx, 8(%rsp)
	movl	%ecx, (%rsp)
	movl	$22, %edi
	movl	$7, %edx
	movl	$24, %ecx
	xorl	%eax, %eax
	movl	%r15d, %esi
	movl	%r13d, %r8d
	movl	%r12d, %r9d
	callq	_KPhi
	movl	$22, %edi
	movl	$22, %esi
	xorl	%edx, %edx
	callq	_KTimestamp1
	movl	$22, %edi
	callq	_KReturn
	xorl	%esi, %esi
	movabsq	$-7648233402848017154, %rdi # imm = 0x95DC043DFFF784FE
	callq	_KExitRegion
	.loc	1 420 1 is_stmt 1       # wcclibm.c:420:1
	movss	-52(%rbp), %xmm0        # 4-byte Reload
	addq	$264, %rsp              # imm = 0x108
	popq	%rbx
	popq	%r12
	popq	%r13
	popq	%r14
	popq	%r15
	popq	%rbp
	retq
.Ltmp309:
.Ltmp310:
	.size	__atanf, .Ltmp310-__atanf
.Lfunc_end4:
	.cfi_endproc

	.section	.rodata.cst16,"aM",@progbits,16
	.align	16
.LCPI5_0:
	.long	2147483648              # 0x80000000
	.long	2147483648              # 0x80000000
	.long	2147483648              # 0x80000000
	.long	2147483648              # 0x80000000
	.text
	.globl	__cosf
	.align	16, 0x90
	.type	__cosf,@function
__cosf:                                 # @__cosf
.Lfunc_begin5:
	.loc	1 450 0                 # wcclibm.c:450:0
	.cfi_startproc
# BB#0:                                 # %entry
	pushq	%rbp
.Ltmp311:
	.cfi_def_cfa_offset 16
.Ltmp312:
	.cfi_offset %rbp, -16
	movq	%rsp, %rbp
.Ltmp313:
	.cfi_def_cfa_register %rbp
	pushq	%r15
	pushq	%r14
	pushq	%r13
	pushq	%r12
	pushq	%rbx
	subq	$40, %rsp
.Ltmp314:
	.cfi_offset %rbx, -56
.Ltmp315:
	.cfi_offset %r12, -48
.Ltmp316:
	.cfi_offset %r13, -40
.Ltmp317:
	.cfi_offset %r14, -32
.Ltmp318:
	.cfi_offset %r15, -24
	#DEBUG_VALUE: __cosf:x <- XMM0
	movss	%xmm0, -60(%rbp)        # 4-byte Spill
.Ltmp319:
	#DEBUG_VALUE: __cosf:x <- [RBP+-60]
	#DEBUG_VALUE: __cosf:x <- undef
	movabsq	$2596097060353013359, %r14 # imm = 0x240730858CC6F66F
	xorl	%r15d, %r15d
	xorl	%esi, %esi
	movq	%r14, %rdi
	callq	_KEnterRegion
	movl	$24, %edi
	xorl	%esi, %esi
	callq	_KPrepRTable
	movl	$7, %edi
	callq	_KWork
	movl	$1, %edi
	callq	_KDeqArg
.Ltmp320:
	#DEBUG_VALUE: __cosf:z <- 0.000000e+00
	movl	$1, %edi
	movl	$1, %esi
	xorl	%edx, %edx
	callq	_KTimestamp1
	leaq	-56(%rbp), %rbx
	movl	$1, %edi
	movl	$4, %edx
	movq	%rbx, %rsi
	callq	_KStore
	.loc	1 454 2 prologue_end    # wcclibm.c:454:2
.Ltmp321:
	movss	-60(%rbp), %xmm0        # 4-byte Reload
	movss	%xmm0, -56(%rbp)
.Ltmp322:
	#DEBUG_VALUE: __cosf:x <- [RBP+-60]
	movl	$2, %esi
	movl	$4, %edx
	movq	%rbx, %rdi
	callq	_KLoad0
	movl	$2147483647, %ebx       # imm = 0x7FFFFFFF
.Ltmp323:
	.loc	1 457 2                 # wcclibm.c:457:2
	andl	-56(%rbp), %ebx
.Ltmp324:
	#DEBUG_VALUE: __cosf:ix <- EBX
	movl	$21, %edi
	movl	$2, %esi
	movl	$2, %edx
	callq	_KTimestamp1
	movl	$21, %edi
	callq	_KPushCDep
	.loc	1 458 5                 # wcclibm.c:458:5
	cmpl	$1061752792, %ebx       # imm = 0x3F490FD8
	ja	.LBB5_2
.Ltmp325:
# BB#1:                                 # %if.then
	#DEBUG_VALUE: __cosf:x <- [RBP+-60]
	#DEBUG_VALUE: __cosf:z <- 0.000000e+00
	movabsq	$487112020540470520, %rdi # imm = 0x6C291CD462334F8
	xorl	%esi, %esi
	callq	_KPrepCall
	callq	_KEnqArgConst
	movl	$1, %edi
	callq	_KEnqArg
	movl	$3, %r12d
	movl	$3, %edi
	callq	_KLinkReturn
	xorps	%xmm1, %xmm1
	.loc	1 458 30 is_stmt 0      # wcclibm.c:458:30
.Ltmp326:
	movss	-60(%rbp), %xmm0        # 4-byte Reload
	callq	__kernel_cosf
	movss	%xmm0, -60(%rbp)        # 4-byte Spill
	movl	$3, %edi
	movl	$3, %esi
	xorl	%edx, %edx
	callq	_KTimestamp1
	callq	_KPopCDep
	xorl	%r13d, %r13d
	jmp	.LBB5_14
.LBB5_2:                                # %if.else
	#DEBUG_VALUE: __cosf:x <- [RBP+-60]
	#DEBUG_VALUE: __cosf:z <- 0.000000e+00
.Ltmp327:
	#DEBUG_VALUE: __cosf:ix <- EBX
	movl	$1, %edi
	callq	_KWork
	movl	$22, %r13d
	movl	$22, %edi
	movl	$2, %esi
	movl	$3, %edx
	callq	_KTimestamp1
	callq	_KPopCDep
	movl	$22, %edi
	callq	_KPushCDep
	.loc	1 461 11 is_stmt 1      # wcclibm.c:461:11
	cmpl	$2139095040, %ebx       # imm = 0x7F800000
	jb	.LBB5_4
.Ltmp328:
# BB#3:                                 # %if.then2
	#DEBUG_VALUE: __cosf:x <- [RBP+-60]
	#DEBUG_VALUE: __cosf:z <- 0.000000e+00
	movl	$2, %edi
	callq	_KWork
.Ltmp329:
	#DEBUG_VALUE: __cosf:x <- undef
	.loc	1 461 34 is_stmt 0      # wcclibm.c:461:34
	movss	-60(%rbp), %xmm0        # 4-byte Reload
	subss	%xmm0, %xmm0
	movss	%xmm0, -60(%rbp)        # 4-byte Spill
	movl	$18, %r12d
	movl	$18, %edi
	movl	$1, %esi
	movl	$2, %edx
	movl	$2, %ecx
	movl	$5, %r8d
	callq	_KTimestamp2
	callq	_KPopCDep
	xorl	%r15d, %r15d
	jmp	.LBB5_14
.LBB5_4:                                # %if.else3
.Ltmp330:
	#DEBUG_VALUE: __cosf:x <- [RBP+-60]
	#DEBUG_VALUE: __cosf:z <- 0.000000e+00
	movl	$1, %edi
	callq	_KWork
	movabsq	$-6450630219564197944, %rdi # imm = 0xA67AC1FE0179D7C8
	xorl	%esi, %esi
	callq	_KPrepCall
	movl	$1, %edi
	callq	_KEnqArg
	movl	$4, %edi
	callq	_KLinkReturn
	leaq	-48(%rbp), %rdi
	.loc	1 465 10 is_stmt 1      # wcclibm.c:465:10
.Ltmp331:
	movss	-60(%rbp), %xmm0        # 4-byte Reload
	callq	__ieee754_rem_pio2f
	movl	%eax, %ebx
.Ltmp332:
	#DEBUG_VALUE: __cosf:n <- EBX
	.loc	1 466 13                # wcclibm.c:466:13
	andl	$3, %ebx
.Ltmp333:
	movl	$23, %r15d
	movl	$23, %edi
	movl	$2, %esi
	movl	$4, %edx
	movl	$4, %ecx
	movl	$1, %r8d
	callq	_KTimestamp2
	callq	_KPopCDep
	.loc	1 466 6 is_stmt 0       # wcclibm.c:466:6
	cmpl	$2, %ebx
	je	.LBB5_9
# BB#5:                                 # %if.else3
	#DEBUG_VALUE: __cosf:z <- 0.000000e+00
	#DEBUG_VALUE: __cosf:z <- 0.000000e+00
	movl	$23, %r15d
	movl	$23, %edi
	cmpl	$1, %ebx
	jne	.LBB5_6
# BB#8:                                 # %sw.bb8
	callq	_KPushCDep
	movl	$10, %edi
	callq	_KWork
	leaq	-48(%rbp), %rdi
	movl	$8, %esi
	movl	$4, %edx
	callq	_KLoad0
	.loc	1 468 33 is_stmt 1      # wcclibm.c:468:33
.Ltmp334:
	movss	-48(%rbp), %xmm0
	.loc	1 468 38 is_stmt 0      # wcclibm.c:468:38
	movss	%xmm0, -60(%rbp)        # 4-byte Spill
	leaq	-44(%rbp), %rdi
	movl	$9, %esi
	movl	$4, %edx
	callq	_KLoad0
	movss	-44(%rbp), %xmm0
	movss	%xmm0, -64(%rbp)        # 4-byte Spill
	movl	$9, %edi
	movl	$9, %esi
	xorl	%edx, %edx
	callq	_KTimestamp1
	movabsq	$-5542237724690507657, %rdi # imm = 0xB3160427470D9877
	xorl	%esi, %esi
	callq	_KPrepCall
	callq	_KEnqArgConst
	movl	$9, %edi
	callq	_KEnqArg
	movl	$8, %edi
	movl	$8, %esi
	xorl	%edx, %edx
	callq	_KTimestamp1
	movl	$8, %edi
	callq	_KEnqArg
	movl	$10, %edi
	callq	_KLinkReturn
	movl	$1, %edi
	.loc	1 468 19                # wcclibm.c:468:19
	movss	-60(%rbp), %xmm0        # 4-byte Reload
	movss	-64(%rbp), %xmm1        # 4-byte Reload
	callq	__kernel_sinf
	.loc	1 468 18                # wcclibm.c:468:18
	xorps	.LCPI5_0(%rip), %xmm0
	movss	%xmm0, -60(%rbp)        # 4-byte Spill
	movl	$2, (%rsp)
	movl	$20, %r12d
	movl	$20, %edi
	movl	$2, %esi
	movl	$6, %edx
	movl	$4, %ecx
	movl	$3, %r8d
	movl	$10, %r9d
	callq	_KTimestamp3
	jmp	.LBB5_13
.LBB5_9:                                # %sw.bb13
	#DEBUG_VALUE: __cosf:z <- 0.000000e+00
	movl	$23, %edi
	callq	_KPushCDep
	movl	$10, %edi
	callq	_KWork
	leaq	-48(%rbp), %rdi
	movl	$11, %esi
	movl	$4, %edx
	callq	_KLoad0
	.loc	1 469 33 is_stmt 1      # wcclibm.c:469:33
	movss	-48(%rbp), %xmm0
	.loc	1 469 38 is_stmt 0      # wcclibm.c:469:38
	movss	%xmm0, -60(%rbp)        # 4-byte Spill
	leaq	-44(%rbp), %rdi
	movl	$12, %esi
	movl	$4, %edx
	callq	_KLoad0
	movss	-44(%rbp), %xmm0
	movss	%xmm0, -64(%rbp)        # 4-byte Spill
	movl	$11, %edi
	movl	$11, %esi
	xorl	%edx, %edx
	callq	_KTimestamp1
	movabsq	$4967461761571850478, %rdi # imm = 0x44EFF82745D388EE
	xorl	%esi, %esi
	callq	_KPrepCall
	movl	$12, %edi
	movl	$12, %esi
	xorl	%edx, %edx
	callq	_KTimestamp1
	movl	$12, %edi
	callq	_KEnqArg
	movl	$11, %edi
	callq	_KEnqArg
	movl	$13, %edi
	callq	_KLinkReturn
	.loc	1 469 19                # wcclibm.c:469:19
	movss	-60(%rbp), %xmm0        # 4-byte Reload
	movss	-64(%rbp), %xmm1        # 4-byte Reload
	callq	__kernel_cosf
	.loc	1 469 18                # wcclibm.c:469:18
	xorps	.LCPI5_0(%rip), %xmm0
	movss	%xmm0, -60(%rbp)        # 4-byte Spill
	movl	$2, (%rsp)
	movl	$19, %r12d
	movl	$19, %edi
	movl	$2, %esi
	movl	$6, %edx
	movl	$4, %ecx
	movl	$3, %r8d
	movl	$13, %r9d
	callq	_KTimestamp3
	jmp	.LBB5_13
.LBB5_6:                                # %if.else3
	testl	%ebx, %ebx
	jne	.LBB5_11
# BB#7:                                 # %sw.bb
	callq	_KPushCDep
	movl	$8, %edi
	callq	_KWork
	leaq	-48(%rbp), %rdi
	movl	$5, %esi
	movl	$4, %edx
	callq	_KLoad0
	.loc	1 467 33 is_stmt 1      # wcclibm.c:467:33
	movss	-48(%rbp), %xmm0
	.loc	1 467 38 is_stmt 0      # wcclibm.c:467:38
	movss	%xmm0, -60(%rbp)        # 4-byte Spill
	leaq	-44(%rbp), %rdi
	movl	$6, %esi
	movl	$4, %edx
	callq	_KLoad0
	movss	-44(%rbp), %xmm0
	movss	%xmm0, -64(%rbp)        # 4-byte Spill
	movl	$5, %edi
	movl	$5, %esi
	xorl	%edx, %edx
	callq	_KTimestamp1
	movabsq	$-3073496359615235455, %rdi # imm = 0xD558BF5852AD7A81
	xorl	%esi, %esi
	callq	_KPrepCall
	movl	$6, %edi
	movl	$6, %esi
	xorl	%edx, %edx
	callq	_KTimestamp1
	movl	$6, %edi
	callq	_KEnqArg
	movl	$5, %edi
	callq	_KEnqArg
	movl	$7, %r12d
	movl	$7, %edi
	callq	_KLinkReturn
	.loc	1 467 19                # wcclibm.c:467:19
	movss	-60(%rbp), %xmm0        # 4-byte Reload
	movss	-64(%rbp), %xmm1        # 4-byte Reload
	callq	__kernel_cosf
	movss	%xmm0, -60(%rbp)        # 4-byte Spill
	movl	$7, %edi
	movl	$7, %esi
	jmp	.LBB5_12
.LBB5_11:                               # %sw.default
	callq	_KPushCDep
	movl	$8, %edi
	callq	_KWork
	leaq	-48(%rbp), %rdi
	movl	$14, %esi
	movl	$4, %edx
	callq	_KLoad0
	.loc	1 471 33 is_stmt 1      # wcclibm.c:471:33
	movss	-48(%rbp), %xmm0
	.loc	1 471 38 is_stmt 0      # wcclibm.c:471:38
	movss	%xmm0, -60(%rbp)        # 4-byte Spill
	leaq	-44(%rbp), %rdi
	movl	$15, %esi
	movl	$4, %edx
	callq	_KLoad0
	movss	-44(%rbp), %xmm0
	movss	%xmm0, -64(%rbp)        # 4-byte Spill
	movl	$15, %edi
	movl	$15, %esi
	xorl	%edx, %edx
	callq	_KTimestamp1
	movabsq	$-5883958431719164228, %rdi # imm = 0xAE57FAFB1C36F6BC
	xorl	%esi, %esi
	callq	_KPrepCall
	callq	_KEnqArgConst
	movl	$15, %edi
	callq	_KEnqArg
	movl	$14, %edi
	movl	$14, %esi
	xorl	%edx, %edx
	callq	_KTimestamp1
	movl	$14, %edi
	callq	_KEnqArg
	movl	$16, %r12d
	movl	$16, %edi
	callq	_KLinkReturn
	movl	$1, %edi
	.loc	1 471 19                # wcclibm.c:471:19
	movss	-60(%rbp), %xmm0        # 4-byte Reload
	movss	-64(%rbp), %xmm1        # 4-byte Reload
	callq	__kernel_sinf
	movss	%xmm0, -60(%rbp)        # 4-byte Spill
	movl	$16, %edi
	movl	$16, %esi
.Ltmp335:
.LBB5_12:                               # %return
	xorl	%edx, %edx
	callq	_KTimestamp1
.LBB5_13:                               # %return
	callq	_KPopCDep
	movl	$22, %r13d
.LBB5_14:                               # %return
	#DEBUG_VALUE: __cosf:z <- 0.000000e+00
	movl	$17, %edi
	movl	$21, %edx
	movl	%r12d, %esi
	movl	%r13d, %ecx
	movl	%r15d, %r8d
	callq	_KPhi3To1
	movl	$17, %edi
	movl	$17, %esi
	xorl	%edx, %edx
	callq	_KTimestamp1
	movl	$17, %edi
	callq	_KReturn
	xorl	%esi, %esi
	movq	%r14, %rdi
	callq	_KExitRegion
	.loc	1 474 1 is_stmt 1       # wcclibm.c:474:1
	movss	-60(%rbp), %xmm0        # 4-byte Reload
	addq	$40, %rsp
	popq	%rbx
	popq	%r12
	popq	%r13
	popq	%r14
	popq	%r15
	popq	%rbp
	retq
.Ltmp336:
.Ltmp337:
	.size	__cosf, .Ltmp337-__cosf
.Lfunc_end5:
	.cfi_endproc

	.section	.rodata.cst16,"aM",@progbits,16
	.align	16
.LCPI6_0:
	.long	2147483648              # 0x80000000
	.long	2147483648              # 0x80000000
	.long	2147483648              # 0x80000000
	.long	2147483648              # 0x80000000
	.text
	.globl	__sinf
	.align	16, 0x90
	.type	__sinf,@function
__sinf:                                 # @__sinf
.Lfunc_begin6:
	.loc	1 497 0                 # wcclibm.c:497:0
	.cfi_startproc
# BB#0:                                 # %entry
	pushq	%rbp
.Ltmp338:
	.cfi_def_cfa_offset 16
.Ltmp339:
	.cfi_offset %rbp, -16
	movq	%rsp, %rbp
.Ltmp340:
	.cfi_def_cfa_register %rbp
	pushq	%r15
	pushq	%r14
	pushq	%r13
	pushq	%r12
	pushq	%rbx
	subq	$40, %rsp
.Ltmp341:
	.cfi_offset %rbx, -56
.Ltmp342:
	.cfi_offset %r12, -48
.Ltmp343:
	.cfi_offset %r13, -40
.Ltmp344:
	.cfi_offset %r14, -32
.Ltmp345:
	.cfi_offset %r15, -24
	#DEBUG_VALUE: __sinf:x <- XMM0
	movss	%xmm0, -60(%rbp)        # 4-byte Spill
.Ltmp346:
	#DEBUG_VALUE: __sinf:x <- [RBP+-60]
	#DEBUG_VALUE: __sinf:x <- undef
	movabsq	$2579274462338103915, %r14 # imm = 0x23CB6C7539E63A6B
	xorl	%r15d, %r15d
	xorl	%esi, %esi
	movq	%r14, %rdi
	callq	_KEnterRegion
	movl	$24, %edi
	xorl	%esi, %esi
	callq	_KPrepRTable
	movl	$1, %edi
	callq	_KDeqArg
	movl	$7, %edi
	callq	_KWork
.Ltmp347:
	#DEBUG_VALUE: __sinf:z <- 0.000000e+00
	movl	$1, %edi
	movl	$1, %esi
	xorl	%edx, %edx
	callq	_KTimestamp1
	leaq	-56(%rbp), %rbx
	movl	$1, %edi
	movl	$4, %edx
	movq	%rbx, %rsi
	callq	_KStore
	.loc	1 501 2 prologue_end    # wcclibm.c:501:2
.Ltmp348:
	movss	-60(%rbp), %xmm0        # 4-byte Reload
	movss	%xmm0, -56(%rbp)
.Ltmp349:
	#DEBUG_VALUE: __sinf:x <- [RBP+-60]
	movl	$2, %esi
	movl	$4, %edx
	movq	%rbx, %rdi
	callq	_KLoad0
	movl	$2147483647, %ebx       # imm = 0x7FFFFFFF
.Ltmp350:
	.loc	1 504 2                 # wcclibm.c:504:2
	andl	-56(%rbp), %ebx
.Ltmp351:
	#DEBUG_VALUE: __sinf:ix <- EBX
	movl	$21, %edi
	movl	$2, %esi
	movl	$2, %edx
	callq	_KTimestamp1
	movl	$21, %edi
	callq	_KPushCDep
	.loc	1 505 5                 # wcclibm.c:505:5
	cmpl	$1061752792, %ebx       # imm = 0x3F490FD8
	ja	.LBB6_2
.Ltmp352:
# BB#1:                                 # %if.then
	#DEBUG_VALUE: __sinf:x <- [RBP+-60]
	#DEBUG_VALUE: __sinf:z <- 0.000000e+00
	movabsq	$3797442900969063277, %rdi # imm = 0x34B33A32DF17036D
	xorl	%esi, %esi
	callq	_KPrepCall
	callq	_KEnqArgConst
	callq	_KEnqArgConst
	movl	$1, %edi
	callq	_KEnqArg
	movl	$3, %r12d
	movl	$3, %edi
	callq	_KLinkReturn
	xorps	%xmm1, %xmm1
	xorl	%edi, %edi
	.loc	1 505 30 is_stmt 0      # wcclibm.c:505:30
.Ltmp353:
	movss	-60(%rbp), %xmm0        # 4-byte Reload
	callq	__kernel_sinf
	movss	%xmm0, -60(%rbp)        # 4-byte Spill
	movl	$3, %edi
	movl	$3, %esi
	xorl	%edx, %edx
	callq	_KTimestamp1
	callq	_KPopCDep
	xorl	%r13d, %r13d
	jmp	.LBB6_14
.LBB6_2:                                # %if.else
	#DEBUG_VALUE: __sinf:x <- [RBP+-60]
	#DEBUG_VALUE: __sinf:z <- 0.000000e+00
.Ltmp354:
	#DEBUG_VALUE: __sinf:ix <- EBX
	movl	$1, %edi
	callq	_KWork
	movl	$22, %r13d
	movl	$22, %edi
	movl	$2, %esi
	movl	$3, %edx
	callq	_KTimestamp1
	callq	_KPopCDep
	movl	$22, %edi
	callq	_KPushCDep
	.loc	1 508 11 is_stmt 1      # wcclibm.c:508:11
	cmpl	$2139095040, %ebx       # imm = 0x7F800000
	jb	.LBB6_4
.Ltmp355:
# BB#3:                                 # %if.then2
	#DEBUG_VALUE: __sinf:x <- [RBP+-60]
	#DEBUG_VALUE: __sinf:z <- 0.000000e+00
	movl	$2, %edi
	callq	_KWork
.Ltmp356:
	#DEBUG_VALUE: __sinf:x <- undef
	.loc	1 508 34 is_stmt 0      # wcclibm.c:508:34
	movss	-60(%rbp), %xmm0        # 4-byte Reload
	subss	%xmm0, %xmm0
	movss	%xmm0, -60(%rbp)        # 4-byte Spill
	movl	$18, %r12d
	movl	$18, %edi
	movl	$1, %esi
	movl	$2, %edx
	movl	$2, %ecx
	movl	$5, %r8d
	callq	_KTimestamp2
	callq	_KPopCDep
	xorl	%r15d, %r15d
	jmp	.LBB6_14
.LBB6_4:                                # %if.else3
.Ltmp357:
	#DEBUG_VALUE: __sinf:x <- [RBP+-60]
	#DEBUG_VALUE: __sinf:z <- 0.000000e+00
	movl	$1, %edi
	callq	_KWork
	movabsq	$6125656040858527104, %rdi # imm = 0x5502B3B6CB992580
	xorl	%esi, %esi
	callq	_KPrepCall
	movl	$1, %edi
	callq	_KEnqArg
	movl	$4, %edi
	callq	_KLinkReturn
	leaq	-48(%rbp), %rdi
	.loc	1 512 10 is_stmt 1      # wcclibm.c:512:10
.Ltmp358:
	movss	-60(%rbp), %xmm0        # 4-byte Reload
	callq	__ieee754_rem_pio2f
	movl	%eax, %ebx
.Ltmp359:
	#DEBUG_VALUE: __sinf:n <- EBX
	.loc	1 513 13                # wcclibm.c:513:13
	andl	$3, %ebx
.Ltmp360:
	movl	$23, %r15d
	movl	$23, %edi
	movl	$2, %esi
	movl	$4, %edx
	movl	$4, %ecx
	movl	$1, %r8d
	callq	_KTimestamp2
	callq	_KPopCDep
	.loc	1 513 6 is_stmt 0       # wcclibm.c:513:6
	cmpl	$2, %ebx
	je	.LBB6_10
# BB#5:                                 # %if.else3
	#DEBUG_VALUE: __sinf:z <- 0.000000e+00
	#DEBUG_VALUE: __sinf:z <- 0.000000e+00
	movl	$23, %r15d
	movl	$23, %edi
	cmpl	$1, %ebx
	jne	.LBB6_6
# BB#8:                                 # %sw.bb8
	callq	_KPushCDep
	movl	$8, %edi
	callq	_KWork
	leaq	-48(%rbp), %rdi
	movl	$8, %esi
	movl	$4, %edx
	callq	_KLoad0
	.loc	1 515 33 is_stmt 1      # wcclibm.c:515:33
.Ltmp361:
	movss	-48(%rbp), %xmm0
	.loc	1 515 38 is_stmt 0      # wcclibm.c:515:38
	movss	%xmm0, -60(%rbp)        # 4-byte Spill
	leaq	-44(%rbp), %rdi
	movl	$9, %esi
	movl	$4, %edx
	callq	_KLoad0
	movss	-44(%rbp), %xmm0
	movss	%xmm0, -64(%rbp)        # 4-byte Spill
	movabsq	$-719806349195197208, %rdi # imm = 0xF602BBF0692644E8
	xorl	%esi, %esi
	callq	_KPrepCall
	movl	$9, %edi
	movl	$9, %esi
	xorl	%edx, %edx
	callq	_KTimestamp1
	movl	$9, %edi
	callq	_KEnqArg
	movl	$8, %edi
	movl	$8, %esi
	xorl	%edx, %edx
	callq	_KTimestamp1
	movl	$8, %edi
	callq	_KEnqArg
	movl	$10, %r12d
	movl	$10, %edi
	callq	_KLinkReturn
	.loc	1 515 19                # wcclibm.c:515:19
	movss	-60(%rbp), %xmm0        # 4-byte Reload
	movss	-64(%rbp), %xmm1        # 4-byte Reload
	callq	__kernel_cosf
	movss	%xmm0, -60(%rbp)        # 4-byte Spill
	movl	$10, %edi
	movl	$10, %esi
	jmp	.LBB6_9
.LBB6_10:                               # %sw.bb12
	#DEBUG_VALUE: __sinf:z <- 0.000000e+00
	movl	$23, %edi
	callq	_KPushCDep
	movl	$10, %edi
	callq	_KWork
	leaq	-48(%rbp), %rdi
	movl	$11, %esi
	movl	$4, %edx
	callq	_KLoad0
	.loc	1 516 33 is_stmt 1      # wcclibm.c:516:33
	movss	-48(%rbp), %xmm0
	.loc	1 516 38 is_stmt 0      # wcclibm.c:516:38
	movss	%xmm0, -60(%rbp)        # 4-byte Spill
	leaq	-44(%rbp), %rdi
	movl	$12, %esi
	movl	$4, %edx
	callq	_KLoad0
	movss	-44(%rbp), %xmm0
	movss	%xmm0, -64(%rbp)        # 4-byte Spill
	movl	$11, %edi
	movl	$11, %esi
	xorl	%edx, %edx
	callq	_KTimestamp1
	movl	$12, %edi
	movl	$12, %esi
	xorl	%edx, %edx
	callq	_KTimestamp1
	movabsq	$-6549809529114043180, %rdi # imm = 0xA51A66EF86B05CD4
	xorl	%esi, %esi
	callq	_KPrepCall
	callq	_KEnqArgConst
	movl	$12, %edi
	callq	_KEnqArg
	movl	$11, %edi
	callq	_KEnqArg
	movl	$13, %edi
	callq	_KLinkReturn
	movl	$1, %edi
	.loc	1 516 19                # wcclibm.c:516:19
	movss	-60(%rbp), %xmm0        # 4-byte Reload
	movss	-64(%rbp), %xmm1        # 4-byte Reload
	callq	__kernel_sinf
	.loc	1 516 18                # wcclibm.c:516:18
	xorps	.LCPI6_0(%rip), %xmm0
	movss	%xmm0, -60(%rbp)        # 4-byte Spill
	movl	$3, (%rsp)
	movl	$20, %r12d
	movl	$20, %edi
	movl	$13, %esi
	jmp	.LBB6_12
.LBB6_6:                                # %if.else3
	testl	%ebx, %ebx
	jne	.LBB6_11
# BB#7:                                 # %sw.bb
	callq	_KPushCDep
	movl	$8, %edi
	callq	_KWork
	leaq	-48(%rbp), %rdi
	movl	$5, %esi
	movl	$4, %edx
	callq	_KLoad0
	.loc	1 514 33 is_stmt 1      # wcclibm.c:514:33
	movss	-48(%rbp), %xmm0
	.loc	1 514 38 is_stmt 0      # wcclibm.c:514:38
	movss	%xmm0, -60(%rbp)        # 4-byte Spill
	leaq	-44(%rbp), %rdi
	movl	$6, %esi
	movl	$4, %edx
	callq	_KLoad0
	movss	-44(%rbp), %xmm0
	movss	%xmm0, -64(%rbp)        # 4-byte Spill
	movl	$5, %edi
	movl	$5, %esi
	xorl	%edx, %edx
	callq	_KTimestamp1
	movabsq	$-1608884746996710279, %rdi # imm = 0xE9AC17D8CAB78479
	xorl	%esi, %esi
	callq	_KPrepCall
	callq	_KEnqArgConst
	movl	$6, %edi
	movl	$6, %esi
	xorl	%edx, %edx
	callq	_KTimestamp1
	movl	$6, %edi
	callq	_KEnqArg
	movl	$5, %edi
	callq	_KEnqArg
	movl	$7, %r12d
	movl	$7, %edi
	callq	_KLinkReturn
	movl	$1, %edi
	.loc	1 514 19                # wcclibm.c:514:19
	movss	-60(%rbp), %xmm0        # 4-byte Reload
	movss	-64(%rbp), %xmm1        # 4-byte Reload
	callq	__kernel_sinf
	movss	%xmm0, -60(%rbp)        # 4-byte Spill
	movl	$7, %edi
	movl	$7, %esi
.LBB6_9:                                # %return
	xorl	%edx, %edx
	callq	_KTimestamp1
	jmp	.LBB6_13
.LBB6_11:                               # %sw.default
	callq	_KPushCDep
	movl	$10, %edi
	callq	_KWork
	leaq	-48(%rbp), %rdi
	movl	$14, %esi
	movl	$4, %edx
	callq	_KLoad0
	.loc	1 518 26 is_stmt 1      # wcclibm.c:518:26
	movss	-48(%rbp), %xmm0
	.loc	1 518 31 is_stmt 0      # wcclibm.c:518:31
	movss	%xmm0, -60(%rbp)        # 4-byte Spill
	leaq	-44(%rbp), %rdi
	movl	$15, %esi
	movl	$4, %edx
	callq	_KLoad0
	movss	-44(%rbp), %xmm0
	movss	%xmm0, -64(%rbp)        # 4-byte Spill
	movl	$15, %edi
	movl	$15, %esi
	xorl	%edx, %edx
	callq	_KTimestamp1
	movabsq	$-3276229789096965463, %rdi # imm = 0xD2887E5D72528AA9
	xorl	%esi, %esi
	callq	_KPrepCall
	movl	$15, %edi
	callq	_KEnqArg
	movl	$14, %edi
	movl	$14, %esi
	xorl	%edx, %edx
	callq	_KTimestamp1
	movl	$14, %edi
	callq	_KEnqArg
	movl	$16, %edi
	callq	_KLinkReturn
	.loc	1 518 12                # wcclibm.c:518:12
	movss	-60(%rbp), %xmm0        # 4-byte Reload
	movss	-64(%rbp), %xmm1        # 4-byte Reload
	callq	__kernel_cosf
	.loc	1 518 11                # wcclibm.c:518:11
	xorps	.LCPI6_0(%rip), %xmm0
	movss	%xmm0, -60(%rbp)        # 4-byte Spill
	movl	$3, (%rsp)
	movl	$19, %r12d
	movl	$19, %edi
	movl	$16, %esi
.Ltmp362:
.LBB6_12:                               # %return
	movl	$2, %edx
	movl	$2, %ecx
	movl	$6, %r8d
	movl	$4, %r9d
	callq	_KTimestamp3
.LBB6_13:                               # %return
	callq	_KPopCDep
	movl	$22, %r13d
.LBB6_14:                               # %return
	#DEBUG_VALUE: __sinf:z <- 0.000000e+00
	movl	$17, %edi
	movl	$21, %edx
	movl	%r12d, %esi
	movl	%r13d, %ecx
	movl	%r15d, %r8d
	callq	_KPhi3To1
	movl	$17, %edi
	movl	$17, %esi
	xorl	%edx, %edx
	callq	_KTimestamp1
	movl	$17, %edi
	callq	_KReturn
	xorl	%esi, %esi
	movq	%r14, %rdi
	callq	_KExitRegion
	.loc	1 521 1 is_stmt 1       # wcclibm.c:521:1
	movss	-60(%rbp), %xmm0        # 4-byte Reload
	addq	$40, %rsp
	popq	%rbx
	popq	%r12
	popq	%r13
	popq	%r14
	popq	%r15
	popq	%rbp
	retq
.Ltmp363:
.Ltmp364:
	.size	__sinf, .Ltmp364-__sinf
.Lfunc_end6:
	.cfi_endproc

	.type	npio2_hw,@object        # @npio2_hw
	.section	.rodata,"a",@progbits
	.align	16
npio2_hw:
	.long	1070141184              # 0x3fc90f00
	.long	1078529792              # 0x40490f00
	.long	1083624192              # 0x4096cb00
	.long	1086918400              # 0x40c90f00
	.long	1090212608              # 0x40fb5300
	.long	1092012800              # 0x4116cb00
	.long	1093659904              # 0x412fed00
	.long	1095307008              # 0x41490f00
	.long	1096954112              # 0x41623100
	.long	1098601216              # 0x417b5300
	.long	1099577856              # 0x418a3a00
	.long	1100401408              # 0x4196cb00
	.long	1101224960              # 0x41a35c00
	.long	1102048512              # 0x41afed00
	.long	1102872064              # 0x41bc7e00
	.long	1103695616              # 0x41c90f00
	.long	1104519168              # 0x41d5a000
	.long	1105342720              # 0x41e23100
	.long	1106166272              # 0x41eec200
	.long	1106989824              # 0x41fb5300
	.long	1107554816              # 0x4203f200
	.long	1107966464              # 0x420a3a00
	.long	1108378368              # 0x42108300
	.long	1108790016              # 0x4216cb00
	.long	1109201920              # 0x421d1400
	.long	1109613568              # 0x42235c00
	.long	1110025472              # 0x4229a500
	.long	1110437120              # 0x422fed00
	.long	1110849024              # 0x42363600
	.long	1111260672              # 0x423c7e00
	.long	1111672576              # 0x4242c700
	.long	1112084224              # 0x42490f00
	.size	npio2_hw, 128

	.type	atanhi,@object          # @atanhi
	.align	16
atanhi:
	.long	1055744824              # float 4.636476e-01
	.long	1061752794              # float 7.853981e-01
	.long	1065064542              # float 9.827937e-01
	.long	1070141402              # float 1.570796e+00
	.size	atanhi, 16

	.type	atanlo,@object          # @atanlo
	.align	16
atanlo:
	.long	833369961               # float 5.012158e-09
	.long	857874792               # float 3.774895e-08
	.long	856952756               # float 3.447322e-08
	.long	866263400               # float 7.549789e-08
	.size	atanlo, 16

	.type	aT,@object              # @aT
	.align	16
aT:
	.long	1051372203              # float 3.333333e-01
	.long	3192704205              # float -2.000000e-01
	.long	1041385765              # float 1.428571e-01
	.long	3185806904              # float -1.111111e-01
	.long	1035611758              # float 9.090887e-02
	.long	3181217685              # float -7.691876e-02
	.long	1032350517              # float 6.661073e-02
	.long	3178164587              # float -5.833570e-02
	.long	1028381273              # float 4.976878e-02
	.long	3172311585              # float -3.653157e-02
	.long	1015376343              # float 1.628582e-02
	.size	aT, 44

	.type	krem_prefix17164cfa642444a8_krem_callsiteId_krem_wcclibm.c_krem___ieee754_rem_pio2f_krem_146_krem_146_krem_,@object # @krem_prefix17164cfa642444a8_krem_callsiteId_krem_wcclibm.c_krem___ieee754_rem_pio2f_krem_146_krem_146_krem_
	.bss
	.globl	krem_prefix17164cfa642444a8_krem_callsiteId_krem_wcclibm.c_krem___ieee754_rem_pio2f_krem_146_krem_146_krem_
krem_prefix17164cfa642444a8_krem_callsiteId_krem_wcclibm.c_krem___ieee754_rem_pio2f_krem_146_krem_146_krem_:
	.byte	0                       # 0x0
	.size	krem_prefix17164cfa642444a8_krem_callsiteId_krem_wcclibm.c_krem___ieee754_rem_pio2f_krem_146_krem_146_krem_, 1

	.type	krem_prefix55e9796937bbf737_krem_callsiteId_krem_wcclibm.c_krem___atanf_krem_395_krem_395_krem_,@object # @krem_prefix55e9796937bbf737_krem_callsiteId_krem_wcclibm.c_krem___atanf_krem_395_krem_395_krem_
	.globl	krem_prefix55e9796937bbf737_krem_callsiteId_krem_wcclibm.c_krem___atanf_krem_395_krem_395_krem_
krem_prefix55e9796937bbf737_krem_callsiteId_krem_wcclibm.c_krem___atanf_krem_395_krem_395_krem_:
	.byte	0                       # 0x0
	.size	krem_prefix55e9796937bbf737_krem_callsiteId_krem_wcclibm.c_krem___atanf_krem_395_krem_395_krem_, 1

	.type	krem_prefix06c291cd462334f8_krem_callsiteId_krem_wcclibm.c_krem___cosf_krem_458_krem_458_krem_,@object # @krem_prefix06c291cd462334f8_krem_callsiteId_krem_wcclibm.c_krem___cosf_krem_458_krem_458_krem_
	.globl	krem_prefix06c291cd462334f8_krem_callsiteId_krem_wcclibm.c_krem___cosf_krem_458_krem_458_krem_
krem_prefix06c291cd462334f8_krem_callsiteId_krem_wcclibm.c_krem___cosf_krem_458_krem_458_krem_:
	.byte	0                       # 0x0
	.size	krem_prefix06c291cd462334f8_krem_callsiteId_krem_wcclibm.c_krem___cosf_krem_458_krem_458_krem_, 1

	.type	krem_prefixa67ac1fe0179d7c8_krem_callsiteId_krem_wcclibm.c_krem___cosf_krem_465_krem_465_krem_,@object # @krem_prefixa67ac1fe0179d7c8_krem_callsiteId_krem_wcclibm.c_krem___cosf_krem_465_krem_465_krem_
	.globl	krem_prefixa67ac1fe0179d7c8_krem_callsiteId_krem_wcclibm.c_krem___cosf_krem_465_krem_465_krem_
krem_prefixa67ac1fe0179d7c8_krem_callsiteId_krem_wcclibm.c_krem___cosf_krem_465_krem_465_krem_:
	.byte	0                       # 0x0
	.size	krem_prefixa67ac1fe0179d7c8_krem_callsiteId_krem_wcclibm.c_krem___cosf_krem_465_krem_465_krem_, 1

	.type	krem_prefixd558bf5852ad7a81_krem_callsiteId_krem_wcclibm.c_krem___cosf_krem_467_krem_467_krem_,@object # @krem_prefixd558bf5852ad7a81_krem_callsiteId_krem_wcclibm.c_krem___cosf_krem_467_krem_467_krem_
	.globl	krem_prefixd558bf5852ad7a81_krem_callsiteId_krem_wcclibm.c_krem___cosf_krem_467_krem_467_krem_
krem_prefixd558bf5852ad7a81_krem_callsiteId_krem_wcclibm.c_krem___cosf_krem_467_krem_467_krem_:
	.byte	0                       # 0x0
	.size	krem_prefixd558bf5852ad7a81_krem_callsiteId_krem_wcclibm.c_krem___cosf_krem_467_krem_467_krem_, 1

	.type	krem_prefixb3160427470d9877_krem_callsiteId_krem_wcclibm.c_krem___cosf_krem_468_krem_468_krem_,@object # @krem_prefixb3160427470d9877_krem_callsiteId_krem_wcclibm.c_krem___cosf_krem_468_krem_468_krem_
	.globl	krem_prefixb3160427470d9877_krem_callsiteId_krem_wcclibm.c_krem___cosf_krem_468_krem_468_krem_
krem_prefixb3160427470d9877_krem_callsiteId_krem_wcclibm.c_krem___cosf_krem_468_krem_468_krem_:
	.byte	0                       # 0x0
	.size	krem_prefixb3160427470d9877_krem_callsiteId_krem_wcclibm.c_krem___cosf_krem_468_krem_468_krem_, 1

	.type	krem_prefix44eff82745d388ee_krem_callsiteId_krem_wcclibm.c_krem___cosf_krem_469_krem_469_krem_,@object # @krem_prefix44eff82745d388ee_krem_callsiteId_krem_wcclibm.c_krem___cosf_krem_469_krem_469_krem_
	.globl	krem_prefix44eff82745d388ee_krem_callsiteId_krem_wcclibm.c_krem___cosf_krem_469_krem_469_krem_
krem_prefix44eff82745d388ee_krem_callsiteId_krem_wcclibm.c_krem___cosf_krem_469_krem_469_krem_:
	.byte	0                       # 0x0
	.size	krem_prefix44eff82745d388ee_krem_callsiteId_krem_wcclibm.c_krem___cosf_krem_469_krem_469_krem_, 1

	.type	krem_prefixae57fafb1c36f6bc_krem_callsiteId_krem_wcclibm.c_krem___cosf_krem_471_krem_471_krem_,@object # @krem_prefixae57fafb1c36f6bc_krem_callsiteId_krem_wcclibm.c_krem___cosf_krem_471_krem_471_krem_
	.globl	krem_prefixae57fafb1c36f6bc_krem_callsiteId_krem_wcclibm.c_krem___cosf_krem_471_krem_471_krem_
krem_prefixae57fafb1c36f6bc_krem_callsiteId_krem_wcclibm.c_krem___cosf_krem_471_krem_471_krem_:
	.byte	0                       # 0x0
	.size	krem_prefixae57fafb1c36f6bc_krem_callsiteId_krem_wcclibm.c_krem___cosf_krem_471_krem_471_krem_, 1

	.type	krem_prefix34b33a32df17036d_krem_callsiteId_krem_wcclibm.c_krem___sinf_krem_505_krem_505_krem_,@object # @krem_prefix34b33a32df17036d_krem_callsiteId_krem_wcclibm.c_krem___sinf_krem_505_krem_505_krem_
	.globl	krem_prefix34b33a32df17036d_krem_callsiteId_krem_wcclibm.c_krem___sinf_krem_505_krem_505_krem_
krem_prefix34b33a32df17036d_krem_callsiteId_krem_wcclibm.c_krem___sinf_krem_505_krem_505_krem_:
	.byte	0                       # 0x0
	.size	krem_prefix34b33a32df17036d_krem_callsiteId_krem_wcclibm.c_krem___sinf_krem_505_krem_505_krem_, 1

	.type	krem_prefix5502b3b6cb992580_krem_callsiteId_krem_wcclibm.c_krem___sinf_krem_512_krem_512_krem_,@object # @krem_prefix5502b3b6cb992580_krem_callsiteId_krem_wcclibm.c_krem___sinf_krem_512_krem_512_krem_
	.globl	krem_prefix5502b3b6cb992580_krem_callsiteId_krem_wcclibm.c_krem___sinf_krem_512_krem_512_krem_
krem_prefix5502b3b6cb992580_krem_callsiteId_krem_wcclibm.c_krem___sinf_krem_512_krem_512_krem_:
	.byte	0                       # 0x0
	.size	krem_prefix5502b3b6cb992580_krem_callsiteId_krem_wcclibm.c_krem___sinf_krem_512_krem_512_krem_, 1

	.type	krem_prefixe9ac17d8cab78479_krem_callsiteId_krem_wcclibm.c_krem___sinf_krem_514_krem_514_krem_,@object # @krem_prefixe9ac17d8cab78479_krem_callsiteId_krem_wcclibm.c_krem___sinf_krem_514_krem_514_krem_
	.globl	krem_prefixe9ac17d8cab78479_krem_callsiteId_krem_wcclibm.c_krem___sinf_krem_514_krem_514_krem_
krem_prefixe9ac17d8cab78479_krem_callsiteId_krem_wcclibm.c_krem___sinf_krem_514_krem_514_krem_:
	.byte	0                       # 0x0
	.size	krem_prefixe9ac17d8cab78479_krem_callsiteId_krem_wcclibm.c_krem___sinf_krem_514_krem_514_krem_, 1

	.type	krem_prefixf602bbf0692644e8_krem_callsiteId_krem_wcclibm.c_krem___sinf_krem_515_krem_515_krem_,@object # @krem_prefixf602bbf0692644e8_krem_callsiteId_krem_wcclibm.c_krem___sinf_krem_515_krem_515_krem_
	.globl	krem_prefixf602bbf0692644e8_krem_callsiteId_krem_wcclibm.c_krem___sinf_krem_515_krem_515_krem_
krem_prefixf602bbf0692644e8_krem_callsiteId_krem_wcclibm.c_krem___sinf_krem_515_krem_515_krem_:
	.byte	0                       # 0x0
	.size	krem_prefixf602bbf0692644e8_krem_callsiteId_krem_wcclibm.c_krem___sinf_krem_515_krem_515_krem_, 1

	.type	krem_prefixa51a66ef86b05cd4_krem_callsiteId_krem_wcclibm.c_krem___sinf_krem_516_krem_516_krem_,@object # @krem_prefixa51a66ef86b05cd4_krem_callsiteId_krem_wcclibm.c_krem___sinf_krem_516_krem_516_krem_
	.globl	krem_prefixa51a66ef86b05cd4_krem_callsiteId_krem_wcclibm.c_krem___sinf_krem_516_krem_516_krem_
krem_prefixa51a66ef86b05cd4_krem_callsiteId_krem_wcclibm.c_krem___sinf_krem_516_krem_516_krem_:
	.byte	0                       # 0x0
	.size	krem_prefixa51a66ef86b05cd4_krem_callsiteId_krem_wcclibm.c_krem___sinf_krem_516_krem_516_krem_, 1

	.type	krem_prefixd2887e5d72528aa9_krem_callsiteId_krem_wcclibm.c_krem___sinf_krem_518_krem_518_krem_,@object # @krem_prefixd2887e5d72528aa9_krem_callsiteId_krem_wcclibm.c_krem___sinf_krem_518_krem_518_krem_
	.globl	krem_prefixd2887e5d72528aa9_krem_callsiteId_krem_wcclibm.c_krem___sinf_krem_518_krem_518_krem_
krem_prefixd2887e5d72528aa9_krem_callsiteId_krem_wcclibm.c_krem___sinf_krem_518_krem_518_krem_:
	.byte	0                       # 0x0
	.size	krem_prefixd2887e5d72528aa9_krem_callsiteId_krem_wcclibm.c_krem___sinf_krem_518_krem_518_krem_, 1

	.type	krem_prefix0be59e292f9e840f_krem_func_krem_wcclibm.c_krem___fabsf_krem_544_krem_544_krem_,@object # @krem_prefix0be59e292f9e840f_krem_func_krem_wcclibm.c_krem___fabsf_krem_544_krem_544_krem_
	.globl	krem_prefix0be59e292f9e840f_krem_func_krem_wcclibm.c_krem___fabsf_krem_544_krem_544_krem_
krem_prefix0be59e292f9e840f_krem_func_krem_wcclibm.c_krem___fabsf_krem_544_krem_544_krem_:
	.byte	0                       # 0x0
	.size	krem_prefix0be59e292f9e840f_krem_func_krem_wcclibm.c_krem___fabsf_krem_544_krem_544_krem_, 1

	.type	krem_prefix23cb6c7539e63a6b_krem_func_krem_wcclibm.c_krem___sinf_krem_492_krem_492_krem_,@object # @krem_prefix23cb6c7539e63a6b_krem_func_krem_wcclibm.c_krem___sinf_krem_492_krem_492_krem_
	.globl	krem_prefix23cb6c7539e63a6b_krem_func_krem_wcclibm.c_krem___sinf_krem_492_krem_492_krem_
krem_prefix23cb6c7539e63a6b_krem_func_krem_wcclibm.c_krem___sinf_krem_492_krem_492_krem_:
	.byte	0                       # 0x0
	.size	krem_prefix23cb6c7539e63a6b_krem_func_krem_wcclibm.c_krem___sinf_krem_492_krem_492_krem_, 1

	.type	krem_prefix240730858cc6f66f_krem_func_krem_wcclibm.c_krem___cosf_krem_445_krem_445_krem_,@object # @krem_prefix240730858cc6f66f_krem_func_krem_wcclibm.c_krem___cosf_krem_445_krem_445_krem_
	.globl	krem_prefix240730858cc6f66f_krem_func_krem_wcclibm.c_krem___cosf_krem_445_krem_445_krem_
krem_prefix240730858cc6f66f_krem_func_krem_wcclibm.c_krem___cosf_krem_445_krem_445_krem_:
	.byte	0                       # 0x0
	.size	krem_prefix240730858cc6f66f_krem_func_krem_wcclibm.c_krem___cosf_krem_445_krem_445_krem_, 1

	.type	krem_prefix297bf46c5e5256dd_krem_func_krem_wcclibm.c_krem___kernel_sinf_krem_286_krem_286_krem_,@object # @krem_prefix297bf46c5e5256dd_krem_func_krem_wcclibm.c_krem___kernel_sinf_krem_286_krem_286_krem_
	.globl	krem_prefix297bf46c5e5256dd_krem_func_krem_wcclibm.c_krem___kernel_sinf_krem_286_krem_286_krem_
krem_prefix297bf46c5e5256dd_krem_func_krem_wcclibm.c_krem___kernel_sinf_krem_286_krem_286_krem_:
	.byte	0                       # 0x0
	.size	krem_prefix297bf46c5e5256dd_krem_func_krem_wcclibm.c_krem___kernel_sinf_krem_286_krem_286_krem_, 1

	.type	krem_prefix2f98087929819077_krem_func_krem_wcclibm.c_krem___ieee754_rem_pio2f_krem_106_krem_106_krem_,@object # @krem_prefix2f98087929819077_krem_func_krem_wcclibm.c_krem___ieee754_rem_pio2f_krem_106_krem_106_krem_
	.globl	krem_prefix2f98087929819077_krem_func_krem_wcclibm.c_krem___ieee754_rem_pio2f_krem_106_krem_106_krem_
krem_prefix2f98087929819077_krem_func_krem_wcclibm.c_krem___ieee754_rem_pio2f_krem_106_krem_106_krem_:
	.byte	0                       # 0x0
	.size	krem_prefix2f98087929819077_krem_func_krem_wcclibm.c_krem___ieee754_rem_pio2f_krem_106_krem_106_krem_, 1

	.type	krem_prefix95dc043dfff784fe_krem_func_krem_wcclibm.c_krem___atanf_krem_373_krem_373_krem_,@object # @krem_prefix95dc043dfff784fe_krem_func_krem_wcclibm.c_krem___atanf_krem_373_krem_373_krem_
	.globl	krem_prefix95dc043dfff784fe_krem_func_krem_wcclibm.c_krem___atanf_krem_373_krem_373_krem_
krem_prefix95dc043dfff784fe_krem_func_krem_wcclibm.c_krem___atanf_krem_373_krem_373_krem_:
	.byte	0                       # 0x0
	.size	krem_prefix95dc043dfff784fe_krem_func_krem_wcclibm.c_krem___atanf_krem_373_krem_373_krem_, 1

	.type	krem_prefixa14d2375c81d2a11_krem_func_krem_wcclibm.c_krem___kernel_cosf_krem_223_krem_223_krem_,@object # @krem_prefixa14d2375c81d2a11_krem_func_krem_wcclibm.c_krem___kernel_cosf_krem_223_krem_223_krem_
	.globl	krem_prefixa14d2375c81d2a11_krem_func_krem_wcclibm.c_krem___kernel_cosf_krem_223_krem_223_krem_
krem_prefixa14d2375c81d2a11_krem_func_krem_wcclibm.c_krem___kernel_cosf_krem_223_krem_223_krem_:
	.byte	0                       # 0x0
	.size	krem_prefixa14d2375c81d2a11_krem_func_krem_wcclibm.c_krem___kernel_cosf_krem_223_krem_223_krem_, 1

	.section	.rodata,"a",@progbits
.Ldebug_end0:
	.text
.Ldebug_end1:
	.section	".note.GNU-stack","",@progbits