	.text
	.file	"epic.simplifycfg.mem2reg.indvars.elimsinglephis.criticalpath.regioninstrument.renamemain.O3.bc"
	.section	.rodata.cst4,"aM",@progbits,4
	.align	4
.LCPI0_0:
	.long	1124073472              # float 128
	.text
	.globl	epic_init
	.align	16, 0x90
	.type	epic_init,@function
epic_init:                              # @epic_init
.Lfunc_begin0:
	.loc	1 626 0                 # epic.c:626:0
	.cfi_startproc
# BB#0:                                 # %entry
	pushq	%rbp
.Ltmp0:
	.cfi_def_cfa_offset 16
.Ltmp1:
	.cfi_offset %rbp, -16
	movq	%rsp, %rbp
.Ltmp2:
	.cfi_def_cfa_register %rbp
	pushq	%r15
	pushq	%r14
	pushq	%r13
	pushq	%r12
	pushq	%rbx
	pushq	%rax
.Ltmp3:
	.cfi_offset %rbx, -56
.Ltmp4:
	.cfi_offset %r12, -48
.Ltmp5:
	.cfi_offset %r13, -40
.Ltmp6:
	.cfi_offset %r14, -32
.Ltmp7:
	.cfi_offset %r15, -24
	movabsq	$5244683534312883008, %r15 # imm = 0x48C8DBE30E0F4340
	movabsq	$4984329298741991596, %r14 # imm = 0x452BE516CF1698AC
	xorl	%ebx, %ebx
	xorl	%esi, %esi
	movq	%r14, %rdi
	callq	_KEnterRegion
	movl	$5, %edi
	movl	$2, %esi
	callq	_KPrepRTable
.Ltmp8:
	#DEBUG_VALUE: epic_init:i <- 0
	movl	$4, %edi
	callq	_KInduction
	movl	$1, %esi
	movq	%r15, %rdi
	callq	_KEnterRegion
	movl	$1, %edi
	callq	_KWork
	movl	$3, %edi
	movl	$4, %esi
	movl	$1, %edx
	callq	_KTimestamp1
	movabsq	$-1630134942111281980, %r12 # imm = 0xE96098E82F814CC4
	.align	16, 0x90
.LBB0_1:                                # %for.body
                                        # =>This Inner Loop Header: Depth=1
	#DEBUG_VALUE: epic_init:i <- 0
	movl	$2, %esi
	movq	%r12, %rdi
	callq	_KEnterRegion
	movl	$3, %edi
	callq	_KPushCDep
	movl	$10, %edi
	callq	_KWork
	leaq	epic_image(%rbx), %r13
	movl	$1, %esi
	movl	$4, %edx
	movq	%r13, %rdi
	callq	_KLoad0
	movss	epic_image(%rbx), %xmm0
	.loc	1 631 5 prologue_end    # epic.c:631:5
.Ltmp9:
	mulss	.LCPI0_0(%rip), %xmm0
	movss	%xmm0, -44(%rbp)        # 4-byte Spill
	movl	$2, %edi
	movl	$3, %esi
	movl	$5, %edx
	movl	$1, %ecx
	movl	$5, %r8d
	callq	_KTimestamp2
	movl	$2, %edi
	movl	$4, %edx
	movq	%r13, %rsi
	callq	_KStore
	movss	-44(%rbp), %xmm0        # 4-byte Reload
	movss	%xmm0, epic_image(%rbx)
	callq	_KPopCDep
	movl	$2, %esi
	movq	%r12, %rdi
	callq	_KExitRegion
	movl	$1, %edi
	callq	_KWork
	movl	$3, %edi
	movl	$4, %esi
	movl	$1, %edx
	callq	_KTimestamp1
.Ltmp10:
	.loc	1 630 3                 # epic.c:630:3
	addq	$4, %rbx
	cmpq	$16384, %rbx            # imm = 0x4000
	jne	.LBB0_1
.Ltmp11:
# BB#2:                                 # %for.cond.pre_exit.for.end
	#DEBUG_VALUE: epic_init:i <- 0
	movl	$1, %esi
	movq	%r15, %rdi
	callq	_KExitRegion
	xorl	%esi, %esi
	movq	%r14, %rdi
	addq	$8, %rsp
	popq	%rbx
	popq	%r12
	popq	%r13
	popq	%r14
	popq	%r15
	popq	%rbp
	jmp	_KExitRegion            # TAILCALL
.Ltmp12:
	.size	epic_init, .Ltmp12-epic_init
.Lfunc_end0:
	.cfi_endproc

	.globl	epic_build_pyr
	.align	16, 0x90
	.type	epic_build_pyr,@function
epic_build_pyr:                         # @epic_build_pyr
.Lfunc_begin1:
	.loc	1 648 0                 # epic.c:648:0
	.cfi_startproc
# BB#0:                                 # %entry
	pushq	%rbp
.Ltmp13:
	.cfi_def_cfa_offset 16
.Ltmp14:
	.cfi_offset %rbp, -16
	movq	%rsp, %rbp
.Ltmp15:
	.cfi_def_cfa_register %rbp
	pushq	%r15
	pushq	%r14
	pushq	%r13
	pushq	%r12
	pushq	%rbx
	subq	$56, %rsp
.Ltmp16:
	.cfi_offset %rbx, -56
.Ltmp17:
	.cfi_offset %r12, -48
.Ltmp18:
	.cfi_offset %r13, -40
.Ltmp19:
	.cfi_offset %r14, -32
.Ltmp20:
	.cfi_offset %r15, -24
	#DEBUG_VALUE: epic_build_pyr:image <- RDI
	#DEBUG_VALUE: epic_build_pyr:x_size <- ESI
	#DEBUG_VALUE: epic_build_pyr:y_size <- EDX
	#DEBUG_VALUE: epic_build_pyr:num_levels <- ECX
	#DEBUG_VALUE: epic_build_pyr:lo_filter <- R8
	#DEBUG_VALUE: epic_build_pyr:hi_filter <- R9
.Ltmp21:
	#DEBUG_VALUE: epic_build_pyr:x_level <- ESI
	#DEBUG_VALUE: epic_build_pyr:y_level <- EDX
	movq	%r9, -64(%rbp)          # 8-byte Spill
.Ltmp22:
	#DEBUG_VALUE: epic_build_pyr:hi_filter <- [RBP+-64]
	movq	%r8, -72(%rbp)          # 8-byte Spill
.Ltmp23:
	#DEBUG_VALUE: epic_build_pyr:lo_filter <- [RBP+-72]
	movl	%ecx, -52(%rbp)         # 4-byte Spill
.Ltmp24:
	#DEBUG_VALUE: epic_build_pyr:num_levels <- [RBP+-52]
	movl	%edx, %r13d
.Ltmp25:
	#DEBUG_VALUE: epic_build_pyr:y_level <- R13D
	#DEBUG_VALUE: epic_build_pyr:y_size <- R13D
	movl	%esi, %r12d
.Ltmp26:
	#DEBUG_VALUE: epic_build_pyr:x_level <- R12D
	#DEBUG_VALUE: epic_build_pyr:x_size <- R12D
	movq	%rdi, -80(%rbp)         # 8-byte Spill
	#DEBUG_VALUE: epic_build_pyr:filter_size <- undef
.Ltmp27:
	#DEBUG_VALUE: epic_build_pyr:image <- [RBP+-80]
	movabsq	$-782510612767696714, %rdi # imm = 0xF523F6BE5D0218B6
	movabsq	$4747958770799072192, %r15 # imm = 0x41E42358A5ADD3C0
	xorl	%ebx, %ebx
	xorl	%esi, %esi
	callq	_KEnterRegion
	movl	$2, -44(%rbp)           # 4-byte Folded Spill
	movl	$11, %edi
	movl	$2, %esi
	callq	_KPrepRTable
	movl	$4, %edi
	callq	_KDeqArg
	movl	$3, %edi
	callq	_KDeqArg
	movl	$2, %edi
	callq	_KDeqArg
	movl	$1, -48(%rbp)           # 4-byte Folded Spill
	movl	$1, %edi
	callq	_KDeqArg
.Ltmp28:
	#DEBUG_VALUE: epic_build_pyr:level <- 0
	movl	$9, %edi
	callq	_KInduction
	movl	$2, %edi
	movl	$2, %esi
	xorl	%edx, %edx
	callq	_KTimestamp1
	movl	$1, %edi
	movl	$1, %esi
	xorl	%edx, %edx
	callq	_KTimestamp1
	movl	$1, %esi
	movq	%r15, %rdi
	movl	%r12d, %r15d
.Ltmp29:
	#DEBUG_VALUE: epic_build_pyr:x_level <- R15D
	#DEBUG_VALUE: epic_build_pyr:x_size <- R15D
	callq	_KEnterRegion
	movl	$-1, %r12d
	movabsq	$-6173693808851565320, %r14 # imm = 0xAA52A230C35FC4F8
	jmp	.LBB1_1
.Ltmp30:
	.align	16, 0x90
.LBB1_2:                                # %for.body
                                        #   in Loop: Header=BB1_1 Depth=1
	#DEBUG_VALUE: epic_build_pyr:image <- [RBP+-80]
	#DEBUG_VALUE: epic_build_pyr:num_levels <- [RBP+-52]
	#DEBUG_VALUE: epic_build_pyr:lo_filter <- [RBP+-72]
	#DEBUG_VALUE: epic_build_pyr:hi_filter <- [RBP+-64]
	#DEBUG_VALUE: epic_build_pyr:filter_size <- undef
	#DEBUG_VALUE: epic_build_pyr:level <- 0
	movl	$2, %esi
	movq	%r14, %rdi
	callq	_KEnterRegion
	movl	$8, %ebx
	movl	$8, %edi
	callq	_KPushCDep
	xorl	%esi, %esi
	movabsq	$871096775927423790, %rdi # imm = 0xC16C1E70624632E
	callq	_KPrepCall
	movl	$4, %edi
	movl	$4, %esi
	xorl	%edx, %edx
	callq	_KTimestamp1
	movl	$4, %edi
	callq	_KEnqArg
	movl	$6, %edi
	callq	_KEnqArg
	movl	$5, %edi
	callq	_KEnqArg
	movl	$20, %edi
	callq	_KWork
	movq	-80(%rbp), %rdi         # 8-byte Reload
.Ltmp31:
	#DEBUG_VALUE: epic_build_pyr:image <- RDI
	.loc	1 656 5 prologue_end    # epic.c:656:5
	movq	%rdi, (%rsp)
.Ltmp32:
	#DEBUG_VALUE: epic_build_pyr:image <- [RBP+-80]
	movl	%r15d, %esi
	movl	%r13d, %edx
	movq	-72(%rbp), %rcx         # 8-byte Reload
	movq	-64(%rbp), %r8          # 8-byte Reload
	movl	16(%rbp), %r9d
	callq	epic_build_level
	movl	%r15d, %eax
	.loc	1 658 5                 # epic.c:658:5
                                        # kill: R15D<def> EAX<kill>
	shrl	$31, %r15d
	addl	%eax, %r15d
	sarl	%r15d
.Ltmp33:
	#DEBUG_VALUE: epic_build_pyr:x_level <- R15D
	movl	%r13d, %eax
	.loc	1 659 5                 # epic.c:659:5
                                        # kill: R13D<def> EAX<kill>
	shrl	$31, %r13d
	addl	%eax, %r13d
	sarl	%r13d
.Ltmp34:
	#DEBUG_VALUE: epic_build_pyr:y_level <- R13D
	movl	$10, -44(%rbp)          # 4-byte Folded Spill
	movl	$10, %edi
	movl	$6, %esi
	movl	$10, %edx
	movl	$8, %ecx
	movl	$10, %r8d
	callq	_KTimestamp2
	movl	$7, -48(%rbp)           # 4-byte Folded Spill
	movl	$7, %edi
	movl	$5, %esi
	movl	$10, %edx
	movl	$8, %ecx
	movl	$10, %r8d
	callq	_KTimestamp2
	callq	_KPopCDep
	movl	$2, %esi
	movq	%r14, %rdi
	callq	_KExitRegion
.Ltmp35:
.LBB1_1:                                # %for.cond
                                        # =>This Inner Loop Header: Depth=1
	#DEBUG_VALUE: epic_build_pyr:image <- [RBP+-80]
	#DEBUG_VALUE: epic_build_pyr:num_levels <- [RBP+-52]
	#DEBUG_VALUE: epic_build_pyr:lo_filter <- [RBP+-72]
	#DEBUG_VALUE: epic_build_pyr:hi_filter <- [RBP+-64]
	#DEBUG_VALUE: epic_build_pyr:filter_size <- undef
	#DEBUG_VALUE: epic_build_pyr:level <- 0
	movl	$6, %edi
	movl	-44(%rbp), %esi         # 4-byte Reload
	movl	%ebx, %edx
	callq	_KPhi1To1
	movl	$5, %edi
	movl	-48(%rbp), %esi         # 4-byte Reload
	movl	%ebx, %edx
	callq	_KPhi1To1
	movl	$1, %edi
	callq	_KWork
	movl	$6, %edi
	movl	$6, %esi
	xorl	%edx, %edx
	callq	_KTimestamp1
	movl	$5, %edi
	movl	$5, %esi
	xorl	%edx, %edx
	callq	_KTimestamp1
	movl	$8, %edi
	movl	$3, %esi
	movl	$1, %edx
	movl	$9, %ecx
	movl	$1, %r8d
	callq	_KTimestamp2
	movl	$6, %edi
	movl	$8, %esi
	callq	_KPhiAddCond
	movl	$5, %edi
	movl	$8, %esi
	callq	_KPhiAddCond
	.loc	1 655 21                # epic.c:655:21
	incl	%r12d
.Ltmp36:
	.loc	1 655 3 is_stmt 0       # epic.c:655:3
	cmpl	-52(%rbp), %r12d        # 4-byte Folded Reload
	jl	.LBB1_2
.Ltmp37:
# BB#3:                                 # %for.cond.pre_exit.for.end
	#DEBUG_VALUE: epic_build_pyr:level <- 0
	movl	$1, %esi
	movabsq	$4747958770799072192, %rdi # imm = 0x41E42358A5ADD3C0
	callq	_KExitRegion
	xorl	%esi, %esi
	movabsq	$-782510612767696714, %rdi # imm = 0xF523F6BE5D0218B6
	addq	$56, %rsp
	popq	%rbx
	popq	%r12
	popq	%r13
	popq	%r14
	popq	%r15
	popq	%rbp
	jmp	_KExitRegion            # TAILCALL
.Ltmp38:
	.size	epic_build_pyr, .Ltmp38-epic_build_pyr
.Lfunc_end1:
	.cfi_endproc

	.globl	epic_build_level
	.align	16, 0x90
	.type	epic_build_level,@function
epic_build_level:                       # @epic_build_level
.Lfunc_begin2:
	.loc	1 675 0 is_stmt 1       # epic.c:675:0
	.cfi_startproc
# BB#0:                                 # %entry
	pushq	%rbp
.Ltmp39:
	.cfi_def_cfa_offset 16
.Ltmp40:
	.cfi_offset %rbp, -16
	movq	%rsp, %rbp
.Ltmp41:
	.cfi_def_cfa_register %rbp
	pushq	%r15
	pushq	%r14
	pushq	%r13
	pushq	%r12
	pushq	%rbx
	subq	$72, %rsp
.Ltmp42:
	.cfi_offset %rbx, -56
.Ltmp43:
	.cfi_offset %r12, -48
.Ltmp44:
	.cfi_offset %r13, -40
.Ltmp45:
	.cfi_offset %r14, -32
.Ltmp46:
	.cfi_offset %r15, -24
	#DEBUG_VALUE: epic_build_level:image <- RDI
	#DEBUG_VALUE: epic_build_level:level_x_size <- ESI
	#DEBUG_VALUE: epic_build_level:level_y_size <- EDX
	#DEBUG_VALUE: epic_build_level:lo_filter <- RCX
	#DEBUG_VALUE: epic_build_level:hi_filter <- R8
	#DEBUG_VALUE: epic_build_level:filter_size <- R9D
	#DEBUG_VALUE: epic_build_level:result_block <- [RBP+16]
	movl	%r9d, %r13d
.Ltmp47:
	#DEBUG_VALUE: epic_build_level:filter_size <- R13D
	movl	%r13d, -60(%rbp)        # 4-byte Spill
	movq	%r8, -48(%rbp)          # 8-byte Spill
.Ltmp48:
	#DEBUG_VALUE: epic_build_level:hi_filter <- [RBP+-48]
	#DEBUG_VALUE: epic_build_level:hi_filter <- undef
	movq	%rcx, %r12
.Ltmp49:
	#DEBUG_VALUE: epic_build_level:lo_filter <- R12
	movq	%r12, -56(%rbp)         # 8-byte Spill
	movl	%edx, %ebx
.Ltmp50:
	#DEBUG_VALUE: epic_build_level:level_y_size <- EBX
	movl	%esi, %r14d
.Ltmp51:
	#DEBUG_VALUE: epic_build_level:level_x_size <- R14D
	movq	%rdi, %r15
.Ltmp52:
	#DEBUG_VALUE: epic_build_level:image <- R15
	movabsq	$-1578140378276879459, %rdi # imm = 0xEA1951AFF31B239D
	xorl	%esi, %esi
	callq	_KEnterRegion
	movl	$6, %edi
	xorl	%esi, %esi
	callq	_KPrepRTable
	movl	$52, %edi
	callq	_KWork
	movl	$3, %edi
	callq	_KDeqArg
	movl	$2, %edi
	callq	_KDeqArg
	movl	$1, %edi
	callq	_KDeqArg
	.loc	1 676 20 prologue_end   # epic.c:676:20
.Ltmp53:
	movl	%ebx, %eax
	imull	%r14d, %eax
.Ltmp54:
	#DEBUG_VALUE: epic_build_level:total_size <- EAX
	movl	%eax, -64(%rbp)         # 4-byte Spill
.Ltmp55:
	#DEBUG_VALUE: epic_build_level:total_size <- [RBP+-64]
	movl	$1, %edi
	movl	$1, %esi
	xorl	%edx, %edx
	callq	_KTimestamp1
	movabsq	$5177885247316840939, %rdi # imm = 0x47DB8B32E60E51EB
	xorl	%esi, %esi
	callq	_KPrepCall
	callq	_KEnqArgConst
	callq	_KEnqArgConst
	callq	_KEnqArgConst
	callq	_KEnqArgConst
	callq	_KEnqArgConst
	movl	$3, %edi
	movl	$3, %esi
	xorl	%edx, %edx
	callq	_KTimestamp1
	movl	$3, %edi
	callq	_KEnqArg
	movl	$2, %edi
	movl	$2, %esi
	xorl	%edx, %edx
	callq	_KTimestamp1
	movl	$2, %edi
	callq	_KEnqArg
	movl	$1, %edi
	callq	_KEnqArg
	.loc	1 679 3                 # epic.c:679:3
	movq	$epic_lo_imagetemp, 40(%rsp)
	movl	$1, 32(%rsp)
	movl	$0, 24(%rsp)
	movl	$2, 16(%rsp)
	movl	$0, 8(%rsp)
	movl	$1, (%rsp)
	movl	$epic_filtertemp, %r8d
	movq	%r15, %rdi
	movl	%r14d, %esi
	movl	%ebx, %edx
	movq	%r12, %rcx
.Ltmp56:
	#DEBUG_VALUE: epic_build_level:lo_filter <- [RBP+-56]
	movl	%r13d, %r12d
.Ltmp57:
	#DEBUG_VALUE: epic_build_level:filter_size <- R12D
	movl	%r12d, %r9d
	callq	epic_internal_filter
	movabsq	$-3788936209507489600, %rdi # imm = 0xCB6AFE9793B0E8C0
	xorl	%esi, %esi
	callq	_KPrepCall
	callq	_KEnqArgConst
	callq	_KEnqArgConst
	callq	_KEnqArgConst
	callq	_KEnqArgConst
	callq	_KEnqArgConst
	movl	$3, %edi
	callq	_KEnqArg
	movl	$2, %edi
	callq	_KEnqArg
	movl	$1, %edi
	callq	_KEnqArg
	.loc	1 682 3                 # epic.c:682:3
	movq	$epic_hi_imagetemp, 40(%rsp)
	movl	$1, 32(%rsp)
	movl	$0, 24(%rsp)
	movl	$2, 16(%rsp)
	movl	$1, 8(%rsp)
	movl	$1, (%rsp)
	.loc	1 679 3                 # epic.c:679:3
	movl	$epic_filtertemp, %r8d
	.loc	1 682 3                 # epic.c:682:3
	movq	%r15, %rdi
	movl	%r14d, %esi
	movl	%ebx, %edx
	movl	%ebx, %r13d
.Ltmp58:
	#DEBUG_VALUE: epic_build_level:level_y_size <- R13D
	movq	-48(%rbp), %rcx         # 8-byte Reload
.Ltmp59:
	#DEBUG_VALUE: epic_build_level:hi_filter <- [RBP+-48]
	movl	%r12d, %r9d
	callq	epic_internal_filter
	.loc	1 686 3                 # epic.c:686:3
	movl	%r14d, %r15d
.Ltmp60:
	shrl	$31, %r15d
	addl	%r14d, %r15d
	sarl	%r15d
.Ltmp61:
	#DEBUG_VALUE: epic_build_level:level_x_size <- R15D
	movabsq	$-4356828691626722020, %rdi # imm = 0xC3896F63705BFD1C
	xorl	%esi, %esi
	callq	_KPrepCall
	callq	_KEnqArgConst
	callq	_KEnqArgConst
	callq	_KEnqArgConst
	callq	_KEnqArgConst
	movl	$3, %edi
	callq	_KEnqArg
	callq	_KEnqArgConst
	movl	$2, %edi
	callq	_KEnqArg
	movl	$4, %edi
	movl	$1, %esi
	movl	$10, %edx
	callq	_KTimestamp1
	movl	$4, %edi
	callq	_KEnqArg
	movq	16(%rbp), %rbx
	.loc	1 688 3                 # epic.c:688:3
	movq	%rbx, 40(%rsp)
	movl	%r12d, (%rsp)
.Ltmp62:
	#DEBUG_VALUE: epic_build_level:filter_size <- [RBP+-60]
	movl	$2, 32(%rsp)
	movl	$0, 24(%rsp)
	movl	$1, 16(%rsp)
	movl	$0, 8(%rsp)
	.loc	1 679 3                 # epic.c:679:3
	movl	$epic_lo_imagetemp, %edi
	movl	$epic_filtertemp, %r8d
	movl	$1, %r9d
	.loc	1 688 3                 # epic.c:688:3
	movl	%r15d, %esi
	movl	%r13d, %edx
	movl	%r13d, %r12d
.Ltmp63:
	#DEBUG_VALUE: epic_build_level:level_y_size <- R12D
	movq	-56(%rbp), %rcx         # 8-byte Reload
	callq	epic_internal_filter
	movl	-64(%rbp), %ecx         # 4-byte Reload
.Ltmp64:
	#DEBUG_VALUE: epic_build_level:total_size <- ECX
	.loc	1 695 58                # epic.c:695:58
	movl	%ecx, %eax
	sarl	$31, %eax
	shrl	$30, %eax
	addl	%ecx, %eax
	sarl	$2, %eax
	.loc	1 695 40 is_stmt 0      # epic.c:695:40
	movslq	%eax, %r14
	leaq	(%rbx,%r14,4), %r13
.Ltmp65:
	#DEBUG_VALUE: epic_build_level:result_block <- R13
	movabsq	$1444224298112939644, %rdi # imm = 0x140AEA58E902767C
	xorl	%esi, %esi
	callq	_KPrepCall
	callq	_KEnqArgConst
	callq	_KEnqArgConst
	callq	_KEnqArgConst
	callq	_KEnqArgConst
	movl	$3, %edi
	callq	_KEnqArg
	callq	_KEnqArgConst
	movl	$2, %edi
	callq	_KEnqArg
	movl	$4, %edi
	callq	_KEnqArg
	.loc	1 692 3 is_stmt 1       # epic.c:692:3
	movq	%r13, 40(%rsp)
	movl	-60(%rbp), %ebx         # 4-byte Reload
.Ltmp66:
	#DEBUG_VALUE: epic_build_level:filter_size <- EBX
	movl	%ebx, (%rsp)
	movl	$2, 32(%rsp)
	movl	$1, 24(%rsp)
	movl	$1, 16(%rsp)
	movl	$0, 8(%rsp)
	.loc	1 679 3                 # epic.c:679:3
	movl	$epic_lo_imagetemp, %edi
	movl	$epic_filtertemp, %r8d
	movl	$1, %r9d
	.loc	1 692 3                 # epic.c:692:3
	movl	%r15d, %esi
	movl	%r12d, %r13d
.Ltmp67:
	#DEBUG_VALUE: epic_build_level:level_y_size <- R13D
	movl	%r13d, %edx
	movq	-48(%rbp), %rcx         # 8-byte Reload
.Ltmp68:
	callq	epic_internal_filter
	movq	16(%rbp), %rax
	.loc	1 699 40                # epic.c:699:40
	leaq	(%rax,%r14,8), %r12
.Ltmp69:
	#DEBUG_VALUE: epic_build_level:result_block <- R12
	movabsq	$-2286395519345587813, %rdi # imm = 0xE0451763955C899B
	xorl	%esi, %esi
	callq	_KPrepCall
	callq	_KEnqArgConst
	callq	_KEnqArgConst
	callq	_KEnqArgConst
	callq	_KEnqArgConst
	movl	$3, %edi
	callq	_KEnqArg
	callq	_KEnqArgConst
	movl	$2, %edi
	callq	_KEnqArg
	movl	$4, %edi
	callq	_KEnqArg
	.loc	1 696 3                 # epic.c:696:3
	movq	%r12, 40(%rsp)
	movl	%ebx, (%rsp)
.Ltmp70:
	#DEBUG_VALUE: epic_build_level:filter_size <- [RBP+-60]
	movl	$2, 32(%rsp)
	movl	$0, 24(%rsp)
	movl	$1, 16(%rsp)
	movl	$0, 8(%rsp)
	.loc	1 682 3                 # epic.c:682:3
	movl	$epic_hi_imagetemp, %edi
	.loc	1 679 3                 # epic.c:679:3
	movl	$epic_filtertemp, %r8d
	movl	$1, %r9d
	.loc	1 696 3                 # epic.c:696:3
	movl	%r15d, %esi
	movl	%r13d, %edx
	movq	-56(%rbp), %rcx         # 8-byte Reload
	callq	epic_internal_filter
	movl	%r13d, %eax
.Ltmp71:
	#DEBUG_VALUE: epic_build_level:level_y_size <- EAX
	.loc	1 701 42                # epic.c:701:42
	movl	%eax, %ebx
	shrl	$31, %ebx
	addl	%eax, %ebx
                                        # kill: R13D<def> EAX<kill>
.Ltmp72:
	#DEBUG_VALUE: epic_build_level:level_y_size <- R13D
	sarl	%ebx
	movabsq	$5847024681388114327, %rdi # imm = 0x5124CDF807148197
	xorl	%esi, %esi
	callq	_KPrepCall
	movl	$4, %edi
	callq	_KEnqArg
	movl	$5, %edi
	movl	$2, %esi
	movl	$10, %edx
	callq	_KTimestamp1
	movl	$5, %edi
	callq	_KEnqArg
	.loc	1 701 3 is_stmt 0       # epic.c:701:3
	movq	%r12, %rdi
	movl	%ebx, %esi
	movl	%r15d, %edx
	callq	epic_internal_transpose
	.loc	1 705 40 is_stmt 1      # epic.c:705:40
	leaq	(%r14,%r14,2), %rax
	movq	16(%rbp), %rcx
	leaq	(%rcx,%rax,4), %rbx
.Ltmp73:
	#DEBUG_VALUE: epic_build_level:result_block <- RBX
	movabsq	$7015914931168299518, %rdi # imm = 0x615D89753EA549FE
	xorl	%esi, %esi
	callq	_KPrepCall
	callq	_KEnqArgConst
	callq	_KEnqArgConst
	callq	_KEnqArgConst
	callq	_KEnqArgConst
	movl	$3, %edi
	callq	_KEnqArg
	callq	_KEnqArgConst
	movl	$2, %edi
	callq	_KEnqArg
	movl	$4, %edi
	callq	_KEnqArg
	.loc	1 702 3                 # epic.c:702:3
	movq	%rbx, 40(%rsp)
	movl	-60(%rbp), %eax         # 4-byte Reload
	movl	%eax, (%rsp)
	movl	$2, 32(%rsp)
	movl	$1, 24(%rsp)
	movl	$1, 16(%rsp)
	movl	$0, 8(%rsp)
	.loc	1 682 3                 # epic.c:682:3
	movl	$epic_hi_imagetemp, %edi
	.loc	1 679 3                 # epic.c:679:3
	movl	$epic_filtertemp, %r8d
	movl	$1, %r9d
	.loc	1 702 3                 # epic.c:702:3
	movl	%r15d, %esi
	movl	%r13d, %edx
	movq	-48(%rbp), %rcx         # 8-byte Reload
	callq	epic_internal_filter
	xorl	%esi, %esi
	movabsq	$-1578140378276879459, %rdi # imm = 0xEA1951AFF31B239D
	addq	$72, %rsp
	popq	%rbx
.Ltmp74:
	popq	%r12
	popq	%r13
.Ltmp75:
	popq	%r14
	popq	%r15
.Ltmp76:
	popq	%rbp
	jmp	_KExitRegion            # TAILCALL
.Ltmp77:
.Ltmp78:
	.size	epic_build_level, .Ltmp78-epic_build_level
.Lfunc_end2:
	.cfi_endproc

	.globl	epic_internal_filter
	.align	16, 0x90
	.type	epic_internal_filter,@function
epic_internal_filter:                   # @epic_internal_filter
.Lfunc_begin3:
	.loc	1 755 0                 # epic.c:755:0
	.cfi_startproc
# BB#0:                                 # %entry
	pushq	%rbp
.Ltmp79:
	.cfi_def_cfa_offset 16
.Ltmp80:
	.cfi_offset %rbp, -16
	movq	%rsp, %rbp
.Ltmp81:
	.cfi_def_cfa_register %rbp
	pushq	%r15
	pushq	%r14
	pushq	%r13
	pushq	%r12
	pushq	%rbx
	subq	$312, %rsp              # imm = 0x138
.Ltmp82:
	.cfi_offset %rbx, -56
.Ltmp83:
	.cfi_offset %r12, -48
.Ltmp84:
	.cfi_offset %r13, -40
.Ltmp85:
	.cfi_offset %r14, -32
.Ltmp86:
	.cfi_offset %r15, -24
	#DEBUG_VALUE: epic_internal_filter:image <- RDI
	#DEBUG_VALUE: epic_internal_filter:x_dim <- ESI
	#DEBUG_VALUE: epic_internal_filter:y_dim <- EDX
	#DEBUG_VALUE: epic_internal_filter:filt <- RCX
	#DEBUG_VALUE: epic_internal_filter:temp <- R8
	#DEBUG_VALUE: epic_internal_filter:x_fdim <- R9D
	#DEBUG_VALUE: epic_internal_filter:xgrid_start <- [RBP+24]
	#DEBUG_VALUE: epic_internal_filter:ygrid_start <- [RBP+40]
.Ltmp87:
	#DEBUG_VALUE: epic_internal_filter:y_filt_lin <- R9D
	movl	%r9d, %ebx
.Ltmp88:
	#DEBUG_VALUE: epic_internal_filter:y_filt_lin <- EBX
	#DEBUG_VALUE: epic_internal_filter:x_fdim <- EBX
	movl	%ebx, -156(%rbp)        # 4-byte Spill
	movq	%r8, -104(%rbp)         # 8-byte Spill
.Ltmp89:
	#DEBUG_VALUE: epic_internal_filter:temp <- [RBP+-104]
	movq	%rcx, -168(%rbp)        # 8-byte Spill
.Ltmp90:
	#DEBUG_VALUE: epic_internal_filter:filt <- [RBP+-168]
	movl	%edx, -260(%rbp)        # 4-byte Spill
.Ltmp91:
	#DEBUG_VALUE: epic_internal_filter:y_dim <- [RBP+-260]
                                        # kill: ESI<def> ESI<kill> RSI<def>
.Ltmp92:
	movq	%rsi, -120(%rbp)        # 8-byte Spill
	movq	%rsi, %r15
.Ltmp93:
	#DEBUG_VALUE: epic_internal_filter:x_dim <- R15D
	movq	%rdi, -112(%rbp)        # 8-byte Spill
	#DEBUG_VALUE: epic_internal_filter:y_fdim <- undef
	#DEBUG_VALUE: epic_internal_filter:xgrid_step <- undef
	#DEBUG_VALUE: epic_internal_filter:ygrid_step <- undef
	#DEBUG_VALUE: epic_internal_filter:result <- [RBP+-328]
.Ltmp94:
	#DEBUG_VALUE: epic_internal_filter:image <- [RBP+-112]
	movl	40(%rbp), %r12d
	movl	24(%rbp), %r13d
	movabsq	$-1049947186929518708, %rdi # imm = 0xF16DD698AA25378C
	xorl	%r14d, %r14d
	xorl	%esi, %esi
	callq	_KEnterRegion
	movl	$332, %edi              # imm = 0x14C
	movl	$8, %esi
	callq	_KPrepRTable
	movl	$46, %edi
	callq	_KWork
	movl	$8, %edi
	callq	_KDeqArg
	movl	$7, %edi
	callq	_KDeqArg
	movl	$6, %edi
	callq	_KDeqArg
	movl	$5, %edi
	callq	_KDeqArg
	movl	$4, %edi
	callq	_KDeqArg
	movl	$3, %edi
	callq	_KDeqArg
	movl	$2, %edi
	callq	_KDeqArg
	movl	$1, %edi
	callq	_KDeqArg
	movl	16(%rbp), %edi
.Ltmp95:
	#DEBUG_VALUE: epic_internal_filter:y_fdim <- EDI
	.loc	1 759 45 prologue_end   # epic.c:759:45
	movl	%edi, %ecx
	imull	%ebx, %ecx
.Ltmp96:
	#DEBUG_VALUE: epic_internal_filter:filt_size <- ECX
	movq	%r15, %rdx
.Ltmp97:
	#DEBUG_VALUE: epic_internal_filter:x_dim <- EDX
	.loc	1 761 31                # epic.c:761:31
                                        # kill: R15D<def> EDX<kill>
	subl	%ebx, %r15d
.Ltmp98:
	#DEBUG_VALUE: epic_internal_filter:last_ctr_col <- R15D
	.loc	1 764 16                # epic.c:764:16
	movl	%r15d, -172(%rbp)       # 4-byte Spill
	movl	%ebx, %esi
	shrl	$31, %esi
	addl	%ebx, %esi
	sarl	%esi
.Ltmp99:
	#DEBUG_VALUE: epic_internal_filter:x_fmid <- ESI
	movl	%edi, %eax
	shrl	$31, %eax
	addl	%edi, %eax
	sarl	%eax
	.loc	1 777 17                # epic.c:777:17
.Ltmp100:
	subl	%eax, %r12d
	negl	%eax
	movl	%eax, -192(%rbp)        # 4-byte Spill
.Ltmp101:
	.loc	1 766 16                # epic.c:766:16
	movl	%ebx, %eax
	subl	%esi, %eax
	incl	%eax
.Ltmp102:
	#DEBUG_VALUE: epic_internal_filter:x_stop <- EAX
	movl	%eax, -228(%rbp)        # 4-byte Spill
.Ltmp103:
	#DEBUG_VALUE: epic_internal_filter:x_stop <- [RBP+-228]
	.loc	1 767 16                # epic.c:767:16
	leal	1(%rdi), %eax
	.loc	1 769 35                # epic.c:769:35
	movl	%eax, -320(%rbp)        # 4-byte Spill
.Ltmp104:
	#DEBUG_VALUE: epic_internal_filter:y_fdim <- undef
	leal	-1(%rdx), %eax
.Ltmp105:
	#DEBUG_VALUE: epic_internal_filter:x_dim <- [RBP+-120]
	subl	%r13d, %eax
	movl	32(%rbp), %edi
.Ltmp106:
	#DEBUG_VALUE: epic_internal_filter:xgrid_step <- EDI
	addl	%edi, %eax
	.loc	1 769 33 is_stmt 0      # epic.c:769:33
	cltd
	idivl	%edi
	movl	%eax, -316(%rbp)        # 4-byte Spill
.Ltmp107:
	#DEBUG_VALUE: epic_internal_filter:res_pos <- 0
	.loc	1 774 15 is_stmt 1      # epic.c:774:15
	subl	%esi, %r13d
.Ltmp108:
	#DEBUG_VALUE: epic_internal_filter:x_pos <- R13D
	movq	%r13, -280(%rbp)        # 8-byte Spill
	leal	(%r13,%rdi), %eax
.Ltmp109:
	#DEBUG_VALUE: epic_internal_filter:first_col <- [RBP+-216]
	.loc	1 777 17                # epic.c:777:17
	movq	%rax, -216(%rbp)        # 8-byte Spill
.Ltmp110:
	#DEBUG_VALUE: epic_internal_filter:x_pos <- [RBP+-280]
	#DEBUG_VALUE: epic_internal_filter:xgrid_step <- [RBP+-304]
	decl	%r12d
.Ltmp111:
	#DEBUG_VALUE: epic_internal_filter:y_pos <- R12D
	movslq	%ebx, %rax
	.loc	1 777 9 is_stmt 0       # epic.c:777:9
	movq	%rax, -88(%rbp)         # 8-byte Spill
.Ltmp112:
	#DEBUG_VALUE: epic_internal_filter:y_filt_lin <- [RBP+-156]
	#DEBUG_VALUE: epic_internal_filter:x_fdim <- [RBP+-156]
	movslq	%ecx, %rax
	movq	%rax, -96(%rbp)         # 8-byte Spill
	movl	$256, %edi              # imm = 0x100
	movl	$4, %esi
.Ltmp113:
	movl	$12, %edx
	callq	_KTimestamp1
	movl	$133, %edi
	movl	$1, %esi
	movl	$1, %edx
	movl	$3, %ecx
.Ltmp114:
	movl	$1, %r8d
	callq	_KTimestamp2
	movl	$129, %edi
	movl	$3, %esi
	movl	$2, %edx
	movl	$4, %ecx
	movl	$2, %r8d
	callq	_KTimestamp2
	movl	$128, %edi
	movl	$3, %esi
	xorl	%edx, %edx
	callq	_KTimestamp1
	movl	$121, %edi
	movl	$3, %esi
	movl	$12, %edx
	callq	_KTimestamp1
	movl	$107, %edi
	movl	$3, %esi
	movl	$2, %edx
	movl	$4, %ecx
	movl	$2, %r8d
	callq	_KTimestamp2
	movl	$106, %edi
	movl	$3, %esi
	xorl	%edx, %edx
	callq	_KTimestamp1
	movl	$99, %edi
	movl	$1, %esi
	movl	$1, %edx
	movl	$3, %ecx
	movl	$1, %r8d
	callq	_KTimestamp2
	movl	$89, %edi
	movl	$1, %esi
	xorl	%edx, %edx
	callq	_KTimestamp1
	movl	$80, %edi
	movl	$3, %esi
	movl	$10, %edx
	callq	_KTimestamp1
	movl	$12, (%rsp)
	movl	$72, -48(%rbp)          # 4-byte Folded Spill
	movl	$72, %edi
	movl	$1, %esi
	movl	$13, %edx
	movl	$5, %ecx
	movl	$13, %r8d
	movl	$6, %r9d
	callq	_KTimestamp3
	movl	$1, (%rsp)
	movl	$69, %r13d
	movl	$69, %edi
	movl	$3, %esi
	movl	$12, %edx
	movl	$5, %ecx
	movl	$2, %r8d
	movl	$6, %r9d
	callq	_KTimestamp3
	movl	$62, -56(%rbp)          # 4-byte Folded Spill
	movl	$62, %edi
	movl	$4, %esi
	movl	$12, %edx
	movl	$7, %ecx
	movl	$2, %r8d
	callq	_KTimestamp2
	movl	$85, %edi
	movl	$3, %esi
	movl	$2, %edx
	movl	$4, %ecx
	movl	$2, %r8d
	callq	_KTimestamp2
	movl	$84, %edi
	movl	$3, %esi
	xorl	%edx, %edx
	callq	_KTimestamp1
	movl	$1, %esi
	movabsq	$999751834622027429, %rdi # imm = 0xDDFD4FF2630E6A5
	callq	_KEnterRegion
	movl	$1, %eax
	.loc	1 824 22 is_stmt 1      # epic.c:824:22
.Ltmp115:
	subl	%r15d, %eax
.Ltmp116:
	#DEBUG_VALUE: epic_internal_filter:last_ctr_col <- [RBP+-172]
	movl	%eax, -284(%rbp)        # 4-byte Spill
	movq	-120(%rbp), %rax        # 8-byte Reload
	cltq
	#DEBUG_VALUE: epic_internal_filter:x_dim <- [RBP+-120]
	shlq	$2, %rax
	movq	%rax, -144(%rbp)        # 8-byte Spill
	movabsq	$-3310989952393377652, %r15 # imm = 0xD20D002E40B4888C
	movl	$0, %ebx
	xorl	%eax, %eax
	movq	%rax, -152(%rbp)        # 8-byte Spill
	movl	-316(%rbp), %eax        # 4-byte Reload
                                        # kill: EAX<def> EAX<kill> RAX<def>
	movq	%rax, -208(%rbp)        # 8-byte Spill
	jmp	.LBB3_1
.Ltmp117:
	.align	16, 0x90
.LBB3_29:                               # %for.cond75.pre_exit.for.inc105
                                        #   in Loop: Header=BB3_1 Depth=1
	#DEBUG_VALUE: epic_internal_filter:image <- [RBP+-112]
	#DEBUG_VALUE: epic_internal_filter:x_dim <- [RBP+-120]
	#DEBUG_VALUE: epic_internal_filter:y_dim <- [RBP+-260]
	#DEBUG_VALUE: epic_internal_filter:filt <- [RBP+-168]
	#DEBUG_VALUE: epic_internal_filter:temp <- [RBP+-104]
	#DEBUG_VALUE: epic_internal_filter:x_fdim <- [RBP+-156]
	#DEBUG_VALUE: epic_internal_filter:xgrid_start <- [RBP+24]
	#DEBUG_VALUE: epic_internal_filter:ygrid_start <- [RBP+40]
	#DEBUG_VALUE: epic_internal_filter:y_filt_lin <- [RBP+-156]
	#DEBUG_VALUE: epic_internal_filter:result <- [RBP+-328]
	#DEBUG_VALUE: epic_internal_filter:ygrid_step <- undef
	#DEBUG_VALUE: epic_internal_filter:xgrid_step <- [RBP+-304]
	#DEBUG_VALUE: epic_internal_filter:y_fdim <- undef
	#DEBUG_VALUE: epic_internal_filter:last_ctr_col <- [RBP+-172]
	#DEBUG_VALUE: epic_internal_filter:x_stop <- [RBP+-228]
	#DEBUG_VALUE: epic_internal_filter:res_pos <- 0
	#DEBUG_VALUE: epic_internal_filter:first_col <- [RBP+-216]
	movl	$1, %esi
	movabsq	$1556451145736482395, %rdi # imm = 0x1599A01213DF6E5B
	callq	_KExitRegion
	movl	$64, %r14d
	movl	$64, %edi
	callq	_KPushCDep
	movl	$2, %edi
	callq	_KWork
	.loc	1 822 23                # epic.c:822:23
	movq	-208(%rbp), %rax        # 8-byte Reload
	addl	-316(%rbp), %eax        # 4-byte Folded Reload
.Ltmp118:
	#DEBUG_VALUE: epic_internal_filter:rt_edge_res_pos <- [RBP+-208]
	movq	%rax, -208(%rbp)        # 8-byte Spill
	movq	-200(%rbp), %r12        # 8-byte Reload
.Ltmp119:
	.loc	1 777 54                # epic.c:777:54
	addl	48(%rbp), %r12d
.Ltmp120:
	#DEBUG_VALUE: epic_internal_filter:y_pos <- R12D
	movl	$1, (%rsp)
	movl	$73, -48(%rbp)          # 4-byte Folded Spill
	movl	$73, %edi
	movl	$72, %esi
	movl	$1, %edx
	movl	$64, %ecx
	movl	$1, %r8d
	movl	$74, %r9d
	callq	_KTimestamp3
	movl	$66, %ebx
	movl	$66, %edi
	movl	$64, %esi
	xorl	%edx, %edx
	movl	$67, %ecx
	xorl	%r8d, %r8d
	callq	_KTimestamp2
	movl	$1, (%rsp)
	movl	$63, -56(%rbp)          # 4-byte Folded Spill
	movl	$63, %edi
	movl	$8, %esi
	movl	$1, %edx
	movl	$10, %ecx
	movl	$1, %r8d
	movl	$64, %r9d
	callq	_KTimestamp3
	callq	_KPopCDep
	movl	$2, %esi
	movabsq	$-3310989952393377652, %r15 # imm = 0xD20D002E40B4888C
	movq	%r15, %rdi
	callq	_KExitRegion
	movl	$70, %r13d
.Ltmp121:
.LBB3_1:                                # %for.cond
                                        # =>This Loop Header: Depth=1
                                        #     Child Loop BB3_3 Depth 2
                                        #       Child Loop BB3_5 Depth 3
                                        #         Child Loop BB3_7 Depth 4
                                        #     Child Loop BB3_12 Depth 2
                                        #       Child Loop BB3_14 Depth 3
                                        #         Child Loop BB3_16 Depth 4
                                        #     Child Loop BB3_21 Depth 2
                                        #       Child Loop BB3_23 Depth 3
                                        #         Child Loop BB3_25 Depth 4
	#DEBUG_VALUE: epic_internal_filter:image <- [RBP+-112]
	#DEBUG_VALUE: epic_internal_filter:x_dim <- [RBP+-120]
	#DEBUG_VALUE: epic_internal_filter:y_dim <- [RBP+-260]
	#DEBUG_VALUE: epic_internal_filter:filt <- [RBP+-168]
	#DEBUG_VALUE: epic_internal_filter:temp <- [RBP+-104]
	#DEBUG_VALUE: epic_internal_filter:x_fdim <- [RBP+-156]
	#DEBUG_VALUE: epic_internal_filter:xgrid_start <- [RBP+24]
	#DEBUG_VALUE: epic_internal_filter:ygrid_start <- [RBP+40]
	#DEBUG_VALUE: epic_internal_filter:y_filt_lin <- [RBP+-156]
	#DEBUG_VALUE: epic_internal_filter:result <- [RBP+-328]
	#DEBUG_VALUE: epic_internal_filter:ygrid_step <- undef
	#DEBUG_VALUE: epic_internal_filter:xgrid_step <- [RBP+-304]
	#DEBUG_VALUE: epic_internal_filter:y_fdim <- undef
	#DEBUG_VALUE: epic_internal_filter:last_ctr_col <- [RBP+-172]
	#DEBUG_VALUE: epic_internal_filter:x_stop <- [RBP+-228]
	#DEBUG_VALUE: epic_internal_filter:res_pos <- 0
	#DEBUG_VALUE: epic_internal_filter:x_pos <- [RBP+-280]
	movl	$71, %edi
	movl	-48(%rbp), %esi         # 4-byte Reload
	movl	%r14d, %edx
	callq	_KPhi1To1
	movl	$68, %edi
	movl	%r13d, %esi
	movl	%r14d, %edx
	callq	_KPhi1To1
	movl	$65, %edi
	movl	%ebx, %esi
	movl	%r14d, %edx
	callq	_KPhi1To1
	movl	$10, %edi
	movl	-56(%rbp), %esi         # 4-byte Reload
	movl	%r14d, %edx
	callq	_KPhi1To1
	movl	$1, %edi
	callq	_KWork
	movl	$4, %edi
	movl	$4, %esi
	xorl	%edx, %edx
	callq	_KTimestamp1
	movl	$3, %edi
	movl	$3, %esi
	xorl	%edx, %edx
	callq	_KTimestamp1
	movl	$10, %edi
	movl	$10, %esi
	xorl	%edx, %edx
	callq	_KTimestamp1
	movl	$68, %edi
	movl	$68, %esi
	xorl	%edx, %edx
	callq	_KTimestamp1
	movl	$64, %edi
	movl	$10, %esi
	movl	$1, %edx
	callq	_KTimestamp1
	movl	$71, %edi
	movl	$64, %esi
	callq	_KPhiAddCond
	movl	$65, %edi
	movl	$65, %esi
	xorl	%edx, %edx
	callq	_KTimestamp1
	movl	$68, %edi
	movl	$64, %esi
	callq	_KPhiAddCond
	movl	$10, %edi
	movl	$64, %esi
	callq	_KPhiAddCond
	movl	$65, %edi
	movl	$64, %esi
	callq	_KPhiAddCond
	.loc	1 777 3 is_stmt 0       # epic.c:777:3
	testl	%r12d, %r12d
	jns	.LBB3_30
# BB#2:                                 # %for.body
                                        #   in Loop: Header=BB3_1 Depth=1
	#DEBUG_VALUE: epic_internal_filter:image <- [RBP+-112]
	#DEBUG_VALUE: epic_internal_filter:x_dim <- [RBP+-120]
	#DEBUG_VALUE: epic_internal_filter:y_dim <- [RBP+-260]
	#DEBUG_VALUE: epic_internal_filter:filt <- [RBP+-168]
	#DEBUG_VALUE: epic_internal_filter:temp <- [RBP+-104]
	#DEBUG_VALUE: epic_internal_filter:x_fdim <- [RBP+-156]
	#DEBUG_VALUE: epic_internal_filter:xgrid_start <- [RBP+24]
	#DEBUG_VALUE: epic_internal_filter:ygrid_start <- [RBP+40]
	#DEBUG_VALUE: epic_internal_filter:y_filt_lin <- [RBP+-156]
	#DEBUG_VALUE: epic_internal_filter:result <- [RBP+-328]
	#DEBUG_VALUE: epic_internal_filter:ygrid_step <- undef
	#DEBUG_VALUE: epic_internal_filter:xgrid_step <- [RBP+-304]
	#DEBUG_VALUE: epic_internal_filter:y_fdim <- undef
	#DEBUG_VALUE: epic_internal_filter:last_ctr_col <- [RBP+-172]
	#DEBUG_VALUE: epic_internal_filter:x_stop <- [RBP+-228]
	#DEBUG_VALUE: epic_internal_filter:res_pos <- 0
	#DEBUG_VALUE: epic_internal_filter:x_pos <- [RBP+-280]
	movq	%r12, -200(%rbp)        # 8-byte Spill
	movl	$2, %esi
	movq	%r15, %rdi
	callq	_KEnterRegion
	movl	$64, %edi
	callq	_KPushCDep
	movl	$1, %edi
	callq	_KWork
	movq	-152(%rbp), %rax        # 8-byte Reload
	movslq	%eax, %r13
	movl	$1, (%rsp)
	movl	$79, %r14d
	movl	$79, %edi
	movl	$5, %esi
	movl	$1, %edx
	movl	$80, %ecx
	movl	$1, %r8d
	movl	$64, %r9d
	callq	_KTimestamp3
	movl	$78, %r15d
	xorl	%r12d, %r12d
	movl	$78, %edi
	movl	$65, %esi
	xorl	%edx, %edx
	movl	$64, %ecx
	xorl	%r8d, %r8d
	callq	_KTimestamp2
	callq	_KPopCDep
	movl	$1, %esi
	movabsq	$6763117535077584939, %rdi # imm = 0x5DDB6B90CC83D02B
	callq	_KEnterRegion
	movq	-280(%rbp), %rax        # 8-byte Reload
	movl	%eax, %ebx
	jmp	.LBB3_3
	.align	16, 0x90
.LBB3_10:                               # %for.cond20.pre_exit.for.end34
                                        #   in Loop: Header=BB3_3 Depth=2
	#DEBUG_VALUE: epic_internal_filter:image <- [RBP+-112]
	#DEBUG_VALUE: epic_internal_filter:x_dim <- [RBP+-120]
	#DEBUG_VALUE: epic_internal_filter:y_dim <- [RBP+-260]
	#DEBUG_VALUE: epic_internal_filter:filt <- [RBP+-168]
	#DEBUG_VALUE: epic_internal_filter:temp <- [RBP+-104]
	#DEBUG_VALUE: epic_internal_filter:x_fdim <- [RBP+-156]
	#DEBUG_VALUE: epic_internal_filter:xgrid_start <- [RBP+24]
	#DEBUG_VALUE: epic_internal_filter:ygrid_start <- [RBP+40]
	#DEBUG_VALUE: epic_internal_filter:y_filt_lin <- [RBP+-156]
	#DEBUG_VALUE: epic_internal_filter:result <- [RBP+-328]
	#DEBUG_VALUE: epic_internal_filter:ygrid_step <- undef
	#DEBUG_VALUE: epic_internal_filter:xgrid_step <- [RBP+-304]
	#DEBUG_VALUE: epic_internal_filter:y_fdim <- undef
	#DEBUG_VALUE: epic_internal_filter:last_ctr_col <- [RBP+-172]
	#DEBUG_VALUE: epic_internal_filter:x_stop <- [RBP+-228]
	#DEBUG_VALUE: epic_internal_filter:res_pos <- 0
	#DEBUG_VALUE: epic_internal_filter:x_pos <- [RBP+-280]
.Ltmp122:
	#DEBUG_VALUE: epic_internal_filter:sum <- 0.000000e+00
	#DEBUG_VALUE: epic_internal_filter:y_im_lin <- 0
	#DEBUG_VALUE: epic_internal_filter:x_filt <- 0
	movl	$1, %esi
	movabsq	$-5136512913591860021, %rdi # imm = 0xB8B770B8312684CB
	callq	_KExitRegion
	movl	$77, %r12d
	movl	$77, %edi
	callq	_KPushCDep
	movl	$3, %edi
	callq	_KWork
	movq	56(%rbp), %rax
	movq	%rax, %rbx
.Ltmp123:
	#DEBUG_VALUE: epic_internal_filter:result <- RBX
	movq	-152(%rbp), %r13        # 8-byte Reload
	.loc	1 797 7 is_stmt 1       # epic.c:797:7
.Ltmp124:
	leaq	(%rbx,%r13,4), %rsi
	movl	$15, %edi
	movl	$4, %edx
	callq	_KStore
	movss	-68(%rbp), %xmm0        # 4-byte Reload
	movss	%xmm0, (%rbx,%r13,4)
.Ltmp125:
	#DEBUG_VALUE: epic_internal_filter:result <- [RBP+-328]
	.loc	1 779 5                 # epic.c:779:5
	incq	%r13
	movl	32(%rbp), %eax
	movq	-216(%rbp), %rbx        # 8-byte Reload
	.loc	1 781 11                # epic.c:781:11
	addl	%eax, %ebx
.Ltmp126:
	#DEBUG_VALUE: epic_internal_filter:x_pos <- EBX
	movl	$1, (%rsp)
	movl	$81, %r14d
	movl	$81, %edi
	movl	$6, %esi
	movl	$1, %edx
	movl	$9, %ecx
	movl	$1, %r8d
	movl	$77, %r9d
	callq	_KTimestamp3
	movl	$76, %r15d
	movl	$76, %edi
	movl	$75, %esi
	movl	$1, %edx
	movl	$77, %ecx
	movl	$1, %r8d
	callq	_KTimestamp2
	callq	_KPopCDep
	movl	$2, %esi
	movabsq	$6276551109394193758, %rdi # imm = 0x571AC9FABA065D5E
	callq	_KExitRegion
.Ltmp127:
.LBB3_3:                                # %for.cond17
                                        #   Parent Loop BB3_1 Depth=1
                                        # =>  This Loop Header: Depth=2
                                        #       Child Loop BB3_5 Depth 3
                                        #         Child Loop BB3_7 Depth 4
	#DEBUG_VALUE: epic_internal_filter:image <- [RBP+-112]
	#DEBUG_VALUE: epic_internal_filter:x_dim <- [RBP+-120]
	#DEBUG_VALUE: epic_internal_filter:y_dim <- [RBP+-260]
	#DEBUG_VALUE: epic_internal_filter:filt <- [RBP+-168]
	#DEBUG_VALUE: epic_internal_filter:temp <- [RBP+-104]
	#DEBUG_VALUE: epic_internal_filter:x_fdim <- [RBP+-156]
	#DEBUG_VALUE: epic_internal_filter:xgrid_start <- [RBP+24]
	#DEBUG_VALUE: epic_internal_filter:ygrid_start <- [RBP+40]
	#DEBUG_VALUE: epic_internal_filter:y_filt_lin <- [RBP+-156]
	#DEBUG_VALUE: epic_internal_filter:result <- [RBP+-328]
	#DEBUG_VALUE: epic_internal_filter:ygrid_step <- undef
	#DEBUG_VALUE: epic_internal_filter:xgrid_step <- [RBP+-304]
	#DEBUG_VALUE: epic_internal_filter:y_fdim <- undef
	#DEBUG_VALUE: epic_internal_filter:last_ctr_col <- [RBP+-172]
	#DEBUG_VALUE: epic_internal_filter:x_stop <- [RBP+-228]
	#DEBUG_VALUE: epic_internal_filter:res_pos <- 0
	#DEBUG_VALUE: epic_internal_filter:x_pos <- [RBP+-280]
	movl	$64, %edi
	callq	_KPushCDep
	movl	$9, %edi
	movl	$64, %edx
	movl	%r14d, %esi
	movl	%r12d, %ecx
	callq	_KPhi2To1
	movl	$75, %edi
	movl	$64, %edx
	movl	%r15d, %esi
	movl	%r12d, %ecx
	callq	_KPhi2To1
	movl	$1, %edi
	callq	_KWork
	movl	$9, %edi
	movl	$9, %esi
	xorl	%edx, %edx
	callq	_KTimestamp1
	movl	$77, %edi
	movl	$64, %esi
	movl	$1, %edx
	movl	$9, %ecx
	movl	$1, %r8d
	callq	_KTimestamp2
	movl	$9, %edi
	movl	$77, %esi
	callq	_KPhiAddCond
	movl	$75, %edi
	movl	$77, %esi
	callq	_KPhiAddCond
	movl	$75, %edi
	movl	$75, %esi
	xorl	%edx, %edx
	callq	_KTimestamp1
	callq	_KPopCDep
	.loc	1 779 5                 # epic.c:779:5
	testl	%ebx, %ebx
	jns	.LBB3_11
# BB#4:                                 # %for.body19
                                        #   in Loop: Header=BB3_3 Depth=2
	#DEBUG_VALUE: epic_internal_filter:image <- [RBP+-112]
	#DEBUG_VALUE: epic_internal_filter:x_dim <- [RBP+-120]
	#DEBUG_VALUE: epic_internal_filter:y_dim <- [RBP+-260]
	#DEBUG_VALUE: epic_internal_filter:filt <- [RBP+-168]
	#DEBUG_VALUE: epic_internal_filter:temp <- [RBP+-104]
	#DEBUG_VALUE: epic_internal_filter:x_fdim <- [RBP+-156]
	#DEBUG_VALUE: epic_internal_filter:xgrid_start <- [RBP+24]
	#DEBUG_VALUE: epic_internal_filter:ygrid_start <- [RBP+40]
	#DEBUG_VALUE: epic_internal_filter:y_filt_lin <- [RBP+-156]
	#DEBUG_VALUE: epic_internal_filter:result <- [RBP+-328]
	#DEBUG_VALUE: epic_internal_filter:ygrid_step <- undef
	#DEBUG_VALUE: epic_internal_filter:xgrid_step <- [RBP+-304]
	#DEBUG_VALUE: epic_internal_filter:y_fdim <- undef
	#DEBUG_VALUE: epic_internal_filter:last_ctr_col <- [RBP+-172]
	#DEBUG_VALUE: epic_internal_filter:x_stop <- [RBP+-228]
	#DEBUG_VALUE: epic_internal_filter:res_pos <- 0
	#DEBUG_VALUE: epic_internal_filter:x_pos <- [RBP+-280]
	movq	%r13, -152(%rbp)        # 8-byte Spill
	movl	$2, %esi
	movabsq	$6276551109394193758, %rdi # imm = 0x571AC9FABA065D5E
	callq	_KEnterRegion
	movl	$77, %edi
	callq	_KPushCDep
	xorl	%r13d, %r13d
	xorl	%esi, %esi
	movabsq	$1248542337619431118, %rdi # imm = 0x1153B6A418D78ECE
	callq	_KPrepCall
	callq	_KEnqArgConst
	movl	$10, %edi
	callq	_KEnqArg
	movl	$9, %edi
	callq	_KEnqArg
	movl	$4, %edi
	callq	_KEnqArg
	movl	$3, %edi
	callq	_KEnqArg
	.loc	1 782 7                 # epic.c:782:7
.Ltmp128:
	movl	$0, (%rsp)
	movq	-168(%rbp), %rdi        # 8-byte Reload
	movl	-156(%rbp), %esi        # 4-byte Reload
	movl	16(%rbp), %edx
                                        # kill: EDX<def> EDX<kill> RDX<kill>
	movl	%ebx, %ecx
	movq	%rbx, -216(%rbp)        # 8-byte Spill
	movq	-200(%rbp), %r8         # 8-byte Reload
                                        # kill: R8D<def> R8D<kill> R8<kill>
	movq	-104(%rbp), %r9         # 8-byte Reload
	callq	epic_reflect1
	#DEBUG_VALUE: epic_internal_filter:x_filt <- 0
	#DEBUG_VALUE: epic_internal_filter:y_im_lin <- 0
	#DEBUG_VALUE: epic_internal_filter:sum <- 0.000000e+00
	callq	_KPopCDep
	movl	$1, %esi
	movabsq	$-5136512913591860021, %rdi # imm = 0xB8B770B8312684CB
	callq	_KEnterRegion
	xorps	%xmm0, %xmm0
	movss	%xmm0, -68(%rbp)        # 4-byte Spill
	movl	$84, -48(%rbp)          # 4-byte Folded Spill
	movq	-112(%rbp), %rax        # 8-byte Reload
	movq	%rax, -136(%rbp)        # 8-byte Spill
	movq	-88(%rbp), %r14         # 8-byte Reload
	xorl	%r15d, %r15d
	xorl	%ebx, %ebx
	xorl	%r12d, %r12d
	xorl	%eax, %eax
	movq	%rax, -128(%rbp)        # 8-byte Spill
	jmp	.LBB3_5
	.align	16, 0x90
.LBB3_9:                                # %for.cond23.pre_exit.for.end
                                        #   in Loop: Header=BB3_5 Depth=3
	#DEBUG_VALUE: epic_internal_filter:image <- [RBP+-112]
	#DEBUG_VALUE: epic_internal_filter:x_dim <- [RBP+-120]
	#DEBUG_VALUE: epic_internal_filter:y_dim <- [RBP+-260]
	#DEBUG_VALUE: epic_internal_filter:filt <- [RBP+-168]
	#DEBUG_VALUE: epic_internal_filter:temp <- [RBP+-104]
	#DEBUG_VALUE: epic_internal_filter:x_fdim <- [RBP+-156]
	#DEBUG_VALUE: epic_internal_filter:xgrid_start <- [RBP+24]
	#DEBUG_VALUE: epic_internal_filter:ygrid_start <- [RBP+40]
	#DEBUG_VALUE: epic_internal_filter:y_filt_lin <- [RBP+-156]
	#DEBUG_VALUE: epic_internal_filter:result <- [RBP+-328]
	#DEBUG_VALUE: epic_internal_filter:ygrid_step <- undef
	#DEBUG_VALUE: epic_internal_filter:xgrid_step <- [RBP+-304]
	#DEBUG_VALUE: epic_internal_filter:y_fdim <- undef
	#DEBUG_VALUE: epic_internal_filter:last_ctr_col <- [RBP+-172]
	#DEBUG_VALUE: epic_internal_filter:x_stop <- [RBP+-228]
	#DEBUG_VALUE: epic_internal_filter:res_pos <- 0
	#DEBUG_VALUE: epic_internal_filter:x_pos <- [RBP+-280]
	#DEBUG_VALUE: epic_internal_filter:sum <- 0.000000e+00
	#DEBUG_VALUE: epic_internal_filter:y_im_lin <- 0
	#DEBUG_VALUE: epic_internal_filter:x_filt <- 0
	movl	$1, %esi
	movabsq	$-254749218116561113, %rdi # imm = 0xFC76F2EF935A9727
	callq	_KExitRegion
	movl	$86, %r13d
	movl	$86, %edi
	callq	_KPushCDep
	movl	$2, %edi
	callq	_KWork
	movq	-128(%rbp), %rax        # 8-byte Reload
	cmpq	%rax, %rbx
	cmovgeq	%rbx, %rax
	movq	%rax, -128(%rbp)        # 8-byte Spill
	.loc	1 786 7                 # epic.c:786:7
.Ltmp129:
	addq	-88(%rbp), %rbx         # 8-byte Folded Reload
	movl	$1, (%rsp)
	movl	$92, %r12d
	movl	$92, %edi
	movl	$82, %esi
	movl	$1, %edx
	movl	$91, %ecx
	movl	$1, %r8d
	movl	$86, %r9d
	callq	_KTimestamp3
	movl	$1, (%rsp)
	movl	$88, %r15d
	movl	$88, %edi
	movl	$87, %esi
	movl	$1, %edx
	movl	$86, %ecx
	movl	$1, %r8d
	movl	$89, %r9d
	callq	_KTimestamp3
	movl	$1, (%rsp)
	movl	$83, -48(%rbp)          # 4-byte Folded Spill
	movl	$83, %edi
	movl	$82, %esi
	movl	$1, %edx
	movl	$86, %ecx
	movl	$1, %r8d
	movl	$84, %r9d
	callq	_KTimestamp3
	callq	_KPopCDep
	movl	$2, %esi
	movabsq	$-6073537279212545749, %rdi # imm = 0xABB676060671992B
	callq	_KExitRegion
	movq	-136(%rbp), %rax        # 8-byte Reload
	addq	-144(%rbp), %rax        # 8-byte Folded Reload
	movq	%rax, -136(%rbp)        # 8-byte Spill
	movq	%rbx, %r14
	movl	$90, %ebx
.LBB3_5:                                # %for.cond20
                                        #   Parent Loop BB3_1 Depth=1
                                        #     Parent Loop BB3_3 Depth=2
                                        # =>    This Loop Header: Depth=3
                                        #         Child Loop BB3_7 Depth 4
	#DEBUG_VALUE: epic_internal_filter:image <- [RBP+-112]
	#DEBUG_VALUE: epic_internal_filter:x_dim <- [RBP+-120]
	#DEBUG_VALUE: epic_internal_filter:y_dim <- [RBP+-260]
	#DEBUG_VALUE: epic_internal_filter:filt <- [RBP+-168]
	#DEBUG_VALUE: epic_internal_filter:temp <- [RBP+-104]
	#DEBUG_VALUE: epic_internal_filter:x_fdim <- [RBP+-156]
	#DEBUG_VALUE: epic_internal_filter:xgrid_start <- [RBP+24]
	#DEBUG_VALUE: epic_internal_filter:ygrid_start <- [RBP+40]
	#DEBUG_VALUE: epic_internal_filter:y_filt_lin <- [RBP+-156]
	#DEBUG_VALUE: epic_internal_filter:result <- [RBP+-328]
	#DEBUG_VALUE: epic_internal_filter:ygrid_step <- undef
	#DEBUG_VALUE: epic_internal_filter:xgrid_step <- [RBP+-304]
	#DEBUG_VALUE: epic_internal_filter:y_fdim <- undef
	#DEBUG_VALUE: epic_internal_filter:last_ctr_col <- [RBP+-172]
	#DEBUG_VALUE: epic_internal_filter:x_stop <- [RBP+-228]
	#DEBUG_VALUE: epic_internal_filter:res_pos <- 0
	#DEBUG_VALUE: epic_internal_filter:x_pos <- [RBP+-280]
	#DEBUG_VALUE: epic_internal_filter:sum <- 0.000000e+00
	#DEBUG_VALUE: epic_internal_filter:y_im_lin <- 0
	#DEBUG_VALUE: epic_internal_filter:x_filt <- 0
	movq	%r14, -80(%rbp)         # 8-byte Spill
	movl	$77, %edi
	callq	_KPushCDep
	movl	$91, %edi
	movl	$77, %edx
	movl	%r12d, %esi
	movl	%r13d, %ecx
	callq	_KPhi2To1
	movl	$15, %edi
	movl	$77, %edx
	movl	%ebx, %esi
	movl	%r13d, %ecx
	callq	_KPhi2To1
	movl	$87, %edi
	movl	$77, %edx
	movl	%r15d, %esi
	movl	%r13d, %ecx
	callq	_KPhi2To1
	movl	$82, %edi
	movl	$77, %edx
	movl	-48(%rbp), %esi         # 4-byte Reload
	movl	%r13d, %ecx
	callq	_KPhi2To1
	movl	$1, %edi
	callq	_KWork
	movl	$15, %edi
	movl	$15, %esi
	xorl	%edx, %edx
	callq	_KTimestamp1
	movl	$1, (%rsp)
	movl	$86, %edi
	movl	$82, %esi
	movl	$1, %edx
	movl	$85, %ecx
	movl	$1, %r8d
	movl	$77, %r9d
	callq	_KTimestamp3
	movl	$91, %edi
	movl	$86, %esi
	callq	_KPhiAddCond
	movl	$91, %edi
	movl	$91, %esi
	xorl	%edx, %edx
	callq	_KTimestamp1
	movl	$15, %edi
	movl	$86, %esi
	callq	_KPhiAddCond
	movl	$87, %edi
	movl	$86, %esi
	callq	_KPhiAddCond
	movl	$87, %edi
	movl	$87, %esi
	xorl	%edx, %edx
	callq	_KTimestamp1
	movl	$82, %edi
	movl	$86, %esi
	callq	_KPhiAddCond
	movl	$82, %edi
	movl	$82, %esi
	xorl	%edx, %edx
	callq	_KTimestamp1
	callq	_KPopCDep
	.loc	1 786 34 is_stmt 0      # epic.c:786:34
	cmpq	-96(%rbp), %r14         # 8-byte Folded Reload
	movq	%r14, %rbx
.Ltmp130:
	.loc	1 786 7                 # epic.c:786:7
	jg	.LBB3_10
# BB#6:                                 # %for.body22
                                        #   in Loop: Header=BB3_5 Depth=3
	#DEBUG_VALUE: epic_internal_filter:image <- [RBP+-112]
	#DEBUG_VALUE: epic_internal_filter:x_dim <- [RBP+-120]
	#DEBUG_VALUE: epic_internal_filter:y_dim <- [RBP+-260]
	#DEBUG_VALUE: epic_internal_filter:filt <- [RBP+-168]
	#DEBUG_VALUE: epic_internal_filter:temp <- [RBP+-104]
	#DEBUG_VALUE: epic_internal_filter:x_fdim <- [RBP+-156]
	#DEBUG_VALUE: epic_internal_filter:xgrid_start <- [RBP+24]
	#DEBUG_VALUE: epic_internal_filter:ygrid_start <- [RBP+40]
	#DEBUG_VALUE: epic_internal_filter:y_filt_lin <- [RBP+-156]
	#DEBUG_VALUE: epic_internal_filter:result <- [RBP+-328]
	#DEBUG_VALUE: epic_internal_filter:ygrid_step <- undef
	#DEBUG_VALUE: epic_internal_filter:xgrid_step <- [RBP+-304]
	#DEBUG_VALUE: epic_internal_filter:y_fdim <- undef
	#DEBUG_VALUE: epic_internal_filter:last_ctr_col <- [RBP+-172]
	#DEBUG_VALUE: epic_internal_filter:x_stop <- [RBP+-228]
	#DEBUG_VALUE: epic_internal_filter:res_pos <- 0
	#DEBUG_VALUE: epic_internal_filter:x_pos <- [RBP+-280]
	#DEBUG_VALUE: epic_internal_filter:sum <- 0.000000e+00
	#DEBUG_VALUE: epic_internal_filter:y_im_lin <- 0
	#DEBUG_VALUE: epic_internal_filter:x_filt <- 0
	movl	$2, %esi
	movabsq	$-6073537279212545749, %rdi # imm = 0xABB676060671992B
	callq	_KEnterRegion
	movl	$86, %edi
	callq	_KPushCDep
	movl	$1, %edi
	callq	_KWork
	movq	-128(%rbp), %rax        # 8-byte Reload
	cltq
	movq	%rax, -128(%rbp)        # 8-byte Spill
	movq	%rax, %r15
	movl	$96, -56(%rbp)          # 4-byte Folded Spill
	xorl	%r14d, %r14d
	movl	$96, %edi
	movl	$91, %esi
	xorl	%edx, %edx
	movl	$86, %ecx
	xorl	%r8d, %r8d
	callq	_KTimestamp2
	callq	_KPopCDep
	movl	$1, %esi
	movabsq	$-254749218116561113, %rdi # imm = 0xFC76F2EF935A9727
	callq	_KEnterRegion
	movq	-104(%rbp), %rax        # 8-byte Reload
	movq	%r15, %rcx
	leaq	(%rax,%rcx,4), %r12
	movl	$15, -64(%rbp)          # 4-byte Folded Spill
	movl	$87, %r15d
	movq	-136(%rbp), %r13        # 8-byte Reload
	movq	%rcx, -48(%rbp)         # 8-byte Spill
	jmp	.LBB3_7
	.align	16, 0x90
.LBB3_8:                                # %for.body25
                                        #   in Loop: Header=BB3_7 Depth=4
	#DEBUG_VALUE: epic_internal_filter:image <- [RBP+-112]
	#DEBUG_VALUE: epic_internal_filter:x_dim <- [RBP+-120]
	#DEBUG_VALUE: epic_internal_filter:y_dim <- [RBP+-260]
	#DEBUG_VALUE: epic_internal_filter:filt <- [RBP+-168]
	#DEBUG_VALUE: epic_internal_filter:temp <- [RBP+-104]
	#DEBUG_VALUE: epic_internal_filter:x_fdim <- [RBP+-156]
	#DEBUG_VALUE: epic_internal_filter:xgrid_start <- [RBP+24]
	#DEBUG_VALUE: epic_internal_filter:ygrid_start <- [RBP+40]
	#DEBUG_VALUE: epic_internal_filter:y_filt_lin <- [RBP+-156]
	#DEBUG_VALUE: epic_internal_filter:result <- [RBP+-328]
	#DEBUG_VALUE: epic_internal_filter:ygrid_step <- undef
	#DEBUG_VALUE: epic_internal_filter:xgrid_step <- [RBP+-304]
	#DEBUG_VALUE: epic_internal_filter:y_fdim <- undef
	#DEBUG_VALUE: epic_internal_filter:last_ctr_col <- [RBP+-172]
	#DEBUG_VALUE: epic_internal_filter:x_stop <- [RBP+-228]
	#DEBUG_VALUE: epic_internal_filter:res_pos <- 0
	#DEBUG_VALUE: epic_internal_filter:x_pos <- [RBP+-280]
	#DEBUG_VALUE: epic_internal_filter:sum <- 0.000000e+00
	#DEBUG_VALUE: epic_internal_filter:y_im_lin <- 0
	#DEBUG_VALUE: epic_internal_filter:x_filt <- 0
	movl	$2, %esi
	movabsq	$-9201829543547719920, %rbx # imm = 0x804C88C89524AF10
	movq	%rbx, %rdi
	callq	_KEnterRegion
	movl	$94, %r14d
	movl	$94, %edi
	callq	_KPushCDep
	movl	$17, %edi
	callq	_KWork
	movl	$11, %esi
	movl	$12, %edx
	movl	$4, %ecx
	movq	%r13, %rdi
	callq	_KLoad1
	.loc	1 792 18 is_stmt 1      # epic.c:792:18
.Ltmp131:
	movss	(%r13), %xmm0
	movss	%xmm0, -56(%rbp)        # 4-byte Spill
	movl	$13, %esi
	movl	$14, %edx
	movl	$4, %ecx
	movq	%r12, %rdi
	callq	_KLoad1
	movss	-56(%rbp), %xmm1        # 4-byte Reload
	mulss	(%r12), %xmm1
	.loc	1 792 11 is_stmt 0      # epic.c:792:11
	movss	-68(%rbp), %xmm0        # 4-byte Reload
	addss	%xmm1, %xmm0
.Ltmp132:
	#DEBUG_VALUE: epic_internal_filter:sum <- [RBP+-68]
	.loc	1 791 9 is_stmt 1       # epic.c:791:9
	movss	%xmm0, -68(%rbp)        # 4-byte Spill
	incq	%r15
	movq	%r15, -48(%rbp)         # 8-byte Spill
	movl	$7, 16(%rsp)
	movl	$13, 8(%rsp)
	movl	$7, (%rsp)
	movl	$97, -64(%rbp)          # 4-byte Folded Spill
	movl	$97, %edi
	movl	$90, %esi
	movl	$2, %edx
	movl	$94, %ecx
	movl	$7, %r8d
	movl	$11, %r9d
	callq	_KTimestamp4
	movl	$95, -56(%rbp)          # 4-byte Folded Spill
	movl	$95, %edi
	movl	$14, %esi
	movl	$1, %edx
	movl	$94, %ecx
	movl	$1, %r8d
	callq	_KTimestamp2
	movl	$93, %r15d
	movl	$93, %edi
	movl	$12, %esi
	movl	$1, %edx
	movl	$94, %ecx
	movl	$1, %r8d
	callq	_KTimestamp2
	callq	_KPopCDep
	movl	$2, %esi
	movq	%rbx, %rdi
	movq	-80(%rbp), %rbx         # 8-byte Reload
	callq	_KExitRegion
	addq	$4, %r13
	addq	$4, %r12
.Ltmp133:
.LBB3_7:                                # %for.cond23
                                        #   Parent Loop BB3_1 Depth=1
                                        #     Parent Loop BB3_3 Depth=2
                                        #       Parent Loop BB3_5 Depth=3
                                        # =>      This Inner Loop Header: Depth=4
	#DEBUG_VALUE: epic_internal_filter:image <- [RBP+-112]
	#DEBUG_VALUE: epic_internal_filter:x_dim <- [RBP+-120]
	#DEBUG_VALUE: epic_internal_filter:y_dim <- [RBP+-260]
	#DEBUG_VALUE: epic_internal_filter:filt <- [RBP+-168]
	#DEBUG_VALUE: epic_internal_filter:temp <- [RBP+-104]
	#DEBUG_VALUE: epic_internal_filter:x_fdim <- [RBP+-156]
	#DEBUG_VALUE: epic_internal_filter:xgrid_start <- [RBP+24]
	#DEBUG_VALUE: epic_internal_filter:ygrid_start <- [RBP+40]
	#DEBUG_VALUE: epic_internal_filter:y_filt_lin <- [RBP+-156]
	#DEBUG_VALUE: epic_internal_filter:result <- [RBP+-328]
	#DEBUG_VALUE: epic_internal_filter:ygrid_step <- undef
	#DEBUG_VALUE: epic_internal_filter:xgrid_step <- [RBP+-304]
	#DEBUG_VALUE: epic_internal_filter:y_fdim <- undef
	#DEBUG_VALUE: epic_internal_filter:last_ctr_col <- [RBP+-172]
	#DEBUG_VALUE: epic_internal_filter:x_stop <- [RBP+-228]
	#DEBUG_VALUE: epic_internal_filter:res_pos <- 0
	#DEBUG_VALUE: epic_internal_filter:x_pos <- [RBP+-280]
	#DEBUG_VALUE: epic_internal_filter:sum <- 0.000000e+00
	#DEBUG_VALUE: epic_internal_filter:y_im_lin <- 0
	#DEBUG_VALUE: epic_internal_filter:x_filt <- 0
	movl	$86, %edi
	callq	_KPushCDep
	movl	$90, %edi
	movl	$86, %edx
	movl	-64(%rbp), %esi         # 4-byte Reload
	movl	%r14d, %ecx
	callq	_KPhi2To1
	movl	$14, %edi
	movl	$86, %edx
	movl	-56(%rbp), %esi         # 4-byte Reload
	movl	%r14d, %ecx
	callq	_KPhi2To1
	movl	$12, %edi
	movl	$86, %edx
	movl	%r15d, %esi
	movl	%r14d, %ecx
	callq	_KPhi2To1
	movl	$1, %edi
	callq	_KWork
	movl	$1, (%rsp)
	movl	$94, %edi
	movl	$82, %esi
	movl	$1, %edx
	movl	$86, %ecx
	movl	$1, %r8d
	movl	$14, %r9d
	callq	_KTimestamp3
	movl	$90, %edi
	movl	$94, %esi
	callq	_KPhiAddCond
	movl	$14, %edi
	movl	$94, %esi
	callq	_KPhiAddCond
	movl	$14, %edi
	movl	$14, %esi
	xorl	%edx, %edx
	callq	_KTimestamp1
	movl	$12, %edi
	movl	$94, %esi
	callq	_KPhiAddCond
	movl	$12, %edi
	movl	$12, %esi
	xorl	%edx, %edx
	callq	_KTimestamp1
	movl	$90, %edi
	movl	$90, %esi
	xorl	%edx, %edx
	callq	_KTimestamp1
	callq	_KPopCDep
	movq	-48(%rbp), %r15         # 8-byte Reload
	.loc	1 791 9 is_stmt 0       # epic.c:791:9
	cmpq	%rbx, %r15
	jl	.LBB3_8
	jmp	.LBB3_9
.Ltmp134:
	.align	16, 0x90
.LBB3_11:                               # %for.cond17.pre_exit.for.end40
                                        #   in Loop: Header=BB3_1 Depth=1
	#DEBUG_VALUE: epic_internal_filter:image <- [RBP+-112]
	#DEBUG_VALUE: epic_internal_filter:x_dim <- [RBP+-120]
	#DEBUG_VALUE: epic_internal_filter:y_dim <- [RBP+-260]
	#DEBUG_VALUE: epic_internal_filter:filt <- [RBP+-168]
	#DEBUG_VALUE: epic_internal_filter:temp <- [RBP+-104]
	#DEBUG_VALUE: epic_internal_filter:x_fdim <- [RBP+-156]
	#DEBUG_VALUE: epic_internal_filter:xgrid_start <- [RBP+24]
	#DEBUG_VALUE: epic_internal_filter:ygrid_start <- [RBP+40]
	#DEBUG_VALUE: epic_internal_filter:y_filt_lin <- [RBP+-156]
	#DEBUG_VALUE: epic_internal_filter:result <- [RBP+-328]
	#DEBUG_VALUE: epic_internal_filter:ygrid_step <- undef
	#DEBUG_VALUE: epic_internal_filter:xgrid_step <- [RBP+-304]
	#DEBUG_VALUE: epic_internal_filter:y_fdim <- undef
	#DEBUG_VALUE: epic_internal_filter:last_ctr_col <- [RBP+-172]
	#DEBUG_VALUE: epic_internal_filter:x_stop <- [RBP+-228]
	#DEBUG_VALUE: epic_internal_filter:res_pos <- 0
	#DEBUG_VALUE: epic_internal_filter:x_pos <- [RBP+-280]
	movl	$1, %esi
	movabsq	$6763117535077584939, %rdi # imm = 0x5DDB6B90CC83D02B
	callq	_KExitRegion
	movl	$64, %edi
	callq	_KPushCDep
	movl	$1, %edi
	callq	_KWork
	.loc	1 800 17 is_stmt 1      # epic.c:800:17
	incl	%ebx
.Ltmp135:
	#DEBUG_VALUE: epic_internal_filter:first_col <- EBX
	#DEBUG_VALUE: epic_internal_filter:x_pos <- EBX
	movq	%rbx, -216(%rbp)        # 8-byte Spill
	xorl	%r14d, %r14d
	xorl	%esi, %esi
	movabsq	$-2668621406440931452, %rdi # imm = 0xDAF726F84515BF84
	callq	_KPrepCall
	callq	_KEnqArgConst
	movl	$10, %edi
	callq	_KEnqArg
	callq	_KEnqArgConst
	movl	$4, %edi
	callq	_KEnqArg
	movl	$3, %edi
	callq	_KEnqArg
	.loc	1 801 5                 # epic.c:801:5
	movl	$0, (%rsp)
	xorl	%ecx, %ecx
	movq	-168(%rbp), %rdi        # 8-byte Reload
	movl	-156(%rbp), %esi        # 4-byte Reload
	movl	16(%rbp), %edx
                                        # kill: EDX<def> EDX<kill> RDX<kill>
	movq	-200(%rbp), %r8         # 8-byte Reload
                                        # kill: R8D<def> R8D<kill> R8<kill>
	movq	-104(%rbp), %r9         # 8-byte Reload
	callq	epic_reflect1
	movslq	%r13d, %rax
	movq	%rax, -208(%rbp)        # 8-byte Spill
	movl	$102, %r15d
	movl	$102, %edi
	movl	$64, %esi
	xorl	%edx, %edx
	movl	$75, %ecx
	xorl	%r8d, %r8d
	callq	_KTimestamp2
	movq	%rbx, %r12
.Ltmp136:
	#DEBUG_VALUE: epic_internal_filter:first_col <- R12D
	#DEBUG_VALUE: epic_internal_filter:x_pos <- R12D
	movl	$70, %ebx
	movl	$70, %edi
	movl	$64, %esi
	movl	$1, %edx
	movl	$9, %ecx
	movl	$1, %r8d
	callq	_KTimestamp2
	callq	_KPopCDep
	movl	$1, %esi
	movabsq	$-1404564119509644388, %rdi # imm = 0xEC81FC60005E4B9C
	callq	_KEnterRegion
	movl	%r12d, %r13d
.Ltmp137:
	#DEBUG_VALUE: epic_internal_filter:first_col <- [RBP+-216]
	#DEBUG_VALUE: epic_internal_filter:x_pos <- [RBP+-216]
	jmp	.LBB3_12
	.align	16, 0x90
.LBB3_19:                               # %for.cond45.pre_exit.for.end65
                                        #   in Loop: Header=BB3_12 Depth=2
	#DEBUG_VALUE: epic_internal_filter:image <- [RBP+-112]
	#DEBUG_VALUE: epic_internal_filter:x_dim <- [RBP+-120]
	#DEBUG_VALUE: epic_internal_filter:y_dim <- [RBP+-260]
	#DEBUG_VALUE: epic_internal_filter:filt <- [RBP+-168]
	#DEBUG_VALUE: epic_internal_filter:temp <- [RBP+-104]
	#DEBUG_VALUE: epic_internal_filter:x_fdim <- [RBP+-156]
	#DEBUG_VALUE: epic_internal_filter:xgrid_start <- [RBP+24]
	#DEBUG_VALUE: epic_internal_filter:ygrid_start <- [RBP+40]
	#DEBUG_VALUE: epic_internal_filter:y_filt_lin <- [RBP+-156]
	#DEBUG_VALUE: epic_internal_filter:result <- [RBP+-328]
	#DEBUG_VALUE: epic_internal_filter:ygrid_step <- undef
	#DEBUG_VALUE: epic_internal_filter:xgrid_step <- [RBP+-304]
	#DEBUG_VALUE: epic_internal_filter:y_fdim <- undef
	#DEBUG_VALUE: epic_internal_filter:last_ctr_col <- [RBP+-172]
	#DEBUG_VALUE: epic_internal_filter:x_stop <- [RBP+-228]
	#DEBUG_VALUE: epic_internal_filter:res_pos <- 0
	#DEBUG_VALUE: epic_internal_filter:x_pos <- [RBP+-216]
	#DEBUG_VALUE: epic_internal_filter:first_col <- [RBP+-216]
	#DEBUG_VALUE: epic_internal_filter:sum <- 0.000000e+00
	#DEBUG_VALUE: epic_internal_filter:y_im_lin <- 0
	#DEBUG_VALUE: epic_internal_filter:x_filt <- 0
	movl	$1, %esi
	movabsq	$-2138391816404883359, %rdi # imm = 0xE252E7F90095A861
	callq	_KExitRegion
	movl	$100, %r14d
	movl	$100, %edi
	callq	_KPushCDep
	movl	$3, %edi
	callq	_KWork
	movq	56(%rbp), %rax
	movq	%rax, %r15
.Ltmp138:
	#DEBUG_VALUE: epic_internal_filter:result <- R15
	movq	-208(%rbp), %rbx        # 8-byte Reload
	.loc	1 819 7                 # epic.c:819:7
.Ltmp139:
	leaq	(%r15,%rbx,4), %rsi
	movl	$20, %edi
	movl	$4, %edx
	callq	_KStore
	movss	-68(%rbp), %xmm0        # 4-byte Reload
	movss	%xmm0, (%r15,%rbx,4)
.Ltmp140:
	#DEBUG_VALUE: epic_internal_filter:result <- [RBP+-328]
	.loc	1 803 5                 # epic.c:803:5
	incq	%rbx
	movq	%rbx, -208(%rbp)        # 8-byte Spill
	movl	32(%rbp), %eax
	movl	-184(%rbp), %r13d       # 4-byte Reload
	addl	%eax, %r13d
.Ltmp141:
	#DEBUG_VALUE: epic_internal_filter:x_pos <- R13D
	movl	$1, (%rsp)
	movl	$103, %ebx
	movl	$103, %edi
	movl	$6, %esi
	movl	$1, %edx
	movl	$101, %ecx
	movl	$1, %r8d
	movl	$100, %r9d
	callq	_KTimestamp3
	movl	$98, %r15d
	movl	$98, %edi
	movl	$74, %esi
	movl	$1, %edx
	movl	$100, %ecx
	movl	$1, %r8d
	callq	_KTimestamp2
	callq	_KPopCDep
	movl	$2, %esi
	movabsq	$4694884277845940819, %rdi # imm = 0x412794604A92DA53
	callq	_KExitRegion
.Ltmp142:
.LBB3_12:                               # %for.cond42
                                        #   Parent Loop BB3_1 Depth=1
                                        # =>  This Loop Header: Depth=2
                                        #       Child Loop BB3_14 Depth 3
                                        #         Child Loop BB3_16 Depth 4
	#DEBUG_VALUE: epic_internal_filter:image <- [RBP+-112]
	#DEBUG_VALUE: epic_internal_filter:x_dim <- [RBP+-120]
	#DEBUG_VALUE: epic_internal_filter:y_dim <- [RBP+-260]
	#DEBUG_VALUE: epic_internal_filter:filt <- [RBP+-168]
	#DEBUG_VALUE: epic_internal_filter:temp <- [RBP+-104]
	#DEBUG_VALUE: epic_internal_filter:x_fdim <- [RBP+-156]
	#DEBUG_VALUE: epic_internal_filter:xgrid_start <- [RBP+24]
	#DEBUG_VALUE: epic_internal_filter:ygrid_start <- [RBP+40]
	#DEBUG_VALUE: epic_internal_filter:y_filt_lin <- [RBP+-156]
	#DEBUG_VALUE: epic_internal_filter:result <- [RBP+-328]
	#DEBUG_VALUE: epic_internal_filter:ygrid_step <- undef
	#DEBUG_VALUE: epic_internal_filter:xgrid_step <- [RBP+-304]
	#DEBUG_VALUE: epic_internal_filter:y_fdim <- undef
	#DEBUG_VALUE: epic_internal_filter:last_ctr_col <- [RBP+-172]
	#DEBUG_VALUE: epic_internal_filter:x_stop <- [RBP+-228]
	#DEBUG_VALUE: epic_internal_filter:res_pos <- 0
	#DEBUG_VALUE: epic_internal_filter:x_pos <- [RBP+-216]
	#DEBUG_VALUE: epic_internal_filter:first_col <- [RBP+-216]
	movl	$64, %edi
	callq	_KPushCDep
	movl	$101, %edi
	movl	$64, %edx
	movl	%ebx, %esi
	movl	%r14d, %ecx
	callq	_KPhi2To1
	movl	$74, %edi
	movl	$64, %edx
	movl	%r15d, %esi
	movl	%r14d, %ecx
	callq	_KPhi2To1
	movl	$1, %edi
	callq	_KWork
	movl	$1, (%rsp)
	movl	$100, %edi
	movl	$99, %esi
	movl	$1, %edx
	movl	$64, %ecx
	movl	$1, %r8d
	movl	$101, %r9d
	callq	_KTimestamp3
	movl	$101, %edi
	movl	$100, %esi
	callq	_KPhiAddCond
	movl	$101, %edi
	movl	$101, %esi
	xorl	%edx, %edx
	callq	_KTimestamp1
	movl	$74, %edi
	movl	$100, %esi
	callq	_KPhiAddCond
	movl	$74, %edi
	movl	$74, %esi
	xorl	%edx, %edx
	callq	_KTimestamp1
	callq	_KPopCDep
	.loc	1 803 5 is_stmt 0       # epic.c:803:5
	cmpl	-172(%rbp), %r13d       # 4-byte Folded Reload
	jge	.LBB3_20
# BB#13:                                # %for.body44
                                        #   in Loop: Header=BB3_12 Depth=2
	#DEBUG_VALUE: epic_internal_filter:image <- [RBP+-112]
	#DEBUG_VALUE: epic_internal_filter:x_dim <- [RBP+-120]
	#DEBUG_VALUE: epic_internal_filter:y_dim <- [RBP+-260]
	#DEBUG_VALUE: epic_internal_filter:filt <- [RBP+-168]
	#DEBUG_VALUE: epic_internal_filter:temp <- [RBP+-104]
	#DEBUG_VALUE: epic_internal_filter:x_fdim <- [RBP+-156]
	#DEBUG_VALUE: epic_internal_filter:xgrid_start <- [RBP+24]
	#DEBUG_VALUE: epic_internal_filter:ygrid_start <- [RBP+40]
	#DEBUG_VALUE: epic_internal_filter:y_filt_lin <- [RBP+-156]
	#DEBUG_VALUE: epic_internal_filter:result <- [RBP+-328]
	#DEBUG_VALUE: epic_internal_filter:ygrid_step <- undef
	#DEBUG_VALUE: epic_internal_filter:xgrid_step <- [RBP+-304]
	#DEBUG_VALUE: epic_internal_filter:y_fdim <- undef
	#DEBUG_VALUE: epic_internal_filter:last_ctr_col <- [RBP+-172]
	#DEBUG_VALUE: epic_internal_filter:x_stop <- [RBP+-228]
	#DEBUG_VALUE: epic_internal_filter:res_pos <- 0
	#DEBUG_VALUE: epic_internal_filter:x_pos <- [RBP+-216]
	#DEBUG_VALUE: epic_internal_filter:first_col <- [RBP+-216]
	movl	$2, %esi
	movabsq	$4694884277845940819, %rdi # imm = 0x412794604A92DA53
	callq	_KEnterRegion
	movl	$100, %edi
	callq	_KPushCDep
	#DEBUG_VALUE: epic_internal_filter:x_filt <- 0
	#DEBUG_VALUE: epic_internal_filter:y_im_lin <- 0
	#DEBUG_VALUE: epic_internal_filter:sum <- 0.000000e+00
	callq	_KPopCDep
	movl	$1, %esi
	movabsq	$-2138391816404883359, %rdi # imm = 0xE252E7F90095A861
	callq	_KEnterRegion
	xorps	%xmm0, %xmm0
	movss	%xmm0, -68(%rbp)        # 4-byte Spill
	movl	$101, -48(%rbp)         # 4-byte Folded Spill
	movl	$106, %r15d
	xorl	%ebx, %ebx
	movq	-88(%rbp), %r14         # 8-byte Reload
	movl	%r13d, -136(%rbp)       # 4-byte Spill
	movl	%r13d, -184(%rbp)       # 4-byte Spill
	xorl	%r13d, %r13d
	xorl	%r12d, %r12d
	xorl	%eax, %eax
	movq	%rax, -128(%rbp)        # 8-byte Spill
	jmp	.LBB3_14
	.align	16, 0x90
.LBB3_18:                               # %for.cond49.pre_exit.for.end61
                                        #   in Loop: Header=BB3_14 Depth=3
	#DEBUG_VALUE: epic_internal_filter:image <- [RBP+-112]
	#DEBUG_VALUE: epic_internal_filter:x_dim <- [RBP+-120]
	#DEBUG_VALUE: epic_internal_filter:y_dim <- [RBP+-260]
	#DEBUG_VALUE: epic_internal_filter:filt <- [RBP+-168]
	#DEBUG_VALUE: epic_internal_filter:temp <- [RBP+-104]
	#DEBUG_VALUE: epic_internal_filter:x_fdim <- [RBP+-156]
	#DEBUG_VALUE: epic_internal_filter:xgrid_start <- [RBP+24]
	#DEBUG_VALUE: epic_internal_filter:ygrid_start <- [RBP+40]
	#DEBUG_VALUE: epic_internal_filter:y_filt_lin <- [RBP+-156]
	#DEBUG_VALUE: epic_internal_filter:result <- [RBP+-328]
	#DEBUG_VALUE: epic_internal_filter:ygrid_step <- undef
	#DEBUG_VALUE: epic_internal_filter:xgrid_step <- [RBP+-304]
	#DEBUG_VALUE: epic_internal_filter:y_fdim <- undef
	#DEBUG_VALUE: epic_internal_filter:last_ctr_col <- [RBP+-172]
	#DEBUG_VALUE: epic_internal_filter:x_stop <- [RBP+-228]
	#DEBUG_VALUE: epic_internal_filter:res_pos <- 0
	#DEBUG_VALUE: epic_internal_filter:x_pos <- [RBP+-216]
	#DEBUG_VALUE: epic_internal_filter:first_col <- [RBP+-216]
	#DEBUG_VALUE: epic_internal_filter:sum <- 0.000000e+00
	#DEBUG_VALUE: epic_internal_filter:y_im_lin <- 0
	#DEBUG_VALUE: epic_internal_filter:x_filt <- 0
	movl	$1, %esi
	movabsq	$6059433308505529861, %rdi # imm = 0x54176E7D65A45E05
	callq	_KExitRegion
	movq	%rbx, %r14
	movl	$108, %ebx
	movl	$108, %edi
	callq	_KPushCDep
	movl	$2, %edi
	callq	_KWork
	movq	-128(%rbp), %rax        # 8-byte Reload
	cmpq	%rax, %r14
	cmovgeq	%r14, %rax
	movq	%rax, -128(%rbp)        # 8-byte Spill
	.loc	1 809 7 is_stmt 1       # epic.c:809:7
.Ltmp143:
	movq	-120(%rbp), %rax        # 8-byte Reload
	addl	%eax, -136(%rbp)        # 4-byte Folded Spill
	addq	-88(%rbp), %r14         # 8-byte Folded Reload
	movl	$1, (%rsp)
	movl	$113, %r12d
	movl	$113, %edi
	movl	$112, %esi
	movl	$1, %edx
	movl	$108, %ecx
	movl	$1, %r8d
	movl	$104, %r9d
	callq	_KTimestamp3
	movl	$1, (%rsp)
	movl	$110, -48(%rbp)         # 4-byte Folded Spill
	movl	$110, %edi
	movl	$1, %esi
	movl	$1, %edx
	movl	$108, %ecx
	movl	$1, %r8d
	movl	$109, %r9d
	callq	_KTimestamp3
	movl	$1, (%rsp)
	movl	$105, %r15d
	movl	$105, %edi
	movl	$106, %esi
	movl	$1, %edx
	movl	$108, %ecx
	movl	$1, %r8d
	movl	$104, %r9d
	callq	_KTimestamp3
	callq	_KPopCDep
	movl	$2, %esi
	movabsq	$-1304317761962885368, %rdi # imm = 0xEDE621E7F3F83F08
	callq	_KExitRegion
	movl	$111, %r13d
.LBB3_14:                               # %for.cond45
                                        #   Parent Loop BB3_1 Depth=1
                                        #     Parent Loop BB3_12 Depth=2
                                        # =>    This Loop Header: Depth=3
                                        #         Child Loop BB3_16 Depth 4
	#DEBUG_VALUE: epic_internal_filter:image <- [RBP+-112]
	#DEBUG_VALUE: epic_internal_filter:x_dim <- [RBP+-120]
	#DEBUG_VALUE: epic_internal_filter:y_dim <- [RBP+-260]
	#DEBUG_VALUE: epic_internal_filter:filt <- [RBP+-168]
	#DEBUG_VALUE: epic_internal_filter:temp <- [RBP+-104]
	#DEBUG_VALUE: epic_internal_filter:x_fdim <- [RBP+-156]
	#DEBUG_VALUE: epic_internal_filter:xgrid_start <- [RBP+24]
	#DEBUG_VALUE: epic_internal_filter:ygrid_start <- [RBP+40]
	#DEBUG_VALUE: epic_internal_filter:y_filt_lin <- [RBP+-156]
	#DEBUG_VALUE: epic_internal_filter:result <- [RBP+-328]
	#DEBUG_VALUE: epic_internal_filter:ygrid_step <- undef
	#DEBUG_VALUE: epic_internal_filter:xgrid_step <- [RBP+-304]
	#DEBUG_VALUE: epic_internal_filter:y_fdim <- undef
	#DEBUG_VALUE: epic_internal_filter:last_ctr_col <- [RBP+-172]
	#DEBUG_VALUE: epic_internal_filter:x_stop <- [RBP+-228]
	#DEBUG_VALUE: epic_internal_filter:res_pos <- 0
	#DEBUG_VALUE: epic_internal_filter:x_pos <- [RBP+-216]
	#DEBUG_VALUE: epic_internal_filter:first_col <- [RBP+-216]
	#DEBUG_VALUE: epic_internal_filter:sum <- 0.000000e+00
	#DEBUG_VALUE: epic_internal_filter:y_im_lin <- 0
	#DEBUG_VALUE: epic_internal_filter:x_filt <- 0
	movq	%r14, -80(%rbp)         # 8-byte Spill
	movl	$100, %edi
	callq	_KPushCDep
	movl	$112, %edi
	movl	$100, %edx
	movl	%r12d, %esi
	movl	%ebx, %ecx
	callq	_KPhi2To1
	movl	$20, %edi
	movl	$100, %edx
	movl	%r13d, %esi
	movl	%ebx, %ecx
	callq	_KPhi2To1
	movl	$109, %edi
	movl	$100, %edx
	movl	-48(%rbp), %esi         # 4-byte Reload
	movl	%ebx, %ecx
	callq	_KPhi2To1
	movl	$104, %edi
	movl	$100, %edx
	movl	%r15d, %esi
	movl	%ebx, %ecx
	callq	_KPhi2To1
	movl	$1, %edi
	callq	_KWork
	movl	$20, %edi
	movl	$20, %esi
	xorl	%edx, %edx
	callq	_KTimestamp1
	movl	$116, %edi
	movl	$100, %esi
	xorl	%edx, %edx
	movl	$109, %ecx
	xorl	%r8d, %r8d
	callq	_KTimestamp2
	movl	$1, (%rsp)
	movl	$108, %edi
	movl	$107, %esi
	movl	$1, %edx
	movl	$100, %ecx
	movl	$1, %r8d
	movl	$104, %r9d
	callq	_KTimestamp3
	movl	$112, %edi
	movl	$108, %esi
	callq	_KPhiAddCond
	movl	$112, %edi
	movl	$112, %esi
	xorl	%edx, %edx
	callq	_KTimestamp1
	movl	$20, %edi
	movl	$108, %esi
	callq	_KPhiAddCond
	movl	$109, %edi
	movl	$108, %esi
	callq	_KPhiAddCond
	movl	$109, %edi
	movl	$109, %esi
	xorl	%edx, %edx
	callq	_KTimestamp1
	movl	$104, %edi
	movl	$108, %esi
	callq	_KPhiAddCond
	movl	$104, %edi
	movl	$104, %esi
	xorl	%edx, %edx
	callq	_KTimestamp1
	callq	_KPopCDep
	.loc	1 809 34 is_stmt 0      # epic.c:809:34
	cmpq	-96(%rbp), %r14         # 8-byte Folded Reload
	movq	%r14, %rbx
.Ltmp144:
	.loc	1 809 7                 # epic.c:809:7
	jg	.LBB3_19
# BB#15:                                # %for.body47
                                        #   in Loop: Header=BB3_14 Depth=3
	#DEBUG_VALUE: epic_internal_filter:image <- [RBP+-112]
	#DEBUG_VALUE: epic_internal_filter:x_dim <- [RBP+-120]
	#DEBUG_VALUE: epic_internal_filter:y_dim <- [RBP+-260]
	#DEBUG_VALUE: epic_internal_filter:filt <- [RBP+-168]
	#DEBUG_VALUE: epic_internal_filter:temp <- [RBP+-104]
	#DEBUG_VALUE: epic_internal_filter:x_fdim <- [RBP+-156]
	#DEBUG_VALUE: epic_internal_filter:xgrid_start <- [RBP+24]
	#DEBUG_VALUE: epic_internal_filter:ygrid_start <- [RBP+40]
	#DEBUG_VALUE: epic_internal_filter:y_filt_lin <- [RBP+-156]
	#DEBUG_VALUE: epic_internal_filter:result <- [RBP+-328]
	#DEBUG_VALUE: epic_internal_filter:ygrid_step <- undef
	#DEBUG_VALUE: epic_internal_filter:xgrid_step <- [RBP+-304]
	#DEBUG_VALUE: epic_internal_filter:y_fdim <- undef
	#DEBUG_VALUE: epic_internal_filter:last_ctr_col <- [RBP+-172]
	#DEBUG_VALUE: epic_internal_filter:x_stop <- [RBP+-228]
	#DEBUG_VALUE: epic_internal_filter:res_pos <- 0
	#DEBUG_VALUE: epic_internal_filter:x_pos <- [RBP+-216]
	#DEBUG_VALUE: epic_internal_filter:first_col <- [RBP+-216]
	#DEBUG_VALUE: epic_internal_filter:sum <- 0.000000e+00
	#DEBUG_VALUE: epic_internal_filter:y_im_lin <- 0
	#DEBUG_VALUE: epic_internal_filter:x_filt <- 0
	movslq	-136(%rbp), %rax        # 4-byte Folded Reload
	movq	-112(%rbp), %rcx        # 8-byte Reload
	leaq	(%rcx,%rax,4), %r12
	movl	$2, %esi
	movabsq	$-1304317761962885368, %rdi # imm = 0xEDE621E7F3F83F08
	callq	_KEnterRegion
	movl	$108, %edi
	callq	_KPushCDep
	movl	$1, %edi
	callq	_KWork
	movq	-128(%rbp), %rax        # 8-byte Reload
	cltq
	movq	%rax, -128(%rbp)        # 8-byte Spill
	movq	%rax, %r14
	movl	$118, -56(%rbp)         # 4-byte Folded Spill
	xorl	%r15d, %r15d
	movl	$118, %edi
	movl	$112, %esi
	xorl	%edx, %edx
	movl	$108, %ecx
	xorl	%r8d, %r8d
	callq	_KTimestamp2
	callq	_KPopCDep
	movl	$1, %esi
	movabsq	$6059433308505529861, %rdi # imm = 0x54176E7D65A45E05
	callq	_KEnterRegion
	movq	-104(%rbp), %rax        # 8-byte Reload
	movq	%r14, %rcx
	leaq	(%rax,%rcx,4), %r14
	movl	$20, -64(%rbp)          # 4-byte Folded Spill
	movl	$116, %r13d
	movq	%rcx, -48(%rbp)         # 8-byte Spill
	jmp	.LBB3_16
	.align	16, 0x90
.LBB3_17:                               # %for.body51
                                        #   in Loop: Header=BB3_16 Depth=4
	#DEBUG_VALUE: epic_internal_filter:image <- [RBP+-112]
	#DEBUG_VALUE: epic_internal_filter:x_dim <- [RBP+-120]
	#DEBUG_VALUE: epic_internal_filter:y_dim <- [RBP+-260]
	#DEBUG_VALUE: epic_internal_filter:filt <- [RBP+-168]
	#DEBUG_VALUE: epic_internal_filter:temp <- [RBP+-104]
	#DEBUG_VALUE: epic_internal_filter:x_fdim <- [RBP+-156]
	#DEBUG_VALUE: epic_internal_filter:xgrid_start <- [RBP+24]
	#DEBUG_VALUE: epic_internal_filter:ygrid_start <- [RBP+40]
	#DEBUG_VALUE: epic_internal_filter:y_filt_lin <- [RBP+-156]
	#DEBUG_VALUE: epic_internal_filter:result <- [RBP+-328]
	#DEBUG_VALUE: epic_internal_filter:ygrid_step <- undef
	#DEBUG_VALUE: epic_internal_filter:xgrid_step <- [RBP+-304]
	#DEBUG_VALUE: epic_internal_filter:y_fdim <- undef
	#DEBUG_VALUE: epic_internal_filter:last_ctr_col <- [RBP+-172]
	#DEBUG_VALUE: epic_internal_filter:x_stop <- [RBP+-228]
	#DEBUG_VALUE: epic_internal_filter:res_pos <- 0
	#DEBUG_VALUE: epic_internal_filter:x_pos <- [RBP+-216]
	#DEBUG_VALUE: epic_internal_filter:first_col <- [RBP+-216]
	#DEBUG_VALUE: epic_internal_filter:sum <- 0.000000e+00
	#DEBUG_VALUE: epic_internal_filter:y_im_lin <- 0
	#DEBUG_VALUE: epic_internal_filter:x_filt <- 0
	movl	$2, %esi
	movabsq	$587515144772339845, %rbx # imm = 0x82745E950514885
	movq	%rbx, %rdi
	callq	_KEnterRegion
	movl	$115, %r15d
	movl	$115, %edi
	callq	_KPushCDep
	movl	$17, %edi
	callq	_KWork
	movl	$16, %esi
	movl	$17, %edx
	movl	$4, %ecx
	movq	%r12, %rdi
	callq	_KLoad1
	.loc	1 814 18 is_stmt 1      # epic.c:814:18
.Ltmp145:
	movss	(%r12), %xmm0
	movss	%xmm0, -56(%rbp)        # 4-byte Spill
	movl	$18, %esi
	movl	$19, %edx
	movl	$4, %ecx
	movq	%r14, %rdi
	callq	_KLoad1
	movss	-56(%rbp), %xmm1        # 4-byte Reload
	mulss	(%r14), %xmm1
	.loc	1 814 11 is_stmt 0      # epic.c:814:11
	movss	-68(%rbp), %xmm0        # 4-byte Reload
	addss	%xmm1, %xmm0
.Ltmp146:
	#DEBUG_VALUE: epic_internal_filter:sum <- [RBP+-68]
	.loc	1 813 9 is_stmt 1       # epic.c:813:9
	movss	%xmm0, -68(%rbp)        # 4-byte Spill
	incq	%r13
	movq	%r13, -48(%rbp)         # 8-byte Spill
	movl	$7, 16(%rsp)
	movl	$18, 8(%rsp)
	movl	$7, (%rsp)
	movl	$119, -64(%rbp)         # 4-byte Folded Spill
	movl	$119, %edi
	movl	$111, %esi
	movl	$2, %edx
	movl	$115, %ecx
	movl	$7, %r8d
	movl	$16, %r9d
	callq	_KTimestamp4
	movl	$117, -56(%rbp)         # 4-byte Folded Spill
	movl	$117, %edi
	movl	$19, %esi
	movl	$1, %edx
	movl	$115, %ecx
	movl	$1, %r8d
	callq	_KTimestamp2
	movl	$114, %r13d
	movl	$114, %edi
	movl	$17, %esi
	movl	$1, %edx
	movl	$115, %ecx
	movl	$1, %r8d
	callq	_KTimestamp2
	callq	_KPopCDep
	movl	$2, %esi
	movq	%rbx, %rdi
	movq	-80(%rbp), %rbx         # 8-byte Reload
	callq	_KExitRegion
	addq	$4, %r12
	addq	$4, %r14
.Ltmp147:
.LBB3_16:                               # %for.cond49
                                        #   Parent Loop BB3_1 Depth=1
                                        #     Parent Loop BB3_12 Depth=2
                                        #       Parent Loop BB3_14 Depth=3
                                        # =>      This Inner Loop Header: Depth=4
	#DEBUG_VALUE: epic_internal_filter:image <- [RBP+-112]
	#DEBUG_VALUE: epic_internal_filter:x_dim <- [RBP+-120]
	#DEBUG_VALUE: epic_internal_filter:y_dim <- [RBP+-260]
	#DEBUG_VALUE: epic_internal_filter:filt <- [RBP+-168]
	#DEBUG_VALUE: epic_internal_filter:temp <- [RBP+-104]
	#DEBUG_VALUE: epic_internal_filter:x_fdim <- [RBP+-156]
	#DEBUG_VALUE: epic_internal_filter:xgrid_start <- [RBP+24]
	#DEBUG_VALUE: epic_internal_filter:ygrid_start <- [RBP+40]
	#DEBUG_VALUE: epic_internal_filter:y_filt_lin <- [RBP+-156]
	#DEBUG_VALUE: epic_internal_filter:result <- [RBP+-328]
	#DEBUG_VALUE: epic_internal_filter:ygrid_step <- undef
	#DEBUG_VALUE: epic_internal_filter:xgrid_step <- [RBP+-304]
	#DEBUG_VALUE: epic_internal_filter:y_fdim <- undef
	#DEBUG_VALUE: epic_internal_filter:last_ctr_col <- [RBP+-172]
	#DEBUG_VALUE: epic_internal_filter:x_stop <- [RBP+-228]
	#DEBUG_VALUE: epic_internal_filter:res_pos <- 0
	#DEBUG_VALUE: epic_internal_filter:x_pos <- [RBP+-216]
	#DEBUG_VALUE: epic_internal_filter:first_col <- [RBP+-216]
	#DEBUG_VALUE: epic_internal_filter:sum <- 0.000000e+00
	#DEBUG_VALUE: epic_internal_filter:y_im_lin <- 0
	#DEBUG_VALUE: epic_internal_filter:x_filt <- 0
	movl	$108, %edi
	callq	_KPushCDep
	movl	$111, %edi
	movl	$108, %edx
	movl	-64(%rbp), %esi         # 4-byte Reload
	movl	%r15d, %ecx
	callq	_KPhi2To1
	movl	$19, %edi
	movl	$108, %edx
	movl	-56(%rbp), %esi         # 4-byte Reload
	movl	%r15d, %ecx
	callq	_KPhi2To1
	movl	$17, %edi
	movl	$108, %edx
	movl	%r13d, %esi
	movl	%r15d, %ecx
	callq	_KPhi2To1
	movl	$1, %edi
	callq	_KWork
	movl	$1, (%rsp)
	movl	$115, %edi
	movl	$108, %esi
	movl	$1, %edx
	movl	$104, %ecx
	movl	$1, %r8d
	movl	$19, %r9d
	callq	_KTimestamp3
	movl	$111, %edi
	movl	$115, %esi
	callq	_KPhiAddCond
	movl	$19, %edi
	movl	$115, %esi
	callq	_KPhiAddCond
	movl	$19, %edi
	movl	$19, %esi
	xorl	%edx, %edx
	callq	_KTimestamp1
	movl	$17, %edi
	movl	$115, %esi
	callq	_KPhiAddCond
	movl	$17, %edi
	movl	$17, %esi
	xorl	%edx, %edx
	callq	_KTimestamp1
	movl	$111, %edi
	movl	$111, %esi
	xorl	%edx, %edx
	callq	_KTimestamp1
	callq	_KPopCDep
	movq	-48(%rbp), %r13         # 8-byte Reload
	.loc	1 813 9 is_stmt 0       # epic.c:813:9
	cmpq	%rbx, %r13
	jl	.LBB3_17
	jmp	.LBB3_18
.Ltmp148:
	.align	16, 0x90
.LBB3_20:                               # %for.cond42.pre_exit.for.end71
                                        #   in Loop: Header=BB3_1 Depth=1
	#DEBUG_VALUE: epic_internal_filter:image <- [RBP+-112]
	#DEBUG_VALUE: epic_internal_filter:x_dim <- [RBP+-120]
	#DEBUG_VALUE: epic_internal_filter:y_dim <- [RBP+-260]
	#DEBUG_VALUE: epic_internal_filter:filt <- [RBP+-168]
	#DEBUG_VALUE: epic_internal_filter:temp <- [RBP+-104]
	#DEBUG_VALUE: epic_internal_filter:x_fdim <- [RBP+-156]
	#DEBUG_VALUE: epic_internal_filter:xgrid_start <- [RBP+24]
	#DEBUG_VALUE: epic_internal_filter:ygrid_start <- [RBP+40]
	#DEBUG_VALUE: epic_internal_filter:y_filt_lin <- [RBP+-156]
	#DEBUG_VALUE: epic_internal_filter:result <- [RBP+-328]
	#DEBUG_VALUE: epic_internal_filter:ygrid_step <- undef
	#DEBUG_VALUE: epic_internal_filter:xgrid_step <- [RBP+-304]
	#DEBUG_VALUE: epic_internal_filter:y_fdim <- undef
	#DEBUG_VALUE: epic_internal_filter:last_ctr_col <- [RBP+-172]
	#DEBUG_VALUE: epic_internal_filter:x_stop <- [RBP+-228]
	#DEBUG_VALUE: epic_internal_filter:res_pos <- 0
	#DEBUG_VALUE: epic_internal_filter:x_pos <- [RBP+-216]
	#DEBUG_VALUE: epic_internal_filter:first_col <- [RBP+-216]
	movl	$1, %esi
	movabsq	$-1404564119509644388, %rdi # imm = 0xEC81FC60005E4B9C
	callq	_KExitRegion
	movl	$64, %edi
	callq	_KPushCDep
	movl	$2, %edi
	callq	_KWork
	.loc	1 824 11 is_stmt 1      # epic.c:824:11
.Ltmp149:
	addl	-284(%rbp), %r13d       # 4-byte Folded Reload
.Ltmp150:
	#DEBUG_VALUE: epic_internal_filter:x_pos <- R13D
	movq	-208(%rbp), %rax        # 8-byte Reload
	cltq
	movq	%rax, -152(%rbp)        # 8-byte Spill
	movl	$1, (%rsp)
	movl	$124, %r14d
	movl	$124, %edi
	movl	$99, %esi
	movl	$2, %edx
	movl	$64, %ecx
	movl	$2, %r8d
	movl	$101, %r9d
	callq	_KTimestamp3
	movl	$123, %r15d
	xorl	%r12d, %r12d
	movl	$123, %edi
	movl	$64, %esi
	xorl	%edx, %edx
	movl	$74, %ecx
	xorl	%r8d, %r8d
	callq	_KTimestamp2
	callq	_KPopCDep
	movl	$1, %esi
	movabsq	$1556451145736482395, %rdi # imm = 0x1599A01213DF6E5B
	callq	_KEnterRegion
	jmp	.LBB3_21
.Ltmp151:
	.align	16, 0x90
.LBB3_28:                               # %for.cond78.pre_exit.for.end98
                                        #   in Loop: Header=BB3_21 Depth=2
	#DEBUG_VALUE: epic_internal_filter:image <- [RBP+-112]
	#DEBUG_VALUE: epic_internal_filter:x_dim <- [RBP+-120]
	#DEBUG_VALUE: epic_internal_filter:y_dim <- [RBP+-260]
	#DEBUG_VALUE: epic_internal_filter:filt <- [RBP+-168]
	#DEBUG_VALUE: epic_internal_filter:temp <- [RBP+-104]
	#DEBUG_VALUE: epic_internal_filter:x_fdim <- [RBP+-156]
	#DEBUG_VALUE: epic_internal_filter:xgrid_start <- [RBP+24]
	#DEBUG_VALUE: epic_internal_filter:ygrid_start <- [RBP+40]
	#DEBUG_VALUE: epic_internal_filter:y_filt_lin <- [RBP+-156]
	#DEBUG_VALUE: epic_internal_filter:result <- [RBP+-328]
	#DEBUG_VALUE: epic_internal_filter:ygrid_step <- undef
	#DEBUG_VALUE: epic_internal_filter:xgrid_step <- [RBP+-304]
	#DEBUG_VALUE: epic_internal_filter:y_fdim <- undef
	#DEBUG_VALUE: epic_internal_filter:last_ctr_col <- [RBP+-172]
	#DEBUG_VALUE: epic_internal_filter:x_stop <- [RBP+-228]
	#DEBUG_VALUE: epic_internal_filter:res_pos <- 0
	#DEBUG_VALUE: epic_internal_filter:first_col <- [RBP+-216]
	#DEBUG_VALUE: epic_internal_filter:sum <- 0.000000e+00
	#DEBUG_VALUE: epic_internal_filter:y_im_lin <- 0
	#DEBUG_VALUE: epic_internal_filter:x_filt <- 0
	movl	$1, %esi
	movabsq	$-7053111608565668297, %rdi # imm = 0x9E1E505C6A426637
	callq	_KExitRegion
	movl	$122, %r12d
	movl	$122, %edi
	callq	_KPushCDep
	movl	$3, %edi
	callq	_KWork
	movq	56(%rbp), %rax
	movq	%rax, %r14
.Ltmp152:
	#DEBUG_VALUE: epic_internal_filter:result <- R14
	movq	-152(%rbp), %rbx        # 8-byte Reload
	.loc	1 842 7                 # epic.c:842:7
.Ltmp153:
	leaq	(%r14,%rbx,4), %rsi
	movl	$26, %edi
	movl	$4, %edx
	callq	_KStore
	movss	-68(%rbp), %xmm0        # 4-byte Reload
	movss	%xmm0, (%r14,%rbx,4)
.Ltmp154:
	#DEBUG_VALUE: epic_internal_filter:result <- [RBP+-328]
	.loc	1 824 5                 # epic.c:824:5
	incq	%rbx
	movq	%rbx, -152(%rbp)        # 8-byte Spill
	movl	32(%rbp), %eax
	movl	-184(%rbp), %r13d       # 4-byte Reload
	.loc	1 826 11                # epic.c:826:11
	addl	%eax, %r13d
.Ltmp155:
	#DEBUG_VALUE: epic_internal_filter:x_pos <- R13D
	movl	$1, (%rsp)
	movl	$125, %r14d
	movl	$125, %edi
	movl	$6, %esi
	movl	$1, %edx
	movl	$21, %ecx
	movl	$1, %r8d
	movl	$122, %r9d
	callq	_KTimestamp3
	movl	$120, %r15d
	movl	$120, %edi
	movl	$67, %esi
	movl	$1, %edx
	movl	$122, %ecx
	movl	$1, %r8d
	callq	_KTimestamp2
	callq	_KPopCDep
	movl	$2, %esi
	movabsq	$-5629146214840784827, %rdi # imm = 0xB1E1415793AE2845
	callq	_KExitRegion
.Ltmp156:
.LBB3_21:                               # %for.cond75
                                        #   Parent Loop BB3_1 Depth=1
                                        # =>  This Loop Header: Depth=2
                                        #       Child Loop BB3_23 Depth 3
                                        #         Child Loop BB3_25 Depth 4
	#DEBUG_VALUE: epic_internal_filter:image <- [RBP+-112]
	#DEBUG_VALUE: epic_internal_filter:x_dim <- [RBP+-120]
	#DEBUG_VALUE: epic_internal_filter:y_dim <- [RBP+-260]
	#DEBUG_VALUE: epic_internal_filter:filt <- [RBP+-168]
	#DEBUG_VALUE: epic_internal_filter:temp <- [RBP+-104]
	#DEBUG_VALUE: epic_internal_filter:x_fdim <- [RBP+-156]
	#DEBUG_VALUE: epic_internal_filter:xgrid_start <- [RBP+24]
	#DEBUG_VALUE: epic_internal_filter:ygrid_start <- [RBP+40]
	#DEBUG_VALUE: epic_internal_filter:y_filt_lin <- [RBP+-156]
	#DEBUG_VALUE: epic_internal_filter:result <- [RBP+-328]
	#DEBUG_VALUE: epic_internal_filter:ygrid_step <- undef
	#DEBUG_VALUE: epic_internal_filter:xgrid_step <- [RBP+-304]
	#DEBUG_VALUE: epic_internal_filter:y_fdim <- undef
	#DEBUG_VALUE: epic_internal_filter:last_ctr_col <- [RBP+-172]
	#DEBUG_VALUE: epic_internal_filter:x_stop <- [RBP+-228]
	#DEBUG_VALUE: epic_internal_filter:res_pos <- 0
	#DEBUG_VALUE: epic_internal_filter:first_col <- [RBP+-216]
	movl	$64, %edi
	callq	_KPushCDep
	movl	$21, %edi
	movl	$64, %edx
	movl	%r14d, %esi
	movl	%r12d, %ecx
	callq	_KPhi2To1
	movl	$67, %edi
	movl	$64, %edx
	movl	%r15d, %esi
	movl	%r12d, %ecx
	callq	_KPhi2To1
	movl	$1, %edi
	callq	_KWork
	movl	$21, %edi
	movl	$21, %esi
	xorl	%edx, %edx
	callq	_KTimestamp1
	movl	$1, (%rsp)
	movl	$122, %edi
	movl	$121, %esi
	movl	$1, %edx
	movl	$64, %ecx
	movl	$1, %r8d
	movl	$21, %r9d
	callq	_KTimestamp3
	movl	$21, %edi
	movl	$122, %esi
	callq	_KPhiAddCond
	movl	$67, %edi
	movl	$122, %esi
	callq	_KPhiAddCond
	movl	$67, %edi
	movl	$67, %esi
	xorl	%edx, %edx
	callq	_KTimestamp1
	callq	_KPopCDep
	.loc	1 824 5                 # epic.c:824:5
	cmpl	-228(%rbp), %r13d       # 4-byte Folded Reload
	jge	.LBB3_29
# BB#22:                                # %for.body77
                                        #   in Loop: Header=BB3_21 Depth=2
	#DEBUG_VALUE: epic_internal_filter:image <- [RBP+-112]
	#DEBUG_VALUE: epic_internal_filter:x_dim <- [RBP+-120]
	#DEBUG_VALUE: epic_internal_filter:y_dim <- [RBP+-260]
	#DEBUG_VALUE: epic_internal_filter:filt <- [RBP+-168]
	#DEBUG_VALUE: epic_internal_filter:temp <- [RBP+-104]
	#DEBUG_VALUE: epic_internal_filter:x_fdim <- [RBP+-156]
	#DEBUG_VALUE: epic_internal_filter:xgrid_start <- [RBP+24]
	#DEBUG_VALUE: epic_internal_filter:ygrid_start <- [RBP+40]
	#DEBUG_VALUE: epic_internal_filter:y_filt_lin <- [RBP+-156]
	#DEBUG_VALUE: epic_internal_filter:result <- [RBP+-328]
	#DEBUG_VALUE: epic_internal_filter:ygrid_step <- undef
	#DEBUG_VALUE: epic_internal_filter:xgrid_step <- [RBP+-304]
	#DEBUG_VALUE: epic_internal_filter:y_fdim <- undef
	#DEBUG_VALUE: epic_internal_filter:last_ctr_col <- [RBP+-172]
	#DEBUG_VALUE: epic_internal_filter:x_stop <- [RBP+-228]
	#DEBUG_VALUE: epic_internal_filter:res_pos <- 0
	#DEBUG_VALUE: epic_internal_filter:first_col <- [RBP+-216]
	movl	$2, %esi
	movabsq	$-5629146214840784827, %rdi # imm = 0xB1E1415793AE2845
	callq	_KEnterRegion
	movl	$122, %edi
	callq	_KPushCDep
	movl	%r13d, %ebx
	movl	%ebx, -184(%rbp)        # 4-byte Spill
	xorl	%r13d, %r13d
	xorl	%esi, %esi
	movabsq	$3499322973145227361, %rdi # imm = 0x309017B430AF6061
	callq	_KPrepCall
	callq	_KEnqArgConst
	movl	$10, %edi
	callq	_KEnqArg
	movl	$21, %edi
	callq	_KEnqArg
	movl	$4, %edi
	callq	_KEnqArg
	movl	$3, %edi
	callq	_KEnqArg
	.loc	1 827 7                 # epic.c:827:7
.Ltmp157:
	movl	$0, (%rsp)
	movq	-168(%rbp), %rdi        # 8-byte Reload
	movl	-156(%rbp), %esi        # 4-byte Reload
	movl	16(%rbp), %edx
                                        # kill: EDX<def> EDX<kill> RDX<kill>
	movl	%ebx, %ecx
	movq	-200(%rbp), %r8         # 8-byte Reload
                                        # kill: R8D<def> R8D<kill> R8<kill>
	movq	-104(%rbp), %r9         # 8-byte Reload
	callq	epic_reflect1
	#DEBUG_VALUE: epic_internal_filter:x_filt <- 0
	#DEBUG_VALUE: epic_internal_filter:y_im_lin <- 0
	#DEBUG_VALUE: epic_internal_filter:sum <- 0.000000e+00
	callq	_KPopCDep
	movl	$1, %esi
	movabsq	$-7053111608565668297, %rdi # imm = 0x9E1E505C6A426637
	callq	_KEnterRegion
	xorps	%xmm0, %xmm0
	movss	%xmm0, -68(%rbp)        # 4-byte Spill
	movl	$133, -48(%rbp)         # 4-byte Folded Spill
	movl	$128, %r15d
	movq	-88(%rbp), %r14         # 8-byte Reload
	movl	-172(%rbp), %eax        # 4-byte Reload
	movl	%eax, -136(%rbp)        # 4-byte Spill
	xorl	%ebx, %ebx
	xorl	%r12d, %r12d
	xorl	%eax, %eax
	movq	%rax, -128(%rbp)        # 8-byte Spill
	jmp	.LBB3_23
	.align	16, 0x90
.LBB3_27:                               # %for.cond82.pre_exit.for.end94
                                        #   in Loop: Header=BB3_23 Depth=3
	#DEBUG_VALUE: epic_internal_filter:image <- [RBP+-112]
	#DEBUG_VALUE: epic_internal_filter:x_dim <- [RBP+-120]
	#DEBUG_VALUE: epic_internal_filter:y_dim <- [RBP+-260]
	#DEBUG_VALUE: epic_internal_filter:filt <- [RBP+-168]
	#DEBUG_VALUE: epic_internal_filter:temp <- [RBP+-104]
	#DEBUG_VALUE: epic_internal_filter:x_fdim <- [RBP+-156]
	#DEBUG_VALUE: epic_internal_filter:xgrid_start <- [RBP+24]
	#DEBUG_VALUE: epic_internal_filter:ygrid_start <- [RBP+40]
	#DEBUG_VALUE: epic_internal_filter:y_filt_lin <- [RBP+-156]
	#DEBUG_VALUE: epic_internal_filter:result <- [RBP+-328]
	#DEBUG_VALUE: epic_internal_filter:ygrid_step <- undef
	#DEBUG_VALUE: epic_internal_filter:xgrid_step <- [RBP+-304]
	#DEBUG_VALUE: epic_internal_filter:y_fdim <- undef
	#DEBUG_VALUE: epic_internal_filter:last_ctr_col <- [RBP+-172]
	#DEBUG_VALUE: epic_internal_filter:x_stop <- [RBP+-228]
	#DEBUG_VALUE: epic_internal_filter:res_pos <- 0
	#DEBUG_VALUE: epic_internal_filter:first_col <- [RBP+-216]
	#DEBUG_VALUE: epic_internal_filter:sum <- 0.000000e+00
	#DEBUG_VALUE: epic_internal_filter:y_im_lin <- 0
	#DEBUG_VALUE: epic_internal_filter:x_filt <- 0
	movl	$1, %esi
	movabsq	$-8003722344097742570, %rdi # imm = 0x90ED10EEFF328116
	callq	_KExitRegion
	movl	$130, %r13d
	movl	$130, %edi
	callq	_KPushCDep
	movl	$2, %edi
	callq	_KWork
	movq	-128(%rbp), %rax        # 8-byte Reload
	cmpq	%rax, %rbx
	cmovgeq	%rbx, %rax
	movq	%rax, -128(%rbp)        # 8-byte Spill
	.loc	1 831 7                 # epic.c:831:7
.Ltmp158:
	movq	-120(%rbp), %rax        # 8-byte Reload
	addl	%eax, -136(%rbp)        # 4-byte Folded Spill
	addq	-88(%rbp), %rbx         # 8-byte Folded Reload
	movl	$1, (%rsp)
	movl	$136, %r12d
	movl	$136, %edi
	movl	$126, %esi
	movl	$1, %edx
	movl	$135, %ecx
	movl	$1, %r8d
	movl	$130, %r9d
	callq	_KTimestamp3
	movl	$1, (%rsp)
	movl	$132, -48(%rbp)         # 4-byte Folded Spill
	movl	$132, %edi
	movl	$1, %esi
	movl	$1, %edx
	movl	$131, %ecx
	movl	$1, %r8d
	movl	$130, %r9d
	callq	_KTimestamp3
	movl	$1, (%rsp)
	movl	$127, %r15d
	movl	$127, %edi
	movl	$128, %esi
	movl	$1, %edx
	movl	$126, %ecx
	movl	$1, %r8d
	movl	$130, %r9d
	callq	_KTimestamp3
	callq	_KPopCDep
	movl	$2, %esi
	movabsq	$-8666028163113932187, %rdi # imm = 0x87BC154CDC102A65
	callq	_KExitRegion
	movq	%rbx, %r14
	movl	$134, %ebx
.LBB3_23:                               # %for.cond78
                                        #   Parent Loop BB3_1 Depth=1
                                        #     Parent Loop BB3_21 Depth=2
                                        # =>    This Loop Header: Depth=3
                                        #         Child Loop BB3_25 Depth 4
	#DEBUG_VALUE: epic_internal_filter:image <- [RBP+-112]
	#DEBUG_VALUE: epic_internal_filter:x_dim <- [RBP+-120]
	#DEBUG_VALUE: epic_internal_filter:y_dim <- [RBP+-260]
	#DEBUG_VALUE: epic_internal_filter:filt <- [RBP+-168]
	#DEBUG_VALUE: epic_internal_filter:temp <- [RBP+-104]
	#DEBUG_VALUE: epic_internal_filter:x_fdim <- [RBP+-156]
	#DEBUG_VALUE: epic_internal_filter:xgrid_start <- [RBP+24]
	#DEBUG_VALUE: epic_internal_filter:ygrid_start <- [RBP+40]
	#DEBUG_VALUE: epic_internal_filter:y_filt_lin <- [RBP+-156]
	#DEBUG_VALUE: epic_internal_filter:result <- [RBP+-328]
	#DEBUG_VALUE: epic_internal_filter:ygrid_step <- undef
	#DEBUG_VALUE: epic_internal_filter:xgrid_step <- [RBP+-304]
	#DEBUG_VALUE: epic_internal_filter:y_fdim <- undef
	#DEBUG_VALUE: epic_internal_filter:last_ctr_col <- [RBP+-172]
	#DEBUG_VALUE: epic_internal_filter:x_stop <- [RBP+-228]
	#DEBUG_VALUE: epic_internal_filter:res_pos <- 0
	#DEBUG_VALUE: epic_internal_filter:first_col <- [RBP+-216]
	#DEBUG_VALUE: epic_internal_filter:sum <- 0.000000e+00
	#DEBUG_VALUE: epic_internal_filter:y_im_lin <- 0
	#DEBUG_VALUE: epic_internal_filter:x_filt <- 0
	movq	%r14, -80(%rbp)         # 8-byte Spill
	movl	$122, %edi
	callq	_KPushCDep
	movl	$135, %edi
	movl	$122, %edx
	movl	%r12d, %esi
	movl	%r13d, %ecx
	callq	_KPhi2To1
	movl	$26, %edi
	movl	$122, %edx
	movl	%ebx, %esi
	movl	%r13d, %ecx
	callq	_KPhi2To1
	movl	$131, %edi
	movl	$122, %edx
	movl	-48(%rbp), %esi         # 4-byte Reload
	movl	%r13d, %ecx
	callq	_KPhi2To1
	movl	$126, %edi
	movl	$122, %edx
	movl	%r15d, %esi
	movl	%r13d, %ecx
	callq	_KPhi2To1
	movl	$1, %edi
	callq	_KWork
	movl	$26, %edi
	movl	$26, %esi
	xorl	%edx, %edx
	callq	_KTimestamp1
	movl	$1, (%rsp)
	movl	$130, %edi
	movl	$129, %esi
	movl	$1, %edx
	movl	$122, %ecx
	movl	$1, %r8d
	movl	$126, %r9d
	callq	_KTimestamp3
	movl	$135, %edi
	movl	$130, %esi
	callq	_KPhiAddCond
	movl	$135, %edi
	movl	$135, %esi
	xorl	%edx, %edx
	callq	_KTimestamp1
	movl	$26, %edi
	movl	$130, %esi
	callq	_KPhiAddCond
	movl	$131, %edi
	movl	$130, %esi
	callq	_KPhiAddCond
	movl	$126, %edi
	movl	$130, %esi
	callq	_KPhiAddCond
	movl	$131, %edi
	movl	$131, %esi
	xorl	%edx, %edx
	callq	_KTimestamp1
	movl	$126, %edi
	movl	$126, %esi
	xorl	%edx, %edx
	callq	_KTimestamp1
	movl	$139, %edi
	movl	$122, %esi
	xorl	%edx, %edx
	movl	$131, %ecx
	xorl	%r8d, %r8d
	callq	_KTimestamp2
	callq	_KPopCDep
	.loc	1 831 34 is_stmt 0      # epic.c:831:34
	cmpq	-96(%rbp), %r14         # 8-byte Folded Reload
	movq	%r14, %rbx
.Ltmp159:
	.loc	1 831 7                 # epic.c:831:7
	jg	.LBB3_28
# BB#24:                                # %for.body80
                                        #   in Loop: Header=BB3_23 Depth=3
	#DEBUG_VALUE: epic_internal_filter:image <- [RBP+-112]
	#DEBUG_VALUE: epic_internal_filter:x_dim <- [RBP+-120]
	#DEBUG_VALUE: epic_internal_filter:y_dim <- [RBP+-260]
	#DEBUG_VALUE: epic_internal_filter:filt <- [RBP+-168]
	#DEBUG_VALUE: epic_internal_filter:temp <- [RBP+-104]
	#DEBUG_VALUE: epic_internal_filter:x_fdim <- [RBP+-156]
	#DEBUG_VALUE: epic_internal_filter:xgrid_start <- [RBP+24]
	#DEBUG_VALUE: epic_internal_filter:ygrid_start <- [RBP+40]
	#DEBUG_VALUE: epic_internal_filter:y_filt_lin <- [RBP+-156]
	#DEBUG_VALUE: epic_internal_filter:result <- [RBP+-328]
	#DEBUG_VALUE: epic_internal_filter:ygrid_step <- undef
	#DEBUG_VALUE: epic_internal_filter:xgrid_step <- [RBP+-304]
	#DEBUG_VALUE: epic_internal_filter:y_fdim <- undef
	#DEBUG_VALUE: epic_internal_filter:last_ctr_col <- [RBP+-172]
	#DEBUG_VALUE: epic_internal_filter:x_stop <- [RBP+-228]
	#DEBUG_VALUE: epic_internal_filter:res_pos <- 0
	#DEBUG_VALUE: epic_internal_filter:first_col <- [RBP+-216]
	#DEBUG_VALUE: epic_internal_filter:sum <- 0.000000e+00
	#DEBUG_VALUE: epic_internal_filter:y_im_lin <- 0
	#DEBUG_VALUE: epic_internal_filter:x_filt <- 0
	movslq	-136(%rbp), %rax        # 4-byte Folded Reload
	movq	-112(%rbp), %rcx        # 8-byte Reload
	leaq	(%rcx,%rax,4), %r12
	movl	$2, %esi
	movabsq	$-8666028163113932187, %rdi # imm = 0x87BC154CDC102A65
	callq	_KEnterRegion
	movl	$130, %edi
	callq	_KPushCDep
	movl	$1, %edi
	callq	_KWork
	movq	-128(%rbp), %rax        # 8-byte Reload
	cltq
	movq	%rax, -128(%rbp)        # 8-byte Spill
	movq	%rax, %r14
	movl	$141, -56(%rbp)         # 4-byte Folded Spill
	xorl	%r15d, %r15d
	movl	$141, %edi
	movl	$135, %esi
	xorl	%edx, %edx
	movl	$130, %ecx
	xorl	%r8d, %r8d
	callq	_KTimestamp2
	callq	_KPopCDep
	movl	$1, %esi
	movabsq	$-8003722344097742570, %rdi # imm = 0x90ED10EEFF328116
	callq	_KEnterRegion
	movq	-104(%rbp), %rax        # 8-byte Reload
	movq	%r14, %rcx
	leaq	(%rax,%rcx,4), %r14
	movl	$26, -64(%rbp)          # 4-byte Folded Spill
	movl	$139, %r13d
	movq	%rcx, -48(%rbp)         # 8-byte Spill
	jmp	.LBB3_25
	.align	16, 0x90
.LBB3_26:                               # %for.body84
                                        #   in Loop: Header=BB3_25 Depth=4
	#DEBUG_VALUE: epic_internal_filter:image <- [RBP+-112]
	#DEBUG_VALUE: epic_internal_filter:x_dim <- [RBP+-120]
	#DEBUG_VALUE: epic_internal_filter:y_dim <- [RBP+-260]
	#DEBUG_VALUE: epic_internal_filter:filt <- [RBP+-168]
	#DEBUG_VALUE: epic_internal_filter:temp <- [RBP+-104]
	#DEBUG_VALUE: epic_internal_filter:x_fdim <- [RBP+-156]
	#DEBUG_VALUE: epic_internal_filter:xgrid_start <- [RBP+24]
	#DEBUG_VALUE: epic_internal_filter:ygrid_start <- [RBP+40]
	#DEBUG_VALUE: epic_internal_filter:y_filt_lin <- [RBP+-156]
	#DEBUG_VALUE: epic_internal_filter:result <- [RBP+-328]
	#DEBUG_VALUE: epic_internal_filter:ygrid_step <- undef
	#DEBUG_VALUE: epic_internal_filter:xgrid_step <- [RBP+-304]
	#DEBUG_VALUE: epic_internal_filter:y_fdim <- undef
	#DEBUG_VALUE: epic_internal_filter:last_ctr_col <- [RBP+-172]
	#DEBUG_VALUE: epic_internal_filter:x_stop <- [RBP+-228]
	#DEBUG_VALUE: epic_internal_filter:res_pos <- 0
	#DEBUG_VALUE: epic_internal_filter:first_col <- [RBP+-216]
	#DEBUG_VALUE: epic_internal_filter:sum <- 0.000000e+00
	#DEBUG_VALUE: epic_internal_filter:y_im_lin <- 0
	#DEBUG_VALUE: epic_internal_filter:x_filt <- 0
	movl	$2, %esi
	movabsq	$-2714741316903276186, %rbx # imm = 0xDA534D27D4E77166
	movq	%rbx, %rdi
	callq	_KEnterRegion
	movl	$138, %r15d
	movl	$138, %edi
	callq	_KPushCDep
	movl	$17, %edi
	callq	_KWork
	movl	$22, %esi
	movl	$23, %edx
	movl	$4, %ecx
	movq	%r12, %rdi
	callq	_KLoad1
	.loc	1 837 18 is_stmt 1      # epic.c:837:18
.Ltmp160:
	movss	(%r12), %xmm0
	movss	%xmm0, -56(%rbp)        # 4-byte Spill
	movl	$24, %esi
	movl	$25, %edx
	movl	$4, %ecx
	movq	%r14, %rdi
	callq	_KLoad1
	movss	-56(%rbp), %xmm1        # 4-byte Reload
	mulss	(%r14), %xmm1
	.loc	1 837 11 is_stmt 0      # epic.c:837:11
	movss	-68(%rbp), %xmm0        # 4-byte Reload
	addss	%xmm1, %xmm0
.Ltmp161:
	#DEBUG_VALUE: epic_internal_filter:sum <- [RBP+-68]
	.loc	1 836 9 is_stmt 1       # epic.c:836:9
	movss	%xmm0, -68(%rbp)        # 4-byte Spill
	incq	%r13
	movq	%r13, -48(%rbp)         # 8-byte Spill
	movl	$7, 16(%rsp)
	movl	$24, 8(%rsp)
	movl	$7, (%rsp)
	movl	$142, -64(%rbp)         # 4-byte Folded Spill
	movl	$142, %edi
	movl	$134, %esi
	movl	$2, %edx
	movl	$138, %ecx
	movl	$7, %r8d
	movl	$22, %r9d
	callq	_KTimestamp4
	movl	$140, -56(%rbp)         # 4-byte Folded Spill
	movl	$140, %edi
	movl	$25, %esi
	movl	$1, %edx
	movl	$138, %ecx
	movl	$1, %r8d
	callq	_KTimestamp2
	movl	$137, %r13d
	movl	$137, %edi
	movl	$23, %esi
	movl	$1, %edx
	movl	$138, %ecx
	movl	$1, %r8d
	callq	_KTimestamp2
	callq	_KPopCDep
	movl	$2, %esi
	movq	%rbx, %rdi
	movq	-80(%rbp), %rbx         # 8-byte Reload
	callq	_KExitRegion
	addq	$4, %r12
	addq	$4, %r14
.Ltmp162:
.LBB3_25:                               # %for.cond82
                                        #   Parent Loop BB3_1 Depth=1
                                        #     Parent Loop BB3_21 Depth=2
                                        #       Parent Loop BB3_23 Depth=3
                                        # =>      This Inner Loop Header: Depth=4
	#DEBUG_VALUE: epic_internal_filter:image <- [RBP+-112]
	#DEBUG_VALUE: epic_internal_filter:x_dim <- [RBP+-120]
	#DEBUG_VALUE: epic_internal_filter:y_dim <- [RBP+-260]
	#DEBUG_VALUE: epic_internal_filter:filt <- [RBP+-168]
	#DEBUG_VALUE: epic_internal_filter:temp <- [RBP+-104]
	#DEBUG_VALUE: epic_internal_filter:x_fdim <- [RBP+-156]
	#DEBUG_VALUE: epic_internal_filter:xgrid_start <- [RBP+24]
	#DEBUG_VALUE: epic_internal_filter:ygrid_start <- [RBP+40]
	#DEBUG_VALUE: epic_internal_filter:y_filt_lin <- [RBP+-156]
	#DEBUG_VALUE: epic_internal_filter:result <- [RBP+-328]
	#DEBUG_VALUE: epic_internal_filter:ygrid_step <- undef
	#DEBUG_VALUE: epic_internal_filter:xgrid_step <- [RBP+-304]
	#DEBUG_VALUE: epic_internal_filter:y_fdim <- undef
	#DEBUG_VALUE: epic_internal_filter:last_ctr_col <- [RBP+-172]
	#DEBUG_VALUE: epic_internal_filter:x_stop <- [RBP+-228]
	#DEBUG_VALUE: epic_internal_filter:res_pos <- 0
	#DEBUG_VALUE: epic_internal_filter:first_col <- [RBP+-216]
	#DEBUG_VALUE: epic_internal_filter:sum <- 0.000000e+00
	#DEBUG_VALUE: epic_internal_filter:y_im_lin <- 0
	#DEBUG_VALUE: epic_internal_filter:x_filt <- 0
	movl	$130, %edi
	callq	_KPushCDep
	movl	$134, %edi
	movl	$130, %edx
	movl	-64(%rbp), %esi         # 4-byte Reload
	movl	%r15d, %ecx
	callq	_KPhi2To1
	movl	$25, %edi
	movl	$130, %edx
	movl	-56(%rbp), %esi         # 4-byte Reload
	movl	%r15d, %ecx
	callq	_KPhi2To1
	movl	$23, %edi
	movl	$130, %edx
	movl	%r13d, %esi
	movl	%r15d, %ecx
	callq	_KPhi2To1
	movl	$1, %edi
	callq	_KWork
	movl	$1, (%rsp)
	movl	$138, %edi
	movl	$25, %esi
	movl	$1, %edx
	movl	$126, %ecx
	movl	$1, %r8d
	movl	$130, %r9d
	callq	_KTimestamp3
	movl	$134, %edi
	movl	$138, %esi
	callq	_KPhiAddCond
	movl	$25, %edi
	movl	$138, %esi
	callq	_KPhiAddCond
	movl	$25, %edi
	movl	$25, %esi
	xorl	%edx, %edx
	callq	_KTimestamp1
	movl	$23, %edi
	movl	$138, %esi
	callq	_KPhiAddCond
	movl	$23, %edi
	movl	$23, %esi
	xorl	%edx, %edx
	callq	_KTimestamp1
	movl	$134, %edi
	movl	$134, %esi
	xorl	%edx, %edx
	callq	_KTimestamp1
	callq	_KPopCDep
	movq	-48(%rbp), %r13         # 8-byte Reload
	.loc	1 836 9 is_stmt 0       # epic.c:836:9
	cmpq	%rbx, %r13
	jl	.LBB3_26
	jmp	.LBB3_27
.Ltmp163:
.LBB3_30:                               # %for.cond.pre_exit.for.end107
	#DEBUG_VALUE: epic_internal_filter:image <- [RBP+-112]
	#DEBUG_VALUE: epic_internal_filter:x_dim <- [RBP+-120]
	#DEBUG_VALUE: epic_internal_filter:y_dim <- [RBP+-260]
	#DEBUG_VALUE: epic_internal_filter:filt <- [RBP+-168]
	#DEBUG_VALUE: epic_internal_filter:temp <- [RBP+-104]
	#DEBUG_VALUE: epic_internal_filter:x_fdim <- [RBP+-156]
	#DEBUG_VALUE: epic_internal_filter:xgrid_start <- [RBP+24]
	#DEBUG_VALUE: epic_internal_filter:ygrid_start <- [RBP+40]
	#DEBUG_VALUE: epic_internal_filter:y_filt_lin <- [RBP+-156]
	#DEBUG_VALUE: epic_internal_filter:result <- [RBP+-328]
	#DEBUG_VALUE: epic_internal_filter:ygrid_step <- undef
	#DEBUG_VALUE: epic_internal_filter:xgrid_step <- [RBP+-304]
	#DEBUG_VALUE: epic_internal_filter:y_fdim <- undef
	#DEBUG_VALUE: epic_internal_filter:last_ctr_col <- [RBP+-172]
	#DEBUG_VALUE: epic_internal_filter:x_stop <- [RBP+-228]
	#DEBUG_VALUE: epic_internal_filter:res_pos <- 0
	#DEBUG_VALUE: epic_internal_filter:x_pos <- [RBP+-280]
	.loc	1 762 24 is_stmt 1      # epic.c:762:24
	movl	-260(%rbp), %eax        # 4-byte Reload
	movl	%eax, %ebx
	movl	16(%rbp), %eax
	subl	%eax, %ebx
	.loc	1 767 16                # epic.c:767:16
	movl	-192(%rbp), %eax        # 4-byte Reload
	addl	%eax, -320(%rbp)        # 4-byte Folded Spill
.Ltmp164:
	#DEBUG_VALUE: epic_internal_filter:y_stop <- [RBP+-320]
	movl	$1, %esi
	movabsq	$999751834622027429, %rdi # imm = 0xDDFD4FF2630E6A5
	callq	_KExitRegion
	movl	$10, %edi
	callq	_KWork
	movq	-120(%rbp), %rax        # 8-byte Reload
.Ltmp165:
	#DEBUG_VALUE: epic_internal_filter:x_dim <- EAX
	.loc	1 762 22                # epic.c:762:22
	imull	%eax, %ebx
.Ltmp166:
	#DEBUG_VALUE: epic_internal_filter:last_ctr_row <- EBX
	#DEBUG_VALUE: epic_internal_filter:y_im_lin <- EBX
	movq	%rbx, -224(%rbp)        # 8-byte Spill
.Ltmp167:
	#DEBUG_VALUE: epic_internal_filter:last_ctr_row <- [RBP+-224]
	#DEBUG_VALUE: epic_internal_filter:y_im_lin <- [RBP+-224]
	movl	48(%rbp), %ecx
	.loc	1 768 25                # epic.c:768:25
	movl	%ecx, %r15d
	imull	%eax, %r15d
.Ltmp168:
	#DEBUG_VALUE: epic_internal_filter:ygrid_step_full <- R15D
	.loc	1 847 25                # epic.c:847:25
	movl	%r15d, -240(%rbp)       # 4-byte Spill
	leal	1(%r12), %ebx
	movq	%r12, -200(%rbp)        # 8-byte Spill
	.loc	1 847 15 is_stmt 0      # epic.c:847:15
	imull	%eax, %ebx
.Ltmp169:
	#DEBUG_VALUE: epic_internal_filter:first_row <- EBX
	#DEBUG_VALUE: epic_internal_filter:y_pos <- EBX
	movq	%rbx, -296(%rbp)        # 8-byte Spill
	movq	-152(%rbp), %rax        # 8-byte Reload
.Ltmp170:
	#DEBUG_VALUE: epic_internal_filter:x_dim <- [RBP+-120]
	cltq
	movq	%rax, -304(%rbp)        # 8-byte Spill
	movslq	-316(%rbp), %rax        # 4-byte Folded Reload
	movq	%rax, -248(%rbp)        # 8-byte Spill
	movl	$0, -48(%rbp)           # 4-byte Folded Spill
	movl	$173, %edi
	movl	$1, %esi
	xorl	%edx, %edx
	callq	_KTimestamp1
	movl	$165, %edi
	movl	$1, %esi
	movl	$2, %edx
	movl	$8, %ecx
	movl	$2, %r8d
	callq	_KTimestamp2
	movl	$161, %edi
	movl	$1, %esi
	movl	$2, %edx
	movl	$8, %ecx
	movl	$2, %r8d
	callq	_KTimestamp2
	movl	$12, (%rsp)
	movl	$155, %edi
	movl	$1, %esi
	movl	$13, %edx
	movl	$5, %ecx
	movl	$13, %r8d
	movl	$6, %r9d
	callq	_KTimestamp3
	movl	$147, -64(%rbp)         # 4-byte Folded Spill
	movl	$147, %edi
	movl	$3, %esi
	movl	$11, %edx
	movl	$5, %ecx
	movl	$1, %r8d
	callq	_KTimestamp2
	movl	$146, %r14d
	movl	$65, -56(%rbp)          # 4-byte Folded Spill
	movl	$146, %edi
	movl	$65, %esi
	xorl	%edx, %edx
	callq	_KTimestamp1
	movl	$169, %edi
	movl	$3, %esi
	movl	$2, %edx
	movl	$4, %ecx
	movl	$2, %r8d
	callq	_KTimestamp2
	movl	$168, %edi
	movl	$3, %esi
	xorl	%edx, %edx
	callq	_KTimestamp1
	movl	$3, (%rsp)
	movl	$156, %edi
	movl	$1, %esi
	movl	$2, %edx
	movl	$2, %ecx
	movl	$3, %r8d
	movl	$4, %r9d
	callq	_KTimestamp3
	movl	$163, %edi
	movl	$1, %esi
	movl	$2, %edx
	movl	$10, %ecx
	movl	$3, %r8d
	callq	_KTimestamp2
	movl	$162, %edi
	movl	$1, %esi
	movl	$2, %edx
	movl	$10, %ecx
	movl	$3, %r8d
	callq	_KTimestamp2
	movl	$1, %esi
	movabsq	$5887501121598573392, %rdi # imm = 0x51B49B13A798CB50
	callq	_KEnterRegion
	movslq	%ebx, %rax
.Ltmp171:
	#DEBUG_VALUE: epic_internal_filter:first_row <- [RBP+-296]
	#DEBUG_VALUE: epic_internal_filter:y_pos <- [RBP+-296]
	movq	-112(%rbp), %rcx        # 8-byte Reload
	leaq	(%rcx,%rax,4), %rax
	movq	%rax, -312(%rbp)        # 8-byte Spill
	movslq	%r15d, %rax
.Ltmp172:
	#DEBUG_VALUE: epic_internal_filter:ygrid_step_full <- [RBP+-240]
	shlq	$2, %rax
.Ltmp173:
	#DEBUG_VALUE: epic_internal_filter:prev_res_pos <- [RBP+-152]
	movq	%rax, -272(%rbp)        # 8-byte Spill
	movabsq	$-4454200533417290703, %r12 # imm = 0xC22F8036D74E9431
	movabsq	$6482975258205036592, %r13 # imm = 0x59F827A628F52030
	movq	-280(%rbp), %rax        # 8-byte Reload
	movl	%eax, %ebx
	movl	$65, %r15d
	jmp	.LBB3_31
	.align	16, 0x90
.LBB3_41:                               # %for.cond114.pre_exit.for.end142
                                        #   in Loop: Header=BB3_31 Depth=1
	#DEBUG_VALUE: epic_internal_filter:image <- [RBP+-112]
	#DEBUG_VALUE: epic_internal_filter:x_dim <- [RBP+-120]
	#DEBUG_VALUE: epic_internal_filter:y_dim <- [RBP+-260]
	#DEBUG_VALUE: epic_internal_filter:filt <- [RBP+-168]
	#DEBUG_VALUE: epic_internal_filter:temp <- [RBP+-104]
	#DEBUG_VALUE: epic_internal_filter:x_fdim <- [RBP+-156]
	#DEBUG_VALUE: epic_internal_filter:xgrid_start <- [RBP+24]
	#DEBUG_VALUE: epic_internal_filter:ygrid_start <- [RBP+40]
	#DEBUG_VALUE: epic_internal_filter:y_filt_lin <- [RBP+-156]
	#DEBUG_VALUE: epic_internal_filter:result <- [RBP+-328]
	#DEBUG_VALUE: epic_internal_filter:ygrid_step <- undef
	#DEBUG_VALUE: epic_internal_filter:xgrid_step <- [RBP+-304]
	#DEBUG_VALUE: epic_internal_filter:y_fdim <- undef
	#DEBUG_VALUE: epic_internal_filter:last_ctr_col <- [RBP+-172]
	#DEBUG_VALUE: epic_internal_filter:x_stop <- [RBP+-228]
	#DEBUG_VALUE: epic_internal_filter:res_pos <- 0
	#DEBUG_VALUE: epic_internal_filter:x_pos <- [RBP+-280]
	#DEBUG_VALUE: epic_internal_filter:y_pos <- [RBP+-296]
	#DEBUG_VALUE: epic_internal_filter:y_stop <- [RBP+-320]
	#DEBUG_VALUE: epic_internal_filter:last_ctr_row <- [RBP+-224]
	#DEBUG_VALUE: epic_internal_filter:ygrid_step_full <- [RBP+-240]
	#DEBUG_VALUE: epic_internal_filter:first_row <- [RBP+-296]
	movl	$1, %esi
	movabsq	$2133783479813226217, %rdi # imm = 0x1D9CB8C505DD3EE9
	callq	_KExitRegion
	movl	$145, -48(%rbp)         # 4-byte Folded Spill
	movl	$145, %edi
	callq	_KPushCDep
	movl	$3, %edi
	callq	_KWork
	.loc	1 850 3 is_stmt 1       # epic.c:850:3
.Ltmp174:
	incq	-304(%rbp)              # 8-byte Folded Spill
	movl	32(%rbp), %eax
	movl	-192(%rbp), %ebx        # 4-byte Reload
	.loc	1 852 9                 # epic.c:852:9
	addl	%eax, %ebx
.Ltmp175:
	#DEBUG_VALUE: epic_internal_filter:x_pos <- EBX
	movl	$153, %r15d
	movl	$153, %edi
	movl	$152, %esi
	movl	$1, %edx
	movl	$145, %ecx
	movl	$1, %r8d
	callq	_KTimestamp2
	movl	$150, -56(%rbp)         # 4-byte Folded Spill
	movl	$150, %edi
	movl	$151, %esi
	xorl	%edx, %edx
	movl	$145, %ecx
	xorl	%r8d, %r8d
	callq	_KTimestamp2
	movl	$1, (%rsp)
	movl	$148, -64(%rbp)         # 4-byte Folded Spill
	movl	$148, %edi
	movl	$6, %esi
	movl	$1, %edx
	movl	$27, %ecx
	movl	$1, %r8d
	movl	$145, %r9d
	callq	_KTimestamp3
	movl	$144, %r14d
	movl	$144, %edi
	movl	$143, %esi
	movl	$1, %edx
	movl	$145, %ecx
	movl	$1, %r8d
	callq	_KTimestamp2
	callq	_KPopCDep
	movl	$2, %esi
	movabsq	$-4454200533417290703, %r12 # imm = 0xC22F8036D74E9431
	movq	%r12, %rdi
	callq	_KExitRegion
.Ltmp176:
.LBB3_31:                               # %for.cond111
                                        # =>This Loop Header: Depth=1
                                        #     Child Loop BB3_33 Depth 2
                                        #       Child Loop BB3_35 Depth 3
                                        #         Child Loop BB3_37 Depth 4
	#DEBUG_VALUE: epic_internal_filter:image <- [RBP+-112]
	#DEBUG_VALUE: epic_internal_filter:x_dim <- [RBP+-120]
	#DEBUG_VALUE: epic_internal_filter:y_dim <- [RBP+-260]
	#DEBUG_VALUE: epic_internal_filter:filt <- [RBP+-168]
	#DEBUG_VALUE: epic_internal_filter:temp <- [RBP+-104]
	#DEBUG_VALUE: epic_internal_filter:x_fdim <- [RBP+-156]
	#DEBUG_VALUE: epic_internal_filter:xgrid_start <- [RBP+24]
	#DEBUG_VALUE: epic_internal_filter:ygrid_start <- [RBP+40]
	#DEBUG_VALUE: epic_internal_filter:y_filt_lin <- [RBP+-156]
	#DEBUG_VALUE: epic_internal_filter:result <- [RBP+-328]
	#DEBUG_VALUE: epic_internal_filter:ygrid_step <- undef
	#DEBUG_VALUE: epic_internal_filter:xgrid_step <- [RBP+-304]
	#DEBUG_VALUE: epic_internal_filter:y_fdim <- undef
	#DEBUG_VALUE: epic_internal_filter:last_ctr_col <- [RBP+-172]
	#DEBUG_VALUE: epic_internal_filter:x_stop <- [RBP+-228]
	#DEBUG_VALUE: epic_internal_filter:res_pos <- 0
	#DEBUG_VALUE: epic_internal_filter:x_pos <- [RBP+-280]
	#DEBUG_VALUE: epic_internal_filter:y_pos <- [RBP+-296]
	#DEBUG_VALUE: epic_internal_filter:y_im_lin <- [RBP+-224]
	#DEBUG_VALUE: epic_internal_filter:y_stop <- [RBP+-320]
	#DEBUG_VALUE: epic_internal_filter:last_ctr_row <- [RBP+-224]
	#DEBUG_VALUE: epic_internal_filter:ygrid_step_full <- [RBP+-240]
	#DEBUG_VALUE: epic_internal_filter:first_row <- [RBP+-296]
	movl	$152, %edi
	movl	%r15d, %esi
	movl	-48(%rbp), %r15d        # 4-byte Reload
	movl	%r15d, %edx
	callq	_KPhi1To1
	movl	$27, %edi
	movl	-64(%rbp), %esi         # 4-byte Reload
	movl	%r15d, %edx
	callq	_KPhi1To1
	movl	$149, %edi
	movl	-56(%rbp), %esi         # 4-byte Reload
	movl	%r15d, %edx
	callq	_KPhi1To1
	movl	$143, %edi
	movl	%r14d, %esi
	movl	%r15d, %edx
	callq	_KPhi1To1
	movl	$1, %edi
	callq	_KWork
	movl	$27, %edi
	movl	$27, %esi
	xorl	%edx, %edx
	callq	_KTimestamp1
	movl	$149, %edi
	movl	$149, %esi
	xorl	%edx, %edx
	callq	_KTimestamp1
	movl	$145, %edi
	movl	$27, %esi
	movl	$1, %edx
	callq	_KTimestamp1
	movl	$152, %edi
	movl	$145, %esi
	callq	_KPhiAddCond
	movl	$152, %edi
	movl	$152, %esi
	xorl	%edx, %edx
	callq	_KTimestamp1
	movl	$27, %edi
	movl	$145, %esi
	callq	_KPhiAddCond
	movl	$149, %edi
	movl	$145, %esi
	callq	_KPhiAddCond
	movl	$143, %edi
	movl	$145, %esi
	callq	_KPhiAddCond
	movl	$143, %edi
	movl	$143, %esi
	xorl	%edx, %edx
	callq	_KTimestamp1
	.loc	1 850 3                 # epic.c:850:3
	testl	%ebx, %ebx
	jg	.LBB3_42
# BB#32:                                # %for.body113
                                        #   in Loop: Header=BB3_31 Depth=1
	#DEBUG_VALUE: epic_internal_filter:image <- [RBP+-112]
	#DEBUG_VALUE: epic_internal_filter:x_dim <- [RBP+-120]
	#DEBUG_VALUE: epic_internal_filter:y_dim <- [RBP+-260]
	#DEBUG_VALUE: epic_internal_filter:filt <- [RBP+-168]
	#DEBUG_VALUE: epic_internal_filter:temp <- [RBP+-104]
	#DEBUG_VALUE: epic_internal_filter:x_fdim <- [RBP+-156]
	#DEBUG_VALUE: epic_internal_filter:xgrid_start <- [RBP+24]
	#DEBUG_VALUE: epic_internal_filter:ygrid_start <- [RBP+40]
	#DEBUG_VALUE: epic_internal_filter:y_filt_lin <- [RBP+-156]
	#DEBUG_VALUE: epic_internal_filter:result <- [RBP+-328]
	#DEBUG_VALUE: epic_internal_filter:ygrid_step <- undef
	#DEBUG_VALUE: epic_internal_filter:xgrid_step <- [RBP+-304]
	#DEBUG_VALUE: epic_internal_filter:y_fdim <- undef
	#DEBUG_VALUE: epic_internal_filter:last_ctr_col <- [RBP+-172]
	#DEBUG_VALUE: epic_internal_filter:x_stop <- [RBP+-228]
	#DEBUG_VALUE: epic_internal_filter:res_pos <- 0
	#DEBUG_VALUE: epic_internal_filter:x_pos <- [RBP+-280]
	#DEBUG_VALUE: epic_internal_filter:y_pos <- [RBP+-296]
	#DEBUG_VALUE: epic_internal_filter:y_im_lin <- [RBP+-224]
	#DEBUG_VALUE: epic_internal_filter:y_stop <- [RBP+-320]
	#DEBUG_VALUE: epic_internal_filter:last_ctr_row <- [RBP+-224]
	#DEBUG_VALUE: epic_internal_filter:ygrid_step_full <- [RBP+-240]
	#DEBUG_VALUE: epic_internal_filter:first_row <- [RBP+-296]
	movl	$2, %esi
	movq	%r12, %rdi
	callq	_KEnterRegion
	movl	$145, %edi
	callq	_KPushCDep
	xorl	%r12d, %r12d
	xorl	%esi, %esi
	movabsq	$7380917775282645312, %rdi # imm = 0x666E499C6016A940
	callq	_KPrepCall
	callq	_KEnqArgConst
	callq	_KEnqArgConst
	movl	$27, %edi
	callq	_KEnqArg
	movl	$4, %edi
	callq	_KEnqArg
	movl	$3, %edi
	callq	_KEnqArg
	.loc	1 854 5                 # epic.c:854:5
.Ltmp177:
	movl	$0, (%rsp)
	xorl	%r8d, %r8d
	movq	-168(%rbp), %rdi        # 8-byte Reload
	movl	-156(%rbp), %esi        # 4-byte Reload
	movl	16(%rbp), %edx
                                        # kill: EDX<def> EDX<kill> RDX<kill>
	movl	%ebx, %ecx
	movl	%ebx, -192(%rbp)        # 4-byte Spill
	movq	-104(%rbp), %r9         # 8-byte Reload
	callq	epic_reflect1
	callq	_KPopCDep
	movl	$1, %esi
	movabsq	$2133783479813226217, %rdi # imm = 0x1D9CB8C505DD3EE9
	callq	_KEnterRegion
	movl	$163, -48(%rbp)         # 4-byte Folded Spill
	movl	$162, %r15d
	movl	$143, %ebx
	movq	-312(%rbp), %rax        # 8-byte Reload
	movq	%rax, -184(%rbp)        # 8-byte Spill
	movq	-304(%rbp), %rax        # 8-byte Reload
	movq	%rax, -152(%rbp)        # 8-byte Spill
	movq	-296(%rbp), %rax        # 8-byte Reload
	movl	%eax, %r14d
	jmp	.LBB3_33
	.align	16, 0x90
.LBB3_40:                               # %for.cond117.pre_exit.for.end136
                                        #   in Loop: Header=BB3_33 Depth=2
	#DEBUG_VALUE: epic_internal_filter:image <- [RBP+-112]
	#DEBUG_VALUE: epic_internal_filter:x_dim <- [RBP+-120]
	#DEBUG_VALUE: epic_internal_filter:y_dim <- [RBP+-260]
	#DEBUG_VALUE: epic_internal_filter:filt <- [RBP+-168]
	#DEBUG_VALUE: epic_internal_filter:temp <- [RBP+-104]
	#DEBUG_VALUE: epic_internal_filter:x_fdim <- [RBP+-156]
	#DEBUG_VALUE: epic_internal_filter:xgrid_start <- [RBP+24]
	#DEBUG_VALUE: epic_internal_filter:ygrid_start <- [RBP+40]
	#DEBUG_VALUE: epic_internal_filter:y_filt_lin <- [RBP+-156]
	#DEBUG_VALUE: epic_internal_filter:result <- [RBP+-328]
	#DEBUG_VALUE: epic_internal_filter:ygrid_step <- undef
	#DEBUG_VALUE: epic_internal_filter:xgrid_step <- [RBP+-304]
	#DEBUG_VALUE: epic_internal_filter:y_fdim <- undef
	#DEBUG_VALUE: epic_internal_filter:last_ctr_col <- [RBP+-172]
	#DEBUG_VALUE: epic_internal_filter:x_stop <- [RBP+-228]
	#DEBUG_VALUE: epic_internal_filter:res_pos <- 0
	#DEBUG_VALUE: epic_internal_filter:x_pos <- [RBP+-280]
	#DEBUG_VALUE: epic_internal_filter:y_pos <- [RBP+-296]
	#DEBUG_VALUE: epic_internal_filter:sum <- 0.000000e+00
.Ltmp178:
	#DEBUG_VALUE: epic_internal_filter:y_im_lin <- [RBP+-256]
	#DEBUG_VALUE: epic_internal_filter:x_filt <- 0
	#DEBUG_VALUE: epic_internal_filter:y_stop <- [RBP+-320]
	#DEBUG_VALUE: epic_internal_filter:last_ctr_row <- [RBP+-224]
	#DEBUG_VALUE: epic_internal_filter:ygrid_step_full <- [RBP+-240]
	#DEBUG_VALUE: epic_internal_filter:first_row <- [RBP+-296]
	movl	$1, %esi
	movabsq	$7453030444969577453, %rdi # imm = 0x676E7BB3AC954BED
	callq	_KExitRegion
	movl	$157, %r12d
	movl	$157, %edi
	callq	_KPushCDep
	movl	$4, %edi
	callq	_KWork
	movq	56(%rbp), %rax
	movq	%rax, %r14
.Ltmp179:
	#DEBUG_VALUE: epic_internal_filter:result <- R14
	movq	-152(%rbp), %rbx        # 8-byte Reload
	.loc	1 871 7                 # epic.c:871:7
.Ltmp180:
	leaq	(%r14,%rbx,4), %rsi
	movl	$32, %edi
	movl	$4, %edx
	callq	_KStore
	movss	-68(%rbp), %xmm0        # 4-byte Reload
	movss	%xmm0, (%r14,%rbx,4)
.Ltmp181:
	#DEBUG_VALUE: epic_internal_filter:result <- [RBP+-328]
	movl	-256(%rbp), %r14d       # 4-byte Reload
.Ltmp182:
	#DEBUG_VALUE: epic_internal_filter:y_im_lin <- R14D
	.loc	1 857 11                # epic.c:857:11
	addl	-240(%rbp), %r14d       # 4-byte Folded Reload
.Ltmp183:
	#DEBUG_VALUE: epic_internal_filter:y_pos <- R14D
	.loc	1 856 5                 # epic.c:856:5
	addq	-248(%rbp), %rbx        # 8-byte Folded Reload
	movq	%rbx, -152(%rbp)        # 8-byte Spill
	movl	$1, (%rsp)
	movl	$164, -48(%rbp)         # 4-byte Folded Spill
	movl	$164, %edi
	movl	$158, %esi
	movl	$1, %edx
	movl	$157, %ecx
	movl	$1, %r8d
	movl	$165, %r9d
	callq	_KTimestamp3
	movl	$1, (%rsp)
	movl	$160, %r15d
	movl	$160, %edi
	movl	$159, %esi
	movl	$1, %edx
	movl	$157, %ecx
	movl	$1, %r8d
	movl	$161, %r9d
	callq	_KTimestamp3
	movl	$1, (%rsp)
	movl	$154, %ebx
	movl	$154, %edi
	movl	$151, %esi
	movl	$1, %edx
	movl	$157, %ecx
	movl	$1, %r8d
	movl	$155, %r9d
	callq	_KTimestamp3
	callq	_KPopCDep
	movl	$2, %esi
	movabsq	$-1782518185056996185, %rdi # imm = 0xE7433927A600F4A7
	callq	_KExitRegion
	movq	-184(%rbp), %rax        # 8-byte Reload
	addq	-272(%rbp), %rax        # 8-byte Folded Reload
	movq	%rax, -184(%rbp)        # 8-byte Spill
.Ltmp184:
.LBB3_33:                               # %for.cond114
                                        #   Parent Loop BB3_31 Depth=1
                                        # =>  This Loop Header: Depth=2
                                        #       Child Loop BB3_35 Depth 3
                                        #         Child Loop BB3_37 Depth 4
	#DEBUG_VALUE: epic_internal_filter:image <- [RBP+-112]
	#DEBUG_VALUE: epic_internal_filter:x_dim <- [RBP+-120]
	#DEBUG_VALUE: epic_internal_filter:y_dim <- [RBP+-260]
	#DEBUG_VALUE: epic_internal_filter:filt <- [RBP+-168]
	#DEBUG_VALUE: epic_internal_filter:temp <- [RBP+-104]
	#DEBUG_VALUE: epic_internal_filter:x_fdim <- [RBP+-156]
	#DEBUG_VALUE: epic_internal_filter:xgrid_start <- [RBP+24]
	#DEBUG_VALUE: epic_internal_filter:ygrid_start <- [RBP+40]
	#DEBUG_VALUE: epic_internal_filter:y_filt_lin <- [RBP+-156]
	#DEBUG_VALUE: epic_internal_filter:result <- [RBP+-328]
	#DEBUG_VALUE: epic_internal_filter:ygrid_step <- undef
	#DEBUG_VALUE: epic_internal_filter:xgrid_step <- [RBP+-304]
	#DEBUG_VALUE: epic_internal_filter:y_fdim <- undef
	#DEBUG_VALUE: epic_internal_filter:last_ctr_col <- [RBP+-172]
	#DEBUG_VALUE: epic_internal_filter:x_stop <- [RBP+-228]
	#DEBUG_VALUE: epic_internal_filter:res_pos <- 0
	#DEBUG_VALUE: epic_internal_filter:x_pos <- [RBP+-280]
	#DEBUG_VALUE: epic_internal_filter:y_pos <- [RBP+-296]
	#DEBUG_VALUE: epic_internal_filter:y_im_lin <- [RBP+-224]
	#DEBUG_VALUE: epic_internal_filter:y_stop <- [RBP+-320]
	#DEBUG_VALUE: epic_internal_filter:last_ctr_row <- [RBP+-224]
	#DEBUG_VALUE: epic_internal_filter:ygrid_step_full <- [RBP+-240]
	#DEBUG_VALUE: epic_internal_filter:first_row <- [RBP+-296]
	movl	$145, %edi
	callq	_KPushCDep
	movl	$158, %edi
	movl	$145, %edx
	movl	-48(%rbp), %esi         # 4-byte Reload
	movl	%r12d, %ecx
	callq	_KPhi2To1
	movl	$159, %edi
	movl	$145, %edx
	movl	%r15d, %esi
	movl	%r12d, %ecx
	callq	_KPhi2To1
	movl	$151, %edi
	movl	$145, %edx
	movl	%ebx, %esi
	movl	%r12d, %ecx
	callq	_KPhi2To1
	movl	$1, %edi
	callq	_KWork
	movl	$1, (%rsp)
	movl	$157, %edi
	movl	$158, %esi
	movl	$1, %edx
	movl	$156, %ecx
	movl	$1, %r8d
	movl	$145, %r9d
	callq	_KTimestamp3
	movl	$158, %edi
	movl	$157, %esi
	callq	_KPhiAddCond
	movl	$158, %edi
	movl	$158, %esi
	xorl	%edx, %edx
	callq	_KTimestamp1
	movl	$159, %edi
	movl	$157, %esi
	callq	_KPhiAddCond
	movl	$159, %edi
	movl	$159, %esi
	xorl	%edx, %edx
	callq	_KTimestamp1
	movl	$151, %edi
	movl	$157, %esi
	callq	_KPhiAddCond
	movl	$151, %edi
	movl	$151, %esi
	xorl	%edx, %edx
	callq	_KTimestamp1
	callq	_KPopCDep
.Ltmp185:
	#DEBUG_VALUE: epic_internal_filter:y_im_lin <- R14D
	.loc	1 856 5 is_stmt 0       # epic.c:856:5
	movq	-224(%rbp), %rax        # 8-byte Reload
	cmpl	%eax, %r14d
	jge	.LBB3_41
.Ltmp186:
# BB#34:                                # %for.body116
                                        #   in Loop: Header=BB3_33 Depth=2
	#DEBUG_VALUE: epic_internal_filter:image <- [RBP+-112]
	#DEBUG_VALUE: epic_internal_filter:x_dim <- [RBP+-120]
	#DEBUG_VALUE: epic_internal_filter:y_dim <- [RBP+-260]
	#DEBUG_VALUE: epic_internal_filter:filt <- [RBP+-168]
	#DEBUG_VALUE: epic_internal_filter:temp <- [RBP+-104]
	#DEBUG_VALUE: epic_internal_filter:x_fdim <- [RBP+-156]
	#DEBUG_VALUE: epic_internal_filter:xgrid_start <- [RBP+24]
	#DEBUG_VALUE: epic_internal_filter:ygrid_start <- [RBP+40]
	#DEBUG_VALUE: epic_internal_filter:y_filt_lin <- [RBP+-156]
	#DEBUG_VALUE: epic_internal_filter:result <- [RBP+-328]
	#DEBUG_VALUE: epic_internal_filter:ygrid_step <- undef
	#DEBUG_VALUE: epic_internal_filter:xgrid_step <- [RBP+-304]
	#DEBUG_VALUE: epic_internal_filter:y_fdim <- undef
	#DEBUG_VALUE: epic_internal_filter:last_ctr_col <- [RBP+-172]
	#DEBUG_VALUE: epic_internal_filter:x_stop <- [RBP+-228]
	#DEBUG_VALUE: epic_internal_filter:res_pos <- 0
	#DEBUG_VALUE: epic_internal_filter:x_pos <- [RBP+-280]
	#DEBUG_VALUE: epic_internal_filter:y_pos <- [RBP+-296]
	#DEBUG_VALUE: epic_internal_filter:y_im_lin <- R14D
	#DEBUG_VALUE: epic_internal_filter:y_stop <- [RBP+-320]
	#DEBUG_VALUE: epic_internal_filter:last_ctr_row <- [RBP+-224]
	#DEBUG_VALUE: epic_internal_filter:ygrid_step_full <- [RBP+-240]
	#DEBUG_VALUE: epic_internal_filter:first_row <- [RBP+-296]
	movl	%r14d, -256(%rbp)       # 4-byte Spill
.Ltmp187:
	#DEBUG_VALUE: epic_internal_filter:y_im_lin <- [RBP+-256]
	movl	$2, %esi
	movabsq	$-1782518185056996185, %rdi # imm = 0xE7433927A600F4A7
	callq	_KEnterRegion
	movl	$157, %edi
	callq	_KPushCDep
	#DEBUG_VALUE: epic_internal_filter:x_filt <- 0
	#DEBUG_VALUE: epic_internal_filter:sum <- 0.000000e+00
	callq	_KPopCDep
	movl	$1, %esi
	movabsq	$7453030444969577453, %rdi # imm = 0x676E7BB3AC954BED
	callq	_KEnterRegion
	xorps	%xmm0, %xmm0
	movss	%xmm0, -68(%rbp)        # 4-byte Spill
	movl	$159, %ebx
	movl	$168, -48(%rbp)         # 4-byte Folded Spill
	xorl	%r12d, %r12d
	movq	-184(%rbp), %rax        # 8-byte Reload
	movq	%rax, -136(%rbp)        # 8-byte Spill
	movq	-88(%rbp), %r15         # 8-byte Reload
	xorl	%r14d, %r14d
	xorl	%eax, %eax
	movq	%rax, -56(%rbp)         # 8-byte Spill
	xorl	%eax, %eax
	movq	%rax, -128(%rbp)        # 8-byte Spill
	jmp	.LBB3_35
	.align	16, 0x90
.LBB3_39:                               # %for.cond120.pre_exit.for.end132
                                        #   in Loop: Header=BB3_35 Depth=3
	#DEBUG_VALUE: epic_internal_filter:image <- [RBP+-112]
	#DEBUG_VALUE: epic_internal_filter:x_dim <- [RBP+-120]
	#DEBUG_VALUE: epic_internal_filter:y_dim <- [RBP+-260]
	#DEBUG_VALUE: epic_internal_filter:filt <- [RBP+-168]
	#DEBUG_VALUE: epic_internal_filter:temp <- [RBP+-104]
	#DEBUG_VALUE: epic_internal_filter:x_fdim <- [RBP+-156]
	#DEBUG_VALUE: epic_internal_filter:xgrid_start <- [RBP+24]
	#DEBUG_VALUE: epic_internal_filter:ygrid_start <- [RBP+40]
	#DEBUG_VALUE: epic_internal_filter:y_filt_lin <- [RBP+-156]
	#DEBUG_VALUE: epic_internal_filter:result <- [RBP+-328]
	#DEBUG_VALUE: epic_internal_filter:ygrid_step <- undef
	#DEBUG_VALUE: epic_internal_filter:xgrid_step <- [RBP+-304]
	#DEBUG_VALUE: epic_internal_filter:y_fdim <- undef
	#DEBUG_VALUE: epic_internal_filter:last_ctr_col <- [RBP+-172]
	#DEBUG_VALUE: epic_internal_filter:x_stop <- [RBP+-228]
	#DEBUG_VALUE: epic_internal_filter:res_pos <- 0
	#DEBUG_VALUE: epic_internal_filter:x_pos <- [RBP+-280]
	#DEBUG_VALUE: epic_internal_filter:y_pos <- [RBP+-296]
	#DEBUG_VALUE: epic_internal_filter:sum <- 0.000000e+00
	#DEBUG_VALUE: epic_internal_filter:y_im_lin <- [RBP+-256]
	#DEBUG_VALUE: epic_internal_filter:x_filt <- 0
	#DEBUG_VALUE: epic_internal_filter:y_stop <- [RBP+-320]
	#DEBUG_VALUE: epic_internal_filter:last_ctr_row <- [RBP+-224]
	#DEBUG_VALUE: epic_internal_filter:ygrid_step_full <- [RBP+-240]
	#DEBUG_VALUE: epic_internal_filter:first_row <- [RBP+-296]
	movl	$1, %esi
	movabsq	$-4115287103203070929, %rdi # imm = 0xC6E3902EF0D5AC2F
	callq	_KExitRegion
	movl	$170, %r12d
	movl	$170, %edi
	callq	_KPushCDep
	movl	$2, %edi
	callq	_KWork
	movq	-128(%rbp), %rax        # 8-byte Reload
	cmpq	%rax, %r15
	cmovgeq	%r15, %rax
	movq	%rax, -128(%rbp)        # 8-byte Spill
	.loc	1 861 7 is_stmt 1       # epic.c:861:7
.Ltmp188:
	addq	-88(%rbp), %r15         # 8-byte Folded Reload
	movl	$1, (%rsp)
	movl	$176, %eax
	movq	%rax, -56(%rbp)         # 8-byte Spill
	movl	$176, %edi
	movl	$166, %esi
	movl	$1, %edx
	movl	$175, %ecx
	movl	$1, %r8d
	movl	$170, %r9d
	callq	_KTimestamp3
	movl	$1, (%rsp)
	movl	$172, %ebx
	movl	$172, %edi
	movl	$173, %esi
	movl	$1, %edx
	movl	$171, %ecx
	movl	$1, %r8d
	movl	$170, %r9d
	callq	_KTimestamp3
	movl	$1, (%rsp)
	movl	$167, -48(%rbp)         # 4-byte Folded Spill
	movl	$167, %edi
	movl	$168, %esi
	movl	$1, %edx
	movl	$166, %ecx
	movl	$1, %r8d
	movl	$170, %r9d
	callq	_KTimestamp3
	callq	_KPopCDep
	movl	$2, %esi
	movabsq	$-1796811285084022500, %rdi # imm = 0xE71071A7F827591C
	callq	_KExitRegion
	movq	-136(%rbp), %rax        # 8-byte Reload
	addq	-144(%rbp), %rax        # 8-byte Folded Reload
	movq	%rax, -136(%rbp)        # 8-byte Spill
	movl	$174, %r14d
.LBB3_35:                               # %for.cond117
                                        #   Parent Loop BB3_31 Depth=1
                                        #     Parent Loop BB3_33 Depth=2
                                        # =>    This Loop Header: Depth=3
                                        #         Child Loop BB3_37 Depth 4
	#DEBUG_VALUE: epic_internal_filter:image <- [RBP+-112]
	#DEBUG_VALUE: epic_internal_filter:x_dim <- [RBP+-120]
	#DEBUG_VALUE: epic_internal_filter:y_dim <- [RBP+-260]
	#DEBUG_VALUE: epic_internal_filter:filt <- [RBP+-168]
	#DEBUG_VALUE: epic_internal_filter:temp <- [RBP+-104]
	#DEBUG_VALUE: epic_internal_filter:x_fdim <- [RBP+-156]
	#DEBUG_VALUE: epic_internal_filter:xgrid_start <- [RBP+24]
	#DEBUG_VALUE: epic_internal_filter:ygrid_start <- [RBP+40]
	#DEBUG_VALUE: epic_internal_filter:y_filt_lin <- [RBP+-156]
	#DEBUG_VALUE: epic_internal_filter:result <- [RBP+-328]
	#DEBUG_VALUE: epic_internal_filter:ygrid_step <- undef
	#DEBUG_VALUE: epic_internal_filter:xgrid_step <- [RBP+-304]
	#DEBUG_VALUE: epic_internal_filter:y_fdim <- undef
	#DEBUG_VALUE: epic_internal_filter:last_ctr_col <- [RBP+-172]
	#DEBUG_VALUE: epic_internal_filter:x_stop <- [RBP+-228]
	#DEBUG_VALUE: epic_internal_filter:res_pos <- 0
	#DEBUG_VALUE: epic_internal_filter:x_pos <- [RBP+-280]
	#DEBUG_VALUE: epic_internal_filter:y_pos <- [RBP+-296]
	#DEBUG_VALUE: epic_internal_filter:sum <- 0.000000e+00
	#DEBUG_VALUE: epic_internal_filter:y_im_lin <- [RBP+-256]
	#DEBUG_VALUE: epic_internal_filter:x_filt <- 0
	#DEBUG_VALUE: epic_internal_filter:y_stop <- [RBP+-320]
	#DEBUG_VALUE: epic_internal_filter:last_ctr_row <- [RBP+-224]
	#DEBUG_VALUE: epic_internal_filter:ygrid_step_full <- [RBP+-240]
	#DEBUG_VALUE: epic_internal_filter:first_row <- [RBP+-296]
	movl	$157, %edi
	callq	_KPushCDep
	movl	$175, %edi
	movl	$157, %edx
	movq	-56(%rbp), %rsi         # 8-byte Reload
                                        # kill: ESI<def> ESI<kill> RSI<kill>
	movl	%r12d, %ecx
	callq	_KPhi2To1
	movl	$32, %edi
	movl	$157, %edx
	movl	%r14d, %esi
	movl	%r12d, %ecx
	callq	_KPhi2To1
	movl	$171, %edi
	movl	$157, %edx
	movl	%ebx, %esi
	movl	%r12d, %ecx
	callq	_KPhi2To1
	movl	$166, %edi
	movl	$157, %edx
	movl	-48(%rbp), %esi         # 4-byte Reload
	movl	%r12d, %ecx
	callq	_KPhi2To1
	movl	$1, %edi
	callq	_KWork
	movl	$32, %edi
	movl	$32, %esi
	xorl	%edx, %edx
	callq	_KTimestamp1
	movl	$1, (%rsp)
	movl	$170, %edi
	movl	$157, %esi
	movl	$1, %edx
	movl	$169, %ecx
	movl	$1, %r8d
	movl	$166, %r9d
	callq	_KTimestamp3
	movl	$175, %edi
	movl	$170, %esi
	callq	_KPhiAddCond
	movl	$175, %edi
	movl	$175, %esi
	xorl	%edx, %edx
	callq	_KTimestamp1
	movl	$32, %edi
	movl	$170, %esi
	callq	_KPhiAddCond
	movl	$171, %edi
	movl	$170, %esi
	callq	_KPhiAddCond
	movl	$171, %edi
	movl	$171, %esi
	xorl	%edx, %edx
	callq	_KTimestamp1
	movl	$166, %edi
	movl	$170, %esi
	callq	_KPhiAddCond
	movl	$166, %edi
	movl	$166, %esi
	xorl	%edx, %edx
	callq	_KTimestamp1
	callq	_KPopCDep
	.loc	1 861 34 is_stmt 0      # epic.c:861:34
	cmpq	-96(%rbp), %r15         # 8-byte Folded Reload
.Ltmp189:
	.loc	1 861 7                 # epic.c:861:7
	jg	.LBB3_40
# BB#36:                                # %for.body119
                                        #   in Loop: Header=BB3_35 Depth=3
	#DEBUG_VALUE: epic_internal_filter:image <- [RBP+-112]
	#DEBUG_VALUE: epic_internal_filter:x_dim <- [RBP+-120]
	#DEBUG_VALUE: epic_internal_filter:y_dim <- [RBP+-260]
	#DEBUG_VALUE: epic_internal_filter:filt <- [RBP+-168]
	#DEBUG_VALUE: epic_internal_filter:temp <- [RBP+-104]
	#DEBUG_VALUE: epic_internal_filter:x_fdim <- [RBP+-156]
	#DEBUG_VALUE: epic_internal_filter:xgrid_start <- [RBP+24]
	#DEBUG_VALUE: epic_internal_filter:ygrid_start <- [RBP+40]
	#DEBUG_VALUE: epic_internal_filter:y_filt_lin <- [RBP+-156]
	#DEBUG_VALUE: epic_internal_filter:result <- [RBP+-328]
	#DEBUG_VALUE: epic_internal_filter:ygrid_step <- undef
	#DEBUG_VALUE: epic_internal_filter:xgrid_step <- [RBP+-304]
	#DEBUG_VALUE: epic_internal_filter:y_fdim <- undef
	#DEBUG_VALUE: epic_internal_filter:last_ctr_col <- [RBP+-172]
	#DEBUG_VALUE: epic_internal_filter:x_stop <- [RBP+-228]
	#DEBUG_VALUE: epic_internal_filter:res_pos <- 0
	#DEBUG_VALUE: epic_internal_filter:x_pos <- [RBP+-280]
	#DEBUG_VALUE: epic_internal_filter:y_pos <- [RBP+-296]
	#DEBUG_VALUE: epic_internal_filter:sum <- 0.000000e+00
	#DEBUG_VALUE: epic_internal_filter:y_im_lin <- [RBP+-256]
	#DEBUG_VALUE: epic_internal_filter:x_filt <- 0
	#DEBUG_VALUE: epic_internal_filter:y_stop <- [RBP+-320]
	#DEBUG_VALUE: epic_internal_filter:last_ctr_row <- [RBP+-224]
	#DEBUG_VALUE: epic_internal_filter:ygrid_step_full <- [RBP+-240]
	#DEBUG_VALUE: epic_internal_filter:first_row <- [RBP+-296]
	movq	%r15, -80(%rbp)         # 8-byte Spill
	movl	$2, %esi
	movabsq	$-1796811285084022500, %rdi # imm = 0xE71071A7F827591C
	callq	_KEnterRegion
	movl	$170, %edi
	callq	_KPushCDep
	movl	$1, %edi
	callq	_KWork
	movq	-128(%rbp), %r15        # 8-byte Reload
	movslq	%r15d, %r15
	movq	%r15, -128(%rbp)        # 8-byte Spill
	xorl	%r14d, %r14d
	movl	$180, %edi
	movl	$175, %esi
	xorl	%edx, %edx
	movl	$170, %ecx
	xorl	%r8d, %r8d
	callq	_KTimestamp2
	callq	_KPopCDep
	movl	$1, %esi
	movabsq	$-4115287103203070929, %rdi # imm = 0xC6E3902EF0D5AC2F
	callq	_KEnterRegion
	movq	-104(%rbp), %rax        # 8-byte Reload
	leaq	(%rax,%r15,4), %rax
	movq	%rax, -64(%rbp)         # 8-byte Spill
	movl	$171, -56(%rbp)         # 4-byte Folded Spill
	movq	-136(%rbp), %r12        # 8-byte Reload
	movq	%r15, -48(%rbp)         # 8-byte Spill
	movl	$32, %ebx
	movl	$180, %r15d
	jmp	.LBB3_37
	.align	16, 0x90
.LBB3_38:                               # %for.body122
                                        #   in Loop: Header=BB3_37 Depth=4
	#DEBUG_VALUE: epic_internal_filter:image <- [RBP+-112]
	#DEBUG_VALUE: epic_internal_filter:x_dim <- [RBP+-120]
	#DEBUG_VALUE: epic_internal_filter:y_dim <- [RBP+-260]
	#DEBUG_VALUE: epic_internal_filter:filt <- [RBP+-168]
	#DEBUG_VALUE: epic_internal_filter:temp <- [RBP+-104]
	#DEBUG_VALUE: epic_internal_filter:x_fdim <- [RBP+-156]
	#DEBUG_VALUE: epic_internal_filter:xgrid_start <- [RBP+24]
	#DEBUG_VALUE: epic_internal_filter:ygrid_start <- [RBP+40]
	#DEBUG_VALUE: epic_internal_filter:y_filt_lin <- [RBP+-156]
	#DEBUG_VALUE: epic_internal_filter:result <- [RBP+-328]
	#DEBUG_VALUE: epic_internal_filter:ygrid_step <- undef
	#DEBUG_VALUE: epic_internal_filter:xgrid_step <- [RBP+-304]
	#DEBUG_VALUE: epic_internal_filter:y_fdim <- undef
	#DEBUG_VALUE: epic_internal_filter:last_ctr_col <- [RBP+-172]
	#DEBUG_VALUE: epic_internal_filter:x_stop <- [RBP+-228]
	#DEBUG_VALUE: epic_internal_filter:res_pos <- 0
	#DEBUG_VALUE: epic_internal_filter:x_pos <- [RBP+-280]
	#DEBUG_VALUE: epic_internal_filter:y_pos <- [RBP+-296]
	#DEBUG_VALUE: epic_internal_filter:sum <- 0.000000e+00
	#DEBUG_VALUE: epic_internal_filter:y_im_lin <- [RBP+-256]
	#DEBUG_VALUE: epic_internal_filter:x_filt <- 0
	#DEBUG_VALUE: epic_internal_filter:y_stop <- [RBP+-320]
	#DEBUG_VALUE: epic_internal_filter:last_ctr_row <- [RBP+-224]
	#DEBUG_VALUE: epic_internal_filter:ygrid_step_full <- [RBP+-240]
	#DEBUG_VALUE: epic_internal_filter:first_row <- [RBP+-296]
	movl	$2, %esi
	movq	%r13, %rdi
	callq	_KEnterRegion
	movl	$178, %r14d
	movl	$178, %edi
	callq	_KPushCDep
	movl	$17, %edi
	callq	_KWork
	movl	$28, %esi
	movl	$29, %edx
	movl	$4, %ecx
	movq	%r12, %rdi
	callq	_KLoad1
	.loc	1 866 18 is_stmt 1      # epic.c:866:18
.Ltmp190:
	movss	(%r12), %xmm0
	movss	%xmm0, -56(%rbp)        # 4-byte Spill
	movl	$30, %esi
	movl	$31, %edx
	movl	$4, %ecx
	movq	-64(%rbp), %r15         # 8-byte Reload
	movq	%r15, %rdi
	callq	_KLoad1
	movss	-56(%rbp), %xmm1        # 4-byte Reload
	mulss	(%r15), %xmm1
	.loc	1 866 11 is_stmt 0      # epic.c:866:11
	movss	-68(%rbp), %xmm0        # 4-byte Reload
	addss	%xmm1, %xmm0
.Ltmp191:
	#DEBUG_VALUE: epic_internal_filter:sum <- [RBP+-68]
	.loc	1 865 9 is_stmt 1       # epic.c:865:9
	movss	%xmm0, -68(%rbp)        # 4-byte Spill
	incq	%rbx
	movq	%rbx, -48(%rbp)         # 8-byte Spill
	movl	$7, 16(%rsp)
	movl	$30, 8(%rsp)
	movl	$7, (%rsp)
	movl	$181, %edi
	movl	$174, %esi
	movl	$2, %edx
	movl	$178, %ecx
	movl	$7, %r8d
	movl	$28, %r9d
	callq	_KTimestamp4
	movl	$179, %edi
	movl	$31, %esi
	movl	$1, %edx
	movl	$178, %ecx
	movl	$1, %r8d
	callq	_KTimestamp2
	movl	$177, -56(%rbp)         # 4-byte Folded Spill
	movl	$177, %edi
	movl	$29, %esi
	movl	$1, %edx
	movl	$178, %ecx
	movl	$1, %r8d
	callq	_KTimestamp2
	callq	_KPopCDep
	movl	$2, %esi
	movq	%r13, %rdi
	callq	_KExitRegion
	addq	$4, %r12
	addq	$4, %r15
	movq	%r15, -64(%rbp)         # 8-byte Spill
	movl	$181, %ebx
	movl	$179, %r15d
.Ltmp192:
.LBB3_37:                               # %for.cond120
                                        #   Parent Loop BB3_31 Depth=1
                                        #     Parent Loop BB3_33 Depth=2
                                        #       Parent Loop BB3_35 Depth=3
                                        # =>      This Inner Loop Header: Depth=4
	#DEBUG_VALUE: epic_internal_filter:image <- [RBP+-112]
	#DEBUG_VALUE: epic_internal_filter:x_dim <- [RBP+-120]
	#DEBUG_VALUE: epic_internal_filter:y_dim <- [RBP+-260]
	#DEBUG_VALUE: epic_internal_filter:filt <- [RBP+-168]
	#DEBUG_VALUE: epic_internal_filter:temp <- [RBP+-104]
	#DEBUG_VALUE: epic_internal_filter:x_fdim <- [RBP+-156]
	#DEBUG_VALUE: epic_internal_filter:xgrid_start <- [RBP+24]
	#DEBUG_VALUE: epic_internal_filter:ygrid_start <- [RBP+40]
	#DEBUG_VALUE: epic_internal_filter:y_filt_lin <- [RBP+-156]
	#DEBUG_VALUE: epic_internal_filter:result <- [RBP+-328]
	#DEBUG_VALUE: epic_internal_filter:ygrid_step <- undef
	#DEBUG_VALUE: epic_internal_filter:xgrid_step <- [RBP+-304]
	#DEBUG_VALUE: epic_internal_filter:y_fdim <- undef
	#DEBUG_VALUE: epic_internal_filter:last_ctr_col <- [RBP+-172]
	#DEBUG_VALUE: epic_internal_filter:x_stop <- [RBP+-228]
	#DEBUG_VALUE: epic_internal_filter:res_pos <- 0
	#DEBUG_VALUE: epic_internal_filter:x_pos <- [RBP+-280]
	#DEBUG_VALUE: epic_internal_filter:y_pos <- [RBP+-296]
	#DEBUG_VALUE: epic_internal_filter:sum <- 0.000000e+00
	#DEBUG_VALUE: epic_internal_filter:y_im_lin <- [RBP+-256]
	#DEBUG_VALUE: epic_internal_filter:x_filt <- 0
	#DEBUG_VALUE: epic_internal_filter:y_stop <- [RBP+-320]
	#DEBUG_VALUE: epic_internal_filter:last_ctr_row <- [RBP+-224]
	#DEBUG_VALUE: epic_internal_filter:ygrid_step_full <- [RBP+-240]
	#DEBUG_VALUE: epic_internal_filter:first_row <- [RBP+-296]
	movl	$170, %edi
	callq	_KPushCDep
	movl	$174, %edi
	movl	$170, %edx
	movl	%ebx, %esi
	movl	%r14d, %ecx
	callq	_KPhi2To1
	movl	$31, %edi
	movl	$170, %edx
	movl	%r15d, %esi
	movl	%r14d, %ecx
	callq	_KPhi2To1
	movl	$29, %edi
	movl	$170, %edx
	movl	-56(%rbp), %esi         # 4-byte Reload
	movl	%r14d, %ecx
	callq	_KPhi2To1
	movl	$1, %edi
	callq	_KWork
	movl	$1, (%rsp)
	movl	$178, %edi
	movl	$166, %esi
	movl	$1, %edx
	movl	$170, %ecx
	movl	$1, %r8d
	movl	$31, %r9d
	callq	_KTimestamp3
	movl	$174, %edi
	movl	$178, %esi
	callq	_KPhiAddCond
	movl	$31, %edi
	movl	$178, %esi
	callq	_KPhiAddCond
	movl	$31, %edi
	movl	$31, %esi
	xorl	%edx, %edx
	callq	_KTimestamp1
	movl	$29, %edi
	movl	$178, %esi
	callq	_KPhiAddCond
	movl	$29, %edi
	movl	$29, %esi
	xorl	%edx, %edx
	callq	_KTimestamp1
	movl	$174, %edi
	movl	$174, %esi
	xorl	%edx, %edx
	callq	_KTimestamp1
	callq	_KPopCDep
	movq	-80(%rbp), %r15         # 8-byte Reload
	movq	-48(%rbp), %rbx         # 8-byte Reload
	.loc	1 865 9 is_stmt 0       # epic.c:865:9
	cmpq	%r15, %rbx
	jl	.LBB3_38
	jmp	.LBB3_39
.Ltmp193:
.LBB3_42:                               # %for.cond111.pre_exit.for.end146
	#DEBUG_VALUE: epic_internal_filter:image <- [RBP+-112]
	#DEBUG_VALUE: epic_internal_filter:x_dim <- [RBP+-120]
	#DEBUG_VALUE: epic_internal_filter:y_dim <- [RBP+-260]
	#DEBUG_VALUE: epic_internal_filter:filt <- [RBP+-168]
	#DEBUG_VALUE: epic_internal_filter:temp <- [RBP+-104]
	#DEBUG_VALUE: epic_internal_filter:x_fdim <- [RBP+-156]
	#DEBUG_VALUE: epic_internal_filter:xgrid_start <- [RBP+24]
	#DEBUG_VALUE: epic_internal_filter:ygrid_start <- [RBP+40]
	#DEBUG_VALUE: epic_internal_filter:y_filt_lin <- [RBP+-156]
	#DEBUG_VALUE: epic_internal_filter:result <- [RBP+-328]
	#DEBUG_VALUE: epic_internal_filter:ygrid_step <- undef
	#DEBUG_VALUE: epic_internal_filter:xgrid_step <- [RBP+-304]
	#DEBUG_VALUE: epic_internal_filter:y_fdim <- undef
	#DEBUG_VALUE: epic_internal_filter:last_ctr_col <- [RBP+-172]
	#DEBUG_VALUE: epic_internal_filter:x_stop <- [RBP+-228]
	#DEBUG_VALUE: epic_internal_filter:res_pos <- [RBP+-304]
	#DEBUG_VALUE: epic_internal_filter:x_pos <- [RBP+-280]
	#DEBUG_VALUE: epic_internal_filter:y_pos <- [RBP+-296]
	#DEBUG_VALUE: epic_internal_filter:y_im_lin <- [RBP+-224]
	#DEBUG_VALUE: epic_internal_filter:y_stop <- [RBP+-320]
	#DEBUG_VALUE: epic_internal_filter:last_ctr_row <- [RBP+-224]
	#DEBUG_VALUE: epic_internal_filter:ygrid_step_full <- [RBP+-240]
	#DEBUG_VALUE: epic_internal_filter:first_row <- [RBP+-296]
	movl	%ebx, -192(%rbp)        # 4-byte Spill
	movl	$1, %esi
	movabsq	$5887501121598573392, %rdi # imm = 0x51B49B13A798CB50
	callq	_KExitRegion
	xorl	%ebx, %ebx
	movabsq	$4923020429285366516, %rdi # imm = 0x445214FF458B9AF4
	xorl	%esi, %esi
	callq	_KPrepCall
	callq	_KEnqArgConst
	callq	_KEnqArgConst
	callq	_KEnqArgConst
	movl	$4, %edi
	callq	_KEnqArg
	movl	$3, %edi
	callq	_KEnqArg
	movl	$6, %edi
	callq	_KWork
	.loc	1 876 3 is_stmt 1       # epic.c:876:3
	movl	$0, (%rsp)
	xorl	%ecx, %ecx
	xorl	%r8d, %r8d
	movq	-168(%rbp), %rdi        # 8-byte Reload
	movl	-156(%rbp), %esi        # 4-byte Reload
	movl	16(%rbp), %edx
                                        # kill: EDX<def> EDX<kill> RDX<kill>
	movq	-104(%rbp), %r9         # 8-byte Reload
	callq	epic_reflect1
.Ltmp194:
	#DEBUG_VALUE: epic_internal_filter:x_pos <- [RBP+-216]
	.loc	1 878 9                 # epic.c:878:9
	movq	-216(%rbp), %rax        # 8-byte Reload
	movq	-296(%rbp), %r12        # 8-byte Reload
.Ltmp195:
	#DEBUG_VALUE: epic_internal_filter:first_row <- R12D
	#DEBUG_VALUE: epic_internal_filter:y_pos <- R12D
	leal	(%rax,%r12), %eax
	movl	%eax, -312(%rbp)        # 4-byte Spill
	movq	-304(%rbp), %rax        # 8-byte Reload
	cltq
	movq	%rax, -272(%rbp)        # 8-byte Spill
	movl	$206, %edi
	movl	$3, %esi
	movl	$2, %edx
	movl	$4, %ecx
	movl	$2, %r8d
	callq	_KTimestamp2
	movl	$205, %edi
	movl	$3, %esi
	xorl	%edx, %edx
	callq	_KTimestamp1
	movl	$1, (%rsp)
	movl	$191, -48(%rbp)         # 4-byte Folded Spill
	movl	$191, %edi
	movl	$1, %esi
	movl	$3, %edx
	movl	$10, %ecx
	movl	$4, %r8d
	movl	$68, %r9d
	callq	_KTimestamp3
	movl	$190, %edi
	movl	$1, %esi
	movl	$2, %edx
	movl	$8, %ecx
	movl	$2, %r8d
	callq	_KTimestamp2
	movl	$187, -56(%rbp)         # 4-byte Folded Spill
	movl	$187, %edi
	movl	$152, %esi
	xorl	%edx, %edx
	callq	_KTimestamp1
	movl	$12, (%rsp)
	movl	$184, %edi
	movl	$1, %esi
	movl	$13, %edx
	movl	$5, %ecx
	movl	$13, %r8d
	movl	$6, %r9d
	callq	_KTimestamp3
	movl	$1, %esi
	movabsq	$2276875434527849140, %rdi # imm = 0x1F991624F0D87AB4
	callq	_KEnterRegion
	movl	$149, %esi
	movl	$163, %r13d
	movl	$27, %r15d
	movabsq	$-2897061699467985245, %r14 # imm = 0xD7CB91BBCED23EA3
                                        # kill: R12D<def> R12D<kill> R12<kill>
.Ltmp196:
	#DEBUG_VALUE: epic_internal_filter:first_row <- [RBP+-296]
	#DEBUG_VALUE: epic_internal_filter:y_pos <- [RBP+-296]
	jmp	.LBB3_43
	.align	16, 0x90
.LBB3_53:                               # %for.cond150.pre_exit.for.end179
                                        #   in Loop: Header=BB3_43 Depth=1
	#DEBUG_VALUE: epic_internal_filter:image <- [RBP+-112]
	#DEBUG_VALUE: epic_internal_filter:x_dim <- [RBP+-120]
	#DEBUG_VALUE: epic_internal_filter:y_dim <- [RBP+-260]
	#DEBUG_VALUE: epic_internal_filter:filt <- [RBP+-168]
	#DEBUG_VALUE: epic_internal_filter:temp <- [RBP+-104]
	#DEBUG_VALUE: epic_internal_filter:x_fdim <- [RBP+-156]
	#DEBUG_VALUE: epic_internal_filter:xgrid_start <- [RBP+24]
	#DEBUG_VALUE: epic_internal_filter:ygrid_start <- [RBP+40]
	#DEBUG_VALUE: epic_internal_filter:y_filt_lin <- [RBP+-156]
	#DEBUG_VALUE: epic_internal_filter:result <- [RBP+-328]
	#DEBUG_VALUE: epic_internal_filter:ygrid_step <- undef
	#DEBUG_VALUE: epic_internal_filter:xgrid_step <- [RBP+-304]
	#DEBUG_VALUE: epic_internal_filter:y_fdim <- undef
	#DEBUG_VALUE: epic_internal_filter:last_ctr_col <- [RBP+-172]
	#DEBUG_VALUE: epic_internal_filter:x_stop <- [RBP+-228]
	#DEBUG_VALUE: epic_internal_filter:x_pos <- [RBP+-216]
	#DEBUG_VALUE: epic_internal_filter:y_pos <- [RBP+-296]
.Ltmp197:
	#DEBUG_VALUE: epic_internal_filter:y_im_lin <- [RBP+-184]
	#DEBUG_VALUE: epic_internal_filter:y_stop <- [RBP+-320]
	#DEBUG_VALUE: epic_internal_filter:last_ctr_row <- [RBP+-224]
	#DEBUG_VALUE: epic_internal_filter:ygrid_step_full <- [RBP+-240]
	#DEBUG_VALUE: epic_internal_filter:first_row <- [RBP+-296]
	movl	$1, %esi
	movabsq	$4191836823293127344, %rdi # imm = 0x3A2C6561A8C9EAB0
	callq	_KExitRegion
	movl	$185, %ebx
	movl	$185, %edi
	callq	_KPushCDep
	movl	$3, %edi
	callq	_KWork
	movl	-240(%rbp), %eax        # 4-byte Reload
.Ltmp198:
	#DEBUG_VALUE: epic_internal_filter:ygrid_step_full <- EAX
	movl	-184(%rbp), %r12d       # 4-byte Reload
.Ltmp199:
	#DEBUG_VALUE: epic_internal_filter:y_im_lin <- R12D
	.loc	1 880 9                 # epic.c:880:9
	addl	%eax, %r12d
.Ltmp200:
	#DEBUG_VALUE: epic_internal_filter:y_pos <- R12D
	.loc	1 878 3                 # epic.c:878:3
	addl	%eax, -312(%rbp)        # 4-byte Folded Spill
	movq	-272(%rbp), %rax        # 8-byte Reload
.Ltmp201:
	#DEBUG_VALUE: epic_internal_filter:ygrid_step_full <- [RBP+-240]
	addq	-248(%rbp), %rax        # 8-byte Folded Reload
	movq	%rax, -272(%rbp)        # 8-byte Spill
	movl	$196, %edi
	movl	$197, %esi
	xorl	%edx, %edx
	movl	$185, %ecx
	xorl	%r8d, %r8d
	callq	_KTimestamp2
	movl	$1, (%rsp)
	movl	$194, %r13d
	movl	$194, %edi
	movl	$165, %esi
	movl	$1, %edx
	movl	$186, %ecx
	movl	$1, %r8d
	movl	$185, %r9d
	callq	_KTimestamp3
	movl	$1, (%rsp)
	movl	$189, -48(%rbp)         # 4-byte Folded Spill
	movl	$189, %edi
	movl	$190, %esi
	movl	$1, %edx
	movl	$188, %ecx
	movl	$1, %r8d
	movl	$185, %r9d
	callq	_KTimestamp3
	movl	$1, (%rsp)
	movl	$183, -56(%rbp)         # 4-byte Folded Spill
	movl	$183, %edi
	movl	$184, %esi
	movl	$1, %edx
	movl	$182, %ecx
	movl	$1, %r8d
	movl	$185, %r9d
	callq	_KTimestamp3
	callq	_KPopCDep
	movl	$2, %esi
	movabsq	$-4112209369954879928, %rdi # imm = 0xC6EE7F5D8DCE7648
	callq	_KExitRegion
	movl	$196, %esi
	movl	$193, %r15d
.Ltmp202:
.LBB3_43:                               # %for.cond147
                                        # =>This Loop Header: Depth=1
                                        #     Child Loop BB3_45 Depth 2
                                        #       Child Loop BB3_47 Depth 3
                                        #         Child Loop BB3_49 Depth 4
	#DEBUG_VALUE: epic_internal_filter:image <- [RBP+-112]
	#DEBUG_VALUE: epic_internal_filter:x_dim <- [RBP+-120]
	#DEBUG_VALUE: epic_internal_filter:y_dim <- [RBP+-260]
	#DEBUG_VALUE: epic_internal_filter:filt <- [RBP+-168]
	#DEBUG_VALUE: epic_internal_filter:temp <- [RBP+-104]
	#DEBUG_VALUE: epic_internal_filter:x_fdim <- [RBP+-156]
	#DEBUG_VALUE: epic_internal_filter:xgrid_start <- [RBP+24]
	#DEBUG_VALUE: epic_internal_filter:ygrid_start <- [RBP+40]
	#DEBUG_VALUE: epic_internal_filter:y_filt_lin <- [RBP+-156]
	#DEBUG_VALUE: epic_internal_filter:result <- [RBP+-328]
	#DEBUG_VALUE: epic_internal_filter:ygrid_step <- undef
	#DEBUG_VALUE: epic_internal_filter:xgrid_step <- [RBP+-304]
	#DEBUG_VALUE: epic_internal_filter:y_fdim <- undef
	#DEBUG_VALUE: epic_internal_filter:last_ctr_col <- [RBP+-172]
	#DEBUG_VALUE: epic_internal_filter:x_stop <- [RBP+-228]
	#DEBUG_VALUE: epic_internal_filter:x_pos <- [RBP+-216]
	#DEBUG_VALUE: epic_internal_filter:y_pos <- [RBP+-296]
	#DEBUG_VALUE: epic_internal_filter:y_im_lin <- [RBP+-224]
	#DEBUG_VALUE: epic_internal_filter:y_stop <- [RBP+-320]
	#DEBUG_VALUE: epic_internal_filter:last_ctr_row <- [RBP+-224]
	#DEBUG_VALUE: epic_internal_filter:ygrid_step_full <- [RBP+-240]
	#DEBUG_VALUE: epic_internal_filter:first_row <- [RBP+-296]
	movl	%r12d, -184(%rbp)       # 4-byte Spill
	movl	$195, %edi
	movl	%ebx, %edx
	callq	_KPhi1To1
	movl	$186, %edi
	movl	%r13d, %esi
	movl	%ebx, %edx
	callq	_KPhi1To1
	movl	$192, %edi
	movl	%r15d, %esi
	movl	%ebx, %edx
	callq	_KPhi1To1
	movl	$188, %edi
	movl	-48(%rbp), %esi         # 4-byte Reload
	movl	%ebx, %edx
	callq	_KPhi1To1
	movl	$182, %edi
	movl	-56(%rbp), %esi         # 4-byte Reload
	movl	%ebx, %edx
	callq	_KPhi1To1
	movl	$1, %edi
	callq	_KWork
.Ltmp203:
	#DEBUG_VALUE: epic_internal_filter:y_im_lin <- R12D
	movl	$195, %edi
	movl	$195, %esi
	xorl	%edx, %edx
	callq	_KTimestamp1
	movl	$185, %edi
	movl	$156, %esi
	movl	$1, %edx
	movl	$186, %ecx
	movl	$1, %r8d
	callq	_KTimestamp2
	movl	$195, %edi
	movl	$185, %esi
	callq	_KPhiAddCond
	movl	$186, %edi
	movl	$185, %esi
	callq	_KPhiAddCond
	movl	$186, %edi
	movl	$186, %esi
	xorl	%edx, %edx
	callq	_KTimestamp1
	movl	$192, %edi
	movl	$185, %esi
	callq	_KPhiAddCond
	movl	$188, %edi
	movl	$185, %esi
	callq	_KPhiAddCond
	movl	$188, %edi
	movl	$188, %esi
	xorl	%edx, %edx
	callq	_KTimestamp1
	movl	$182, %edi
	movl	$185, %esi
	callq	_KPhiAddCond
	movl	$182, %edi
	movl	$182, %esi
	xorl	%edx, %edx
	callq	_KTimestamp1
	.loc	1 878 3 is_stmt 0       # epic.c:878:3
	movq	-224(%rbp), %rax        # 8-byte Reload
	cmpl	%eax, %r12d
.Ltmp204:
	#DEBUG_VALUE: epic_internal_filter:y_im_lin <- [RBP+-184]
	jge	.LBB3_54
# BB#44:                                # %for.body149
                                        #   in Loop: Header=BB3_43 Depth=1
	#DEBUG_VALUE: epic_internal_filter:image <- [RBP+-112]
	#DEBUG_VALUE: epic_internal_filter:x_dim <- [RBP+-120]
	#DEBUG_VALUE: epic_internal_filter:y_dim <- [RBP+-260]
	#DEBUG_VALUE: epic_internal_filter:filt <- [RBP+-168]
	#DEBUG_VALUE: epic_internal_filter:temp <- [RBP+-104]
	#DEBUG_VALUE: epic_internal_filter:x_fdim <- [RBP+-156]
	#DEBUG_VALUE: epic_internal_filter:xgrid_start <- [RBP+24]
	#DEBUG_VALUE: epic_internal_filter:ygrid_start <- [RBP+40]
	#DEBUG_VALUE: epic_internal_filter:y_filt_lin <- [RBP+-156]
	#DEBUG_VALUE: epic_internal_filter:result <- [RBP+-328]
	#DEBUG_VALUE: epic_internal_filter:ygrid_step <- undef
	#DEBUG_VALUE: epic_internal_filter:xgrid_step <- [RBP+-304]
	#DEBUG_VALUE: epic_internal_filter:y_fdim <- undef
	#DEBUG_VALUE: epic_internal_filter:last_ctr_col <- [RBP+-172]
	#DEBUG_VALUE: epic_internal_filter:x_stop <- [RBP+-228]
	#DEBUG_VALUE: epic_internal_filter:x_pos <- [RBP+-216]
	#DEBUG_VALUE: epic_internal_filter:y_pos <- [RBP+-296]
	#DEBUG_VALUE: epic_internal_filter:y_im_lin <- [RBP+-184]
	#DEBUG_VALUE: epic_internal_filter:y_stop <- [RBP+-320]
	#DEBUG_VALUE: epic_internal_filter:last_ctr_row <- [RBP+-224]
	#DEBUG_VALUE: epic_internal_filter:ygrid_step_full <- [RBP+-240]
	#DEBUG_VALUE: epic_internal_filter:first_row <- [RBP+-296]
	movl	$2, %esi
	movabsq	$-4112209369954879928, %rdi # imm = 0xC6EE7F5D8DCE7648
	callq	_KEnterRegion
	movl	$185, %edi
	callq	_KPushCDep
	callq	_KPopCDep
	movl	$1, %esi
	movabsq	$4191836823293127344, %rdi # imm = 0x3A2C6561A8C9EAB0
	callq	_KEnterRegion
	movl	$68, -48(%rbp)          # 4-byte Folded Spill
	movl	$188, %ebx
	movl	$182, %r12d
	xorl	%r13d, %r13d
	movq	-272(%rbp), %rax        # 8-byte Reload
	movq	%rax, -152(%rbp)        # 8-byte Spill
	movl	-312(%rbp), %eax        # 4-byte Reload
	movl	%eax, -256(%rbp)        # 4-byte Spill
	movq	-216(%rbp), %rax        # 8-byte Reload
	movl	%eax, %r15d
	jmp	.LBB3_45
	.align	16, 0x90
.LBB3_52:                               # %for.cond153.pre_exit.for.end173
                                        #   in Loop: Header=BB3_45 Depth=2
	#DEBUG_VALUE: epic_internal_filter:image <- [RBP+-112]
	#DEBUG_VALUE: epic_internal_filter:x_dim <- [RBP+-120]
	#DEBUG_VALUE: epic_internal_filter:y_dim <- [RBP+-260]
	#DEBUG_VALUE: epic_internal_filter:filt <- [RBP+-168]
	#DEBUG_VALUE: epic_internal_filter:temp <- [RBP+-104]
	#DEBUG_VALUE: epic_internal_filter:x_fdim <- [RBP+-156]
	#DEBUG_VALUE: epic_internal_filter:xgrid_start <- [RBP+24]
	#DEBUG_VALUE: epic_internal_filter:ygrid_start <- [RBP+40]
	#DEBUG_VALUE: epic_internal_filter:y_filt_lin <- [RBP+-156]
	#DEBUG_VALUE: epic_internal_filter:result <- [RBP+-328]
	#DEBUG_VALUE: epic_internal_filter:ygrid_step <- undef
	#DEBUG_VALUE: epic_internal_filter:xgrid_step <- [RBP+-304]
	#DEBUG_VALUE: epic_internal_filter:y_fdim <- undef
	#DEBUG_VALUE: epic_internal_filter:last_ctr_col <- [RBP+-172]
	#DEBUG_VALUE: epic_internal_filter:x_stop <- [RBP+-228]
	#DEBUG_VALUE: epic_internal_filter:x_pos <- [RBP+-216]
	#DEBUG_VALUE: epic_internal_filter:y_pos <- [RBP+-296]
	#DEBUG_VALUE: epic_internal_filter:sum <- 0.000000e+00
	#DEBUG_VALUE: epic_internal_filter:y_im_lin <- [RBP+-184]
	#DEBUG_VALUE: epic_internal_filter:x_filt <- 0
	#DEBUG_VALUE: epic_internal_filter:y_stop <- [RBP+-320]
	#DEBUG_VALUE: epic_internal_filter:last_ctr_row <- [RBP+-224]
	#DEBUG_VALUE: epic_internal_filter:ygrid_step_full <- [RBP+-240]
	#DEBUG_VALUE: epic_internal_filter:first_row <- [RBP+-296]
	movl	$1, %esi
	movabsq	$4565001238489845937, %rdi # imm = 0x3F5A2470A367D0B1
	callq	_KExitRegion
	movl	$199, %r13d
	movl	$199, %edi
	callq	_KPushCDep
	movl	$4, %edi
	callq	_KWork
	movq	56(%rbp), %rax
	movq	%rax, %r15
.Ltmp205:
	#DEBUG_VALUE: epic_internal_filter:result <- R15
	movq	-152(%rbp), %rbx        # 8-byte Reload
	.loc	1 899 7 is_stmt 1       # epic.c:899:7
.Ltmp206:
	leaq	(%r15,%rbx,4), %rsi
	movl	$37, %edi
	movl	$4, %edx
	callq	_KStore
	movss	-68(%rbp), %xmm0        # 4-byte Reload
	movss	%xmm0, (%r15,%rbx,4)
	movl	32(%rbp), %eax
.Ltmp207:
	#DEBUG_VALUE: epic_internal_filter:xgrid_step <- EAX
	#DEBUG_VALUE: epic_internal_filter:result <- [RBP+-328]
	movl	-192(%rbp), %r15d       # 4-byte Reload
.Ltmp208:
	.loc	1 885 11                # epic.c:885:11
	addl	%eax, %r15d
.Ltmp209:
	#DEBUG_VALUE: epic_internal_filter:x_pos <- R15D
	.loc	1 883 5                 # epic.c:883:5
	addl	%eax, -256(%rbp)        # 4-byte Folded Spill
.Ltmp210:
	#DEBUG_VALUE: epic_internal_filter:xgrid_step <- [RBP+-304]
	incq	%rbx
	movq	%rbx, -152(%rbp)        # 8-byte Spill
	movl	$1, (%rsp)
	movl	$202, -48(%rbp)         # 4-byte Folded Spill
	movl	$202, %edi
	movl	$6, %esi
	movl	$1, %edx
	movl	$193, %ecx
	movl	$1, %r8d
	movl	$199, %r9d
	callq	_KTimestamp3
	movl	$1, (%rsp)
	movl	$201, %ebx
	movl	$201, %edi
	movl	$6, %esi
	movl	$1, %edx
	movl	$200, %ecx
	movl	$1, %r8d
	movl	$199, %r9d
	callq	_KTimestamp3
	movl	$198, %r12d
	movl	$198, %edi
	movl	$197, %esi
	movl	$1, %edx
	movl	$199, %ecx
	movl	$1, %r8d
	callq	_KTimestamp2
	callq	_KPopCDep
	movl	$2, %esi
	movabsq	$-6999877398748288842, %rdi # imm = 0x9EDB7097C052A8B6
	callq	_KExitRegion
.Ltmp211:
.LBB3_45:                               # %for.cond150
                                        #   Parent Loop BB3_43 Depth=1
                                        # =>  This Loop Header: Depth=2
                                        #       Child Loop BB3_47 Depth 3
                                        #         Child Loop BB3_49 Depth 4
	#DEBUG_VALUE: epic_internal_filter:image <- [RBP+-112]
	#DEBUG_VALUE: epic_internal_filter:x_dim <- [RBP+-120]
	#DEBUG_VALUE: epic_internal_filter:y_dim <- [RBP+-260]
	#DEBUG_VALUE: epic_internal_filter:filt <- [RBP+-168]
	#DEBUG_VALUE: epic_internal_filter:temp <- [RBP+-104]
	#DEBUG_VALUE: epic_internal_filter:x_fdim <- [RBP+-156]
	#DEBUG_VALUE: epic_internal_filter:xgrid_start <- [RBP+24]
	#DEBUG_VALUE: epic_internal_filter:ygrid_start <- [RBP+40]
	#DEBUG_VALUE: epic_internal_filter:y_filt_lin <- [RBP+-156]
	#DEBUG_VALUE: epic_internal_filter:result <- [RBP+-328]
	#DEBUG_VALUE: epic_internal_filter:ygrid_step <- undef
	#DEBUG_VALUE: epic_internal_filter:xgrid_step <- [RBP+-304]
	#DEBUG_VALUE: epic_internal_filter:y_fdim <- undef
	#DEBUG_VALUE: epic_internal_filter:last_ctr_col <- [RBP+-172]
	#DEBUG_VALUE: epic_internal_filter:x_stop <- [RBP+-228]
	#DEBUG_VALUE: epic_internal_filter:x_pos <- [RBP+-216]
	#DEBUG_VALUE: epic_internal_filter:y_pos <- [RBP+-296]
	#DEBUG_VALUE: epic_internal_filter:y_im_lin <- [RBP+-184]
	#DEBUG_VALUE: epic_internal_filter:y_stop <- [RBP+-320]
	#DEBUG_VALUE: epic_internal_filter:last_ctr_row <- [RBP+-224]
	#DEBUG_VALUE: epic_internal_filter:ygrid_step_full <- [RBP+-240]
	#DEBUG_VALUE: epic_internal_filter:first_row <- [RBP+-296]
	movl	%r15d, -192(%rbp)       # 4-byte Spill
	movl	$185, %edi
	callq	_KPushCDep
	movl	$193, %edi
	movl	$185, %edx
	movl	-48(%rbp), %esi         # 4-byte Reload
	movl	%r13d, %ecx
	callq	_KPhi2To1
	movl	$200, %edi
	movl	$185, %edx
	movl	%ebx, %esi
	movl	%r13d, %ecx
	callq	_KPhi2To1
	movl	$197, %edi
	movl	$185, %edx
	movl	%r12d, %esi
	movl	%r13d, %ecx
	callq	_KPhi2To1
	movl	$1, %edi
	callq	_KWork
	movl	$1, (%rsp)
	movl	$199, %edi
	movl	$99, %esi
	movl	$1, %edx
	movl	$193, %ecx
	movl	$1, %r8d
	movl	$185, %r9d
	callq	_KTimestamp3
	movl	$193, %edi
	movl	$199, %esi
	callq	_KPhiAddCond
	movl	$200, %edi
	movl	$199, %esi
	callq	_KPhiAddCond
	movl	$200, %edi
	movl	$200, %esi
	xorl	%edx, %edx
	callq	_KTimestamp1
	movl	$197, %edi
	movl	$199, %esi
	callq	_KPhiAddCond
	movl	$197, %edi
	movl	$197, %esi
	xorl	%edx, %edx
	callq	_KTimestamp1
	movl	$193, %edi
	movl	$193, %esi
	xorl	%edx, %edx
	callq	_KTimestamp1
	callq	_KPopCDep
	.loc	1 883 5 is_stmt 0       # epic.c:883:5
	cmpl	-172(%rbp), %r15d       # 4-byte Folded Reload
	jge	.LBB3_53
# BB#46:                                # %for.body152
                                        #   in Loop: Header=BB3_45 Depth=2
	#DEBUG_VALUE: epic_internal_filter:image <- [RBP+-112]
	#DEBUG_VALUE: epic_internal_filter:x_dim <- [RBP+-120]
	#DEBUG_VALUE: epic_internal_filter:y_dim <- [RBP+-260]
	#DEBUG_VALUE: epic_internal_filter:filt <- [RBP+-168]
	#DEBUG_VALUE: epic_internal_filter:temp <- [RBP+-104]
	#DEBUG_VALUE: epic_internal_filter:x_fdim <- [RBP+-156]
	#DEBUG_VALUE: epic_internal_filter:xgrid_start <- [RBP+24]
	#DEBUG_VALUE: epic_internal_filter:ygrid_start <- [RBP+40]
	#DEBUG_VALUE: epic_internal_filter:y_filt_lin <- [RBP+-156]
	#DEBUG_VALUE: epic_internal_filter:result <- [RBP+-328]
	#DEBUG_VALUE: epic_internal_filter:ygrid_step <- undef
	#DEBUG_VALUE: epic_internal_filter:xgrid_step <- [RBP+-304]
	#DEBUG_VALUE: epic_internal_filter:y_fdim <- undef
	#DEBUG_VALUE: epic_internal_filter:last_ctr_col <- [RBP+-172]
	#DEBUG_VALUE: epic_internal_filter:x_stop <- [RBP+-228]
	#DEBUG_VALUE: epic_internal_filter:x_pos <- [RBP+-216]
	#DEBUG_VALUE: epic_internal_filter:y_pos <- [RBP+-296]
	#DEBUG_VALUE: epic_internal_filter:y_im_lin <- [RBP+-184]
	#DEBUG_VALUE: epic_internal_filter:y_stop <- [RBP+-320]
	#DEBUG_VALUE: epic_internal_filter:last_ctr_row <- [RBP+-224]
	#DEBUG_VALUE: epic_internal_filter:ygrid_step_full <- [RBP+-240]
	#DEBUG_VALUE: epic_internal_filter:first_row <- [RBP+-296]
	movl	$2, %esi
	movabsq	$-6999877398748288842, %rdi # imm = 0x9EDB7097C052A8B6
	callq	_KEnterRegion
	movl	$199, %edi
	callq	_KPushCDep
	#DEBUG_VALUE: epic_internal_filter:x_filt <- 0
	#DEBUG_VALUE: epic_internal_filter:sum <- 0.000000e+00
	callq	_KPopCDep
	movl	$1, %esi
	movabsq	$4565001238489845937, %rdi # imm = 0x3F5A2470A367D0B1
	callq	_KEnterRegion
	xorps	%xmm0, %xmm0
	movss	%xmm0, -68(%rbp)        # 4-byte Spill
	movl	$200, -48(%rbp)         # 4-byte Folded Spill
	movl	$205, %ebx
	xorl	%r12d, %r12d
	movq	-88(%rbp), %rax         # 8-byte Reload
	movq	%rax, -80(%rbp)         # 8-byte Spill
	movl	-256(%rbp), %eax        # 4-byte Reload
	movl	%eax, -136(%rbp)        # 4-byte Spill
	xorl	%r13d, %r13d
	xorl	%r15d, %r15d
	xorl	%eax, %eax
	movq	%rax, -128(%rbp)        # 8-byte Spill
	jmp	.LBB3_47
	.align	16, 0x90
.LBB3_51:                               # %for.cond157.pre_exit.for.end169
                                        #   in Loop: Header=BB3_47 Depth=3
	#DEBUG_VALUE: epic_internal_filter:image <- [RBP+-112]
	#DEBUG_VALUE: epic_internal_filter:x_dim <- [RBP+-120]
	#DEBUG_VALUE: epic_internal_filter:y_dim <- [RBP+-260]
	#DEBUG_VALUE: epic_internal_filter:filt <- [RBP+-168]
	#DEBUG_VALUE: epic_internal_filter:temp <- [RBP+-104]
	#DEBUG_VALUE: epic_internal_filter:x_fdim <- [RBP+-156]
	#DEBUG_VALUE: epic_internal_filter:xgrid_start <- [RBP+24]
	#DEBUG_VALUE: epic_internal_filter:ygrid_start <- [RBP+40]
	#DEBUG_VALUE: epic_internal_filter:y_filt_lin <- [RBP+-156]
	#DEBUG_VALUE: epic_internal_filter:result <- [RBP+-328]
	#DEBUG_VALUE: epic_internal_filter:ygrid_step <- undef
	#DEBUG_VALUE: epic_internal_filter:xgrid_step <- [RBP+-304]
	#DEBUG_VALUE: epic_internal_filter:y_fdim <- undef
	#DEBUG_VALUE: epic_internal_filter:last_ctr_col <- [RBP+-172]
	#DEBUG_VALUE: epic_internal_filter:x_stop <- [RBP+-228]
	#DEBUG_VALUE: epic_internal_filter:x_pos <- [RBP+-216]
	#DEBUG_VALUE: epic_internal_filter:y_pos <- [RBP+-296]
	#DEBUG_VALUE: epic_internal_filter:sum <- 0.000000e+00
	#DEBUG_VALUE: epic_internal_filter:y_im_lin <- [RBP+-184]
	#DEBUG_VALUE: epic_internal_filter:x_filt <- 0
	#DEBUG_VALUE: epic_internal_filter:y_stop <- [RBP+-320]
	#DEBUG_VALUE: epic_internal_filter:last_ctr_row <- [RBP+-224]
	#DEBUG_VALUE: epic_internal_filter:ygrid_step_full <- [RBP+-240]
	#DEBUG_VALUE: epic_internal_filter:first_row <- [RBP+-296]
	movl	$1, %esi
	movabsq	$3537126353311440660, %rdi # imm = 0x311665AD86CD1F14
	callq	_KExitRegion
	movl	$207, %r12d
	movl	$207, %edi
	callq	_KPushCDep
	movl	$2, %edi
	callq	_KWork
	movq	-128(%rbp), %rax        # 8-byte Reload
	cmpq	%rax, %r13
	cmovgeq	%r13, %rax
	movq	%rax, -128(%rbp)        # 8-byte Spill
	.loc	1 889 7 is_stmt 1       # epic.c:889:7
.Ltmp212:
	movq	-120(%rbp), %rax        # 8-byte Reload
	addl	%eax, -136(%rbp)        # 4-byte Folded Spill
	addq	-88(%rbp), %r13         # 8-byte Folded Reload
	movq	%r13, -80(%rbp)         # 8-byte Spill
	movl	$1, (%rsp)
	movl	$212, %r15d
	movl	$212, %edi
	movl	$203, %esi
	movl	$1, %edx
	movl	$211, %ecx
	movl	$1, %r8d
	movl	$207, %r9d
	callq	_KTimestamp3
	movl	$1, (%rsp)
	movl	$209, -48(%rbp)         # 4-byte Folded Spill
	movl	$209, %edi
	movl	$1, %esi
	movl	$1, %edx
	movl	$208, %ecx
	movl	$1, %r8d
	movl	$207, %r9d
	callq	_KTimestamp3
	movl	$1, (%rsp)
	movl	$204, %ebx
	movl	$204, %edi
	movl	$205, %esi
	movl	$1, %edx
	movl	$203, %ecx
	movl	$1, %r8d
	movl	$207, %r9d
	callq	_KTimestamp3
	callq	_KPopCDep
	movl	$2, %esi
	movabsq	$-4199072602760740113, %rdi # imm = 0xC5B9E5B7265F02EF
	callq	_KExitRegion
	movl	$210, %r13d
.LBB3_47:                               # %for.cond153
                                        #   Parent Loop BB3_43 Depth=1
                                        #     Parent Loop BB3_45 Depth=2
                                        # =>    This Loop Header: Depth=3
                                        #         Child Loop BB3_49 Depth 4
	#DEBUG_VALUE: epic_internal_filter:image <- [RBP+-112]
	#DEBUG_VALUE: epic_internal_filter:x_dim <- [RBP+-120]
	#DEBUG_VALUE: epic_internal_filter:y_dim <- [RBP+-260]
	#DEBUG_VALUE: epic_internal_filter:filt <- [RBP+-168]
	#DEBUG_VALUE: epic_internal_filter:temp <- [RBP+-104]
	#DEBUG_VALUE: epic_internal_filter:x_fdim <- [RBP+-156]
	#DEBUG_VALUE: epic_internal_filter:xgrid_start <- [RBP+24]
	#DEBUG_VALUE: epic_internal_filter:ygrid_start <- [RBP+40]
	#DEBUG_VALUE: epic_internal_filter:y_filt_lin <- [RBP+-156]
	#DEBUG_VALUE: epic_internal_filter:result <- [RBP+-328]
	#DEBUG_VALUE: epic_internal_filter:ygrid_step <- undef
	#DEBUG_VALUE: epic_internal_filter:xgrid_step <- [RBP+-304]
	#DEBUG_VALUE: epic_internal_filter:y_fdim <- undef
	#DEBUG_VALUE: epic_internal_filter:last_ctr_col <- [RBP+-172]
	#DEBUG_VALUE: epic_internal_filter:x_stop <- [RBP+-228]
	#DEBUG_VALUE: epic_internal_filter:x_pos <- [RBP+-216]
	#DEBUG_VALUE: epic_internal_filter:y_pos <- [RBP+-296]
	#DEBUG_VALUE: epic_internal_filter:sum <- 0.000000e+00
	#DEBUG_VALUE: epic_internal_filter:y_im_lin <- [RBP+-184]
	#DEBUG_VALUE: epic_internal_filter:x_filt <- 0
	#DEBUG_VALUE: epic_internal_filter:y_stop <- [RBP+-320]
	#DEBUG_VALUE: epic_internal_filter:last_ctr_row <- [RBP+-224]
	#DEBUG_VALUE: epic_internal_filter:ygrid_step_full <- [RBP+-240]
	#DEBUG_VALUE: epic_internal_filter:first_row <- [RBP+-296]
	movl	$199, %edi
	callq	_KPushCDep
	movl	$211, %edi
	movl	$199, %edx
	movl	%r15d, %esi
	movl	%r12d, %ecx
	callq	_KPhi2To1
	movl	$37, %edi
	movl	$199, %edx
	movl	%r13d, %esi
	movl	%r12d, %ecx
	callq	_KPhi2To1
	movl	$208, %edi
	movl	$199, %edx
	movl	-48(%rbp), %esi         # 4-byte Reload
	movl	%r12d, %ecx
	callq	_KPhi2To1
	movl	$203, %edi
	movl	$199, %edx
	movl	%ebx, %esi
	movl	%r12d, %ecx
	callq	_KPhi2To1
	movl	$1, %edi
	callq	_KWork
	movl	$37, %edi
	movl	$37, %esi
	xorl	%edx, %edx
	callq	_KTimestamp1
	movl	$215, %edi
	movl	$199, %esi
	xorl	%edx, %edx
	movl	$208, %ecx
	xorl	%r8d, %r8d
	callq	_KTimestamp2
	movl	$1, (%rsp)
	movl	$207, %edi
	movl	$199, %esi
	movl	$1, %edx
	movl	$206, %ecx
	movl	$1, %r8d
	movl	$203, %r9d
	callq	_KTimestamp3
	movl	$211, %edi
	movl	$207, %esi
	callq	_KPhiAddCond
	movl	$211, %edi
	movl	$211, %esi
	xorl	%edx, %edx
	callq	_KTimestamp1
	movl	$37, %edi
	movl	$207, %esi
	callq	_KPhiAddCond
	movl	$208, %edi
	movl	$207, %esi
	callq	_KPhiAddCond
	movl	$208, %edi
	movl	$208, %esi
	xorl	%edx, %edx
	callq	_KTimestamp1
	movl	$203, %edi
	movl	$207, %esi
	callq	_KPhiAddCond
	movl	$203, %edi
	movl	$203, %esi
	xorl	%edx, %edx
	callq	_KTimestamp1
	callq	_KPopCDep
	movq	-80(%rbp), %rax         # 8-byte Reload
	.loc	1 889 34 is_stmt 0      # epic.c:889:34
	cmpq	-96(%rbp), %rax         # 8-byte Folded Reload
.Ltmp213:
	.loc	1 889 7                 # epic.c:889:7
	jg	.LBB3_52
# BB#48:                                # %for.body155
                                        #   in Loop: Header=BB3_47 Depth=3
	#DEBUG_VALUE: epic_internal_filter:image <- [RBP+-112]
	#DEBUG_VALUE: epic_internal_filter:x_dim <- [RBP+-120]
	#DEBUG_VALUE: epic_internal_filter:y_dim <- [RBP+-260]
	#DEBUG_VALUE: epic_internal_filter:filt <- [RBP+-168]
	#DEBUG_VALUE: epic_internal_filter:temp <- [RBP+-104]
	#DEBUG_VALUE: epic_internal_filter:x_fdim <- [RBP+-156]
	#DEBUG_VALUE: epic_internal_filter:xgrid_start <- [RBP+24]
	#DEBUG_VALUE: epic_internal_filter:ygrid_start <- [RBP+40]
	#DEBUG_VALUE: epic_internal_filter:y_filt_lin <- [RBP+-156]
	#DEBUG_VALUE: epic_internal_filter:result <- [RBP+-328]
	#DEBUG_VALUE: epic_internal_filter:ygrid_step <- undef
	#DEBUG_VALUE: epic_internal_filter:xgrid_step <- [RBP+-304]
	#DEBUG_VALUE: epic_internal_filter:y_fdim <- undef
	#DEBUG_VALUE: epic_internal_filter:last_ctr_col <- [RBP+-172]
	#DEBUG_VALUE: epic_internal_filter:x_stop <- [RBP+-228]
	#DEBUG_VALUE: epic_internal_filter:x_pos <- [RBP+-216]
	#DEBUG_VALUE: epic_internal_filter:y_pos <- [RBP+-296]
	#DEBUG_VALUE: epic_internal_filter:sum <- 0.000000e+00
	#DEBUG_VALUE: epic_internal_filter:y_im_lin <- [RBP+-184]
	#DEBUG_VALUE: epic_internal_filter:x_filt <- 0
	#DEBUG_VALUE: epic_internal_filter:y_stop <- [RBP+-320]
	#DEBUG_VALUE: epic_internal_filter:last_ctr_row <- [RBP+-224]
	#DEBUG_VALUE: epic_internal_filter:ygrid_step_full <- [RBP+-240]
	#DEBUG_VALUE: epic_internal_filter:first_row <- [RBP+-296]
	movslq	-136(%rbp), %rax        # 4-byte Folded Reload
	movq	-112(%rbp), %rcx        # 8-byte Reload
	leaq	(%rcx,%rax,4), %rax
	movq	%rax, -64(%rbp)         # 8-byte Spill
	movl	$2, %esi
	movabsq	$-4199072602760740113, %rdi # imm = 0xC5B9E5B7265F02EF
	callq	_KEnterRegion
	movl	$207, %edi
	callq	_KPushCDep
	movl	$1, %edi
	callq	_KWork
	movq	-128(%rbp), %r13        # 8-byte Reload
	movslq	%r13d, %r13
	movq	%r13, -128(%rbp)        # 8-byte Spill
	xorl	%r12d, %r12d
	movl	$217, %edi
	movl	$211, %esi
	xorl	%edx, %edx
	movl	$207, %ecx
	xorl	%r8d, %r8d
	callq	_KTimestamp2
	callq	_KPopCDep
	movl	$1, %esi
	movabsq	$3537126353311440660, %rdi # imm = 0x311665AD86CD1F14
	callq	_KEnterRegion
	movq	-104(%rbp), %rax        # 8-byte Reload
	leaq	(%rax,%r13,4), %r15
	movl	$215, -56(%rbp)         # 4-byte Folded Spill
	movq	%r13, -48(%rbp)         # 8-byte Spill
	movl	$37, %ebx
	movl	$217, %r13d
	jmp	.LBB3_49
	.align	16, 0x90
.LBB3_50:                               # %for.body159
                                        #   in Loop: Header=BB3_49 Depth=4
	#DEBUG_VALUE: epic_internal_filter:image <- [RBP+-112]
	#DEBUG_VALUE: epic_internal_filter:x_dim <- [RBP+-120]
	#DEBUG_VALUE: epic_internal_filter:y_dim <- [RBP+-260]
	#DEBUG_VALUE: epic_internal_filter:filt <- [RBP+-168]
	#DEBUG_VALUE: epic_internal_filter:temp <- [RBP+-104]
	#DEBUG_VALUE: epic_internal_filter:x_fdim <- [RBP+-156]
	#DEBUG_VALUE: epic_internal_filter:xgrid_start <- [RBP+24]
	#DEBUG_VALUE: epic_internal_filter:ygrid_start <- [RBP+40]
	#DEBUG_VALUE: epic_internal_filter:y_filt_lin <- [RBP+-156]
	#DEBUG_VALUE: epic_internal_filter:result <- [RBP+-328]
	#DEBUG_VALUE: epic_internal_filter:ygrid_step <- undef
	#DEBUG_VALUE: epic_internal_filter:xgrid_step <- [RBP+-304]
	#DEBUG_VALUE: epic_internal_filter:y_fdim <- undef
	#DEBUG_VALUE: epic_internal_filter:last_ctr_col <- [RBP+-172]
	#DEBUG_VALUE: epic_internal_filter:x_stop <- [RBP+-228]
	#DEBUG_VALUE: epic_internal_filter:x_pos <- [RBP+-216]
	#DEBUG_VALUE: epic_internal_filter:y_pos <- [RBP+-296]
	#DEBUG_VALUE: epic_internal_filter:sum <- 0.000000e+00
	#DEBUG_VALUE: epic_internal_filter:y_im_lin <- [RBP+-184]
	#DEBUG_VALUE: epic_internal_filter:x_filt <- 0
	#DEBUG_VALUE: epic_internal_filter:y_stop <- [RBP+-320]
	#DEBUG_VALUE: epic_internal_filter:last_ctr_row <- [RBP+-224]
	#DEBUG_VALUE: epic_internal_filter:ygrid_step_full <- [RBP+-240]
	#DEBUG_VALUE: epic_internal_filter:first_row <- [RBP+-296]
	movl	$2, %esi
	movq	%r14, %rdi
	callq	_KEnterRegion
	movl	$214, %r12d
	movl	$214, %edi
	callq	_KPushCDep
	movl	$17, %edi
	callq	_KWork
	movl	$33, %esi
	movl	$34, %edx
	movl	$4, %ecx
	movq	-64(%rbp), %r13         # 8-byte Reload
	movq	%r13, %rdi
	callq	_KLoad1
	.loc	1 894 18 is_stmt 1      # epic.c:894:18
.Ltmp214:
	movss	(%r13), %xmm0
	movss	%xmm0, -56(%rbp)        # 4-byte Spill
	movl	$35, %esi
	movl	$36, %edx
	movl	$4, %ecx
	movq	%r15, %rdi
	callq	_KLoad1
	movss	-56(%rbp), %xmm1        # 4-byte Reload
	mulss	(%r15), %xmm1
	.loc	1 894 11 is_stmt 0      # epic.c:894:11
	movss	-68(%rbp), %xmm0        # 4-byte Reload
	addss	%xmm1, %xmm0
.Ltmp215:
	#DEBUG_VALUE: epic_internal_filter:sum <- [RBP+-68]
	.loc	1 893 9 is_stmt 1       # epic.c:893:9
	movss	%xmm0, -68(%rbp)        # 4-byte Spill
	incq	%rbx
	movq	%rbx, -48(%rbp)         # 8-byte Spill
	movl	$7, 16(%rsp)
	movl	$35, 8(%rsp)
	movl	$7, (%rsp)
	movl	$218, %edi
	movl	$210, %esi
	movl	$2, %edx
	movl	$214, %ecx
	movl	$7, %r8d
	movl	$33, %r9d
	callq	_KTimestamp4
	movl	$216, %edi
	movl	$36, %esi
	movl	$1, %edx
	movl	$214, %ecx
	movl	$1, %r8d
	callq	_KTimestamp2
	movl	$213, -56(%rbp)         # 4-byte Folded Spill
	movl	$213, %edi
	movl	$34, %esi
	movl	$1, %edx
	movl	$214, %ecx
	movl	$1, %r8d
	callq	_KTimestamp2
	callq	_KPopCDep
	movl	$2, %esi
	movq	%r14, %rdi
	callq	_KExitRegion
	addq	$4, %r13
	movq	%r13, -64(%rbp)         # 8-byte Spill
	movl	$218, %ebx
	movl	$216, %r13d
	addq	$4, %r15
.Ltmp216:
.LBB3_49:                               # %for.cond157
                                        #   Parent Loop BB3_43 Depth=1
                                        #     Parent Loop BB3_45 Depth=2
                                        #       Parent Loop BB3_47 Depth=3
                                        # =>      This Inner Loop Header: Depth=4
	#DEBUG_VALUE: epic_internal_filter:image <- [RBP+-112]
	#DEBUG_VALUE: epic_internal_filter:x_dim <- [RBP+-120]
	#DEBUG_VALUE: epic_internal_filter:y_dim <- [RBP+-260]
	#DEBUG_VALUE: epic_internal_filter:filt <- [RBP+-168]
	#DEBUG_VALUE: epic_internal_filter:temp <- [RBP+-104]
	#DEBUG_VALUE: epic_internal_filter:x_fdim <- [RBP+-156]
	#DEBUG_VALUE: epic_internal_filter:xgrid_start <- [RBP+24]
	#DEBUG_VALUE: epic_internal_filter:ygrid_start <- [RBP+40]
	#DEBUG_VALUE: epic_internal_filter:y_filt_lin <- [RBP+-156]
	#DEBUG_VALUE: epic_internal_filter:result <- [RBP+-328]
	#DEBUG_VALUE: epic_internal_filter:ygrid_step <- undef
	#DEBUG_VALUE: epic_internal_filter:xgrid_step <- [RBP+-304]
	#DEBUG_VALUE: epic_internal_filter:y_fdim <- undef
	#DEBUG_VALUE: epic_internal_filter:last_ctr_col <- [RBP+-172]
	#DEBUG_VALUE: epic_internal_filter:x_stop <- [RBP+-228]
	#DEBUG_VALUE: epic_internal_filter:x_pos <- [RBP+-216]
	#DEBUG_VALUE: epic_internal_filter:y_pos <- [RBP+-296]
	#DEBUG_VALUE: epic_internal_filter:sum <- 0.000000e+00
	#DEBUG_VALUE: epic_internal_filter:y_im_lin <- [RBP+-184]
	#DEBUG_VALUE: epic_internal_filter:x_filt <- 0
	#DEBUG_VALUE: epic_internal_filter:y_stop <- [RBP+-320]
	#DEBUG_VALUE: epic_internal_filter:last_ctr_row <- [RBP+-224]
	#DEBUG_VALUE: epic_internal_filter:ygrid_step_full <- [RBP+-240]
	#DEBUG_VALUE: epic_internal_filter:first_row <- [RBP+-296]
	movl	$207, %edi
	callq	_KPushCDep
	movl	$210, %edi
	movl	$207, %edx
	movl	%ebx, %esi
	movl	%r12d, %ecx
	callq	_KPhi2To1
	movl	$36, %edi
	movl	$207, %edx
	movl	%r13d, %esi
	movl	%r12d, %ecx
	callq	_KPhi2To1
	movl	$34, %edi
	movl	$207, %edx
	movl	-56(%rbp), %esi         # 4-byte Reload
	movl	%r12d, %ecx
	callq	_KPhi2To1
	movl	$1, %edi
	callq	_KWork
	movl	$1, (%rsp)
	movl	$214, %edi
	movl	$203, %esi
	movl	$1, %edx
	movl	$207, %ecx
	movl	$1, %r8d
	movl	$36, %r9d
	callq	_KTimestamp3
	movl	$210, %edi
	movl	$214, %esi
	callq	_KPhiAddCond
	movl	$36, %edi
	movl	$214, %esi
	callq	_KPhiAddCond
	movl	$36, %edi
	movl	$36, %esi
	xorl	%edx, %edx
	callq	_KTimestamp1
	movl	$34, %edi
	movl	$214, %esi
	callq	_KPhiAddCond
	movl	$34, %edi
	movl	$34, %esi
	xorl	%edx, %edx
	callq	_KTimestamp1
	movl	$210, %edi
	movl	$210, %esi
	xorl	%edx, %edx
	callq	_KTimestamp1
	callq	_KPopCDep
	movq	-80(%rbp), %r13         # 8-byte Reload
	movq	-48(%rbp), %rbx         # 8-byte Reload
	.loc	1 893 9 is_stmt 0       # epic.c:893:9
	cmpq	%r13, %rbx
	jl	.LBB3_50
	jmp	.LBB3_51
.Ltmp217:
.LBB3_54:                               # %for.cond147.pre_exit.for.end183
	#DEBUG_VALUE: epic_internal_filter:image <- [RBP+-112]
	#DEBUG_VALUE: epic_internal_filter:x_dim <- [RBP+-120]
	#DEBUG_VALUE: epic_internal_filter:y_dim <- [RBP+-260]
	#DEBUG_VALUE: epic_internal_filter:filt <- [RBP+-168]
	#DEBUG_VALUE: epic_internal_filter:temp <- [RBP+-104]
	#DEBUG_VALUE: epic_internal_filter:x_fdim <- [RBP+-156]
	#DEBUG_VALUE: epic_internal_filter:xgrid_start <- [RBP+24]
	#DEBUG_VALUE: epic_internal_filter:ygrid_start <- [RBP+40]
	#DEBUG_VALUE: epic_internal_filter:y_filt_lin <- [RBP+-156]
	#DEBUG_VALUE: epic_internal_filter:result <- [RBP+-328]
	#DEBUG_VALUE: epic_internal_filter:ygrid_step <- undef
	#DEBUG_VALUE: epic_internal_filter:xgrid_step <- [RBP+-304]
	#DEBUG_VALUE: epic_internal_filter:y_fdim <- undef
	#DEBUG_VALUE: epic_internal_filter:last_ctr_col <- [RBP+-172]
	#DEBUG_VALUE: epic_internal_filter:x_stop <- [RBP+-228]
	#DEBUG_VALUE: epic_internal_filter:x_pos <- [RBP+-216]
	#DEBUG_VALUE: epic_internal_filter:y_pos <- [RBP+-296]
	#DEBUG_VALUE: epic_internal_filter:y_im_lin <- [RBP+-184]
	#DEBUG_VALUE: epic_internal_filter:y_stop <- [RBP+-320]
	#DEBUG_VALUE: epic_internal_filter:last_ctr_row <- [RBP+-224]
	#DEBUG_VALUE: epic_internal_filter:ygrid_step_full <- [RBP+-240]
	#DEBUG_VALUE: epic_internal_filter:first_row <- [RBP+-296]
	movl	$1, %esi
	movabsq	$2276875434527849140, %rdi # imm = 0x1F991624F0D87AB4
	callq	_KExitRegion
	movl	$8, %edi
	callq	_KWork
	movl	-192(%rbp), %r14d       # 4-byte Reload
	.loc	1 906 9 is_stmt 1       # epic.c:906:9
.Ltmp218:
	addl	-284(%rbp), %r14d       # 4-byte Folded Reload
.Ltmp219:
	#DEBUG_VALUE: epic_internal_filter:x_pos <- R14D
	movq	-200(%rbp), %rcx        # 8-byte Reload
	addl	$2, %ecx
	movq	-120(%rbp), %rax        # 8-byte Reload
	imull	%eax, %ecx
	subl	-156(%rbp), %ecx        # 4-byte Folded Reload
	movq	%rcx, -200(%rbp)        # 8-byte Spill
	movq	-208(%rbp), %rax        # 8-byte Reload
	cltq
	movq	%rax, -256(%rbp)        # 8-byte Spill
	movl	$241, %edi
	movl	$3, %esi
	movl	$2, %edx
	movl	$4, %ecx
	movl	$2, %r8d
	callq	_KTimestamp2
	xorl	%ebx, %ebx
	movl	$240, %edi
	movl	$3, %esi
	xorl	%edx, %edx
	callq	_KTimestamp1
	movl	$4, (%rsp)
	movl	$236, %edi
	movl	$1, %esi
	movl	$3, %edx
	movl	$3, %ecx
	movl	$1, %r8d
	movl	$10, %r9d
	callq	_KTimestamp3
	movl	$235, %edi
	movl	$1, %esi
	movl	$2, %edx
	movl	$8, %ecx
	movl	$2, %r8d
	callq	_KTimestamp2
	movl	$12, (%rsp)
	movl	$231, %edi
	movl	$1, %esi
	movl	$13, %edx
	movl	$5, %ecx
	movl	$13, %r8d
	movl	$6, %r9d
	callq	_KTimestamp3
	movl	$1, (%rsp)
	movl	$223, -48(%rbp)         # 4-byte Folded Spill
	movl	$223, %edi
	movl	$1, %esi
	movl	$3, %edx
	movl	$3, %ecx
	movl	$3, %r8d
	movl	$192, %r9d
	callq	_KTimestamp3
	movl	$222, -56(%rbp)         # 4-byte Folded Spill
	movl	$222, %edi
	movl	$71, %esi
	xorl	%edx, %edx
	callq	_KTimestamp1
	movl	$1, %esi
	movabsq	$-5689511508155985583, %rdi # imm = 0xB10ACB6D7ADD9151
	callq	_KEnterRegion
	movl	$195, %r15d
	movl	$186, %r13d
	movabsq	$-4341216838923716891, %r12 # imm = 0xC3C0E6492701F6E5
	jmp	.LBB3_55
.Ltmp220:
	.align	16, 0x90
.LBB3_65:                               # %for.cond189.pre_exit.for.end218
                                        #   in Loop: Header=BB3_55 Depth=1
	#DEBUG_VALUE: epic_internal_filter:image <- [RBP+-112]
	#DEBUG_VALUE: epic_internal_filter:x_dim <- [RBP+-120]
	#DEBUG_VALUE: epic_internal_filter:y_dim <- [RBP+-260]
	#DEBUG_VALUE: epic_internal_filter:filt <- [RBP+-168]
	#DEBUG_VALUE: epic_internal_filter:temp <- [RBP+-104]
	#DEBUG_VALUE: epic_internal_filter:x_fdim <- [RBP+-156]
	#DEBUG_VALUE: epic_internal_filter:xgrid_start <- [RBP+24]
	#DEBUG_VALUE: epic_internal_filter:ygrid_start <- [RBP+40]
	#DEBUG_VALUE: epic_internal_filter:y_filt_lin <- [RBP+-156]
	#DEBUG_VALUE: epic_internal_filter:result <- [RBP+-328]
	#DEBUG_VALUE: epic_internal_filter:ygrid_step <- undef
	#DEBUG_VALUE: epic_internal_filter:xgrid_step <- [RBP+-304]
	#DEBUG_VALUE: epic_internal_filter:y_fdim <- undef
	#DEBUG_VALUE: epic_internal_filter:last_ctr_col <- [RBP+-172]
	#DEBUG_VALUE: epic_internal_filter:x_stop <- [RBP+-228]
	#DEBUG_VALUE: epic_internal_filter:y_pos <- [RBP+-296]
	#DEBUG_VALUE: epic_internal_filter:y_im_lin <- [RBP+-184]
	#DEBUG_VALUE: epic_internal_filter:y_stop <- [RBP+-320]
	#DEBUG_VALUE: epic_internal_filter:last_ctr_row <- [RBP+-224]
	#DEBUG_VALUE: epic_internal_filter:ygrid_step_full <- [RBP+-240]
	#DEBUG_VALUE: epic_internal_filter:first_row <- [RBP+-296]
	movl	$1, %esi
	movabsq	$2282989721598266355, %rdi # imm = 0x1FAECF0E55BB8BF3
	callq	_KExitRegion
	movl	$221, %ebx
	movl	$221, %edi
	callq	_KPushCDep
	movl	$2, %edi
	callq	_KWork
	movl	32(%rbp), %eax
	movl	-192(%rbp), %r14d       # 4-byte Reload
	.loc	1 908 9                 # epic.c:908:9
.Ltmp221:
	addl	%eax, %r14d
.Ltmp222:
	#DEBUG_VALUE: epic_internal_filter:x_pos <- R14D
	.loc	1 906 3                 # epic.c:906:3
	incq	-256(%rbp)              # 8-byte Folded Spill
	movl	$228, %r15d
	movl	$228, %edi
	movl	$221, %esi
	xorl	%edx, %edx
	movl	$229, %ecx
	xorl	%r8d, %r8d
	callq	_KTimestamp2
	movl	$1, (%rsp)
	movl	$224, -48(%rbp)         # 4-byte Folded Spill
	movl	$224, %edi
	movl	$6, %esi
	movl	$1, %edx
	movl	$38, %ecx
	movl	$1, %r8d
	movl	$221, %r9d
	callq	_KTimestamp3
	movl	$220, -56(%rbp)         # 4-byte Folded Spill
	movl	$220, %edi
	movl	$219, %esi
	movl	$1, %edx
	movl	$221, %ecx
	movl	$1, %r8d
	callq	_KTimestamp2
	callq	_KPopCDep
	movl	$2, %esi
	movabsq	$-3703301952539640944, %rdi # imm = 0xCC9B3A7EBEDD3B90
	callq	_KExitRegion
	movl	$226, %r13d
.Ltmp223:
.LBB3_55:                               # %for.cond186
                                        # =>This Loop Header: Depth=1
                                        #     Child Loop BB3_57 Depth 2
                                        #       Child Loop BB3_59 Depth 3
                                        #         Child Loop BB3_61 Depth 4
	#DEBUG_VALUE: epic_internal_filter:image <- [RBP+-112]
	#DEBUG_VALUE: epic_internal_filter:x_dim <- [RBP+-120]
	#DEBUG_VALUE: epic_internal_filter:y_dim <- [RBP+-260]
	#DEBUG_VALUE: epic_internal_filter:filt <- [RBP+-168]
	#DEBUG_VALUE: epic_internal_filter:temp <- [RBP+-104]
	#DEBUG_VALUE: epic_internal_filter:x_fdim <- [RBP+-156]
	#DEBUG_VALUE: epic_internal_filter:xgrid_start <- [RBP+24]
	#DEBUG_VALUE: epic_internal_filter:ygrid_start <- [RBP+40]
	#DEBUG_VALUE: epic_internal_filter:y_filt_lin <- [RBP+-156]
	#DEBUG_VALUE: epic_internal_filter:result <- [RBP+-328]
	#DEBUG_VALUE: epic_internal_filter:ygrid_step <- undef
	#DEBUG_VALUE: epic_internal_filter:xgrid_step <- [RBP+-304]
	#DEBUG_VALUE: epic_internal_filter:y_fdim <- undef
	#DEBUG_VALUE: epic_internal_filter:last_ctr_col <- [RBP+-172]
	#DEBUG_VALUE: epic_internal_filter:x_stop <- [RBP+-228]
	#DEBUG_VALUE: epic_internal_filter:y_pos <- [RBP+-296]
	#DEBUG_VALUE: epic_internal_filter:y_stop <- [RBP+-320]
	#DEBUG_VALUE: epic_internal_filter:last_ctr_row <- [RBP+-224]
	#DEBUG_VALUE: epic_internal_filter:ygrid_step_full <- [RBP+-240]
	#DEBUG_VALUE: epic_internal_filter:first_row <- [RBP+-296]
	movl	$227, %edi
	movl	%r15d, %esi
	movl	%ebx, %edx
	callq	_KPhi1To1
	movl	$38, %edi
	movl	-48(%rbp), %esi         # 4-byte Reload
	movl	%ebx, %edx
	callq	_KPhi1To1
	movl	$225, %edi
	movl	%r13d, %esi
	movl	%ebx, %edx
	callq	_KPhi1To1
	movl	$219, %edi
	movl	-56(%rbp), %esi         # 4-byte Reload
	movl	%ebx, %edx
	callq	_KPhi1To1
	movl	$1, %edi
	callq	_KWork
	movl	$38, %edi
	movl	$38, %esi
	xorl	%edx, %edx
	callq	_KTimestamp1
	movl	$221, %edi
	movl	$121, %esi
	movl	$1, %edx
	movl	$38, %ecx
	movl	$1, %r8d
	callq	_KTimestamp2
	movl	$227, %edi
	movl	$221, %esi
	callq	_KPhiAddCond
	movl	$225, %edi
	movl	$221, %esi
	callq	_KPhiAddCond
	movl	$38, %edi
	movl	$221, %esi
	callq	_KPhiAddCond
	movl	$219, %edi
	movl	$221, %esi
	callq	_KPhiAddCond
	movl	$219, %edi
	movl	$219, %esi
	xorl	%edx, %edx
	callq	_KTimestamp1
	.loc	1 906 3 is_stmt 0       # epic.c:906:3
	cmpl	-228(%rbp), %r14d       # 4-byte Folded Reload
	jge	.LBB3_66
# BB#56:                                # %for.body188
                                        #   in Loop: Header=BB3_55 Depth=1
	#DEBUG_VALUE: epic_internal_filter:image <- [RBP+-112]
	#DEBUG_VALUE: epic_internal_filter:x_dim <- [RBP+-120]
	#DEBUG_VALUE: epic_internal_filter:y_dim <- [RBP+-260]
	#DEBUG_VALUE: epic_internal_filter:filt <- [RBP+-168]
	#DEBUG_VALUE: epic_internal_filter:temp <- [RBP+-104]
	#DEBUG_VALUE: epic_internal_filter:x_fdim <- [RBP+-156]
	#DEBUG_VALUE: epic_internal_filter:xgrid_start <- [RBP+24]
	#DEBUG_VALUE: epic_internal_filter:ygrid_start <- [RBP+40]
	#DEBUG_VALUE: epic_internal_filter:y_filt_lin <- [RBP+-156]
	#DEBUG_VALUE: epic_internal_filter:result <- [RBP+-328]
	#DEBUG_VALUE: epic_internal_filter:ygrid_step <- undef
	#DEBUG_VALUE: epic_internal_filter:xgrid_step <- [RBP+-304]
	#DEBUG_VALUE: epic_internal_filter:y_fdim <- undef
	#DEBUG_VALUE: epic_internal_filter:last_ctr_col <- [RBP+-172]
	#DEBUG_VALUE: epic_internal_filter:x_stop <- [RBP+-228]
	#DEBUG_VALUE: epic_internal_filter:y_pos <- [RBP+-296]
	#DEBUG_VALUE: epic_internal_filter:y_stop <- [RBP+-320]
	#DEBUG_VALUE: epic_internal_filter:last_ctr_row <- [RBP+-224]
	#DEBUG_VALUE: epic_internal_filter:ygrid_step_full <- [RBP+-240]
	#DEBUG_VALUE: epic_internal_filter:first_row <- [RBP+-296]
	movl	$2, %esi
	movabsq	$-3703301952539640944, %rdi # imm = 0xCC9B3A7EBEDD3B90
	callq	_KEnterRegion
	movl	$221, %edi
	callq	_KPushCDep
	xorl	%r15d, %r15d
	xorl	%esi, %esi
	movabsq	$-3824052066010718896, %rdi # imm = 0xCAEE3CE81AD51D50
	callq	_KPrepCall
	callq	_KEnqArgConst
	callq	_KEnqArgConst
	movl	$38, %edi
	callq	_KEnqArg
	movl	$4, %edi
	callq	_KEnqArg
	movl	$3, %edi
	callq	_KEnqArg
	.loc	1 910 5 is_stmt 1       # epic.c:910:5
.Ltmp224:
	movl	$0, (%rsp)
	xorl	%r8d, %r8d
	movq	-168(%rbp), %rdi        # 8-byte Reload
	movl	-156(%rbp), %esi        # 4-byte Reload
	movl	16(%rbp), %edx
                                        # kill: EDX<def> EDX<kill> RDX<kill>
	movl	%r14d, %ecx
	movl	%r14d, -192(%rbp)       # 4-byte Spill
	movq	-104(%rbp), %r9         # 8-byte Reload
	callq	epic_reflect1
	callq	_KPopCDep
	movl	$1, %esi
	movabsq	$2282989721598266355, %rdi # imm = 0x1FAECF0E55BB8BF3
	callq	_KEnterRegion
	movl	$163, -48(%rbp)         # 4-byte Folded Spill
	movl	$236, %r14d
	movl	$219, %ebx
	movq	-256(%rbp), %rax        # 8-byte Reload
	movq	%rax, -152(%rbp)        # 8-byte Spill
	movq	-200(%rbp), %rax        # 8-byte Reload
                                        # kill: EAX<def> EAX<kill> RAX<kill>
	movl	%eax, -208(%rbp)        # 4-byte Spill
	movq	-296(%rbp), %rax        # 8-byte Reload
	movl	%eax, %r13d
	jmp	.LBB3_57
	.align	16, 0x90
.LBB3_64:                               # %for.cond192.pre_exit.for.end212
                                        #   in Loop: Header=BB3_57 Depth=2
	#DEBUG_VALUE: epic_internal_filter:image <- [RBP+-112]
	#DEBUG_VALUE: epic_internal_filter:x_dim <- [RBP+-120]
	#DEBUG_VALUE: epic_internal_filter:y_dim <- [RBP+-260]
	#DEBUG_VALUE: epic_internal_filter:filt <- [RBP+-168]
	#DEBUG_VALUE: epic_internal_filter:temp <- [RBP+-104]
	#DEBUG_VALUE: epic_internal_filter:x_fdim <- [RBP+-156]
	#DEBUG_VALUE: epic_internal_filter:xgrid_start <- [RBP+24]
	#DEBUG_VALUE: epic_internal_filter:ygrid_start <- [RBP+40]
	#DEBUG_VALUE: epic_internal_filter:y_filt_lin <- [RBP+-156]
	#DEBUG_VALUE: epic_internal_filter:result <- [RBP+-328]
	#DEBUG_VALUE: epic_internal_filter:ygrid_step <- undef
	#DEBUG_VALUE: epic_internal_filter:xgrid_step <- [RBP+-304]
	#DEBUG_VALUE: epic_internal_filter:y_fdim <- undef
	#DEBUG_VALUE: epic_internal_filter:last_ctr_col <- [RBP+-172]
	#DEBUG_VALUE: epic_internal_filter:x_stop <- [RBP+-228]
	#DEBUG_VALUE: epic_internal_filter:y_pos <- [RBP+-296]
	#DEBUG_VALUE: epic_internal_filter:sum <- 0.000000e+00
	#DEBUG_VALUE: epic_internal_filter:y_im_lin <- [RBP+-184]
	#DEBUG_VALUE: epic_internal_filter:x_filt <- 0
	#DEBUG_VALUE: epic_internal_filter:y_stop <- [RBP+-320]
	#DEBUG_VALUE: epic_internal_filter:last_ctr_row <- [RBP+-224]
	#DEBUG_VALUE: epic_internal_filter:ygrid_step_full <- [RBP+-240]
	#DEBUG_VALUE: epic_internal_filter:first_row <- [RBP+-296]
	movl	$1, %esi
	movabsq	$-8790765946490310280, %rdi # imm = 0x8600ECF277D83178
	callq	_KExitRegion
	movl	$232, %r15d
	movl	$232, %edi
	callq	_KPushCDep
	movl	$4, %edi
	callq	_KWork
	movq	56(%rbp), %rax
	movq	%rax, %r14
.Ltmp225:
	#DEBUG_VALUE: epic_internal_filter:result <- R14
	movq	-152(%rbp), %rbx        # 8-byte Reload
	.loc	1 929 7                 # epic.c:929:7
.Ltmp226:
	leaq	(%r14,%rbx,4), %rsi
	movl	$43, %edi
	movl	$4, %edx
	callq	_KStore
	movss	-68(%rbp), %xmm0        # 4-byte Reload
	movss	%xmm0, (%r14,%rbx,4)
.Ltmp227:
	#DEBUG_VALUE: epic_internal_filter:result <- [RBP+-328]
	movl	-240(%rbp), %eax        # 4-byte Reload
.Ltmp228:
	#DEBUG_VALUE: epic_internal_filter:ygrid_step_full <- EAX
	movl	-184(%rbp), %r13d       # 4-byte Reload
.Ltmp229:
	#DEBUG_VALUE: epic_internal_filter:y_im_lin <- R13D
	.loc	1 913 11                # epic.c:913:11
	addl	%eax, %r13d
.Ltmp230:
	#DEBUG_VALUE: epic_internal_filter:y_pos <- R13D
	.loc	1 912 5                 # epic.c:912:5
	addl	%eax, -208(%rbp)        # 4-byte Folded Spill
.Ltmp231:
	#DEBUG_VALUE: epic_internal_filter:ygrid_step_full <- [RBP+-240]
	addq	-248(%rbp), %rbx        # 8-byte Folded Reload
	movq	%rbx, -152(%rbp)        # 8-byte Spill
	movl	$1, (%rsp)
	movl	$237, -48(%rbp)         # 4-byte Folded Spill
	movl	$237, %edi
	movl	$165, %esi
	movl	$1, %edx
	movl	$226, %ecx
	movl	$1, %r8d
	movl	$232, %r9d
	callq	_KTimestamp3
	movl	$1, (%rsp)
	movl	$234, %r14d
	movl	$234, %edi
	movl	$235, %esi
	movl	$1, %edx
	movl	$233, %ecx
	movl	$1, %r8d
	movl	$232, %r9d
	callq	_KTimestamp3
	movl	$1, (%rsp)
	movl	$230, %ebx
	movl	$230, %edi
	movl	$231, %esi
	movl	$1, %edx
	movl	$229, %ecx
	movl	$1, %r8d
	movl	$232, %r9d
	callq	_KTimestamp3
	callq	_KPopCDep
	movl	$2, %esi
	movabsq	$559270367217891767, %rdi # imm = 0x7C2ED6F936CB9B7
	callq	_KExitRegion
.Ltmp232:
.LBB3_57:                               # %for.cond189
                                        #   Parent Loop BB3_55 Depth=1
                                        # =>  This Loop Header: Depth=2
                                        #       Child Loop BB3_59 Depth 3
                                        #         Child Loop BB3_61 Depth 4
	#DEBUG_VALUE: epic_internal_filter:image <- [RBP+-112]
	#DEBUG_VALUE: epic_internal_filter:x_dim <- [RBP+-120]
	#DEBUG_VALUE: epic_internal_filter:y_dim <- [RBP+-260]
	#DEBUG_VALUE: epic_internal_filter:filt <- [RBP+-168]
	#DEBUG_VALUE: epic_internal_filter:temp <- [RBP+-104]
	#DEBUG_VALUE: epic_internal_filter:x_fdim <- [RBP+-156]
	#DEBUG_VALUE: epic_internal_filter:xgrid_start <- [RBP+24]
	#DEBUG_VALUE: epic_internal_filter:ygrid_start <- [RBP+40]
	#DEBUG_VALUE: epic_internal_filter:y_filt_lin <- [RBP+-156]
	#DEBUG_VALUE: epic_internal_filter:result <- [RBP+-328]
	#DEBUG_VALUE: epic_internal_filter:ygrid_step <- undef
	#DEBUG_VALUE: epic_internal_filter:xgrid_step <- [RBP+-304]
	#DEBUG_VALUE: epic_internal_filter:y_fdim <- undef
	#DEBUG_VALUE: epic_internal_filter:last_ctr_col <- [RBP+-172]
	#DEBUG_VALUE: epic_internal_filter:x_stop <- [RBP+-228]
	#DEBUG_VALUE: epic_internal_filter:y_pos <- [RBP+-296]
	#DEBUG_VALUE: epic_internal_filter:y_stop <- [RBP+-320]
	#DEBUG_VALUE: epic_internal_filter:last_ctr_row <- [RBP+-224]
	#DEBUG_VALUE: epic_internal_filter:ygrid_step_full <- [RBP+-240]
	#DEBUG_VALUE: epic_internal_filter:first_row <- [RBP+-296]
	movl	%r13d, -184(%rbp)       # 4-byte Spill
	movl	$221, %edi
	callq	_KPushCDep
	movl	$226, %edi
	movl	$221, %edx
	movl	-48(%rbp), %esi         # 4-byte Reload
	movl	%r15d, %ecx
	callq	_KPhi2To1
	movl	$233, %edi
	movl	$221, %edx
	movl	%r14d, %esi
	movl	%r15d, %ecx
	callq	_KPhi2To1
	movl	$229, %edi
	movl	$221, %edx
	movl	%ebx, %esi
	movl	%r15d, %ecx
	callq	_KPhi2To1
	movl	$1, %edi
	callq	_KWork
.Ltmp233:
	#DEBUG_VALUE: epic_internal_filter:y_im_lin <- R13D
	movl	$1, (%rsp)
	movl	$232, %edi
	movl	$156, %esi
	movl	$1, %edx
	movl	$221, %ecx
	movl	$1, %r8d
	movl	$226, %r9d
	callq	_KTimestamp3
	movl	$226, %edi
	movl	$232, %esi
	callq	_KPhiAddCond
	movl	$233, %edi
	movl	$232, %esi
	callq	_KPhiAddCond
	movl	$233, %edi
	movl	$233, %esi
	xorl	%edx, %edx
	callq	_KTimestamp1
	movl	$229, %edi
	movl	$232, %esi
	callq	_KPhiAddCond
	movl	$229, %edi
	movl	$229, %esi
	xorl	%edx, %edx
	callq	_KTimestamp1
	movl	$226, %edi
	movl	$226, %esi
	xorl	%edx, %edx
	callq	_KTimestamp1
	callq	_KPopCDep
	.loc	1 912 5 is_stmt 0       # epic.c:912:5
	movq	-224(%rbp), %rax        # 8-byte Reload
	cmpl	%eax, %r13d
.Ltmp234:
	#DEBUG_VALUE: epic_internal_filter:y_im_lin <- [RBP+-184]
	jge	.LBB3_65
# BB#58:                                # %for.body191
                                        #   in Loop: Header=BB3_57 Depth=2
	#DEBUG_VALUE: epic_internal_filter:image <- [RBP+-112]
	#DEBUG_VALUE: epic_internal_filter:x_dim <- [RBP+-120]
	#DEBUG_VALUE: epic_internal_filter:y_dim <- [RBP+-260]
	#DEBUG_VALUE: epic_internal_filter:filt <- [RBP+-168]
	#DEBUG_VALUE: epic_internal_filter:temp <- [RBP+-104]
	#DEBUG_VALUE: epic_internal_filter:x_fdim <- [RBP+-156]
	#DEBUG_VALUE: epic_internal_filter:xgrid_start <- [RBP+24]
	#DEBUG_VALUE: epic_internal_filter:ygrid_start <- [RBP+40]
	#DEBUG_VALUE: epic_internal_filter:y_filt_lin <- [RBP+-156]
	#DEBUG_VALUE: epic_internal_filter:result <- [RBP+-328]
	#DEBUG_VALUE: epic_internal_filter:ygrid_step <- undef
	#DEBUG_VALUE: epic_internal_filter:xgrid_step <- [RBP+-304]
	#DEBUG_VALUE: epic_internal_filter:y_fdim <- undef
	#DEBUG_VALUE: epic_internal_filter:last_ctr_col <- [RBP+-172]
	#DEBUG_VALUE: epic_internal_filter:x_stop <- [RBP+-228]
	#DEBUG_VALUE: epic_internal_filter:y_pos <- [RBP+-296]
	#DEBUG_VALUE: epic_internal_filter:y_im_lin <- [RBP+-184]
	#DEBUG_VALUE: epic_internal_filter:y_stop <- [RBP+-320]
	#DEBUG_VALUE: epic_internal_filter:last_ctr_row <- [RBP+-224]
	#DEBUG_VALUE: epic_internal_filter:ygrid_step_full <- [RBP+-240]
	#DEBUG_VALUE: epic_internal_filter:first_row <- [RBP+-296]
	movl	$2, %esi
	movabsq	$559270367217891767, %rdi # imm = 0x7C2ED6F936CB9B7
	callq	_KEnterRegion
	movl	$232, %edi
	callq	_KPushCDep
	#DEBUG_VALUE: epic_internal_filter:x_filt <- 0
	#DEBUG_VALUE: epic_internal_filter:sum <- 0.000000e+00
	callq	_KPopCDep
	movl	$1, %esi
	movabsq	$-8790765946490310280, %rdi # imm = 0x8600ECF277D83178
	callq	_KEnterRegion
	xorps	%xmm0, %xmm0
	movss	%xmm0, -68(%rbp)        # 4-byte Spill
	movl	$233, -48(%rbp)         # 4-byte Folded Spill
	movl	$240, %ebx
	xorl	%r15d, %r15d
	movq	-88(%rbp), %rax         # 8-byte Reload
	movq	%rax, -80(%rbp)         # 8-byte Spill
	movl	-208(%rbp), %eax        # 4-byte Reload
	movl	%eax, -136(%rbp)        # 4-byte Spill
	xorl	%r13d, %r13d
	xorl	%r14d, %r14d
	xorl	%eax, %eax
	movq	%rax, -128(%rbp)        # 8-byte Spill
	jmp	.LBB3_59
	.align	16, 0x90
.LBB3_63:                               # %for.cond196.pre_exit.for.end208
                                        #   in Loop: Header=BB3_59 Depth=3
	#DEBUG_VALUE: epic_internal_filter:image <- [RBP+-112]
	#DEBUG_VALUE: epic_internal_filter:x_dim <- [RBP+-120]
	#DEBUG_VALUE: epic_internal_filter:y_dim <- [RBP+-260]
	#DEBUG_VALUE: epic_internal_filter:filt <- [RBP+-168]
	#DEBUG_VALUE: epic_internal_filter:temp <- [RBP+-104]
	#DEBUG_VALUE: epic_internal_filter:x_fdim <- [RBP+-156]
	#DEBUG_VALUE: epic_internal_filter:xgrid_start <- [RBP+24]
	#DEBUG_VALUE: epic_internal_filter:ygrid_start <- [RBP+40]
	#DEBUG_VALUE: epic_internal_filter:y_filt_lin <- [RBP+-156]
	#DEBUG_VALUE: epic_internal_filter:result <- [RBP+-328]
	#DEBUG_VALUE: epic_internal_filter:ygrid_step <- undef
	#DEBUG_VALUE: epic_internal_filter:xgrid_step <- [RBP+-304]
	#DEBUG_VALUE: epic_internal_filter:y_fdim <- undef
	#DEBUG_VALUE: epic_internal_filter:last_ctr_col <- [RBP+-172]
	#DEBUG_VALUE: epic_internal_filter:x_stop <- [RBP+-228]
	#DEBUG_VALUE: epic_internal_filter:y_pos <- [RBP+-296]
	#DEBUG_VALUE: epic_internal_filter:sum <- 0.000000e+00
	#DEBUG_VALUE: epic_internal_filter:y_im_lin <- [RBP+-184]
	#DEBUG_VALUE: epic_internal_filter:x_filt <- 0
	#DEBUG_VALUE: epic_internal_filter:y_stop <- [RBP+-320]
	#DEBUG_VALUE: epic_internal_filter:last_ctr_row <- [RBP+-224]
	#DEBUG_VALUE: epic_internal_filter:ygrid_step_full <- [RBP+-240]
	#DEBUG_VALUE: epic_internal_filter:first_row <- [RBP+-296]
	movl	$1, %esi
	movabsq	$-522211858762028037, %rdi # imm = 0xF8C0BB14CCFE2BFB
	callq	_KExitRegion
	movl	$242, %r15d
	movl	$242, %edi
	callq	_KPushCDep
	movl	$2, %edi
	callq	_KWork
	movq	-128(%rbp), %rax        # 8-byte Reload
	cmpq	%rax, %r13
	cmovgeq	%r13, %rax
	movq	%rax, -128(%rbp)        # 8-byte Spill
	.loc	1 917 7 is_stmt 1       # epic.c:917:7
.Ltmp235:
	movq	-120(%rbp), %rax        # 8-byte Reload
	addl	%eax, -136(%rbp)        # 4-byte Folded Spill
	addq	-88(%rbp), %r13         # 8-byte Folded Reload
	movq	%r13, -80(%rbp)         # 8-byte Spill
	movl	$1, (%rsp)
	movl	$247, %r14d
	movl	$247, %edi
	movl	$238, %esi
	movl	$1, %edx
	movl	$246, %ecx
	movl	$1, %r8d
	movl	$242, %r9d
	callq	_KTimestamp3
	movl	$1, (%rsp)
	movl	$244, -48(%rbp)         # 4-byte Folded Spill
	movl	$244, %edi
	movl	$1, %esi
	movl	$1, %edx
	movl	$243, %ecx
	movl	$1, %r8d
	movl	$242, %r9d
	callq	_KTimestamp3
	movl	$1, (%rsp)
	movl	$239, %ebx
	movl	$239, %edi
	movl	$240, %esi
	movl	$1, %edx
	movl	$238, %ecx
	movl	$1, %r8d
	movl	$242, %r9d
	callq	_KTimestamp3
	callq	_KPopCDep
	movl	$2, %esi
	movabsq	$577188482024354174, %rdi # imm = 0x80295DDC782317E
	callq	_KExitRegion
	movl	$245, %r13d
.LBB3_59:                               # %for.cond192
                                        #   Parent Loop BB3_55 Depth=1
                                        #     Parent Loop BB3_57 Depth=2
                                        # =>    This Loop Header: Depth=3
                                        #         Child Loop BB3_61 Depth 4
	#DEBUG_VALUE: epic_internal_filter:image <- [RBP+-112]
	#DEBUG_VALUE: epic_internal_filter:x_dim <- [RBP+-120]
	#DEBUG_VALUE: epic_internal_filter:y_dim <- [RBP+-260]
	#DEBUG_VALUE: epic_internal_filter:filt <- [RBP+-168]
	#DEBUG_VALUE: epic_internal_filter:temp <- [RBP+-104]
	#DEBUG_VALUE: epic_internal_filter:x_fdim <- [RBP+-156]
	#DEBUG_VALUE: epic_internal_filter:xgrid_start <- [RBP+24]
	#DEBUG_VALUE: epic_internal_filter:ygrid_start <- [RBP+40]
	#DEBUG_VALUE: epic_internal_filter:y_filt_lin <- [RBP+-156]
	#DEBUG_VALUE: epic_internal_filter:result <- [RBP+-328]
	#DEBUG_VALUE: epic_internal_filter:ygrid_step <- undef
	#DEBUG_VALUE: epic_internal_filter:xgrid_step <- [RBP+-304]
	#DEBUG_VALUE: epic_internal_filter:y_fdim <- undef
	#DEBUG_VALUE: epic_internal_filter:last_ctr_col <- [RBP+-172]
	#DEBUG_VALUE: epic_internal_filter:x_stop <- [RBP+-228]
	#DEBUG_VALUE: epic_internal_filter:y_pos <- [RBP+-296]
	#DEBUG_VALUE: epic_internal_filter:sum <- 0.000000e+00
	#DEBUG_VALUE: epic_internal_filter:y_im_lin <- [RBP+-184]
	#DEBUG_VALUE: epic_internal_filter:x_filt <- 0
	#DEBUG_VALUE: epic_internal_filter:y_stop <- [RBP+-320]
	#DEBUG_VALUE: epic_internal_filter:last_ctr_row <- [RBP+-224]
	#DEBUG_VALUE: epic_internal_filter:ygrid_step_full <- [RBP+-240]
	#DEBUG_VALUE: epic_internal_filter:first_row <- [RBP+-296]
	movl	$232, %edi
	callq	_KPushCDep
	movl	$246, %edi
	movl	$232, %edx
	movl	%r14d, %esi
	movl	%r15d, %ecx
	callq	_KPhi2To1
	movl	$43, %edi
	movl	$232, %edx
	movl	%r13d, %esi
	movl	%r15d, %ecx
	callq	_KPhi2To1
	movl	$243, %edi
	movl	$232, %edx
	movl	-48(%rbp), %esi         # 4-byte Reload
	movl	%r15d, %ecx
	callq	_KPhi2To1
	movl	$238, %edi
	movl	$232, %edx
	movl	%ebx, %esi
	movl	%r15d, %ecx
	callq	_KPhi2To1
	movl	$1, %edi
	callq	_KWork
	movl	$43, %edi
	movl	$43, %esi
	xorl	%edx, %edx
	callq	_KTimestamp1
	movl	$250, %edi
	movl	$232, %esi
	xorl	%edx, %edx
	movl	$243, %ecx
	xorl	%r8d, %r8d
	callq	_KTimestamp2
	movl	$1, (%rsp)
	movl	$242, %edi
	movl	$241, %esi
	movl	$1, %edx
	movl	$232, %ecx
	movl	$1, %r8d
	movl	$238, %r9d
	callq	_KTimestamp3
	movl	$246, %edi
	movl	$242, %esi
	callq	_KPhiAddCond
	movl	$246, %edi
	movl	$246, %esi
	xorl	%edx, %edx
	callq	_KTimestamp1
	movl	$43, %edi
	movl	$242, %esi
	callq	_KPhiAddCond
	movl	$243, %edi
	movl	$242, %esi
	callq	_KPhiAddCond
	movl	$243, %edi
	movl	$243, %esi
	xorl	%edx, %edx
	callq	_KTimestamp1
	movl	$238, %edi
	movl	$242, %esi
	callq	_KPhiAddCond
	movl	$238, %edi
	movl	$238, %esi
	xorl	%edx, %edx
	callq	_KTimestamp1
	callq	_KPopCDep
	movq	-80(%rbp), %rax         # 8-byte Reload
	.loc	1 918 13                # epic.c:918:13
	cmpq	-96(%rbp), %rax         # 8-byte Folded Reload
.Ltmp236:
	.loc	1 917 7                 # epic.c:917:7
	jg	.LBB3_64
# BB#60:                                # %for.body194
                                        #   in Loop: Header=BB3_59 Depth=3
	#DEBUG_VALUE: epic_internal_filter:image <- [RBP+-112]
	#DEBUG_VALUE: epic_internal_filter:x_dim <- [RBP+-120]
	#DEBUG_VALUE: epic_internal_filter:y_dim <- [RBP+-260]
	#DEBUG_VALUE: epic_internal_filter:filt <- [RBP+-168]
	#DEBUG_VALUE: epic_internal_filter:temp <- [RBP+-104]
	#DEBUG_VALUE: epic_internal_filter:x_fdim <- [RBP+-156]
	#DEBUG_VALUE: epic_internal_filter:xgrid_start <- [RBP+24]
	#DEBUG_VALUE: epic_internal_filter:ygrid_start <- [RBP+40]
	#DEBUG_VALUE: epic_internal_filter:y_filt_lin <- [RBP+-156]
	#DEBUG_VALUE: epic_internal_filter:result <- [RBP+-328]
	#DEBUG_VALUE: epic_internal_filter:ygrid_step <- undef
	#DEBUG_VALUE: epic_internal_filter:xgrid_step <- [RBP+-304]
	#DEBUG_VALUE: epic_internal_filter:y_fdim <- undef
	#DEBUG_VALUE: epic_internal_filter:last_ctr_col <- [RBP+-172]
	#DEBUG_VALUE: epic_internal_filter:x_stop <- [RBP+-228]
	#DEBUG_VALUE: epic_internal_filter:y_pos <- [RBP+-296]
	#DEBUG_VALUE: epic_internal_filter:sum <- 0.000000e+00
	#DEBUG_VALUE: epic_internal_filter:y_im_lin <- [RBP+-184]
	#DEBUG_VALUE: epic_internal_filter:x_filt <- 0
	#DEBUG_VALUE: epic_internal_filter:y_stop <- [RBP+-320]
	#DEBUG_VALUE: epic_internal_filter:last_ctr_row <- [RBP+-224]
	#DEBUG_VALUE: epic_internal_filter:ygrid_step_full <- [RBP+-240]
	#DEBUG_VALUE: epic_internal_filter:first_row <- [RBP+-296]
	movslq	-136(%rbp), %rax        # 4-byte Folded Reload
	movq	-112(%rbp), %rcx        # 8-byte Reload
	leaq	(%rcx,%rax,4), %rax
	movq	%rax, -64(%rbp)         # 8-byte Spill
	movl	$2, %esi
	movabsq	$577188482024354174, %rdi # imm = 0x80295DDC782317E
	callq	_KEnterRegion
	movl	$242, %edi
	callq	_KPushCDep
	movl	$1, %edi
	callq	_KWork
	movq	-128(%rbp), %r13        # 8-byte Reload
	movslq	%r13d, %r13
	movq	%r13, -128(%rbp)        # 8-byte Spill
	xorl	%r15d, %r15d
	movl	$252, %edi
	movl	$246, %esi
	xorl	%edx, %edx
	movl	$242, %ecx
	xorl	%r8d, %r8d
	callq	_KTimestamp2
	callq	_KPopCDep
	movl	$1, %esi
	movabsq	$-522211858762028037, %rdi # imm = 0xF8C0BB14CCFE2BFB
	callq	_KEnterRegion
	movq	-104(%rbp), %rax        # 8-byte Reload
	leaq	(%rax,%r13,4), %r14
	movl	$250, -56(%rbp)         # 4-byte Folded Spill
	movq	%r13, -48(%rbp)         # 8-byte Spill
	movl	$43, %ebx
	movl	$252, %r13d
	jmp	.LBB3_61
	.align	16, 0x90
.LBB3_62:                               # %for.body198
                                        #   in Loop: Header=BB3_61 Depth=4
	#DEBUG_VALUE: epic_internal_filter:image <- [RBP+-112]
	#DEBUG_VALUE: epic_internal_filter:x_dim <- [RBP+-120]
	#DEBUG_VALUE: epic_internal_filter:y_dim <- [RBP+-260]
	#DEBUG_VALUE: epic_internal_filter:filt <- [RBP+-168]
	#DEBUG_VALUE: epic_internal_filter:temp <- [RBP+-104]
	#DEBUG_VALUE: epic_internal_filter:x_fdim <- [RBP+-156]
	#DEBUG_VALUE: epic_internal_filter:xgrid_start <- [RBP+24]
	#DEBUG_VALUE: epic_internal_filter:ygrid_start <- [RBP+40]
	#DEBUG_VALUE: epic_internal_filter:y_filt_lin <- [RBP+-156]
	#DEBUG_VALUE: epic_internal_filter:result <- [RBP+-328]
	#DEBUG_VALUE: epic_internal_filter:ygrid_step <- undef
	#DEBUG_VALUE: epic_internal_filter:xgrid_step <- [RBP+-304]
	#DEBUG_VALUE: epic_internal_filter:y_fdim <- undef
	#DEBUG_VALUE: epic_internal_filter:last_ctr_col <- [RBP+-172]
	#DEBUG_VALUE: epic_internal_filter:x_stop <- [RBP+-228]
	#DEBUG_VALUE: epic_internal_filter:y_pos <- [RBP+-296]
	#DEBUG_VALUE: epic_internal_filter:sum <- 0.000000e+00
	#DEBUG_VALUE: epic_internal_filter:y_im_lin <- [RBP+-184]
	#DEBUG_VALUE: epic_internal_filter:x_filt <- 0
	#DEBUG_VALUE: epic_internal_filter:y_stop <- [RBP+-320]
	#DEBUG_VALUE: epic_internal_filter:last_ctr_row <- [RBP+-224]
	#DEBUG_VALUE: epic_internal_filter:ygrid_step_full <- [RBP+-240]
	#DEBUG_VALUE: epic_internal_filter:first_row <- [RBP+-296]
	movl	$2, %esi
	movq	%r12, %rdi
	callq	_KEnterRegion
	movl	$249, %r15d
	movl	$249, %edi
	callq	_KPushCDep
	movl	$17, %edi
	callq	_KWork
	movl	$39, %esi
	movl	$40, %edx
	movl	$4, %ecx
	movq	-64(%rbp), %r13         # 8-byte Reload
	movq	%r13, %rdi
	callq	_KLoad1
	.loc	1 924 18                # epic.c:924:18
.Ltmp237:
	movss	(%r13), %xmm0
	movss	%xmm0, -56(%rbp)        # 4-byte Spill
	movl	$41, %esi
	movl	$42, %edx
	movl	$4, %ecx
	movq	%r14, %rdi
	callq	_KLoad1
	movss	-56(%rbp), %xmm1        # 4-byte Reload
	mulss	(%r14), %xmm1
	.loc	1 924 11 is_stmt 0      # epic.c:924:11
	movss	-68(%rbp), %xmm0        # 4-byte Reload
	addss	%xmm1, %xmm0
.Ltmp238:
	#DEBUG_VALUE: epic_internal_filter:sum <- [RBP+-68]
	.loc	1 921 9 is_stmt 1       # epic.c:921:9
	movss	%xmm0, -68(%rbp)        # 4-byte Spill
	incq	%rbx
	movq	%rbx, -48(%rbp)         # 8-byte Spill
	movl	$7, 16(%rsp)
	movl	$41, 8(%rsp)
	movl	$7, (%rsp)
	movl	$253, %edi
	movl	$245, %esi
	movl	$2, %edx
	movl	$249, %ecx
	movl	$7, %r8d
	movl	$39, %r9d
	callq	_KTimestamp4
	movl	$251, %edi
	movl	$42, %esi
	movl	$1, %edx
	movl	$249, %ecx
	movl	$1, %r8d
	callq	_KTimestamp2
	movl	$248, -56(%rbp)         # 4-byte Folded Spill
	movl	$248, %edi
	movl	$40, %esi
	movl	$1, %edx
	movl	$249, %ecx
	movl	$1, %r8d
	callq	_KTimestamp2
	callq	_KPopCDep
	movl	$2, %esi
	movq	%r12, %rdi
	callq	_KExitRegion
	addq	$4, %r13
	movq	%r13, -64(%rbp)         # 8-byte Spill
	movl	$253, %ebx
	movl	$251, %r13d
	addq	$4, %r14
.Ltmp239:
.LBB3_61:                               # %for.cond196
                                        #   Parent Loop BB3_55 Depth=1
                                        #     Parent Loop BB3_57 Depth=2
                                        #       Parent Loop BB3_59 Depth=3
                                        # =>      This Inner Loop Header: Depth=4
	#DEBUG_VALUE: epic_internal_filter:image <- [RBP+-112]
	#DEBUG_VALUE: epic_internal_filter:x_dim <- [RBP+-120]
	#DEBUG_VALUE: epic_internal_filter:y_dim <- [RBP+-260]
	#DEBUG_VALUE: epic_internal_filter:filt <- [RBP+-168]
	#DEBUG_VALUE: epic_internal_filter:temp <- [RBP+-104]
	#DEBUG_VALUE: epic_internal_filter:x_fdim <- [RBP+-156]
	#DEBUG_VALUE: epic_internal_filter:xgrid_start <- [RBP+24]
	#DEBUG_VALUE: epic_internal_filter:ygrid_start <- [RBP+40]
	#DEBUG_VALUE: epic_internal_filter:y_filt_lin <- [RBP+-156]
	#DEBUG_VALUE: epic_internal_filter:result <- [RBP+-328]
	#DEBUG_VALUE: epic_internal_filter:ygrid_step <- undef
	#DEBUG_VALUE: epic_internal_filter:xgrid_step <- [RBP+-304]
	#DEBUG_VALUE: epic_internal_filter:y_fdim <- undef
	#DEBUG_VALUE: epic_internal_filter:last_ctr_col <- [RBP+-172]
	#DEBUG_VALUE: epic_internal_filter:x_stop <- [RBP+-228]
	#DEBUG_VALUE: epic_internal_filter:y_pos <- [RBP+-296]
	#DEBUG_VALUE: epic_internal_filter:sum <- 0.000000e+00
	#DEBUG_VALUE: epic_internal_filter:y_im_lin <- [RBP+-184]
	#DEBUG_VALUE: epic_internal_filter:x_filt <- 0
	#DEBUG_VALUE: epic_internal_filter:y_stop <- [RBP+-320]
	#DEBUG_VALUE: epic_internal_filter:last_ctr_row <- [RBP+-224]
	#DEBUG_VALUE: epic_internal_filter:ygrid_step_full <- [RBP+-240]
	#DEBUG_VALUE: epic_internal_filter:first_row <- [RBP+-296]
	movl	$242, %edi
	callq	_KPushCDep
	movl	$245, %edi
	movl	$242, %edx
	movl	%ebx, %esi
	movl	%r15d, %ecx
	callq	_KPhi2To1
	movl	$42, %edi
	movl	$242, %edx
	movl	%r13d, %esi
	movl	%r15d, %ecx
	callq	_KPhi2To1
	movl	$40, %edi
	movl	$242, %edx
	movl	-56(%rbp), %esi         # 4-byte Reload
	movl	%r15d, %ecx
	callq	_KPhi2To1
	movl	$1, %edi
	callq	_KWork
	movl	$1, (%rsp)
	movl	$249, %edi
	movl	$238, %esi
	movl	$1, %edx
	movl	$242, %ecx
	movl	$1, %r8d
	movl	$42, %r9d
	callq	_KTimestamp3
	movl	$245, %edi
	movl	$249, %esi
	callq	_KPhiAddCond
	movl	$42, %edi
	movl	$249, %esi
	callq	_KPhiAddCond
	movl	$42, %edi
	movl	$42, %esi
	xorl	%edx, %edx
	callq	_KTimestamp1
	movl	$40, %edi
	movl	$249, %esi
	callq	_KPhiAddCond
	movl	$40, %edi
	movl	$40, %esi
	xorl	%edx, %edx
	callq	_KTimestamp1
	movl	$245, %edi
	movl	$245, %esi
	xorl	%edx, %edx
	callq	_KTimestamp1
	callq	_KPopCDep
	movq	-80(%rbp), %r13         # 8-byte Reload
	movq	-48(%rbp), %rbx         # 8-byte Reload
	.loc	1 921 9 is_stmt 0       # epic.c:921:9
	cmpq	%r13, %rbx
	jl	.LBB3_62
	jmp	.LBB3_63
.Ltmp240:
.LBB3_66:                               # %for.cond186.pre_exit.for.end222
	#DEBUG_VALUE: epic_internal_filter:image <- [RBP+-112]
	#DEBUG_VALUE: epic_internal_filter:x_dim <- [RBP+-120]
	#DEBUG_VALUE: epic_internal_filter:y_dim <- [RBP+-260]
	#DEBUG_VALUE: epic_internal_filter:filt <- [RBP+-168]
	#DEBUG_VALUE: epic_internal_filter:temp <- [RBP+-104]
	#DEBUG_VALUE: epic_internal_filter:x_fdim <- [RBP+-156]
	#DEBUG_VALUE: epic_internal_filter:xgrid_start <- [RBP+24]
	#DEBUG_VALUE: epic_internal_filter:ygrid_start <- [RBP+40]
	#DEBUG_VALUE: epic_internal_filter:y_filt_lin <- [RBP+-156]
	#DEBUG_VALUE: epic_internal_filter:result <- [RBP+-328]
	#DEBUG_VALUE: epic_internal_filter:ygrid_step <- undef
	#DEBUG_VALUE: epic_internal_filter:xgrid_step <- [RBP+-304]
	#DEBUG_VALUE: epic_internal_filter:y_fdim <- undef
	#DEBUG_VALUE: epic_internal_filter:last_ctr_col <- [RBP+-172]
	#DEBUG_VALUE: epic_internal_filter:x_stop <- [RBP+-228]
	#DEBUG_VALUE: epic_internal_filter:y_stop <- [RBP+-320]
	#DEBUG_VALUE: epic_internal_filter:last_ctr_row <- [RBP+-224]
	movl	$1, %ebx
	movl	$1, %esi
	movabsq	$-5689511508155985583, %rdi # imm = 0xB10ACB6D7ADD9151
	callq	_KExitRegion
	movl	$23, %edi
	callq	_KWork
	.loc	1 935 16 is_stmt 1      # epic.c:935:16
	subl	-316(%rbp), %ebx        # 4-byte Folded Reload
	.loc	1 935 3 is_stmt 0       # epic.c:935:3
	movq	-152(%rbp), %rax        # 8-byte Reload
	addl	%eax, %ebx
.Ltmp241:
	#DEBUG_VALUE: epic_internal_filter:res_pos <- EBX
	movq	%rbx, -192(%rbp)        # 8-byte Spill
.Ltmp242:
	#DEBUG_VALUE: epic_internal_filter:res_pos <- [RBP+-192]
	movq	-224(%rbp), %r14        # 8-byte Reload
.Ltmp243:
	#DEBUG_VALUE: epic_internal_filter:last_ctr_row <- R14D
	movl	-184(%rbp), %eax        # 4-byte Reload
	.loc	1 937 21 is_stmt 1      # epic.c:937:21
.Ltmp244:
	subl	%r14d, %eax
	.loc	1 937 19 is_stmt 0      # epic.c:937:19
	cltd
	movq	-120(%rbp), %rcx        # 8-byte Reload
.Ltmp245:
	#DEBUG_VALUE: epic_internal_filter:x_dim <- ECX
	idivl	%ecx
	movl	%eax, %r12d
	.loc	1 937 17                # epic.c:937:17
	incl	%r12d
.Ltmp246:
	#DEBUG_VALUE: epic_internal_filter:y_pos <- R12D
	.loc	1 937 9                 # epic.c:937:9
	movq	-216(%rbp), %rax        # 8-byte Reload
	leal	(%rax,%r14), %eax
	movl	%eax, -240(%rbp)        # 4-byte Spill
	movl	-260(%rbp), %eax        # 4-byte Reload
.Ltmp247:
	#DEBUG_VALUE: epic_internal_filter:y_dim <- EAX
	incl	%eax
.Ltmp248:
	movl	16(%rbp), %edx
	subl	%edx, %eax
	imull	%ecx, %eax
.Ltmp249:
	#DEBUG_VALUE: epic_internal_filter:x_dim <- [RBP+-120]
	subl	-156(%rbp), %eax        # 4-byte Folded Reload
	movl	%eax, -260(%rbp)        # 4-byte Spill
	movl	$4, 16(%rsp)
	movl	$4, 8(%rsp)
	movl	$1, (%rsp)
	movl	$322, %edi              # imm = 0x142
	movl	$1, %esi
	movl	$3, %edx
	movl	$2, %ecx
	movl	$5, %r8d
	movl	$3, %r9d
	callq	_KTimestamp4
	movl	$318, %edi              # imm = 0x13E
	movl	$3, %esi
	movl	$2, %edx
	movl	$4, %ecx
	movl	$2, %r8d
	callq	_KTimestamp2
	movl	$317, %edi              # imm = 0x13D
	movl	$3, %esi
	xorl	%edx, %edx
	callq	_KTimestamp1
	movl	$1, 16(%rsp)
	movl	$227, 8(%rsp)
	movl	$14, (%rsp)
	movl	$259, %r13d             # imm = 0x103
	movl	$259, %edi              # imm = 0x103
	movl	$1, %esi
	movl	$15, %edx
	movl	$5, %ecx
	movl	$15, %r8d
	movl	$6, %r9d
	callq	_KTimestamp4
	movl	$12, 16(%rsp)
	movl	$225, 8(%rsp)
	movl	$15, (%rsp)
	movl	$254, %r15d
	movl	$254, %edi
	movl	$1, %esi
	movl	$14, %edx
	movl	$2, %ecx
	movl	$15, %r8d
	movl	$4, %r9d
	callq	_KTimestamp4
	movl	$271, %edi              # imm = 0x10F
	movl	$3, %esi
	movl	$2, %edx
	movl	$4, %ecx
	movl	$2, %r8d
	callq	_KTimestamp2
	movl	$3, (%rsp)
	movl	$276, %edi              # imm = 0x114
	movl	$1, %esi
	movl	$2, %edx
	movl	$2, %ecx
	movl	$3, %r8d
	movl	$4, %r9d
	callq	_KTimestamp3
	movl	$297, %edi              # imm = 0x129
	movl	$3, %esi
	movl	$2, %edx
	movl	$4, %ecx
	movl	$2, %r8d
	callq	_KTimestamp2
	movl	$296, %edi              # imm = 0x128
	movl	$3, %esi
	xorl	%edx, %edx
	callq	_KTimestamp1
	movl	$1, 16(%rsp)
	movl	$68, 8(%rsp)
	movl	$4, (%rsp)
	movl	$292, %edi              # imm = 0x124
	movl	$1, %esi
	movl	$3, %edx
	movl	$2, %ecx
	movl	$4, %r8d
	movl	$4, %r9d
	callq	_KTimestamp4
	movl	$270, %edi              # imm = 0x10E
	movl	$3, %esi
	xorl	%edx, %edx
	callq	_KTimestamp1
	movl	$275, %edi              # imm = 0x113
	movl	$1, %esi
	xorl	%edx, %edx
	callq	_KTimestamp1
	movl	$1, %esi
	movabsq	$-5674506172302605152, %rdi # imm = 0xB1401AB37C2444A0
	callq	_KEnterRegion
	movslq	%r14d, %rax
	xorl	%r14d, %r14d
.Ltmp250:
	movq	-112(%rbp), %rcx        # 8-byte Reload
	leaq	(%rcx,%rax,4), %rax
	movq	%rax, -208(%rbp)        # 8-byte Spill
	movabsq	$2919244401798019311, %rbx # imm = 0x28833D510DB7F8EF
	jmp	.LBB3_67
.Ltmp251:
	.align	16, 0x90
.LBB3_95:                               # %for.cond293.pre_exit.for.inc323
                                        #   in Loop: Header=BB3_67 Depth=1
	#DEBUG_VALUE: epic_internal_filter:image <- [RBP+-112]
	#DEBUG_VALUE: epic_internal_filter:x_dim <- [RBP+-120]
	#DEBUG_VALUE: epic_internal_filter:filt <- [RBP+-168]
	#DEBUG_VALUE: epic_internal_filter:temp <- [RBP+-104]
	#DEBUG_VALUE: epic_internal_filter:x_fdim <- [RBP+-156]
	#DEBUG_VALUE: epic_internal_filter:xgrid_start <- [RBP+24]
	#DEBUG_VALUE: epic_internal_filter:ygrid_start <- [RBP+40]
	#DEBUG_VALUE: epic_internal_filter:y_filt_lin <- [RBP+-156]
	#DEBUG_VALUE: epic_internal_filter:result <- [RBP+-328]
	#DEBUG_VALUE: epic_internal_filter:ygrid_step <- undef
	#DEBUG_VALUE: epic_internal_filter:xgrid_step <- [RBP+-304]
	#DEBUG_VALUE: epic_internal_filter:y_fdim <- undef
	#DEBUG_VALUE: epic_internal_filter:last_ctr_col <- [RBP+-172]
	#DEBUG_VALUE: epic_internal_filter:x_stop <- [RBP+-228]
	#DEBUG_VALUE: epic_internal_filter:y_stop <- [RBP+-320]
	movl	$1, %esi
	movabsq	$4343568345911912361, %rdi # imm = 0x3C477465BBB5E7A9
	callq	_KExitRegion
	movl	$257, %r14d             # imm = 0x101
	movl	$257, %edi              # imm = 0x101
	callq	_KPushCDep
	movl	$1, %edi
	callq	_KWork
	movl	-184(%rbp), %r12d       # 4-byte Reload
	.loc	1 939 9 is_stmt 1       # epic.c:939:9
.Ltmp252:
	addl	48(%rbp), %r12d
.Ltmp253:
	#DEBUG_VALUE: epic_internal_filter:y_pos <- R12D
	movl	$260, %r13d             # imm = 0x104
	movl	$260, %edi              # imm = 0x104
	movl	$257, %esi              # imm = 0x101
	xorl	%edx, %edx
	movl	$261, %ecx              # imm = 0x105
	xorl	%r8d, %r8d
	callq	_KTimestamp2
	movl	$1, (%rsp)
	movl	$255, %r15d
	movl	$255, %edi
	movl	$8, %esi
	movl	$1, %edx
	movl	$45, %ecx
	movl	$1, %r8d
	movl	$257, %r9d              # imm = 0x101
	callq	_KTimestamp3
	callq	_KPopCDep
	movl	$2, %esi
	movabsq	$2919244401798019311, %rbx # imm = 0x28833D510DB7F8EF
	movq	%rbx, %rdi
	callq	_KExitRegion
.Ltmp254:
.LBB3_67:                               # %for.cond228
                                        # =>This Loop Header: Depth=1
                                        #     Child Loop BB3_69 Depth 2
                                        #       Child Loop BB3_71 Depth 3
                                        #         Child Loop BB3_73 Depth 4
                                        #     Child Loop BB3_78 Depth 2
                                        #       Child Loop BB3_80 Depth 3
                                        #         Child Loop BB3_82 Depth 4
                                        #     Child Loop BB3_87 Depth 2
                                        #       Child Loop BB3_89 Depth 3
                                        #         Child Loop BB3_91 Depth 4
	#DEBUG_VALUE: epic_internal_filter:image <- [RBP+-112]
	#DEBUG_VALUE: epic_internal_filter:x_dim <- [RBP+-120]
	#DEBUG_VALUE: epic_internal_filter:filt <- [RBP+-168]
	#DEBUG_VALUE: epic_internal_filter:temp <- [RBP+-104]
	#DEBUG_VALUE: epic_internal_filter:x_fdim <- [RBP+-156]
	#DEBUG_VALUE: epic_internal_filter:xgrid_start <- [RBP+24]
	#DEBUG_VALUE: epic_internal_filter:ygrid_start <- [RBP+40]
	#DEBUG_VALUE: epic_internal_filter:y_filt_lin <- [RBP+-156]
	#DEBUG_VALUE: epic_internal_filter:result <- [RBP+-328]
	#DEBUG_VALUE: epic_internal_filter:ygrid_step <- undef
	#DEBUG_VALUE: epic_internal_filter:xgrid_step <- [RBP+-304]
	#DEBUG_VALUE: epic_internal_filter:y_fdim <- undef
	#DEBUG_VALUE: epic_internal_filter:last_ctr_col <- [RBP+-172]
	#DEBUG_VALUE: epic_internal_filter:x_stop <- [RBP+-228]
	#DEBUG_VALUE: epic_internal_filter:y_stop <- [RBP+-320]
	movl	$258, %edi              # imm = 0x102
	movl	%r13d, %esi
	movl	%r14d, %edx
	callq	_KPhi1To1
	movl	$45, %edi
	movl	%r15d, %esi
	movl	%r14d, %edx
	callq	_KPhi1To1
	movl	$1, %edi
	callq	_KWork
	movl	$45, %edi
	movl	$45, %esi
	xorl	%edx, %edx
	callq	_KTimestamp1
	movl	$258, %edi              # imm = 0x102
	movl	$258, %esi              # imm = 0x102
	xorl	%edx, %edx
	callq	_KTimestamp1
	movl	$257, %edi              # imm = 0x101
	movl	$256, %esi              # imm = 0x100
	movl	$1, %edx
	movl	$45, %ecx
	movl	$1, %r8d
	callq	_KTimestamp2
	movl	$258, %edi              # imm = 0x102
	movl	$257, %esi              # imm = 0x101
	callq	_KPhiAddCond
	movl	$45, %edi
	movl	$257, %esi              # imm = 0x101
	callq	_KPhiAddCond
	.loc	1 937 3                 # epic.c:937:3
	cmpl	-320(%rbp), %r12d       # 4-byte Folded Reload
	jge	.LBB3_96
# BB#68:                                # %for.body230
                                        #   in Loop: Header=BB3_67 Depth=1
	#DEBUG_VALUE: epic_internal_filter:image <- [RBP+-112]
	#DEBUG_VALUE: epic_internal_filter:x_dim <- [RBP+-120]
	#DEBUG_VALUE: epic_internal_filter:filt <- [RBP+-168]
	#DEBUG_VALUE: epic_internal_filter:temp <- [RBP+-104]
	#DEBUG_VALUE: epic_internal_filter:x_fdim <- [RBP+-156]
	#DEBUG_VALUE: epic_internal_filter:xgrid_start <- [RBP+24]
	#DEBUG_VALUE: epic_internal_filter:ygrid_start <- [RBP+40]
	#DEBUG_VALUE: epic_internal_filter:y_filt_lin <- [RBP+-156]
	#DEBUG_VALUE: epic_internal_filter:result <- [RBP+-328]
	#DEBUG_VALUE: epic_internal_filter:ygrid_step <- undef
	#DEBUG_VALUE: epic_internal_filter:xgrid_step <- [RBP+-304]
	#DEBUG_VALUE: epic_internal_filter:y_fdim <- undef
	#DEBUG_VALUE: epic_internal_filter:last_ctr_col <- [RBP+-172]
	#DEBUG_VALUE: epic_internal_filter:x_stop <- [RBP+-228]
	#DEBUG_VALUE: epic_internal_filter:y_stop <- [RBP+-320]
	movl	%r12d, -184(%rbp)       # 4-byte Spill
	movl	$2, %esi
	movq	%rbx, %rdi
	callq	_KEnterRegion
	movl	$257, %edi              # imm = 0x101
	callq	_KPushCDep
	movl	$1, %edi
	callq	_KWork
	movq	-192(%rbp), %rax        # 8-byte Reload
	movslq	%eax, %r13
	movl	$1, (%rsp)
	movl	$266, %r15d             # imm = 0x10A
	movl	$266, %edi              # imm = 0x10A
	movl	$5, %esi
	movl	$1, %edx
	movl	$80, %ecx
	movl	$1, %r8d
	movl	$257, %r9d              # imm = 0x101
	callq	_KTimestamp3
	movl	$265, %r14d             # imm = 0x109
	xorl	%r12d, %r12d
	movl	$265, %edi              # imm = 0x109
	movl	$258, %esi              # imm = 0x102
	xorl	%edx, %edx
	movl	$257, %ecx              # imm = 0x101
	xorl	%r8d, %r8d
	callq	_KTimestamp2
	callq	_KPopCDep
	movl	$1, %esi
	movabsq	$-5051583732146342756, %rdi # imm = 0xB9E52B5C2C46749C
	callq	_KEnterRegion
	movq	-280(%rbp), %rax        # 8-byte Reload
	movl	%eax, %ebx
	jmp	.LBB3_69
	.align	16, 0x90
.LBB3_76:                               # %for.cond235.pre_exit.for.end254
                                        #   in Loop: Header=BB3_69 Depth=2
	#DEBUG_VALUE: epic_internal_filter:image <- [RBP+-112]
	#DEBUG_VALUE: epic_internal_filter:x_dim <- [RBP+-120]
	#DEBUG_VALUE: epic_internal_filter:filt <- [RBP+-168]
	#DEBUG_VALUE: epic_internal_filter:temp <- [RBP+-104]
	#DEBUG_VALUE: epic_internal_filter:x_fdim <- [RBP+-156]
	#DEBUG_VALUE: epic_internal_filter:xgrid_start <- [RBP+24]
	#DEBUG_VALUE: epic_internal_filter:ygrid_start <- [RBP+40]
	#DEBUG_VALUE: epic_internal_filter:y_filt_lin <- [RBP+-156]
	#DEBUG_VALUE: epic_internal_filter:result <- [RBP+-328]
	#DEBUG_VALUE: epic_internal_filter:ygrid_step <- undef
	#DEBUG_VALUE: epic_internal_filter:xgrid_step <- [RBP+-304]
	#DEBUG_VALUE: epic_internal_filter:y_fdim <- undef
	#DEBUG_VALUE: epic_internal_filter:last_ctr_col <- [RBP+-172]
	#DEBUG_VALUE: epic_internal_filter:x_stop <- [RBP+-228]
	#DEBUG_VALUE: epic_internal_filter:sum <- 0.000000e+00
	#DEBUG_VALUE: epic_internal_filter:x_filt <- 0
	#DEBUG_VALUE: epic_internal_filter:y_stop <- [RBP+-320]
	movl	$1, %esi
	movabsq	$-5348053918725710066, %rdi # imm = 0xB5C7E54BCEB7DF0E
	callq	_KExitRegion
	movl	$264, %r12d             # imm = 0x108
	movl	$264, %edi              # imm = 0x108
	callq	_KPushCDep
	movl	$3, %edi
	callq	_KWork
	movq	56(%rbp), %rax
	movq	%rax, %rbx
.Ltmp255:
	#DEBUG_VALUE: epic_internal_filter:result <- RBX
	movq	-152(%rbp), %r13        # 8-byte Reload
	.loc	1 959 7                 # epic.c:959:7
.Ltmp256:
	leaq	(%rbx,%r13,4), %rsi
	movl	$50, %edi
	movl	$4, %edx
	callq	_KStore
	movss	-68(%rbp), %xmm0        # 4-byte Reload
	movss	%xmm0, (%rbx,%r13,4)
.Ltmp257:
	#DEBUG_VALUE: epic_internal_filter:result <- [RBP+-328]
	.loc	1 941 5                 # epic.c:941:5
	incq	%r13
	movl	32(%rbp), %eax
	movl	-192(%rbp), %ebx        # 4-byte Reload
	.loc	1 943 11                # epic.c:943:11
	addl	%eax, %ebx
.Ltmp258:
	#DEBUG_VALUE: epic_internal_filter:x_pos <- EBX
	movl	$1, (%rsp)
	movl	$267, %r15d             # imm = 0x10B
	movl	$267, %edi              # imm = 0x10B
	movl	$6, %esi
	movl	$1, %edx
	movl	$44, %ecx
	movl	$1, %r8d
	movl	$264, %r9d              # imm = 0x108
	callq	_KTimestamp3
	movl	$263, %r14d             # imm = 0x107
	movl	$263, %edi              # imm = 0x107
	movl	$262, %esi              # imm = 0x106
	movl	$1, %edx
	movl	$264, %ecx              # imm = 0x108
	movl	$1, %r8d
	callq	_KTimestamp2
	callq	_KPopCDep
	movl	$2, %esi
	movabsq	$4824260402435848490, %rdi # imm = 0x42F33746A72BF92A
	callq	_KExitRegion
.Ltmp259:
.LBB3_69:                               # %for.cond232
                                        #   Parent Loop BB3_67 Depth=1
                                        # =>  This Loop Header: Depth=2
                                        #       Child Loop BB3_71 Depth 3
                                        #         Child Loop BB3_73 Depth 4
	#DEBUG_VALUE: epic_internal_filter:image <- [RBP+-112]
	#DEBUG_VALUE: epic_internal_filter:x_dim <- [RBP+-120]
	#DEBUG_VALUE: epic_internal_filter:filt <- [RBP+-168]
	#DEBUG_VALUE: epic_internal_filter:temp <- [RBP+-104]
	#DEBUG_VALUE: epic_internal_filter:x_fdim <- [RBP+-156]
	#DEBUG_VALUE: epic_internal_filter:xgrid_start <- [RBP+24]
	#DEBUG_VALUE: epic_internal_filter:ygrid_start <- [RBP+40]
	#DEBUG_VALUE: epic_internal_filter:y_filt_lin <- [RBP+-156]
	#DEBUG_VALUE: epic_internal_filter:result <- [RBP+-328]
	#DEBUG_VALUE: epic_internal_filter:ygrid_step <- undef
	#DEBUG_VALUE: epic_internal_filter:xgrid_step <- [RBP+-304]
	#DEBUG_VALUE: epic_internal_filter:y_fdim <- undef
	#DEBUG_VALUE: epic_internal_filter:last_ctr_col <- [RBP+-172]
	#DEBUG_VALUE: epic_internal_filter:x_stop <- [RBP+-228]
	#DEBUG_VALUE: epic_internal_filter:y_stop <- [RBP+-320]
	movl	$257, %edi              # imm = 0x101
	callq	_KPushCDep
	movl	$44, %edi
	movl	$257, %edx              # imm = 0x101
	movl	%r15d, %esi
	movl	%r12d, %ecx
	callq	_KPhi2To1
	movl	$262, %edi              # imm = 0x106
	movl	$257, %edx              # imm = 0x101
	movl	%r14d, %esi
	movl	%r12d, %ecx
	callq	_KPhi2To1
	movl	$1, %edi
	callq	_KWork
	movl	$44, %edi
	movl	$44, %esi
	xorl	%edx, %edx
	callq	_KTimestamp1
	movl	$264, %edi              # imm = 0x108
	movl	$257, %esi              # imm = 0x101
	movl	$1, %edx
	movl	$44, %ecx
	movl	$1, %r8d
	callq	_KTimestamp2
	movl	$44, %edi
	movl	$264, %esi              # imm = 0x108
	callq	_KPhiAddCond
	movl	$262, %edi              # imm = 0x106
	movl	$264, %esi              # imm = 0x108
	callq	_KPhiAddCond
	movl	$262, %edi              # imm = 0x106
	movl	$262, %esi              # imm = 0x106
	xorl	%edx, %edx
	callq	_KTimestamp1
	callq	_KPopCDep
	.loc	1 941 5                 # epic.c:941:5
	testl	%ebx, %ebx
	jg	.LBB3_77
# BB#70:                                # %for.body234
                                        #   in Loop: Header=BB3_69 Depth=2
	#DEBUG_VALUE: epic_internal_filter:image <- [RBP+-112]
	#DEBUG_VALUE: epic_internal_filter:x_dim <- [RBP+-120]
	#DEBUG_VALUE: epic_internal_filter:filt <- [RBP+-168]
	#DEBUG_VALUE: epic_internal_filter:temp <- [RBP+-104]
	#DEBUG_VALUE: epic_internal_filter:x_fdim <- [RBP+-156]
	#DEBUG_VALUE: epic_internal_filter:xgrid_start <- [RBP+24]
	#DEBUG_VALUE: epic_internal_filter:ygrid_start <- [RBP+40]
	#DEBUG_VALUE: epic_internal_filter:y_filt_lin <- [RBP+-156]
	#DEBUG_VALUE: epic_internal_filter:result <- [RBP+-328]
	#DEBUG_VALUE: epic_internal_filter:ygrid_step <- undef
	#DEBUG_VALUE: epic_internal_filter:xgrid_step <- [RBP+-304]
	#DEBUG_VALUE: epic_internal_filter:y_fdim <- undef
	#DEBUG_VALUE: epic_internal_filter:last_ctr_col <- [RBP+-172]
	#DEBUG_VALUE: epic_internal_filter:x_stop <- [RBP+-228]
	#DEBUG_VALUE: epic_internal_filter:y_stop <- [RBP+-320]
	movq	%r13, -152(%rbp)        # 8-byte Spill
	movl	$2, %esi
	movabsq	$4824260402435848490, %rdi # imm = 0x42F33746A72BF92A
	callq	_KEnterRegion
	movl	$264, %edi              # imm = 0x108
	callq	_KPushCDep
	xorl	%r13d, %r13d
	xorl	%esi, %esi
	movabsq	$-606155988219870430, %rdi # imm = 0xF79680571BADC322
	callq	_KPrepCall
	callq	_KEnqArgConst
	movl	$45, %edi
	callq	_KEnqArg
	movl	$44, %edi
	callq	_KEnqArg
	movl	$4, %edi
	callq	_KEnqArg
	movl	$3, %edi
	callq	_KEnqArg
	.loc	1 944 7                 # epic.c:944:7
.Ltmp260:
	movl	$0, (%rsp)
	movq	-168(%rbp), %rdi        # 8-byte Reload
	movl	-156(%rbp), %esi        # 4-byte Reload
	movl	16(%rbp), %edx
                                        # kill: EDX<def> EDX<kill> RDX<kill>
	movl	%ebx, %ecx
	movl	%ebx, -192(%rbp)        # 4-byte Spill
	movl	-184(%rbp), %r8d        # 4-byte Reload
	movq	-104(%rbp), %r9         # 8-byte Reload
	callq	epic_reflect1
	#DEBUG_VALUE: epic_internal_filter:x_filt <- 0
	#DEBUG_VALUE: epic_internal_filter:sum <- 0.000000e+00
	callq	_KPopCDep
	movl	$1, %esi
	movabsq	$-5348053918725710066, %rdi # imm = 0xB5C7E54BCEB7DF0E
	callq	_KEnterRegion
	xorps	%xmm0, %xmm0
	movss	%xmm0, -68(%rbp)        # 4-byte Spill
	movl	$276, -48(%rbp)         # 4-byte Folded Spill
                                        # imm = 0x114
	movl	$270, %r12d             # imm = 0x10E
	movq	-208(%rbp), %rax        # 8-byte Reload
	movq	%rax, -136(%rbp)        # 8-byte Spill
	movq	-88(%rbp), %r15         # 8-byte Reload
	xorl	%ebx, %ebx
	xorl	%r14d, %r14d
	xorl	%eax, %eax
	movq	%rax, -128(%rbp)        # 8-byte Spill
	jmp	.LBB3_71
	.align	16, 0x90
.LBB3_75:                               # %for.cond238.pre_exit.for.end250
                                        #   in Loop: Header=BB3_71 Depth=3
	#DEBUG_VALUE: epic_internal_filter:image <- [RBP+-112]
	#DEBUG_VALUE: epic_internal_filter:x_dim <- [RBP+-120]
	#DEBUG_VALUE: epic_internal_filter:filt <- [RBP+-168]
	#DEBUG_VALUE: epic_internal_filter:temp <- [RBP+-104]
	#DEBUG_VALUE: epic_internal_filter:x_fdim <- [RBP+-156]
	#DEBUG_VALUE: epic_internal_filter:xgrid_start <- [RBP+24]
	#DEBUG_VALUE: epic_internal_filter:ygrid_start <- [RBP+40]
	#DEBUG_VALUE: epic_internal_filter:y_filt_lin <- [RBP+-156]
	#DEBUG_VALUE: epic_internal_filter:result <- [RBP+-328]
	#DEBUG_VALUE: epic_internal_filter:ygrid_step <- undef
	#DEBUG_VALUE: epic_internal_filter:xgrid_step <- [RBP+-304]
	#DEBUG_VALUE: epic_internal_filter:y_fdim <- undef
	#DEBUG_VALUE: epic_internal_filter:last_ctr_col <- [RBP+-172]
	#DEBUG_VALUE: epic_internal_filter:x_stop <- [RBP+-228]
	#DEBUG_VALUE: epic_internal_filter:sum <- 0.000000e+00
	#DEBUG_VALUE: epic_internal_filter:x_filt <- 0
	#DEBUG_VALUE: epic_internal_filter:y_stop <- [RBP+-320]
	movl	$1, %esi
	movabsq	$-2569921118023377859, %rdi # imm = 0xDC55CE5BF3711C3D
	callq	_KExitRegion
	movl	$272, %r13d             # imm = 0x110
	movl	$272, %edi              # imm = 0x110
	callq	_KPushCDep
	movl	$2, %edi
	callq	_KWork
	movq	-128(%rbp), %rax        # 8-byte Reload
	cmpq	%rax, %rbx
	cmovgeq	%rbx, %rax
	movq	%rax, -128(%rbp)        # 8-byte Spill
	.loc	1 948 7                 # epic.c:948:7
.Ltmp261:
	addq	-88(%rbp), %rbx         # 8-byte Folded Reload
	movl	$1, (%rsp)
	movl	$279, %r14d             # imm = 0x117
	movl	$279, %edi              # imm = 0x117
	movl	$268, %esi              # imm = 0x10C
	movl	$1, %edx
	movl	$278, %ecx              # imm = 0x116
	movl	$1, %r8d
	movl	$272, %r9d              # imm = 0x110
	callq	_KTimestamp3
	movl	$1, (%rsp)
	movl	$274, -48(%rbp)         # 4-byte Folded Spill
                                        # imm = 0x112
	movl	$274, %edi              # imm = 0x112
	movl	$273, %esi              # imm = 0x111
	movl	$1, %edx
	movl	$272, %ecx              # imm = 0x110
	movl	$1, %r8d
	movl	$275, %r9d              # imm = 0x113
	callq	_KTimestamp3
	movl	$1, (%rsp)
	movl	$269, %r12d             # imm = 0x10D
	movl	$269, %edi              # imm = 0x10D
	movl	$268, %esi              # imm = 0x10C
	movl	$1, %edx
	movl	$272, %ecx              # imm = 0x110
	movl	$1, %r8d
	movl	$270, %r9d              # imm = 0x10E
	callq	_KTimestamp3
	callq	_KPopCDep
	movl	$2, %esi
	movabsq	$3010623498432845171, %rdi # imm = 0x29C7E21EF0889573
	callq	_KExitRegion
	movq	-136(%rbp), %rax        # 8-byte Reload
	addq	-144(%rbp), %rax        # 8-byte Folded Reload
	movq	%rax, -136(%rbp)        # 8-byte Spill
	movq	%rbx, %r15
	movl	$277, %ebx              # imm = 0x115
.LBB3_71:                               # %for.cond235
                                        #   Parent Loop BB3_67 Depth=1
                                        #     Parent Loop BB3_69 Depth=2
                                        # =>    This Loop Header: Depth=3
                                        #         Child Loop BB3_73 Depth 4
	#DEBUG_VALUE: epic_internal_filter:image <- [RBP+-112]
	#DEBUG_VALUE: epic_internal_filter:x_dim <- [RBP+-120]
	#DEBUG_VALUE: epic_internal_filter:filt <- [RBP+-168]
	#DEBUG_VALUE: epic_internal_filter:temp <- [RBP+-104]
	#DEBUG_VALUE: epic_internal_filter:x_fdim <- [RBP+-156]
	#DEBUG_VALUE: epic_internal_filter:xgrid_start <- [RBP+24]
	#DEBUG_VALUE: epic_internal_filter:ygrid_start <- [RBP+40]
	#DEBUG_VALUE: epic_internal_filter:y_filt_lin <- [RBP+-156]
	#DEBUG_VALUE: epic_internal_filter:result <- [RBP+-328]
	#DEBUG_VALUE: epic_internal_filter:ygrid_step <- undef
	#DEBUG_VALUE: epic_internal_filter:xgrid_step <- [RBP+-304]
	#DEBUG_VALUE: epic_internal_filter:y_fdim <- undef
	#DEBUG_VALUE: epic_internal_filter:last_ctr_col <- [RBP+-172]
	#DEBUG_VALUE: epic_internal_filter:x_stop <- [RBP+-228]
	#DEBUG_VALUE: epic_internal_filter:sum <- 0.000000e+00
	#DEBUG_VALUE: epic_internal_filter:x_filt <- 0
	#DEBUG_VALUE: epic_internal_filter:y_stop <- [RBP+-320]
	movq	%r15, -80(%rbp)         # 8-byte Spill
	movl	$264, %edi              # imm = 0x108
	callq	_KPushCDep
	movl	$278, %edi              # imm = 0x116
	movl	$264, %edx              # imm = 0x108
	movl	%r14d, %esi
	movl	%r13d, %ecx
	callq	_KPhi2To1
	movl	$50, %edi
	movl	$264, %edx              # imm = 0x108
	movl	%ebx, %esi
	movl	%r13d, %ecx
	callq	_KPhi2To1
	movl	$273, %edi              # imm = 0x111
	movl	$264, %edx              # imm = 0x108
	movl	-48(%rbp), %esi         # 4-byte Reload
	movl	%r13d, %ecx
	callq	_KPhi2To1
	movl	$268, %edi              # imm = 0x10C
	movl	$264, %edx              # imm = 0x108
	movl	%r12d, %esi
	movl	%r13d, %ecx
	callq	_KPhi2To1
	movl	$1, %edi
	callq	_KWork
	movl	$50, %edi
	movl	$50, %esi
	xorl	%edx, %edx
	callq	_KTimestamp1
	movl	$1, (%rsp)
	movl	$272, %edi              # imm = 0x110
	movl	$268, %esi              # imm = 0x10C
	movl	$1, %edx
	movl	$271, %ecx              # imm = 0x10F
	movl	$1, %r8d
	movl	$264, %r9d              # imm = 0x108
	callq	_KTimestamp3
	movl	$278, %edi              # imm = 0x116
	movl	$272, %esi              # imm = 0x110
	callq	_KPhiAddCond
	movl	$278, %edi              # imm = 0x116
	movl	$278, %esi              # imm = 0x116
	xorl	%edx, %edx
	callq	_KTimestamp1
	movl	$50, %edi
	movl	$272, %esi              # imm = 0x110
	callq	_KPhiAddCond
	movl	$273, %edi              # imm = 0x111
	movl	$272, %esi              # imm = 0x110
	callq	_KPhiAddCond
	movl	$268, %edi              # imm = 0x10C
	movl	$272, %esi              # imm = 0x110
	callq	_KPhiAddCond
	movl	$273, %edi              # imm = 0x111
	movl	$273, %esi              # imm = 0x111
	xorl	%edx, %edx
	callq	_KTimestamp1
	movl	$268, %edi              # imm = 0x10C
	movl	$268, %esi              # imm = 0x10C
	xorl	%edx, %edx
	callq	_KTimestamp1
	callq	_KPopCDep
	.loc	1 948 34 is_stmt 0      # epic.c:948:34
	cmpq	-96(%rbp), %r15         # 8-byte Folded Reload
	movq	%r15, %rbx
.Ltmp262:
	.loc	1 948 7                 # epic.c:948:7
	jg	.LBB3_76
# BB#72:                                # %for.body237
                                        #   in Loop: Header=BB3_71 Depth=3
	#DEBUG_VALUE: epic_internal_filter:image <- [RBP+-112]
	#DEBUG_VALUE: epic_internal_filter:x_dim <- [RBP+-120]
	#DEBUG_VALUE: epic_internal_filter:filt <- [RBP+-168]
	#DEBUG_VALUE: epic_internal_filter:temp <- [RBP+-104]
	#DEBUG_VALUE: epic_internal_filter:x_fdim <- [RBP+-156]
	#DEBUG_VALUE: epic_internal_filter:xgrid_start <- [RBP+24]
	#DEBUG_VALUE: epic_internal_filter:ygrid_start <- [RBP+40]
	#DEBUG_VALUE: epic_internal_filter:y_filt_lin <- [RBP+-156]
	#DEBUG_VALUE: epic_internal_filter:result <- [RBP+-328]
	#DEBUG_VALUE: epic_internal_filter:ygrid_step <- undef
	#DEBUG_VALUE: epic_internal_filter:xgrid_step <- [RBP+-304]
	#DEBUG_VALUE: epic_internal_filter:y_fdim <- undef
	#DEBUG_VALUE: epic_internal_filter:last_ctr_col <- [RBP+-172]
	#DEBUG_VALUE: epic_internal_filter:x_stop <- [RBP+-228]
	#DEBUG_VALUE: epic_internal_filter:sum <- 0.000000e+00
	#DEBUG_VALUE: epic_internal_filter:x_filt <- 0
	#DEBUG_VALUE: epic_internal_filter:y_stop <- [RBP+-320]
	movl	$2, %esi
	movabsq	$3010623498432845171, %rdi # imm = 0x29C7E21EF0889573
	callq	_KEnterRegion
	movl	$272, %edi              # imm = 0x110
	callq	_KPushCDep
	movl	$1, %edi
	callq	_KWork
	movq	-128(%rbp), %rax        # 8-byte Reload
	cltq
	movq	%rax, -128(%rbp)        # 8-byte Spill
	movq	%rax, %r14
	movl	$283, -56(%rbp)         # 4-byte Folded Spill
                                        # imm = 0x11B
	xorl	%r15d, %r15d
	movl	$283, %edi              # imm = 0x11B
	movl	$278, %esi              # imm = 0x116
	xorl	%edx, %edx
	movl	$272, %ecx              # imm = 0x110
	xorl	%r8d, %r8d
	callq	_KTimestamp2
	callq	_KPopCDep
	movl	$1, %esi
	movabsq	$-2569921118023377859, %rdi # imm = 0xDC55CE5BF3711C3D
	callq	_KEnterRegion
	movq	-104(%rbp), %rax        # 8-byte Reload
	movq	%r14, %rcx
	leaq	(%rax,%rcx,4), %r14
	movl	$50, -64(%rbp)          # 4-byte Folded Spill
	movl	$273, %r12d             # imm = 0x111
	movq	-136(%rbp), %r13        # 8-byte Reload
	movq	%rcx, -48(%rbp)         # 8-byte Spill
	jmp	.LBB3_73
	.align	16, 0x90
.LBB3_74:                               # %for.body240
                                        #   in Loop: Header=BB3_73 Depth=4
	#DEBUG_VALUE: epic_internal_filter:image <- [RBP+-112]
	#DEBUG_VALUE: epic_internal_filter:x_dim <- [RBP+-120]
	#DEBUG_VALUE: epic_internal_filter:filt <- [RBP+-168]
	#DEBUG_VALUE: epic_internal_filter:temp <- [RBP+-104]
	#DEBUG_VALUE: epic_internal_filter:x_fdim <- [RBP+-156]
	#DEBUG_VALUE: epic_internal_filter:xgrid_start <- [RBP+24]
	#DEBUG_VALUE: epic_internal_filter:ygrid_start <- [RBP+40]
	#DEBUG_VALUE: epic_internal_filter:y_filt_lin <- [RBP+-156]
	#DEBUG_VALUE: epic_internal_filter:result <- [RBP+-328]
	#DEBUG_VALUE: epic_internal_filter:ygrid_step <- undef
	#DEBUG_VALUE: epic_internal_filter:xgrid_step <- [RBP+-304]
	#DEBUG_VALUE: epic_internal_filter:y_fdim <- undef
	#DEBUG_VALUE: epic_internal_filter:last_ctr_col <- [RBP+-172]
	#DEBUG_VALUE: epic_internal_filter:x_stop <- [RBP+-228]
	#DEBUG_VALUE: epic_internal_filter:sum <- 0.000000e+00
	#DEBUG_VALUE: epic_internal_filter:x_filt <- 0
	#DEBUG_VALUE: epic_internal_filter:y_stop <- [RBP+-320]
	movl	$2, %esi
	movabsq	$8993524214900270137, %rbx # imm = 0x7CCF6A9FAC012439
	movq	%rbx, %rdi
	callq	_KEnterRegion
	movl	$281, %r15d             # imm = 0x119
	movl	$281, %edi              # imm = 0x119
	callq	_KPushCDep
	movl	$17, %edi
	callq	_KWork
	movl	$46, %esi
	movl	$47, %edx
	movl	$4, %ecx
	movq	%r13, %rdi
	callq	_KLoad1
	.loc	1 954 18 is_stmt 1      # epic.c:954:18
.Ltmp263:
	movss	(%r13), %xmm0
	movss	%xmm0, -56(%rbp)        # 4-byte Spill
	movl	$48, %esi
	movl	$49, %edx
	movl	$4, %ecx
	movq	%r14, %rdi
	callq	_KLoad1
	movss	-56(%rbp), %xmm1        # 4-byte Reload
	mulss	(%r14), %xmm1
	.loc	1 954 11 is_stmt 0      # epic.c:954:11
	movss	-68(%rbp), %xmm0        # 4-byte Reload
	addss	%xmm1, %xmm0
.Ltmp264:
	#DEBUG_VALUE: epic_internal_filter:sum <- [RBP+-68]
	.loc	1 951 9 is_stmt 1       # epic.c:951:9
	movss	%xmm0, -68(%rbp)        # 4-byte Spill
	incq	%r12
	movq	%r12, -48(%rbp)         # 8-byte Spill
	movl	$7, 16(%rsp)
	movl	$48, 8(%rsp)
	movl	$7, (%rsp)
	movl	$284, -64(%rbp)         # 4-byte Folded Spill
                                        # imm = 0x11C
	movl	$284, %edi              # imm = 0x11C
	movl	$277, %esi              # imm = 0x115
	movl	$2, %edx
	movl	$281, %ecx              # imm = 0x119
	movl	$7, %r8d
	movl	$46, %r9d
	callq	_KTimestamp4
	movl	$282, -56(%rbp)         # 4-byte Folded Spill
                                        # imm = 0x11A
	movl	$282, %edi              # imm = 0x11A
	movl	$49, %esi
	movl	$1, %edx
	movl	$281, %ecx              # imm = 0x119
	movl	$1, %r8d
	callq	_KTimestamp2
	movl	$280, %r12d             # imm = 0x118
	movl	$280, %edi              # imm = 0x118
	movl	$47, %esi
	movl	$1, %edx
	movl	$281, %ecx              # imm = 0x119
	movl	$1, %r8d
	callq	_KTimestamp2
	callq	_KPopCDep
	movl	$2, %esi
	movq	%rbx, %rdi
	movq	-80(%rbp), %rbx         # 8-byte Reload
	callq	_KExitRegion
	addq	$4, %r13
	addq	$4, %r14
.Ltmp265:
.LBB3_73:                               # %for.cond238
                                        #   Parent Loop BB3_67 Depth=1
                                        #     Parent Loop BB3_69 Depth=2
                                        #       Parent Loop BB3_71 Depth=3
                                        # =>      This Inner Loop Header: Depth=4
	#DEBUG_VALUE: epic_internal_filter:image <- [RBP+-112]
	#DEBUG_VALUE: epic_internal_filter:x_dim <- [RBP+-120]
	#DEBUG_VALUE: epic_internal_filter:filt <- [RBP+-168]
	#DEBUG_VALUE: epic_internal_filter:temp <- [RBP+-104]
	#DEBUG_VALUE: epic_internal_filter:x_fdim <- [RBP+-156]
	#DEBUG_VALUE: epic_internal_filter:xgrid_start <- [RBP+24]
	#DEBUG_VALUE: epic_internal_filter:ygrid_start <- [RBP+40]
	#DEBUG_VALUE: epic_internal_filter:y_filt_lin <- [RBP+-156]
	#DEBUG_VALUE: epic_internal_filter:result <- [RBP+-328]
	#DEBUG_VALUE: epic_internal_filter:ygrid_step <- undef
	#DEBUG_VALUE: epic_internal_filter:xgrid_step <- [RBP+-304]
	#DEBUG_VALUE: epic_internal_filter:y_fdim <- undef
	#DEBUG_VALUE: epic_internal_filter:last_ctr_col <- [RBP+-172]
	#DEBUG_VALUE: epic_internal_filter:x_stop <- [RBP+-228]
	#DEBUG_VALUE: epic_internal_filter:sum <- 0.000000e+00
	#DEBUG_VALUE: epic_internal_filter:x_filt <- 0
	#DEBUG_VALUE: epic_internal_filter:y_stop <- [RBP+-320]
	movl	$272, %edi              # imm = 0x110
	callq	_KPushCDep
	movl	$277, %edi              # imm = 0x115
	movl	$272, %edx              # imm = 0x110
	movl	-64(%rbp), %esi         # 4-byte Reload
	movl	%r15d, %ecx
	callq	_KPhi2To1
	movl	$49, %edi
	movl	$272, %edx              # imm = 0x110
	movl	-56(%rbp), %esi         # 4-byte Reload
	movl	%r15d, %ecx
	callq	_KPhi2To1
	movl	$47, %edi
	movl	$272, %edx              # imm = 0x110
	movl	%r12d, %esi
	movl	%r15d, %ecx
	callq	_KPhi2To1
	movl	$1, %edi
	callq	_KWork
	movl	$1, (%rsp)
	movl	$281, %edi              # imm = 0x119
	movl	$268, %esi              # imm = 0x10C
	movl	$1, %edx
	movl	$272, %ecx              # imm = 0x110
	movl	$1, %r8d
	movl	$49, %r9d
	callq	_KTimestamp3
	movl	$277, %edi              # imm = 0x115
	movl	$281, %esi              # imm = 0x119
	callq	_KPhiAddCond
	movl	$49, %edi
	movl	$281, %esi              # imm = 0x119
	callq	_KPhiAddCond
	movl	$47, %edi
	movl	$281, %esi              # imm = 0x119
	callq	_KPhiAddCond
	movl	$47, %edi
	movl	$47, %esi
	xorl	%edx, %edx
	callq	_KTimestamp1
	movl	$49, %edi
	movl	$49, %esi
	xorl	%edx, %edx
	callq	_KTimestamp1
	movl	$277, %edi              # imm = 0x115
	movl	$277, %esi              # imm = 0x115
	xorl	%edx, %edx
	callq	_KTimestamp1
	callq	_KPopCDep
	movq	-48(%rbp), %r12         # 8-byte Reload
	.loc	1 951 9 is_stmt 0       # epic.c:951:9
	cmpq	%rbx, %r12
	jl	.LBB3_74
	jmp	.LBB3_75
.Ltmp266:
	.align	16, 0x90
.LBB3_77:                               # %for.cond232.pre_exit.for.end260
                                        #   in Loop: Header=BB3_67 Depth=1
	#DEBUG_VALUE: epic_internal_filter:image <- [RBP+-112]
	#DEBUG_VALUE: epic_internal_filter:x_dim <- [RBP+-120]
	#DEBUG_VALUE: epic_internal_filter:filt <- [RBP+-168]
	#DEBUG_VALUE: epic_internal_filter:temp <- [RBP+-104]
	#DEBUG_VALUE: epic_internal_filter:x_fdim <- [RBP+-156]
	#DEBUG_VALUE: epic_internal_filter:xgrid_start <- [RBP+24]
	#DEBUG_VALUE: epic_internal_filter:ygrid_start <- [RBP+40]
	#DEBUG_VALUE: epic_internal_filter:y_filt_lin <- [RBP+-156]
	#DEBUG_VALUE: epic_internal_filter:result <- [RBP+-328]
	#DEBUG_VALUE: epic_internal_filter:ygrid_step <- undef
	#DEBUG_VALUE: epic_internal_filter:xgrid_step <- [RBP+-304]
	#DEBUG_VALUE: epic_internal_filter:y_fdim <- undef
	#DEBUG_VALUE: epic_internal_filter:last_ctr_col <- [RBP+-172]
	#DEBUG_VALUE: epic_internal_filter:x_stop <- [RBP+-228]
	#DEBUG_VALUE: epic_internal_filter:y_stop <- [RBP+-320]
	movl	$1, %esi
	movabsq	$-5051583732146342756, %rdi # imm = 0xB9E52B5C2C46749C
	callq	_KExitRegion
	movl	$257, %edi              # imm = 0x101
	callq	_KPushCDep
	xorl	%r12d, %r12d
	xorl	%esi, %esi
	movabsq	$5870085393834502610, %rdi # imm = 0x5176BB908CB6E9D2
	callq	_KPrepCall
	callq	_KEnqArgConst
	movl	$45, %edi
	callq	_KEnqArg
	callq	_KEnqArgConst
	movl	$4, %edi
	callq	_KEnqArg
	movl	$3, %edi
	callq	_KEnqArg
	.loc	1 962 5 is_stmt 1       # epic.c:962:5
	movl	$0, (%rsp)
	xorl	%ecx, %ecx
	movq	-168(%rbp), %rdi        # 8-byte Reload
	movl	-156(%rbp), %esi        # 4-byte Reload
	movl	16(%rbp), %edx
                                        # kill: EDX<def> EDX<kill> RDX<kill>
	movl	-184(%rbp), %r8d        # 4-byte Reload
	movq	-104(%rbp), %r9         # 8-byte Reload
	callq	epic_reflect1
	movslq	%r13d, %rax
	movq	%rax, -192(%rbp)        # 8-byte Spill
	movl	$289, %r15d             # imm = 0x121
	movl	$289, %edi              # imm = 0x121
	movl	$257, %esi              # imm = 0x101
	xorl	%edx, %edx
	movl	$262, %ecx              # imm = 0x106
	xorl	%r8d, %r8d
	callq	_KTimestamp2
	callq	_KPopCDep
	movl	$1, %esi
	movabsq	$2106949212065453196, %rdi # imm = 0x1D3D632530F3548C
	callq	_KEnterRegion
	movl	$68, %r14d
	movl	$292, %r13d             # imm = 0x124
	movl	-240(%rbp), %eax        # 4-byte Reload
	movl	%eax, -200(%rbp)        # 4-byte Spill
	movq	-216(%rbp), %rax        # 8-byte Reload
	movl	%eax, %ebx
	jmp	.LBB3_78
	.align	16, 0x90
.LBB3_85:                               # %for.cond264.pre_exit.for.end284
                                        #   in Loop: Header=BB3_78 Depth=2
	#DEBUG_VALUE: epic_internal_filter:image <- [RBP+-112]
	#DEBUG_VALUE: epic_internal_filter:x_dim <- [RBP+-120]
	#DEBUG_VALUE: epic_internal_filter:filt <- [RBP+-168]
	#DEBUG_VALUE: epic_internal_filter:temp <- [RBP+-104]
	#DEBUG_VALUE: epic_internal_filter:x_fdim <- [RBP+-156]
	#DEBUG_VALUE: epic_internal_filter:xgrid_start <- [RBP+24]
	#DEBUG_VALUE: epic_internal_filter:ygrid_start <- [RBP+40]
	#DEBUG_VALUE: epic_internal_filter:y_filt_lin <- [RBP+-156]
	#DEBUG_VALUE: epic_internal_filter:result <- [RBP+-328]
	#DEBUG_VALUE: epic_internal_filter:ygrid_step <- undef
	#DEBUG_VALUE: epic_internal_filter:xgrid_step <- [RBP+-304]
	#DEBUG_VALUE: epic_internal_filter:y_fdim <- undef
	#DEBUG_VALUE: epic_internal_filter:last_ctr_col <- [RBP+-172]
	#DEBUG_VALUE: epic_internal_filter:x_stop <- [RBP+-228]
	#DEBUG_VALUE: epic_internal_filter:sum <- 0.000000e+00
	#DEBUG_VALUE: epic_internal_filter:x_filt <- 0
	#DEBUG_VALUE: epic_internal_filter:y_stop <- [RBP+-320]
	movl	$1, %esi
	movabsq	$459196602953339742, %rdi # imm = 0x65F64E0A119935E
	callq	_KExitRegion
	movl	$287, %r12d             # imm = 0x11F
	movl	$287, %edi              # imm = 0x11F
	callq	_KPushCDep
	movl	$4, %edi
	callq	_KWork
	movq	56(%rbp), %rax
	movq	%rax, %r14
.Ltmp267:
	#DEBUG_VALUE: epic_internal_filter:result <- R14
	movq	-192(%rbp), %rbx        # 8-byte Reload
	.loc	1 981 7                 # epic.c:981:7
.Ltmp268:
	leaq	(%r14,%rbx,4), %rsi
	movl	$55, %edi
	movl	$4, %edx
	callq	_KStore
	movss	-68(%rbp), %xmm0        # 4-byte Reload
	movss	%xmm0, (%r14,%rbx,4)
.Ltmp269:
	#DEBUG_VALUE: epic_internal_filter:result <- [RBP+-328]
	.loc	1 964 5                 # epic.c:964:5
	incq	%rbx
	movq	%rbx, -192(%rbp)        # 8-byte Spill
	movl	32(%rbp), %eax
.Ltmp270:
	#DEBUG_VALUE: epic_internal_filter:xgrid_step <- EAX
	movl	-152(%rbp), %ebx        # 4-byte Reload
	.loc	1 966 11                # epic.c:966:11
	addl	%eax, %ebx
.Ltmp271:
	#DEBUG_VALUE: epic_internal_filter:x_pos <- EBX
	.loc	1 964 5                 # epic.c:964:5
	addl	%eax, -200(%rbp)        # 4-byte Folded Spill
.Ltmp272:
	#DEBUG_VALUE: epic_internal_filter:xgrid_step <- [RBP+-304]
	movl	$1, (%rsp)
	movl	$293, %r14d             # imm = 0x125
	movl	$293, %edi              # imm = 0x125
	movl	$6, %esi
	movl	$1, %edx
	movl	$288, %ecx              # imm = 0x120
	movl	$1, %r8d
	movl	$287, %r9d              # imm = 0x11F
	callq	_KTimestamp3
	movl	$1, (%rsp)
	movl	$291, %r13d             # imm = 0x123
	movl	$291, %edi              # imm = 0x123
	movl	$6, %esi
	movl	$1, %edx
	movl	$290, %ecx              # imm = 0x122
	movl	$1, %r8d
	movl	$287, %r9d              # imm = 0x11F
	callq	_KTimestamp3
	movl	$286, %r15d             # imm = 0x11E
	movl	$286, %edi              # imm = 0x11E
	movl	$285, %esi              # imm = 0x11D
	movl	$1, %edx
	movl	$287, %ecx              # imm = 0x11F
	movl	$1, %r8d
	callq	_KTimestamp2
	callq	_KPopCDep
	movl	$2, %esi
	movabsq	$-4703996141738743906, %rdi # imm = 0xBEB80C6E92DAA79E
	callq	_KExitRegion
.Ltmp273:
.LBB3_78:                               # %for.cond261
                                        #   Parent Loop BB3_67 Depth=1
                                        # =>  This Loop Header: Depth=2
                                        #       Child Loop BB3_80 Depth 3
                                        #         Child Loop BB3_82 Depth 4
	#DEBUG_VALUE: epic_internal_filter:image <- [RBP+-112]
	#DEBUG_VALUE: epic_internal_filter:x_dim <- [RBP+-120]
	#DEBUG_VALUE: epic_internal_filter:filt <- [RBP+-168]
	#DEBUG_VALUE: epic_internal_filter:temp <- [RBP+-104]
	#DEBUG_VALUE: epic_internal_filter:x_fdim <- [RBP+-156]
	#DEBUG_VALUE: epic_internal_filter:xgrid_start <- [RBP+24]
	#DEBUG_VALUE: epic_internal_filter:ygrid_start <- [RBP+40]
	#DEBUG_VALUE: epic_internal_filter:y_filt_lin <- [RBP+-156]
	#DEBUG_VALUE: epic_internal_filter:result <- [RBP+-328]
	#DEBUG_VALUE: epic_internal_filter:ygrid_step <- undef
	#DEBUG_VALUE: epic_internal_filter:xgrid_step <- [RBP+-304]
	#DEBUG_VALUE: epic_internal_filter:y_fdim <- undef
	#DEBUG_VALUE: epic_internal_filter:last_ctr_col <- [RBP+-172]
	#DEBUG_VALUE: epic_internal_filter:x_stop <- [RBP+-228]
	#DEBUG_VALUE: epic_internal_filter:y_stop <- [RBP+-320]
	movl	$257, %edi              # imm = 0x101
	callq	_KPushCDep
	movl	$288, %edi              # imm = 0x120
	movl	$257, %edx              # imm = 0x101
	movl	%r14d, %esi
	movl	%r12d, %ecx
	callq	_KPhi2To1
	movl	$290, %edi              # imm = 0x122
	movl	$257, %edx              # imm = 0x101
	movl	%r13d, %esi
	movl	%r12d, %ecx
	callq	_KPhi2To1
	movl	$285, %edi              # imm = 0x11D
	movl	$257, %edx              # imm = 0x101
	movl	%r15d, %esi
	movl	%r12d, %ecx
	callq	_KPhi2To1
	movl	$1, %edi
	callq	_KWork
	movl	$1, (%rsp)
	movl	$287, %edi              # imm = 0x11F
	movl	$99, %esi
	movl	$1, %edx
	movl	$288, %ecx              # imm = 0x120
	movl	$1, %r8d
	movl	$257, %r9d              # imm = 0x101
	callq	_KTimestamp3
	movl	$288, %edi              # imm = 0x120
	movl	$287, %esi              # imm = 0x11F
	callq	_KPhiAddCond
	movl	$288, %edi              # imm = 0x120
	movl	$288, %esi              # imm = 0x120
	xorl	%edx, %edx
	callq	_KTimestamp1
	movl	$290, %edi              # imm = 0x122
	movl	$287, %esi              # imm = 0x11F
	callq	_KPhiAddCond
	movl	$290, %edi              # imm = 0x122
	movl	$290, %esi              # imm = 0x122
	xorl	%edx, %edx
	callq	_KTimestamp1
	movl	$285, %edi              # imm = 0x11D
	movl	$287, %esi              # imm = 0x11F
	callq	_KPhiAddCond
	movl	$285, %edi              # imm = 0x11D
	movl	$285, %esi              # imm = 0x11D
	xorl	%edx, %edx
	callq	_KTimestamp1
	callq	_KPopCDep
	.loc	1 964 5 is_stmt 0       # epic.c:964:5
	cmpl	-172(%rbp), %ebx        # 4-byte Folded Reload
	jge	.LBB3_86
# BB#79:                                # %for.body263
                                        #   in Loop: Header=BB3_78 Depth=2
	#DEBUG_VALUE: epic_internal_filter:image <- [RBP+-112]
	#DEBUG_VALUE: epic_internal_filter:x_dim <- [RBP+-120]
	#DEBUG_VALUE: epic_internal_filter:filt <- [RBP+-168]
	#DEBUG_VALUE: epic_internal_filter:temp <- [RBP+-104]
	#DEBUG_VALUE: epic_internal_filter:x_fdim <- [RBP+-156]
	#DEBUG_VALUE: epic_internal_filter:xgrid_start <- [RBP+24]
	#DEBUG_VALUE: epic_internal_filter:ygrid_start <- [RBP+40]
	#DEBUG_VALUE: epic_internal_filter:y_filt_lin <- [RBP+-156]
	#DEBUG_VALUE: epic_internal_filter:result <- [RBP+-328]
	#DEBUG_VALUE: epic_internal_filter:ygrid_step <- undef
	#DEBUG_VALUE: epic_internal_filter:xgrid_step <- [RBP+-304]
	#DEBUG_VALUE: epic_internal_filter:y_fdim <- undef
	#DEBUG_VALUE: epic_internal_filter:last_ctr_col <- [RBP+-172]
	#DEBUG_VALUE: epic_internal_filter:x_stop <- [RBP+-228]
	#DEBUG_VALUE: epic_internal_filter:y_stop <- [RBP+-320]
	movl	%ebx, -152(%rbp)        # 4-byte Spill
	movl	$2, %esi
	movabsq	$-4703996141738743906, %rdi # imm = 0xBEB80C6E92DAA79E
	callq	_KEnterRegion
	movl	$287, %edi              # imm = 0x11F
	callq	_KPushCDep
	#DEBUG_VALUE: epic_internal_filter:x_filt <- 0
	#DEBUG_VALUE: epic_internal_filter:sum <- 0.000000e+00
	callq	_KPopCDep
	movl	$1, %esi
	movabsq	$459196602953339742, %rdi # imm = 0x65F64E0A119935E
	callq	_KEnterRegion
	xorps	%xmm0, %xmm0
	movss	%xmm0, -68(%rbp)        # 4-byte Spill
	movl	$290, -48(%rbp)         # 4-byte Folded Spill
                                        # imm = 0x122
	movl	$296, %r12d             # imm = 0x128
	xorl	%ebx, %ebx
	movq	-88(%rbp), %r15         # 8-byte Reload
	movl	-200(%rbp), %eax        # 4-byte Reload
	movl	%eax, -136(%rbp)        # 4-byte Spill
	xorl	%r13d, %r13d
	xorl	%r14d, %r14d
	xorl	%eax, %eax
	movq	%rax, -128(%rbp)        # 8-byte Spill
	jmp	.LBB3_80
	.align	16, 0x90
.LBB3_84:                               # %for.cond268.pre_exit.for.end280
                                        #   in Loop: Header=BB3_80 Depth=3
	#DEBUG_VALUE: epic_internal_filter:image <- [RBP+-112]
	#DEBUG_VALUE: epic_internal_filter:x_dim <- [RBP+-120]
	#DEBUG_VALUE: epic_internal_filter:filt <- [RBP+-168]
	#DEBUG_VALUE: epic_internal_filter:temp <- [RBP+-104]
	#DEBUG_VALUE: epic_internal_filter:x_fdim <- [RBP+-156]
	#DEBUG_VALUE: epic_internal_filter:xgrid_start <- [RBP+24]
	#DEBUG_VALUE: epic_internal_filter:ygrid_start <- [RBP+40]
	#DEBUG_VALUE: epic_internal_filter:y_filt_lin <- [RBP+-156]
	#DEBUG_VALUE: epic_internal_filter:result <- [RBP+-328]
	#DEBUG_VALUE: epic_internal_filter:ygrid_step <- undef
	#DEBUG_VALUE: epic_internal_filter:xgrid_step <- [RBP+-304]
	#DEBUG_VALUE: epic_internal_filter:y_fdim <- undef
	#DEBUG_VALUE: epic_internal_filter:last_ctr_col <- [RBP+-172]
	#DEBUG_VALUE: epic_internal_filter:x_stop <- [RBP+-228]
	#DEBUG_VALUE: epic_internal_filter:sum <- 0.000000e+00
	#DEBUG_VALUE: epic_internal_filter:x_filt <- 0
	#DEBUG_VALUE: epic_internal_filter:y_stop <- [RBP+-320]
	movl	$1, %esi
	movabsq	$2168674156888959123, %rdi # imm = 0x1E18ADA7D2EFA893
	callq	_KExitRegion
	movq	%rbx, %r15
	movl	$298, %ebx              # imm = 0x12A
	movl	$298, %edi              # imm = 0x12A
	callq	_KPushCDep
	movl	$2, %edi
	callq	_KWork
	movq	-128(%rbp), %rax        # 8-byte Reload
	cmpq	%rax, %r15
	cmovgeq	%r15, %rax
	movq	%rax, -128(%rbp)        # 8-byte Spill
	.loc	1 970 7 is_stmt 1       # epic.c:970:7
.Ltmp274:
	movq	-120(%rbp), %rax        # 8-byte Reload
	addl	%eax, -136(%rbp)        # 4-byte Folded Spill
	addq	-88(%rbp), %r15         # 8-byte Folded Reload
	movl	$1, (%rsp)
	movl	$303, %r14d             # imm = 0x12F
	movl	$303, %edi              # imm = 0x12F
	movl	$294, %esi              # imm = 0x126
	movl	$1, %edx
	movl	$302, %ecx              # imm = 0x12E
	movl	$1, %r8d
	movl	$298, %r9d              # imm = 0x12A
	callq	_KTimestamp3
	movl	$1, (%rsp)
	movl	$300, -48(%rbp)         # 4-byte Folded Spill
                                        # imm = 0x12C
	movl	$300, %edi              # imm = 0x12C
	movl	$1, %esi
	movl	$1, %edx
	movl	$299, %ecx              # imm = 0x12B
	movl	$1, %r8d
	movl	$298, %r9d              # imm = 0x12A
	callq	_KTimestamp3
	movl	$1, (%rsp)
	movl	$295, %r12d             # imm = 0x127
	movl	$295, %edi              # imm = 0x127
	movl	$294, %esi              # imm = 0x126
	movl	$1, %edx
	movl	$298, %ecx              # imm = 0x12A
	movl	$1, %r8d
	movl	$296, %r9d              # imm = 0x128
	callq	_KTimestamp3
	callq	_KPopCDep
	movl	$2, %esi
	movabsq	$3220150799157313855, %rdi # imm = 0x2CB046173AF6413F
	callq	_KExitRegion
	movl	$301, %r13d             # imm = 0x12D
.LBB3_80:                               # %for.cond264
                                        #   Parent Loop BB3_67 Depth=1
                                        #     Parent Loop BB3_78 Depth=2
                                        # =>    This Loop Header: Depth=3
                                        #         Child Loop BB3_82 Depth 4
	#DEBUG_VALUE: epic_internal_filter:image <- [RBP+-112]
	#DEBUG_VALUE: epic_internal_filter:x_dim <- [RBP+-120]
	#DEBUG_VALUE: epic_internal_filter:filt <- [RBP+-168]
	#DEBUG_VALUE: epic_internal_filter:temp <- [RBP+-104]
	#DEBUG_VALUE: epic_internal_filter:x_fdim <- [RBP+-156]
	#DEBUG_VALUE: epic_internal_filter:xgrid_start <- [RBP+24]
	#DEBUG_VALUE: epic_internal_filter:ygrid_start <- [RBP+40]
	#DEBUG_VALUE: epic_internal_filter:y_filt_lin <- [RBP+-156]
	#DEBUG_VALUE: epic_internal_filter:result <- [RBP+-328]
	#DEBUG_VALUE: epic_internal_filter:ygrid_step <- undef
	#DEBUG_VALUE: epic_internal_filter:xgrid_step <- [RBP+-304]
	#DEBUG_VALUE: epic_internal_filter:y_fdim <- undef
	#DEBUG_VALUE: epic_internal_filter:last_ctr_col <- [RBP+-172]
	#DEBUG_VALUE: epic_internal_filter:x_stop <- [RBP+-228]
	#DEBUG_VALUE: epic_internal_filter:sum <- 0.000000e+00
	#DEBUG_VALUE: epic_internal_filter:x_filt <- 0
	#DEBUG_VALUE: epic_internal_filter:y_stop <- [RBP+-320]
	movq	%r15, -80(%rbp)         # 8-byte Spill
	movl	$287, %edi              # imm = 0x11F
	callq	_KPushCDep
	movl	$302, %edi              # imm = 0x12E
	movl	$287, %edx              # imm = 0x11F
	movl	%r14d, %esi
	movl	%ebx, %ecx
	callq	_KPhi2To1
	movl	$55, %edi
	movl	$287, %edx              # imm = 0x11F
	movl	%r13d, %esi
	movl	%ebx, %ecx
	callq	_KPhi2To1
	movl	$299, %edi              # imm = 0x12B
	movl	$287, %edx              # imm = 0x11F
	movl	-48(%rbp), %esi         # 4-byte Reload
	movl	%ebx, %ecx
	callq	_KPhi2To1
	movl	$294, %edi              # imm = 0x126
	movl	$287, %edx              # imm = 0x11F
	movl	%r12d, %esi
	movl	%ebx, %ecx
	callq	_KPhi2To1
	movl	$1, %edi
	callq	_KWork
	movl	$55, %edi
	movl	$55, %esi
	xorl	%edx, %edx
	callq	_KTimestamp1
	movl	$306, %edi              # imm = 0x132
	movl	$287, %esi              # imm = 0x11F
	xorl	%edx, %edx
	movl	$299, %ecx              # imm = 0x12B
	xorl	%r8d, %r8d
	callq	_KTimestamp2
	movl	$1, (%rsp)
	movl	$298, %edi              # imm = 0x12A
	movl	$287, %esi              # imm = 0x11F
	movl	$1, %edx
	movl	$294, %ecx              # imm = 0x126
	movl	$1, %r8d
	movl	$297, %r9d              # imm = 0x129
	callq	_KTimestamp3
	movl	$302, %edi              # imm = 0x12E
	movl	$298, %esi              # imm = 0x12A
	callq	_KPhiAddCond
	movl	$302, %edi              # imm = 0x12E
	movl	$302, %esi              # imm = 0x12E
	xorl	%edx, %edx
	callq	_KTimestamp1
	movl	$55, %edi
	movl	$298, %esi              # imm = 0x12A
	callq	_KPhiAddCond
	movl	$299, %edi              # imm = 0x12B
	movl	$298, %esi              # imm = 0x12A
	callq	_KPhiAddCond
	movl	$299, %edi              # imm = 0x12B
	movl	$299, %esi              # imm = 0x12B
	xorl	%edx, %edx
	callq	_KTimestamp1
	movl	$294, %edi              # imm = 0x126
	movl	$298, %esi              # imm = 0x12A
	callq	_KPhiAddCond
	movl	$294, %edi              # imm = 0x126
	movl	$294, %esi              # imm = 0x126
	xorl	%edx, %edx
	callq	_KTimestamp1
	callq	_KPopCDep
	.loc	1 970 34 is_stmt 0      # epic.c:970:34
	cmpq	-96(%rbp), %r15         # 8-byte Folded Reload
	movq	%r15, %rbx
.Ltmp275:
	.loc	1 970 7                 # epic.c:970:7
	jg	.LBB3_85
# BB#81:                                # %for.body266
                                        #   in Loop: Header=BB3_80 Depth=3
	#DEBUG_VALUE: epic_internal_filter:image <- [RBP+-112]
	#DEBUG_VALUE: epic_internal_filter:x_dim <- [RBP+-120]
	#DEBUG_VALUE: epic_internal_filter:filt <- [RBP+-168]
	#DEBUG_VALUE: epic_internal_filter:temp <- [RBP+-104]
	#DEBUG_VALUE: epic_internal_filter:x_fdim <- [RBP+-156]
	#DEBUG_VALUE: epic_internal_filter:xgrid_start <- [RBP+24]
	#DEBUG_VALUE: epic_internal_filter:ygrid_start <- [RBP+40]
	#DEBUG_VALUE: epic_internal_filter:y_filt_lin <- [RBP+-156]
	#DEBUG_VALUE: epic_internal_filter:result <- [RBP+-328]
