	.text
	.file	"jfdctint.simplifycfg.mem2reg.indvars.elimsinglephis.criticalpath.regioninstrument.renamemain.O3.bc"
	.text
	.globl	jfdctint_init
	.align	16, 0x90
	.type	jfdctint_init,@function
jfdctint_init:                          # @jfdctint_init
.Lfunc_begin0:
	.loc	1 145 0                 # jfdctint.c:145:0
	.cfi_startproc
# BB#0:                                 # %entry
	pushq	%rbp
.Ltmp0:
	.cfi_def_cfa_offset 16
.Ltmp1:
	.cfi_offset %rbp, -16
	movq	%rsp, %rbp
.Ltmp2:
	.cfi_def_cfa_register %rbp
	pushq	%r15
	pushq	%r14
	pushq	%r13
	pushq	%r12
	pushq	%rbx
	pushq	%rax
.Ltmp3:
	.cfi_offset %rbx, -56
.Ltmp4:
	.cfi_offset %r12, -48
.Ltmp5:
	.cfi_offset %r13, -40
.Ltmp6:
	.cfi_offset %r14, -32
.Ltmp7:
	.cfi_offset %r15, -24
	movabsq	$-7272666277375170851, %rdi # imm = 0x9B124C8D8F1726DD
	movabsq	$5608977045547930225, %rbx # imm = 0x4DD716E7C1345271
	xorl	%r14d, %r14d
	xorl	%esi, %esi
	callq	_KEnterRegion
	movl	$5, %edi
	movl	$2, %esi
	callq	_KPrepRTable
.Ltmp8:
	#DEBUG_VALUE: jfdctint_init:i <- 0
	#DEBUG_VALUE: jfdctint_init:seed <- 1
	movl	$4, %edi
	callq	_KInduction
	movl	$1, %r15d
	movl	$1, %esi
	movq	%rbx, %rdi
	callq	_KEnterRegion
	movabsq	$8898888456827140221, %r12 # imm = 0x7B7F33E73501787D
	xorl	%r13d, %r13d
	xorl	%ebx, %ebx
	jmp	.LBB0_1
	.align	16, 0x90
.LBB0_2:                                # %for.body
                                        #   in Loop: Header=BB0_1 Depth=1
	#DEBUG_VALUE: jfdctint_init:seed <- 1
	#DEBUG_VALUE: jfdctint_init:i <- 0
	movl	$2, %esi
	movq	%r12, %rdi
	callq	_KEnterRegion
	movl	$3, %r13d
	movl	$3, %edi
	callq	_KPushCDep
	movl	$14, %edi
	callq	_KWork
	.loc	1 154 16 prologue_end   # jfdctint.c:154:16
.Ltmp9:
	imull	$133, %r15d, %eax
	.loc	1 154 14 is_stmt 0      # jfdctint.c:154:14
	leal	81(%rax), %ecx
	.loc	1 154 12                # jfdctint.c:154:12
	movslq	%ecx, %r15
	imulq	$-2147450879, %r15, %rcx # imm = 0xFFFFFFFF80008001
	shrq	$32, %rcx
	leal	81(%rcx,%rax), %eax
	movl	%eax, %ecx
	shrl	$31, %ecx
	sarl	$15, %eax
	addl	%ecx, %eax
	imull	$65535, %eax, %eax      # imm = 0xFFFF
	subl	%eax, %r15d
.Ltmp10:
	#DEBUG_VALUE: jfdctint_init:seed <- R15D
	movl	$1, %ebx
	movl	$1, %edi
	movl	$2, %esi
	movl	$13, %edx
	movl	$3, %ecx
	movl	$13, %r8d
	callq	_KTimestamp2
	leaq	jfdctint_data(%r14), %rsi
	movl	$1, %edi
	movl	$4, %edx
	callq	_KStore
	.loc	1 155 5 is_stmt 1       # jfdctint.c:155:5
	movl	%r15d, jfdctint_data(%r14)
	callq	_KPopCDep
	movl	$2, %esi
	movq	%r12, %rdi
	callq	_KExitRegion
	addq	$4, %r14
.Ltmp11:
.LBB0_1:                                # %for.cond
                                        # =>This Inner Loop Header: Depth=1
	#DEBUG_VALUE: jfdctint_init:seed <- 1
	#DEBUG_VALUE: jfdctint_init:i <- 0
	movl	$2, %edi
	movl	%ebx, %esi
	movl	%r13d, %edx
	callq	_KPhi1To1
	movl	$1, %edi
	callq	_KWork
	movl	$2, %edi
	movl	$2, %esi
	xorl	%edx, %edx
	callq	_KTimestamp1
	movl	$3, %edi
	movl	$4, %esi
	movl	$1, %edx
	callq	_KTimestamp1
	movl	$2, %edi
	movl	$3, %esi
	callq	_KPhiAddCond
	.loc	1 153 3                 # jfdctint.c:153:3
	cmpq	$256, %r14              # imm = 0x100
	jne	.LBB0_2
.Ltmp12:
# BB#3:                                 # %for.cond.pre_exit.for.end
	#DEBUG_VALUE: jfdctint_init:seed <- 1
	#DEBUG_VALUE: jfdctint_init:i <- 0
	movl	$1, %esi
	movabsq	$5608977045547930225, %rdi # imm = 0x4DD716E7C1345271
	callq	_KExitRegion
	xorl	%esi, %esi
	movabsq	$-7272666277375170851, %rdi # imm = 0x9B124C8D8F1726DD
	addq	$8, %rsp
	popq	%rbx
	popq	%r12
	popq	%r13
	popq	%r14
	popq	%r15
	popq	%rbp
	jmp	_KExitRegion            # TAILCALL
.Ltmp13:
	.size	jfdctint_init, .Ltmp13-jfdctint_init
.Lfunc_end0:
	.cfi_endproc

	.globl	jfdctint_return
	.align	16, 0x90
	.type	jfdctint_return,@function
jfdctint_return:                        # @jfdctint_return
.Lfunc_begin1:
	.loc	1 162 0                 # jfdctint.c:162:0
	.cfi_startproc
# BB#0:                                 # %entry
	pushq	%rbp
.Ltmp14:
	.cfi_def_cfa_offset 16
.Ltmp15:
	.cfi_offset %rbp, -16
	movq	%rsp, %rbp
.Ltmp16:
	.cfi_def_cfa_register %rbp
	pushq	%r15
	pushq	%r14
	pushq	%r13
	pushq	%r12
	pushq	%rbx
	pushq	%rax
.Ltmp17:
	.cfi_offset %rbx, -56
.Ltmp18:
	.cfi_offset %r12, -48
.Ltmp19:
	.cfi_offset %r13, -40
.Ltmp20:
	.cfi_offset %r14, -32
.Ltmp21:
	.cfi_offset %r15, -24
	movabsq	$-1314664642590496405, %rdi # imm = 0xEDC15F7913A0A96B
	movabsq	$8947196392642900940, %rbx # imm = 0x7C2AD3B6FF22F3CC
	xorl	%r14d, %r14d
	xorl	%esi, %esi
	callq	_KEnterRegion
	movl	$7, %edi
	movl	$2, %esi
	callq	_KPrepRTable
.Ltmp22:
	#DEBUG_VALUE: jfdctint_return:i <- 0
	#DEBUG_VALUE: jfdctint_return:checksum <- 0
	movl	$4, %edi
	callq	_KInduction
	movl	$1, %esi
	movq	%rbx, %rdi
	callq	_KEnterRegion
	movabsq	$2332994368574430784, %r12 # imm = 0x2060760479DD9E40
	xorl	%ebx, %ebx
	xorl	%r13d, %r13d
	xorl	%r15d, %r15d
	jmp	.LBB1_1
	.align	16, 0x90
.LBB1_2:                                # %for.body
                                        #   in Loop: Header=BB1_1 Depth=1
	#DEBUG_VALUE: jfdctint_return:checksum <- 0
	#DEBUG_VALUE: jfdctint_return:i <- 0
	movl	$2, %esi
	movq	%r12, %rdi
	callq	_KEnterRegion
	movl	$6, %r13d
	movl	$6, %edi
	callq	_KPushCDep
	movl	$5, %ebx
	movl	$5, %edi
	callq	_KWork
	leaq	jfdctint_data(%r14), %rdi
	movl	$1, %esi
	movl	$4, %edx
	callq	_KLoad0
	.loc	1 166 5 prologue_end    # jfdctint.c:166:5
.Ltmp23:
	addl	jfdctint_data(%r14), %r15d
.Ltmp24:
	#DEBUG_VALUE: jfdctint_return:checksum <- R15D
	movl	$1, (%rsp)
	movl	$5, %edi
	movl	$3, %esi
	movl	$1, %edx
	movl	$6, %ecx
	movl	$1, %r8d
	movl	$1, %r9d
	callq	_KTimestamp3
	callq	_KPopCDep
	movl	$2, %esi
	movq	%r12, %rdi
	callq	_KExitRegion
	addq	$4, %r14
.Ltmp25:
.LBB1_1:                                # %for.cond
                                        # =>This Inner Loop Header: Depth=1
	#DEBUG_VALUE: jfdctint_return:checksum <- 0
	#DEBUG_VALUE: jfdctint_return:i <- 0
	movl	$3, %edi
	movl	%ebx, %esi
	movl	%r13d, %edx
	callq	_KPhi1To1
	movl	$1, %edi
	callq	_KWork
	movl	$6, %edi
	movl	$4, %esi
	movl	$1, %edx
	callq	_KTimestamp1
	movl	$3, %edi
	movl	$6, %esi
	callq	_KPhiAddCond
	movl	$3, %edi
	movl	$3, %esi
	xorl	%edx, %edx
	callq	_KTimestamp1
	.loc	1 165 3                 # jfdctint.c:165:3
	cmpq	$256, %r14              # imm = 0x100
	jne	.LBB1_2
.Ltmp26:
# BB#3:                                 # %for.cond.pre_exit.for.end
	#DEBUG_VALUE: jfdctint_return:checksum <- 0
	#DEBUG_VALUE: jfdctint_return:i <- 0
	movl	$1, %esi
	movabsq	$8947196392642900940, %rdi # imm = 0x7C2AD3B6FF22F3CC
	callq	_KExitRegion
	movl	$1, %edi
	callq	_KWork
	xorl	%eax, %eax
	.loc	1 167 12                # jfdctint.c:167:12
	cmpl	$1668124, %r15d         # imm = 0x19741C
	movl	$-1, %ebx
	cmovel	%eax, %ebx
	movl	$2, %edi
	movl	$3, %esi
	movl	$1, %edx
	callq	_KTimestamp1
	movl	$2, %edi
	callq	_KReturn
	xorl	%esi, %esi
	movabsq	$-1314664642590496405, %rdi # imm = 0xEDC15F7913A0A96B
	callq	_KExitRegion
	.loc	1 167 3 is_stmt 0       # jfdctint.c:167:3
	movl	%ebx, %eax
	addq	$8, %rsp
	popq	%rbx
	popq	%r12
	popq	%r13
	popq	%r14
	popq	%r15
	popq	%rbp
	retq
.Ltmp27:
.Ltmp28:
	.size	jfdctint_return, .Ltmp28-jfdctint_return
.Lfunc_end1:
	.cfi_endproc

	.globl	jfdctint_jpeg_fdct_islow
	.align	16, 0x90
	.type	jfdctint_jpeg_fdct_islow,@function
jfdctint_jpeg_fdct_islow:               # @jfdctint_jpeg_fdct_islow
.Lfunc_begin2:
	.loc	1 176 0 is_stmt 1       # jfdctint.c:176:0
	.cfi_startproc
# BB#0:                                 # %entry
	pushq	%rbp
.Ltmp29:
	.cfi_def_cfa_offset 16
.Ltmp30:
	.cfi_offset %rbp, -16
	movq	%rsp, %rbp
.Ltmp31:
	.cfi_def_cfa_register %rbp
	pushq	%r15
	pushq	%r14
	pushq	%r13
	pushq	%r12
	pushq	%rbx
	subq	$232, %rsp
.Ltmp32:
	.cfi_offset %rbx, -56
.Ltmp33:
	.cfi_offset %r12, -48
.Ltmp34:
	.cfi_offset %r13, -40
.Ltmp35:
	.cfi_offset %r14, -32
.Ltmp36:
	.cfi_offset %r15, -24
	movabsq	$-2478054934339434895, %rbx # imm = 0xDD9C2E2AA0CB4671
	movabsq	$6672621774892820020, %rdi # imm = 0x5C99EA26B505E634
	xorl	%esi, %esi
	callq	_KEnterRegion
	movl	$59, %edi
	movl	$2, %esi
	callq	_KPrepRTable
.Ltmp37:
	#DEBUG_VALUE: jfdctint_jpeg_fdct_islow:ctr <- 7
	movl	$1, %esi
	movq	%rbx, %rdi
	callq	_KEnterRegion
	movl	$jfdctint_data, %r13d
	movl	$8, %r12d
	xorl	%r15d, %r15d
	movl	$0, -52(%rbp)           # 4-byte Folded Spill
	xorl	%r14d, %r14d
	jmp	.LBB2_1
	.align	16, 0x90
.LBB2_2:                                # %for.body
                                        #   in Loop: Header=BB2_1 Depth=1
	#DEBUG_VALUE: jfdctint_jpeg_fdct_islow:ctr <- 7
	movl	$2, %esi
	movabsq	$4203141755738097040, %rax # imm = 0x3A548F285B618590
	movq	%rax, %rdi
	callq	_KEnterRegion
	movl	$18, -52(%rbp)          # 4-byte Folded Spill
	movl	$18, %edi
	callq	_KPushCDep
	movl	$1, %esi
	movl	$4, %edx
	movq	%r13, %rdi
	callq	_KLoad0
	movl	$143, %edi
	callq	_KWork
	.loc	1 191 12 prologue_end   # jfdctint.c:191:12
.Ltmp38:
	movl	(%r13), %ebx
	leaq	28(%r13), %rdi
	movq	%rdi, -72(%rbp)         # 8-byte Spill
	movl	$2, %esi
	movl	$4, %edx
	movq	%rdi, %r14
	callq	_KLoad0
	addl	28(%r13), %ebx
.Ltmp39:
	#DEBUG_VALUE: jfdctint_jpeg_fdct_islow:tmp0 <- EBX
	movq	%rbx, -48(%rbp)         # 8-byte Spill
.Ltmp40:
	#DEBUG_VALUE: jfdctint_jpeg_fdct_islow:tmp0 <- [RBP+-48]
	movl	$3, %esi
	movl	$4, %edx
	movq	%r13, %rdi
	callq	_KLoad0
	.loc	1 192 12                # jfdctint.c:192:12
	movl	(%r13), %ebx
	movl	$4, %esi
	movl	$4, %edx
	movq	%r14, %rdi
	callq	_KLoad0
	subl	28(%r13), %ebx
.Ltmp41:
	#DEBUG_VALUE: jfdctint_jpeg_fdct_islow:tmp7 <- EBX
	movq	%rbx, -96(%rbp)         # 8-byte Spill
.Ltmp42:
	#DEBUG_VALUE: jfdctint_jpeg_fdct_islow:tmp7 <- [RBP+-96]
	leaq	4(%r13), %rdi
	movq	%rdi, -64(%rbp)         # 8-byte Spill
	movl	$5, %esi
	movl	$4, %edx
	movq	%rdi, %r14
	callq	_KLoad0
	.loc	1 193 12                # jfdctint.c:193:12
	movl	4(%r13), %ebx
	leaq	24(%r13), %rdi
	movq	%rdi, -112(%rbp)        # 8-byte Spill
	movl	$6, %esi
	movl	$4, %edx
	movq	%rdi, %r15
	callq	_KLoad0
	addl	24(%r13), %ebx
.Ltmp43:
	#DEBUG_VALUE: jfdctint_jpeg_fdct_islow:tmp1 <- EBX
	movq	%rbx, -144(%rbp)        # 8-byte Spill
.Ltmp44:
	#DEBUG_VALUE: jfdctint_jpeg_fdct_islow:tmp1 <- [RBP+-144]
	movl	$7, %esi
	movl	$4, %edx
	movq	%r14, %rdi
	callq	_KLoad0
	.loc	1 194 12                # jfdctint.c:194:12
	movl	4(%r13), %ebx
	movl	$8, %esi
	movl	$4, %edx
	movq	%r15, %rdi
	callq	_KLoad0
	subl	24(%r13), %ebx
.Ltmp45:
	#DEBUG_VALUE: jfdctint_jpeg_fdct_islow:tmp6 <- EBX
	movq	%rbx, -104(%rbp)        # 8-byte Spill
.Ltmp46:
	#DEBUG_VALUE: jfdctint_jpeg_fdct_islow:tmp6 <- [RBP+-104]
	leaq	8(%r13), %rdi
	movq	%rdi, -128(%rbp)        # 8-byte Spill
	movl	$9, %esi
	movl	$4, %edx
	movq	%rdi, %r15
	callq	_KLoad0
	.loc	1 195 12                # jfdctint.c:195:12
	movl	8(%r13), %ebx
	leaq	20(%r13), %rdi
	movq	%rdi, -88(%rbp)         # 8-byte Spill
	movl	$10, %esi
	movl	$4, %edx
	movq	%rdi, %r14
	callq	_KLoad0
	addl	20(%r13), %ebx
.Ltmp47:
	#DEBUG_VALUE: jfdctint_jpeg_fdct_islow:tmp2 <- EBX
	movq	%rbx, -160(%rbp)        # 8-byte Spill
.Ltmp48:
	#DEBUG_VALUE: jfdctint_jpeg_fdct_islow:tmp2 <- [RBP+-160]
	movl	$11, %esi
	movl	$4, %edx
	movq	%r15, %rdi
	callq	_KLoad0
	.loc	1 196 12                # jfdctint.c:196:12
	movl	8(%r13), %ebx
	movl	$12, %esi
	movl	$4, %edx
	movq	%r14, %rdi
	callq	_KLoad0
	subl	20(%r13), %ebx
.Ltmp49:
	#DEBUG_VALUE: jfdctint_jpeg_fdct_islow:tmp5 <- EBX
	movq	%rbx, -120(%rbp)        # 8-byte Spill
.Ltmp50:
	#DEBUG_VALUE: jfdctint_jpeg_fdct_islow:tmp5 <- [RBP+-120]
	leaq	12(%r13), %rdi
	movq	%rdi, -80(%rbp)         # 8-byte Spill
	movl	$13, %esi
	movl	$4, %edx
	movq	%rdi, %r14
	callq	_KLoad0
	movl	%r12d, -56(%rbp)        # 4-byte Spill
	.loc	1 197 12                # jfdctint.c:197:12
	movl	12(%r13), %r15d
	leaq	16(%r13), %rdi
	movq	%rdi, -152(%rbp)        # 8-byte Spill
	movl	$14, %esi
	movl	$4, %edx
	movq	%rdi, %r12
	callq	_KLoad0
	addl	16(%r13), %r15d
.Ltmp51:
	#DEBUG_VALUE: jfdctint_jpeg_fdct_islow:tmp3 <- R15D
	movl	$15, %esi
	movl	$4, %edx
	movq	%r14, %rdi
	callq	_KLoad0
	.loc	1 198 12                # jfdctint.c:198:12
	movl	12(%r13), %ebx
	movl	$16, %esi
	movl	$4, %edx
	movq	%r12, %rdi
	callq	_KLoad0
	subl	16(%r13), %ebx
.Ltmp52:
	#DEBUG_VALUE: jfdctint_jpeg_fdct_islow:tmp4 <- EBX
	movq	%rbx, -136(%rbp)        # 8-byte Spill
.Ltmp53:
	#DEBUG_VALUE: jfdctint_jpeg_fdct_islow:tmp4 <- [RBP+-136]
	movq	-48(%rbp), %rax         # 8-byte Reload
.Ltmp54:
	#DEBUG_VALUE: jfdctint_jpeg_fdct_islow:tmp0 <- EAX
	.loc	1 200 13                # jfdctint.c:200:13
	leal	(%r15,%rax), %r12d
.Ltmp55:
	#DEBUG_VALUE: jfdctint_jpeg_fdct_islow:tmp10 <- R12D
	.loc	1 201 13                # jfdctint.c:201:13
	subl	%r15d, %eax
.Ltmp56:
	#DEBUG_VALUE: jfdctint_jpeg_fdct_islow:tmp13 <- EAX
	movq	%rax, -48(%rbp)         # 8-byte Spill
.Ltmp57:
	#DEBUG_VALUE: jfdctint_jpeg_fdct_islow:tmp13 <- [RBP+-48]
	movq	-144(%rbp), %rax        # 8-byte Reload
.Ltmp58:
	#DEBUG_VALUE: jfdctint_jpeg_fdct_islow:tmp1 <- EAX
	movq	-160(%rbp), %rcx        # 8-byte Reload
.Ltmp59:
	#DEBUG_VALUE: jfdctint_jpeg_fdct_islow:tmp2 <- ECX
	.loc	1 202 13                # jfdctint.c:202:13
	leal	(%rcx,%rax), %r14d
.Ltmp60:
	#DEBUG_VALUE: jfdctint_jpeg_fdct_islow:tmp11 <- R14D
	.loc	1 203 13                # jfdctint.c:203:13
	subl	%ecx, %eax
.Ltmp61:
	#DEBUG_VALUE: jfdctint_jpeg_fdct_islow:tmp12 <- EAX
	movq	%rax, %r15
.Ltmp62:
	#DEBUG_VALUE: jfdctint_jpeg_fdct_islow:tmp12 <- R15D
	.loc	1 205 32                # jfdctint.c:205:32
	leal	(%r12,%r14), %ebx
	.loc	1 205 30 is_stmt 0      # jfdctint.c:205:30
	shll	$2, %ebx
	movl	$4, 104(%rsp)
	movl	$14, 96(%rsp)
	movl	$4, 88(%rsp)
	movl	$13, 80(%rsp)
	movl	$4, 72(%rsp)
	movl	$10, 64(%rsp)
	movl	$4, 56(%rsp)
	movl	$9, 48(%rsp)
	movl	$4, 40(%rsp)
	movl	$6, 32(%rsp)
	movl	$4, 24(%rsp)
	movl	$5, 16(%rsp)
	movl	$4, 8(%rsp)
	movl	$2, (%rsp)
	movl	$17, %edi
	movl	$9, %esi
	movl	$18, %edx
	movl	$4, %ecx
.Ltmp63:
	movl	$1, %r8d
	movl	$4, %r9d
	xorl	%eax, %eax
	callq	_KTimestamp
	movl	$17, %edi
	movl	$4, %edx
	movq	%r13, %rsi
	callq	_KStore
	.loc	1 205 5                 # jfdctint.c:205:5
	movl	%ebx, (%r13)
	.loc	1 206 32 is_stmt 1      # jfdctint.c:206:32
	subl	%r14d, %r12d
.Ltmp64:
	.loc	1 206 30 is_stmt 0      # jfdctint.c:206:30
	shll	$2, %r12d
	movl	$4, 104(%rsp)
	movl	$14, 96(%rsp)
	movl	$4, 88(%rsp)
	movl	$13, 80(%rsp)
	movl	$4, 72(%rsp)
	movl	$10, 64(%rsp)
	movl	$4, 56(%rsp)
	movl	$9, 48(%rsp)
	movl	$4, 40(%rsp)
	movl	$6, 32(%rsp)
	movl	$4, 24(%rsp)
	movl	$5, 16(%rsp)
	movl	$4, 8(%rsp)
	movl	$2, (%rsp)
	movl	$20, %edi
	movl	$9, %esi
	movl	$18, %edx
	movl	$4, %ecx
	movl	$1, %r8d
	movl	$4, %r9d
	xorl	%eax, %eax
	callq	_KTimestamp
	movl	$20, %edi
	movl	$4, %edx
	movq	-152(%rbp), %rsi        # 8-byte Reload
	callq	_KStore
	.loc	1 206 5                 # jfdctint.c:206:5
	movl	%r12d, 16(%r13)
	movq	%r15, %r14
.Ltmp65:
	#DEBUG_VALUE: jfdctint_jpeg_fdct_islow:tmp12 <- R14D
	movq	-48(%rbp), %rcx         # 8-byte Reload
.Ltmp66:
	#DEBUG_VALUE: jfdctint_jpeg_fdct_islow:tmp13 <- ECX
	.loc	1 208 12 is_stmt 1      # jfdctint.c:208:12
	leal	(%rcx,%r14), %eax
	.loc	1 208 10 is_stmt 0      # jfdctint.c:208:10
	imull	$4433, %eax, %r15d      # imm = 0x1151
.Ltmp67:
	#DEBUG_VALUE: jfdctint_jpeg_fdct_islow:z1 <- R15D
	.loc	1 209 28 is_stmt 1      # jfdctint.c:209:28
	imull	$6270, %ecx, %eax       # imm = 0x187E
	leal	1024(%rax,%r15), %ebx
	sarl	$11, %ebx
	movl	$8, 104(%rsp)
	movl	$14, 96(%rsp)
	movl	$8, 88(%rsp)
	movl	$13, 80(%rsp)
	movl	$8, 72(%rsp)
	movl	$10, 64(%rsp)
	movl	$8, 56(%rsp)
	movl	$9, 48(%rsp)
	movl	$8, 40(%rsp)
	movl	$6, 32(%rsp)
	movl	$8, 24(%rsp)
	movl	$5, 16(%rsp)
	movl	$8, 8(%rsp)
	movl	$2, (%rsp)
	movl	$21, %edi
	movl	$9, %esi
	movl	$18, %edx
	movl	$8, %ecx
.Ltmp68:
	movl	$1, %r8d
	movl	$8, %r9d
	xorl	%eax, %eax
	callq	_KTimestamp
	movl	$21, %edi
	movl	$4, %edx
	movq	-128(%rbp), %rsi        # 8-byte Reload
	callq	_KStore
	.loc	1 209 5 is_stmt 0       # jfdctint.c:209:5
	movl	%ebx, 8(%r13)
	imull	$-15137, %r14d, %eax    # imm = 0xFFFFFFFFFFFFC4DF
	.loc	1 211 28 is_stmt 1      # jfdctint.c:211:28
	leal	1024(%rax,%r15), %ebx
	sarl	$11, %ebx
	movl	$8, 104(%rsp)
	movl	$14, 96(%rsp)
	movl	$8, 88(%rsp)
	movl	$13, 80(%rsp)
	movl	$8, 72(%rsp)
	movl	$10, 64(%rsp)
	movl	$8, 56(%rsp)
	movl	$9, 48(%rsp)
	movl	$8, 40(%rsp)
	movl	$6, 32(%rsp)
	movl	$8, 24(%rsp)
	movl	$5, 16(%rsp)
	movl	$8, 8(%rsp)
	movl	$2, (%rsp)
	movl	$22, %edi
	movl	$9, %esi
	movl	$18, %edx
	movl	$8, %ecx
	movl	$1, %r8d
	movl	$8, %r9d
	xorl	%eax, %eax
	callq	_KTimestamp
	movl	$22, %edi
	movl	$4, %edx
	movq	-112(%rbp), %rsi        # 8-byte Reload
	callq	_KStore
	.loc	1 211 5 is_stmt 0       # jfdctint.c:211:5
	movl	%ebx, 24(%r13)
	movq	-96(%rbp), %rdi         # 8-byte Reload
.Ltmp69:
	#DEBUG_VALUE: jfdctint_jpeg_fdct_islow:tmp7 <- EDI
	movq	-136(%rbp), %rcx        # 8-byte Reload
.Ltmp70:
	#DEBUG_VALUE: jfdctint_jpeg_fdct_islow:tmp4 <- ECX
	.loc	1 214 10 is_stmt 1      # jfdctint.c:214:10
	leal	(%rcx,%rdi), %r8d
.Ltmp71:
	#DEBUG_VALUE: jfdctint_jpeg_fdct_islow:z1 <- R8D
	movq	-104(%rbp), %rax        # 8-byte Reload
.Ltmp72:
	#DEBUG_VALUE: jfdctint_jpeg_fdct_islow:tmp6 <- EAX
	movq	-120(%rbp), %rbx        # 8-byte Reload
.Ltmp73:
	#DEBUG_VALUE: jfdctint_jpeg_fdct_islow:tmp5 <- EBX
	.loc	1 215 10                # jfdctint.c:215:10
	leal	(%rbx,%rax), %r9d
.Ltmp74:
	#DEBUG_VALUE: jfdctint_jpeg_fdct_islow:z2 <- R9D
	.loc	1 216 10                # jfdctint.c:216:10
	leal	(%rcx,%rax), %edx
.Ltmp75:
	#DEBUG_VALUE: jfdctint_jpeg_fdct_islow:z3 <- EDX
	movq	%rcx, %r11
.Ltmp76:
	#DEBUG_VALUE: jfdctint_jpeg_fdct_islow:tmp4 <- R11D
	movq	%rax, %r10
.Ltmp77:
	#DEBUG_VALUE: jfdctint_jpeg_fdct_islow:tmp6 <- R10D
	.loc	1 217 10                # jfdctint.c:217:10
	leal	(%rbx,%rdi), %esi
.Ltmp78:
	#DEBUG_VALUE: jfdctint_jpeg_fdct_islow:z4 <- ESI
	movq	%rbx, %rcx
.Ltmp79:
	#DEBUG_VALUE: jfdctint_jpeg_fdct_islow:tmp5 <- ECX
	movq	%rdi, %rax
.Ltmp80:
	#DEBUG_VALUE: jfdctint_jpeg_fdct_islow:tmp7 <- EAX
	.loc	1 218 12                # jfdctint.c:218:12
	leal	(%rdx,%rsi), %edi
	.loc	1 218 10 is_stmt 0      # jfdctint.c:218:10
	imull	$9633, %edi, %edi       # imm = 0x25A1
.Ltmp81:
	#DEBUG_VALUE: jfdctint_jpeg_fdct_islow:z5 <- EDI
	.loc	1 220 12 is_stmt 1      # jfdctint.c:220:12
	imull	$2446, %r11d, %ebx      # imm = 0x98E
.Ltmp82:
	#DEBUG_VALUE: jfdctint_jpeg_fdct_islow:tmp4 <- EBX
	.loc	1 221 12                # jfdctint.c:221:12
	imull	$16819, %ecx, %r14d     # imm = 0x41B3
.Ltmp83:
	#DEBUG_VALUE: jfdctint_jpeg_fdct_islow:tmp5 <- R14D
	.loc	1 222 12                # jfdctint.c:222:12
	imull	$25172, %r10d, %ecx     # imm = 0x6254
.Ltmp84:
	#DEBUG_VALUE: jfdctint_jpeg_fdct_islow:tmp6 <- [RBP+-112]
	.loc	1 223 12                # jfdctint.c:223:12
	movq	%rcx, -112(%rbp)        # 8-byte Spill
	imull	$12299, %eax, %eax      # imm = 0x300B
.Ltmp85:
	#DEBUG_VALUE: jfdctint_jpeg_fdct_islow:tmp7 <- [RBP+-96]
	.loc	1 224 10                # jfdctint.c:224:10
	movq	%rax, -96(%rbp)         # 8-byte Spill
	imull	$-7373, %r8d, %eax      # imm = 0xFFFFFFFFFFFFE333
.Ltmp86:
	#DEBUG_VALUE: jfdctint_jpeg_fdct_islow:z1 <- EAX
	.loc	1 225 10                # jfdctint.c:225:10
	movl	%eax, -104(%rbp)        # 4-byte Spill
	imull	$-20995, %r9d, %ecx     # imm = 0xFFFFFFFFFFFFADFD
.Ltmp87:
	#DEBUG_VALUE: jfdctint_jpeg_fdct_islow:z2 <- [RBP+-120]
	.loc	1 226 10                # jfdctint.c:226:10
	movl	%ecx, -120(%rbp)        # 4-byte Spill
	imull	$-16069, %edx, %r15d    # imm = 0xFFFFFFFFFFFFC13B
	addl	%edi, %r15d
.Ltmp88:
	#DEBUG_VALUE: jfdctint_jpeg_fdct_islow:z3 <- R15D
	.loc	1 227 10                # jfdctint.c:227:10
	imull	$-3196, %esi, %ecx      # imm = 0xFFFFFFFFFFFFF384
	addl	%edi, %ecx
.Ltmp89:
	#DEBUG_VALUE: jfdctint_jpeg_fdct_islow:z4 <- ECX
	movq	%rcx, -48(%rbp)         # 8-byte Spill
.Ltmp90:
	#DEBUG_VALUE: jfdctint_jpeg_fdct_islow:z4 <- undef
	.loc	1 232 28                # jfdctint.c:232:28
	addl	%eax, %ebx
.Ltmp91:
	#DEBUG_VALUE: jfdctint_jpeg_fdct_islow:z1 <- [RBP+-104]
	leal	1024(%rbx,%r15), %r12d
	sarl	$11, %r12d
	movl	$9, 104(%rsp)
	movl	$15, 96(%rsp)
	movl	$9, 88(%rsp)
	movl	$12, 80(%rsp)
	movl	$9, 72(%rsp)
	movl	$11, 64(%rsp)
	movl	$9, 56(%rsp)
	movl	$8, 48(%rsp)
	movl	$9, 40(%rsp)
	movl	$7, 32(%rsp)
	movl	$9, 24(%rsp)
	movl	$4, 16(%rsp)
	movl	$9, 8(%rsp)
	movl	$3, (%rsp)
	movl	$23, %edi
.Ltmp92:
	movl	$9, %esi
	movl	$16, %edx
	movl	$9, %ecx
	movl	$18, %r8d
	movl	$9, %r9d
	xorl	%eax, %eax
	callq	_KTimestamp
	movl	$23, %edi
	movl	$4, %edx
	movq	-72(%rbp), %rsi         # 8-byte Reload
	callq	_KStore
	.loc	1 232 5 is_stmt 0       # jfdctint.c:232:5
	movl	%r12d, 28(%r13)
	movl	-120(%rbp), %r12d       # 4-byte Reload
.Ltmp93:
	#DEBUG_VALUE: jfdctint_jpeg_fdct_islow:z2 <- R12D
	.loc	1 233 28 is_stmt 1      # jfdctint.c:233:28
	addl	%r12d, %r14d
.Ltmp94:
	#DEBUG_VALUE: jfdctint_jpeg_fdct_islow:z4 <- [RBP+-48]
	movq	-48(%rbp), %rax         # 8-byte Reload
	leal	1024(%r14,%rax), %ebx
	sarl	$11, %ebx
	movl	$9, 104(%rsp)
	movl	$15, 96(%rsp)
	movl	$9, 88(%rsp)
	movl	$12, 80(%rsp)
	movl	$9, 72(%rsp)
	movl	$11, 64(%rsp)
	movl	$9, 56(%rsp)
	movl	$8, 48(%rsp)
	movl	$9, 40(%rsp)
	movl	$7, 32(%rsp)
	movl	$9, 24(%rsp)
	movl	$4, 16(%rsp)
	movl	$9, 8(%rsp)
	movl	$3, (%rsp)
	movl	$24, %edi
	movl	$9, %esi
	movl	$16, %edx
	movl	$9, %ecx
	movl	$18, %r8d
	movl	$9, %r9d
	xorl	%eax, %eax
	callq	_KTimestamp
	movl	$24, %edi
	movl	$4, %edx
	movq	-88(%rbp), %rsi         # 8-byte Reload
	callq	_KStore
	.loc	1 233 5 is_stmt 0       # jfdctint.c:233:5
	movl	%ebx, 20(%r13)
	movq	-112(%rbp), %rax        # 8-byte Reload
.Ltmp95:
	#DEBUG_VALUE: jfdctint_jpeg_fdct_islow:tmp6 <- EAX
	.loc	1 234 28 is_stmt 1      # jfdctint.c:234:28
	addl	%r12d, %eax
.Ltmp96:
	leal	1024(%rax,%r15), %ebx
	sarl	$11, %ebx
	movl	$9, 104(%rsp)
	movl	$15, 96(%rsp)
	movl	$9, 88(%rsp)
	movl	$12, 80(%rsp)
	movl	$9, 72(%rsp)
	movl	$11, 64(%rsp)
	movl	$9, 56(%rsp)
	movl	$8, 48(%rsp)
	movl	$9, 40(%rsp)
	movl	$7, 32(%rsp)
	movl	$9, 24(%rsp)
	movl	$4, 16(%rsp)
	movl	$9, 8(%rsp)
	movl	$3, (%rsp)
	movl	$25, %edi
	movl	$9, %esi
	movl	$16, %edx
	movl	$9, %ecx
	movl	$18, %r8d
	movl	$9, %r9d
	xorl	%eax, %eax
	callq	_KTimestamp
	movl	$25, %edi
	movl	$4, %edx
	movq	-80(%rbp), %rsi         # 8-byte Reload
	callq	_KStore
	.loc	1 234 5 is_stmt 0       # jfdctint.c:234:5
	movl	%ebx, 12(%r13)
	movq	-96(%rbp), %rax         # 8-byte Reload
.Ltmp97:
	#DEBUG_VALUE: jfdctint_jpeg_fdct_islow:tmp7 <- EAX
	.loc	1 235 28 is_stmt 1      # jfdctint.c:235:28
	addl	-104(%rbp), %eax        # 4-byte Folded Reload
.Ltmp98:
	movq	-48(%rbp), %rcx         # 8-byte Reload
	leal	1024(%rax,%rcx), %ebx
	sarl	$11, %ebx
	movl	$9, 104(%rsp)
	movl	$15, 96(%rsp)
	movl	$9, 88(%rsp)
	movl	$12, 80(%rsp)
	movl	$9, 72(%rsp)
	movl	$11, 64(%rsp)
	movl	$9, 56(%rsp)
	movl	$8, 48(%rsp)
	movl	$9, 40(%rsp)
	movl	$7, 32(%rsp)
	movl	$9, 24(%rsp)
	movl	$4, 16(%rsp)
	movl	$9, 8(%rsp)
	movl	$3, (%rsp)
	movl	$26, %edi
	movl	$9, %esi
	movl	$16, %edx
	movl	$9, %ecx
	movl	$18, %r8d
	movl	$9, %r9d
	xorl	%eax, %eax
	callq	_KTimestamp
	movl	$26, %edi
	movl	$4, %edx
	movq	-64(%rbp), %rsi         # 8-byte Reload
	callq	_KStore
	.loc	1 235 5 is_stmt 0       # jfdctint.c:235:5
	movl	%ebx, 4(%r13)
	movl	-56(%rbp), %r12d        # 4-byte Reload
.Ltmp99:
	movl	$55, %r14d
	movl	$55, %edi
	movl	$54, %esi
	xorl	%edx, %edx
	movl	$18, %ecx
	xorl	%r8d, %r8d
	callq	_KTimestamp2
	movl	$53, %r15d
.Ltmp100:
	movl	$53, %edi
	movl	$19, %esi
	movl	$1, %edx
	movl	$18, %ecx
	movl	$1, %r8d
	callq	_KTimestamp2
	callq	_KPopCDep
	movl	$2, %esi
	movabsq	$4203141755738097040, %rdi # imm = 0x3A548F285B618590
	callq	_KExitRegion
	addq	$32, %r13
.Ltmp101:
.LBB2_1:                                # %for.cond
                                        # =>This Inner Loop Header: Depth=1
	#DEBUG_VALUE: jfdctint_jpeg_fdct_islow:ctr <- 7
	movl	$54, %edi
	movl	%r14d, %esi
	movl	-52(%rbp), %ebx         # 4-byte Reload
	movl	%ebx, %edx
	callq	_KPhi1To1
	movl	$19, %edi
	movl	%r15d, %esi
	movl	%ebx, %edx
	callq	_KPhi1To1
	movl	$1, %edi
	callq	_KWork
	movl	$18, %edi
	movl	$19, %esi
	movl	$1, %edx
	callq	_KTimestamp1
	movl	$54, %edi
	movl	$18, %esi
	callq	_KPhiAddCond
	movl	$19, %edi
	movl	$19, %esi
	xorl	%edx, %edx
	callq	_KTimestamp1
	movl	$54, %edi
	movl	$54, %esi
	xorl	%edx, %edx
	callq	_KTimestamp1
	movl	$19, %edi
	movl	$18, %esi
	callq	_KPhiAddCond
	.loc	1 189 3 is_stmt 1       # jfdctint.c:189:3
	decl	%r12d
	jns	.LBB2_2
.Ltmp102:
# BB#3:                                 # %for.cond.pre_exit.for.end
	#DEBUG_VALUE: jfdctint_jpeg_fdct_islow:ctr <- 7
	movabsq	$5218142360864429184, %rbx # imm = 0x486A90D48EBE1480
	movl	$1, %esi
	movabsq	$-2478054934339434895, %rdi # imm = 0xDD9C2E2AA0CB4671
	callq	_KExitRegion
	movl	$1, %esi
	movq	%rbx, %rdi
	callq	_KEnterRegion
	movl	$jfdctint_data, %r13d
	movl	$7, %r12d
	xorl	%r14d, %r14d
	movl	$0, -52(%rbp)           # 4-byte Folded Spill
	xorl	%r15d, %r15d
	jmp	.LBB2_4
	.align	16, 0x90
.LBB2_5:                                # %for.body79
                                        #   in Loop: Header=BB2_4 Depth=1
	#DEBUG_VALUE: jfdctint_jpeg_fdct_islow:ctr <- 7
	movl	$2, %esi
	movabsq	$-8462451447623326791, %rax # imm = 0x8A8F553E8F6BE3B9
	movq	%rax, %rdi
	callq	_KEnterRegion
	movl	$44, -52(%rbp)          # 4-byte Folded Spill
	movl	$44, %edi
	callq	_KPushCDep
	movl	$27, %esi
	movl	$4, %edx
	movq	%r13, %rdi
	callq	_KLoad0
	movl	$145, %edi
	callq	_KWork
	.loc	1 243 12                # jfdctint.c:243:12
.Ltmp103:
	movl	(%r13), %ebx
	leaq	224(%r13), %rdi
	movq	%rdi, -72(%rbp)         # 8-byte Spill
	movl	$28, %esi
	movl	$4, %edx
	movq	%rdi, %r14
	callq	_KLoad0
	addl	224(%r13), %ebx
.Ltmp104:
	#DEBUG_VALUE: jfdctint_jpeg_fdct_islow:tmp0 <- EBX
	movq	%rbx, -144(%rbp)        # 8-byte Spill
.Ltmp105:
	#DEBUG_VALUE: jfdctint_jpeg_fdct_islow:tmp0 <- [RBP+-144]
	movl	$29, %esi
	movl	$4, %edx
	movq	%r13, %rdi
	callq	_KLoad0
	.loc	1 244 12                # jfdctint.c:244:12
	movl	(%r13), %ebx
	movl	$30, %esi
	movl	$4, %edx
	movq	%r14, %rdi
	callq	_KLoad0
	subl	224(%r13), %ebx
.Ltmp106:
	#DEBUG_VALUE: jfdctint_jpeg_fdct_islow:tmp7 <- EBX
	movq	%rbx, -96(%rbp)         # 8-byte Spill
.Ltmp107:
	#DEBUG_VALUE: jfdctint_jpeg_fdct_islow:tmp7 <- [RBP+-96]
	leaq	32(%r13), %rdi
	movq	%rdi, -64(%rbp)         # 8-byte Spill
	movl	$31, %esi
	movl	$4, %edx
	movq	%rdi, %r14
	callq	_KLoad0
	.loc	1 245 12                # jfdctint.c:245:12
	movl	32(%r13), %ebx
	leaq	192(%r13), %rdi
	movq	%rdi, -112(%rbp)        # 8-byte Spill
	movl	$32, %esi
	movl	$4, %edx
	movq	%rdi, %r15
	callq	_KLoad0
	addl	192(%r13), %ebx
.Ltmp108:
	#DEBUG_VALUE: jfdctint_jpeg_fdct_islow:tmp1 <- EBX
	movq	%rbx, -48(%rbp)         # 8-byte Spill
.Ltmp109:
	#DEBUG_VALUE: jfdctint_jpeg_fdct_islow:tmp1 <- [RBP+-48]
	movl	$33, %esi
	movl	$4, %edx
	movq	%r14, %rdi
	callq	_KLoad0
	.loc	1 246 12                # jfdctint.c:246:12
	movl	32(%r13), %ebx
	movl	$34, %esi
	movl	$4, %edx
	movq	%r15, %rdi
	callq	_KLoad0
	subl	192(%r13), %ebx
.Ltmp110:
	#DEBUG_VALUE: jfdctint_jpeg_fdct_islow:tmp6 <- EBX
	movq	%rbx, -104(%rbp)        # 8-byte Spill
.Ltmp111:
	#DEBUG_VALUE: jfdctint_jpeg_fdct_islow:tmp6 <- [RBP+-104]
	leaq	64(%r13), %rdi
	movq	%rdi, -128(%rbp)        # 8-byte Spill
	movl	$35, %esi
	movl	$4, %edx
	movq	%rdi, %r15
	callq	_KLoad0
	.loc	1 247 12                # jfdctint.c:247:12
	movl	64(%r13), %ebx
	leaq	160(%r13), %rdi
	movq	%rdi, -88(%rbp)         # 8-byte Spill
	movl	$36, %esi
	movl	$4, %edx
	movq	%rdi, %r14
	callq	_KLoad0
	addl	160(%r13), %ebx
.Ltmp112:
	#DEBUG_VALUE: jfdctint_jpeg_fdct_islow:tmp2 <- EBX
	movq	%rbx, -160(%rbp)        # 8-byte Spill
.Ltmp113:
	#DEBUG_VALUE: jfdctint_jpeg_fdct_islow:tmp2 <- [RBP+-160]
	movl	$37, %esi
	movl	$4, %edx
	movq	%r15, %rdi
	callq	_KLoad0
	.loc	1 248 12                # jfdctint.c:248:12
	movl	64(%r13), %ebx
	movl	$38, %esi
	movl	$4, %edx
	movq	%r14, %rdi
	callq	_KLoad0
	subl	160(%r13), %ebx
.Ltmp114:
	#DEBUG_VALUE: jfdctint_jpeg_fdct_islow:tmp5 <- EBX
	movq	%rbx, -120(%rbp)        # 8-byte Spill
.Ltmp115:
	#DEBUG_VALUE: jfdctint_jpeg_fdct_islow:tmp5 <- [RBP+-120]
	leaq	96(%r13), %rdi
	movq	%rdi, -80(%rbp)         # 8-byte Spill
	movl	$39, %esi
	movl	$4, %edx
	movq	%rdi, %r14
	callq	_KLoad0
	movl	%r12d, -56(%rbp)        # 4-byte Spill
	.loc	1 249 12                # jfdctint.c:249:12
	movl	96(%r13), %r12d
	movq	%r13, %r15
	subq	$-128, %r15
	movq	%r15, -152(%rbp)        # 8-byte Spill
	movl	$40, %esi
	movl	$4, %edx
	movq	%r15, %rdi
	callq	_KLoad0
	addl	128(%r13), %r12d
.Ltmp116:
	#DEBUG_VALUE: jfdctint_jpeg_fdct_islow:tmp3 <- R12D
	movl	$41, %esi
	movl	$4, %edx
	movq	%r14, %rdi
	callq	_KLoad0
	.loc	1 250 12                # jfdctint.c:250:12
	movl	96(%r13), %ebx
	movl	$42, %esi
	movl	$4, %edx
	movq	%r15, %rdi
	callq	_KLoad0
	subl	128(%r13), %ebx
.Ltmp117:
	#DEBUG_VALUE: jfdctint_jpeg_fdct_islow:tmp4 <- EBX
	movq	%rbx, -136(%rbp)        # 8-byte Spill
.Ltmp118:
	#DEBUG_VALUE: jfdctint_jpeg_fdct_islow:tmp4 <- [RBP+-136]
	movq	-144(%rbp), %rax        # 8-byte Reload
.Ltmp119:
	#DEBUG_VALUE: jfdctint_jpeg_fdct_islow:tmp0 <- EAX
	.loc	1 252 13                # jfdctint.c:252:13
	leal	(%r12,%rax), %r15d
.Ltmp120:
	#DEBUG_VALUE: jfdctint_jpeg_fdct_islow:tmp10 <- R15D
	.loc	1 253 13                # jfdctint.c:253:13
	subl	%r12d, %eax
.Ltmp121:
	#DEBUG_VALUE: jfdctint_jpeg_fdct_islow:tmp13 <- EAX
	movq	%rax, %r12
.Ltmp122:
	#DEBUG_VALUE: jfdctint_jpeg_fdct_islow:tmp13 <- R12D
	movq	-48(%rbp), %rax         # 8-byte Reload
.Ltmp123:
	#DEBUG_VALUE: jfdctint_jpeg_fdct_islow:tmp1 <- EAX
	movq	-160(%rbp), %rcx        # 8-byte Reload
.Ltmp124:
	#DEBUG_VALUE: jfdctint_jpeg_fdct_islow:tmp2 <- ECX
	.loc	1 254 13                # jfdctint.c:254:13
	leal	(%rcx,%rax), %r14d
.Ltmp125:
	#DEBUG_VALUE: jfdctint_jpeg_fdct_islow:tmp11 <- R14D
	.loc	1 255 13                # jfdctint.c:255:13
	subl	%ecx, %eax
.Ltmp126:
	#DEBUG_VALUE: jfdctint_jpeg_fdct_islow:tmp12 <- EAX
	movq	%rax, -48(%rbp)         # 8-byte Spill
.Ltmp127:
	#DEBUG_VALUE: jfdctint_jpeg_fdct_islow:tmp12 <- [RBP+-48]
	.loc	1 257 38                # jfdctint.c:257:38
	leal	2(%r14,%r15), %ebx
	sarl	$2, %ebx
	movl	$5, 104(%rsp)
	movl	$40, 96(%rsp)
	movl	$5, 88(%rsp)
	movl	$32, 80(%rsp)
	movl	$5, 72(%rsp)
	movl	$31, 64(%rsp)
	movl	$5, 56(%rsp)
	movl	$28, 48(%rsp)
	movl	$5, 40(%rsp)
	movl	$27, 32(%rsp)
	movl	$5, 24(%rsp)
	movl	$44, 16(%rsp)
	movl	$5, 8(%rsp)
	movl	$39, (%rsp)
	movl	$43, %edi
	movl	$9, %esi
	movl	$35, %edx
	movl	$5, %ecx
.Ltmp128:
	movl	$36, %r8d
	movl	$5, %r9d
	xorl	%eax, %eax
	callq	_KTimestamp
	movl	$43, %edi
	movl	$4, %edx
	movq	%r13, %rsi
	callq	_KStore
	.loc	1 257 5 is_stmt 0       # jfdctint.c:257:5
	movl	%ebx, (%r13)
	movl	$2, %ebx
	.loc	1 258 38 is_stmt 1      # jfdctint.c:258:38
	subl	%r14d, %ebx
	addl	%r15d, %ebx
	sarl	$2, %ebx
	movl	$5, 104(%rsp)
	movl	$40, 96(%rsp)
	movl	$5, 88(%rsp)
	movl	$32, 80(%rsp)
	movl	$5, 72(%rsp)
	movl	$31, 64(%rsp)
	movl	$5, 56(%rsp)
	movl	$28, 48(%rsp)
	movl	$5, 40(%rsp)
	movl	$27, 32(%rsp)
	movl	$5, 24(%rsp)
	movl	$44, 16(%rsp)
	movl	$5, 8(%rsp)
	movl	$39, (%rsp)
	movl	$46, %edi
	movl	$9, %esi
	movl	$35, %edx
	movl	$5, %ecx
	movl	$36, %r8d
	movl	$5, %r9d
	xorl	%eax, %eax
	callq	_KTimestamp
	movl	$46, %edi
	movl	$4, %edx
	movq	-152(%rbp), %rsi        # 8-byte Reload
	callq	_KStore
	.loc	1 258 5 is_stmt 0       # jfdctint.c:258:5
	movl	%ebx, 128(%r13)
	movq	-48(%rbp), %r15         # 8-byte Reload
.Ltmp129:
	#DEBUG_VALUE: jfdctint_jpeg_fdct_islow:tmp12 <- R15D
	.loc	1 260 12 is_stmt 1      # jfdctint.c:260:12
	leal	(%r12,%r15), %eax
	.loc	1 260 10 is_stmt 0      # jfdctint.c:260:10
	imull	$4433, %eax, %r14d      # imm = 0x1151
.Ltmp130:
	#DEBUG_VALUE: jfdctint_jpeg_fdct_islow:z1 <- R14D
	.loc	1 261 38 is_stmt 1      # jfdctint.c:261:38
	imull	$6270, %r12d, %eax      # imm = 0x187E
	leal	16384(%rax,%r14), %ebx
	sarl	$15, %ebx
	movl	$8, 104(%rsp)
	movl	$40, 96(%rsp)
	movl	$8, 88(%rsp)
	movl	$32, 80(%rsp)
	movl	$8, 72(%rsp)
	movl	$31, 64(%rsp)
	movl	$8, 56(%rsp)
	movl	$28, 48(%rsp)
	movl	$8, 40(%rsp)
	movl	$27, 32(%rsp)
	movl	$8, 24(%rsp)
	movl	$44, 16(%rsp)
	movl	$8, 8(%rsp)
	movl	$39, (%rsp)
	movl	$47, %edi
	movl	$9, %esi
	movl	$35, %edx
	movl	$8, %ecx
	movl	$36, %r8d
	movl	$8, %r9d
	xorl	%eax, %eax
	callq	_KTimestamp
	movl	$47, %edi
	movl	$4, %edx
	movq	-128(%rbp), %rsi        # 8-byte Reload
	callq	_KStore
	.loc	1 261 5 is_stmt 0       # jfdctint.c:261:5
	movl	%ebx, 64(%r13)
	imull	$-15137, %r15d, %eax    # imm = 0xFFFFFFFFFFFFC4DF
	.loc	1 263 38 is_stmt 1      # jfdctint.c:263:38
	leal	16384(%rax,%r14), %ebx
	sarl	$15, %ebx
	movl	$8, 104(%rsp)
	movl	$40, 96(%rsp)
	movl	$8, 88(%rsp)
	movl	$32, 80(%rsp)
	movl	$8, 72(%rsp)
	movl	$31, 64(%rsp)
	movl	$8, 56(%rsp)
	movl	$28, 48(%rsp)
	movl	$8, 40(%rsp)
	movl	$27, 32(%rsp)
	movl	$8, 24(%rsp)
	movl	$44, 16(%rsp)
	movl	$8, 8(%rsp)
	movl	$39, (%rsp)
	movl	$48, %edi
	movl	$9, %esi
	movl	$35, %edx
	movl	$8, %ecx
	movl	$36, %r8d
	movl	$8, %r9d
	xorl	%eax, %eax
	callq	_KTimestamp
	movl	$48, %edi
	movl	$4, %edx
	movq	-112(%rbp), %rsi        # 8-byte Reload
	callq	_KStore
	.loc	1 263 5 is_stmt 0       # jfdctint.c:263:5
	movl	%ebx, 192(%r13)
	movq	-96(%rbp), %rdi         # 8-byte Reload
.Ltmp131:
	#DEBUG_VALUE: jfdctint_jpeg_fdct_islow:tmp7 <- EDI
	movq	-136(%rbp), %rcx        # 8-byte Reload
.Ltmp132:
	#DEBUG_VALUE: jfdctint_jpeg_fdct_islow:tmp4 <- ECX
	.loc	1 267 10 is_stmt 1      # jfdctint.c:267:10
	leal	(%rcx,%rdi), %r8d
.Ltmp133:
	#DEBUG_VALUE: jfdctint_jpeg_fdct_islow:z1 <- R8D
	movq	-104(%rbp), %rax        # 8-byte Reload
.Ltmp134:
	#DEBUG_VALUE: jfdctint_jpeg_fdct_islow:tmp6 <- EAX
	movq	-120(%rbp), %rbx        # 8-byte Reload
.Ltmp135:
	#DEBUG_VALUE: jfdctint_jpeg_fdct_islow:tmp5 <- EBX
	.loc	1 268 10                # jfdctint.c:268:10
	leal	(%rbx,%rax), %r9d
.Ltmp136:
	#DEBUG_VALUE: jfdctint_jpeg_fdct_islow:z2 <- R9D
	.loc	1 269 10                # jfdctint.c:269:10
	leal	(%rcx,%rax), %edx
.Ltmp137:
	#DEBUG_VALUE: jfdctint_jpeg_fdct_islow:z3 <- EDX
	movq	%rcx, %r11
.Ltmp138:
	#DEBUG_VALUE: jfdctint_jpeg_fdct_islow:tmp4 <- R11D
	movq	%rax, %r10
.Ltmp139:
	#DEBUG_VALUE: jfdctint_jpeg_fdct_islow:tmp6 <- R10D
	.loc	1 270 10                # jfdctint.c:270:10
	leal	(%rbx,%rdi), %esi
.Ltmp140:
	#DEBUG_VALUE: jfdctint_jpeg_fdct_islow:z4 <- ESI
	movq	%rbx, %rcx
.Ltmp141:
	#DEBUG_VALUE: jfdctint_jpeg_fdct_islow:tmp5 <- ECX
	movq	%rdi, %rax
.Ltmp142:
	#DEBUG_VALUE: jfdctint_jpeg_fdct_islow:tmp7 <- EAX
	.loc	1 271 12                # jfdctint.c:271:12
	leal	(%rdx,%rsi), %edi
	.loc	1 271 10 is_stmt 0      # jfdctint.c:271:10
	imull	$9633, %edi, %edi       # imm = 0x25A1
.Ltmp143:
	#DEBUG_VALUE: jfdctint_jpeg_fdct_islow:z5 <- EDI
	.loc	1 273 12 is_stmt 1      # jfdctint.c:273:12
	imull	$2446, %r11d, %ebx      # imm = 0x98E
.Ltmp144:
	#DEBUG_VALUE: jfdctint_jpeg_fdct_islow:tmp4 <- EBX
	.loc	1 274 12                # jfdctint.c:274:12
	imull	$16819, %ecx, %r14d     # imm = 0x41B3
.Ltmp145:
	#DEBUG_VALUE: jfdctint_jpeg_fdct_islow:tmp5 <- R14D
	.loc	1 275 12                # jfdctint.c:275:12
	imull	$25172, %r10d, %ecx     # imm = 0x6254
.Ltmp146:
	#DEBUG_VALUE: jfdctint_jpeg_fdct_islow:tmp6 <- [RBP+-112]
	.loc	1 276 12                # jfdctint.c:276:12
	movq	%rcx, -112(%rbp)        # 8-byte Spill
	imull	$12299, %eax, %eax      # imm = 0x300B
.Ltmp147:
	#DEBUG_VALUE: jfdctint_jpeg_fdct_islow:tmp7 <- [RBP+-96]
	.loc	1 277 10                # jfdctint.c:277:10
	movq	%rax, -96(%rbp)         # 8-byte Spill
	imull	$-7373, %r8d, %eax      # imm = 0xFFFFFFFFFFFFE333
.Ltmp148:
	#DEBUG_VALUE: jfdctint_jpeg_fdct_islow:z1 <- EAX
	.loc	1 278 10                # jfdctint.c:278:10
	movl	%eax, -104(%rbp)        # 4-byte Spill
	imull	$-20995, %r9d, %ecx     # imm = 0xFFFFFFFFFFFFADFD
.Ltmp149:
	#DEBUG_VALUE: jfdctint_jpeg_fdct_islow:z2 <- [RBP+-120]
	.loc	1 279 10                # jfdctint.c:279:10
	movl	%ecx, -120(%rbp)        # 4-byte Spill
	imull	$-16069, %edx, %r15d    # imm = 0xFFFFFFFFFFFFC13B
.Ltmp150:
	addl	%edi, %r15d
.Ltmp151:
	#DEBUG_VALUE: jfdctint_jpeg_fdct_islow:z3 <- R15D
	.loc	1 280 10                # jfdctint.c:280:10
	imull	$-3196, %esi, %ecx      # imm = 0xFFFFFFFFFFFFF384
	addl	%edi, %ecx
.Ltmp152:
	#DEBUG_VALUE: jfdctint_jpeg_fdct_islow:z4 <- ECX
	movq	%rcx, -48(%rbp)         # 8-byte Spill
.Ltmp153:
	#DEBUG_VALUE: jfdctint_jpeg_fdct_islow:z4 <- undef
	.loc	1 285 38                # jfdctint.c:285:38
	addl	%eax, %ebx
.Ltmp154:
	#DEBUG_VALUE: jfdctint_jpeg_fdct_islow:z1 <- [RBP+-104]
	leal	16384(%rbx,%r15), %r12d
.Ltmp155:
	sarl	$15, %r12d
	movl	$9, 104(%rsp)
	movl	$42, 96(%rsp)
	movl	$9, 88(%rsp)
	movl	$41, 80(%rsp)
	movl	$9, 72(%rsp)
	movl	$30, 64(%rsp)
	movl	$9, 56(%rsp)
	movl	$29, 48(%rsp)
	movl	$9, 40(%rsp)
	movl	$44, 32(%rsp)
	movl	$9, 24(%rsp)
	movl	$38, 16(%rsp)
	movl	$9, 8(%rsp)
	movl	$37, (%rsp)
	movl	$49, %edi
.Ltmp156:
	movl	$9, %esi
	movl	$33, %edx
	movl	$9, %ecx
	movl	$34, %r8d
	movl	$9, %r9d
	xorl	%eax, %eax
	callq	_KTimestamp
	movl	$49, %edi
	movl	$4, %edx
	movq	-72(%rbp), %rsi         # 8-byte Reload
	callq	_KStore
	.loc	1 285 5 is_stmt 0       # jfdctint.c:285:5
	movl	%r12d, 224(%r13)
	movl	-120(%rbp), %r12d       # 4-byte Reload
.Ltmp157:
	#DEBUG_VALUE: jfdctint_jpeg_fdct_islow:z2 <- R12D
	.loc	1 287 38 is_stmt 1      # jfdctint.c:287:38
	addl	%r12d, %r14d
.Ltmp158:
	#DEBUG_VALUE: jfdctint_jpeg_fdct_islow:z4 <- [RBP+-48]
	movq	-48(%rbp), %rax         # 8-byte Reload
	leal	16384(%r14,%rax), %ebx
	sarl	$15, %ebx
	movl	$9, 104(%rsp)
	movl	$42, 96(%rsp)
	movl	$9, 88(%rsp)
	movl	$41, 80(%rsp)
	movl	$9, 72(%rsp)
	movl	$30, 64(%rsp)
	movl	$9, 56(%rsp)
	movl	$29, 48(%rsp)
	movl	$9, 40(%rsp)
	movl	$44, 32(%rsp)
	movl	$9, 24(%rsp)
	movl	$38, 16(%rsp)
	movl	$9, 8(%rsp)
	movl	$37, (%rsp)
	movl	$50, %edi
	movl	$9, %esi
	movl	$33, %edx
	movl	$9, %ecx
	movl	$34, %r8d
	movl	$9, %r9d
	xorl	%eax, %eax
	callq	_KTimestamp
	movl	$50, %edi
	movl	$4, %edx
	movq	-88(%rbp), %rsi         # 8-byte Reload
	callq	_KStore
	.loc	1 287 5 is_stmt 0       # jfdctint.c:287:5
	movl	%ebx, 160(%r13)
	movq	-112(%rbp), %rax        # 8-byte Reload
.Ltmp159:
	#DEBUG_VALUE: jfdctint_jpeg_fdct_islow:tmp6 <- EAX
	.loc	1 289 38 is_stmt 1      # jfdctint.c:289:38
	addl	%r12d, %eax
.Ltmp160:
	leal	16384(%rax,%r15), %ebx
	sarl	$15, %ebx
	movl	$9, 104(%rsp)
	movl	$42, 96(%rsp)
	movl	$9, 88(%rsp)
	movl	$41, 80(%rsp)
	movl	$9, 72(%rsp)
	movl	$30, 64(%rsp)
	movl	$9, 56(%rsp)
	movl	$29, 48(%rsp)
	movl	$9, 40(%rsp)
	movl	$44, 32(%rsp)
	movl	$9, 24(%rsp)
	movl	$38, 16(%rsp)
	movl	$9, 8(%rsp)
	movl	$37, (%rsp)
	movl	$51, %edi
	movl	$9, %esi
	movl	$33, %edx
	movl	$9, %ecx
	movl	$34, %r8d
	movl	$9, %r9d
	xorl	%eax, %eax
	callq	_KTimestamp
	movl	$51, %edi
	movl	$4, %edx
	movq	-80(%rbp), %rsi         # 8-byte Reload
	callq	_KStore
	.loc	1 289 5 is_stmt 0       # jfdctint.c:289:5
	movl	%ebx, 96(%r13)
	movq	-96(%rbp), %rax         # 8-byte Reload
.Ltmp161:
	#DEBUG_VALUE: jfdctint_jpeg_fdct_islow:tmp7 <- EAX
	.loc	1 291 38 is_stmt 1      # jfdctint.c:291:38
	addl	-104(%rbp), %eax        # 4-byte Folded Reload
.Ltmp162:
	movq	-48(%rbp), %rcx         # 8-byte Reload
	leal	16384(%rax,%rcx), %ebx
	sarl	$15, %ebx
	movl	$9, 104(%rsp)
	movl	$42, 96(%rsp)
	movl	$9, 88(%rsp)
	movl	$41, 80(%rsp)
	movl	$9, 72(%rsp)
	movl	$30, 64(%rsp)
	movl	$9, 56(%rsp)
	movl	$29, 48(%rsp)
	movl	$9, 40(%rsp)
	movl	$44, 32(%rsp)
	movl	$9, 24(%rsp)
	movl	$38, 16(%rsp)
	movl	$9, 8(%rsp)
	movl	$37, (%rsp)
	movl	$52, %edi
	movl	$9, %esi
	movl	$33, %edx
	movl	$9, %ecx
	movl	$34, %r8d
	movl	$9, %r9d
	xorl	%eax, %eax
	callq	_KTimestamp
	movl	$52, %edi
	movl	$4, %edx
	movq	-64(%rbp), %rsi         # 8-byte Reload
	callq	_KStore
	.loc	1 291 5 is_stmt 0       # jfdctint.c:291:5
	movl	%ebx, 32(%r13)
	movl	-56(%rbp), %r12d        # 4-byte Reload
.Ltmp163:
	.loc	1 242 38 is_stmt 1      # jfdctint.c:242:38
	decl	%r12d
.Ltmp164:
	#DEBUG_VALUE: jfdctint_jpeg_fdct_islow:ctr <- R12D
	movl	$56, %r14d
	movl	$56, %edi
	movl	$45, %esi
	movl	$1, %edx
	movl	$44, %ecx
	movl	$1, %r8d
	callq	_KTimestamp2
	movl	$58, %r15d
.Ltmp165:
	movl	$58, %edi
	movl	$57, %esi
	xorl	%edx, %edx
	movl	$44, %ecx
	xorl	%r8d, %r8d
	callq	_KTimestamp2
	callq	_KPopCDep
	movl	$2, %esi
	movabsq	$-8462451447623326791, %rdi # imm = 0x8A8F553E8F6BE3B9
	callq	_KExitRegion
	addq	$4, %r13
.Ltmp166:
.LBB2_4:                                # %for.cond77
                                        # =>This Inner Loop Header: Depth=1
	#DEBUG_VALUE: jfdctint_jpeg_fdct_islow:ctr <- 7
	movl	$45, %edi
	movl	%r14d, %esi
	movl	-52(%rbp), %ebx         # 4-byte Reload
	movl	%ebx, %edx
	callq	_KPhi1To1
	movl	$57, %edi
	movl	%r15d, %esi
	movl	%ebx, %edx
	callq	_KPhi1To1
	movl	$1, %edi
	callq	_KWork
	movl	$44, %edi
	movl	$45, %esi
	movl	$1, %edx
	callq	_KTimestamp1
	movl	$57, %edi
	movl	$57, %esi
	xorl	%edx, %edx
	callq	_KTimestamp1
	movl	$45, %edi
	movl	$44, %esi
	callq	_KPhiAddCond
	movl	$57, %edi
	movl	$44, %esi
	callq	_KPhiAddCond
	movl	$45, %edi
	movl	$45, %esi
	xorl	%edx, %edx
	callq	_KTimestamp1
	.loc	1 242 3 is_stmt 0       # jfdctint.c:242:3
	testl	%r12d, %r12d
	jns	.LBB2_5
.Ltmp167:
# BB#6:                                 # %for.cond77.pre_exit.for.end166
	#DEBUG_VALUE: jfdctint_jpeg_fdct_islow:ctr <- 7
	movl	$1, %esi
	movabsq	$5218142360864429184, %rdi # imm = 0x486A90D48EBE1480
	callq	_KExitRegion
	xorl	%esi, %esi
	movabsq	$6672621774892820020, %rdi # imm = 0x5C99EA26B505E634
	addq	$232, %rsp
	popq	%rbx
	popq	%r12
	popq	%r13
	popq	%r14
	popq	%r15
	popq	%rbp
	jmp	_KExitRegion            # TAILCALL
.Ltmp168:
	.size	jfdctint_jpeg_fdct_islow, .Ltmp168-jfdctint_jpeg_fdct_islow
.Lfunc_end2:
	.cfi_endproc

	.globl	jfdctint_main
	.align	16, 0x90
	.type	jfdctint_main,@function
jfdctint_main:                          # @jfdctint_main
.Lfunc_begin3:
	.loc	1 307 0 is_stmt 1       # jfdctint.c:307:0
	.cfi_startproc
# BB#0:                                 # %entry
	pushq	%rbp
.Ltmp169:
	.cfi_def_cfa_offset 16
.Ltmp170:
	.cfi_offset %rbp, -16
	movq	%rsp, %rbp
.Ltmp171:
	.cfi_def_cfa_register %rbp
	pushq	%rbx
	pushq	%rax
.Ltmp172:
	.cfi_offset %rbx, -24
	movabsq	$8816721825869249352, %rbx # imm = 0x7A5B49C9A25EBB48
	xorl	%esi, %esi
	movq	%rbx, %rdi
	callq	_KEnterRegion
	movl	$1, %edi
	xorl	%esi, %esi
	callq	_KPrepRTable
	movabsq	$-1530998063190171243, %rdi # imm = 0xEAC0CD5F83BD2195
	xorl	%esi, %esi
	callq	_KPrepCall
	.loc	1 308 3 prologue_end    # jfdctint.c:308:3
.Ltmp173:
	callq	jfdctint_jpeg_fdct_islow
	xorl	%esi, %esi
	movq	%rbx, %rdi
	addq	$8, %rsp
	popq	%rbx
	popq	%rbp
	jmp	_KExitRegion            # TAILCALL
.Ltmp174:
.Ltmp175:
	.size	jfdctint_main, .Ltmp175-jfdctint_main
.Lfunc_end3:
	.cfi_endproc

	.globl	__main
	.align	16, 0x90
	.type	__main,@function
__main:                                 # @__main
.Lfunc_begin4:
	.loc	1 313 0                 # jfdctint.c:313:0
	.cfi_startproc
# BB#0:                                 # %entry
	pushq	%rbp
.Ltmp176:
	.cfi_def_cfa_offset 16
.Ltmp177:
	.cfi_offset %rbp, -16
	movq	%rsp, %rbp
.Ltmp178:
	.cfi_def_cfa_register %rbp
	pushq	%r14
	pushq	%rbx
.Ltmp179:
	.cfi_offset %rbx, -32
.Ltmp180:
	.cfi_offset %r14, -24
	callq	_KInit
	movabsq	$-3677947425469889523, %r14 # imm = 0xCCF54E4D9A4E040D
	xorl	%esi, %esi
	movq	%r14, %rdi
	callq	_KEnterRegion
	movl	$2, %edi
	xorl	%esi, %esi
	callq	_KPrepRTable
	movabsq	$-6745392837143336410, %rdi # imm = 0xA2638CF4079B6A26
	xorl	%esi, %esi
	callq	_KPrepCall
	.loc	1 314 3 prologue_end    # jfdctint.c:314:3
.Ltmp181:
	callq	jfdctint_init
	movabsq	$946708994216586543, %rdi # imm = 0xD2362D079F26D2F
	xorl	%esi, %esi
	callq	_KPrepCall
	movabsq	$8816721825869249352, %rbx # imm = 0x7A5B49C9A25EBB48
	xorl	%esi, %esi
	.loc	1 315 3                 # jfdctint.c:315:3
	movq	%rbx, %rdi
	callq	_KEnterRegion
	movl	$1, %edi
	xorl	%esi, %esi
	callq	_KPrepRTable
	movabsq	$-1530998063190171243, %rdi # imm = 0xEAC0CD5F83BD2195
	xorl	%esi, %esi
	callq	_KPrepCall
	.loc	1 308 3                 # jfdctint.c:308:3
.Ltmp182:
	callq	jfdctint_jpeg_fdct_islow
	xorl	%esi, %esi
.Ltmp183:
	.loc	1 315 3                 # jfdctint.c:315:3
	movq	%rbx, %rdi
	callq	_KExitRegion
	movabsq	$8595501204039170218, %rdi # imm = 0x77495ACDDD3278AA
	xorl	%esi, %esi
	callq	_KPrepCall
	movl	$1, %edi
	callq	_KLinkReturn
	.loc	1 317 12                # jfdctint.c:317:12
	callq	jfdctint_return
	movl	%eax, %ebx
	movl	$1, %edi
	movl	$1, %esi
	xorl	%edx, %edx
	callq	_KTimestamp1
	movl	$1, %edi
	callq	_KReturn
	xorl	%esi, %esi
	movq	%r14, %rdi
	callq	_KExitRegion
	callq	_KDeinit
	.loc	1 317 3 is_stmt 0       # jfdctint.c:317:3
	movl	%ebx, %eax
	popq	%rbx
	popq	%r14
	popq	%rbp
	retq
.Ltmp184:
.Ltmp185:
	.size	__main, .Ltmp185-__main
.Lfunc_end4:
	.cfi_endproc

	.type	jfdctint_CHECKSUM,@object # @jfdctint_CHECKSUM
	.section	.rodata,"a",@progbits
	.globl	jfdctint_CHECKSUM
	.align	4
jfdctint_CHECKSUM:
	.long	1668124                 # 0x19741c
	.size	jfdctint_CHECKSUM, 4

	.type	jfdctint_data,@object   # @jfdctint_data
	.comm	jfdctint_data,256,16
	.type	krem_prefixeac0cd5f83bd2195_krem_callsiteId_krem_jfdctint.c_krem_jfdctint_main_krem_308_krem_308_krem_,@object # @krem_prefixeac0cd5f83bd2195_krem_callsiteId_krem_jfdctint.c_krem_jfdctint_main_krem_308_krem_308_krem_
	.bss
	.globl	krem_prefixeac0cd5f83bd2195_krem_callsiteId_krem_jfdctint.c_krem_jfdctint_main_krem_308_krem_308_krem_
krem_prefixeac0cd5f83bd2195_krem_callsiteId_krem_jfdctint.c_krem_jfdctint_main_krem_308_krem_308_krem_:
	.byte	0                       # 0x0
	.size	krem_prefixeac0cd5f83bd2195_krem_callsiteId_krem_jfdctint.c_krem_jfdctint_main_krem_308_krem_308_krem_, 1

	.type	krem_prefixa2638cf4079b6a26_krem_callsiteId_krem_jfdctint.c_krem_main_krem_314_krem_314_krem_,@object # @krem_prefixa2638cf4079b6a26_krem_callsiteId_krem_jfdctint.c_krem_main_krem_314_krem_314_krem_
	.globl	krem_prefixa2638cf4079b6a26_krem_callsiteId_krem_jfdctint.c_krem_main_krem_314_krem_314_krem_
krem_prefixa2638cf4079b6a26_krem_callsiteId_krem_jfdctint.c_krem_main_krem_314_krem_314_krem_:
	.byte	0                       # 0x0
	.size	krem_prefixa2638cf4079b6a26_krem_callsiteId_krem_jfdctint.c_krem_main_krem_314_krem_314_krem_, 1

	.type	krem_prefix0d2362d079f26d2f_krem_callsiteId_krem_jfdctint.c_krem_main_krem_315_krem_315_krem_,@object # @krem_prefix0d2362d079f26d2f_krem_callsiteId_krem_jfdctint.c_krem_main_krem_315_krem_315_krem_
	.globl	krem_prefix0d2362d079f26d2f_krem_callsiteId_krem_jfdctint.c_krem_main_krem_315_krem_315_krem_
krem_prefix0d2362d079f26d2f_krem_callsiteId_krem_jfdctint.c_krem_main_krem_315_krem_315_krem_:
	.byte	0                       # 0x0
	.size	krem_prefix0d2362d079f26d2f_krem_callsiteId_krem_jfdctint.c_krem_main_krem_315_krem_315_krem_, 1

	.type	krem_prefix77495acddd3278aa_krem_callsiteId_krem_jfdctint.c_krem_main_krem_317_krem_317_krem_,@object # @krem_prefix77495acddd3278aa_krem_callsiteId_krem_jfdctint.c_krem_main_krem_317_krem_317_krem_
	.globl	krem_prefix77495acddd3278aa_krem_callsiteId_krem_jfdctint.c_krem_main_krem_317_krem_317_krem_
krem_prefix77495acddd3278aa_krem_callsiteId_krem_jfdctint.c_krem_main_krem_317_krem_317_krem_:
	.byte	0                       # 0x0
	.size	krem_prefix77495acddd3278aa_krem_callsiteId_krem_jfdctint.c_krem_main_krem_317_krem_317_krem_, 1

	.type	krem_prefix2060760479dd9e40_krem_loop_body_krem_jfdctint.c_krem_jfdctint_return_krem_163_krem_166_krem_,@object # @krem_prefix2060760479dd9e40_krem_loop_body_krem_jfdctint.c_krem_jfdctint_return_krem_163_krem_166_krem_
	.globl	krem_prefix2060760479dd9e40_krem_loop_body_krem_jfdctint.c_krem_jfdctint_return_krem_163_krem_166_krem_
krem_prefix2060760479dd9e40_krem_loop_body_krem_jfdctint.c_krem_jfdctint_return_krem_163_krem_166_krem_:
	.byte	0                       # 0x0
	.size	krem_prefix2060760479dd9e40_krem_loop_body_krem_jfdctint.c_krem_jfdctint_return_krem_163_krem_166_krem_, 1

	.type	krem_prefix3a548f285b618590_krem_loop_body_krem_jfdctint.c_krem_jfdctint_jpeg_fdct_islow_krem_177_krem_237_krem_,@object # @krem_prefix3a548f285b618590_krem_loop_body_krem_jfdctint.c_krem_jfdctint_jpeg_fdct_islow_krem_177_krem_237_krem_
	.globl	krem_prefix3a548f285b618590_krem_loop_body_krem_jfdctint.c_krem_jfdctint_jpeg_fdct_islow_krem_177_krem_237_krem_
krem_prefix3a548f285b618590_krem_loop_body_krem_jfdctint.c_krem_jfdctint_jpeg_fdct_islow_krem_177_krem_237_krem_:
	.byte	0                       # 0x0
	.size	krem_prefix3a548f285b618590_krem_loop_body_krem_jfdctint.c_krem_jfdctint_jpeg_fdct_islow_krem_177_krem_237_krem_, 1

	.type	krem_prefix486a90d48ebe1480_krem_loop_krem_jfdctint.c_krem_jfdctint_jpeg_fdct_islow_krem_177_krem_294_krem_,@object # @krem_prefix486a90d48ebe1480_krem_loop_krem_jfdctint.c_krem_jfdctint_jpeg_fdct_islow_krem_177_krem_294_krem_
	.globl	krem_prefix486a90d48ebe1480_krem_loop_krem_jfdctint.c_krem_jfdctint_jpeg_fdct_islow_krem_177_krem_294_krem_
krem_prefix486a90d48ebe1480_krem_loop_krem_jfdctint.c_krem_jfdctint_jpeg_fdct_islow_krem_177_krem_294_krem_:
	.byte	0                       # 0x0
	.size	krem_prefix486a90d48ebe1480_krem_loop_krem_jfdctint.c_krem_jfdctint_jpeg_fdct_islow_krem_177_krem_294_krem_, 1

	.type	krem_prefix4dd716e7c1345271_krem_loop_krem_jfdctint.c_krem_jfdctint_init_krem_146_krem_155_krem_,@object # @krem_prefix4dd716e7c1345271_krem_loop_krem_jfdctint.c_krem_jfdctint_init_krem_146_krem_155_krem_
	.globl	krem_prefix4dd716e7c1345271_krem_loop_krem_jfdctint.c_krem_jfdctint_init_krem_146_krem_155_krem_
krem_prefix4dd716e7c1345271_krem_loop_krem_jfdctint.c_krem_jfdctint_init_krem_146_krem_155_krem_:
	.byte	0                       # 0x0
	.size	krem_prefix4dd716e7c1345271_krem_loop_krem_jfdctint.c_krem_jfdctint_init_krem_146_krem_155_krem_, 1

	.type	krem_prefix5c99ea26b505e634_krem_func_krem_jfdctint.c_krem_jfdctint_jpeg_fdct_islow_krem_175_krem_175_krem_,@object # @krem_prefix5c99ea26b505e634_krem_func_krem_jfdctint.c_krem_jfdctint_jpeg_fdct_islow_krem_175_krem_175_krem_
	.globl	krem_prefix5c99ea26b505e634_krem_func_krem_jfdctint.c_krem_jfdctint_jpeg_fdct_islow_krem_175_krem_175_krem_
krem_prefix5c99ea26b505e634_krem_func_krem_jfdctint.c_krem_jfdctint_jpeg_fdct_islow_krem_175_krem_175_krem_:
	.byte	0                       # 0x0
	.size	krem_prefix5c99ea26b505e634_krem_func_krem_jfdctint.c_krem_jfdctint_jpeg_fdct_islow_krem_175_krem_175_krem_, 1

	.type	krem_prefix7a5b49c9a25ebb48_krem_func_krem_jfdctint.c_krem_jfdctint_main_krem_306_krem_306_krem_,@object # @krem_prefix7a5b49c9a25ebb48_krem_func_krem_jfdctint.c_krem_jfdctint_main_krem_306_krem_306_krem_
	.globl	krem_prefix7a5b49c9a25ebb48_krem_func_krem_jfdctint.c_krem_jfdctint_main_krem_306_krem_306_krem_
krem_prefix7a5b49c9a25ebb48_krem_func_krem_jfdctint.c_krem_jfdctint_main_krem_306_krem_306_krem_:
	.byte	0                       # 0x0
	.size	krem_prefix7a5b49c9a25ebb48_krem_func_krem_jfdctint.c_krem_jfdctint_main_krem_306_krem_306_krem_, 1

	.type	krem_prefix7b7f33e73501787d_krem_loop_body_krem_jfdctint.c_krem_jfdctint_init_krem_146_krem_155_krem_,@object # @krem_prefix7b7f33e73501787d_krem_loop_body_krem_jfdctint.c_krem_jfdctint_init_krem_146_krem_155_krem_
	.globl	krem_prefix7b7f33e73501787d_krem_loop_body_krem_jfdctint.c_krem_jfdctint_init_krem_146_krem_155_krem_
krem_prefix7b7f33e73501787d_krem_loop_body_krem_jfdctint.c_krem_jfdctint_init_krem_146_krem_155_krem_:
	.byte	0                       # 0x0
	.size	krem_prefix7b7f33e73501787d_krem_loop_body_krem_jfdctint.c_krem_jfdctint_init_krem_146_krem_155_krem_, 1

	.type	krem_prefix7c2ad3b6ff22f3cc_krem_loop_krem_jfdctint.c_krem_jfdctint_return_krem_163_krem_166_krem_,@object # @krem_prefix7c2ad3b6ff22f3cc_krem_loop_krem_jfdctint.c_krem_jfdctint_return_krem_163_krem_166_krem_
	.globl	krem_prefix7c2ad3b6ff22f3cc_krem_loop_krem_jfdctint.c_krem_jfdctint_return_krem_163_krem_166_krem_
krem_prefix7c2ad3b6ff22f3cc_krem_loop_krem_jfdctint.c_krem_jfdctint_return_krem_163_krem_166_krem_:
	.byte	0                       # 0x0
	.size	krem_prefix7c2ad3b6ff22f3cc_krem_loop_krem_jfdctint.c_krem_jfdctint_return_krem_163_krem_166_krem_, 1

	.type	krem_prefix8a8f553e8f6be3b9_krem_loop_body_krem_jfdctint.c_krem_jfdctint_jpeg_fdct_islow_krem_177_krem_294_krem_,@object # @krem_prefix8a8f553e8f6be3b9_krem_loop_body_krem_jfdctint.c_krem_jfdctint_jpeg_fdct_islow_krem_177_krem_294_krem_
	.globl	krem_prefix8a8f553e8f6be3b9_krem_loop_body_krem_jfdctint.c_krem_jfdctint_jpeg_fdct_islow_krem_177_krem_294_krem_
krem_prefix8a8f553e8f6be3b9_krem_loop_body_krem_jfdctint.c_krem_jfdctint_jpeg_fdct_islow_krem_177_krem_294_krem_:
	.byte	0                       # 0x0
	.size	krem_prefix8a8f553e8f6be3b9_krem_loop_body_krem_jfdctint.c_krem_jfdctint_jpeg_fdct_islow_krem_177_krem_294_krem_, 1

	.type	krem_prefix9b124c8d8f1726dd_krem_func_krem_jfdctint.c_krem_jfdctint_init_krem_144_krem_144_krem_,@object # @krem_prefix9b124c8d8f1726dd_krem_func_krem_jfdctint.c_krem_jfdctint_init_krem_144_krem_144_krem_
	.globl	krem_prefix9b124c8d8f1726dd_krem_func_krem_jfdctint.c_krem_jfdctint_init_krem_144_krem_144_krem_
krem_prefix9b124c8d8f1726dd_krem_func_krem_jfdctint.c_krem_jfdctint_init_krem_144_krem_144_krem_:
	.byte	0                       # 0x0
	.size	krem_prefix9b124c8d8f1726dd_krem_func_krem_jfdctint.c_krem_jfdctint_init_krem_144_krem_144_krem_, 1

	.type	krem_prefixccf54e4d9a4e040d_krem_func_krem_jfdctint.c_krem_main_krem_312_krem_312_krem_,@object # @krem_prefixccf54e4d9a4e040d_krem_func_krem_jfdctint.c_krem_main_krem_312_krem_312_krem_
	.globl	krem_prefixccf54e4d9a4e040d_krem_func_krem_jfdctint.c_krem_main_krem_312_krem_312_krem_
krem_prefixccf54e4d9a4e040d_krem_func_krem_jfdctint.c_krem_main_krem_312_krem_312_krem_:
	.byte	0                       # 0x0
	.size	krem_prefixccf54e4d9a4e040d_krem_func_krem_jfdctint.c_krem_main_krem_312_krem_312_krem_, 1

	.type	krem_prefixdd9c2e2aa0cb4671_krem_loop_krem_jfdctint.c_krem_jfdctint_jpeg_fdct_islow_krem_177_krem_237_krem_,@object # @krem_prefixdd9c2e2aa0cb4671_krem_loop_krem_jfdctint.c_krem_jfdctint_jpeg_fdct_islow_krem_177_krem_237_krem_
	.globl	krem_prefixdd9c2e2aa0cb4671_krem_loop_krem_jfdctint.c_krem_jfdctint_jpeg_fdct_islow_krem_177_krem_237_krem_
krem_prefixdd9c2e2aa0cb4671_krem_loop_krem_jfdctint.c_krem_jfdctint_jpeg_fdct_islow_krem_177_krem_237_krem_:
	.byte	0                       # 0x0
	.size	krem_prefixdd9c2e2aa0cb4671_krem_loop_krem_jfdctint.c_krem_jfdctint_jpeg_fdct_islow_krem_177_krem_237_krem_, 1

	.type	krem_prefixedc15f7913a0a96b_krem_func_krem_jfdctint.c_krem_jfdctint_return_krem_161_krem_161_krem_,@object # @krem_prefixedc15f7913a0a96b_krem_func_krem_jfdctint.c_krem_jfdctint_return_krem_161_krem_161_krem_
	.globl	krem_prefixedc15f7913a0a96b_krem_func_krem_jfdctint.c_krem_jfdctint_return_krem_161_krem_161_krem_
krem_prefixedc15f7913a0a96b_krem_func_krem_jfdctint.c_krem_jfdctint_return_krem_161_krem_161_krem_:
	.byte	0                       # 0x0
	.size	krem_prefixedc15f7913a0a96b_krem_func_krem_jfdctint.c_krem_jfdctint_return_krem_161_krem_161_krem_, 1

	.section	.rodata,"a",@progbits
.Ldebug_end1:
	.text
.Ldebug_end2:
	.section	".note.GNU-stack","",@progbits