	.text
	.file	"md5.simplifycfg.mem2reg.indvars.elimsinglephis.criticalpath.regioninstrument.renamemain.O3.bc"
	.text
	.globl	md5_orig_init
	.align	16, 0x90
	.type	md5_orig_init,@function
md5_orig_init:                          # @md5_orig_init
.Lfunc_begin0:
	.loc	1 247 0                 # md5.c:247:0
	.cfi_startproc
# BB#0:                                 # %entry
	pushq	%rbp
.Ltmp0:
	.cfi_def_cfa_offset 16
.Ltmp1:
	.cfi_offset %rbp, -16
	movq	%rsp, %rbp
.Ltmp2:
	.cfi_def_cfa_register %rbp
	pushq	%r15
	pushq	%r14
	pushq	%rbx
	pushq	%rax
.Ltmp3:
	.cfi_offset %rbx, -40
.Ltmp4:
	.cfi_offset %r14, -32
.Ltmp5:
	.cfi_offset %r15, -24
	#DEBUG_VALUE: md5_orig_init:context <- RDI
	movq	%rdi, %rbx
.Ltmp6:
	#DEBUG_VALUE: md5_orig_init:context <- RBX
	movabsq	$7442143607960224042, %r14 # imm = 0x6747CE2E67E9C12A
	xorl	%esi, %esi
	movq	%r14, %rdi
	callq	_KEnterRegion
	movl	$1, %edi
	xorl	%esi, %esi
	callq	_KPrepRTable
	movl	$18, %edi
	callq	_KWork
	.loc	1 248 23 prologue_end   # md5.c:248:23
.Ltmp7:
	movq	%rbx, %r15
	subq	$-128, %r15
	leaq	136(%rbx), %rdi
	movl	$8, %esi
	callq	_KStoreConst
	movq	$0, 136(%rbx)
	movl	$8, %esi
	movq	%r15, %rdi
	callq	_KStoreConst
	.loc	1 248 3 is_stmt 0       # md5.c:248:3
	movq	$0, 128(%rbx)
	movl	$8, %esi
	movq	%rbx, %rdi
	callq	_KStoreConst
	.loc	1 252 3 is_stmt 1       # md5.c:252:3
	movq	$1732584193, (%rbx)     # imm = 0x67452301
	.loc	1 253 3                 # md5.c:253:3
	leaq	8(%rbx), %rdi
	movl	$8, %esi
	callq	_KStoreConst
	movl	$2562383102, %r15d      # imm = 0x98BADCFE
	leaq	1460850315(%r15), %rax
	movq	%rax, 8(%rbx)
	.loc	1 254 3                 # md5.c:254:3
	leaq	16(%rbx), %rdi
	movl	$8, %esi
	callq	_KStoreConst
	movq	%r15, 16(%rbx)
	.loc	1 255 3                 # md5.c:255:3
	leaq	24(%rbx), %rdi
	movl	$8, %esi
	callq	_KStoreConst
	movq	$271733878, 24(%rbx)    # imm = 0x10325476
	.loc	1 256 3                 # md5.c:256:3
	leaq	32(%rbx), %rdi
	movl	$8, %esi
	callq	_KStoreConst
	movq	$0, 32(%rbx)
	.loc	1 257 3                 # md5.c:257:3
	leaq	40(%rbx), %rdi
	movl	$8, %esi
	callq	_KStoreConst
	movq	$0, 40(%rbx)
	.loc	1 258 3                 # md5.c:258:3
	leaq	48(%rbx), %rdi
	movl	$8, %esi
	callq	_KStoreConst
	movq	$0, 48(%rbx)
	.loc	1 259 3                 # md5.c:259:3
	leaq	56(%rbx), %rdi
	movl	$8, %esi
	callq	_KStoreConst
	movq	$0, 56(%rbx)
	.loc	1 260 3                 # md5.c:260:3
	leaq	64(%rbx), %rdi
	movl	$8, %esi
	callq	_KStoreConst
	movq	$0, 64(%rbx)
	.loc	1 261 3                 # md5.c:261:3
	leaq	72(%rbx), %rdi
	movl	$8, %esi
	callq	_KStoreConst
	movq	$0, 72(%rbx)
	.loc	1 262 3                 # md5.c:262:3
	leaq	80(%rbx), %rdi
	movl	$8, %esi
	callq	_KStoreConst
	movq	$0, 80(%rbx)
	.loc	1 263 3                 # md5.c:263:3
	leaq	88(%rbx), %rdi
	movl	$8, %esi
	callq	_KStoreConst
	movq	$0, 88(%rbx)
	.loc	1 264 3                 # md5.c:264:3
	leaq	96(%rbx), %rdi
	movl	$8, %esi
	callq	_KStoreConst
	movq	$0, 96(%rbx)
	.loc	1 265 3                 # md5.c:265:3
	leaq	104(%rbx), %rdi
	movl	$8, %esi
	callq	_KStoreConst
	movq	$0, 104(%rbx)
	.loc	1 266 3                 # md5.c:266:3
	leaq	112(%rbx), %rdi
	movl	$8, %esi
	callq	_KStoreConst
	movq	$0, 112(%rbx)
	.loc	1 267 3                 # md5.c:267:3
	leaq	120(%rbx), %rdi
	movl	$8, %esi
	callq	_KStoreConst
	movq	$0, 120(%rbx)
	xorl	%esi, %esi
	movq	%r14, %rdi
	addq	$8, %rsp
	popq	%rbx
.Ltmp8:
	popq	%r14
	popq	%r15
	popq	%rbp
	jmp	_KExitRegion            # TAILCALL
.Ltmp9:
.Ltmp10:
	.size	md5_orig_init, .Ltmp10-md5_orig_init
.Lfunc_end0:
	.cfi_endproc

	.globl	md5_update
	.align	16, 0x90
	.type	md5_update,@function
md5_update:                             # @md5_update
.Lfunc_begin1:
	.loc	1 278 0                 # md5.c:278:0
	.cfi_startproc
# BB#0:                                 # %entry
	pushq	%rbp
.Ltmp11:
	.cfi_def_cfa_offset 16
.Ltmp12:
	.cfi_offset %rbp, -16
	movq	%rsp, %rbp
.Ltmp13:
	.cfi_def_cfa_register %rbp
	pushq	%r15
	pushq	%r14
	pushq	%r13
	pushq	%r12
	pushq	%rbx
	subq	$40, %rsp
.Ltmp14:
	.cfi_offset %rbx, -56
.Ltmp15:
	.cfi_offset %r12, -48
.Ltmp16:
	.cfi_offset %r13, -40
.Ltmp17:
	.cfi_offset %r14, -32
.Ltmp18:
	.cfi_offset %r15, -24
	#DEBUG_VALUE: md5_update:context <- RDI
	#DEBUG_VALUE: md5_update:input <- RSI
	#DEBUG_VALUE: md5_update:inputLen <- EDX
	movl	%edx, %r14d
.Ltmp19:
	#DEBUG_VALUE: md5_update:inputLen <- R14D
	movl	%r14d, -44(%rbp)        # 4-byte Spill
	movq	%rsi, -56(%rbp)         # 8-byte Spill
.Ltmp20:
	#DEBUG_VALUE: md5_update:input <- [RBP+-56]
	movq	%rdi, %r15
.Ltmp21:
	#DEBUG_VALUE: md5_update:context <- R15
	movabsq	$6718135206100796952, %rdi # imm = 0x5D3B9C6030AF0618
	xorl	%esi, %esi
	callq	_KEnterRegion
	movl	$19, %edi
	movl	$2, %esi
	callq	_KPrepRTable
	movl	$1, %edi
	callq	_KDeqArg
	movl	$15, %edi
	callq	_KWork
	.loc	1 282 27 prologue_end   # md5.c:282:27
.Ltmp22:
	movq	%r15, %rbx
	subq	$-128, %rbx
	movl	$2, %esi
	movl	$8, %edx
	movq	%rbx, %rdi
	callq	_KLoad0
	movl	128(%r15), %eax
	.loc	1 282 11 is_stmt 0      # md5.c:282:11
	shrl	$3, %eax
	andl	$63, %eax
.Ltmp23:
	#DEBUG_VALUE: md5_update:index <- EAX
	movl	%eax, -72(%rbp)         # 4-byte Spill
.Ltmp24:
	#DEBUG_VALUE: md5_update:index <- [RBP+-72]
	.loc	1 285 30 is_stmt 1      # md5.c:285:30
	movl	%r14d, %r12d
.Ltmp25:
	#DEBUG_VALUE: md5_update:inputLen <- [RBP+-44]
	leaq	(,%r12,8), %r14
	movl	$3, %esi
	movl	$8, %edx
	movq	%rbx, %rdi
	callq	_KLoad0
.Ltmp26:
	.loc	1 285 7 is_stmt 0       # md5.c:285:7
	movq	128(%r15), %r13
	movl	$4, %edi
	movl	$1, %esi
	movl	$2, %edx
	movl	$3, %ecx
	movl	$1, %r8d
	callq	_KTimestamp2
	movl	$4, %edi
	movl	$8, %edx
	movq	%rbx, %rsi
	callq	_KStore
	leaq	(%r14,%r13), %rax
	.loc	1 285 8                 # md5.c:285:8
.Ltmp27:
	movq	%rax, 128(%r15)
	movl	$17, %edi
	movl	$2, %esi
	movl	$2, %edx
	callq	_KTimestamp1
	movl	$18, %edi
	movl	$1, %esi
	movl	$3, %edx
	movl	$3, %ecx
	movl	$2, %r8d
	callq	_KTimestamp2
.Ltmp28:
	.loc	1 285 7                 # md5.c:285:7
	addq	%r14, %r13
	jae	.LBB1_1
.Ltmp29:
# BB#2:                                 # %if.then
	#DEBUG_VALUE: md5_update:context <- R15
	#DEBUG_VALUE: md5_update:input <- [RBP+-56]
	#DEBUG_VALUE: md5_update:inputLen <- [RBP+-44]
	#DEBUG_VALUE: md5_update:index <- [RBP+-72]
	movl	$18, %edi
	callq	_KPushCDep
	movl	$6, %edi
	callq	_KWork
	.loc	1 287 5 is_stmt 1       # md5.c:287:5
.Ltmp30:
	leaq	136(%r15), %rbx
	movl	$5, %esi
	movl	$8, %edx
	movq	%rbx, %rdi
	callq	_KLoad0
	movq	136(%r15), %r14
	incq	%r14
	movl	$1, (%rsp)
	movl	$6, %edi
	movl	$1, %esi
	movl	$4, %edx
	movl	$3, %ecx
	movl	$3, %r8d
	movl	$5, %r9d
	callq	_KTimestamp3
	movl	$6, %edi
	movl	$8, %edx
	movq	%rbx, %rsi
	callq	_KStore
	movq	%r14, 136(%r15)
	callq	_KPopCDep
	jmp	.LBB1_3
.Ltmp31:
.LBB1_1:                                # %entry.if.end_crit_edge
	#DEBUG_VALUE: md5_update:context <- R15
	#DEBUG_VALUE: md5_update:input <- [RBP+-56]
	#DEBUG_VALUE: md5_update:inputLen <- [RBP+-44]
	#DEBUG_VALUE: md5_update:index <- [RBP+-72]
	.loc	1 288 3                 # md5.c:288:3
	leaq	136(%r15), %rbx
.Ltmp32:
.LBB1_3:                                # %if.end
	movq	%r15, %r13
.Ltmp33:
	#DEBUG_VALUE: md5_update:context <- R13
	#DEBUG_VALUE: md5_update:input <- [RBP+-56]
	#DEBUG_VALUE: md5_update:inputLen <- [RBP+-44]
	#DEBUG_VALUE: md5_update:index <- [RBP+-72]
	movl	$9, %r14d
	movl	$9, %edi
	callq	_KWork
	.loc	1 288 25 is_stmt 0      # md5.c:288:25
	shrq	$29, %r12
	movl	$7, %esi
	movl	$8, %edx
	movq	%rbx, %rdi
	callq	_KLoad0
	.loc	1 288 3                 # md5.c:288:3
	addq	(%rbx), %r12
	movl	$8, %edi
	movl	$1, %esi
	movl	$2, %edx
	movl	$7, %ecx
	movl	$1, %r8d
	callq	_KTimestamp2
	movl	$8, %edi
	movl	$8, %edx
	movq	%rbx, %rsi
	callq	_KStore
	movq	%r12, (%rbx)
	movl	$64, %r12d
	movl	-72(%rbp), %ebx         # 4-byte Reload
.Ltmp34:
	#DEBUG_VALUE: md5_update:index <- EBX
	.loc	1 290 13 is_stmt 1      # md5.c:290:13
	subl	%ebx, %r12d
.Ltmp35:
	#DEBUG_VALUE: md5_update:partLen <- R12D
	#DEBUG_VALUE: md5_update:i <- R12D
	movl	$9, %edi
	movl	$2, %esi
	movl	$3, %edx
	callq	_KTimestamp1
	movl	$14, %edi
	movl	$2, %esi
	movl	$4, %edx
	movl	$1, %ecx
	movl	$1, %r8d
	callq	_KTimestamp2
	movl	$14, %edi
	callq	_KPushCDep
	.loc	1 294 7                 # md5.c:294:7
.Ltmp36:
	cmpl	-44(%rbp), %r12d        # 4-byte Folded Reload
	jbe	.LBB1_4
.Ltmp37:
# BB#8:                                 # %if.else
	#DEBUG_VALUE: md5_update:context <- R13
	#DEBUG_VALUE: md5_update:input <- [RBP+-56]
	#DEBUG_VALUE: md5_update:inputLen <- [RBP+-44]
	#DEBUG_VALUE: md5_update:index <- EBX
	#DEBUG_VALUE: md5_update:i <- 0
	callq	_KPopCDep
	movl	%ebx, %ebx
.Ltmp38:
	movl	$17, %esi
	xorl	%r14d, %r14d
	xorl	%r12d, %r12d
	jmp	.LBB1_9
.Ltmp39:
.LBB1_4:                                # %if.then16
	#DEBUG_VALUE: md5_update:context <- R13
	#DEBUG_VALUE: md5_update:input <- [RBP+-56]
	#DEBUG_VALUE: md5_update:inputLen <- [RBP+-44]
	#DEBUG_VALUE: md5_update:index <- EBX
	#DEBUG_VALUE: md5_update:i <- R12D
	#DEBUG_VALUE: md5_update:partLen <- R12D
	.loc	1 295 26                # md5.c:295:26
	movl	%ebx, %eax
	leaq	144(%r13,%rax), %r15
	leaq	144(%r13), %rax
	movq	%rax, -72(%rbp)         # 8-byte Spill
	movq	%r13, %rbx
.Ltmp40:
	#DEBUG_VALUE: md5_update:context <- RBX
	movq	%rbx, -64(%rbp)         # 8-byte Spill
	xorl	%r13d, %r13d
	movabsq	$5699607525497457388, %rdi # imm = 0x4F1912D8BC6B4AEC
	xorl	%esi, %esi
	callq	_KPrepCall
	movl	$9, %edi
	callq	_KEnqArg
	.loc	1 295 5 is_stmt 0       # md5.c:295:5
	movq	%r15, %rdi
	movq	-56(%rbp), %rsi         # 8-byte Reload
	movl	%r12d, %edx
	callq	md5_memcpy
	movabsq	$3466483943862188583, %rdi # imm = 0x301B6CC7DD803A27
	xorl	%esi, %esi
	callq	_KPrepCall
	.loc	1 296 5 is_stmt 1       # md5.c:296:5
	movq	%rbx, %rdi
.Ltmp41:
	#DEBUG_VALUE: md5_update:context <- [RBP+-64]
	movq	-72(%rbp), %rsi         # 8-byte Reload
	callq	md5_transform
	callq	_KPopCDep
	movl	$1, %esi
	movabsq	$4967296377687917841, %rdi # imm = 0x44EF61BCD62C4511
	callq	_KEnterRegion
	movabsq	$-3064834805338416499, %r15 # imm = 0xD57784FB948CDA8D
	jmp	.LBB1_5
.Ltmp42:
	.align	16, 0x90
.LBB1_6:                                # %for.body
                                        #   in Loop: Header=BB1_5 Depth=1
	#DEBUG_VALUE: md5_update:context <- [RBP+-64]
	#DEBUG_VALUE: md5_update:input <- [RBP+-56]
	#DEBUG_VALUE: md5_update:inputLen <- [RBP+-44]
	movl	$2, %esi
	movq	%r15, %rdi
	callq	_KEnterRegion
	movl	$15, %r13d
	movl	$15, %edi
	callq	_KPushCDep
	movl	$1, %edi
	callq	_KWork
	.loc	1 300 38                # md5.c:300:38
.Ltmp43:
	movl	%r12d, %ebx
	addq	-56(%rbp), %rbx         # 8-byte Folded Reload
	xorl	%esi, %esi
	movabsq	$-1538323948902299464, %rdi # imm = 0xEAA6C684D433C8B8
	callq	_KPrepCall
	.loc	1 300 7 is_stmt 0       # md5.c:300:7
	movq	-64(%rbp), %rdi         # 8-byte Reload
	movq	%rbx, %rsi
	callq	md5_transform
.Ltmp44:
	.loc	1 299 42 is_stmt 1      # md5.c:299:42
	addl	$64, %r12d
.Ltmp45:
	#DEBUG_VALUE: md5_update:i <- R12D
	movl	$13, %r14d
	movl	$13, %edi
	movl	$12, %esi
	movl	$1, %edx
	movl	$15, %ecx
	movl	$1, %r8d
	callq	_KTimestamp2
	callq	_KPopCDep
	movl	$2, %esi
	movq	%r15, %rdi
	callq	_KExitRegion
.Ltmp46:
.LBB1_5:                                # %for.cond
                                        # =>This Inner Loop Header: Depth=1
	#DEBUG_VALUE: md5_update:context <- [RBP+-64]
	#DEBUG_VALUE: md5_update:input <- [RBP+-56]
	#DEBUG_VALUE: md5_update:inputLen <- [RBP+-44]
	movl	$14, %edi
	callq	_KPushCDep
	movl	$12, %edi
	movl	$14, %edx
	movl	%r14d, %esi
	movl	%r13d, %ecx
	callq	_KPhi2To1
	movl	$2, %edi
	callq	_KWork
	.loc	1 299 23 is_stmt 0 discriminator 2 # md5.c:299:23
.Ltmp47:
	leal	63(%r12), %ebx
	movl	$1, (%rsp)
	movl	$15, %edi
	movl	$14, %esi
	movl	$2, %edx
	movl	$12, %ecx
	movl	$2, %r8d
	movl	$1, %r9d
	callq	_KTimestamp3
	movl	$12, %edi
	movl	$15, %esi
	callq	_KPhiAddCond
	movl	$12, %edi
	movl	$12, %esi
	xorl	%edx, %edx
	callq	_KTimestamp1
	callq	_KPopCDep
.Ltmp48:
	.loc	1 299 5                 # md5.c:299:5
	cmpl	-44(%rbp), %ebx         # 4-byte Folded Reload
	jb	.LBB1_6
.Ltmp49:
# BB#7:                                 # %for.cond.pre_exit.for.end
	#DEBUG_VALUE: md5_update:context <- [RBP+-64]
	#DEBUG_VALUE: md5_update:input <- [RBP+-56]
	#DEBUG_VALUE: md5_update:inputLen <- [RBP+-44]
	movl	$1, %esi
	movabsq	$4967296377687917841, %rdi # imm = 0x44EF61BCD62C4511
	callq	_KExitRegion
	movl	$14, %edi
	callq	_KPushCDep
.Ltmp50:
	#DEBUG_VALUE: md5_update:index <- 0
	callq	_KPopCDep
	xorl	%esi, %esi
	movl	$12, %r14d
	xorl	%ebx, %ebx
	movq	-64(%rbp), %r13         # 8-byte Reload
.Ltmp51:
	#DEBUG_VALUE: md5_update:context <- R13
.LBB1_9:                                # %if.end28
	#DEBUG_VALUE: md5_update:context <- R13
	#DEBUG_VALUE: md5_update:input <- [RBP+-56]
	#DEBUG_VALUE: md5_update:inputLen <- [RBP+-44]
	movl	$16, %edi
	movl	$14, %edx
                                        # kill: ESI<def> ESI<kill> RSI<kill>
	callq	_KPhi1To1
	movl	$11, %edi
	movl	$14, %edx
	movl	%r14d, %esi
	callq	_KPhi1To1
	movl	$1, %edi
	callq	_KWork
	.loc	1 309 24 is_stmt 1      # md5.c:309:24
	leaq	144(%r13,%rbx), %r14
	.loc	1 309 58 is_stmt 0      # md5.c:309:58
	movl	%r12d, %eax
	movq	-56(%rbp), %r15         # 8-byte Reload
.Ltmp52:
	#DEBUG_VALUE: md5_update:input <- R15
	addq	%rax, %r15
.Ltmp53:
	movl	-44(%rbp), %ebx         # 4-byte Reload
.Ltmp54:
	#DEBUG_VALUE: md5_update:inputLen <- EBX
	.loc	1 309 69                # md5.c:309:69
	subl	%r12d, %ebx
.Ltmp55:
	movabsq	$5430403399510587498, %rdi # imm = 0x4B5CAB1ECEE6F86A
	xorl	%esi, %esi
	callq	_KPrepCall
	movl	$10, %edi
	movl	$1, %esi
	movl	$1, %edx
	movl	$11, %ecx
	movl	$1, %r8d
	callq	_KTimestamp2
	movl	$10, %edi
	callq	_KEnqArg
	.loc	1 309 3                 # md5.c:309:3
	movq	%r14, %rdi
	movq	%r15, %rsi
	movl	%ebx, %edx
	callq	md5_memcpy
	xorl	%esi, %esi
	movabsq	$6718135206100796952, %rdi # imm = 0x5D3B9C6030AF0618
	addq	$40, %rsp
	popq	%rbx
	popq	%r12
	popq	%r13
.Ltmp56:
	popq	%r14
	popq	%r15
	popq	%rbp
	jmp	_KExitRegion            # TAILCALL
.Ltmp57:
.Ltmp58:
	.size	md5_update, .Ltmp58-md5_update
.Lfunc_end1:
	.cfi_endproc

	.globl	md5_memcpy
	.align	16, 0x90
	.type	md5_memcpy,@function
md5_memcpy:                             # @md5_memcpy
.Lfunc_begin2:
	.loc	1 479 0 is_stmt 1       # md5.c:479:0
	.cfi_startproc
# BB#0:                                 # %entry
	pushq	%rbp
.Ltmp59:
	.cfi_def_cfa_offset 16
.Ltmp60:
	.cfi_offset %rbp, -16
	movq	%rsp, %rbp
.Ltmp61:
	.cfi_def_cfa_register %rbp
	pushq	%r15
	pushq	%r14
	pushq	%r13
	pushq	%r12
	pushq	%rbx
	pushq	%rax
.Ltmp62:
	.cfi_offset %rbx, -56
.Ltmp63:
	.cfi_offset %r12, -48
.Ltmp64:
	.cfi_offset %r13, -40
.Ltmp65:
	.cfi_offset %r14, -32
.Ltmp66:
	.cfi_offset %r15, -24
	#DEBUG_VALUE: md5_memcpy:output <- RDI
	#DEBUG_VALUE: md5_memcpy:input <- RSI
	#DEBUG_VALUE: md5_memcpy:len <- EDX
	movl	%edx, %r12d
.Ltmp67:
	#DEBUG_VALUE: md5_memcpy:len <- R12D
	movq	%rsi, %r13
.Ltmp68:
	#DEBUG_VALUE: md5_memcpy:input <- R13
	movq	%rdi, %rbx
.Ltmp69:
	#DEBUG_VALUE: md5_memcpy:output <- RBX
	movabsq	$8461345001934634745, %rdi # imm = 0x756CBC72FA573EF9
	movabsq	$5728349375327918602, %r14 # imm = 0x4F7F2F6821C05A0A
	xorl	%esi, %esi
	callq	_KEnterRegion
	movl	$5, %edi
	movl	$2, %esi
	callq	_KPrepRTable
	movl	$1, %edi
	callq	_KDeqArg
.Ltmp70:
	#DEBUG_VALUE: md5_memcpy:i <- 0
	movl	$3, %edi
	callq	_KInduction
	movl	$1, %esi
	movq	%r14, %rdi
	callq	_KEnterRegion
	movl	$1, %edi
	callq	_KWork
	movl	$4, %edi
	movl	$1, %esi
	movl	$1, %edx
	movl	$3, %ecx
	movl	$1, %r8d
	callq	_KTimestamp2
	.loc	1 483 3 prologue_end    # md5.c:483:3
.Ltmp71:
	testl	%r12d, %r12d
	je	.LBB2_3
.Ltmp72:
# BB#1:                                 # %for.body.lr.ph
	#DEBUG_VALUE: md5_memcpy:output <- RBX
	#DEBUG_VALUE: md5_memcpy:input <- R13
	#DEBUG_VALUE: md5_memcpy:len <- R12D
	#DEBUG_VALUE: md5_memcpy:i <- 0
	movabsq	$-6479483825506816822, %r14 # imm = 0xA6143FCA5CC6ECCA
.Ltmp73:
	.align	16, 0x90
.LBB2_2:                                # %for.body
                                        # =>This Inner Loop Header: Depth=1
	#DEBUG_VALUE: md5_memcpy:i <- 0
	movl	$2, %esi
	movq	%r14, %rdi
	callq	_KEnterRegion
	movl	$4, %edi
	callq	_KPushCDep
	movl	$5, %edi
	callq	_KWork
	movl	$2, %esi
	movl	$1, %edx
	movq	%r13, %rdi
	callq	_KLoad0
	.loc	1 484 17                # md5.c:484:17
.Ltmp74:
	movb	(%r13), %r15b
	movl	$2, %edi
	movl	$2, %esi
	xorl	%edx, %edx
	callq	_KTimestamp1
	movl	$2, %edi
	movl	$1, %edx
	movq	%rbx, %rsi
	callq	_KStore
	.loc	1 484 5 is_stmt 0       # md5.c:484:5
	movb	%r15b, (%rbx)
	callq	_KPopCDep
	movl	$2, %esi
	movq	%r14, %rdi
	callq	_KExitRegion
	movl	$1, %edi
	callq	_KWork
	movl	$4, %edi
	movl	$1, %esi
	movl	$1, %edx
	movl	$3, %ecx
	movl	$1, %r8d
	callq	_KTimestamp2
.Ltmp75:
	.loc	1 483 3 is_stmt 1       # md5.c:483:3
	incq	%rbx
	incq	%r13
	decl	%r12d
	jne	.LBB2_2
.Ltmp76:
.LBB2_3:                                # %for.cond.pre_exit.for.end
	#DEBUG_VALUE: md5_memcpy:i <- 0
	movl	$1, %esi
	movabsq	$5728349375327918602, %rdi # imm = 0x4F7F2F6821C05A0A
	callq	_KExitRegion
	xorl	%esi, %esi
	movabsq	$8461345001934634745, %rdi # imm = 0x756CBC72FA573EF9
	addq	$8, %rsp
	popq	%rbx
	popq	%r12
	popq	%r13
	popq	%r14
	popq	%r15
	popq	%rbp
	jmp	_KExitRegion            # TAILCALL
.Ltmp77:
	.size	md5_memcpy, .Ltmp77-md5_memcpy
.Lfunc_end2:
	.cfi_endproc

	.globl	md5_transform
	.align	16, 0x90
	.type	md5_transform,@function
md5_transform:                          # @md5_transform
.Lfunc_begin3:
	.loc	1 357 0                 # md5.c:357:0
	.cfi_startproc
# BB#0:                                 # %entry
	pushq	%rbp
.Ltmp78:
	.cfi_def_cfa_offset 16
.Ltmp79:
	.cfi_offset %rbp, -16
	movq	%rsp, %rbp
.Ltmp80:
	.cfi_def_cfa_register %rbp
	pushq	%r15
	pushq	%r14
	pushq	%r13
	pushq	%r12
	pushq	%rbx
	subq	$1272, %rsp             # imm = 0x4F8
.Ltmp81:
	.cfi_offset %rbx, -56
.Ltmp82:
	.cfi_offset %r12, -48
.Ltmp83:
	.cfi_offset %r13, -40
.Ltmp84:
	.cfi_offset %r14, -32
.Ltmp85:
	.cfi_offset %r15, -24
	#DEBUG_VALUE: md5_transform:state <- RDI
	#DEBUG_VALUE: md5_transform:block <- RSI
	movq	%rsi, -184(%rbp)        # 8-byte Spill
.Ltmp86:
	#DEBUG_VALUE: md5_transform:block <- [RBP+-184]
	movq	%rdi, %rbx
.Ltmp87:
	#DEBUG_VALUE: md5_transform:state <- RBX
	movq	%rbx, -224(%rbp)        # 8-byte Spill
	movabsq	$3886969788622743090, %rdi # imm = 0x35F14A6DBF88A632
	xorl	%esi, %esi
	callq	_KEnterRegion
	movl	$77, %edi
	xorl	%esi, %esi
	callq	_KPrepRTable
	movl	$952, %edi              # imm = 0x3B8
	callq	_KWork
	movl	$1, %esi
	movl	$8, %edx
	movq	%rbx, %rdi
	callq	_KLoad0
	.loc	1 358 13 prologue_end   # md5.c:358:13
.Ltmp88:
	movq	(%rbx), %r12
.Ltmp89:
	#DEBUG_VALUE: md5_transform:a <- R12
	.loc	1 358 27 is_stmt 0      # md5.c:358:27
	leaq	8(%rbx), %rdi
	movq	%rdi, -216(%rbp)        # 8-byte Spill
	movl	$2, %esi
	movl	$8, %edx
	callq	_KLoad0
	movq	8(%rbx), %r15
.Ltmp90:
	#DEBUG_VALUE: md5_transform:b <- R15
	.loc	1 358 41                # md5.c:358:41
	leaq	16(%rbx), %rdi
	movq	%rdi, -208(%rbp)        # 8-byte Spill
	movl	$3, %esi
	movl	$8, %edx
	callq	_KLoad0
	movq	16(%rbx), %r13
.Ltmp91:
	#DEBUG_VALUE: md5_transform:c <- R13
	.loc	1 358 55                # md5.c:358:55
	movq	%r13, -192(%rbp)        # 8-byte Spill
	leaq	24(%rbx), %rdi
	movq	%rdi, -200(%rbp)        # 8-byte Spill
	movl	$4, %esi
	movl	$8, %edx
	callq	_KLoad0
	movq	24(%rbx), %r14
.Ltmp92:
	#DEBUG_VALUE: md5_transform:d <- R14
	#DEBUG_VALUE: md5_transform:state <- [RBP+-224]
	.loc	1 363 3 is_stmt 1       # md5.c:363:3
	movq	%r13, %rax
	andq	%r15, %rax
	movq	%r15, %rbx
	notq	%rbx
	andq	%r14, %rbx
	orq	%rax, %rbx
.Ltmp93:
	.loc	1 358 13                # md5.c:358:13
	addq	%r12, %rbx
	movabsq	$3235601296337248624, %rdi # imm = 0x2CE72A3C6EF9A170
	xorl	%esi, %esi
	callq	_KPrepCall
	callq	_KEnqArgConst
	leaq	-176(%rbp), %r12
.Ltmp94:
	movl	$64, %edx
	.loc	1 360 3                 # md5.c:360:3
	movq	%r12, %rdi
	movq	-184(%rbp), %rsi        # 8-byte Reload
.Ltmp95:
	#DEBUG_VALUE: md5_transform:block <- RSI
	callq	md5_decode
	movl	$5, %esi
.Ltmp96:
	movl	$8, %edx
	movq	%r12, %rdi
	callq	_KLoad0
	.loc	1 363 3                 # md5.c:363:3
.Ltmp97:
	addq	-176(%rbp), %rbx
.Ltmp98:
	.loc	1 364 3                 # md5.c:364:3
	leaq	-168(%rbp), %rdi
	movl	$6, %esi
	movl	$8, %edx
	callq	_KLoad0
.Ltmp99:
	.loc	1 358 55                # md5.c:358:55
	addq	-168(%rbp), %r14
.Ltmp100:
	.loc	1 365 3                 # md5.c:365:3
	leaq	-160(%rbp), %rdi
	movl	$7, %esi
	movl	$8, %edx
	callq	_KLoad0
	movq	-160(%rbp), %r12
	addq	%r13, %r12
.Ltmp101:
	#DEBUG_VALUE: md5_transform:c <- [RBP+-192]
	.loc	1 366 3                 # md5.c:366:3
	leaq	-152(%rbp), %rdi
	movl	$8, %esi
	movl	$8, %edx
	callq	_KLoad0
	movq	-152(%rbp), %rax
.Ltmp102:
	.loc	1 358 27                # md5.c:358:27
	addq	%r15, %rax
	movq	%rax, -184(%rbp)        # 8-byte Spill
	movl	$2240044497, %eax       # imm = 0x85845DD1
	.loc	1 363 3                 # md5.c:363:3
.Ltmp103:
	leaq	1374045863(%rax,%rbx), %r13
.Ltmp104:
	#DEBUG_VALUE: md5_transform:a <- R13
	movl	$2240044497, %ebx       # imm = 0x85845DD1
	movq	%r13, %rax
	shlq	$7, %rax
	shrq	$25, %r13
.Ltmp105:
	orq	%rax, %r13
.Ltmp106:
	#DEBUG_VALUE: md5_transform:a <- R13
	addq	%r15, %r13
.Ltmp107:
	.loc	1 367 3                 # md5.c:367:3
	leaq	-144(%rbp), %rdi
	movl	$9, %esi
	movl	$8, %edx
	callq	_KLoad0
	movq	-144(%rbp), %rax
.Ltmp108:
	.loc	1 363 3                 # md5.c:363:3
	addq	%r13, %rax
.Ltmp109:
	.loc	1 364 3                 # md5.c:364:3
	movq	%r13, %rcx
	andq	%r15, %rcx
	movq	%r13, %rdx
	notq	%rdx
	andq	-192(%rbp), %rdx        # 8-byte Folded Reload
	orq	%rcx, %rdx
	addq	%r14, %rdx
	leaq	1665358213(%rbx,%rdx), %r14
.Ltmp110:
	#DEBUG_VALUE: md5_transform:d <- R14
	movq	%r14, %rcx
	shlq	$12, %rcx
	shrq	$20, %r14
.Ltmp111:
	orq	%rcx, %r14
.Ltmp112:
	#DEBUG_VALUE: md5_transform:d <- R14
	addq	%r13, %r14
.Ltmp113:
	.loc	1 365 3                 # md5.c:365:3
	movq	%r14, %rcx
	andq	%r13, %rcx
	movq	%r14, %rdx
	notq	%rdx
	andq	%r15, %rdx
	orq	%rcx, %rdx
	leaq	606105819(%rdx,%r12), %r15
.Ltmp114:
	#DEBUG_VALUE: md5_transform:c <- R15
	movq	%r15, %rcx
	shlq	$17, %rcx
	shrq	$15, %r15
.Ltmp115:
	orq	%rcx, %r15
.Ltmp116:
	#DEBUG_VALUE: md5_transform:c <- R15
	addq	%r14, %r15
.Ltmp117:
	.loc	1 366 3                 # md5.c:366:3
	movq	%r15, %rcx
	andq	%r14, %rcx
	movq	%r15, %rdx
	notq	%rdx
	andq	%r13, %rdx
	orq	%rcx, %rdx
	addq	-184(%rbp), %rdx        # 8-byte Folded Reload
	movl	$2240044497, %esi       # imm = 0x85845DD1
	leaq	1010397469(%rsi,%rdx), %r12
.Ltmp118:
	#DEBUG_VALUE: md5_transform:b <- R12
	movq	%r12, %rcx
	shlq	$22, %rcx
	shrq	$10, %r12
.Ltmp119:
	orq	%rcx, %r12
.Ltmp120:
	#DEBUG_VALUE: md5_transform:b <- R12
	addq	%r15, %r12
.Ltmp121:
	.loc	1 367 3                 # md5.c:367:3
	movq	%r12, %rcx
	andq	%r15, %rcx
	movq	%r12, %rdx
	notq	%rdx
	andq	%r14, %rdx
	orq	%rcx, %rdx
	addq	%rax, %rdx
	leaq	1878503902(%rsi,%rdx), %rcx
.Ltmp122:
	#DEBUG_VALUE: md5_transform:a <- RCX
	movq	%rcx, %rax
	shlq	$7, %rax
	shrq	$25, %rcx
.Ltmp123:
	orq	%rax, %rcx
.Ltmp124:
	#DEBUG_VALUE: md5_transform:a <- RCX
	addq	%r12, %rcx
.Ltmp125:
	.loc	1 368 3                 # md5.c:368:3
	movq	%rcx, -184(%rbp)        # 8-byte Spill
	movq	%rcx, %rax
	andq	%r12, %rax
	movq	%rcx, %rbx
.Ltmp126:
	#DEBUG_VALUE: md5_transform:a <- [RBP+-184]
	notq	%rbx
	andq	%r15, %rbx
	orq	%rax, %rbx
	leaq	-136(%rbp), %rdi
	movl	$10, %esi
	movl	$8, %edx
	callq	_KLoad0
	addq	-136(%rbp), %r14
	leaq	1200080426(%rbx,%r14), %r13
.Ltmp127:
	#DEBUG_VALUE: md5_transform:d <- R13
	movq	%r13, %rax
	shlq	$12, %rax
	shrq	$20, %r13
.Ltmp128:
	orq	%rax, %r13
.Ltmp129:
	#DEBUG_VALUE: md5_transform:d <- R13
	movq	-184(%rbp), %rcx        # 8-byte Reload
.Ltmp130:
	#DEBUG_VALUE: md5_transform:a <- RCX
	addq	%rcx, %r13
.Ltmp131:
	.loc	1 369 3                 # md5.c:369:3
	movq	%r13, %rax
	andq	%rcx, %rax
.Ltmp132:
	#DEBUG_VALUE: md5_transform:a <- [RBP+-184]
	movq	%r13, %rbx
	notq	%rbx
	andq	%r12, %rbx
	orq	%rax, %rbx
	leaq	-128(%rbp), %rdi
	movl	$11, %esi
	movl	$8, %edx
	callq	_KLoad0
	addq	-128(%rbp), %r15
	addq	%rbx, %r15
	movl	$2240044497, %eax       # imm = 0x85845DD1
	leaq	581691458(%rax,%r15), %r14
.Ltmp133:
	#DEBUG_VALUE: md5_transform:c <- R14
	movq	%r14, %rax
	shlq	$17, %rax
	shrq	$15, %r14
.Ltmp134:
	orq	%rax, %r14
.Ltmp135:
	#DEBUG_VALUE: md5_transform:c <- R14
	addq	%r13, %r14
.Ltmp136:
	.loc	1 370 3                 # md5.c:370:3
	movq	%r14, %rax
	andq	%r13, %rax
	movq	%r14, %rbx
	notq	%rbx
	movq	-184(%rbp), %r15        # 8-byte Reload
.Ltmp137:
	#DEBUG_VALUE: md5_transform:a <- R15
	andq	%r15, %rbx
	orq	%rax, %rbx
	leaq	-120(%rbp), %rdi
	movl	$12, %esi
	movl	$8, %edx
	callq	_KLoad0
	addq	-120(%rbp), %r12
	addq	%rbx, %r12
	movl	$2240044497, %eax       # imm = 0x85845DD1
	leaq	2009216816(%rax,%r12), %r12
.Ltmp138:
	#DEBUG_VALUE: md5_transform:b <- R12
	movq	%r12, %rax
	shlq	$22, %rax
	shrq	$10, %r12
.Ltmp139:
	orq	%rax, %r12
.Ltmp140:
	#DEBUG_VALUE: md5_transform:b <- R12
	addq	%r14, %r12
.Ltmp141:
	.loc	1 371 3                 # md5.c:371:3
	movq	%r12, %rax
	andq	%r14, %rax
	movq	%r12, %rbx
	notq	%rbx
	andq	%r13, %rbx
	orq	%rax, %rbx
	leaq	-112(%rbp), %rdi
	movl	$13, %esi
	movl	$8, %edx
	callq	_KLoad0
	addq	-112(%rbp), %r15
.Ltmp142:
	leaq	1770035416(%rbx,%r15), %rcx
.Ltmp143:
	#DEBUG_VALUE: md5_transform:a <- RCX
	movq	%rcx, %rax
	shlq	$7, %rax
	shrq	$25, %rcx
.Ltmp144:
	orq	%rax, %rcx
.Ltmp145:
	#DEBUG_VALUE: md5_transform:a <- RCX
	addq	%r12, %rcx
.Ltmp146:
	.loc	1 372 3                 # md5.c:372:3
	movq	%rcx, -192(%rbp)        # 8-byte Spill
	movq	%rcx, %rax
	andq	%r12, %rax
	movq	%rcx, %rbx
.Ltmp147:
	#DEBUG_VALUE: md5_transform:a <- [RBP+-192]
	notq	%rbx
	andq	%r14, %rbx
	orq	%rax, %rbx
	leaq	-104(%rbp), %rdi
	movl	$14, %esi
	movl	$8, %edx
	callq	_KLoad0
	addq	-104(%rbp), %r13
	addq	%rbx, %r13
	movl	$2240044497, %eax       # imm = 0x85845DD1
	leaq	96508382(%rax,%r13), %r15
.Ltmp148:
	#DEBUG_VALUE: md5_transform:d <- R15
	movq	%r15, %rax
	shlq	$12, %rax
	shrq	$20, %r15
.Ltmp149:
	orq	%rax, %r15
.Ltmp150:
	#DEBUG_VALUE: md5_transform:d <- R15
	movq	-192(%rbp), %r13        # 8-byte Reload
.Ltmp151:
	#DEBUG_VALUE: md5_transform:a <- R13
	addq	%r13, %r15
.Ltmp152:
	.loc	1 373 3                 # md5.c:373:3
	movq	%r15, %rax
	andq	%r13, %rax
	movq	%r15, %rbx
	notq	%rbx
	andq	%r12, %rbx
	orq	%rax, %rbx
	leaq	-96(%rbp), %rdi
	movl	$15, %esi
	movl	$8, %edx
	callq	_KLoad0
	addq	-96(%rbp), %r14
	addq	%rbx, %r14
	movl	$2240044497, %eax       # imm = 0x85845DD1
	leaq	2054880736(%rax,%r14), %r14
.Ltmp153:
	#DEBUG_VALUE: md5_transform:c <- R14
	movq	%r14, %rax
	shlq	$17, %rax
	shrq	$15, %r14
.Ltmp154:
	orq	%rax, %r14
.Ltmp155:
	#DEBUG_VALUE: md5_transform:c <- R14
	addq	%r15, %r14
.Ltmp156:
	.loc	1 374 3                 # md5.c:374:3
	movq	%r14, %rax
	andq	%r15, %rax
	movq	%r14, %rbx
	notq	%rbx
	andq	%r13, %rbx
	orq	%rax, %rbx
	leaq	-88(%rbp), %rdi
	movl	$16, %esi
	movl	$8, %edx
	callq	_KLoad0
	addq	-88(%rbp), %r12
	addq	%rbx, %r12
	movl	$2240044497, %eax       # imm = 0x85845DD1
	leaq	64518637(%rax,%r12), %rcx
.Ltmp157:
	#DEBUG_VALUE: md5_transform:b <- RCX
	movq	%rcx, %rax
	shlq	$22, %rax
	shrq	$10, %rcx
.Ltmp158:
	orq	%rax, %rcx
.Ltmp159:
	#DEBUG_VALUE: md5_transform:b <- RCX
	addq	%r14, %rcx
.Ltmp160:
	.loc	1 375 3                 # md5.c:375:3
	movq	%rcx, -184(%rbp)        # 8-byte Spill
	movq	%rcx, %rax
	andq	%r14, %rax
	movq	%rcx, %rbx
	movq	%rcx, %r12
.Ltmp161:
	#DEBUG_VALUE: md5_transform:b <- R12
	notq	%rbx
	andq	%r15, %rbx
	orq	%rax, %rbx
	leaq	-80(%rbp), %rdi
	movl	$17, %esi
	movl	$8, %edx
	callq	_KLoad0
	addq	-80(%rbp), %r13
.Ltmp162:
	leaq	1804603682(%rbx,%r13), %r13
.Ltmp163:
	#DEBUG_VALUE: md5_transform:a <- R13
	movq	%r13, %rax
	shlq	$7, %rax
	shrq	$25, %r13
.Ltmp164:
	orq	%rax, %r13
.Ltmp165:
	#DEBUG_VALUE: md5_transform:a <- R13
	addq	%r12, %r13
.Ltmp166:
	.loc	1 376 3                 # md5.c:376:3
	movq	%r13, %rax
	andq	%r12, %rax
.Ltmp167:
	#DEBUG_VALUE: md5_transform:b <- [RBP+-184]
	movq	%r13, %rbx
	notq	%rbx
	andq	%r14, %rbx
	orq	%rax, %rbx
	leaq	-72(%rbp), %rdi
	movl	$18, %esi
	movl	$8, %edx
	callq	_KLoad0
	addq	-72(%rbp), %r15
	addq	%rbx, %r15
	movl	$2240044497, %eax       # imm = 0x85845DD1
	leaq	2014581698(%rax,%r15), %r12
.Ltmp168:
	#DEBUG_VALUE: md5_transform:d <- R12
	movq	%r12, %rax
	shlq	$12, %rax
	shrq	$20, %r12
.Ltmp169:
	orq	%rax, %r12
.Ltmp170:
	#DEBUG_VALUE: md5_transform:d <- R12
	addq	%r13, %r12
.Ltmp171:
	.loc	1 377 3                 # md5.c:377:3
	movq	%r12, %rax
	andq	%r13, %rax
	movq	%r12, %r15
	notq	%r15
	movq	-184(%rbp), %rbx        # 8-byte Reload
	andq	%r15, %rbx
	orq	%rax, %rbx
	leaq	-64(%rbp), %rdi
	movl	$19, %esi
	movl	$8, %edx
	callq	_KLoad0
	addq	-64(%rbp), %r14
	addq	%rbx, %r14
	movl	$2240044497, %eax       # imm = 0x85845DD1
	leaq	552920509(%rax,%r14), %rcx
.Ltmp172:
	#DEBUG_VALUE: md5_transform:c <- RCX
	movq	%rcx, %rax
	shlq	$17, %rax
	shrq	$15, %rcx
.Ltmp173:
	orq	%rax, %rcx
.Ltmp174:
	#DEBUG_VALUE: md5_transform:c <- RCX
	addq	%r12, %rcx
.Ltmp175:
	.loc	1 378 3                 # md5.c:378:3
	movq	%rcx, -192(%rbp)        # 8-byte Spill
	movq	%rcx, %rax
	andq	%r12, %rax
	movq	%rcx, %rdx
.Ltmp176:
	#DEBUG_VALUE: md5_transform:c <- [RBP+-192]
	notq	%rdx
	movq	%rdx, -232(%rbp)        # 8-byte Spill
	movq	%r13, %rbx
	andq	%rdx, %rbx
	orq	%rax, %rbx
	leaq	-56(%rbp), %rdi
	movl	$20, %esi
	movl	$8, %edx
	callq	_KLoad0
	movq	-184(%rbp), %rax        # 8-byte Reload
.Ltmp177:
	#DEBUG_VALUE: md5_transform:b <- RAX
	addq	-56(%rbp), %rax
.Ltmp178:
	leaq	1236535329(%rbx,%rax), %r14
.Ltmp179:
	#DEBUG_VALUE: md5_transform:b <- R14
	movq	%r14, %rax
	shlq	$22, %rax
	shrq	$10, %r14
.Ltmp180:
	orq	%rax, %r14
.Ltmp181:
	#DEBUG_VALUE: md5_transform:b <- R14
	movq	-192(%rbp), %rcx        # 8-byte Reload
.Ltmp182:
	#DEBUG_VALUE: md5_transform:c <- RCX
	addq	%rcx, %r14
.Ltmp183:
	.loc	1 381 3                 # md5.c:381:3
	movq	%r14, %rax
	andq	%r12, %rax
	andq	%rcx, %r15
	movq	%rcx, %rbx
.Ltmp184:
	#DEBUG_VALUE: md5_transform:c <- RBX
	orq	%rax, %r15
	movl	$21, %esi
	movl	$8, %edx
.Ltmp185:
	.loc	1 364 3                 # md5.c:364:3
	leaq	-168(%rbp), %rdi
	callq	_KLoad0
.Ltmp186:
	.loc	1 381 3                 # md5.c:381:3
	addq	-168(%rbp), %r13
	addq	%r15, %r13
	movl	$2240044497, %eax       # imm = 0x85845DD1
	leaq	1889126289(%rax,%r13), %r15
.Ltmp187:
	#DEBUG_VALUE: md5_transform:a <- R15
	movl	$2240044497, %r13d      # imm = 0x85845DD1
	movq	%r15, %rax
	shlq	$5, %rax
	shrq	$27, %r15
.Ltmp188:
	orq	%rax, %r15
.Ltmp189:
	#DEBUG_VALUE: md5_transform:a <- R15
	addq	%r14, %r15
.Ltmp190:
	.loc	1 382 3                 # md5.c:382:3
	movq	%r15, %rax
	andq	%rbx, %rax
.Ltmp191:
	#DEBUG_VALUE: md5_transform:c <- [RBP+-192]
	movq	-232(%rbp), %rcx        # 8-byte Reload
	andq	%r14, %rcx
	orq	%rax, %rcx
	movq	%rcx, %rbx
	movl	$22, %esi
	movl	$8, %edx
.Ltmp192:
	.loc	1 369 3                 # md5.c:369:3
	leaq	-128(%rbp), %rdi
	callq	_KLoad0
.Ltmp193:
	.loc	1 382 3                 # md5.c:382:3
	addq	-128(%rbp), %r12
	addq	%rbx, %r12
	leaq	985421167(%r13,%r12), %r13
.Ltmp194:
	#DEBUG_VALUE: md5_transform:d <- R13
	movq	%r13, %rax
	shlq	$9, %rax
	shrq	$23, %r13
.Ltmp195:
	orq	%rax, %r13
.Ltmp196:
	#DEBUG_VALUE: md5_transform:d <- R13
	addq	%r15, %r13
.Ltmp197:
	.loc	1 383 3                 # md5.c:383:3
	movq	%r13, -184(%rbp)        # 8-byte Spill
	movq	%r13, %rax
	andq	%r14, %rax
	movq	%r14, %rbx
	notq	%rbx
	andq	%r15, %rbx
	orq	%rax, %rbx
	movl	$23, %esi
	movl	$8, %edx
.Ltmp198:
	.loc	1 374 3                 # md5.c:374:3
	leaq	-88(%rbp), %rdi
	callq	_KLoad0
	movq	-192(%rbp), %rax        # 8-byte Reload
.Ltmp199:
	#DEBUG_VALUE: md5_transform:c <- RAX
	.loc	1 383 3                 # md5.c:383:3
	addq	-88(%rbp), %rax
.Ltmp200:
	leaq	643717713(%rbx,%rax), %r12
.Ltmp201:
	#DEBUG_VALUE: md5_transform:c <- R12
	movq	%r12, %rax
	shlq	$14, %rax
	shrq	$18, %r12
.Ltmp202:
	orq	%rax, %r12
.Ltmp203:
	#DEBUG_VALUE: md5_transform:c <- R12
	addq	%r13, %r12
.Ltmp204:
	.loc	1 384 3                 # md5.c:384:3
	movq	%r12, %rax
	andq	%r15, %rax
	movq	%r15, %rbx
	notq	%rbx
	andq	%r13, %rbx
	orq	%rax, %rbx
	movl	$24, %esi
	movl	$8, %edx
	leaq	-176(%rbp), %rdi
	callq	_KLoad0
	addq	-176(%rbp), %r14
	addq	%rbx, %r14
	movl	$2240044497, %eax       # imm = 0x85845DD1
	leaq	1681025497(%rax,%r14), %r14
.Ltmp205:
	#DEBUG_VALUE: md5_transform:b <- R14
	movq	%r14, %rax
	shlq	$20, %rax
	shrq	$12, %r14
.Ltmp206:
	orq	%rax, %r14
.Ltmp207:
	#DEBUG_VALUE: md5_transform:b <- R14
	addq	%r12, %r14
.Ltmp208:
	.loc	1 385 3                 # md5.c:385:3
	movq	%r14, %rax
	andq	%r13, %rax
.Ltmp209:
	#DEBUG_VALUE: md5_transform:d <- [RBP+-184]
	notq	%r13
	andq	%r12, %r13
	orq	%rax, %r13
	movl	$25, %esi
	movl	$8, %edx
.Ltmp210:
	.loc	1 368 3                 # md5.c:368:3
	leaq	-136(%rbp), %rdi
	callq	_KLoad0
.Ltmp211:
	.loc	1 385 3                 # md5.c:385:3
	addq	-136(%rbp), %r15
	addq	%r13, %r15
	movl	$2240044497, %eax       # imm = 0x85845DD1
	leaq	1353364108(%rax,%r15), %r13
.Ltmp212:
	#DEBUG_VALUE: md5_transform:a <- R13
	movq	%r13, %rax
	shlq	$5, %rax
	shrq	$27, %r13
.Ltmp213:
	orq	%rax, %r13
.Ltmp214:
	#DEBUG_VALUE: md5_transform:a <- R13
	addq	%r14, %r13
.Ltmp215:
	.loc	1 386 3                 # md5.c:386:3
	movq	%r13, %rax
	andq	%r12, %rax
	movq	%r12, %rbx
	notq	%rbx
	andq	%r14, %rbx
	orq	%rax, %rbx
	movl	$26, %esi
	movl	$8, %edx
.Ltmp216:
	.loc	1 373 3                 # md5.c:373:3
	leaq	-96(%rbp), %rdi
	callq	_KLoad0
	movq	-184(%rbp), %rax        # 8-byte Reload
.Ltmp217:
	#DEBUG_VALUE: md5_transform:d <- RAX
	.loc	1 386 3                 # md5.c:386:3
	addq	-96(%rbp), %rax
.Ltmp218:
	leaq	38016083(%rbx,%rax), %r15
.Ltmp219:
	#DEBUG_VALUE: md5_transform:d <- R15
	movq	%r15, %rax
	shlq	$9, %rax
	shrq	$23, %r15
.Ltmp220:
	orq	%rax, %r15
.Ltmp221:
	#DEBUG_VALUE: md5_transform:d <- R15
	addq	%r13, %r15
.Ltmp222:
	.loc	1 387 3                 # md5.c:387:3
	movq	%r15, %rax
	andq	%r14, %rax
	movq	%r14, %rbx
	notq	%rbx
	andq	%r13, %rbx
	orq	%rax, %rbx
	movl	$27, %esi
	movl	$8, %edx
.Ltmp223:
	.loc	1 378 3                 # md5.c:378:3
	leaq	-56(%rbp), %rdi
	callq	_KLoad0
.Ltmp224:
	.loc	1 387 3                 # md5.c:387:3
	addq	-56(%rbp), %r12
	addq	%rbx, %r12
	movl	$2240044497, %eax       # imm = 0x85845DD1
	leaq	1394444464(%rax,%r12), %r12
.Ltmp225:
	#DEBUG_VALUE: md5_transform:c <- R12
	movq	%r12, %rax
	shlq	$14, %rax
	shrq	$18, %r12
.Ltmp226:
	orq	%rax, %r12
.Ltmp227:
	#DEBUG_VALUE: md5_transform:c <- R12
	addq	%r15, %r12
.Ltmp228:
	.loc	1 388 3                 # md5.c:388:3
	movq	%r12, %rax
	andq	%r13, %rax
	movq	%r13, %rbx
	notq	%rbx
	andq	%r15, %rbx
	orq	%rax, %rbx
	movl	$28, %esi
	movl	$8, %edx
.Ltmp229:
	.loc	1 367 3                 # md5.c:367:3
	leaq	-144(%rbp), %rdi
	callq	_KLoad0
.Ltmp230:
	.loc	1 388 3                 # md5.c:388:3
	addq	-144(%rbp), %r14
	addq	%rbx, %r14
	movl	$2240044497, %eax       # imm = 0x85845DD1
	leaq	1649384951(%rax,%r14), %rcx
.Ltmp231:
	#DEBUG_VALUE: md5_transform:b <- RCX
	movq	%rcx, %rax
	shlq	$20, %rax
	shrq	$12, %rcx
.Ltmp232:
	orq	%rax, %rcx
.Ltmp233:
	#DEBUG_VALUE: md5_transform:b <- RCX
	addq	%r12, %rcx
.Ltmp234:
	.loc	1 389 3                 # md5.c:389:3
	movq	%rcx, -192(%rbp)        # 8-byte Spill
	movq	%rcx, %rax
.Ltmp235:
	#DEBUG_VALUE: md5_transform:b <- [RBP+-192]
	andq	%r15, %rax
	movq	%r15, %rbx
	notq	%rbx
	andq	%r12, %rbx
	orq	%rax, %rbx
	movl	$29, %esi
	movl	$8, %edx
.Ltmp236:
	.loc	1 372 3                 # md5.c:372:3
	leaq	-104(%rbp), %rdi
	callq	_KLoad0
.Ltmp237:
	.loc	1 389 3                 # md5.c:389:3
	addq	-104(%rbp), %r13
	leaq	568446438(%rbx,%r13), %r14
.Ltmp238:
	#DEBUG_VALUE: md5_transform:a <- R14
	movq	%r14, %rax
	shlq	$5, %rax
	shrq	$27, %r14
.Ltmp239:
	orq	%rax, %r14
.Ltmp240:
	#DEBUG_VALUE: md5_transform:a <- R14
	movq	-192(%rbp), %r13        # 8-byte Reload
.Ltmp241:
	#DEBUG_VALUE: md5_transform:b <- R13
	addq	%r13, %r14
.Ltmp242:
	.loc	1 390 3                 # md5.c:390:3
	movq	%r14, %rax
	andq	%r12, %rax
	movq	%r12, %rbx
	notq	%rbx
	andq	%r13, %rbx
	orq	%rax, %rbx
	movl	$30, %esi
	movl	$8, %edx
.Ltmp243:
	.loc	1 377 3                 # md5.c:377:3
	leaq	-64(%rbp), %rdi
	callq	_KLoad0
.Ltmp244:
	.loc	1 390 3                 # md5.c:390:3
	addq	-64(%rbp), %r15
	addq	%rbx, %r15
	movl	$2240044497, %eax       # imm = 0x85845DD1
	leaq	1035119109(%rax,%r15), %r15
.Ltmp245:
	#DEBUG_VALUE: md5_transform:d <- R15
	movq	%r15, %rax
	shlq	$9, %rax
	shrq	$23, %r15
.Ltmp246:
	orq	%rax, %r15
.Ltmp247:
	#DEBUG_VALUE: md5_transform:d <- R15
	addq	%r14, %r15
.Ltmp248:
	.loc	1 391 3                 # md5.c:391:3
	movq	%r15, %rax
	andq	%r13, %rax
	movq	%r13, %rbx
	notq	%rbx
	andq	%r14, %rbx
	orq	%rax, %rbx
	movl	$31, %esi
	movl	$8, %edx
.Ltmp249:
	.loc	1 366 3                 # md5.c:366:3
	leaq	-152(%rbp), %rdi
	callq	_KLoad0
.Ltmp250:
	.loc	1 391 3                 # md5.c:391:3
	addq	-152(%rbp), %r12
	addq	%rbx, %r12
	movl	$2240044497, %eax       # imm = 0x85845DD1
	leaq	1867558838(%rax,%r12), %rcx
.Ltmp251:
	#DEBUG_VALUE: md5_transform:c <- RCX
	movq	%rcx, %rax
	shlq	$14, %rax
	shrq	$18, %rcx
.Ltmp252:
	orq	%rax, %rcx
.Ltmp253:
	#DEBUG_VALUE: md5_transform:c <- RCX
	addq	%r15, %rcx
.Ltmp254:
	.loc	1 392 3                 # md5.c:392:3
	movq	%rcx, -184(%rbp)        # 8-byte Spill
	movq	%rcx, %rax
.Ltmp255:
	#DEBUG_VALUE: md5_transform:c <- [RBP+-184]
	andq	%r14, %rax
	movq	%r14, %rbx
	notq	%rbx
	andq	%r15, %rbx
	orq	%rax, %rbx
	movl	$32, %esi
	movl	$8, %edx
.Ltmp256:
	.loc	1 371 3                 # md5.c:371:3
	leaq	-112(%rbp), %rdi
	callq	_KLoad0
.Ltmp257:
	.loc	1 392 3                 # md5.c:392:3
	addq	-112(%rbp), %r13
.Ltmp258:
	leaq	1163531501(%rbx,%r13), %r12
.Ltmp259:
	#DEBUG_VALUE: md5_transform:b <- R12
	movq	%r12, %rax
	shlq	$20, %rax
	shrq	$12, %r12
.Ltmp260:
	orq	%rax, %r12
.Ltmp261:
	#DEBUG_VALUE: md5_transform:b <- R12
	movq	-184(%rbp), %rcx        # 8-byte Reload
.Ltmp262:
	#DEBUG_VALUE: md5_transform:c <- RCX
	addq	%rcx, %r12
.Ltmp263:
	.loc	1 393 3                 # md5.c:393:3
	movq	%r12, %rax
	andq	%r15, %rax
	movq	%r15, %rbx
	notq	%rbx
	andq	%rcx, %rbx
.Ltmp264:
	#DEBUG_VALUE: md5_transform:c <- [RBP+-184]
	orq	%rax, %rbx
	movl	$33, %esi
	movl	$8, %edx
.Ltmp265:
	.loc	1 376 3                 # md5.c:376:3
	leaq	-72(%rbp), %rdi
	callq	_KLoad0
.Ltmp266:
	.loc	1 393 3                 # md5.c:393:3
	addq	-72(%rbp), %r14
	addq	%rbx, %r14
	movl	$2240044497, %eax       # imm = 0x85845DD1
	leaq	610241332(%rax,%r14), %r13
.Ltmp267:
	#DEBUG_VALUE: md5_transform:a <- R13
	movq	%r13, %rax
	shlq	$5, %rax
	shrq	$27, %r13
.Ltmp268:
	orq	%rax, %r13
.Ltmp269:
	#DEBUG_VALUE: md5_transform:a <- R13
	addq	%r12, %r13
.Ltmp270:
	.loc	1 394 3                 # md5.c:394:3
	movq	%r13, %rax
	movq	-184(%rbp), %rcx        # 8-byte Reload
.Ltmp271:
	#DEBUG_VALUE: md5_transform:c <- RCX
	andq	%rcx, %rax
	movq	%rcx, %rbx
.Ltmp272:
	#DEBUG_VALUE: md5_transform:c <- [RBP+-184]
	notq	%rbx
	andq	%r12, %rbx
	orq	%rax, %rbx
	movl	$34, %esi
	movl	$8, %edx
.Ltmp273:
	.loc	1 365 3                 # md5.c:365:3
	leaq	-160(%rbp), %rdi
	callq	_KLoad0
.Ltmp274:
	.loc	1 394 3                 # md5.c:394:3
	addq	-160(%rbp), %r15
	addq	%rbx, %r15
	movl	$2240044497, %eax       # imm = 0x85845DD1
	leaq	2003519015(%rax,%r15), %r14
.Ltmp275:
	#DEBUG_VALUE: md5_transform:d <- R14
	movq	%r14, %rax
	shlq	$9, %rax
	shrq	$23, %r14
.Ltmp276:
	orq	%rax, %r14
.Ltmp277:
	#DEBUG_VALUE: md5_transform:d <- R14
	addq	%r13, %r14
.Ltmp278:
	.loc	1 395 3                 # md5.c:395:3
	movq	%r14, %rax
	andq	%r12, %rax
	movq	%r12, %rbx
	notq	%rbx
	andq	%r13, %rbx
	orq	%rax, %rbx
	movl	$35, %esi
	movl	$8, %edx
.Ltmp279:
	.loc	1 370 3                 # md5.c:370:3
	leaq	-120(%rbp), %rdi
	callq	_KLoad0
	movq	-184(%rbp), %rax        # 8-byte Reload
.Ltmp280:
	#DEBUG_VALUE: md5_transform:c <- RAX
	.loc	1 395 3                 # md5.c:395:3
	addq	-120(%rbp), %rax
.Ltmp281:
	leaq	1735328473(%rbx,%rax), %rcx
.Ltmp282:
	#DEBUG_VALUE: md5_transform:c <- RCX
	movq	%rcx, %rax
	shlq	$14, %rax
	shrq	$18, %rcx
.Ltmp283:
	orq	%rax, %rcx
.Ltmp284:
	#DEBUG_VALUE: md5_transform:c <- RCX
	addq	%r14, %rcx
.Ltmp285:
	.loc	1 396 3                 # md5.c:396:3
	movq	%rcx, -184(%rbp)        # 8-byte Spill
	movq	%rcx, %rax
.Ltmp286:
	#DEBUG_VALUE: md5_transform:c <- [RBP+-184]
	andq	%r13, %rax
	movq	%r13, %rbx
	notq	%rbx
	andq	%r14, %rbx
	orq	%rax, %rbx
	movl	$36, %esi
	movl	$8, %edx
.Ltmp287:
	.loc	1 375 3                 # md5.c:375:3
	leaq	-80(%rbp), %rdi
	callq	_KLoad0
.Ltmp288:
	.loc	1 396 3                 # md5.c:396:3
	addq	-80(%rbp), %r12
	addq	%rbx, %r12
	movl	$2240044497, %eax       # imm = 0x85845DD1
	leaq	128315065(%rax,%r12), %r15
.Ltmp289:
	#DEBUG_VALUE: md5_transform:b <- R15
	movq	%r15, %rax
	shlq	$20, %rax
	shrq	$12, %r15
.Ltmp290:
	orq	%rax, %r15
.Ltmp291:
	#DEBUG_VALUE: md5_transform:b <- R15
	movq	-184(%rbp), %rax        # 8-byte Reload
.Ltmp292:
	#DEBUG_VALUE: md5_transform:c <- RAX
	addq	%rax, %r15
.Ltmp293:
	.loc	1 399 3                 # md5.c:399:3
	movq	%rax, %rbx
.Ltmp294:
	#DEBUG_VALUE: md5_transform:c <- [RBP+-184]
	xorq	%r14, %rbx
	xorq	%r15, %rbx
	movl	$37, %esi
	movl	$8, %edx
.Ltmp295:
	.loc	1 368 3                 # md5.c:368:3
	leaq	-136(%rbp), %rdi
	callq	_KLoad0
.Ltmp296:
	.loc	1 399 3                 # md5.c:399:3
	addq	-136(%rbp), %r13
	addq	%rbx, %r13
	movl	$2240044497, %eax       # imm = 0x85845DD1
	leaq	2054544241(%rax,%r13), %r12
.Ltmp297:
	#DEBUG_VALUE: md5_transform:a <- R12
	movq	%r12, %rax
	shlq	$4, %rax
	shrq	$28, %r12
.Ltmp298:
	orq	%rax, %r12
.Ltmp299:
	#DEBUG_VALUE: md5_transform:a <- R12
	addq	%r15, %r12
.Ltmp300:
	.loc	1 400 3                 # md5.c:400:3
	movq	%r15, %rbx
	movq	-184(%rbp), %r13        # 8-byte Reload
.Ltmp301:
	#DEBUG_VALUE: md5_transform:c <- R13
	xorq	%r13, %rbx
	xorq	%r12, %rbx
	movl	$38, %esi
	movl	$8, %edx
.Ltmp302:
	.loc	1 371 3                 # md5.c:371:3
	leaq	-112(%rbp), %rdi
	callq	_KLoad0
.Ltmp303:
	.loc	1 400 3                 # md5.c:400:3
	addq	-112(%rbp), %r14
	addq	%rbx, %r14
	movl	$2240044497, %eax       # imm = 0x85845DD1
	leaq	32348336(%rax,%r14), %rcx
.Ltmp304:
	#DEBUG_VALUE: md5_transform:d <- RCX
	movq	%rcx, %rax
	shlq	$11, %rax
	shrq	$21, %rcx
.Ltmp305:
	orq	%rax, %rcx
.Ltmp306:
	#DEBUG_VALUE: md5_transform:d <- RCX
	addq	%r12, %rcx
.Ltmp307:
	.loc	1 401 3                 # md5.c:401:3
	movq	%rcx, -192(%rbp)        # 8-byte Spill
	movq	%r12, %rbx
	xorq	%r15, %rbx
	xorq	%rcx, %rbx
.Ltmp308:
	#DEBUG_VALUE: md5_transform:d <- [RBP+-192]
	movl	$39, %esi
	movl	$8, %edx
.Ltmp309:
	.loc	1 374 3                 # md5.c:374:3
	leaq	-88(%rbp), %rdi
	callq	_KLoad0
.Ltmp310:
	.loc	1 401 3                 # md5.c:401:3
	addq	-88(%rbp), %r13
.Ltmp311:
	leaq	1839030562(%rbx,%r13), %r14
.Ltmp312:
	#DEBUG_VALUE: md5_transform:c <- R14
	movq	%r14, %rax
	shlq	$16, %rax
	shrq	$16, %r14
.Ltmp313:
	orq	%rax, %r14
.Ltmp314:
	#DEBUG_VALUE: md5_transform:c <- R14
	movq	-192(%rbp), %rax        # 8-byte Reload
.Ltmp315:
	#DEBUG_VALUE: md5_transform:d <- RAX
	addq	%rax, %r14
.Ltmp316:
	.loc	1 402 3                 # md5.c:402:3
	movq	%rax, %rbx
.Ltmp317:
	#DEBUG_VALUE: md5_transform:d <- [RBP+-192]
	xorq	%r12, %rbx
	xorq	%r14, %rbx
	movl	$40, %esi
	movl	$8, %edx
.Ltmp318:
	.loc	1 377 3                 # md5.c:377:3
	leaq	-64(%rbp), %rdi
	callq	_KLoad0
.Ltmp319:
	.loc	1 402 3                 # md5.c:402:3
	addq	-64(%rbp), %r15
	addq	%rbx, %r15
	movl	$2240044497, %eax       # imm = 0x85845DD1
	leaq	2019613243(%rax,%r15), %r13
.Ltmp320:
	#DEBUG_VALUE: md5_transform:b <- R13
	movq	%r13, %rax
	shlq	$23, %rax
	shrq	$9, %r13
.Ltmp321:
	orq	%rax, %r13
.Ltmp322:
	#DEBUG_VALUE: md5_transform:b <- R13
	addq	%r14, %r13
.Ltmp323:
	.loc	1 403 3                 # md5.c:403:3
	movq	%r14, %rbx
	movq	-192(%rbp), %r15        # 8-byte Reload
.Ltmp324:
	#DEBUG_VALUE: md5_transform:d <- R15
	xorq	%r15, %rbx
	xorq	%r13, %rbx
	movl	$41, %esi
	movl	$8, %edx
.Ltmp325:
	.loc	1 364 3                 # md5.c:364:3
	leaq	-168(%rbp), %rdi
	callq	_KLoad0
.Ltmp326:
	.loc	1 403 3                 # md5.c:403:3
	addq	-168(%rbp), %r12
	addq	%rbx, %r12
	movl	$2240044497, %eax       # imm = 0x85845DD1
	leaq	523930739(%rax,%r12), %r12
.Ltmp327:
	#DEBUG_VALUE: md5_transform:a <- R12
	movq	%r12, %rax
	shlq	$4, %rax
	shrq	$28, %r12
.Ltmp328:
	orq	%rax, %r12
.Ltmp329:
	#DEBUG_VALUE: md5_transform:a <- R12
	addq	%r13, %r12
.Ltmp330:
	.loc	1 404 3                 # md5.c:404:3
	movq	%r13, %rbx
	xorq	%r14, %rbx
	xorq	%r12, %rbx
	movl	$42, %esi
	movl	$8, %edx
.Ltmp331:
	.loc	1 367 3                 # md5.c:367:3
	leaq	-144(%rbp), %rdi
	callq	_KLoad0
	movq	%r15, %rax
.Ltmp332:
	#DEBUG_VALUE: md5_transform:d <- RAX
	.loc	1 404 3                 # md5.c:404:3
	addq	-144(%rbp), %rax
.Ltmp333:
	leaq	1272893353(%rbx,%rax), %r15
.Ltmp334:
	#DEBUG_VALUE: md5_transform:d <- R15
	movq	%r15, %rax
	shlq	$11, %rax
	shrq	$21, %r15
.Ltmp335:
	orq	%rax, %r15
.Ltmp336:
	#DEBUG_VALUE: md5_transform:d <- R15
	addq	%r12, %r15
.Ltmp337:
	.loc	1 405 3                 # md5.c:405:3
	movq	%r12, %rbx
	xorq	%r13, %rbx
	xorq	%r15, %rbx
	movl	$43, %esi
	movl	$8, %edx
.Ltmp338:
	.loc	1 370 3                 # md5.c:370:3
	leaq	-120(%rbp), %rdi
	callq	_KLoad0
.Ltmp339:
	.loc	1 405 3                 # md5.c:405:3
	addq	-120(%rbp), %r14
	addq	%rbx, %r14
	movl	$2240044497, %eax       # imm = 0x85845DD1
	leaq	1899425167(%rax,%r14), %r14
.Ltmp340:
	#DEBUG_VALUE: md5_transform:c <- R14
	movq	%r14, %rax
	shlq	$16, %rax
	shrq	$16, %r14
.Ltmp341:
	orq	%rax, %r14
.Ltmp342:
	#DEBUG_VALUE: md5_transform:c <- R14
	addq	%r15, %r14
.Ltmp343:
	.loc	1 406 3                 # md5.c:406:3
	movq	%r15, %rbx
	xorq	%r12, %rbx
	xorq	%r14, %rbx
	movl	$44, %esi
	movl	$8, %edx
.Ltmp344:
	.loc	1 373 3                 # md5.c:373:3
	leaq	-96(%rbp), %rdi
	callq	_KLoad0
.Ltmp345:
	.loc	1 406 3                 # md5.c:406:3
	addq	-96(%rbp), %r13
	addq	%rbx, %r13
	movl	$2240044497, %eax       # imm = 0x85845DD1
	leaq	960192159(%rax,%r13), %r13
.Ltmp346:
	#DEBUG_VALUE: md5_transform:b <- R13
	movq	%r13, %rax
	shlq	$23, %rax
	shrq	$9, %r13
.Ltmp347:
	orq	%rax, %r13
.Ltmp348:
	#DEBUG_VALUE: md5_transform:b <- R13
	addq	%r14, %r13
.Ltmp349:
	.loc	1 407 3                 # md5.c:407:3
	movq	%r14, %rbx
	xorq	%r15, %rbx
	xorq	%r13, %rbx
	movl	$45, %esi
	movl	$8, %edx
.Ltmp350:
	.loc	1 376 3                 # md5.c:376:3
	leaq	-72(%rbp), %rdi
	callq	_KLoad0
.Ltmp351:
	.loc	1 407 3                 # md5.c:407:3
	addq	-72(%rbp), %r12
	leaq	681279174(%rbx,%r12), %r12
.Ltmp352:
	#DEBUG_VALUE: md5_transform:a <- R12
	movq	%r12, %rax
	shlq	$4, %rax
	shrq	$28, %r12
.Ltmp353:
	orq	%rax, %r12
.Ltmp354:
	#DEBUG_VALUE: md5_transform:a <- R12
	addq	%r13, %r12
.Ltmp355:
	.loc	1 408 3                 # md5.c:408:3
	movq	%r13, %rbx
	xorq	%r14, %rbx
	xorq	%r12, %rbx
	movl	$46, %esi
	movl	$8, %edx
	leaq	-176(%rbp), %rdi
	callq	_KLoad0
	addq	-176(%rbp), %r15
	addq	%rbx, %r15
	movl	$2240044497, %eax       # imm = 0x85845DD1
	leaq	1696385577(%rax,%r15), %r15
.Ltmp356:
	#DEBUG_VALUE: md5_transform:d <- R15
	movq	%r15, %rax
	shlq	$11, %rax
	shrq	$21, %r15
.Ltmp357:
	orq	%rax, %r15
.Ltmp358:
	#DEBUG_VALUE: md5_transform:d <- R15
	addq	%r12, %r15
.Ltmp359:
	.loc	1 409 3                 # md5.c:409:3
	movq	%r12, %rbx
	xorq	%r13, %rbx
	xorq	%r15, %rbx
	movl	$47, %esi
	movl	$8, %edx
.Ltmp360:
	.loc	1 366 3                 # md5.c:366:3
	leaq	-152(%rbp), %rdi
	callq	_KLoad0
.Ltmp361:
	.loc	1 409 3                 # md5.c:409:3
	addq	-152(%rbp), %r14
	addq	%rbx, %r14
	movl	$2240044497, %eax       # imm = 0x85845DD1
	leaq	1332400820(%rax,%r14), %rcx
.Ltmp362:
	#DEBUG_VALUE: md5_transform:c <- RCX
	movq	%rcx, %rax
	shlq	$16, %rax
	shrq	$16, %rcx
.Ltmp363:
	orq	%rax, %rcx
.Ltmp364:
	#DEBUG_VALUE: md5_transform:c <- RCX
	addq	%r15, %rcx
.Ltmp365:
	.loc	1 410 3                 # md5.c:410:3
	movq	%rcx, -184(%rbp)        # 8-byte Spill
	movq	%r15, %rbx
	xorq	%r12, %rbx
	xorq	%rcx, %rbx
.Ltmp366:
	#DEBUG_VALUE: md5_transform:c <- [RBP+-184]
	movl	$48, %esi
	movl	$8, %edx
.Ltmp367:
	.loc	1 369 3                 # md5.c:369:3
	leaq	-128(%rbp), %rdi
	callq	_KLoad0
.Ltmp368:
	.loc	1 410 3                 # md5.c:410:3
	addq	-128(%rbp), %r13
	leaq	76029189(%rbx,%r13), %r14
.Ltmp369:
	#DEBUG_VALUE: md5_transform:b <- R14
	movq	%r14, %rax
	shlq	$23, %rax
	shrq	$9, %r14
.Ltmp370:
	orq	%rax, %r14
.Ltmp371:
	#DEBUG_VALUE: md5_transform:b <- R14
	movq	-184(%rbp), %rax        # 8-byte Reload
.Ltmp372:
	#DEBUG_VALUE: md5_transform:c <- RAX
	addq	%rax, %r14
.Ltmp373:
	.loc	1 411 3                 # md5.c:411:3
	movq	%rax, %rbx
.Ltmp374:
	#DEBUG_VALUE: md5_transform:c <- [RBP+-184]
	xorq	%r15, %rbx
	xorq	%r14, %rbx
	movl	$49, %esi
	movl	$8, %edx
.Ltmp375:
	.loc	1 372 3                 # md5.c:372:3
	leaq	-104(%rbp), %rdi
	callq	_KLoad0
.Ltmp376:
	.loc	1 411 3                 # md5.c:411:3
	addq	-104(%rbp), %r12
	addq	%rbx, %r12
	movl	$2240044497, %eax       # imm = 0x85845DD1
	leaq	1414558312(%rax,%r12), %r13
.Ltmp377:
	#DEBUG_VALUE: md5_transform:a <- R13
	movq	%r13, %rax
	shlq	$4, %rax
	shrq	$28, %r13
.Ltmp378:
	orq	%rax, %r13
.Ltmp379:
	#DEBUG_VALUE: md5_transform:a <- R13
	addq	%r14, %r13
.Ltmp380:
	.loc	1 412 3                 # md5.c:412:3
	movq	%r14, %rbx
	movq	-184(%rbp), %r12        # 8-byte Reload
.Ltmp381:
	#DEBUG_VALUE: md5_transform:c <- R12
	xorq	%r12, %rbx
	xorq	%r13, %rbx
	movl	$50, %esi
	movl	$8, %edx
.Ltmp382:
	.loc	1 375 3                 # md5.c:375:3
	leaq	-80(%rbp), %rdi
	callq	_KLoad0
.Ltmp383:
	.loc	1 412 3                 # md5.c:412:3
	addq	-80(%rbp), %r15
	addq	%rbx, %r15
	movl	$2240044497, %eax       # imm = 0x85845DD1
	leaq	1633106964(%rax,%r15), %r15
.Ltmp384:
	#DEBUG_VALUE: md5_transform:d <- R15
	movq	%r15, %rax
	shlq	$11, %rax
	shrq	$21, %r15
.Ltmp385:
	orq	%rax, %r15
.Ltmp386:
	#DEBUG_VALUE: md5_transform:d <- R15
	addq	%r13, %r15
.Ltmp387:
	.loc	1 413 3                 # md5.c:413:3
	movq	%r13, %rbx
	xorq	%r14, %rbx
	xorq	%r15, %rbx
	movl	$51, %esi
	movl	$8, %edx
.Ltmp388:
	.loc	1 378 3                 # md5.c:378:3
	leaq	-56(%rbp), %rdi
	callq	_KLoad0
	movq	%r12, %rax
.Ltmp389:
	#DEBUG_VALUE: md5_transform:c <- RAX
	.loc	1 413 3                 # md5.c:413:3
	addq	-56(%rbp), %rax
.Ltmp390:
	leaq	530742520(%rbx,%rax), %r12
.Ltmp391:
	#DEBUG_VALUE: md5_transform:c <- R12
	movq	%r12, %rax
	shlq	$16, %rax
	shrq	$16, %r12
.Ltmp392:
	orq	%rax, %r12
.Ltmp393:
	#DEBUG_VALUE: md5_transform:c <- R12
	addq	%r15, %r12
.Ltmp394:
	.loc	1 414 3                 # md5.c:414:3
	movq	%r15, %rbx
	xorq	%r13, %rbx
	xorq	%r12, %rbx
	movl	$52, %esi
	movl	$8, %edx
.Ltmp395:
	.loc	1 365 3                 # md5.c:365:3
	leaq	-160(%rbp), %rdi
	callq	_KLoad0
.Ltmp396:
	.loc	1 414 3                 # md5.c:414:3
	addq	-160(%rbp), %r14
	addq	%rbx, %r14
	movl	$2240044497, %eax       # imm = 0x85845DD1
	leaq	1059584148(%rax,%r14), %r14
.Ltmp397:
	#DEBUG_VALUE: md5_transform:b <- R14
	movq	%r14, %rax
	shlq	$23, %rax
	shrq	$9, %r14
.Ltmp398:
	orq	%rax, %r14
.Ltmp399:
	#DEBUG_VALUE: md5_transform:b <- R14
	addq	%r12, %r14
.Ltmp400:
	.loc	1 417 3                 # md5.c:417:3
	movq	%r15, %rbx
	notq	%rbx
	orq	%r14, %rbx
	xorq	%r12, %rbx
	movl	$53, %esi
	movl	$8, %edx
	leaq	-176(%rbp), %rdi
	callq	_KLoad0
	addq	-176(%rbp), %r13
	addq	%rbx, %r13
	movl	$2240044497, %eax       # imm = 0x85845DD1
	leaq	1856291955(%rax,%r13), %rcx
.Ltmp401:
	#DEBUG_VALUE: md5_transform:a <- RCX
	movq	%rcx, %rax
	shlq	$6, %rax
	shrq	$26, %rcx
.Ltmp402:
	orq	%rax, %rcx
.Ltmp403:
	#DEBUG_VALUE: md5_transform:a <- RCX
	addq	%r14, %rcx
.Ltmp404:
	.loc	1 418 3                 # md5.c:418:3
	movq	%rcx, -184(%rbp)        # 8-byte Spill
	movq	%r12, %rbx
	notq	%rbx
	orq	%rcx, %rbx
	movq	%rcx, %r13
.Ltmp405:
	#DEBUG_VALUE: md5_transform:a <- R13
	xorq	%r14, %rbx
	movl	$54, %esi
	movl	$8, %edx
.Ltmp406:
	.loc	1 370 3                 # md5.c:370:3
	leaq	-120(%rbp), %rdi
	callq	_KLoad0
.Ltmp407:
	.loc	1 418 3                 # md5.c:418:3
	addq	-120(%rbp), %r15
	leaq	1126891415(%rbx,%r15), %r15
.Ltmp408:
	#DEBUG_VALUE: md5_transform:d <- R15
	movq	%r15, %rax
	shlq	$10, %rax
	shrq	$22, %r15
.Ltmp409:
	orq	%rax, %r15
.Ltmp410:
	#DEBUG_VALUE: md5_transform:d <- R15
	addq	%r13, %r15
.Ltmp411:
	.loc	1 419 3                 # md5.c:419:3
	movq	%r14, %rbx
	notq	%rbx
	orq	%r15, %rbx
	xorq	%r13, %rbx
	movl	$55, %esi
	movl	$8, %edx
.Ltmp412:
	.loc	1 377 3                 # md5.c:377:3
	leaq	-64(%rbp), %rdi
	callq	_KLoad0
.Ltmp413:
	.loc	1 419 3                 # md5.c:419:3
	addq	-64(%rbp), %r12
	addq	%rbx, %r12
	movl	$2240044497, %eax       # imm = 0x85845DD1
	leaq	638567894(%rax,%r12), %r12
.Ltmp414:
	#DEBUG_VALUE: md5_transform:c <- R12
	movq	%r12, %rax
	shlq	$15, %rax
	shrq	$17, %r12
.Ltmp415:
	orq	%rax, %r12
.Ltmp416:
	#DEBUG_VALUE: md5_transform:c <- R12
	addq	%r15, %r12
.Ltmp417:
	.loc	1 420 3                 # md5.c:420:3
	movq	%r13, %rbx
.Ltmp418:
	#DEBUG_VALUE: md5_transform:a <- [RBP+-184]
	notq	%rbx
	orq	%r12, %rbx
	xorq	%r15, %rbx
	movl	$56, %esi
	movl	$8, %edx
.Ltmp419:
	.loc	1 368 3                 # md5.c:368:3
	leaq	-136(%rbp), %rdi
	callq	_KLoad0
.Ltmp420:
	.loc	1 420 3                 # md5.c:420:3
	addq	-136(%rbp), %r14
	addq	%rbx, %r14
	movl	$2240044497, %eax       # imm = 0x85845DD1
	leaq	1997488744(%rax,%r14), %r13
.Ltmp421:
	#DEBUG_VALUE: md5_transform:b <- R13
	movq	%r13, %rax
	shlq	$21, %rax
	shrq	$11, %r13
.Ltmp422:
	orq	%rax, %r13
.Ltmp423:
	#DEBUG_VALUE: md5_transform:b <- R13
	addq	%r12, %r13
.Ltmp424:
	.loc	1 421 3                 # md5.c:421:3
	movq	%r15, %rbx
	notq	%rbx
	orq	%r13, %rbx
	xorq	%r12, %rbx
	movl	$57, %esi
	movl	$8, %edx
.Ltmp425:
	.loc	1 375 3                 # md5.c:375:3
	leaq	-80(%rbp), %rdi
	callq	_KLoad0
	movq	-184(%rbp), %rax        # 8-byte Reload
.Ltmp426:
	#DEBUG_VALUE: md5_transform:a <- RAX
	.loc	1 421 3                 # md5.c:421:3
	addq	-80(%rbp), %rax
.Ltmp427:
	leaq	1700485571(%rbx,%rax), %r14
.Ltmp428:
	#DEBUG_VALUE: md5_transform:a <- R14
	movq	%r14, %rax
	shlq	$6, %rax
	shrq	$26, %r14
.Ltmp429:
	orq	%rax, %r14
.Ltmp430:
	#DEBUG_VALUE: md5_transform:a <- R14
	addq	%r13, %r14
.Ltmp431:
	.loc	1 422 3                 # md5.c:422:3
	movq	%r12, %rbx
	notq	%rbx
	orq	%r14, %rbx
	xorq	%r13, %rbx
	movl	$58, %esi
	movl	$8, %edx
.Ltmp432:
	.loc	1 366 3                 # md5.c:366:3
	leaq	-152(%rbp), %rdi
	callq	_KLoad0
.Ltmp433:
	.loc	1 422 3                 # md5.c:422:3
	addq	-152(%rbp), %r15
	addq	%rbx, %r15
	movl	$2240044497, %eax       # imm = 0x85845DD1
	leaq	159936193(%rax,%r15), %r15
.Ltmp434:
	#DEBUG_VALUE: md5_transform:d <- R15
	movq	%r15, %rax
	shlq	$10, %rax
	shrq	$22, %r15
.Ltmp435:
	orq	%rax, %r15
.Ltmp436:
	#DEBUG_VALUE: md5_transform:d <- R15
	addq	%r14, %r15
.Ltmp437:
	.loc	1 423 3                 # md5.c:423:3
	movq	%r13, %rbx
	notq	%rbx
	orq	%r15, %rbx
	xorq	%r14, %rbx
	movl	$59, %esi
	movl	$8, %edx
.Ltmp438:
	.loc	1 373 3                 # md5.c:373:3
	leaq	-96(%rbp), %rdi
	callq	_KLoad0
.Ltmp439:
	.loc	1 423 3                 # md5.c:423:3
	addq	-96(%rbp), %r12
	addq	%rbx, %r12
	movl	$2240044497, %eax       # imm = 0x85845DD1
	leaq	2053871276(%rax,%r12), %r12
.Ltmp440:
	#DEBUG_VALUE: md5_transform:c <- R12
	movq	%r12, %rax
	shlq	$15, %rax
	shrq	$17, %r12
.Ltmp441:
	orq	%rax, %r12
.Ltmp442:
	#DEBUG_VALUE: md5_transform:c <- R12
	addq	%r15, %r12
.Ltmp443:
	.loc	1 424 3                 # md5.c:424:3
	movq	%r14, %rbx
	notq	%rbx
	orq	%r12, %rbx
	xorq	%r15, %rbx
	movl	$60, %esi
	movl	$8, %edx
.Ltmp444:
	.loc	1 364 3                 # md5.c:364:3
	leaq	-168(%rbp), %rdi
	callq	_KLoad0
.Ltmp445:
	.loc	1 424 3                 # md5.c:424:3
	addq	-168(%rbp), %r13
	addq	%rbx, %r13
	movl	$2240044497, %eax       # imm = 0x85845DD1
	addq	%rax, %r13
.Ltmp446:
	#DEBUG_VALUE: md5_transform:b <- R13
	movq	%r13, %rax
	shlq	$21, %rax
	shrq	$11, %r13
.Ltmp447:
	orq	%rax, %r13
.Ltmp448:
	#DEBUG_VALUE: md5_transform:b <- R13
	addq	%r12, %r13
.Ltmp449:
	.loc	1 425 3                 # md5.c:425:3
	movq	%r15, %rbx
	notq	%rbx
	orq	%r13, %rbx
	xorq	%r12, %rbx
	movl	$61, %esi
	movl	$8, %edx
.Ltmp450:
	.loc	1 371 3                 # md5.c:371:3
	leaq	-112(%rbp), %rdi
	callq	_KLoad0
.Ltmp451:
	.loc	1 425 3                 # md5.c:425:3
	addq	-112(%rbp), %r14
	leaq	1873313359(%rbx,%r14), %r14
.Ltmp452:
	#DEBUG_VALUE: md5_transform:a <- R14
	movq	%r14, %rax
	shlq	$6, %rax
	shrq	$26, %r14
.Ltmp453:
	orq	%rax, %r14
.Ltmp454:
	#DEBUG_VALUE: md5_transform:a <- R14
	addq	%r13, %r14
.Ltmp455:
	.loc	1 426 3                 # md5.c:426:3
	movq	%r12, %rbx
	notq	%rbx
	orq	%r14, %rbx
	xorq	%r13, %rbx
	movl	$62, %esi
	movl	$8, %edx
.Ltmp456:
	.loc	1 378 3                 # md5.c:378:3
	leaq	-56(%rbp), %rdi
	callq	_KLoad0
.Ltmp457:
	.loc	1 426 3                 # md5.c:426:3
	addq	-56(%rbp), %r15
	addq	%rbx, %r15
	movl	$2240044497, %eax       # imm = 0x85845DD1
	leaq	2024311055(%rax,%r15), %r15
.Ltmp458:
	#DEBUG_VALUE: md5_transform:d <- R15
	movq	%r15, %rax
	shlq	$10, %rax
	shrq	$22, %r15
.Ltmp459:
	orq	%rax, %r15
.Ltmp460:
	#DEBUG_VALUE: md5_transform:d <- R15
	addq	%r14, %r15
.Ltmp461:
	.loc	1 427 3                 # md5.c:427:3
	movq	%r13, %rbx
	notq	%rbx
	orq	%r15, %rbx
	xorq	%r14, %rbx
	movl	$63, %esi
	movl	$8, %edx
.Ltmp462:
	.loc	1 369 3                 # md5.c:369:3
	leaq	-128(%rbp), %rdi
	callq	_KLoad0
.Ltmp463:
	.loc	1 427 3                 # md5.c:427:3
	addq	-128(%rbp), %r12
	addq	%rbx, %r12
	movl	$2240044497, %eax       # imm = 0x85845DD1
	leaq	494724419(%rax,%r12), %r12
.Ltmp464:
	#DEBUG_VALUE: md5_transform:c <- R12
	movq	%r12, %rax
	shlq	$15, %rax
	shrq	$17, %r12
.Ltmp465:
	orq	%rax, %r12
.Ltmp466:
	#DEBUG_VALUE: md5_transform:c <- R12
	addq	%r15, %r12
.Ltmp467:
	.loc	1 428 3                 # md5.c:428:3
	movq	%r14, %rbx
	notq	%rbx
	orq	%r12, %rbx
	xorq	%r15, %rbx
	movl	$64, %esi
	movl	$8, %edx
.Ltmp468:
	.loc	1 376 3                 # md5.c:376:3
	leaq	-72(%rbp), %rdi
	callq	_KLoad0
.Ltmp469:
	.loc	1 428 3                 # md5.c:428:3
	addq	-72(%rbp), %r13
	leaq	1309151649(%rbx,%r13), %r13
.Ltmp470:
	#DEBUG_VALUE: md5_transform:b <- R13
	movq	%r13, %rax
	shlq	$21, %rax
	shrq	$11, %r13
.Ltmp471:
	orq	%rax, %r13
.Ltmp472:
	#DEBUG_VALUE: md5_transform:b <- R13
	addq	%r12, %r13
.Ltmp473:
	.loc	1 429 3                 # md5.c:429:3
	movq	%r15, %rbx
	notq	%rbx
	orq	%r13, %rbx
	xorq	%r12, %rbx
	movl	$65, %esi
	movl	$8, %edx
.Ltmp474:
	.loc	1 367 3                 # md5.c:367:3
	leaq	-144(%rbp), %rdi
	callq	_KLoad0
.Ltmp475:
	.loc	1 429 3                 # md5.c:429:3
	addq	-144(%rbp), %r14
	addq	%rbx, %r14
	movl	$2240044497, %eax       # imm = 0x85845DD1
	leaq	1909399729(%rax,%r14), %r14
.Ltmp476:
	#DEBUG_VALUE: md5_transform:a <- R14
	movq	%r14, %rax
	shlq	$6, %rax
	shrq	$26, %r14
.Ltmp477:
	orq	%rax, %r14
.Ltmp478:
	#DEBUG_VALUE: md5_transform:a <- R14
	addq	%r13, %r14
.Ltmp479:
	.loc	1 430 3                 # md5.c:430:3
	movq	%r12, %rbx
	notq	%rbx
	orq	%r14, %rbx
	xorq	%r13, %rbx
	movl	$66, %esi
	movl	$8, %edx
.Ltmp480:
	.loc	1 374 3                 # md5.c:374:3
	leaq	-88(%rbp), %rdi
	callq	_KLoad0
.Ltmp481:
	.loc	1 430 3                 # md5.c:430:3
	addq	-88(%rbp), %r15
	addq	%rbx, %r15
	movl	$2240044497, %eax       # imm = 0x85845DD1
	leaq	934712420(%rax,%r15), %rcx
.Ltmp482:
	#DEBUG_VALUE: md5_transform:d <- RCX
	movq	%rcx, %rax
	shlq	$10, %rax
	shrq	$22, %rcx
.Ltmp483:
	orq	%rax, %rcx
.Ltmp484:
	#DEBUG_VALUE: md5_transform:d <- RCX
	addq	%r14, %rcx
.Ltmp485:
	.loc	1 431 3                 # md5.c:431:3
	movq	%rcx, -184(%rbp)        # 8-byte Spill
	movq	%r13, %rbx
	notq	%rbx
	orq	%rcx, %rbx
	movq	%rcx, %r15
.Ltmp486:
	#DEBUG_VALUE: md5_transform:d <- R15
	xorq	%r14, %rbx
	movl	$67, %esi
	movl	$8, %edx
.Ltmp487:
	.loc	1 365 3                 # md5.c:365:3
	leaq	-160(%rbp), %rdi
	callq	_KLoad0
.Ltmp488:
	.loc	1 431 3                 # md5.c:431:3
	addq	-160(%rbp), %r12
	leaq	718787259(%rbx,%r12), %r12
.Ltmp489:
	#DEBUG_VALUE: md5_transform:c <- R12
	movq	%r12, %rax
	shlq	$15, %rax
	shrq	$17, %r12
.Ltmp490:
	orq	%rax, %r12
.Ltmp491:
	#DEBUG_VALUE: md5_transform:c <- R12
	addq	%r15, %r12
.Ltmp492:
	.loc	1 432 3                 # md5.c:432:3
	movq	%r14, %rbx
	notq	%rbx
	orq	%r12, %rbx
	xorq	%r15, %rbx
.Ltmp493:
	#DEBUG_VALUE: md5_transform:d <- [RBP+-184]
	movl	$68, %esi
	movl	$8, %edx
.Ltmp494:
	.loc	1 372 3                 # md5.c:372:3
	leaq	-104(%rbp), %rdi
	callq	_KLoad0
.Ltmp495:
	.loc	1 432 3                 # md5.c:432:3
	addq	-104(%rbp), %r13
	addq	%rbx, %r13
	movl	$2240044497, %eax       # imm = 0x85845DD1
	leaq	1711437248(%rax,%r13), %r15
.Ltmp496:
	#DEBUG_VALUE: md5_transform:b <- R15
	movq	%r15, %rax
	shlq	$21, %rax
	shrq	$11, %r15
.Ltmp497:
	orq	%rax, %r15
.Ltmp498:
	#DEBUG_VALUE: md5_transform:b <- R15
	movl	$69, %esi
	movl	$8, %edx
	movq	-224(%rbp), %rbx        # 8-byte Reload
.Ltmp499:
	#DEBUG_VALUE: md5_transform:state <- RBX
	movq	%rbx, %rdi
	callq	_KLoad0
.Ltmp500:
	.loc	1 434 3                 # md5.c:434:3
	addq	(%rbx), %r14
	movq	%rbx, %r13
.Ltmp501:
	#DEBUG_VALUE: md5_transform:state <- R13
	movl	$1, 1016(%rsp)
	movl	$69, 1008(%rsp)
	movl	$7, 1000(%rsp)
	movl	$65, 992(%rsp)
	movl	$15, 984(%rsp)
	movl	$64, 976(%rsp)
	movl	$23, 968(%rsp)
	movl	$63, 960(%rsp)
	movl	$31, 952(%rsp)
	movl	$62, 944(%rsp)
	movl	$39, 936(%rsp)
	movl	$61, 928(%rsp)
	movl	$47, 920(%rsp)
	movl	$60, 912(%rsp)
	movl	$119, 904(%rsp)
	movl	$51, 896(%rsp)
	movl	$127, 888(%rsp)
	movl	$50, 880(%rsp)
	movl	$135, 872(%rsp)
	movl	$49, 864(%rsp)
	movl	$143, 856(%rsp)
	movl	$48, 848(%rsp)
	movl	$151, 840(%rsp)
	movl	$47, 832(%rsp)
	movl	$159, 824(%rsp)
	movl	$46, 816(%rsp)
	movl	$167, 808(%rsp)
	movl	$45, 800(%rsp)
	movl	$175, 792(%rsp)
	movl	$44, 784(%rsp)
	movl	$183, 776(%rsp)
	movl	$43, 768(%rsp)
	movl	$191, 760(%rsp)
	movl	$42, 752(%rsp)
	movl	$199, 744(%rsp)
	movl	$41, 736(%rsp)
	movl	$207, 728(%rsp)
	movl	$40, 720(%rsp)
	movl	$215, 712(%rsp)
	movl	$39, 704(%rsp)
	movl	$223, 696(%rsp)
	movl	$38, 688(%rsp)
	movl	$239, 680(%rsp)
	movl	$36, 672(%rsp)
	movl	$247, 664(%rsp)
	movl	$35, 656(%rsp)
	movl	$255, 648(%rsp)
	movl	$34, 640(%rsp)
	movl	$263, 632(%rsp)         # imm = 0x107
	movl	$33, 624(%rsp)
	movl	$271, 616(%rsp)         # imm = 0x10F
	movl	$32, 608(%rsp)
	movl	$279, 600(%rsp)         # imm = 0x117
	movl	$31, 592(%rsp)
	movl	$287, 584(%rsp)         # imm = 0x11F
	movl	$30, 576(%rsp)
	movl	$295, 568(%rsp)         # imm = 0x127
	movl	$29, 560(%rsp)
	movl	$303, 552(%rsp)         # imm = 0x12F
	movl	$28, 544(%rsp)
	movl	$311, 536(%rsp)         # imm = 0x137
	movl	$27, 528(%rsp)
	movl	$319, 520(%rsp)         # imm = 0x13F
	movl	$26, 512(%rsp)
	movl	$327, 504(%rsp)         # imm = 0x147
	movl	$25, 496(%rsp)
	movl	$63, 488(%rsp)
	movl	$58, 480(%rsp)
	movl	$71, 472(%rsp)
	movl	$57, 464(%rsp)
	movl	$335, 456(%rsp)         # imm = 0x14F
	movl	$24, 448(%rsp)
	movl	$343, 440(%rsp)         # imm = 0x157
	movl	$23, 432(%rsp)
	movl	$351, 424(%rsp)         # imm = 0x15F
	movl	$22, 416(%rsp)
	movl	$359, 408(%rsp)         # imm = 0x167
	movl	$21, 400(%rsp)
	movl	$231, 392(%rsp)
	movl	$37, 384(%rsp)
	movl	$376, 376(%rsp)         # imm = 0x178
	movl	$19, 368(%rsp)
	movl	$385, 360(%rsp)         # imm = 0x181
	movl	$18, 352(%rsp)
	movl	$403, 344(%rsp)         # imm = 0x193
	movl	$16, 336(%rsp)
	movl	$412, 328(%rsp)         # imm = 0x19C
	movl	$15, 320(%rsp)
	movl	$421, 312(%rsp)         # imm = 0x1A5
	movl	$14, 304(%rsp)
	movl	$430, 296(%rsp)         # imm = 0x1AE
	movl	$13, 288(%rsp)
	movl	$55, 280(%rsp)
	movl	$59, 272(%rsp)
	movl	$79, 264(%rsp)
	movl	$56, 256(%rsp)
	movl	$87, 248(%rsp)
	movl	$55, 240(%rsp)
	movl	$95, 232(%rsp)
	movl	$54, 224(%rsp)
	movl	$103, 216(%rsp)
	movl	$53, 208(%rsp)
	movl	$111, 200(%rsp)
	movl	$52, 192(%rsp)
	movl	$457, 184(%rsp)         # imm = 0x1C9
	movl	$10, 176(%rsp)
	movl	$466, 168(%rsp)         # imm = 0x1D2
	movl	$9, 160(%rsp)
	movl	$475, 152(%rsp)         # imm = 0x1DB
	movl	$8, 144(%rsp)
	movl	$484, 136(%rsp)         # imm = 0x1E4
	movl	$7, 128(%rsp)
	movl	$493, 120(%rsp)         # imm = 0x1ED
	movl	$6, 112(%rsp)
	movl	$502, 104(%rsp)         # imm = 0x1F6
	movl	$5, 96(%rsp)
	movl	$504, 88(%rsp)          # imm = 0x1F8
	movl	$4, 80(%rsp)
	movl	$504, 72(%rsp)          # imm = 0x1F8
	movl	$3, 64(%rsp)
	movl	$505, 56(%rsp)          # imm = 0x1F9
	movl	$2, 48(%rsp)
	movl	$500, 40(%rsp)          # imm = 0x1F4
	movl	$1, 32(%rsp)
	movl	$367, 24(%rsp)          # imm = 0x16F
	movl	$20, 16(%rsp)
	movl	$448, 8(%rsp)           # imm = 0x1C0
	movl	$11, (%rsp)
	movl	$70, %edi
	movl	$66, %esi
	movl	$17, %edx
	movl	$394, %ecx              # imm = 0x18A
	movl	$12, %r8d
	movl	$439, %r9d              # imm = 0x1B7
	xorl	%eax, %eax
	callq	_KTimestamp
	movl	$70, %edi
	movl	$8, %edx
	movq	%r13, %rsi
	callq	_KStore
	movq	%r14, (%r13)
	movl	$71, %esi
	movl	$8, %edx
	movq	-216(%rbp), %r14        # 8-byte Reload
	movq	%r14, %rdi
	callq	_KLoad0
	movq	8(%r13), %rbx
	.loc	1 432 3                 # md5.c:432:3
.Ltmp502:
	addq	%r12, %rbx
.Ltmp503:
	#DEBUG_VALUE: md5_transform:b <- RBX
	.loc	1 435 3                 # md5.c:435:3
	addq	%r15, %rbx
.Ltmp504:
	movl	$1, 1064(%rsp)
	movl	$71, 1056(%rsp)
	movl	$7, 1048(%rsp)
	movl	$68, 1040(%rsp)
	movl	$15, 1032(%rsp)
	movl	$67, 1024(%rsp)
	movl	$23, 1016(%rsp)
	movl	$66, 1008(%rsp)
	movl	$31, 1000(%rsp)
	movl	$65, 992(%rsp)
	movl	$39, 984(%rsp)
	movl	$64, 976(%rsp)
	movl	$47, 968(%rsp)
	movl	$63, 960(%rsp)
	movl	$55, 952(%rsp)
	movl	$62, 944(%rsp)
	movl	$63, 936(%rsp)
	movl	$61, 928(%rsp)
	movl	$71, 920(%rsp)
	movl	$60, 912(%rsp)
	movl	$143, 904(%rsp)
	movl	$51, 896(%rsp)
	movl	$151, 888(%rsp)
	movl	$50, 880(%rsp)
	movl	$159, 872(%rsp)
	movl	$49, 864(%rsp)
	movl	$167, 856(%rsp)
	movl	$48, 848(%rsp)
	movl	$175, 840(%rsp)
	movl	$47, 832(%rsp)
	movl	$183, 824(%rsp)
	movl	$46, 816(%rsp)
	movl	$191, 808(%rsp)
	movl	$45, 800(%rsp)
	movl	$199, 792(%rsp)
	movl	$44, 784(%rsp)
	movl	$207, 776(%rsp)
	movl	$43, 768(%rsp)
	movl	$215, 760(%rsp)
	movl	$42, 752(%rsp)
	movl	$223, 744(%rsp)
	movl	$41, 736(%rsp)
	movl	$231, 728(%rsp)
	movl	$40, 720(%rsp)
	movl	$239, 712(%rsp)
	movl	$39, 704(%rsp)
	movl	$247, 696(%rsp)
	movl	$38, 688(%rsp)
	movl	$263, 680(%rsp)         # imm = 0x107
	movl	$36, 672(%rsp)
	movl	$271, 664(%rsp)         # imm = 0x10F
	movl	$35, 656(%rsp)
	movl	$279, 648(%rsp)         # imm = 0x117
	movl	$34, 640(%rsp)
	movl	$287, 632(%rsp)         # imm = 0x11F
	movl	$33, 624(%rsp)
	movl	$295, 616(%rsp)         # imm = 0x127
	movl	$32, 608(%rsp)
	movl	$303, 600(%rsp)         # imm = 0x12F
	movl	$31, 592(%rsp)
	movl	$311, 584(%rsp)         # imm = 0x137
	movl	$30, 576(%rsp)
	movl	$319, 568(%rsp)         # imm = 0x13F
	movl	$29, 560(%rsp)
	movl	$327, 552(%rsp)         # imm = 0x147
	movl	$28, 544(%rsp)
	movl	$335, 536(%rsp)         # imm = 0x14F
	movl	$27, 528(%rsp)
	movl	$343, 520(%rsp)         # imm = 0x157
	movl	$26, 512(%rsp)
	movl	$351, 504(%rsp)         # imm = 0x15F
	movl	$25, 496(%rsp)
	movl	$87, 488(%rsp)
	movl	$58, 480(%rsp)
	movl	$95, 472(%rsp)
	movl	$57, 464(%rsp)
	movl	$359, 456(%rsp)         # imm = 0x167
	movl	$24, 448(%rsp)
	movl	$367, 440(%rsp)         # imm = 0x16F
	movl	$23, 432(%rsp)
	movl	$375, 424(%rsp)         # imm = 0x177
	movl	$22, 416(%rsp)
	movl	$383, 408(%rsp)         # imm = 0x17F
	movl	$21, 400(%rsp)
	movl	$255, 392(%rsp)
	movl	$37, 384(%rsp)
	movl	$400, 376(%rsp)         # imm = 0x190
	movl	$19, 368(%rsp)
	movl	$409, 360(%rsp)         # imm = 0x199
	movl	$18, 352(%rsp)
	movl	$427, 344(%rsp)         # imm = 0x1AB
	movl	$16, 336(%rsp)
	movl	$436, 328(%rsp)         # imm = 0x1B4
	movl	$15, 320(%rsp)
	movl	$445, 312(%rsp)         # imm = 0x1BD
	movl	$14, 304(%rsp)
	movl	$454, 296(%rsp)         # imm = 0x1C6
	movl	$13, 288(%rsp)
	movl	$79, 280(%rsp)
	movl	$59, 272(%rsp)
	movl	$103, 264(%rsp)
	movl	$56, 256(%rsp)
	movl	$111, 248(%rsp)
	movl	$55, 240(%rsp)
	movl	$119, 232(%rsp)
	movl	$54, 224(%rsp)
	movl	$127, 216(%rsp)
	movl	$53, 208(%rsp)
	movl	$135, 200(%rsp)
	movl	$52, 192(%rsp)
	movl	$481, 184(%rsp)         # imm = 0x1E1
	movl	$10, 176(%rsp)
	movl	$490, 168(%rsp)         # imm = 0x1EA
	movl	$9, 160(%rsp)
	movl	$499, 152(%rsp)         # imm = 0x1F3
	movl	$8, 144(%rsp)
	movl	$508, 136(%rsp)         # imm = 0x1FC
	movl	$7, 128(%rsp)
	movl	$517, 120(%rsp)         # imm = 0x205
	movl	$6, 112(%rsp)
	movl	$526, 104(%rsp)         # imm = 0x20E
	movl	$5, 96(%rsp)
	movl	$528, 88(%rsp)          # imm = 0x210
	movl	$4, 80(%rsp)
	movl	$528, 72(%rsp)          # imm = 0x210
	movl	$3, 64(%rsp)
	movl	$529, 56(%rsp)          # imm = 0x211
	movl	$2, 48(%rsp)
	movl	$524, 40(%rsp)          # imm = 0x20C
	movl	$1, 32(%rsp)
	movl	$391, 24(%rsp)          # imm = 0x187
	movl	$20, 16(%rsp)
	movl	$472, 8(%rsp)           # imm = 0x1D8
	movl	$11, (%rsp)
	movl	$72, %edi
	movl	$69, %esi
	movl	$17, %edx
	movl	$418, %ecx              # imm = 0x1A2
	movl	$12, %r8d
	movl	$463, %r9d              # imm = 0x1CF
	xorl	%eax, %eax
	callq	_KTimestamp
	movl	$72, %edi
	movl	$8, %edx
	movq	%r14, %rsi
	callq	_KStore
	movq	%rbx, 8(%r13)
	movl	$73, %esi
	movl	$8, %edx
	movq	-208(%rbp), %rbx        # 8-byte Reload
	movq	%rbx, %rdi
	callq	_KLoad0
	.loc	1 436 3                 # md5.c:436:3
	addq	16(%r13), %r12
	movl	$1, 1048(%rsp)
	movl	$73, 1040(%rsp)
	movl	$7, 1032(%rsp)
	movl	$67, 1024(%rsp)
	movl	$15, 1016(%rsp)
	movl	$66, 1008(%rsp)
	movl	$23, 1000(%rsp)
	movl	$65, 992(%rsp)
	movl	$31, 984(%rsp)
	movl	$64, 976(%rsp)
	movl	$39, 968(%rsp)
	movl	$63, 960(%rsp)
	movl	$47, 952(%rsp)
	movl	$62, 944(%rsp)
	movl	$55, 936(%rsp)
	movl	$61, 928(%rsp)
	movl	$63, 920(%rsp)
	movl	$60, 912(%rsp)
	movl	$135, 904(%rsp)
	movl	$51, 896(%rsp)
	movl	$143, 888(%rsp)
	movl	$50, 880(%rsp)
	movl	$151, 872(%rsp)
	movl	$49, 864(%rsp)
	movl	$159, 856(%rsp)
	movl	$48, 848(%rsp)
	movl	$167, 840(%rsp)
	movl	$47, 832(%rsp)
	movl	$175, 824(%rsp)
	movl	$46, 816(%rsp)
	movl	$183, 808(%rsp)
	movl	$45, 800(%rsp)
	movl	$191, 792(%rsp)
	movl	$44, 784(%rsp)
	movl	$199, 776(%rsp)
	movl	$43, 768(%rsp)
	movl	$207, 760(%rsp)
	movl	$42, 752(%rsp)
	movl	$215, 744(%rsp)
	movl	$41, 736(%rsp)
	movl	$223, 728(%rsp)
	movl	$40, 720(%rsp)
	movl	$231, 712(%rsp)
	movl	$39, 704(%rsp)
	movl	$239, 696(%rsp)
	movl	$38, 688(%rsp)
	movl	$255, 680(%rsp)
	movl	$36, 672(%rsp)
	movl	$263, 664(%rsp)         # imm = 0x107
	movl	$35, 656(%rsp)
	movl	$271, 648(%rsp)         # imm = 0x10F
	movl	$34, 640(%rsp)
	movl	$279, 632(%rsp)         # imm = 0x117
	movl	$33, 624(%rsp)
	movl	$287, 616(%rsp)         # imm = 0x11F
	movl	$32, 608(%rsp)
	movl	$295, 600(%rsp)         # imm = 0x127
	movl	$31, 592(%rsp)
	movl	$303, 584(%rsp)         # imm = 0x12F
	movl	$30, 576(%rsp)
	movl	$311, 568(%rsp)         # imm = 0x137
	movl	$29, 560(%rsp)
	movl	$319, 552(%rsp)         # imm = 0x13F
	movl	$28, 544(%rsp)
	movl	$327, 536(%rsp)         # imm = 0x147
	movl	$27, 528(%rsp)
	movl	$335, 520(%rsp)         # imm = 0x14F
	movl	$26, 512(%rsp)
	movl	$343, 504(%rsp)         # imm = 0x157
	movl	$25, 496(%rsp)
	movl	$79, 488(%rsp)
	movl	$58, 480(%rsp)
	movl	$87, 472(%rsp)
	movl	$57, 464(%rsp)
	movl	$351, 456(%rsp)         # imm = 0x15F
	movl	$24, 448(%rsp)
	movl	$359, 440(%rsp)         # imm = 0x167
	movl	$23, 432(%rsp)
	movl	$367, 424(%rsp)         # imm = 0x16F
	movl	$22, 416(%rsp)
	movl	$375, 408(%rsp)         # imm = 0x177
	movl	$21, 400(%rsp)
	movl	$247, 392(%rsp)
	movl	$37, 384(%rsp)
	movl	$392, 376(%rsp)         # imm = 0x188
	movl	$19, 368(%rsp)
	movl	$401, 360(%rsp)         # imm = 0x191
	movl	$18, 352(%rsp)
	movl	$419, 344(%rsp)         # imm = 0x1A3
	movl	$16, 336(%rsp)
	movl	$428, 328(%rsp)         # imm = 0x1AC
	movl	$15, 320(%rsp)
	movl	$437, 312(%rsp)         # imm = 0x1B5
	movl	$14, 304(%rsp)
	movl	$446, 296(%rsp)         # imm = 0x1BE
	movl	$13, 288(%rsp)
	movl	$71, 280(%rsp)
	movl	$59, 272(%rsp)
	movl	$95, 264(%rsp)
	movl	$56, 256(%rsp)
	movl	$103, 248(%rsp)
	movl	$55, 240(%rsp)
	movl	$111, 232(%rsp)
	movl	$54, 224(%rsp)
	movl	$119, 216(%rsp)
	movl	$53, 208(%rsp)
	movl	$127, 200(%rsp)
	movl	$52, 192(%rsp)
	movl	$473, 184(%rsp)         # imm = 0x1D9
	movl	$10, 176(%rsp)
	movl	$482, 168(%rsp)         # imm = 0x1E2
	movl	$9, 160(%rsp)
	movl	$491, 152(%rsp)         # imm = 0x1EB
	movl	$8, 144(%rsp)
	movl	$500, 136(%rsp)         # imm = 0x1F4
	movl	$7, 128(%rsp)
	movl	$509, 120(%rsp)         # imm = 0x1FD
	movl	$6, 112(%rsp)
	movl	$518, 104(%rsp)         # imm = 0x206
	movl	$5, 96(%rsp)
	movl	$520, 88(%rsp)          # imm = 0x208
	movl	$4, 80(%rsp)
	movl	$520, 72(%rsp)          # imm = 0x208
	movl	$3, 64(%rsp)
	movl	$521, 56(%rsp)          # imm = 0x209
	movl	$2, 48(%rsp)
	movl	$516, 40(%rsp)          # imm = 0x204
	movl	$1, 32(%rsp)
	movl	$383, 24(%rsp)          # imm = 0x17F
	movl	$20, 16(%rsp)
	movl	$464, 8(%rsp)           # imm = 0x1D0
	movl	$11, (%rsp)
	movl	$74, %edi
	movl	$68, %esi
	movl	$17, %edx
	movl	$410, %ecx              # imm = 0x19A
	movl	$12, %r8d
	movl	$455, %r9d              # imm = 0x1C7
	xorl	%eax, %eax
	callq	_KTimestamp
	movl	$74, %edi
	movl	$8, %edx
	movq	%rbx, %rsi
	callq	_KStore
	movq	%r12, 16(%r13)
	movl	$75, %esi
	movl	$8, %edx
	movq	-200(%rbp), %r14        # 8-byte Reload
	movq	%r14, %rdi
	callq	_KLoad0
	movq	-184(%rbp), %rbx        # 8-byte Reload
.Ltmp505:
	#DEBUG_VALUE: md5_transform:d <- RBX
	.loc	1 437 3                 # md5.c:437:3
	addq	24(%r13), %rbx
.Ltmp506:
	movl	$1, 1032(%rsp)
	movl	$75, 1024(%rsp)
	movl	$7, 1016(%rsp)
	movl	$66, 1008(%rsp)
	movl	$15, 1000(%rsp)
	movl	$65, 992(%rsp)
	movl	$23, 984(%rsp)
	movl	$64, 976(%rsp)
	movl	$31, 968(%rsp)
	movl	$63, 960(%rsp)
	movl	$39, 952(%rsp)
	movl	$62, 944(%rsp)
	movl	$47, 936(%rsp)
	movl	$61, 928(%rsp)
	movl	$55, 920(%rsp)
	movl	$60, 912(%rsp)
	movl	$127, 904(%rsp)
	movl	$51, 896(%rsp)
	movl	$135, 888(%rsp)
	movl	$50, 880(%rsp)
	movl	$143, 872(%rsp)
	movl	$49, 864(%rsp)
	movl	$151, 856(%rsp)
	movl	$48, 848(%rsp)
	movl	$159, 840(%rsp)
	movl	$47, 832(%rsp)
	movl	$167, 824(%rsp)
	movl	$46, 816(%rsp)
	movl	$175, 808(%rsp)
	movl	$45, 800(%rsp)
	movl	$183, 792(%rsp)
	movl	$44, 784(%rsp)
	movl	$191, 776(%rsp)
	movl	$43, 768(%rsp)
	movl	$199, 760(%rsp)
	movl	$42, 752(%rsp)
	movl	$207, 744(%rsp)
	movl	$41, 736(%rsp)
	movl	$215, 728(%rsp)
	movl	$40, 720(%rsp)
	movl	$223, 712(%rsp)
	movl	$39, 704(%rsp)
	movl	$231, 696(%rsp)
	movl	$38, 688(%rsp)
	movl	$247, 680(%rsp)
	movl	$36, 672(%rsp)
	movl	$255, 664(%rsp)
	movl	$35, 656(%rsp)
	movl	$263, 648(%rsp)         # imm = 0x107
	movl	$34, 640(%rsp)
	movl	$271, 632(%rsp)         # imm = 0x10F
	movl	$33, 624(%rsp)
	movl	$279, 616(%rsp)         # imm = 0x117
	movl	$32, 608(%rsp)
	movl	$287, 600(%rsp)         # imm = 0x11F
	movl	$31, 592(%rsp)
	movl	$295, 584(%rsp)         # imm = 0x127
	movl	$30, 576(%rsp)
	movl	$303, 568(%rsp)         # imm = 0x12F
	movl	$29, 560(%rsp)
	movl	$311, 552(%rsp)         # imm = 0x137
	movl	$28, 544(%rsp)
	movl	$319, 536(%rsp)         # imm = 0x13F
	movl	$27, 528(%rsp)
	movl	$327, 520(%rsp)         # imm = 0x147
	movl	$26, 512(%rsp)
	movl	$335, 504(%rsp)         # imm = 0x14F
	movl	$25, 496(%rsp)
	movl	$71, 488(%rsp)
	movl	$58, 480(%rsp)
	movl	$79, 472(%rsp)
	movl	$57, 464(%rsp)
	movl	$343, 456(%rsp)         # imm = 0x157
	movl	$24, 448(%rsp)
	movl	$351, 440(%rsp)         # imm = 0x15F
	movl	$23, 432(%rsp)
	movl	$359, 424(%rsp)         # imm = 0x167
	movl	$22, 416(%rsp)
	movl	$367, 408(%rsp)         # imm = 0x16F
	movl	$21, 400(%rsp)
	movl	$239, 392(%rsp)
	movl	$37, 384(%rsp)
	movl	$384, 376(%rsp)         # imm = 0x180
	movl	$19, 368(%rsp)
	movl	$393, 360(%rsp)         # imm = 0x189
	movl	$18, 352(%rsp)
	movl	$411, 344(%rsp)         # imm = 0x19B
	movl	$16, 336(%rsp)
	movl	$420, 328(%rsp)         # imm = 0x1A4
	movl	$15, 320(%rsp)
	movl	$429, 312(%rsp)         # imm = 0x1AD
	movl	$14, 304(%rsp)
	movl	$438, 296(%rsp)         # imm = 0x1B6
	movl	$13, 288(%rsp)
	movl	$63, 280(%rsp)
	movl	$59, 272(%rsp)
	movl	$87, 264(%rsp)
	movl	$56, 256(%rsp)
	movl	$95, 248(%rsp)
	movl	$55, 240(%rsp)
	movl	$103, 232(%rsp)
	movl	$54, 224(%rsp)
	movl	$111, 216(%rsp)
	movl	$53, 208(%rsp)
	movl	$119, 200(%rsp)
	movl	$52, 192(%rsp)
	movl	$465, 184(%rsp)         # imm = 0x1D1
	movl	$10, 176(%rsp)
	movl	$474, 168(%rsp)         # imm = 0x1DA
	movl	$9, 160(%rsp)
	movl	$483, 152(%rsp)         # imm = 0x1E3
	movl	$8, 144(%rsp)
	movl	$492, 136(%rsp)         # imm = 0x1EC
	movl	$7, 128(%rsp)
	movl	$501, 120(%rsp)         # imm = 0x1F5
	movl	$6, 112(%rsp)
	movl	$510, 104(%rsp)         # imm = 0x1FE
	movl	$5, 96(%rsp)
	movl	$512, 88(%rsp)          # imm = 0x200
	movl	$4, 80(%rsp)
	movl	$512, 72(%rsp)          # imm = 0x200
	movl	$3, 64(%rsp)
	movl	$513, 56(%rsp)          # imm = 0x201
	movl	$2, 48(%rsp)
	movl	$508, 40(%rsp)          # imm = 0x1FC
	movl	$1, 32(%rsp)
	movl	$375, 24(%rsp)          # imm = 0x177
	movl	$20, 16(%rsp)
	movl	$456, 8(%rsp)           # imm = 0x1C8
	movl	$11, (%rsp)
	movl	$76, %edi
	movl	$67, %esi
	movl	$17, %edx
	movl	$402, %ecx              # imm = 0x192
	movl	$12, %r8d
	movl	$447, %r9d              # imm = 0x1BF
	xorl	%eax, %eax
	callq	_KTimestamp
	movl	$76, %edi
	movl	$8, %edx
	movq	%r14, %rsi
	callq	_KStore
	movq	%rbx, 24(%r13)
	movabsq	$-3727421520515935084, %rdi # imm = 0xCC4589E035805494
	xorl	%esi, %esi
	callq	_KPrepCall
	callq	_KEnqArgConst
	callq	_KEnqArgConst
	xorl	%esi, %esi
	movl	$128, %edx
	leaq	-176(%rbp), %rdi
	.loc	1 441 3                 # md5.c:441:3
	callq	md5_memset
	xorl	%esi, %esi
	movabsq	$3886969788622743090, %rdi # imm = 0x35F14A6DBF88A632
	callq	_KExitRegion
	.loc	1 442 1                 # md5.c:442:1
	addq	$1272, %rsp             # imm = 0x4F8
	popq	%rbx
	popq	%r12
	popq	%r13
.Ltmp507:
	popq	%r14
	popq	%r15
	popq	%rbp
	retq
.Ltmp508:
.Ltmp509:
	.size	md5_transform, .Ltmp509-md5_transform
.Lfunc_end3:
	.cfi_endproc

	.globl	md5_final
	.align	16, 0x90
	.type	md5_final,@function
md5_final:                              # @md5_final
.Lfunc_begin4:
	.loc	1 318 0                 # md5.c:318:0
	.cfi_startproc
# BB#0:                                 # %entry
	pushq	%rbp
.Ltmp510:
	.cfi_def_cfa_offset 16
.Ltmp511:
	.cfi_offset %rbp, -16
	movq	%rsp, %rbp
.Ltmp512:
	.cfi_def_cfa_register %rbp
	pushq	%r15
	pushq	%r14
	pushq	%r13
	pushq	%r12
	pushq	%rbx
	pushq	%rax
.Ltmp513:
	.cfi_offset %rbx, -56
.Ltmp514:
	.cfi_offset %r12, -48
.Ltmp515:
	.cfi_offset %r13, -40
.Ltmp516:
	.cfi_offset %r14, -32
.Ltmp517:
	.cfi_offset %r15, -24
	#DEBUG_VALUE: md5_final:digest <- RDI
	#DEBUG_VALUE: md5_final:context <- RSI
	movq	%rsi, %r13
.Ltmp518:
	#DEBUG_VALUE: md5_final:context <- R13
	movq	%rdi, %r15
.Ltmp519:
	#DEBUG_VALUE: md5_final:digest <- R15
	movabsq	$-3585780663805068962, %r14 # imm = 0xCE3CBF7C0B6F395E
	xorl	%esi, %esi
	movq	%r14, %rdi
	callq	_KEnterRegion
	movl	$3, %edi
	xorl	%esi, %esi
	callq	_KPrepRTable
	movl	$9, %edi
	callq	_KWork
	.loc	1 323 21 prologue_end   # md5.c:323:21
.Ltmp520:
	movq	%r13, %rbx
	subq	$-128, %rbx
	movabsq	$-7224707609917459548, %rdi # imm = 0x9BBCAEB4F8CEF3A4
	xorl	%esi, %esi
	callq	_KPrepCall
	callq	_KEnqArgConst
	leaq	-48(%rbp), %r12
	movl	$8, %edx
	.loc	1 323 3 is_stmt 0       # md5.c:323:3
	movq	%r12, %rdi
	movq	%rbx, %rsi
	callq	md5_encode
	movl	$1, %esi
	movl	$8, %edx
	movq	%rbx, %rdi
	callq	_KLoad0
	.loc	1 327 27 is_stmt 1      # md5.c:327:27
	movl	128(%r13), %eax
	.loc	1 327 11 is_stmt 0      # md5.c:327:11
	shrl	$3, %eax
	andl	$63, %eax
.Ltmp521:
	#DEBUG_VALUE: md5_final:index <- EAX
	.loc	1 328 13 is_stmt 1      # md5.c:328:13
	cmpl	$56, %eax
	movl	$56, %ecx
	movl	$120, %ebx
	.loc	1 328 12 is_stmt 0      # md5.c:328:12
	cmovbl	%ecx, %ebx
	subl	%eax, %ebx
.Ltmp522:
	#DEBUG_VALUE: md5_final:padLen <- EBX
	movl	$2, %edi
	movl	$1, %esi
	movl	$3, %edx
	callq	_KTimestamp1
	movabsq	$2985711708699338110, %rdi # imm = 0x296F60FAE6BFA57E
	xorl	%esi, %esi
	callq	_KPrepCall
	movl	$2, %edi
	callq	_KEnqArg
	.loc	1 329 3 is_stmt 1       # md5.c:329:3
	movl	$md5_PADDING, %esi
	movq	%r13, %rdi
	movl	%ebx, %edx
	callq	md5_update
	movabsq	$7475334998134484709, %rdi # imm = 0x67BDB99324D9EEE5
	xorl	%esi, %esi
	callq	_KPrepCall
	callq	_KEnqArgConst
	movl	$8, %edx
	.loc	1 332 3                 # md5.c:332:3
	movq	%r13, %rdi
	movq	%r12, %rsi
	callq	md5_update
	movabsq	$7028531669402984512, %rdi # imm = 0x618A5C5087592040
	xorl	%esi, %esi
	callq	_KPrepCall
	callq	_KEnqArgConst
	movl	$64, %edx
	.loc	1 335 3                 # md5.c:335:3
	movq	%r15, %rdi
.Ltmp523:
	#DEBUG_VALUE: md5_final:digest <- RDI
	movq	%r13, %rsi
	callq	md5_encode
	movabsq	$-6531097540494611031, %rdi # imm = 0xA55CE163E1642DA9
.Ltmp524:
	xorl	%esi, %esi
	callq	_KPrepCall
	callq	_KEnqArgConst
	callq	_KEnqArgConst
	xorl	%esi, %esi
	movl	$208, %edx
	.loc	1 339 3                 # md5.c:339:3
	movq	%r13, %rdi
	callq	md5_memset
	xorl	%esi, %esi
	movq	%r14, %rdi
	callq	_KExitRegion
	.loc	1 340 1                 # md5.c:340:1
	addq	$8, %rsp
	popq	%rbx
.Ltmp525:
	popq	%r12
	popq	%r13
.Ltmp526:
	popq	%r14
	popq	%r15
	popq	%rbp
	retq
.Ltmp527:
.Ltmp528:
	.size	md5_final, .Ltmp528-md5_final
.Lfunc_end4:
	.cfi_endproc

	.globl	md5_encode
	.align	16, 0x90
	.type	md5_encode,@function
md5_encode:                             # @md5_encode
.Lfunc_begin5:
	.loc	1 448 0                 # md5.c:448:0
	.cfi_startproc
# BB#0:                                 # %entry
	pushq	%rbp
.Ltmp529:
	.cfi_def_cfa_offset 16
.Ltmp530:
	.cfi_offset %rbp, -16
	movq	%rsp, %rbp
.Ltmp531:
	.cfi_def_cfa_register %rbp
	pushq	%r15
	pushq	%r14
	pushq	%r13
	pushq	%r12
	pushq	%rbx
	subq	$24, %rsp
.Ltmp532:
	.cfi_offset %rbx, -56
.Ltmp533:
	.cfi_offset %r12, -48
.Ltmp534:
	.cfi_offset %r13, -40
.Ltmp535:
	.cfi_offset %r14, -32
.Ltmp536:
	.cfi_offset %r15, -24
	#DEBUG_VALUE: md5_encode:output <- RDI
	#DEBUG_VALUE: md5_encode:input <- RSI
	#DEBUG_VALUE: md5_encode:len <- EDX
	movl	%edx, %ebx
.Ltmp537:
	#DEBUG_VALUE: md5_encode:len <- EBX
	movq	%rsi, -64(%rbp)         # 8-byte Spill
.Ltmp538:
	#DEBUG_VALUE: md5_encode:input <- [RBP+-64]
	movq	%rdi, %r13
.Ltmp539:
	#DEBUG_VALUE: md5_encode:output <- R13
	movabsq	$-8963820544028364604, %rdi # imm = 0x839A1CB522D730C4
	movabsq	$4492694761983041707, %r14 # imm = 0x3E5942152C41E0AB
	xorl	%r15d, %r15d
	xorl	%esi, %esi
	callq	_KEnterRegion
	movl	$15, %edi
	movl	$2, %esi
	callq	_KPrepRTable
	movl	$1, %edi
	callq	_KDeqArg
.Ltmp540:
	#DEBUG_VALUE: md5_encode:j <- 0
	#DEBUG_VALUE: md5_encode:i <- 0
	.loc	1 453 8 prologue_end    # md5.c:453:8
	movslq	%ebx, %rax
	movq	%rax, -56(%rbp)         # 8-byte Spill
	movl	$4, %edi
	movl	$1, %esi
	xorl	%edx, %edx
	callq	_KTimestamp1
	movl	$14, %edi
	callq	_KInduction
	movl	$1, %esi
	movq	%r14, %rdi
	callq	_KEnterRegion
	movabsq	$-673536660464876120, %r12 # imm = 0xF6A71DF9D1C9C5A8
	xorl	%ebx, %ebx
.Ltmp541:
	xorl	%edx, %edx
	xorl	%r14d, %r14d
	jmp	.LBB5_1
.Ltmp542:
	.align	16, 0x90
.LBB5_2:                                # %for.body
                                        #   in Loop: Header=BB5_1 Depth=1
	#DEBUG_VALUE: md5_encode:output <- R13
	#DEBUG_VALUE: md5_encode:input <- [RBP+-64]
	#DEBUG_VALUE: md5_encode:i <- 0
	#DEBUG_VALUE: md5_encode:j <- 0
	movl	$2, %esi
	movq	%r12, %rdi
	callq	_KEnterRegion
	movl	$5, %edi
	callq	_KPushCDep
	movl	$31, %edi
	callq	_KWork
	movq	%r15, -48(%rbp)         # 8-byte Spill
	movq	-64(%rbp), %r12         # 8-byte Reload
.Ltmp543:
	#DEBUG_VALUE: md5_encode:input <- R12
	movq	-48(%rbp), %rax         # 8-byte Reload
	leaq	(%r12,%rax), %r15
	movl	$2, %esi
	movl	$8, %edx
	movq	%r15, %rdi
	callq	_KLoad0
	.loc	1 454 33                # md5.c:454:33
.Ltmp544:
	movb	(%r12,%r14,2), %bl
	movl	$3, %edi
	movl	$5, %esi
	movl	$1, %edx
	movl	$2, %ecx
	movl	$1, %r8d
	callq	_KTimestamp2
	leaq	(%r13,%r14), %rsi
	movl	$3, %edi
	movl	$1, %edx
	callq	_KStore
	.loc	1 454 5 is_stmt 0       # md5.c:454:5
	movb	%bl, (%r13,%r14)
	movl	$7, %esi
	movl	$8, %edx
	movq	%r15, %rdi
	callq	_KLoad0
	.loc	1 455 36 is_stmt 1      # md5.c:455:36
	movb	1(%r12,%r14,2), %bl
	movl	$8, %edi
	movl	$5, %esi
	movl	$2, %edx
	movl	$7, %ecx
	movl	$2, %r8d
	callq	_KTimestamp2
	leaq	1(%r13,%r14), %rsi
	movl	$8, %edi
	movl	$1, %edx
	callq	_KStore
	.loc	1 455 5 is_stmt 0       # md5.c:455:5
	movb	%bl, 1(%r13,%r14)
	movl	$9, %esi
	movl	$8, %edx
	movq	%r15, %rdi
	callq	_KLoad0
	.loc	1 456 36 is_stmt 1      # md5.c:456:36
	movb	2(%r12,%r14,2), %bl
	movl	$10, %edi
	movl	$9, %esi
	movl	$2, %edx
	movl	$5, %ecx
	movl	$2, %r8d
	callq	_KTimestamp2
	leaq	2(%r13,%r14), %rsi
	movl	$10, %edi
	movl	$1, %edx
	callq	_KStore
	.loc	1 456 5 is_stmt 0       # md5.c:456:5
	movb	%bl, 2(%r13,%r14)
	movl	$11, %esi
	movl	$8, %edx
	movq	%r15, %rdi
	movq	-48(%rbp), %r15         # 8-byte Reload
	callq	_KLoad0
	.loc	1 457 36 is_stmt 1      # md5.c:457:36
	movb	3(%r12,%r14,2), %bl
.Ltmp545:
	#DEBUG_VALUE: md5_encode:input <- [RBP+-64]
	movl	$12, %edi
	movl	$5, %esi
	movl	$2, %edx
	movl	$11, %ecx
	movl	$2, %r8d
	callq	_KTimestamp2
	leaq	3(%r13,%r14), %rsi
	movl	$12, %edi
	movl	$1, %edx
	callq	_KStore
	.loc	1 457 5 is_stmt 0       # md5.c:457:5
	movb	%bl, 3(%r13,%r14)
.Ltmp546:
	.loc	1 453 3 is_stmt 1       # md5.c:453:3
	addq	$4, %r14
	movl	$13, %ebx
	movl	$13, %edi
	movl	$6, %esi
	movl	$1, %edx
	movl	$5, %ecx
	movl	$1, %r8d
	callq	_KTimestamp2
	callq	_KPopCDep
	movl	$2, %esi
	movabsq	$-673536660464876120, %rdi # imm = 0xF6A71DF9D1C9C5A8
	movq	%rdi, %r12
	callq	_KExitRegion
	movl	$5, %edx
	addq	$8, %r15
.Ltmp547:
.LBB5_1:                                # %for.cond
                                        # =>This Inner Loop Header: Depth=1
	#DEBUG_VALUE: md5_encode:output <- R13
	#DEBUG_VALUE: md5_encode:input <- [RBP+-64]
	#DEBUG_VALUE: md5_encode:i <- 0
	#DEBUG_VALUE: md5_encode:j <- 0
	movl	$6, %edi
	movl	%ebx, %esi
                                        # kill: EDX<def> EDX<kill> RDX<kill>
	callq	_KPhi1To1
	movl	$1, %edi
	callq	_KWork
	movl	$5, %edi
	movl	$4, %esi
	movl	$1, %edx
	movl	$6, %ecx
	movl	$1, %r8d
	callq	_KTimestamp2
	movl	$6, %edi
	movl	$5, %esi
	callq	_KPhiAddCond
	movl	$6, %edi
	movl	$6, %esi
	xorl	%edx, %edx
	callq	_KTimestamp1
	.loc	1 453 3 is_stmt 0       # md5.c:453:3
	cmpq	-56(%rbp), %r14         # 8-byte Folded Reload
	jl	.LBB5_2
.Ltmp548:
# BB#3:                                 # %for.cond.pre_exit.for.end
	#DEBUG_VALUE: md5_encode:i <- 0
	#DEBUG_VALUE: md5_encode:j <- 0
	movl	$1, %esi
	movabsq	$4492694761983041707, %rdi # imm = 0x3E5942152C41E0AB
	callq	_KExitRegion
	xorl	%esi, %esi
	movabsq	$-8963820544028364604, %rdi # imm = 0x839A1CB522D730C4
	addq	$24, %rsp
	popq	%rbx
	popq	%r12
	popq	%r13
	popq	%r14
	popq	%r15
	popq	%rbp
	jmp	_KExitRegion            # TAILCALL
.Ltmp549:
	.size	md5_encode, .Ltmp549-md5_encode
.Lfunc_end5:
	.cfi_endproc

	.globl	md5_memset
	.align	16, 0x90
	.type	md5_memset,@function
md5_memset:                             # @md5_memset
.Lfunc_begin6:
	.loc	1 345 0 is_stmt 1       # md5.c:345:0
	.cfi_startproc
# BB#0:                                 # %entry
	pushq	%rbp
.Ltmp550:
	.cfi_def_cfa_offset 16
.Ltmp551:
	.cfi_offset %rbp, -16
	movq	%rsp, %rbp
.Ltmp552:
	.cfi_def_cfa_register %rbp
	pushq	%r15
	pushq	%r14
	pushq	%r13
	pushq	%r12
	pushq	%rbx
	pushq	%rax
.Ltmp553:
	.cfi_offset %rbx, -56
.Ltmp554:
	.cfi_offset %r12, -48
.Ltmp555:
	.cfi_offset %r13, -40
.Ltmp556:
	.cfi_offset %r14, -32
.Ltmp557:
	.cfi_offset %r15, -24
	#DEBUG_VALUE: md5_memset:output <- RDI
	#DEBUG_VALUE: md5_memset:value <- ESI
	#DEBUG_VALUE: md5_memset:len <- EDX
	movl	%edx, %r13d
.Ltmp558:
	#DEBUG_VALUE: md5_memset:len <- R13D
	movl	%esi, %r12d
.Ltmp559:
	#DEBUG_VALUE: md5_memset:value <- R12D
	movq	%rdi, %rbx
.Ltmp560:
	#DEBUG_VALUE: md5_memset:output <- RBX
	movabsq	$-2756940403169520292, %r15 # imm = 0xD9BD614F6A28955C
	movabsq	$6784949024600134573, %rdi # imm = 0x5E28FB308E6C93AD
	xorl	%esi, %esi
	callq	_KEnterRegion
	movl	$6, %edi
	movl	$2, %esi
	callq	_KPrepRTable
	movl	$2, %edi
	callq	_KDeqArg
	movl	$1, %edi
	callq	_KDeqArg
.Ltmp561:
	#DEBUG_VALUE: md5_memset:i <- 0
	movl	$5, %edi
	callq	_KInduction
	movl	$1, %esi
	movq	%r15, %rdi
	callq	_KEnterRegion
	movl	$1, %edi
	callq	_KWork
	movl	$4, %edi
	movl	$2, %esi
	movl	$1, %edx
	movl	$5, %ecx
	movl	$1, %r8d
	callq	_KTimestamp2
	.loc	1 349 3 prologue_end    # md5.c:349:3
.Ltmp562:
	testl	%r13d, %r13d
	je	.LBB6_3
.Ltmp563:
# BB#1:                                 # %for.body.lr.ph
	#DEBUG_VALUE: md5_memset:output <- RBX
	#DEBUG_VALUE: md5_memset:value <- R12D
	#DEBUG_VALUE: md5_memset:len <- R13D
	#DEBUG_VALUE: md5_memset:i <- 0
	movabsq	$7329507832946499814, %r14 # imm = 0x65B7A48A693820E6
.Ltmp564:
	.align	16, 0x90
.LBB6_2:                                # %for.body
                                        # =>This Inner Loop Header: Depth=1
	#DEBUG_VALUE: md5_memset:value <- R12D
	#DEBUG_VALUE: md5_memset:i <- 0
	movl	$2, %esi
	movq	%r14, %rdi
	callq	_KEnterRegion
	movl	$4, %edi
	callq	_KPushCDep
	movl	$1, %edi
	callq	_KWork
	movl	$3, %edi
	movl	$1, %esi
	xorl	%edx, %edx
	movl	$4, %ecx
	xorl	%r8d, %r8d
	callq	_KTimestamp2
	movl	$3, %edi
	movl	$1, %edx
	movq	%rbx, %rsi
	callq	_KStore
	.loc	1 350 5                 # md5.c:350:5
.Ltmp565:
	movb	%r12b, (%rbx)
	callq	_KPopCDep
	movl	$2, %esi
	movq	%r14, %rdi
	callq	_KExitRegion
	movl	$1, %edi
	callq	_KWork
	movl	$4, %edi
	movl	$2, %esi
	movl	$1, %edx
	movl	$5, %ecx
	movl	$1, %r8d
	callq	_KTimestamp2
.Ltmp566:
	.loc	1 349 3                 # md5.c:349:3
	incq	%rbx
	decl	%r13d
	jne	.LBB6_2
.Ltmp567:
.LBB6_3:                                # %for.cond.pre_exit.for.end
	#DEBUG_VALUE: md5_memset:i <- 0
	movl	$1, %esi
	movq	%r15, %rdi
	callq	_KExitRegion
	xorl	%esi, %esi
	movabsq	$6784949024600134573, %rdi # imm = 0x5E28FB308E6C93AD
	addq	$8, %rsp
	popq	%rbx
	popq	%r12
	popq	%r13
	popq	%r14
	popq	%r15
	popq	%rbp
	jmp	_KExitRegion            # TAILCALL
.Ltmp568:
	.size	md5_memset, .Ltmp568-md5_memset
.Lfunc_end6:
	.cfi_endproc

	.globl	md5_decode
	.align	16, 0x90
	.type	md5_decode,@function
md5_decode:                             # @md5_decode
.Lfunc_begin7:
	.loc	1 466 0                 # md5.c:466:0
	.cfi_startproc
# BB#0:                                 # %entry
	pushq	%rbp
.Ltmp569:
	.cfi_def_cfa_offset 16
.Ltmp570:
	.cfi_offset %rbp, -16
	movq	%rsp, %rbp
.Ltmp571:
	.cfi_def_cfa_register %rbp
	pushq	%r15
	pushq	%r14
	pushq	%r13
	pushq	%r12
	pushq	%rbx
	subq	$72, %rsp
.Ltmp572:
	.cfi_offset %rbx, -56
.Ltmp573:
	.cfi_offset %r12, -48
.Ltmp574:
	.cfi_offset %r13, -40
.Ltmp575:
	.cfi_offset %r14, -32
.Ltmp576:
	.cfi_offset %r15, -24
	#DEBUG_VALUE: md5_decode:output <- RDI
	#DEBUG_VALUE: md5_decode:input <- RSI
	#DEBUG_VALUE: md5_decode:len <- EDX
	movl	%edx, -52(%rbp)         # 4-byte Spill
.Ltmp577:
	#DEBUG_VALUE: md5_decode:len <- [RBP+-52]
	movq	%rsi, -72(%rbp)         # 8-byte Spill
.Ltmp578:
	#DEBUG_VALUE: md5_decode:input <- [RBP+-72]
	movq	%rdi, -64(%rbp)         # 8-byte Spill
.Ltmp579:
	#DEBUG_VALUE: md5_decode:output <- [RBP+-64]
	movabsq	$-7228351287026960974, %rbx # imm = 0x9BAFBCCD490535B2
	movabsq	$4188520207687177322, %rdi # imm = 0x3A209CEFE9BD546A
	xorl	%r13d, %r13d
	xorl	%esi, %esi
	callq	_KEnterRegion
	movl	$15, %edi
	movl	$2, %esi
	callq	_KPrepRTable
	movl	$1, %edi
	callq	_KDeqArg
.Ltmp580:
	#DEBUG_VALUE: md5_decode:j <- 0
	#DEBUG_VALUE: md5_decode:i <- 0
	movl	$13, %edi
	callq	_KInduction
	movl	$1, %esi
	movq	%rbx, %rdi
	callq	_KEnterRegion
	movl	$3, %r15d
	movabsq	$-1918757111688802327, %r14 # imm = 0xE55F3492AB88CFE9
	xorl	%r12d, %r12d
	xorl	%edx, %edx
	jmp	.LBB7_1
	.align	16, 0x90
.LBB7_2:                                # %for.body
                                        #   in Loop: Header=BB7_1 Depth=1
	#DEBUG_VALUE: md5_decode:output <- [RBP+-64]
	#DEBUG_VALUE: md5_decode:input <- [RBP+-72]
	#DEBUG_VALUE: md5_decode:len <- [RBP+-52]
	#DEBUG_VALUE: md5_decode:i <- 0
	#DEBUG_VALUE: md5_decode:j <- 0
	movl	$2, %esi
	movq	%r14, %rdi
	callq	_KEnterRegion
	movl	$11, %edi
	callq	_KPushCDep
	movl	$27, %edi
	callq	_KWork
	.loc	1 471 25 prologue_end   # md5.c:471:25
.Ltmp581:
	movl	%ebx, %ebx
	movq	-72(%rbp), %r14         # 8-byte Reload
.Ltmp582:
	#DEBUG_VALUE: md5_decode:input <- R14
	leaq	(%r14,%rbx), %rdi
	movl	$2, %esi
	movl	$3, %edx
	movl	$1, %ecx
	callq	_KLoad1
	.loc	1 471 18 is_stmt 0      # md5.c:471:18
	movzbl	(%r14,%rbx), %r12d
	.loc	1 471 46                # md5.c:471:46
	leal	-2(%r15), %ebx
	leaq	(%r14,%rbx), %rdi
	movl	$4, %esi
	movl	$5, %edx
	movl	$1, %ecx
	callq	_KLoad1
	movq	%r15, -48(%rbp)         # 8-byte Spill
	.loc	1 471 39                # md5.c:471:39
	movzbl	(%r14,%rbx), %r15d
	.loc	1 471 38                # md5.c:471:38
	shlq	$8, %r15
	.loc	1 471 17                # md5.c:471:17
	orq	%r12, %r15
	.loc	1 472 16 is_stmt 1      # md5.c:472:16
	movq	-48(%rbp), %rax         # 8-byte Reload
	leal	-1(%rax), %r12d
	leaq	(%r14,%r12), %rdi
	movl	$6, %esi
	movl	$7, %edx
	movl	$1, %ecx
	callq	_KLoad1
	.loc	1 472 9 is_stmt 0       # md5.c:472:9
	movzbl	(%r14,%r12), %ebx
	.loc	1 472 8                 # md5.c:472:8
	shlq	$16, %rbx
	.loc	1 471 17 is_stmt 1      # md5.c:471:17
	orq	%r15, %rbx
	.loc	1 472 46                # md5.c:472:46
	movq	-48(%rbp), %rax         # 8-byte Reload
	movl	%eax, %r15d
	leaq	(%r14,%r15), %rdi
	movl	$8, %esi
	movl	$9, %edx
	movl	$1, %ecx
	callq	_KLoad1
	.loc	1 472 39 is_stmt 0      # md5.c:472:39
	movzbl	(%r14,%r15), %r15d
.Ltmp583:
	#DEBUG_VALUE: md5_decode:input <- [RBP+-72]
	.loc	1 472 38                # md5.c:472:38
	shlq	$24, %r15
	.loc	1 471 17 is_stmt 1      # md5.c:471:17
	orq	%rbx, %r15
	.loc	1 471 5 is_stmt 0       # md5.c:471:5
	movl	%r13d, %ebx
	movl	%r13d, %r14d
	movq	-64(%rbp), %r13         # 8-byte Reload
.Ltmp584:
	#DEBUG_VALUE: md5_decode:output <- R13
	leaq	(%r13,%rbx,8), %r12
	movl	$2, 32(%rsp)
	movl	$8, 24(%rsp)
	movl	$3, 16(%rsp)
	movl	$6, 8(%rsp)
	movl	$4, (%rsp)
	movl	$10, %edi
	movl	$11, %esi
	movl	$4, %edx
	movl	$2, %ecx
	movl	$3, %r8d
	movl	$4, %r9d
	callq	_KTimestamp5
	movl	$10, %edi
	movl	$8, %edx
	movq	%r12, %rsi
	callq	_KStore
	movq	%r15, (%r13,%rbx,8)
.Ltmp585:
	#DEBUG_VALUE: md5_decode:output <- [RBP+-64]
	movq	-48(%rbp), %r15         # 8-byte Reload
	movl	%r14d, %r13d
.Ltmp586:
	.loc	1 470 31 is_stmt 1      # md5.c:470:31
	incl	%r13d
.Ltmp587:
	#DEBUG_VALUE: md5_decode:i <- R13D
	movl	$14, %r12d
	movl	$14, %edi
	movl	$12, %esi
	movl	$1, %edx
	movl	$11, %ecx
	movl	$1, %r8d
	callq	_KTimestamp2
	callq	_KPopCDep
	movl	$2, %esi
	movabsq	$-1918757111688802327, %rdi # imm = 0xE55F3492AB88CFE9
	movq	%rdi, %r14
	callq	_KExitRegion
	movl	$11, %edx
	addl	$4, %r15d
.Ltmp588:
.LBB7_1:                                # %for.cond
                                        # =>This Inner Loop Header: Depth=1
	#DEBUG_VALUE: md5_decode:output <- [RBP+-64]
	#DEBUG_VALUE: md5_decode:input <- [RBP+-72]
	#DEBUG_VALUE: md5_decode:len <- [RBP+-52]
	#DEBUG_VALUE: md5_decode:i <- 0
	#DEBUG_VALUE: md5_decode:j <- 0
	leal	-3(%r15), %ebx
	movl	$12, %edi
	movl	%r12d, %esi
	callq	_KPhi1To1
	movl	$1, %edi
	callq	_KWork
	movl	$11, %edi
	movl	$1, %esi
	movl	$1, %edx
	movl	$12, %ecx
	movl	$1, %r8d
	callq	_KTimestamp2
	movl	$12, %edi
	movl	$11, %esi
	callq	_KPhiAddCond
	movl	$12, %edi
	movl	$12, %esi
	xorl	%edx, %edx
	callq	_KTimestamp1
	.loc	1 470 3 is_stmt 0       # md5.c:470:3
	cmpl	-52(%rbp), %ebx         # 4-byte Folded Reload
	jb	.LBB7_2
.Ltmp589:
# BB#3:                                 # %for.cond.pre_exit.for.end
	#DEBUG_VALUE: md5_decode:i <- 0
	#DEBUG_VALUE: md5_decode:j <- 0
	movl	$1, %esi
	movabsq	$-7228351287026960974, %rdi # imm = 0x9BAFBCCD490535B2
	callq	_KExitRegion
	xorl	%esi, %esi
	movabsq	$4188520207687177322, %rdi # imm = 0x3A209CEFE9BD546A
	addq	$72, %rsp
	popq	%rbx
	popq	%r12
	popq	%r13
	popq	%r14
	popq	%r15
	popq	%rbp
	jmp	_KExitRegion            # TAILCALL
.Ltmp590:
	.size	md5_decode, .Ltmp590-md5_decode
.Lfunc_end7:
	.cfi_endproc

	.globl	md5_R_memset
	.align	16, 0x90
	.type	md5_R_memset,@function
md5_R_memset:                           # @md5_R_memset
.Lfunc_begin8:
	.loc	1 494 0 is_stmt 1       # md5.c:494:0
	.cfi_startproc
# BB#0:                                 # %entry
	pushq	%rbp
.Ltmp591:
	.cfi_def_cfa_offset 16
.Ltmp592:
	.cfi_offset %rbp, -16
	movq	%rsp, %rbp
.Ltmp593:
	.cfi_def_cfa_register %rbp
	pushq	%r15
	pushq	%r14
	pushq	%r12
	pushq	%rbx
.Ltmp594:
	.cfi_offset %rbx, -48
.Ltmp595:
	.cfi_offset %r12, -40
.Ltmp596:
	.cfi_offset %r14, -32
.Ltmp597:
	.cfi_offset %r15, -24
	#DEBUG_VALUE: md5_R_memset:output <- RDI
	#DEBUG_VALUE: md5_R_memset:value <- ESI
	#DEBUG_VALUE: md5_R_memset:len <- EDX
	movl	%edx, %ebx
.Ltmp598:
	#DEBUG_VALUE: md5_R_memset:len <- EBX
	movl	%esi, %r15d
.Ltmp599:
	#DEBUG_VALUE: md5_R_memset:value <- R15D
	movq	%rdi, %r12
.Ltmp600:
	#DEBUG_VALUE: md5_R_memset:output <- R12
	movabsq	$6793552310716903347, %r14 # imm = 0x5E478BD53350AFB3
	xorl	%esi, %esi
	movq	%r14, %rdi
	callq	_KEnterRegion
	movl	$5, %edi
	xorl	%esi, %esi
	callq	_KPrepRTable
	movl	$1, %edi
	callq	_KWork
	movl	$2, %edi
	callq	_KDeqArg
	movl	$1, %edi
	callq	_KDeqArg
	movl	$4, %edi
	movl	$2, %esi
	movl	$1, %edx
	callq	_KTimestamp1
	.loc	1 495 7 prologue_end    # md5.c:495:7
.Ltmp601:
	testl	%ebx, %ebx
	je	.LBB8_2
.Ltmp602:
# BB#1:                                 # %if.then
	#DEBUG_VALUE: md5_R_memset:output <- R12
	#DEBUG_VALUE: md5_R_memset:value <- R15D
	#DEBUG_VALUE: md5_R_memset:len <- EBX
	movl	$4, %edi
	callq	_KPushCDep
	.loc	1 496 34                # md5.c:496:34
.Ltmp603:
	movl	%ebx, %ebx
.Ltmp604:
	movabsq	$4229251888196258126, %rdi # imm = 0x3AB1522F4D96894E
	xorl	%esi, %esi
	callq	_KPrepCall
	movl	$3, %edi
	movl	$2, %esi
	movl	$1, %edx
	callq	_KTimestamp1
	movl	$3, %edi
	callq	_KEnqArg
	movl	$1, %edi
	movl	$1, %esi
	xorl	%edx, %edx
	callq	_KTimestamp1
	movl	$1, %edi
	callq	_KEnqArg
	.loc	1 496 5 is_stmt 0       # md5.c:496:5
	movq	%r12, %rdi
	movl	%r15d, %esi
	movq	%rbx, %rdx
	callq	md5_memset_x
	callq	_KPopCDep
.Ltmp605:
.LBB8_2:                                # %if.end
	xorl	%esi, %esi
	movq	%r14, %rdi
	popq	%rbx
	popq	%r12
	popq	%r14
	popq	%r15
	popq	%rbp
	jmp	_KExitRegion            # TAILCALL
.Ltmp606:
	.size	md5_R_memset, .Ltmp606-md5_R_memset
.Lfunc_end8:
	.cfi_endproc

	.globl	md5_memset_x
	.align	16, 0x90
	.type	md5_memset_x,@function
md5_memset_x:                           # @md5_memset_x
.Lfunc_begin9:
	.loc	1 502 0 is_stmt 1       # md5.c:502:0
	.cfi_startproc
# BB#0:                                 # %entry
	pushq	%rbp
.Ltmp607:
	.cfi_def_cfa_offset 16
.Ltmp608:
	.cfi_offset %rbp, -16
	movq	%rsp, %rbp
.Ltmp609:
	.cfi_def_cfa_register %rbp
	pushq	%r15
	pushq	%r14
	pushq	%r13
	pushq	%r12
	pushq	%rbx
	subq	$24, %rsp
.Ltmp610:
	.cfi_offset %rbx, -56
.Ltmp611:
	.cfi_offset %r12, -48
.Ltmp612:
	.cfi_offset %r13, -40
.Ltmp613:
	.cfi_offset %r14, -32
.Ltmp614:
	.cfi_offset %r15, -24
	#DEBUG_VALUE: md5_memset_x:ptr <- RDI
	#DEBUG_VALUE: md5_memset_x:value <- ESI
	#DEBUG_VALUE: md5_memset_x:len <- RDX
	movq	%rdx, -48(%rbp)         # 8-byte Spill
.Ltmp615:
	#DEBUG_VALUE: md5_memset_x:len <- [RBP+-48]
	movl	%esi, -52(%rbp)         # 4-byte Spill
.Ltmp616:
	#DEBUG_VALUE: md5_memset_x:value <- [RBP+-52]
	movq	%rdi, %r13
.Ltmp617:
	#DEBUG_VALUE: md5_memset_x:ptr <- R13
	movabsq	$-4209700228100040979, %rbx # imm = 0xC59423F24D3756ED
	movabsq	$4085459685799187793, %rdi # imm = 0x38B277F0443D5551
	xorl	%r15d, %r15d
	xorl	%esi, %esi
	callq	_KEnterRegion
	movl	$2, %r12d
	movl	$10, %edi
	movl	$2, %esi
	callq	_KPrepRTable
	movl	$2, %edi
	callq	_KDeqArg
	movl	$1, %edi
	callq	_KDeqArg
	movl	$8, %r14d
	movl	$8, %edi
	movl	$8, %esi
	xorl	%edx, %edx
	callq	_KTimestamp1
	movl	$2, %edi
	movl	$2, %esi
	xorl	%edx, %edx
	callq	_KTimestamp1
	movl	$1, %esi
	movq	%rbx, %rdi
	callq	_KEnterRegion
	movabsq	$-7934690131464212876, %rbx # imm = 0x91E2515D7F472E74
	jmp	.LBB9_1
.Ltmp618:
	.align	16, 0x90
.LBB9_2:                                # %while.body
                                        #   in Loop: Header=BB9_1 Depth=1
	#DEBUG_VALUE: md5_memset_x:value <- [RBP+-52]
	.loc	1 504 10 prologue_end discriminator 2 # md5.c:504:10
	decq	%rax
.Ltmp619:
	#DEBUG_VALUE: md5_memset_x:len <- RAX
	movq	%rax, -48(%rbp)         # 8-byte Spill
.Ltmp620:
	#DEBUG_VALUE: md5_memset_x:len <- [RBP+-48]
	movl	$2, %esi
	movq	%rbx, %rdi
	callq	_KEnterRegion
	movl	$4, %r15d
	movl	$4, %edi
	callq	_KPushCDep
	movl	$1, %edi
	callq	_KWork
.Ltmp621:
	#DEBUG_VALUE: md5_memset_x:ptr <- R13
	movl	$3, %edi
	movl	$1, %esi
	xorl	%edx, %edx
	movl	$4, %ecx
	xorl	%r8d, %r8d
	callq	_KTimestamp2
	movl	$3, %edi
	movl	$1, %edx
	movq	%r13, %rsi
	callq	_KStore
.Ltmp622:
	.loc	1 505 5                 # md5.c:505:5
	movl	-52(%rbp), %eax         # 4-byte Reload
	movb	%al, (%r13)
	.loc	1 505 6 is_stmt 0       # md5.c:505:6
	leaq	1(%r13), %r13
.Ltmp623:
	movl	$9, %r14d
	movl	$9, %edi
	movl	$7, %esi
	xorl	%edx, %edx
	movl	$4, %ecx
	xorl	%r8d, %r8d
	callq	_KTimestamp2
	callq	_KPopCDep
	movl	$2, %esi
	movq	%rbx, %rdi
	callq	_KExitRegion
	movl	$6, %r12d
.Ltmp624:
.LBB9_1:                                # %while.cond
                                        # =>This Inner Loop Header: Depth=1
	#DEBUG_VALUE: md5_memset_x:value <- [RBP+-52]
	movl	$7, %edi
	movl	%r14d, %esi
	movl	%r15d, %edx
	callq	_KPhi1To1
	movl	$5, %edi
	movl	%r12d, %esi
	movl	%r15d, %edx
	callq	_KPhi1To1
	movl	$2, %edi
	callq	_KWork
	movl	$4, %edi
	movl	$5, %esi
	movl	$1, %edx
	callq	_KTimestamp1
	movl	$6, %edi
	movl	$5, %esi
	movl	$1, %edx
	callq	_KTimestamp1
	movl	$7, %edi
	movl	$4, %esi
	callq	_KPhiAddCond
	movl	$7, %edi
	movl	$7, %esi
	xorl	%edx, %edx
	callq	_KTimestamp1
	movl	$5, %edi
	movl	$4, %esi
	callq	_KPhiAddCond
	movq	-48(%rbp), %rax         # 8-byte Reload
	.loc	1 504 3 is_stmt 1       # md5.c:504:3
	testq	%rax, %rax
	jne	.LBB9_2
.Ltmp625:
# BB#3:                                 # %while.cond.pre_exit.while.end
	movl	$1, %esi
	movabsq	$-4209700228100040979, %rdi # imm = 0xC59423F24D3756ED
	callq	_KExitRegion
	xorl	%esi, %esi
	movabsq	$4085459685799187793, %rdi # imm = 0x38B277F0443D5551
	addq	$24, %rsp
	popq	%rbx
	popq	%r12
	popq	%r13
	popq	%r14
	popq	%r15
	popq	%rbp
	jmp	_KExitRegion            # TAILCALL
.Ltmp626:
	.size	md5_memset_x, .Ltmp626-md5_memset_x
.Lfunc_end9:
	.cfi_endproc

	.globl	md5_R_RandomInit
	.align	16, 0x90
	.type	md5_R_RandomInit,@function
md5_R_RandomInit:                       # @md5_R_RandomInit
.Lfunc_begin10:
	.loc	1 514 0                 # md5.c:514:0
	.cfi_startproc
# BB#0:                                 # %entry
	pushq	%rbp
.Ltmp627:
	.cfi_def_cfa_offset 16
.Ltmp628:
	.cfi_offset %rbp, -16
	movq	%rsp, %rbp
.Ltmp629:
	.cfi_def_cfa_register %rbp
	pushq	%r15
	pushq	%r14
	pushq	%rbx
	pushq	%rax
.Ltmp630:
	.cfi_offset %rbx, -40
.Ltmp631:
	.cfi_offset %r14, -32
.Ltmp632:
	.cfi_offset %r15, -24
	#DEBUG_VALUE: md5_R_RandomInit:randomStruct <- RDI
	movq	%rdi, %rbx
.Ltmp633:
	#DEBUG_VALUE: md5_R_RandomInit:randomStruct <- RBX
	movabsq	$-355487805337941898, %r14 # imm = 0xFB110DB978D94876
	xorl	%esi, %esi
	movq	%r14, %rdi
	callq	_KEnterRegion
	movl	$1, %edi
	xorl	%esi, %esi
	callq	_KPrepRTable
	movl	$2, %edi
	callq	_KWork
	movl	$4, %esi
	movq	%rbx, %rdi
	callq	_KStoreConst
	.loc	1 515 3 prologue_end    # md5.c:515:3
.Ltmp634:
	movl	$256, (%rbx)            # imm = 0x100
	.loc	1 516 26                # md5.c:516:26
	leaq	4(%rbx), %r15
	movabsq	$-2590044586714101951, %rdi # imm = 0xDC0E502BC87B8741
	xorl	%esi, %esi
	callq	_KPrepCall
	callq	_KEnqArgConst
	callq	_KEnqArgConst
	xorl	%esi, %esi
	movl	$16, %edx
	.loc	1 516 3 is_stmt 0       # md5.c:516:3
	movq	%r15, %rdi
	callq	md5_R_memset
	.loc	1 517 3 is_stmt 1       # md5.c:517:3
	leaq	20(%rbx), %rdi
	movl	$4, %esi
	callq	_KStoreConst
	movl	$0, 20(%rbx)
	callq	_KReturnConst
	xorl	%esi, %esi
	movq	%r14, %rdi
	callq	_KExitRegion
	xorl	%eax, %eax
	.loc	1 519 3                 # md5.c:519:3
	addq	$8, %rsp
	popq	%rbx
.Ltmp635:
	popq	%r14
	popq	%r15
	popq	%rbp
	retq
.Ltmp636:
.Ltmp637:
	.size	md5_R_RandomInit, .Ltmp637-md5_R_RandomInit
.Lfunc_end10:
	.cfi_endproc

	.globl	md5_R_RandomUpdate
	.align	16, 0x90
	.type	md5_R_RandomUpdate,@function
md5_R_RandomUpdate:                     # @md5_R_RandomUpdate
.Lfunc_begin11:
	.loc	1 526 0                 # md5.c:526:0
	.cfi_startproc
# BB#0:                                 # %entry
	pushq	%rbp
.Ltmp638:
	.cfi_def_cfa_offset 16
.Ltmp639:
	.cfi_offset %rbp, -16
	movq	%rsp, %rbp
.Ltmp640:
	.cfi_def_cfa_register %rbp
	pushq	%r15
	pushq	%r14
	pushq	%r13
	pushq	%r12
	pushq	%rbx
	subq	$344, %rsp              # imm = 0x158
.Ltmp641:
	.cfi_offset %rbx, -56
.Ltmp642:
	.cfi_offset %r12, -48
.Ltmp643:
	.cfi_offset %r13, -40
.Ltmp644:
	.cfi_offset %r14, -32
.Ltmp645:
	.cfi_offset %r15, -24
	#DEBUG_VALUE: md5_R_RandomUpdate:randomStruct <- RDI
	#DEBUG_VALUE: md5_R_RandomUpdate:block <- RSI
	#DEBUG_VALUE: md5_R_RandomUpdate:blockLen <- EDX
	movl	%edx, %r15d
.Ltmp646:
	#DEBUG_VALUE: md5_R_RandomUpdate:blockLen <- R15D
	movl	%r15d, -348(%rbp)       # 4-byte Spill
	movq	%rsi, %rbx
.Ltmp647:
	#DEBUG_VALUE: md5_R_RandomUpdate:block <- RBX
	movq	%rdi, -344(%rbp)        # 8-byte Spill
.Ltmp648:
	#DEBUG_VALUE: md5_R_RandomUpdate:randomStruct <- [RBP+-344]
	movabsq	$2035605774836478177, %rdi # imm = 0x1C3FECAAC7DCB0E1
	movabsq	$132511424922967792, %r13 # imm = 0x1D6C6705B36DEF0
	xorl	%r12d, %r12d
	xorl	%esi, %esi
	callq	_KEnterRegion
	movl	$15, %edi
	movl	$2, %esi
	callq	_KPrepRTable
	movl	$1, %edi
	callq	_KDeqArg
	movabsq	$6181812182197719975, %rdi # imm = 0x55CA356D5413D3A7
	xorl	%esi, %esi
	callq	_KPrepCall
	leaq	-248(%rbp), %r14
.Ltmp649:
	#DEBUG_VALUE: md5_R_RandomUpdate:context <- [R14+0]
	.loc	1 531 3 prologue_end    # md5.c:531:3
	movq	%r14, %rdi
	callq	md5_orig_init
	movl	$1, %edi
	movl	$1, %esi
	xorl	%edx, %edx
	callq	_KTimestamp1
	movabsq	$8175982979543675684, %rdi # imm = 0x7176ED33A1573324
	xorl	%esi, %esi
	callq	_KPrepCall
	movl	$1, %edi
	callq	_KEnqArg
	.loc	1 532 3                 # md5.c:532:3
	movq	%r14, %rdi
	movq	%rbx, %rsi
.Ltmp650:
	#DEBUG_VALUE: md5_R_RandomUpdate:block <- RSI
	movl	%r15d, %edx
.Ltmp651:
	#DEBUG_VALUE: md5_R_RandomUpdate:blockLen <- [RBP+-348]
	callq	md5_update
	movabsq	$2271530592368575111, %rdi # imm = 0x1F861909E68FC287
	xorl	%esi, %esi
.Ltmp652:
	callq	_KPrepCall
	leaq	-320(%rbp), %rdi
	.loc	1 533 3                 # md5.c:533:3
	movq	%r14, %rsi
	callq	md5_final
.Ltmp653:
	#DEBUG_VALUE: md5_R_RandomUpdate:i <- 0
	#DEBUG_VALUE: md5_R_RandomUpdate:x <- 0
	movl	$9, %edi
	callq	_KInduction
	movl	$1, %esi
	movq	%r13, %rdi
	callq	_KEnterRegion
	movl	$15, %ebx
	movabsq	$5545031199683313444, %r13 # imm = 0x4CF3E87F4D94FF24
	xorl	%edx, %edx
	xorl	%eax, %eax
	movq	%rax, -328(%rbp)        # 8-byte Spill
	movq	-344(%rbp), %r15        # 8-byte Reload
	jmp	.LBB11_1
.Ltmp654:
	.align	16, 0x90
.LBB11_2:                               # %for.body
                                        #   in Loop: Header=BB11_1 Depth=1
	#DEBUG_VALUE: md5_R_RandomUpdate:randomStruct <- [RBP+-344]
	#DEBUG_VALUE: md5_R_RandomUpdate:blockLen <- [RBP+-348]
	#DEBUG_VALUE: md5_R_RandomUpdate:x <- 0
	#DEBUG_VALUE: md5_R_RandomUpdate:i <- 0
	movl	$2, %esi
	movq	%r13, %rdi
	callq	_KEnterRegion
	movl	$8, %edi
	callq	_KPushCDep
	movl	$15, %edi
	callq	_KWork
	.loc	1 540 10                # md5.c:540:10
.Ltmp655:
	movl	%ebx, %r12d
	movq	%rbx, -336(%rbp)        # 8-byte Spill
.Ltmp656:
	#DEBUG_VALUE: md5_R_RandomUpdate:randomStruct <- R15
	leaq	4(%r15,%r12), %rbx
	movl	$2, %esi
	movl	$3, %edx
	movl	$1, %ecx
	movq	%rbx, %rdi
	callq	_KLoad1
	movzbl	4(%r15,%r12), %r14d
	.loc	1 540 38 is_stmt 0      # md5.c:540:38
	leaq	-320(%rbp,%r12), %rdi
	movl	$4, %esi
	movl	$5, %edx
	movl	$1, %ecx
	callq	_KLoad1
	movzbl	-320(%rbp,%r12), %eax
	.loc	1 540 10                # md5.c:540:10
	movq	-328(%rbp), %rcx        # 8-byte Reload
	addl	%ecx, %r14d
	.loc	1 540 5                 # md5.c:540:5
	addl	%eax, %r14d
.Ltmp657:
	#DEBUG_VALUE: md5_R_RandomUpdate:x <- R14D
	movl	$2, 16(%rsp)
	movl	$4, 8(%rsp)
	movl	$2, (%rsp)
	movl	$6, %edi
	movl	$7, %esi
	movl	$1, %edx
	movl	$8, %ecx
	movl	$2, %r8d
	movl	$2, %r9d
	callq	_KTimestamp4
	movl	$6, %edi
	movl	$1, %edx
	movq	%rbx, %rsi
	callq	_KStore
	.loc	1 541 5 is_stmt 1       # md5.c:541:5
	movb	%r14b, 4(%r15,%r12)
.Ltmp658:
	#DEBUG_VALUE: md5_R_RandomUpdate:randomStruct <- [RBP+-344]
	movq	-336(%rbp), %rbx        # 8-byte Reload
	.loc	1 542 5                 # md5.c:542:5
	shrl	$8, %r14d
.Ltmp659:
	movl	$3, 16(%rsp)
	movl	$4, 8(%rsp)
	movl	$3, (%rsp)
	movl	$13, %r12d
	movl	$13, %edi
	movl	$7, %esi
	movl	$2, %edx
	movl	$8, %ecx
	movl	$3, %r8d
	movl	$2, %r9d
	callq	_KTimestamp4
	callq	_KPopCDep
	movl	$2, %esi
	movq	%r13, %rdi
	callq	_KExitRegion
	movl	$8, %edx
	decq	%rbx
	movl	%r14d, %eax
.Ltmp660:
	#DEBUG_VALUE: md5_R_RandomUpdate:x <- [RBP+-328]
	movq	%rax, -328(%rbp)        # 8-byte Spill
.Ltmp661:
.LBB11_1:                               # %for.cond
                                        # =>This Inner Loop Header: Depth=1
	#DEBUG_VALUE: md5_R_RandomUpdate:randomStruct <- [RBP+-344]
	#DEBUG_VALUE: md5_R_RandomUpdate:blockLen <- [RBP+-348]
	#DEBUG_VALUE: md5_R_RandomUpdate:x <- 0
	#DEBUG_VALUE: md5_R_RandomUpdate:i <- 0
	movl	$7, %edi
	movl	%r12d, %esi
                                        # kill: EDX<def> EDX<kill> RDX<kill>
	callq	_KPhi1To1
	movl	$1, %edi
	callq	_KWork
	movl	$7, %edi
	movl	$7, %esi
	xorl	%edx, %edx
	callq	_KTimestamp1
	movl	$8, %edi
	movl	$9, %esi
	movl	$1, %edx
	callq	_KTimestamp1
	movl	$7, %edi
	movl	$8, %esi
	callq	_KPhiAddCond
	.loc	1 539 3                 # md5.c:539:3
	cmpq	$-1, %rbx
	jne	.LBB11_2
.Ltmp662:
# BB#3:                                 # %for.cond.pre_exit.for.end
	#DEBUG_VALUE: md5_R_RandomUpdate:randomStruct <- [RBP+-344]
	#DEBUG_VALUE: md5_R_RandomUpdate:blockLen <- [RBP+-348]
	#DEBUG_VALUE: md5_R_RandomUpdate:x <- 0
	#DEBUG_VALUE: md5_R_RandomUpdate:i <- 0
	movl	$1, %esi
	movabsq	$132511424922967792, %rdi # imm = 0x1D6C6705B36DEF0
	callq	_KExitRegion
	movl	$5, %edi
	callq	_KWork
	movl	$10, %esi
	movl	$4, %edx
	movq	-344(%rbp), %rbx        # 8-byte Reload
.Ltmp663:
	#DEBUG_VALUE: md5_R_RandomUpdate:randomStruct <- RBX
	movq	%rbx, %rdi
	callq	_KLoad0
	.loc	1 545 7                 # md5.c:545:7
.Ltmp664:
	movl	(%rbx), %r14d
	movl	$14, %edi
	movl	$1, %esi
	movl	$1, %edx
	movl	$10, %ecx
	movl	$1, %r8d
	callq	_KTimestamp2
	movl	$14, %edi
	callq	_KPushCDep
	movl	-348(%rbp), %r15d       # 4-byte Reload
.Ltmp665:
	#DEBUG_VALUE: md5_R_RandomUpdate:blockLen <- R15D
	.loc	1 545 7 is_stmt 0       # md5.c:545:7
	cmpl	%r15d, %r14d
	jae	.LBB11_5
.Ltmp666:
# BB#4:                                 # %if.then
	#DEBUG_VALUE: md5_R_RandomUpdate:randomStruct <- RBX
	#DEBUG_VALUE: md5_R_RandomUpdate:x <- 0
	#DEBUG_VALUE: md5_R_RandomUpdate:i <- 0
	movl	$1, %edi
	callq	_KWork
	movl	$4, %esi
	movq	%rbx, %rdi
	callq	_KStoreConst
	.loc	1 546 5 is_stmt 1       # md5.c:546:5
.Ltmp667:
	movl	$0, (%rbx)
	jmp	.LBB11_6
.Ltmp668:
.LBB11_5:                               # %if.else
	#DEBUG_VALUE: md5_R_RandomUpdate:randomStruct <- RBX
	#DEBUG_VALUE: md5_R_RandomUpdate:blockLen <- R15D
	#DEBUG_VALUE: md5_R_RandomUpdate:x <- 0
	#DEBUG_VALUE: md5_R_RandomUpdate:i <- 0
	movl	$6, %edi
	callq	_KWork
	movl	$11, %esi
	movl	$4, %edx
	movq	%rbx, %rdi
	callq	_KLoad0
	.loc	1 548 5                 # md5.c:548:5
	movl	(%rbx), %r14d
	subl	%r15d, %r14d
	movl	$1, (%rsp)
	movl	$12, %edi
	movl	$1, %esi
	movl	$2, %edx
	movl	$10, %ecx
	movl	$2, %r8d
	movl	$11, %r9d
	callq	_KTimestamp3
	movl	$12, %edi
	movl	$4, %edx
	movq	%rbx, %rsi
	callq	_KStore
	movl	%r14d, (%rbx)
.Ltmp669:
.LBB11_6:                               # %if.end
	callq	_KPopCDep
	#DEBUG_VALUE: md5_R_RandomUpdate:x <- 0
	#DEBUG_VALUE: md5_R_RandomUpdate:i <- 0
	movabsq	$1130541759550145728, %rdi # imm = 0xFB07DBD8DBB44C0
	xorl	%esi, %esi
	callq	_KPrepCall
	callq	_KEnqArgConst
	callq	_KEnqArgConst
	leaq	-320(%rbp), %rdi
	xorl	%esi, %esi
	movl	$64, %edx
	.loc	1 552 3                 # md5.c:552:3
	callq	md5_R_memset
	callq	_KReturnConst
	xorl	%esi, %esi
	movabsq	$2035605774836478177, %rdi # imm = 0x1C3FECAAC7DCB0E1
	callq	_KExitRegion
	xorl	%eax, %eax
	.loc	1 555 3                 # md5.c:555:3
	addq	$344, %rsp              # imm = 0x158
	popq	%rbx
	popq	%r12
	popq	%r13
	popq	%r14
	popq	%r15
	popq	%rbp
	retq
.Ltmp670:
.Ltmp671:
	.size	md5_R_RandomUpdate, .Ltmp671-md5_R_RandomUpdate
.Lfunc_end11:
	.cfi_endproc

	.globl	md5_InitRandomStruct
	.align	16, 0x90
	.type	md5_InitRandomStruct,@function
md5_InitRandomStruct:                   # @md5_InitRandomStruct
.Lfunc_begin12:
	.loc	1 565 0                 # md5.c:565:0
	.cfi_startproc
# BB#0:                                 # %entry
	pushq	%rbp
.Ltmp672:
	.cfi_def_cfa_offset 16
.Ltmp673:
	.cfi_offset %rbp, -16
	movq	%rsp, %rbp
.Ltmp674:
	.cfi_def_cfa_register %rbp
	pushq	%r15
	pushq	%r14
	pushq	%r13
	pushq	%r12
	pushq	%rbx
	pushq	%rax
.Ltmp675:
	.cfi_offset %rbx, -56
.Ltmp676:
	.cfi_offset %r12, -48
.Ltmp677:
	.cfi_offset %r13, -40
.Ltmp678:
	.cfi_offset %r14, -32
.Ltmp679:
	.cfi_offset %r15, -24
	#DEBUG_VALUE: md5_InitRandomStruct:randomStruct <- RDI
	movq	%rdi, %r15
.Ltmp680:
	#DEBUG_VALUE: md5_InitRandomStruct:randomStruct <- R15
	movabsq	$2948782061592994937, %rdi # imm = 0x28EC2DA9654B6479
	movabsq	$623080928523069886, %rbx # imm = 0x8A5A0CDA2F029BE
	xorl	%esi, %esi
	callq	_KEnterRegion
	movl	$6, %edi
	movl	$2, %esi
	callq	_KPrepRTable
	movabsq	$-8745854208046445327, %rdi # imm = 0x86A07BEF70094CF1
	xorl	%esi, %esi
	callq	_KPrepCall
	movl	$1, %edi
	callq	_KLinkReturn
	.loc	1 569 3 prologue_end    # md5.c:569:3
.Ltmp681:
	movq	%r15, %rdi
	callq	md5_R_RandomInit
	movl	$1, %esi
	movq	%rbx, %rdi
	callq	_KEnterRegion
	movabsq	$3427208121567250671, %r12 # imm = 0x2F8FE3A0E15988EF
	leaq	-44(%rbp), %r14
	movabsq	$6151180206867886174, %r13 # imm = 0x555D61CECBC6305E
	jmp	.LBB12_1
.Ltmp682:
	.align	16, 0x90
.LBB12_2:                               # %if.end
                                        #   in Loop: Header=BB12_1 Depth=1
	#DEBUG_VALUE: md5_InitRandomStruct:randomStruct <- R15
	#DEBUG_VALUE: md5_InitRandomStruct:bytesNeeded <- [R14+0]
	movl	$2, %esi
	movq	%r13, %rdi
	callq	_KEnterRegion
	movl	$5, %edi
	callq	_KPushCDep
	xorl	%esi, %esi
	movabsq	$-7523980597100601354, %rdi # imm = 0x97957382BCE31FF6
	callq	_KPrepCall
	callq	_KEnqArgConst
	movl	$4, %edi
	callq	_KLinkReturn
	.loc	1 580 5                 # md5.c:580:5
.Ltmp683:
	movl	$md5_InitRandomStruct.seedByte, %esi
	movl	$1, %edx
	movq	%r15, %rdi
	callq	md5_R_RandomUpdate
	callq	_KPopCDep
	movl	$2, %esi
	movq	%r13, %rdi
	callq	_KExitRegion
.Ltmp684:
.LBB12_1:                               # %while.body
                                        # =>This Inner Loop Header: Depth=1
	#DEBUG_VALUE: md5_InitRandomStruct:randomStruct <- R15
	xorl	%esi, %esi
	movabsq	$-8935522838934951794, %rdi # imm = 0x83FEA55206E4688E
	callq	_KPrepCall
	movl	$2, %edi
	callq	_KLinkReturn
	movl	$5, %edi
	callq	_KWork
	xorl	%esi, %esi
	movq	%r12, %rbx
	.loc	1 576 5                 # md5.c:576:5
	movq	%rbx, %rdi
	callq	_KEnterRegion
	movl	$2, %edi
	xorl	%esi, %esi
	callq	_KPrepRTable
	movl	$5, %edi
	callq	_KWork
.Ltmp685:
	#DEBUG_VALUE: md5_R_GetRandomBytesNeeded:randomStruct <- R15
	movl	$1, %esi
	movl	$4, %edx
	movq	%r15, %rdi
	callq	_KLoad0
	.loc	1 588 18                # md5.c:588:18
.Ltmp686:
	movl	(%r15), %r12d
	movl	$1, %edi
	movl	$1, %esi
	xorl	%edx, %edx
.Ltmp687:
	.loc	1 576 5                 # md5.c:576:5
	callq	_KTimestamp1
.Ltmp688:
	#DEBUG_VALUE: md5_R_GetRandomBytesNeeded:bytesNeeded <- [R14+0]
	#DEBUG_VALUE: md5_InitRandomStruct:bytesNeeded <- [R14+0]
	movl	$1, %edi
	movl	$4, %edx
	movq	%r14, %rsi
	callq	_KStore
	.loc	1 588 3                 # md5.c:588:3
.Ltmp689:
	movl	%r12d, -44(%rbp)
.Ltmp690:
	.loc	1 576 5                 # md5.c:576:5
	callq	_KReturnConst
	xorl	%esi, %esi
	movq	%rbx, %rdi
	movq	%rbx, %r12
	callq	_KExitRegion
	movl	$3, %esi
	movl	$4, %edx
	movq	%r14, %rdi
	callq	_KLoad0
	.loc	1 577 9                 # md5.c:577:9
.Ltmp691:
	movl	-44(%rbp), %ebx
	movl	$5, %edi
	movl	$3, %esi
	movl	$1, %edx
	callq	_KTimestamp1
	cmpl	$0, %ebx
	jne	.LBB12_2
.Ltmp692:
# BB#3:                                 # %while.body.pre_exit.while.end
	movl	$1, %esi
	movabsq	$623080928523069886, %rdi # imm = 0x8A5A0CDA2F029BE
	callq	_KExitRegion
	xorl	%esi, %esi
	movabsq	$2948782061592994937, %rdi # imm = 0x28EC2DA9654B6479
	callq	_KExitRegion
	.loc	1 582 1                 # md5.c:582:1
	addq	$8, %rsp
	popq	%rbx
	popq	%r12
	popq	%r13
	popq	%r14
	popq	%r15
	popq	%rbp
	retq
.Ltmp693:
.Ltmp694:
	.size	md5_InitRandomStruct, .Ltmp694-md5_InitRandomStruct
.Lfunc_end12:
	.cfi_endproc

	.globl	md5_R_GetRandomBytesNeeded
	.align	16, 0x90
	.type	md5_R_GetRandomBytesNeeded,@function
md5_R_GetRandomBytesNeeded:             # @md5_R_GetRandomBytesNeeded
.Lfunc_begin13:
	.loc	1 587 0                 # md5.c:587:0
	.cfi_startproc
# BB#0:                                 # %entry
	pushq	%rbp
.Ltmp695:
	.cfi_def_cfa_offset 16
.Ltmp696:
	.cfi_offset %rbp, -16
	movq	%rsp, %rbp
.Ltmp697:
	.cfi_def_cfa_register %rbp
	pushq	%r15
	pushq	%r14
	pushq	%rbx
	pushq	%rax
.Ltmp698:
	.cfi_offset %rbx, -40
.Ltmp699:
	.cfi_offset %r14, -32
.Ltmp700:
	.cfi_offset %r15, -24
	#DEBUG_VALUE: md5_R_GetRandomBytesNeeded:bytesNeeded <- RDI
	#DEBUG_VALUE: md5_R_GetRandomBytesNeeded:randomStruct <- RSI
	movq	%rsi, %rbx
.Ltmp701:
	#DEBUG_VALUE: md5_R_GetRandomBytesNeeded:randomStruct <- RBX
	movq	%rdi, %r15
.Ltmp702:
	#DEBUG_VALUE: md5_R_GetRandomBytesNeeded:bytesNeeded <- R15
	movabsq	$3427208121567250671, %r14 # imm = 0x2F8FE3A0E15988EF
	xorl	%esi, %esi
	movq	%r14, %rdi
	callq	_KEnterRegion
	movl	$2, %edi
	xorl	%esi, %esi
	callq	_KPrepRTable
	movl	$5, %edi
	callq	_KWork
	movl	$1, %esi
	movl	$4, %edx
	movq	%rbx, %rdi
	callq	_KLoad0
	.loc	1 588 18 prologue_end   # md5.c:588:18
.Ltmp703:
	movl	(%rbx), %ebx
.Ltmp704:
	movl	$1, %edi
	movl	$1, %esi
	xorl	%edx, %edx
	callq	_KTimestamp1
	movl	$1, %edi
	movl	$4, %edx
	movq	%r15, %rsi
	callq	_KStore
	.loc	1 588 3 is_stmt 0       # md5.c:588:3
	movl	%ebx, (%r15)
	callq	_KReturnConst
	xorl	%esi, %esi
	movq	%r14, %rdi
	callq	_KExitRegion
	xorl	%eax, %eax
	.loc	1 590 3 is_stmt 1       # md5.c:590:3
	addq	$8, %rsp
	popq	%rbx
	popq	%r14
	popq	%r15
.Ltmp705:
	popq	%rbp
	retq
.Ltmp706:
.Ltmp707:
	.size	md5_R_GetRandomBytesNeeded, .Ltmp707-md5_R_GetRandomBytesNeeded
.Lfunc_end13:
	.cfi_endproc

	.globl	md5_init
	.align	16, 0x90
	.type	md5_init,@function
md5_init:                               # @md5_init
	.cfi_startproc
# BB#0:                                 # %entry
	pushq	%rbp
.Ltmp708:
	.cfi_def_cfa_offset 16
.Ltmp709:
	.cfi_offset %rbp, -16
	movq	%rsp, %rbp
.Ltmp710:
	.cfi_def_cfa_register %rbp
	pushq	%rbx
	pushq	%rax
.Ltmp711:
	.cfi_offset %rbx, -24
	movabsq	$3457401059527656561, %rbx # imm = 0x2FFB27F20F348471
	xorl	%esi, %esi
	movq	%rbx, %rdi
	callq	_KEnterRegion
	movl	$1, %edi
	xorl	%esi, %esi
	callq	_KPrepRTable
	xorl	%esi, %esi
	movq	%rbx, %rdi
	addq	$8, %rsp
	popq	%rbx
	popq	%rbp
	jmp	_KExitRegion            # TAILCALL
.Ltmp712:
	.size	md5_init, .Ltmp712-md5_init
	.cfi_endproc

	.globl	md5_main
	.align	16, 0x90
	.type	md5_main,@function
md5_main:                               # @md5_main
.Lfunc_begin15:
	.loc	1 599 0                 # md5.c:599:0
	.cfi_startproc
# BB#0:                                 # %entry
	pushq	%rbp
.Ltmp713:
	.cfi_def_cfa_offset 16
.Ltmp714:
	.cfi_offset %rbp, -16
	movq	%rsp, %rbp
.Ltmp715:
	.cfi_def_cfa_register %rbp
	pushq	%r15
	pushq	%r14
	pushq	%r13
	pushq	%r12
	pushq	%rbx
	subq	$88, %rsp
.Ltmp716:
	.cfi_offset %rbx, -56
.Ltmp717:
	.cfi_offset %r12, -48
.Ltmp718:
	.cfi_offset %r13, -40
.Ltmp719:
	.cfi_offset %r14, -32
.Ltmp720:
	.cfi_offset %r15, -24
	movabsq	$2882699441150737605, %rdi # imm = 0x280167DE5801BCC5
	movabsq	$1284329848220601280, %r15 # imm = 0x11D2DB31399ECBC0
	xorl	%esi, %esi
	callq	_KEnterRegion
	movl	$6, %edi
	movl	$2, %esi
	callq	_KPrepRTable
.Ltmp721:
	#DEBUG_VALUE: md5_main:keys_exchanged <- 0
	movabsq	$4094132030712590101, %rdi # imm = 0x38D14763EA2C2F15
	xorl	%esi, %esi
	callq	_KPrepCall
	leaq	-80(%rbp), %rdi
.Ltmp722:
	#DEBUG_VALUE: md5_main:randomStruct <- [RDI+0]
	.loc	1 605 3 prologue_end    # md5.c:605:3
	callq	md5_InitRandomStruct
	movl	$4, %edi
.Ltmp723:
	callq	_KInduction
	movl	$1, %esi
	movq	%r15, %rdi
	callq	_KEnterRegion
	movl	$1, %edi
	callq	_KWork
	movl	$5, %edi
	movl	$4, %esi
	movl	$1, %edx
	callq	_KTimestamp1
	movl	$10, %r14d
	movabsq	$-4192667243803211030, %rbx # imm = 0xC5D0A75AFFB18AEA
	movabsq	$6051244529006462697, %r12 # imm = 0x53FA56D69874C6E9
	leaq	-120(%rbp), %r13
	.align	16, 0x90
.LBB15_1:                               # %while.body
                                        # =>This Inner Loop Header: Depth=1
	#DEBUG_VALUE: md5_main:keys_exchanged <- 0
	movl	$2, %esi
	movq	%rbx, %rdi
	callq	_KEnterRegion
	movl	$5, %edi
	callq	_KPushCDep
	xorl	%esi, %esi
	movq	%r12, %rdi
	callq	_KPrepCall
.Ltmp724:
	#DEBUG_VALUE: md5_main:randomStruct2 <- [R13+0]
	.loc	1 610 7                 # md5.c:610:7
	movq	%r13, %rdi
	callq	md5_InitRandomStruct
	callq	_KPopCDep
	movl	$2, %esi
	movq	%rbx, %rdi
	callq	_KExitRegion
	movl	$1, %edi
	callq	_KWork
	movl	$5, %edi
	movl	$4, %esi
	movl	$1, %edx
	callq	_KTimestamp1
.Ltmp725:
	.loc	1 608 3                 # md5.c:608:3
	decl	%r14d
	jne	.LBB15_1
.Ltmp726:
# BB#2:                                 # %while.cond.pre_exit.while.end
	#DEBUG_VALUE: md5_main:keys_exchanged <- 0
	movl	$1, %esi
	movq	%r15, %rdi
	callq	_KExitRegion
	movl	$9, %edi
	callq	_KWork
	leaq	-80(%rbp), %rdi
	movl	$1, %esi
	movl	$4, %edx
	callq	_KLoad0
	.loc	1 613 13                # md5.c:613:13
	movl	-80(%rbp), %ebx
	leaq	-120(%rbp), %rdi
	movl	$2, %esi
	movl	$4, %edx
	callq	_KLoad0
	addl	-120(%rbp), %ebx
.Ltmp727:
	#DEBUG_VALUE: md5_main:ret <- EBX
	movl	$3, %edi
	movl	$1, %esi
	movl	$1, %edx
	movl	$2, %ecx
	movl	$1, %r8d
	callq	_KTimestamp2
	movl	$3, %edi
	callq	_KReturn
	xorl	%esi, %esi
	movabsq	$2882699441150737605, %rdi # imm = 0x280167DE5801BCC5
	callq	_KExitRegion
	.loc	1 615 3                 # md5.c:615:3
	movl	%ebx, %eax
	addq	$88, %rsp
	popq	%rbx
.Ltmp728:
	popq	%r12
	popq	%r13
	popq	%r14
	popq	%r15
	popq	%rbp
	retq
.Ltmp729:
.Ltmp730:
	.size	md5_main, .Ltmp730-md5_main
.Lfunc_end15:
	.cfi_endproc

	.globl	__main
	.align	16, 0x90
	.type	__main,@function
__main:                                 # @__main
.Lfunc_begin16:
	.loc	1 619 0                 # md5.c:619:0
	.cfi_startproc
# BB#0:                                 # %entry
	pushq	%rbp
.Ltmp731:
	.cfi_def_cfa_offset 16
.Ltmp732:
	.cfi_offset %rbp, -16
	movq	%rsp, %rbp
.Ltmp733:
	.cfi_def_cfa_register %rbp
	pushq	%r14
	pushq	%rbx
.Ltmp734:
	.cfi_offset %rbx, -32
.Ltmp735:
	.cfi_offset %r14, -24
	callq	_KInit
	movabsq	$-3677947425469889523, %r14 # imm = 0xCCF54E4D9A4E040D
	xorl	%esi, %esi
	movq	%r14, %rdi
	callq	_KEnterRegion
	movl	$2, %edi
	xorl	%esi, %esi
	callq	_KPrepRTable
	movabsq	$-4081686841725174735, %rdi # imm = 0xC75AEF717295BC31
	xorl	%esi, %esi
	callq	_KPrepCall
	movabsq	$3457401059527656561, %rbx # imm = 0x2FFB27F20F348471
	xorl	%esi, %esi
	.loc	1 620 3 prologue_end    # md5.c:620:3
.Ltmp736:
	movq	%rbx, %rdi
	callq	_KEnterRegion
	movl	$1, %edi
	xorl	%esi, %esi
	callq	_KPrepRTable
	xorl	%esi, %esi
	movq	%rbx, %rdi
	callq	_KExitRegion
	movabsq	$658361694206043359, %rdi # imm = 0x922F87904E024DF
	xorl	%esi, %esi
	callq	_KPrepCall
	movl	$1, %edi
	callq	_KLinkReturn
	.loc	1 621 13                # md5.c:621:13
	callq	md5_main
	movl	%eax, %ebx
.Ltmp737:
	#DEBUG_VALUE: main:ret <- EBX
	movl	$1, %edi
	movl	$1, %esi
	xorl	%edx, %edx
	callq	_KTimestamp1
	movl	$1, %edi
	callq	_KReturn
	xorl	%esi, %esi
	movq	%r14, %rdi
	callq	_KExitRegion
	callq	_KDeinit
	.loc	1 623 3                 # md5.c:623:3
	movl	%ebx, %eax
	popq	%rbx
.Ltmp738:
	popq	%r14
	popq	%rbp
	retq
.Ltmp739:
.Ltmp740:
	.size	__main, .Ltmp740-__main
.Lfunc_end16:
	.cfi_endproc

	.type	md5_PADDING,@object     # @md5_PADDING
	.data
	.globl	md5_PADDING
	.align	16
md5_PADDING:
	.asciz	"\200\000\000\000\000\000\000\000\000\000\000\000\000\000\000\000\000\000\000\000\000\000\000\000\000\000\000\000\000\000\000\000\000\000\000\000\000\000\000\000\000\000\000\000\000\000\000\000\000\000\000\000\000\000\000\000\000\000\000\000\000\000\000"
	.size	md5_PADDING, 64

	.type	md5_InitRandomStruct.seedByte,@object # @md5_InitRandomStruct.seedByte
	.local	md5_InitRandomStruct.seedByte
	.comm	md5_InitRandomStruct.seedByte,1,1
	.type	krem_prefix4f1912d8bc6b4aec_krem_callsiteId_krem_md5.c_krem_md5_update_krem_295_krem_295_krem_,@object # @krem_prefix4f1912d8bc6b4aec_krem_callsiteId_krem_md5.c_krem_md5_update_krem_295_krem_295_krem_
	.bss
	.globl	krem_prefix4f1912d8bc6b4aec_krem_callsiteId_krem_md5.c_krem_md5_update_krem_295_krem_295_krem_
krem_prefix4f1912d8bc6b4aec_krem_callsiteId_krem_md5.c_krem_md5_update_krem_295_krem_295_krem_:
	.byte	0                       # 0x0
	.size	krem_prefix4f1912d8bc6b4aec_krem_callsiteId_krem_md5.c_krem_md5_update_krem_295_krem_295_krem_, 1

	.type	krem_prefix301b6cc7dd803a27_krem_callsiteId_krem_md5.c_krem_md5_update_krem_296_krem_296_krem_,@object # @krem_prefix301b6cc7dd803a27_krem_callsiteId_krem_md5.c_krem_md5_update_krem_296_krem_296_krem_
	.globl	krem_prefix301b6cc7dd803a27_krem_callsiteId_krem_md5.c_krem_md5_update_krem_296_krem_296_krem_
krem_prefix301b6cc7dd803a27_krem_callsiteId_krem_md5.c_krem_md5_update_krem_296_krem_296_krem_:
	.byte	0                       # 0x0
	.size	krem_prefix301b6cc7dd803a27_krem_callsiteId_krem_md5.c_krem_md5_update_krem_296_krem_296_krem_, 1

	.type	krem_prefixeaa6c684d433c8b8_krem_callsiteId_krem_md5.c_krem_md5_update_krem_300_krem_300_krem_,@object # @krem_prefixeaa6c684d433c8b8_krem_callsiteId_krem_md5.c_krem_md5_update_krem_300_krem_300_krem_
	.globl	krem_prefixeaa6c684d433c8b8_krem_callsiteId_krem_md5.c_krem_md5_update_krem_300_krem_300_krem_
krem_prefixeaa6c684d433c8b8_krem_callsiteId_krem_md5.c_krem_md5_update_krem_300_krem_300_krem_:
	.byte	0                       # 0x0
	.size	krem_prefixeaa6c684d433c8b8_krem_callsiteId_krem_md5.c_krem_md5_update_krem_300_krem_300_krem_, 1

	.type	krem_prefix4b5cab1ecee6f86a_krem_callsiteId_krem_md5.c_krem_md5_update_krem_309_krem_309_krem_,@object # @krem_prefix4b5cab1ecee6f86a_krem_callsiteId_krem_md5.c_krem_md5_update_krem_309_krem_309_krem_
	.globl	krem_prefix4b5cab1ecee6f86a_krem_callsiteId_krem_md5.c_krem_md5_update_krem_309_krem_309_krem_
krem_prefix4b5cab1ecee6f86a_krem_callsiteId_krem_md5.c_krem_md5_update_krem_309_krem_309_krem_:
	.byte	0                       # 0x0
	.size	krem_prefix4b5cab1ecee6f86a_krem_callsiteId_krem_md5.c_krem_md5_update_krem_309_krem_309_krem_, 1

	.type	krem_prefix2ce72a3c6ef9a170_krem_callsiteId_krem_md5.c_krem_md5_transform_krem_360_krem_360_krem_,@object # @krem_prefix2ce72a3c6ef9a170_krem_callsiteId_krem_md5.c_krem_md5_transform_krem_360_krem_360_krem_
	.globl	krem_prefix2ce72a3c6ef9a170_krem_callsiteId_krem_md5.c_krem_md5_transform_krem_360_krem_360_krem_
krem_prefix2ce72a3c6ef9a170_krem_callsiteId_krem_md5.c_krem_md5_transform_krem_360_krem_360_krem_:
	.byte	0                       # 0x0
	.size	krem_prefix2ce72a3c6ef9a170_krem_callsiteId_krem_md5.c_krem_md5_transform_krem_360_krem_360_krem_, 1

	.type	krem_prefixcc4589e035805494_krem_callsiteId_krem_md5.c_krem_md5_transform_krem_441_krem_441_krem_,@object # @krem_prefixcc4589e035805494_krem_callsiteId_krem_md5.c_krem_md5_transform_krem_441_krem_441_krem_
	.globl	krem_prefixcc4589e035805494_krem_callsiteId_krem_md5.c_krem_md5_transform_krem_441_krem_441_krem_
krem_prefixcc4589e035805494_krem_callsiteId_krem_md5.c_krem_md5_transform_krem_441_krem_441_krem_:
	.byte	0                       # 0x0
	.size	krem_prefixcc4589e035805494_krem_callsiteId_krem_md5.c_krem_md5_transform_krem_441_krem_441_krem_, 1

	.type	krem_prefix9bbcaeb4f8cef3a4_krem_callsiteId_krem_md5.c_krem_md5_final_krem_323_krem_323_krem_,@object # @krem_prefix9bbcaeb4f8cef3a4_krem_callsiteId_krem_md5.c_krem_md5_final_krem_323_krem_323_krem_
	.globl	krem_prefix9bbcaeb4f8cef3a4_krem_callsiteId_krem_md5.c_krem_md5_final_krem_323_krem_323_krem_
krem_prefix9bbcaeb4f8cef3a4_krem_callsiteId_krem_md5.c_krem_md5_final_krem_323_krem_323_krem_:
	.byte	0                       # 0x0
	.size	krem_prefix9bbcaeb4f8cef3a4_krem_callsiteId_krem_md5.c_krem_md5_final_krem_323_krem_323_krem_, 1

	.type	krem_prefix296f60fae6bfa57e_krem_callsiteId_krem_md5.c_krem_md5_final_krem_329_krem_329_krem_,@object # @krem_prefix296f60fae6bfa57e_krem_callsiteId_krem_md5.c_krem_md5_final_krem_329_krem_329_krem_
	.globl	krem_prefix296f60fae6bfa57e_krem_callsiteId_krem_md5.c_krem_md5_final_krem_329_krem_329_krem_
krem_prefix296f60fae6bfa57e_krem_callsiteId_krem_md5.c_krem_md5_final_krem_329_krem_329_krem_:
	.byte	0                       # 0x0
	.size	krem_prefix296f60fae6bfa57e_krem_callsiteId_krem_md5.c_krem_md5_final_krem_329_krem_329_krem_, 1

	.type	krem_prefix67bdb99324d9eee5_krem_callsiteId_krem_md5.c_krem_md5_final_krem_332_krem_332_krem_,@object # @krem_prefix67bdb99324d9eee5_krem_callsiteId_krem_md5.c_krem_md5_final_krem_332_krem_332_krem_
	.globl	krem_prefix67bdb99324d9eee5_krem_callsiteId_krem_md5.c_krem_md5_final_krem_332_krem_332_krem_
krem_prefix67bdb99324d9eee5_krem_callsiteId_krem_md5.c_krem_md5_final_krem_332_krem_332_krem_:
	.byte	0                       # 0x0
	.size	krem_prefix67bdb99324d9eee5_krem_callsiteId_krem_md5.c_krem_md5_final_krem_332_krem_332_krem_, 1

	.type	krem_prefix618a5c5087592040_krem_callsiteId_krem_md5.c_krem_md5_final_krem_335_krem_335_krem_,@object # @krem_prefix618a5c5087592040_krem_callsiteId_krem_md5.c_krem_md5_final_krem_335_krem_335_krem_
	.globl	krem_prefix618a5c5087592040_krem_callsiteId_krem_md5.c_krem_md5_final_krem_335_krem_335_krem_
krem_prefix618a5c5087592040_krem_callsiteId_krem_md5.c_krem_md5_final_krem_335_krem_335_krem_:
	.byte	0                       # 0x0
	.size	krem_prefix618a5c5087592040_krem_callsiteId_krem_md5.c_krem_md5_final_krem_335_krem_335_krem_, 1

	.type	krem_prefixa55ce163e1642da9_krem_callsiteId_krem_md5.c_krem_md5_final_krem_339_krem_339_krem_,@object # @krem_prefixa55ce163e1642da9_krem_callsiteId_krem_md5.c_krem_md5_final_krem_339_krem_339_krem_
	.globl	krem_prefixa55ce163e1642da9_krem_callsiteId_krem_md5.c_krem_md5_final_krem_339_krem_339_krem_
krem_prefixa55ce163e1642da9_krem_callsiteId_krem_md5.c_krem_md5_final_krem_339_krem_339_krem_:
	.byte	0                       # 0x0
	.size	krem_prefixa55ce163e1642da9_krem_callsiteId_krem_md5.c_krem_md5_final_krem_339_krem_339_krem_, 1

	.type	krem_prefix3ab1522f4d96894e_krem_callsiteId_krem_md5.c_krem_md5_R_memset_krem_496_krem_496_krem_,@object # @krem_prefix3ab1522f4d96894e_krem_callsiteId_krem_md5.c_krem_md5_R_memset_krem_496_krem_496_krem_
	.globl	krem_prefix3ab1522f4d96894e_krem_callsiteId_krem_md5.c_krem_md5_R_memset_krem_496_krem_496_krem_
krem_prefix3ab1522f4d96894e_krem_callsiteId_krem_md5.c_krem_md5_R_memset_krem_496_krem_496_krem_:
	.byte	0                       # 0x0
	.size	krem_prefix3ab1522f4d96894e_krem_callsiteId_krem_md5.c_krem_md5_R_memset_krem_496_krem_496_krem_, 1

	.type	krem_prefixdc0e502bc87b8741_krem_callsiteId_krem_md5.c_krem_md5_R_RandomInit_krem_516_krem_516_krem_,@object # @krem_prefixdc0e502bc87b8741_krem_callsiteId_krem_md5.c_krem_md5_R_RandomInit_krem_516_krem_516_krem_
	.globl	krem_prefixdc0e502bc87b8741_krem_callsiteId_krem_md5.c_krem_md5_R_RandomInit_krem_516_krem_516_krem_
krem_prefixdc0e502bc87b8741_krem_callsiteId_krem_md5.c_krem_md5_R_RandomInit_krem_516_krem_516_krem_:
	.byte	0                       # 0x0
	.size	krem_prefixdc0e502bc87b8741_krem_callsiteId_krem_md5.c_krem_md5_R_RandomInit_krem_516_krem_516_krem_, 1

	.type	krem_prefix55ca356d5413d3a7_krem_callsiteId_krem_md5.c_krem_md5_R_RandomUpdate_krem_531_krem_531_krem_,@object # @krem_prefix55ca356d5413d3a7_krem_callsiteId_krem_md5.c_krem_md5_R_RandomUpdate_krem_531_krem_531_krem_
	.globl	krem_prefix55ca356d5413d3a7_krem_callsiteId_krem_md5.c_krem_md5_R_RandomUpdate_krem_531_krem_531_krem_
krem_prefix55ca356d5413d3a7_krem_callsiteId_krem_md5.c_krem_md5_R_RandomUpdate_krem_531_krem_531_krem_:
	.byte	0                       # 0x0
	.size	krem_prefix55ca356d5413d3a7_krem_callsiteId_krem_md5.c_krem_md5_R_RandomUpdate_krem_531_krem_531_krem_, 1

	.type	krem_prefix7176ed33a1573324_krem_callsiteId_krem_md5.c_krem_md5_R_RandomUpdate_krem_532_krem_532_krem_,@object # @krem_prefix7176ed33a1573324_krem_callsiteId_krem_md5.c_krem_md5_R_RandomUpdate_krem_532_krem_532_krem_
	.globl	krem_prefix7176ed33a1573324_krem_callsiteId_krem_md5.c_krem_md5_R_RandomUpdate_krem_532_krem_532_krem_
krem_prefix7176ed33a1573324_krem_callsiteId_krem_md5.c_krem_md5_R_RandomUpdate_krem_532_krem_532_krem_:
	.byte	0                       # 0x0
	.size	krem_prefix7176ed33a1573324_krem_callsiteId_krem_md5.c_krem_md5_R_RandomUpdate_krem_532_krem_532_krem_, 1

	.type	krem_prefix1f861909e68fc287_krem_callsiteId_krem_md5.c_krem_md5_R_RandomUpdate_krem_533_krem_533_krem_,@object # @krem_prefix1f861909e68fc287_krem_callsiteId_krem_md5.c_krem_md5_R_RandomUpdate_krem_533_krem_533_krem_
	.globl	krem_prefix1f861909e68fc287_krem_callsiteId_krem_md5.c_krem_md5_R_RandomUpdate_krem_533_krem_533_krem_
krem_prefix1f861909e68fc287_krem_callsiteId_krem_md5.c_krem_md5_R_RandomUpdate_krem_533_krem_533_krem_:
	.byte	0                       # 0x0
	.size	krem_prefix1f861909e68fc287_krem_callsiteId_krem_md5.c_krem_md5_R_RandomUpdate_krem_533_krem_533_krem_, 1

	.type	krem_prefix0fb07dbd8dbb44c0_krem_callsiteId_krem_md5.c_krem_md5_R_RandomUpdate_krem_552_krem_552_krem_,@object # @krem_prefix0fb07dbd8dbb44c0_krem_callsiteId_krem_md5.c_krem_md5_R_RandomUpdate_krem_552_krem_552_krem_
	.globl	krem_prefix0fb07dbd8dbb44c0_krem_callsiteId_krem_md5.c_krem_md5_R_RandomUpdate_krem_552_krem_552_krem_
krem_prefix0fb07dbd8dbb44c0_krem_callsiteId_krem_md5.c_krem_md5_R_RandomUpdate_krem_552_krem_552_krem_:
	.byte	0                       # 0x0
	.size	krem_prefix0fb07dbd8dbb44c0_krem_callsiteId_krem_md5.c_krem_md5_R_RandomUpdate_krem_552_krem_552_krem_, 1

	.type	krem_prefix86a07bef70094cf1_krem_callsiteId_krem_md5.c_krem_md5_InitRandomStruct_krem_569_krem_569_krem_,@object # @krem_prefix86a07bef70094cf1_krem_callsiteId_krem_md5.c_krem_md5_InitRandomStruct_krem_569_krem_569_krem_
	.globl	krem_prefix86a07bef70094cf1_krem_callsiteId_krem_md5.c_krem_md5_InitRandomStruct_krem_569_krem_569_krem_
krem_prefix86a07bef70094cf1_krem_callsiteId_krem_md5.c_krem_md5_InitRandomStruct_krem_569_krem_569_krem_:
	.byte	0                       # 0x0
	.size	krem_prefix86a07bef70094cf1_krem_callsiteId_krem_md5.c_krem_md5_InitRandomStruct_krem_569_krem_569_krem_, 1

	.type	krem_prefix83fea55206e4688e_krem_callsiteId_krem_md5.c_krem_md5_InitRandomStruct_krem_576_krem_576_krem_,@object # @krem_prefix83fea55206e4688e_krem_callsiteId_krem_md5.c_krem_md5_InitRandomStruct_krem_576_krem_576_krem_
	.globl	krem_prefix83fea55206e4688e_krem_callsiteId_krem_md5.c_krem_md5_InitRandomStruct_krem_576_krem_576_krem_
krem_prefix83fea55206e4688e_krem_callsiteId_krem_md5.c_krem_md5_InitRandomStruct_krem_576_krem_576_krem_:
	.byte	0                       # 0x0
	.size	krem_prefix83fea55206e4688e_krem_callsiteId_krem_md5.c_krem_md5_InitRandomStruct_krem_576_krem_576_krem_, 1

	.type	krem_prefix97957382bce31ff6_krem_callsiteId_krem_md5.c_krem_md5_InitRandomStruct_krem_580_krem_580_krem_,@object # @krem_prefix97957382bce31ff6_krem_callsiteId_krem_md5.c_krem_md5_InitRandomStruct_krem_580_krem_580_krem_
	.globl	krem_prefix97957382bce31ff6_krem_callsiteId_krem_md5.c_krem_md5_InitRandomStruct_krem_580_krem_580_krem_
krem_prefix97957382bce31ff6_krem_callsiteId_krem_md5.c_krem_md5_InitRandomStruct_krem_580_krem_580_krem_:
	.byte	0                       # 0x0
	.size	krem_prefix97957382bce31ff6_krem_callsiteId_krem_md5.c_krem_md5_InitRandomStruct_krem_580_krem_580_krem_, 1

	.type	krem_prefix38d14763ea2c2f15_krem_callsiteId_krem_md5.c_krem_md5_main_krem_605_krem_605_krem_,@object # @krem_prefix38d14763ea2c2f15_krem_callsiteId_krem_md5.c_krem_md5_main_krem_605_krem_605_krem_
	.globl	krem_prefix38d14763ea2c2f15_krem_callsiteId_krem_md5.c_krem_md5_main_krem_605_krem_605_krem_
krem_prefix38d14763ea2c2f15_krem_callsiteId_krem_md5.c_krem_md5_main_krem_605_krem_605_krem_:
	.byte	0                       # 0x0
	.size	krem_prefix38d14763ea2c2f15_krem_callsiteId_krem_md5.c_krem_md5_main_krem_605_krem_605_krem_, 1

	.type	krem_prefix53fa56d69874c6e9_krem_callsiteId_krem_md5.c_krem_md5_main_krem_610_krem_610_krem_,@object # @krem_prefix53fa56d69874c6e9_krem_callsiteId_krem_md5.c_krem_md5_main_krem_610_krem_610_krem_
	.globl	krem_prefix53fa56d69874c6e9_krem_callsiteId_krem_md5.c_krem_md5_main_krem_610_krem_610_krem_
krem_prefix53fa56d69874c6e9_krem_callsiteId_krem_md5.c_krem_md5_main_krem_610_krem_610_krem_:
	.byte	0                       # 0x0
	.size	krem_prefix53fa56d69874c6e9_krem_callsiteId_krem_md5.c_krem_md5_main_krem_610_krem_610_krem_, 1

	.type	krem_prefixc75aef717295bc31_krem_callsiteId_krem_md5.c_krem_main_krem_620_krem_620_krem_,@object # @krem_prefixc75aef717295bc31_krem_callsiteId_krem_md5.c_krem_main_krem_620_krem_620_krem_
	.globl	krem_prefixc75aef717295bc31_krem_callsiteId_krem_md5.c_krem_main_krem_620_krem_620_krem_
krem_prefixc75aef717295bc31_krem_callsiteId_krem_md5.c_krem_main_krem_620_krem_620_krem_:
	.byte	0                       # 0x0
	.size	krem_prefixc75aef717295bc31_krem_callsiteId_krem_md5.c_krem_main_krem_620_krem_620_krem_, 1

	.type	krem_prefix0922f87904e024df_krem_callsiteId_krem_md5.c_krem_main_krem_621_krem_621_krem_,@object # @krem_prefix0922f87904e024df_krem_callsiteId_krem_md5.c_krem_main_krem_621_krem_621_krem_
	.globl	krem_prefix0922f87904e024df_krem_callsiteId_krem_md5.c_krem_main_krem_621_krem_621_krem_
krem_prefix0922f87904e024df_krem_callsiteId_krem_md5.c_krem_main_krem_621_krem_621_krem_:
	.byte	0                       # 0x0
	.size	krem_prefix0922f87904e024df_krem_callsiteId_krem_md5.c_krem_main_krem_621_krem_621_krem_, 1

	.type	krem_prefix01d6c6705b36def0_krem_loop_krem_md5.c_krem_md5_R_RandomUpdate_krem_529_krem_542_krem_,@object # @krem_prefix01d6c6705b36def0_krem_loop_krem_md5.c_krem_md5_R_RandomUpdate_krem_529_krem_542_krem_
	.globl	krem_prefix01d6c6705b36def0_krem_loop_krem_md5.c_krem_md5_R_RandomUpdate_krem_529_krem_542_krem_
krem_prefix01d6c6705b36def0_krem_loop_krem_md5.c_krem_md5_R_RandomUpdate_krem_529_krem_542_krem_:
	.byte	0                       # 0x0
	.size	krem_prefix01d6c6705b36def0_krem_loop_krem_md5.c_krem_md5_R_RandomUpdate_krem_529_krem_542_krem_, 1

	.type	krem_prefix08a5a0cda2f029be_krem_loop_krem_md5.c_krem_md5_InitRandomStruct_krem_575_krem_580_krem_,@object # @krem_prefix08a5a0cda2f029be_krem_loop_krem_md5.c_krem_md5_InitRandomStruct_krem_575_krem_580_krem_
	.globl	krem_prefix08a5a0cda2f029be_krem_loop_krem_md5.c_krem_md5_InitRandomStruct_krem_575_krem_580_krem_
krem_prefix08a5a0cda2f029be_krem_loop_krem_md5.c_krem_md5_InitRandomStruct_krem_575_krem_580_krem_:
	.byte	0                       # 0x0
	.size	krem_prefix08a5a0cda2f029be_krem_loop_krem_md5.c_krem_md5_InitRandomStruct_krem_575_krem_580_krem_, 1

	.type	krem_prefix11d2db31399ecbc0_krem_loop_krem_md5.c_krem_md5_main_krem_603_krem_610_krem_,@object # @krem_prefix11d2db31399ecbc0_krem_loop_krem_md5.c_krem_md5_main_krem_603_krem_610_krem_
	.globl	krem_prefix11d2db31399ecbc0_krem_loop_krem_md5.c_krem_md5_main_krem_603_krem_610_krem_
krem_prefix11d2db31399ecbc0_krem_loop_krem_md5.c_krem_md5_main_krem_603_krem_610_krem_:
	.byte	0                       # 0x0
	.size	krem_prefix11d2db31399ecbc0_krem_loop_krem_md5.c_krem_md5_main_krem_603_krem_610_krem_, 1

	.type	krem_prefix1c3fecaac7dcb0e1_krem_func_krem_md5.c_krem_md5_R_RandomUpdate_krem_522_krem_522_krem_,@object # @krem_prefix1c3fecaac7dcb0e1_krem_func_krem_md5.c_krem_md5_R_RandomUpdate_krem_522_krem_522_krem_
	.globl	krem_prefix1c3fecaac7dcb0e1_krem_func_krem_md5.c_krem_md5_R_RandomUpdate_krem_522_krem_522_krem_
krem_prefix1c3fecaac7dcb0e1_krem_func_krem_md5.c_krem_md5_R_RandomUpdate_krem_522_krem_522_krem_:
	.byte	0                       # 0x0
	.size	krem_prefix1c3fecaac7dcb0e1_krem_func_krem_md5.c_krem_md5_R_RandomUpdate_krem_522_krem_522_krem_, 1

	.type	krem_prefix280167de5801bcc5_krem_func_krem_md5.c_krem_md5_main_krem_598_krem_598_krem_,@object # @krem_prefix280167de5801bcc5_krem_func_krem_md5.c_krem_md5_main_krem_598_krem_598_krem_
	.globl	krem_prefix280167de5801bcc5_krem_func_krem_md5.c_krem_md5_main_krem_598_krem_598_krem_
krem_prefix280167de5801bcc5_krem_func_krem_md5.c_krem_md5_main_krem_598_krem_598_krem_:
	.byte	0                       # 0x0
	.size	krem_prefix280167de5801bcc5_krem_func_krem_md5.c_krem_md5_main_krem_598_krem_598_krem_, 1

	.type	krem_prefix28ec2da9654b6479_krem_func_krem_md5.c_krem_md5_InitRandomStruct_krem_564_krem_564_krem_,@object # @krem_prefix28ec2da9654b6479_krem_func_krem_md5.c_krem_md5_InitRandomStruct_krem_564_krem_564_krem_
	.globl	krem_prefix28ec2da9654b6479_krem_func_krem_md5.c_krem_md5_InitRandomStruct_krem_564_krem_564_krem_
krem_prefix28ec2da9654b6479_krem_func_krem_md5.c_krem_md5_InitRandomStruct_krem_564_krem_564_krem_:
	.byte	0                       # 0x0
	.size	krem_prefix28ec2da9654b6479_krem_func_krem_md5.c_krem_md5_InitRandomStruct_krem_564_krem_564_krem_, 1

	.type	krem_prefix2f8fe3a0e15988ef_krem_func_krem_md5.c_krem_md5_R_GetRandomBytesNeeded_krem_584_krem_584_krem_,@object # @krem_prefix2f8fe3a0e15988ef_krem_func_krem_md5.c_krem_md5_R_GetRandomBytesNeeded_krem_584_krem_584_krem_
	.globl	krem_prefix2f8fe3a0e15988ef_krem_func_krem_md5.c_krem_md5_R_GetRandomBytesNeeded_krem_584_krem_584_krem_
krem_prefix2f8fe3a0e15988ef_krem_func_krem_md5.c_krem_md5_R_GetRandomBytesNeeded_krem_584_krem_584_krem_:
	.byte	0                       # 0x0
	.size	krem_prefix2f8fe3a0e15988ef_krem_func_krem_md5.c_krem_md5_R_GetRandomBytesNeeded_krem_584_krem_584_krem_, 1

	.type	krem_prefix2ffb27f20f348471_krem_func_krem_md5.c_krem_md5_init_krem_593_krem_593_krem_,@object # @krem_prefix2ffb27f20f348471_krem_func_krem_md5.c_krem_md5_init_krem_593_krem_593_krem_
	.globl	krem_prefix2ffb27f20f348471_krem_func_krem_md5.c_krem_md5_init_krem_593_krem_593_krem_
krem_prefix2ffb27f20f348471_krem_func_krem_md5.c_krem_md5_init_krem_593_krem_593_krem_:
	.byte	0                       # 0x0
	.size	krem_prefix2ffb27f20f348471_krem_func_krem_md5.c_krem_md5_init_krem_593_krem_593_krem_, 1

	.type	krem_prefix35f14a6dbf88a632_krem_func_krem_md5.c_krem_md5_transform_krem_356_krem_356_krem_,@object # @krem_prefix35f14a6dbf88a632_krem_func_krem_md5.c_krem_md5_transform_krem_356_krem_356_krem_
	.globl	krem_prefix35f14a6dbf88a632_krem_func_krem_md5.c_krem_md5_transform_krem_356_krem_356_krem_
krem_prefix35f14a6dbf88a632_krem_func_krem_md5.c_krem_md5_transform_krem_356_krem_356_krem_:
	.byte	0                       # 0x0
	.size	krem_prefix35f14a6dbf88a632_krem_func_krem_md5.c_krem_md5_transform_krem_356_krem_356_krem_, 1

	.type	krem_prefix38b277f0443d5551_krem_func_krem_md5.c_krem_md5_memset_x_krem_501_krem_501_krem_,@object # @krem_prefix38b277f0443d5551_krem_func_krem_md5.c_krem_md5_memset_x_krem_501_krem_501_krem_
	.globl	krem_prefix38b277f0443d5551_krem_func_krem_md5.c_krem_md5_memset_x_krem_501_krem_501_krem_
krem_prefix38b277f0443d5551_krem_func_krem_md5.c_krem_md5_memset_x_krem_501_krem_501_krem_:
	.byte	0                       # 0x0
	.size	krem_prefix38b277f0443d5551_krem_func_krem_md5.c_krem_md5_memset_x_krem_501_krem_501_krem_, 1

	.type	krem_prefix3a209cefe9bd546a_krem_func_krem_md5.c_krem_md5_decode_krem_465_krem_465_krem_,@object # @krem_prefix3a209cefe9bd546a_krem_func_krem_md5.c_krem_md5_decode_krem_465_krem_465_krem_
	.globl	krem_prefix3a209cefe9bd546a_krem_func_krem_md5.c_krem_md5_decode_krem_465_krem_465_krem_
krem_prefix3a209cefe9bd546a_krem_func_krem_md5.c_krem_md5_decode_krem_465_krem_465_krem_:
	.byte	0                       # 0x0
	.size	krem_prefix3a209cefe9bd546a_krem_func_krem_md5.c_krem_md5_decode_krem_465_krem_465_krem_, 1

	.type	krem_prefix3e5942152c41e0ab_krem_loop_krem_md5.c_krem_md5_encode_krem_449_krem_457_krem_,@object # @krem_prefix3e5942152c41e0ab_krem_loop_krem_md5.c_krem_md5_encode_krem_449_krem_457_krem_
	.globl	krem_prefix3e5942152c41e0ab_krem_loop_krem_md5.c_krem_md5_encode_krem_449_krem_457_krem_
krem_prefix3e5942152c41e0ab_krem_loop_krem_md5.c_krem_md5_encode_krem_449_krem_457_krem_:
	.byte	0                       # 0x0
	.size	krem_prefix3e5942152c41e0ab_krem_loop_krem_md5.c_krem_md5_encode_krem_449_krem_457_krem_, 1

	.type	krem_prefix44ef61bcd62c4511_krem_loop_krem_md5.c_krem_md5_update_krem_279_krem_300_krem_,@object # @krem_prefix44ef61bcd62c4511_krem_loop_krem_md5.c_krem_md5_update_krem_279_krem_300_krem_
	.globl	krem_prefix44ef61bcd62c4511_krem_loop_krem_md5.c_krem_md5_update_krem_279_krem_300_krem_
krem_prefix44ef61bcd62c4511_krem_loop_krem_md5.c_krem_md5_update_krem_279_krem_300_krem_:
	.byte	0                       # 0x0
	.size	krem_prefix44ef61bcd62c4511_krem_loop_krem_md5.c_krem_md5_update_krem_279_krem_300_krem_, 1

	.type	krem_prefix4cf3e87f4d94ff24_krem_loop_body_krem_md5.c_krem_md5_R_RandomUpdate_krem_529_krem_542_krem_,@object # @krem_prefix4cf3e87f4d94ff24_krem_loop_body_krem_md5.c_krem_md5_R_RandomUpdate_krem_529_krem_542_krem_
	.globl	krem_prefix4cf3e87f4d94ff24_krem_loop_body_krem_md5.c_krem_md5_R_RandomUpdate_krem_529_krem_542_krem_
krem_prefix4cf3e87f4d94ff24_krem_loop_body_krem_md5.c_krem_md5_R_RandomUpdate_krem_529_krem_542_krem_:
	.byte	0                       # 0x0
	.size	krem_prefix4cf3e87f4d94ff24_krem_loop_body_krem_md5.c_krem_md5_R_RandomUpdate_krem_529_krem_542_krem_, 1

	.type	krem_prefix4f7f2f6821c05a0a_krem_loop_krem_md5.c_krem_md5_memcpy_krem_480_krem_484_krem_,@object # @krem_prefix4f7f2f6821c05a0a_krem_loop_krem_md5.c_krem_md5_memcpy_krem_480_krem_484_krem_
	.globl	krem_prefix4f7f2f6821c05a0a_krem_loop_krem_md5.c_krem_md5_memcpy_krem_480_krem_484_krem_
krem_prefix4f7f2f6821c05a0a_krem_loop_krem_md5.c_krem_md5_memcpy_krem_480_krem_484_krem_:
	.byte	0                       # 0x0
	.size	krem_prefix4f7f2f6821c05a0a_krem_loop_krem_md5.c_krem_md5_memcpy_krem_480_krem_484_krem_, 1

	.type	krem_prefix555d61cecbc6305e_krem_loop_body_krem_md5.c_krem_md5_InitRandomStruct_krem_575_krem_580_krem_,@object # @krem_prefix555d61cecbc6305e_krem_loop_body_krem_md5.c_krem_md5_InitRandomStruct_krem_575_krem_580_krem_
	.globl	krem_prefix555d61cecbc6305e_krem_loop_body_krem_md5.c_krem_md5_InitRandomStruct_krem_575_krem_580_krem_
krem_prefix555d61cecbc6305e_krem_loop_body_krem_md5.c_krem_md5_InitRandomStruct_krem_575_krem_580_krem_:
	.byte	0                       # 0x0
	.size	krem_prefix555d61cecbc6305e_krem_loop_body_krem_md5.c_krem_md5_InitRandomStruct_krem_575_krem_580_krem_, 1

	.type	krem_prefix5d3b9c6030af0618_krem_func_krem_md5.c_krem_md5_update_krem_274_krem_274_krem_,@object # @krem_prefix5d3b9c6030af0618_krem_func_krem_md5.c_krem_md5_update_krem_274_krem_274_krem_
	.globl	krem_prefix5d3b9c6030af0618_krem_func_krem_md5.c_krem_md5_update_krem_274_krem_274_krem_
krem_prefix5d3b9c6030af0618_krem_func_krem_md5.c_krem_md5_update_krem_274_krem_274_krem_:
	.byte	0                       # 0x0
	.size	krem_prefix5d3b9c6030af0618_krem_func_krem_md5.c_krem_md5_update_krem_274_krem_274_krem_, 1

	.type	krem_prefix5e28fb308e6c93ad_krem_func_krem_md5.c_krem_md5_memset_krem_344_krem_344_krem_,@object # @krem_prefix5e28fb308e6c93ad_krem_func_krem_md5.c_krem_md5_memset_krem_344_krem_344_krem_
	.globl	krem_prefix5e28fb308e6c93ad_krem_func_krem_md5.c_krem_md5_memset_krem_344_krem_344_krem_
krem_prefix5e28fb308e6c93ad_krem_func_krem_md5.c_krem_md5_memset_krem_344_krem_344_krem_:
	.byte	0                       # 0x0
	.size	krem_prefix5e28fb308e6c93ad_krem_func_krem_md5.c_krem_md5_memset_krem_344_krem_344_krem_, 1

	.type	krem_prefix5e478bd53350afb3_krem_func_krem_md5.c_krem_md5_R_memset_krem_490_krem_490_krem_,@object # @krem_prefix5e478bd53350afb3_krem_func_krem_md5.c_krem_md5_R_memset_krem_490_krem_490_krem_
	.globl	krem_prefix5e478bd53350afb3_krem_func_krem_md5.c_krem_md5_R_memset_krem_490_krem_490_krem_
krem_prefix5e478bd53350afb3_krem_func_krem_md5.c_krem_md5_R_memset_krem_490_krem_490_krem_:
	.byte	0                       # 0x0
	.size	krem_prefix5e478bd53350afb3_krem_func_krem_md5.c_krem_md5_R_memset_krem_490_krem_490_krem_, 1

	.type	krem_prefix65b7a48a693820e6_krem_loop_body_krem_md5.c_krem_md5_memset_krem_346_krem_350_krem_,@object # @krem_prefix65b7a48a693820e6_krem_loop_body_krem_md5.c_krem_md5_memset_krem_346_krem_350_krem_
	.globl	krem_prefix65b7a48a693820e6_krem_loop_body_krem_md5.c_krem_md5_memset_krem_346_krem_350_krem_
krem_prefix65b7a48a693820e6_krem_loop_body_krem_md5.c_krem_md5_memset_krem_346_krem_350_krem_:
	.byte	0                       # 0x0
	.size	krem_prefix65b7a48a693820e6_krem_loop_body_krem_md5.c_krem_md5_memset_krem_346_krem_350_krem_, 1

	.type	krem_prefix6747ce2e67e9c12a_krem_func_krem_md5.c_krem_md5_orig_init_krem_246_krem_246_krem_,@object # @krem_prefix6747ce2e67e9c12a_krem_func_krem_md5.c_krem_md5_orig_init_krem_246_krem_246_krem_
	.globl	krem_prefix6747ce2e67e9c12a_krem_func_krem_md5.c_krem_md5_orig_init_krem_246_krem_246_krem_
krem_prefix6747ce2e67e9c12a_krem_func_krem_md5.c_krem_md5_orig_init_krem_246_krem_246_krem_:
	.byte	0                       # 0x0
	.size	krem_prefix6747ce2e67e9c12a_krem_func_krem_md5.c_krem_md5_orig_init_krem_246_krem_246_krem_, 1

	.type	krem_prefix756cbc72fa573ef9_krem_func_krem_md5.c_krem_md5_memcpy_krem_478_krem_478_krem_,@object # @krem_prefix756cbc72fa573ef9_krem_func_krem_md5.c_krem_md5_memcpy_krem_478_krem_478_krem_
	.globl	krem_prefix756cbc72fa573ef9_krem_func_krem_md5.c_krem_md5_memcpy_krem_478_krem_478_krem_
krem_prefix756cbc72fa573ef9_krem_func_krem_md5.c_krem_md5_memcpy_krem_478_krem_478_krem_:
	.byte	0                       # 0x0
	.size	krem_prefix756cbc72fa573ef9_krem_func_krem_md5.c_krem_md5_memcpy_krem_478_krem_478_krem_, 1

	.type	krem_prefix839a1cb522d730c4_krem_func_krem_md5.c_krem_md5_encode_krem_447_krem_447_krem_,@object # @krem_prefix839a1cb522d730c4_krem_func_krem_md5.c_krem_md5_encode_krem_447_krem_447_krem_
	.globl	krem_prefix839a1cb522d730c4_krem_func_krem_md5.c_krem_md5_encode_krem_447_krem_447_krem_
krem_prefix839a1cb522d730c4_krem_func_krem_md5.c_krem_md5_encode_krem_447_krem_447_krem_:
	.byte	0                       # 0x0
	.size	krem_prefix839a1cb522d730c4_krem_func_krem_md5.c_krem_md5_encode_krem_447_krem_447_krem_, 1

	.type	krem_prefix91e2515d7f472e74_krem_loop_body_krem_md5.c_krem_md5_memset_x_krem_501_krem_505_krem_,@object # @krem_prefix91e2515d7f472e74_krem_loop_body_krem_md5.c_krem_md5_memset_x_krem_501_krem_505_krem_
	.globl	krem_prefix91e2515d7f472e74_krem_loop_body_krem_md5.c_krem_md5_memset_x_krem_501_krem_505_krem_
krem_prefix91e2515d7f472e74_krem_loop_body_krem_md5.c_krem_md5_memset_x_krem_501_krem_505_krem_:
	.byte	0                       # 0x0
	.size	krem_prefix91e2515d7f472e74_krem_loop_body_krem_md5.c_krem_md5_memset_x_krem_501_krem_505_krem_, 1

	.type	krem_prefix9bafbccd490535b2_krem_loop_krem_md5.c_krem_md5_decode_krem_467_krem_472_krem_,@object # @krem_prefix9bafbccd490535b2_krem_loop_krem_md5.c_krem_md5_decode_krem_467_krem_472_krem_
	.globl	krem_prefix9bafbccd490535b2_krem_loop_krem_md5.c_krem_md5_decode_krem_467_krem_472_krem_
krem_prefix9bafbccd490535b2_krem_loop_krem_md5.c_krem_md5_decode_krem_467_krem_472_krem_:
	.byte	0                       # 0x0
	.size	krem_prefix9bafbccd490535b2_krem_loop_krem_md5.c_krem_md5_decode_krem_467_krem_472_krem_, 1

	.type	krem_prefixa6143fca5cc6ecca_krem_loop_body_krem_md5.c_krem_md5_memcpy_krem_480_krem_484_krem_,@object # @krem_prefixa6143fca5cc6ecca_krem_loop_body_krem_md5.c_krem_md5_memcpy_krem_480_krem_484_krem_
	.globl	krem_prefixa6143fca5cc6ecca_krem_loop_body_krem_md5.c_krem_md5_memcpy_krem_480_krem_484_krem_
krem_prefixa6143fca5cc6ecca_krem_loop_body_krem_md5.c_krem_md5_memcpy_krem_480_krem_484_krem_:
	.byte	0                       # 0x0
	.size	krem_prefixa6143fca5cc6ecca_krem_loop_body_krem_md5.c_krem_md5_memcpy_krem_480_krem_484_krem_, 1

	.type	krem_prefixc59423f24d3756ed_krem_loop_krem_md5.c_krem_md5_memset_x_krem_501_krem_505_krem_,@object # @krem_prefixc59423f24d3756ed_krem_loop_krem_md5.c_krem_md5_memset_x_krem_501_krem_505_krem_
	.globl	krem_prefixc59423f24d3756ed_krem_loop_krem_md5.c_krem_md5_memset_x_krem_501_krem_505_krem_
krem_prefixc59423f24d3756ed_krem_loop_krem_md5.c_krem_md5_memset_x_krem_501_krem_505_krem_:
	.byte	0                       # 0x0
	.size	krem_prefixc59423f24d3756ed_krem_loop_krem_md5.c_krem_md5_memset_x_krem_501_krem_505_krem_, 1

	.type	krem_prefixc5d0a75affb18aea_krem_loop_body_krem_md5.c_krem_md5_main_krem_603_krem_610_krem_,@object # @krem_prefixc5d0a75affb18aea_krem_loop_body_krem_md5.c_krem_md5_main_krem_603_krem_610_krem_
	.globl	krem_prefixc5d0a75affb18aea_krem_loop_body_krem_md5.c_krem_md5_main_krem_603_krem_610_krem_
krem_prefixc5d0a75affb18aea_krem_loop_body_krem_md5.c_krem_md5_main_krem_603_krem_610_krem_:
	.byte	0                       # 0x0
	.size	krem_prefixc5d0a75affb18aea_krem_loop_body_krem_md5.c_krem_md5_main_krem_603_krem_610_krem_, 1

	.type	krem_prefixccf54e4d9a4e040d_krem_func_krem_md5.c_krem_main_krem_618_krem_618_krem_,@object # @krem_prefixccf54e4d9a4e040d_krem_func_krem_md5.c_krem_main_krem_618_krem_618_krem_
	.globl	krem_prefixccf54e4d9a4e040d_krem_func_krem_md5.c_krem_main_krem_618_krem_618_krem_
krem_prefixccf54e4d9a4e040d_krem_func_krem_md5.c_krem_main_krem_618_krem_618_krem_:
	.byte	0                       # 0x0
	.size	krem_prefixccf54e4d9a4e040d_krem_func_krem_md5.c_krem_main_krem_618_krem_618_krem_, 1

	.type	krem_prefixce3cbf7c0b6f395e_krem_func_krem_md5.c_krem_md5_final_krem_315_krem_315_krem_,@object # @krem_prefixce3cbf7c0b6f395e_krem_func_krem_md5.c_krem_md5_final_krem_315_krem_315_krem_
	.globl	krem_prefixce3cbf7c0b6f395e_krem_func_krem_md5.c_krem_md5_final_krem_315_krem_315_krem_
krem_prefixce3cbf7c0b6f395e_krem_func_krem_md5.c_krem_md5_final_krem_315_krem_315_krem_:
	.byte	0                       # 0x0
	.size	krem_prefixce3cbf7c0b6f395e_krem_func_krem_md5.c_krem_md5_final_krem_315_krem_315_krem_, 1

	.type	krem_prefixd57784fb948cda8d_krem_loop_body_krem_md5.c_krem_md5_update_krem_279_krem_300_krem_,@object # @krem_prefixd57784fb948cda8d_krem_loop_body_krem_md5.c_krem_md5_update_krem_279_krem_300_krem_
	.globl	krem_prefixd57784fb948cda8d_krem_loop_body_krem_md5.c_krem_md5_update_krem_279_krem_300_krem_
krem_prefixd57784fb948cda8d_krem_loop_body_krem_md5.c_krem_md5_update_krem_279_krem_300_krem_:
	.byte	0                       # 0x0
	.size	krem_prefixd57784fb948cda8d_krem_loop_body_krem_md5.c_krem_md5_update_krem_279_krem_300_krem_, 1

	.type	krem_prefixd9bd614f6a28955c_krem_loop_krem_md5.c_krem_md5_memset_krem_346_krem_350_krem_,@object # @krem_prefixd9bd614f6a28955c_krem_loop_krem_md5.c_krem_md5_memset_krem_346_krem_350_krem_
	.globl	krem_prefixd9bd614f6a28955c_krem_loop_krem_md5.c_krem_md5_memset_krem_346_krem_350_krem_
krem_prefixd9bd614f6a28955c_krem_loop_krem_md5.c_krem_md5_memset_krem_346_krem_350_krem_:
	.byte	0                       # 0x0
	.size	krem_prefixd9bd614f6a28955c_krem_loop_krem_md5.c_krem_md5_memset_krem_346_krem_350_krem_, 1

	.type	krem_prefixe55f3492ab88cfe9_krem_loop_body_krem_md5.c_krem_md5_decode_krem_467_krem_472_krem_,@object # @krem_prefixe55f3492ab88cfe9_krem_loop_body_krem_md5.c_krem_md5_decode_krem_467_krem_472_krem_
	.globl	krem_prefixe55f3492ab88cfe9_krem_loop_body_krem_md5.c_krem_md5_decode_krem_467_krem_472_krem_
krem_prefixe55f3492ab88cfe9_krem_loop_body_krem_md5.c_krem_md5_decode_krem_467_krem_472_krem_:
	.byte	0                       # 0x0
	.size	krem_prefixe55f3492ab88cfe9_krem_loop_body_krem_md5.c_krem_md5_decode_krem_467_krem_472_krem_, 1

	.type	krem_prefixf6a71df9d1c9c5a8_krem_loop_body_krem_md5.c_krem_md5_encode_krem_449_krem_457_krem_,@object # @krem_prefixf6a71df9d1c9c5a8_krem_loop_body_krem_md5.c_krem_md5_encode_krem_449_krem_457_krem_
	.globl	krem_prefixf6a71df9d1c9c5a8_krem_loop_body_krem_md5.c_krem_md5_encode_krem_449_krem_457_krem_
krem_prefixf6a71df9d1c9c5a8_krem_loop_body_krem_md5.c_krem_md5_encode_krem_449_krem_457_krem_:
	.byte	0                       # 0x0
	.size	krem_prefixf6a71df9d1c9c5a8_krem_loop_body_krem_md5.c_krem_md5_encode_krem_449_krem_457_krem_, 1

	.type	krem_prefixfb110db978d94876_krem_func_krem_md5.c_krem_md5_R_RandomInit_krem_512_krem_512_krem_,@object # @krem_prefixfb110db978d94876_krem_func_krem_md5.c_krem_md5_R_RandomInit_krem_512_krem_512_krem_
	.globl	krem_prefixfb110db978d94876_krem_func_krem_md5.c_krem_md5_R_RandomInit_krem_512_krem_512_krem_
krem_prefixfb110db978d94876_krem_func_krem_md5.c_krem_md5_R_RandomInit_krem_512_krem_512_krem_:
	.byte	0                       # 0x0
	.size	krem_prefixfb110db978d94876_krem_func_krem_md5.c_krem_md5_R_RandomInit_krem_512_krem_512_krem_, 1

	.data
.Ldebug_end1:
	.text
.Ldebug_end2:
	.section	".note.GNU-stack","",@progbits