	.text
	.file	"audiobeamlibmalloc.simplifycfg.mem2reg.indvars.elimsinglephis.criticalpath.regioninstrument.renamemain.O3.bc"
	.text
	.globl	audiobeam_malloc
	.align	16, 0x90
	.type	audiobeam_malloc,@function
audiobeam_malloc:                       # @audiobeam_malloc
.Lfunc_begin0:
	.loc	1 9 0                   # audiobeamlibmalloc.c:9:0
	.cfi_startproc
# BB#0:                                 # %entry
	pushq	%rbp
.Ltmp0:
	.cfi_def_cfa_offset 16
.Ltmp1:
	.cfi_offset %rbp, -16
	movq	%rsp, %rbp
.Ltmp2:
	.cfi_def_cfa_register %rbp
	pushq	%r15
	pushq	%r14
	pushq	%rbx
	pushq	%rax
.Ltmp3:
	.cfi_offset %rbx, -40
.Ltmp4:
	.cfi_offset %r14, -32
.Ltmp5:
	.cfi_offset %r15, -24
	#DEBUG_VALUE: audiobeam_malloc:numberOfBytes <- EDI
	movl	%edi, %ebx
.Ltmp6:
	#DEBUG_VALUE: audiobeam_malloc:numberOfBytes <- EBX
	movabsq	$7403053307004803799, %r14 # imm = 0x66BCEDC2794D5AD7
	xorl	%esi, %esi
	movq	%r14, %rdi
	callq	_KEnterRegion
	movl	$5, %edi
	xorl	%esi, %esi
	callq	_KPrepRTable
	movl	$12, %edi
	callq	_KWork
	movl	$1, %edi
	callq	_KDeqArg
	movl	$audiobeam_freeHeapPos, %edi
	movl	$2, %esi
	movl	$4, %edx
	callq	_KLoad0
	.loc	1 10 32 prologue_end    # audiobeamlibmalloc.c:10:32
.Ltmp7:
	movl	audiobeam_freeHeapPos(%rip), %eax
	leaq	audiobeam_simulated_heap(%rax), %r15
.Ltmp8:
	#DEBUG_VALUE: audiobeam_malloc:currentPos <- R15
	.loc	1 12 32                 # audiobeamlibmalloc.c:12:32
	addl	$4, %ebx
.Ltmp9:
	.loc	1 12 30 is_stmt 0       # audiobeamlibmalloc.c:12:30
	andl	$-4, %ebx
	movl	$audiobeam_freeHeapPos, %edi
	movl	$3, %esi
	movl	$4, %edx
	callq	_KLoad0
	.loc	1 12 3                  # audiobeamlibmalloc.c:12:3
	addl	audiobeam_freeHeapPos(%rip), %ebx
	movl	$4, %edi
	movl	$1, %esi
	movl	$3, %edx
	movl	$3, %ecx
	movl	$1, %r8d
	callq	_KTimestamp2
	movl	$4, %edi
	movl	$audiobeam_freeHeapPos, %esi
	movl	$4, %edx
	callq	_KStore
	movl	%ebx, audiobeam_freeHeapPos(%rip)
	xorl	%esi, %esi
	movq	%r14, %rdi
	callq	_KExitRegion
	.loc	1 13 3 is_stmt 1        # audiobeamlibmalloc.c:13:3
	movq	%r15, %rax
	addq	$8, %rsp
	popq	%rbx
	popq	%r14
	popq	%r15
.Ltmp10:
	popq	%rbp
	retq
.Ltmp11:
.Ltmp12:
	.size	audiobeam_malloc, .Ltmp12-audiobeam_malloc
.Lfunc_end0:
	.cfi_endproc

	.type	audiobeam_freeHeapPos,@object # @audiobeam_freeHeapPos
	.local	audiobeam_freeHeapPos
	.comm	audiobeam_freeHeapPos,4,4
	.type	audiobeam_simulated_heap,@object # @audiobeam_simulated_heap
	.local	audiobeam_simulated_heap
	.comm	audiobeam_simulated_heap,10000,16
	.type	krem_prefix66bcedc2794d5ad7_krem_func_krem_audiobeamlibmalloc.c_krem_audiobeam_malloc_krem_8_krem_8_krem_,@object # @krem_prefix66bcedc2794d5ad7_krem_func_krem_audiobeamlibmalloc.c_krem_audiobeam_malloc_krem_8_krem_8_krem_
	.bss
	.globl	krem_prefix66bcedc2794d5ad7_krem_func_krem_audiobeamlibmalloc.c_krem_audiobeam_malloc_krem_8_krem_8_krem_
krem_prefix66bcedc2794d5ad7_krem_func_krem_audiobeamlibmalloc.c_krem_audiobeam_malloc_krem_8_krem_8_krem_:
	.byte	0                       # 0x0
	.size	krem_prefix66bcedc2794d5ad7_krem_func_krem_audiobeamlibmalloc.c_krem_audiobeam_malloc_krem_8_krem_8_krem_, 1

	.text
.Ldebug_end1:
	.section	".note.GNU-stack","",@progbits