	.text
	.file	"audiobeamlibm.simplifycfg.mem2reg.indvars.elimsinglephis.criticalpath.regioninstrument.renamemain.O3.bc"
	.section	.rodata.cst4,"aM",@progbits,4
	.align	4
.LCPI0_0:
	.long	1059256708              # float 0.636619806
.LCPI0_1:
	.long	1056964608              # float 0.5
.LCPI0_2:
	.long	3217624960              # float -1.57078552
.LCPI0_3:
	.long	926237763               # float 1.08043341E-5
.LCPI0_4:
	.long	926237696               # float 1.08042732E-5
.LCPI0_5:
	.long	780509960               # float 6.07709993E-11
.LCPI0_6:
	.long	780509952               # float 6.07709438E-11
.LCPI0_7:
	.long	613232946               # float 6.12323426E-17
.LCPI0_9:
	.long	1070141312              # float 1.57078552
.LCPI0_10:
	.long	3073721411              # float -1.08043341E-5
.LCPI0_11:
	.long	3073721344              # float -1.08042732E-5
.LCPI0_12:
	.long	2927993608              # float -6.07709993E-11
	.section	.rodata.cst16,"aM",@progbits,16
	.align	16
.LCPI0_8:
	.long	2147483648              # 0x80000000
	.long	2147483648              # 0x80000000
	.long	2147483648              # 0x80000000
	.long	2147483648              # 0x80000000
	.text
	.globl	audiobeam___ieee754_rem_pio2f
	.align	16, 0x90
	.type	audiobeam___ieee754_rem_pio2f,@function
audiobeam___ieee754_rem_pio2f:          # @audiobeam___ieee754_rem_pio2f
.Lfunc_begin0:
	.loc	1 78 0                  # audiobeamlibm.c:78:0
	.cfi_startproc
# BB#0:                                 # %entry
	pushq	%rbp
.Ltmp0:
	.cfi_def_cfa_offset 16
.Ltmp1:
	.cfi_offset %rbp, -16
	movq	%rsp, %rbp
.Ltmp2:
	.cfi_def_cfa_register %rbp
	pushq	%r15
	pushq	%r14
	pushq	%r13
	pushq	%r12
	pushq	%rbx
	subq	$88, %rsp
.Ltmp3:
	.cfi_offset %rbx, -56
.Ltmp4:
	.cfi_offset %r12, -48
.Ltmp5:
	.cfi_offset %r13, -40
.Ltmp6:
	.cfi_offset %r14, -32
.Ltmp7:
	.cfi_offset %r15, -24
	#DEBUG_VALUE: audiobeam___ieee754_rem_pio2f:x <- XMM0
	#DEBUG_VALUE: audiobeam___ieee754_rem_pio2f:y <- RDI
	movq	%rdi, %r12
.Ltmp8:
	#DEBUG_VALUE: audiobeam___ieee754_rem_pio2f:y <- R12
	movss	%xmm0, -72(%rbp)        # 4-byte Spill
.Ltmp9:
	#DEBUG_VALUE: audiobeam___ieee754_rem_pio2f:x <- [RBP+-72]
	#DEBUG_VALUE: audiobeam___ieee754_rem_pio2f:x <- undef
	movabsq	$9045190757858079850, %rdi # imm = 0x7D86F9121FC6F46A
	xorl	%r15d, %r15d
	xorl	%esi, %esi
	callq	_KEnterRegion
	movl	$56, %edi
	xorl	%esi, %esi
	callq	_KPrepRTable
	movl	$7, %edi
	callq	_KWork
	movl	$1, %edi
	callq	_KDeqArg
.Ltmp10:
	#DEBUG_VALUE: audiobeam___ieee754_rem_pio2f:n <- 0
	movl	$1, %edi
	movl	$1, %esi
	xorl	%edx, %edx
	callq	_KTimestamp1
	leaq	-48(%rbp), %rbx
	movl	$1, %edi
	movl	$4, %edx
	movq	%rbx, %rsi
	callq	_KStore
	.loc	1 82 3 prologue_end     # audiobeamlibm.c:82:3
.Ltmp11:
	movss	-72(%rbp), %xmm0        # 4-byte Reload
	movss	%xmm0, -48(%rbp)
.Ltmp12:
	#DEBUG_VALUE: audiobeam___ieee754_rem_pio2f:x <- [RBP+-72]
	movl	$2, %esi
	movl	$4, %edx
	movq	%rbx, %rdi
	callq	_KLoad0
	movl	-48(%rbp), %ebx
.Ltmp13:
	#DEBUG_VALUE: audiobeam___ieee754_rem_pio2f:hx <- EBX
	.loc	1 83 8                  # audiobeamlibm.c:83:8
	movl	%ebx, %r13d
	andl	$2147483647, %r13d      # imm = 0x7FFFFFFF
.Ltmp14:
	#DEBUG_VALUE: audiobeam___ieee754_rem_pio2f:ix <- R13D
	movl	$48, %edi
	movl	$2, %esi
	movl	$2, %edx
	callq	_KTimestamp1
	movl	$48, %edi
	callq	_KPushCDep
	.loc	1 84 8                  # audiobeamlibm.c:84:8
	cmpl	$1061752792, %r13d      # imm = 0x3F490FD8
	ja	.LBB0_2
.Ltmp15:
# BB#1:                                 # %if.then
	#DEBUG_VALUE: audiobeam___ieee754_rem_pio2f:x <- [RBP+-72]
	#DEBUG_VALUE: audiobeam___ieee754_rem_pio2f:y <- R12
	#DEBUG_VALUE: audiobeam___ieee754_rem_pio2f:n <- 0
	movl	$2, %edi
	callq	_KWork
	movl	$1, %edi
	movl	$4, %edx
	movq	%r12, %rsi
	callq	_KStore
	.loc	1 85 5                  # audiobeamlibm.c:85:5
.Ltmp16:
	movss	-72(%rbp), %xmm0        # 4-byte Reload
	movss	%xmm0, (%r12)
	.loc	1 86 5                  # audiobeamlibm.c:86:5
	leaq	4(%r12), %rdi
	movl	$4, %esi
	callq	_KStoreConst
	movl	$0, 4(%r12)
	callq	_KPopCDep
	xorl	%eax, %eax
	xorl	%r12d, %r12d
.Ltmp17:
	jmp	.LBB0_28
.Ltmp18:
.LBB0_2:                                # %if.end
	#DEBUG_VALUE: audiobeam___ieee754_rem_pio2f:x <- [RBP+-72]
	#DEBUG_VALUE: audiobeam___ieee754_rem_pio2f:y <- R12
	#DEBUG_VALUE: audiobeam___ieee754_rem_pio2f:n <- 0
	#DEBUG_VALUE: audiobeam___ieee754_rem_pio2f:hx <- EBX
	#DEBUG_VALUE: audiobeam___ieee754_rem_pio2f:ix <- R13D
	movl	$1, %edi
	callq	_KWork
	movl	$51, %edi
	movl	$2, %esi
	movl	$3, %edx
	callq	_KTimestamp1
	callq	_KPopCDep
	movl	$51, %edi
	callq	_KPushCDep
	movl	$1, %edi
	callq	_KWork
	.loc	1 89 8                  # audiobeamlibm.c:89:8
	cmpl	$1075235811, %r13d      # imm = 0x4016CBE3
	ja	.LBB0_13
.Ltmp19:
# BB#3:                                 # %if.then3
	#DEBUG_VALUE: audiobeam___ieee754_rem_pio2f:x <- [RBP+-72]
	#DEBUG_VALUE: audiobeam___ieee754_rem_pio2f:y <- R12
	#DEBUG_VALUE: audiobeam___ieee754_rem_pio2f:n <- 0
	#DEBUG_VALUE: audiobeam___ieee754_rem_pio2f:hx <- EBX
	movl	$50, %edi
	movl	$2, %esi
	movl	$4, %edx
	callq	_KTimestamp1
	callq	_KPopCDep
	movl	$50, %edi
	callq	_KPushCDep
	movl	$4, %edi
	callq	_KWork
	.loc	1 90 10                 # audiobeamlibm.c:90:10
.Ltmp20:
	testl	%ebx, %ebx
	jle	.LBB0_9
.Ltmp21:
# BB#4:                                 # %if.then5
	#DEBUG_VALUE: audiobeam___ieee754_rem_pio2f:x <- [RBP+-72]
	#DEBUG_VALUE: audiobeam___ieee754_rem_pio2f:x <- undef
	#DEBUG_VALUE: audiobeam___ieee754_rem_pio2f:y <- R12
	#DEBUG_VALUE: audiobeam___ieee754_rem_pio2f:n <- 0
	#DEBUG_VALUE: audiobeam___ieee754_rem_pio2f:hx <- EBX
	.loc	1 91 11                 # audiobeamlibm.c:91:11
	movss	-72(%rbp), %xmm0        # 4-byte Reload
	addss	.LCPI0_2(%rip), %xmm0
.Ltmp22:
	#DEBUG_VALUE: audiobeam___ieee754_rem_pio2f:z <- undef
	movss	%xmm0, -72(%rbp)        # 4-byte Spill
.Ltmp23:
	#DEBUG_VALUE: audiobeam___ieee754_rem_pio2f:z <- [RBP+-72]
	.loc	1 92 14                 # audiobeamlibm.c:92:14
	andl	$2147483632, %ebx       # imm = 0x7FFFFFF0
.Ltmp24:
	movl	$52, %edi
	movl	$2, %esi
	movl	$6, %edx
	callq	_KTimestamp1
	callq	_KPopCDep
	movl	$52, %edi
	callq	_KPushCDep
	.loc	1 92 12 is_stmt 0       # audiobeamlibm.c:92:12
	cmpl	$1070141392, %ebx       # imm = 0x3FC90FD0
	jne	.LBB0_5
.Ltmp25:
# BB#6:                                 # %if.else
	#DEBUG_VALUE: audiobeam___ieee754_rem_pio2f:y <- R12
	#DEBUG_VALUE: audiobeam___ieee754_rem_pio2f:n <- 0
	#DEBUG_VALUE: audiobeam___ieee754_rem_pio2f:z <- [RBP+-72]
	movl	$14, %edi
	callq	_KWork
	movss	-72(%rbp), %xmm0        # 4-byte Reload
.Ltmp26:
	#DEBUG_VALUE: audiobeam___ieee754_rem_pio2f:z <- XMM0
	.loc	1 96 9 is_stmt 1        # audiobeamlibm.c:96:9
	addss	.LCPI0_11(%rip), %xmm0
.Ltmp27:
	.loc	1 97 16                 # audiobeamlibm.c:97:16
	movss	%xmm0, -72(%rbp)        # 4-byte Spill
.Ltmp28:
	#DEBUG_VALUE: audiobeam___ieee754_rem_pio2f:z <- [RBP+-72]
	addss	.LCPI0_12(%rip), %xmm0
	movss	%xmm0, -76(%rbp)        # 4-byte Spill
	movl	$6, %edi
	movl	$2, %esi
	movl	$10, %edx
	movl	$1, %ecx
	movl	$6, %r8d
	callq	_KTimestamp2
	movl	$6, %edi
	movl	$4, %edx
	movq	%r12, %rsi
	callq	_KStore
	.loc	1 97 9 is_stmt 0        # audiobeamlibm.c:97:9
	movss	-76(%rbp), %xmm0        # 4-byte Reload
	movss	%xmm0, (%r12)
	movl	$7, %esi
	movl	$4, %edx
	movq	%r12, %rdi
	callq	_KLoad0
	movss	-72(%rbp), %xmm0        # 4-byte Reload
.Ltmp29:
	#DEBUG_VALUE: audiobeam___ieee754_rem_pio2f:z <- XMM0
	.loc	1 98 18 is_stmt 1       # audiobeamlibm.c:98:18
	subss	(%r12), %xmm0
.Ltmp30:
	.loc	1 98 16 is_stmt 0       # audiobeamlibm.c:98:16
	addss	.LCPI0_12(%rip), %xmm0
	movss	%xmm0, -72(%rbp)        # 4-byte Spill
	.loc	1 98 9                  # audiobeamlibm.c:98:9
	leaq	4(%r12), %rbx
	movl	$4, (%rsp)
	movl	$8, %edi
	movl	$2, %esi
	movl	$12, %edx
	movl	$1, %ecx
	movl	$8, %r8d
	movl	$7, %r9d
	callq	_KTimestamp3
	movl	$8, %edi
	jmp	.LBB0_7
.Ltmp31:
.LBB0_13:                               # %if.end42
	#DEBUG_VALUE: audiobeam___ieee754_rem_pio2f:x <- [RBP+-72]
	#DEBUG_VALUE: audiobeam___ieee754_rem_pio2f:y <- R12
	#DEBUG_VALUE: audiobeam___ieee754_rem_pio2f:n <- 0
	#DEBUG_VALUE: audiobeam___ieee754_rem_pio2f:hx <- EBX
	#DEBUG_VALUE: audiobeam___ieee754_rem_pio2f:ix <- R13D
	movl	$42, %edi
	movl	$2, %esi
	movl	$4, %edx
	callq	_KTimestamp1
	callq	_KPopCDep
	movl	$42, %edi
	callq	_KPushCDep
	.loc	1 114 8 is_stmt 1       # audiobeamlibm.c:114:8
	cmpl	$1128861568, %r13d      # imm = 0x43490F80
	ja	.LBB0_25
.Ltmp32:
# BB#14:                                # %if.then44
	#DEBUG_VALUE: audiobeam___ieee754_rem_pio2f:x <- [RBP+-72]
	#DEBUG_VALUE: audiobeam___ieee754_rem_pio2f:y <- R12
	#DEBUG_VALUE: audiobeam___ieee754_rem_pio2f:n <- 0
	#DEBUG_VALUE: audiobeam___ieee754_rem_pio2f:hx <- EBX
	#DEBUG_VALUE: audiobeam___ieee754_rem_pio2f:ix <- R13D
	movl	%ebx, -80(%rbp)         # 4-byte Spill
.Ltmp33:
	#DEBUG_VALUE: audiobeam___ieee754_rem_pio2f:hx <- [RBP+-80]
	xorl	%r15d, %r15d
	movabsq	$-5219548291412066180, %rdi # imm = 0xB790707BBA63007C
	xorl	%esi, %esi
	callq	_KPrepCall
	movl	$1, %edi
	callq	_KEnqArg
	movl	$15, %edi
	callq	_KLinkReturn
	movl	$20, %edi
	callq	_KWork
	.loc	1 115 10                # audiobeamlibm.c:115:10
.Ltmp34:
	movss	-72(%rbp), %xmm0        # 4-byte Reload
	callq	audiobeam___fabsf
.Ltmp35:
	#DEBUG_VALUE: audiobeam___ieee754_rem_pio2f:t <- XMM0
	movss	.LCPI0_0(%rip), %xmm1
	.loc	1 116 20                # audiobeamlibm.c:116:20
	mulss	%xmm0, %xmm1
	addss	.LCPI0_1(%rip), %xmm1
	.loc	1 116 10 is_stmt 0      # audiobeamlibm.c:116:10
	cvttss2si	%xmm1, %ebx
.Ltmp36:
	#DEBUG_VALUE: audiobeam___ieee754_rem_pio2f:n <- EBX
	.loc	1 117 10 is_stmt 1      # audiobeamlibm.c:117:10
	cvtsi2ssl	%ebx, %xmm2
.Ltmp37:
	#DEBUG_VALUE: audiobeam___ieee754_rem_pio2f:fn <- XMM2
	movss	%xmm2, -100(%rbp)       # 4-byte Spill
	movss	.LCPI0_2(%rip), %xmm1
	.loc	1 118 14                # audiobeamlibm.c:118:14
	mulss	%xmm2, %xmm1
	.loc	1 118 10 is_stmt 0      # audiobeamlibm.c:118:10
	addss	%xmm0, %xmm1
.Ltmp38:
	#DEBUG_VALUE: audiobeam___ieee754_rem_pio2f:r <- XMM1
	#DEBUG_VALUE: audiobeam___ieee754_rem_pio2f:t <- XMM1
	movss	%xmm1, -72(%rbp)        # 4-byte Spill
.Ltmp39:
	#DEBUG_VALUE: audiobeam___ieee754_rem_pio2f:r <- [RBP+-72]
	#DEBUG_VALUE: audiobeam___ieee754_rem_pio2f:t <- [RBP+-72]
	movss	.LCPI0_3(%rip), %xmm0
	.loc	1 119 10 is_stmt 1      # audiobeamlibm.c:119:10
	mulss	%xmm2, %xmm0
.Ltmp40:
	#DEBUG_VALUE: audiobeam___ieee754_rem_pio2f:w <- XMM0
	movss	%xmm0, -76(%rbp)        # 4-byte Spill
.Ltmp41:
	#DEBUG_VALUE: audiobeam___ieee754_rem_pio2f:w <- [RBP+-76]
	#DEBUG_VALUE: audiobeam___ieee754_rem_pio2f:fn <- [RBP+-100]
	movl	$47, %edi
	movl	$2, %esi
	movl	$11, %edx
	movl	$15, %ecx
	movl	$7, %r8d
	callq	_KTimestamp2
	movl	$43, %edi
	movl	$2, %esi
	movl	$16, %edx
	movl	$15, %ecx
	movl	$12, %r8d
	callq	_KTimestamp2
	movl	$41, %edi
	movl	$2, %esi
	movl	$12, %edx
	movl	$15, %ecx
	movl	$8, %r8d
	callq	_KTimestamp2
	movl	$36, -84(%rbp)          # 4-byte Folded Spill
	movl	$36, %edi
	movl	$2, %esi
	movl	$18, %edx
	movl	$15, %ecx
	movl	$14, %r8d
	callq	_KTimestamp2
	callq	_KPopCDep
	.loc	1 120 10                # audiobeamlibm.c:120:10
	cmpl	$31, %ebx
	jg	.LBB0_17
.Ltmp42:
# BB#15:                                # %land.lhs.true
	#DEBUG_VALUE: audiobeam___ieee754_rem_pio2f:y <- R12
	#DEBUG_VALUE: audiobeam___ieee754_rem_pio2f:n <- EBX
	#DEBUG_VALUE: audiobeam___ieee754_rem_pio2f:hx <- [RBP+-80]
	#DEBUG_VALUE: audiobeam___ieee754_rem_pio2f:ix <- R13D
	#DEBUG_VALUE: audiobeam___ieee754_rem_pio2f:t <- [RBP+-72]
	#DEBUG_VALUE: audiobeam___ieee754_rem_pio2f:fn <- [RBP+-100]
	#DEBUG_VALUE: audiobeam___ieee754_rem_pio2f:r <- [RBP+-72]
	#DEBUG_VALUE: audiobeam___ieee754_rem_pio2f:w <- [RBP+-76]
	movl	$41, %edi
	callq	_KPushCDep
	movl	$7, %edi
	callq	_KWork
	.loc	1 120 29 is_stmt 0 discriminator 1 # audiobeamlibm.c:120:29
.Ltmp43:
	movl	-80(%rbp), %r14d        # 4-byte Reload
	andl	$2147483392, %r14d      # imm = 0x7FFFFF00
	.loc	1 120 69                # audiobeamlibm.c:120:69
	leal	-1(%rbx), %eax
	.loc	1 120 50                # audiobeamlibm.c:120:50
	movslq	%eax, %r15
	leaq	audiobeam_npio2_hw(,%r15,4), %rdi
	movl	$16, %esi
	movl	$17, %edx
	movl	$4, %ecx
	callq	_KLoad1
	movl	$1, (%rsp)
	movl	$54, %edi
	movl	$2, %esi
	movl	$14, %edx
	movl	$15, %ecx
	movl	$10, %r8d
	movl	$16, %r9d
	callq	_KTimestamp3
	callq	_KPopCDep
	.loc	1 120 20                # audiobeamlibm.c:120:20
	cmpl	audiobeam_npio2_hw(,%r15,4), %r14d
	movl	$0, %r15d
	jne	.LBB0_16
.Ltmp44:
.LBB0_17:                               # %if.else60
	#DEBUG_VALUE: audiobeam___ieee754_rem_pio2f:y <- R12
	#DEBUG_VALUE: audiobeam___ieee754_rem_pio2f:n <- EBX
	#DEBUG_VALUE: audiobeam___ieee754_rem_pio2f:hx <- [RBP+-80]
	#DEBUG_VALUE: audiobeam___ieee754_rem_pio2f:ix <- R13D
	#DEBUG_VALUE: audiobeam___ieee754_rem_pio2f:t <- [RBP+-72]
	#DEBUG_VALUE: audiobeam___ieee754_rem_pio2f:fn <- [RBP+-100]
	#DEBUG_VALUE: audiobeam___ieee754_rem_pio2f:r <- [RBP+-72]
	#DEBUG_VALUE: audiobeam___ieee754_rem_pio2f:w <- [RBP+-76]
	movq	%rbx, -96(%rbp)         # 8-byte Spill
.Ltmp45:
	#DEBUG_VALUE: audiobeam___ieee754_rem_pio2f:n <- [RBP+-96]
	movl	$41, %edi
	callq	_KPushCDep
	movl	$17, %edi
	callq	_KWork
	.loc	1 124 12 is_stmt 1      # audiobeamlibm.c:124:12
.Ltmp46:
	shrl	$23, %r13d
.Ltmp47:
	#DEBUG_VALUE: audiobeam___ieee754_rem_pio2f:j <- R13D
	#DEBUG_VALUE: audiobeam___ieee754_rem_pio2f:r <- undef
	#DEBUG_VALUE: audiobeam___ieee754_rem_pio2f:t <- undef
	.loc	1 125 14                # audiobeamlibm.c:125:14
	movss	-72(%rbp), %xmm0        # 4-byte Reload
.Ltmp48:
	#DEBUG_VALUE: audiobeam___ieee754_rem_pio2f:w <- undef
	#DEBUG_VALUE: audiobeam___ieee754_rem_pio2f:r <- [RBP+-72]
	#DEBUG_VALUE: audiobeam___ieee754_rem_pio2f:t <- [RBP+-72]
	subss	-76(%rbp), %xmm0        # 4-byte Folded Reload
	movss	%xmm0, -104(%rbp)       # 4-byte Spill
.Ltmp49:
	#DEBUG_VALUE: audiobeam___ieee754_rem_pio2f:w <- [RBP+-76]
	movl	$19, %edi
	movl	$2, %esi
	movl	$20, %edx
	movl	$15, %ecx
	movl	$16, %r8d
	callq	_KTimestamp2
	movl	$19, %edi
	movl	$4, %edx
	movq	%r12, %rsi
	callq	_KStore
	.loc	1 125 7 is_stmt 0       # audiobeamlibm.c:125:7
	movss	-104(%rbp), %xmm0       # 4-byte Reload
	movss	%xmm0, (%r12)
	movl	$20, %esi
	movl	$4, %edx
	movq	%r12, %rdi
	callq	_KLoad0
	.loc	1 126 7 is_stmt 1       # audiobeamlibm.c:126:7
.Ltmp50:
	movss	(%r12), %xmm0
	movss	%xmm0, -104(%rbp)       # 4-byte Spill
	movl	$20, %edi
	movl	$20, %esi
	xorl	%edx, %edx
	callq	_KTimestamp1
	leaq	-56(%rbp), %r14
	movl	$20, %edi
	movl	$4, %edx
	movq	%r14, %rsi
	callq	_KStore
	movss	-104(%rbp), %xmm0       # 4-byte Reload
	movss	%xmm0, -56(%rbp)
	movl	$21, %esi
	movl	$4, %edx
	movq	%r14, %rdi
	callq	_KLoad0
	movl	-56(%rbp), %eax
.Ltmp51:
	#DEBUG_VALUE: high <- EAX
	.loc	1 127 19                # audiobeamlibm.c:127:19
	shrl	$23, %eax
.Ltmp52:
	.loc	1 127 17 is_stmt 0      # audiobeamlibm.c:127:17
	movzbl	%al, %eax
	.loc	1 127 11                # audiobeamlibm.c:127:11
	movl	%r13d, %ebx
	subl	%eax, %ebx
.Ltmp53:
	#DEBUG_VALUE: audiobeam___ieee754_rem_pio2f:i <- EBX
	movl	$4, (%rsp)
	movl	$39, %r14d
	movl	$39, %edi
	movl	$2, %esi
	movl	$16, %edx
	movl	$15, %ecx
	movl	$12, %r8d
	movl	$21, %r9d
	callq	_KTimestamp3
	callq	_KPopCDep
	.loc	1 128 12 is_stmt 1      # audiobeamlibm.c:128:12
	cmpl	$9, %ebx
	jl	.LBB0_18
.Ltmp54:
# BB#19:                                # %if.then72
	#DEBUG_VALUE: audiobeam___ieee754_rem_pio2f:y <- R12
	#DEBUG_VALUE: audiobeam___ieee754_rem_pio2f:n <- [RBP+-96]
	#DEBUG_VALUE: audiobeam___ieee754_rem_pio2f:hx <- [RBP+-80]
	#DEBUG_VALUE: audiobeam___ieee754_rem_pio2f:t <- [RBP+-72]
	#DEBUG_VALUE: audiobeam___ieee754_rem_pio2f:fn <- [RBP+-100]
	#DEBUG_VALUE: audiobeam___ieee754_rem_pio2f:r <- [RBP+-72]
	#DEBUG_VALUE: audiobeam___ieee754_rem_pio2f:j <- R13D
	movl	$39, %r14d
	movl	$39, %edi
	callq	_KPushCDep
	movl	$34, %edi
	callq	_KWork
	movss	.LCPI0_4(%rip), %xmm0
	movss	-100(%rbp), %xmm3       # 4-byte Reload
.Ltmp55:
	#DEBUG_VALUE: audiobeam___ieee754_rem_pio2f:fn <- XMM3
	.loc	1 130 14                # audiobeamlibm.c:130:14
	mulss	%xmm3, %xmm0
.Ltmp56:
	#DEBUG_VALUE: audiobeam___ieee754_rem_pio2f:w <- XMM0
	movss	-72(%rbp), %xmm2        # 4-byte Reload
.Ltmp57:
	#DEBUG_VALUE: audiobeam___ieee754_rem_pio2f:r <- XMM2
	#DEBUG_VALUE: audiobeam___ieee754_rem_pio2f:t <- XMM2
	.loc	1 131 14                # audiobeamlibm.c:131:14
	movaps	%xmm2, %xmm4
	subss	%xmm0, %xmm4
.Ltmp58:
	#DEBUG_VALUE: audiobeam___ieee754_rem_pio2f:r <- XMM4
	#DEBUG_VALUE: audiobeam___ieee754_rem_pio2f:t <- XMM4
	movss	%xmm4, -104(%rbp)       # 4-byte Spill
	movss	.LCPI0_5(%rip), %xmm1
	.loc	1 132 14                # audiobeamlibm.c:132:14
	mulss	%xmm3, %xmm1
.Ltmp59:
	#DEBUG_VALUE: audiobeam___ieee754_rem_pio2f:fn <- [RBP+-100]
	.loc	1 132 43 is_stmt 0      # audiobeamlibm.c:132:43
	subss	%xmm4, %xmm2
	.loc	1 132 41                # audiobeamlibm.c:132:41
	subss	%xmm0, %xmm2
	.loc	1 132 14                # audiobeamlibm.c:132:14
	subss	%xmm2, %xmm1
.Ltmp60:
	#DEBUG_VALUE: audiobeam___ieee754_rem_pio2f:w <- XMM1
	.loc	1 133 16 is_stmt 1      # audiobeamlibm.c:133:16
	movss	%xmm1, -76(%rbp)        # 4-byte Spill
.Ltmp61:
	#DEBUG_VALUE: audiobeam___ieee754_rem_pio2f:r <- [RBP+-104]
	#DEBUG_VALUE: audiobeam___ieee754_rem_pio2f:t <- [RBP+-104]
	subss	%xmm1, %xmm4
	movss	%xmm4, -72(%rbp)        # 4-byte Spill
.Ltmp62:
	#DEBUG_VALUE: audiobeam___ieee754_rem_pio2f:w <- [RBP+-76]
	movl	$19, (%rsp)
	movl	$22, %edi
	movl	$2, %esi
	movl	$31, %edx
	movl	$15, %ecx
	movl	$27, %r8d
	movl	$21, %r9d
	callq	_KTimestamp3
	movl	$22, %edi
	movl	$4, %edx
	movq	%r12, %rsi
	callq	_KStore
	.loc	1 133 9 is_stmt 0       # audiobeamlibm.c:133:9
	movss	-72(%rbp), %xmm0        # 4-byte Reload
	movss	%xmm0, (%r12)
	movl	$23, %esi
	movl	$4, %edx
	movq	%r12, %rdi
	callq	_KLoad0
	.loc	1 134 9 is_stmt 1       # audiobeamlibm.c:134:9
.Ltmp63:
	movss	(%r12), %xmm0
	movss	%xmm0, -72(%rbp)        # 4-byte Spill
	movl	$23, %edi
	movl	$23, %esi
	xorl	%edx, %edx
	callq	_KTimestamp1
	leaq	-64(%rbp), %r15
	movl	$23, %edi
	movl	$4, %edx
	movq	%r15, %rsi
	callq	_KStore
	movss	-72(%rbp), %xmm0        # 4-byte Reload
	movss	%xmm0, -64(%rbp)
	movl	$24, %esi
	movl	$4, %edx
	movq	%r15, %rdi
	callq	_KLoad0
	movl	-64(%rbp), %eax
.Ltmp64:
	#DEBUG_VALUE: high <- EAX
	.loc	1 135 21                # audiobeamlibm.c:135:21
	shrl	$23, %eax
.Ltmp65:
	.loc	1 135 19 is_stmt 0      # audiobeamlibm.c:135:19
	movzbl	%al, %eax
	.loc	1 135 13                # audiobeamlibm.c:135:13
	subl	%eax, %r13d
.Ltmp66:
	#DEBUG_VALUE: audiobeam___ieee754_rem_pio2f:i <- R13D
	movl	$17, (%rsp)
	movl	$45, %edi
	movl	$2, %esi
	movl	$29, %edx
	movl	$15, %ecx
	movl	$25, %r8d
	movl	$21, %r9d
	callq	_KTimestamp3
	movl	$8, 16(%rsp)
	movl	$21, 8(%rsp)
	movl	$16, (%rsp)
	movl	$40, %r15d
	movl	$40, %edi
	movl	$2, %esi
	movl	$20, %edx
	movl	$24, %ecx
	movl	$4, %r8d
	movl	$15, %r9d
	callq	_KTimestamp4
	movl	$11, (%rsp)
	movl	$38, %edi
	movl	$2, %esi
	movl	$23, %edx
	movl	$15, %ecx
	movl	$19, %r8d
	movl	$21, %r9d
	callq	_KTimestamp3
	callq	_KPopCDep
	.loc	1 136 14 is_stmt 1      # audiobeamlibm.c:136:14
	cmpl	$26, %r13d
	movl	-80(%rbp), %r13d        # 4-byte Reload
.Ltmp67:
	#DEBUG_VALUE: audiobeam___ieee754_rem_pio2f:hx <- R13D
	jl	.LBB0_20
.Ltmp68:
# BB#21:                                # %if.then90
	#DEBUG_VALUE: audiobeam___ieee754_rem_pio2f:y <- R12
	#DEBUG_VALUE: audiobeam___ieee754_rem_pio2f:n <- [RBP+-96]
	#DEBUG_VALUE: audiobeam___ieee754_rem_pio2f:hx <- R13D
	#DEBUG_VALUE: audiobeam___ieee754_rem_pio2f:t <- [RBP+-104]
	#DEBUG_VALUE: audiobeam___ieee754_rem_pio2f:fn <- [RBP+-100]
	#DEBUG_VALUE: audiobeam___ieee754_rem_pio2f:r <- [RBP+-104]
	movl	$40, %r15d
	movl	$40, %edi
	callq	_KPushCDep
	movl	$21, %edi
	callq	_KWork
	movss	.LCPI0_6(%rip), %xmm0
	movss	-100(%rbp), %xmm3       # 4-byte Reload
.Ltmp69:
	#DEBUG_VALUE: audiobeam___ieee754_rem_pio2f:fn <- XMM3
	.loc	1 138 16                # audiobeamlibm.c:138:16
	mulss	%xmm3, %xmm0
.Ltmp70:
	#DEBUG_VALUE: audiobeam___ieee754_rem_pio2f:w <- XMM0
	movss	-104(%rbp), %xmm2       # 4-byte Reload
.Ltmp71:
	#DEBUG_VALUE: audiobeam___ieee754_rem_pio2f:r <- XMM2
	#DEBUG_VALUE: audiobeam___ieee754_rem_pio2f:t <- XMM2
	.loc	1 139 16                # audiobeamlibm.c:139:16
	movaps	%xmm2, %xmm1
	subss	%xmm0, %xmm1
.Ltmp72:
	#DEBUG_VALUE: audiobeam___ieee754_rem_pio2f:r <- XMM1
	.loc	1 140 16                # audiobeamlibm.c:140:16
	movss	%xmm1, -72(%rbp)        # 4-byte Spill
	mulss	.LCPI0_7(%rip), %xmm3
.Ltmp73:
	.loc	1 140 45 is_stmt 0      # audiobeamlibm.c:140:45
	subss	%xmm1, %xmm2
.Ltmp74:
	.loc	1 140 43                # audiobeamlibm.c:140:43
	subss	%xmm0, %xmm2
	.loc	1 140 16                # audiobeamlibm.c:140:16
	subss	%xmm2, %xmm3
.Ltmp75:
	#DEBUG_VALUE: audiobeam___ieee754_rem_pio2f:w <- XMM3
	.loc	1 141 18 is_stmt 1      # audiobeamlibm.c:141:18
	movss	%xmm3, -100(%rbp)       # 4-byte Spill
.Ltmp76:
	#DEBUG_VALUE: audiobeam___ieee754_rem_pio2f:r <- [RBP+-72]
	subss	%xmm3, %xmm1
	movss	%xmm1, -76(%rbp)        # 4-byte Spill
.Ltmp77:
	#DEBUG_VALUE: audiobeam___ieee754_rem_pio2f:w <- [RBP+-100]
	movl	$23, 16(%rsp)
	movl	$21, 8(%rsp)
	movl	$31, (%rsp)
	movl	$25, %edi
	movl	$2, %esi
	movl	$35, %edx
	movl	$24, %ecx
	movl	$19, %r8d
	movl	$15, %r9d
	callq	_KTimestamp4
	movl	$25, %edi
	movl	$4, %edx
	movq	%r12, %rsi
	callq	_KStore
	.loc	1 141 11 is_stmt 0      # audiobeamlibm.c:141:11
	movss	-76(%rbp), %xmm0        # 4-byte Reload
	movss	%xmm0, (%r12)
	movl	$21, 16(%rsp)
	movl	$21, 8(%rsp)
	movl	$29, (%rsp)
	movl	$44, %ebx
	movl	$44, %edi
	movl	$2, %esi
	movl	$33, %edx
	movl	$24, %ecx
	movl	$17, %r8d
	movl	$15, %r9d
	callq	_KTimestamp4
	movl	$15, 16(%rsp)
	movl	$21, 8(%rsp)
	movl	$23, (%rsp)
	movl	$37, -84(%rbp)          # 4-byte Folded Spill
	movl	$37, %edi
	movl	$2, %esi
	movl	$27, %edx
	movl	$24, %ecx
	movl	$11, %r8d
	movl	$15, %r9d
	callq	_KTimestamp4
	callq	_KPopCDep
	movss	-100(%rbp), %xmm0       # 4-byte Reload
	movss	%xmm0, -76(%rbp)        # 4-byte Spill
.Ltmp78:
	#DEBUG_VALUE: audiobeam___ieee754_rem_pio2f:w <- [RBP+-76]
	jmp	.LBB0_22
.Ltmp79:
.LBB0_25:                               # %if.end117
	#DEBUG_VALUE: audiobeam___ieee754_rem_pio2f:x <- [RBP+-72]
	#DEBUG_VALUE: audiobeam___ieee754_rem_pio2f:y <- R12
	#DEBUG_VALUE: audiobeam___ieee754_rem_pio2f:n <- 0
	#DEBUG_VALUE: audiobeam___ieee754_rem_pio2f:ix <- R13D
	movl	$1, %edi
	callq	_KWork
	callq	_KPopCDep
	movl	$55, %edi
	movl	$2, %esi
	movl	$5, %edx
	callq	_KTimestamp1
	movl	$55, %edi
	callq	_KPushCDep
	.loc	1 152 8 is_stmt 1       # audiobeamlibm.c:152:8
	cmpl	$2139095040, %r13d      # imm = 0x7F800000
	jb	.LBB0_27
.Ltmp80:
# BB#26:                                # %if.then120
	#DEBUG_VALUE: audiobeam___ieee754_rem_pio2f:x <- [RBP+-72]
	#DEBUG_VALUE: audiobeam___ieee754_rem_pio2f:y <- R12
	#DEBUG_VALUE: audiobeam___ieee754_rem_pio2f:n <- 0
	movl	$4, %edi
	callq	_KWork
.Ltmp81:
	#DEBUG_VALUE: audiobeam___ieee754_rem_pio2f:x <- undef
	.loc	1 153 19                # audiobeamlibm.c:153:19
	movss	-72(%rbp), %xmm0        # 4-byte Reload
	subss	%xmm0, %xmm0
	movss	%xmm0, -72(%rbp)        # 4-byte Spill
	.loc	1 153 12 is_stmt 0      # audiobeamlibm.c:153:12
	leaq	4(%r12), %rbx
	movl	$34, %edi
	movl	$2, %esi
	movl	$7, %edx
	movl	$1, %ecx
	movl	$2, %r8d
	callq	_KTimestamp2
	movl	$34, %edi
	movl	$4, %edx
	movq	%rbx, %rsi
	callq	_KStore
	movss	-72(%rbp), %xmm0        # 4-byte Reload
	movss	%xmm0, 4(%r12)
	movl	$34, %edi
	movl	$4, %edx
	movq	%r12, %rsi
	callq	_KStore
	.loc	1 153 5                 # audiobeamlibm.c:153:5
	movss	-72(%rbp), %xmm0        # 4-byte Reload
	movss	%xmm0, (%r12)
.Ltmp82:
.LBB0_27:                               # %if.end124
	#DEBUG_VALUE: audiobeam___ieee754_rem_pio2f:n <- 0
	callq	_KPopCDep
	xorl	%r12d, %r12d
	movl	$42, %eax
	movl	$51, %r15d
.LBB0_28:                               # %return
	xorl	%r14d, %r14d
	xorl	%ebx, %ebx
	xorl	%r13d, %r13d
	jmp	.LBB0_29
.LBB0_9:                                # %if.else23
.Ltmp83:
	#DEBUG_VALUE: audiobeam___ieee754_rem_pio2f:x <- [RBP+-72]
	#DEBUG_VALUE: audiobeam___ieee754_rem_pio2f:x <- undef
	#DEBUG_VALUE: audiobeam___ieee754_rem_pio2f:y <- R12
	#DEBUG_VALUE: audiobeam___ieee754_rem_pio2f:n <- 0
	#DEBUG_VALUE: audiobeam___ieee754_rem_pio2f:hx <- EBX
	.loc	1 102 11 is_stmt 1      # audiobeamlibm.c:102:11
	movss	-72(%rbp), %xmm0        # 4-byte Reload
	addss	.LCPI0_9(%rip), %xmm0
.Ltmp84:
	#DEBUG_VALUE: audiobeam___ieee754_rem_pio2f:z <- undef
	movss	%xmm0, -72(%rbp)        # 4-byte Spill
.Ltmp85:
	#DEBUG_VALUE: audiobeam___ieee754_rem_pio2f:z <- [RBP+-72]
	.loc	1 103 14                # audiobeamlibm.c:103:14
	andl	$2147483632, %ebx       # imm = 0x7FFFFFF0
.Ltmp86:
	movl	$53, %edi
	movl	$2, %esi
	movl	$6, %edx
	callq	_KTimestamp1
	callq	_KPopCDep
	movl	$53, %edi
	callq	_KPushCDep
	.loc	1 103 12 is_stmt 0      # audiobeamlibm.c:103:12
	cmpl	$1070141392, %ebx       # imm = 0x3FC90FD0
	jne	.LBB0_10
.Ltmp87:
# BB#11:                                # %if.else33
	#DEBUG_VALUE: audiobeam___ieee754_rem_pio2f:y <- R12
	#DEBUG_VALUE: audiobeam___ieee754_rem_pio2f:n <- 0
	#DEBUG_VALUE: audiobeam___ieee754_rem_pio2f:z <- [RBP+-72]
	movl	$14, %edi
	callq	_KWork
	movss	-72(%rbp), %xmm0        # 4-byte Reload
.Ltmp88:
	#DEBUG_VALUE: audiobeam___ieee754_rem_pio2f:z <- XMM0
	.loc	1 107 9 is_stmt 1       # audiobeamlibm.c:107:9
	addss	.LCPI0_4(%rip), %xmm0
.Ltmp89:
	.loc	1 108 16                # audiobeamlibm.c:108:16
	movss	%xmm0, -72(%rbp)        # 4-byte Spill
.Ltmp90:
	#DEBUG_VALUE: audiobeam___ieee754_rem_pio2f:z <- [RBP+-72]
	addss	.LCPI0_5(%rip), %xmm0
	movss	%xmm0, -76(%rbp)        # 4-byte Spill
	movl	$12, %edi
	movl	$2, %esi
	movl	$10, %edx
	movl	$1, %ecx
	movl	$6, %r8d
	callq	_KTimestamp2
	movl	$12, %edi
	movl	$4, %edx
	movq	%r12, %rsi
	callq	_KStore
	.loc	1 108 9 is_stmt 0       # audiobeamlibm.c:108:9
	movss	-76(%rbp), %xmm0        # 4-byte Reload
	movss	%xmm0, (%r12)
	movl	$13, %esi
	movl	$4, %edx
	movq	%r12, %rdi
	callq	_KLoad0
	movss	-72(%rbp), %xmm0        # 4-byte Reload
.Ltmp91:
	#DEBUG_VALUE: audiobeam___ieee754_rem_pio2f:z <- XMM0
	.loc	1 109 18 is_stmt 1      # audiobeamlibm.c:109:18
	subss	(%r12), %xmm0
.Ltmp92:
	.loc	1 109 16 is_stmt 0      # audiobeamlibm.c:109:16
	addss	.LCPI0_5(%rip), %xmm0
	movss	%xmm0, -72(%rbp)        # 4-byte Spill
	.loc	1 109 9                 # audiobeamlibm.c:109:9
	leaq	4(%r12), %rbx
	movl	$4, (%rsp)
	movl	$14, %edi
	movl	$2, %esi
	movl	$12, %edx
	movl	$1, %ecx
	movl	$8, %r8d
	movl	$13, %r9d
	callq	_KTimestamp3
	movl	$14, %edi
	jmp	.LBB0_12
.Ltmp93:
.LBB0_5:                                # %if.then8
	#DEBUG_VALUE: audiobeam___ieee754_rem_pio2f:y <- R12
	#DEBUG_VALUE: audiobeam___ieee754_rem_pio2f:n <- 0
	#DEBUG_VALUE: audiobeam___ieee754_rem_pio2f:z <- [RBP+-72]
	movl	$12, %edi
	callq	_KWork
.Ltmp94:
	#DEBUG_VALUE: audiobeam___ieee754_rem_pio2f:z <- undef
	.loc	1 93 16 is_stmt 1       # audiobeamlibm.c:93:16
	movss	-72(%rbp), %xmm0        # 4-byte Reload
.Ltmp95:
	#DEBUG_VALUE: audiobeam___ieee754_rem_pio2f:z <- [RBP+-72]
	addss	.LCPI0_10(%rip), %xmm0
	movss	%xmm0, -76(%rbp)        # 4-byte Spill
	movl	$3, %edi
	movl	$2, %esi
	movl	$8, %edx
	movl	$1, %ecx
	movl	$4, %r8d
	callq	_KTimestamp2
	movl	$3, %edi
	movl	$4, %edx
	movq	%r12, %rsi
	callq	_KStore
	.loc	1 93 9 is_stmt 0        # audiobeamlibm.c:93:9
	movss	-76(%rbp), %xmm0        # 4-byte Reload
	movss	%xmm0, (%r12)
	movl	$4, %esi
	movl	$4, %edx
	movq	%r12, %rdi
	callq	_KLoad0
	movss	-72(%rbp), %xmm0        # 4-byte Reload
.Ltmp96:
	#DEBUG_VALUE: audiobeam___ieee754_rem_pio2f:z <- XMM0
	.loc	1 94 18 is_stmt 1       # audiobeamlibm.c:94:18
	subss	(%r12), %xmm0
.Ltmp97:
	.loc	1 94 16 is_stmt 0       # audiobeamlibm.c:94:16
	addss	.LCPI0_10(%rip), %xmm0
	movss	%xmm0, -72(%rbp)        # 4-byte Spill
	.loc	1 94 9                  # audiobeamlibm.c:94:9
	leaq	4(%r12), %rbx
	movl	$4, (%rsp)
	movl	$5, %edi
	movl	$2, %esi
	movl	$10, %edx
	movl	$1, %ecx
	movl	$6, %r8d
	movl	$4, %r9d
	callq	_KTimestamp3
	movl	$5, %edi
.Ltmp98:
.LBB0_7:                                # %if.end22
	movl	$4, %edx
	movq	%rbx, %rsi
	callq	_KStore
	.loc	1 98 9 is_stmt 1        # audiobeamlibm.c:98:9
.Ltmp99:
	movss	-72(%rbp), %xmm0        # 4-byte Reload
	movss	%xmm0, 4(%r12)
	callq	_KPopCDep
	#DEBUG_VALUE: audiobeam___ieee754_rem_pio2f:n <- 0
	movl	$50, %r12d
	movl	$50, %edi
	callq	_KPushCDep
	callq	_KPopCDep
	movl	$1, %r13d
	jmp	.LBB0_8
.Ltmp100:
.LBB0_10:                               # %if.then26
	#DEBUG_VALUE: audiobeam___ieee754_rem_pio2f:y <- R12
	#DEBUG_VALUE: audiobeam___ieee754_rem_pio2f:n <- 0
	#DEBUG_VALUE: audiobeam___ieee754_rem_pio2f:z <- [RBP+-72]
	movl	$12, %edi
	callq	_KWork
.Ltmp101:
	#DEBUG_VALUE: audiobeam___ieee754_rem_pio2f:z <- undef
	.loc	1 104 16                # audiobeamlibm.c:104:16
	movss	-72(%rbp), %xmm0        # 4-byte Reload
.Ltmp102:
	#DEBUG_VALUE: audiobeam___ieee754_rem_pio2f:z <- [RBP+-72]
	addss	.LCPI0_3(%rip), %xmm0
	movss	%xmm0, -76(%rbp)        # 4-byte Spill
	movl	$9, %edi
	movl	$2, %esi
	movl	$8, %edx
	movl	$1, %ecx
	movl	$4, %r8d
	callq	_KTimestamp2
	movl	$9, %edi
	movl	$4, %edx
	movq	%r12, %rsi
	callq	_KStore
	.loc	1 104 9 is_stmt 0       # audiobeamlibm.c:104:9
	movss	-76(%rbp), %xmm0        # 4-byte Reload
	movss	%xmm0, (%r12)
	movl	$10, %esi
	movl	$4, %edx
	movq	%r12, %rdi
	callq	_KLoad0
	movss	-72(%rbp), %xmm0        # 4-byte Reload
.Ltmp103:
	#DEBUG_VALUE: audiobeam___ieee754_rem_pio2f:z <- XMM0
	.loc	1 105 18 is_stmt 1      # audiobeamlibm.c:105:18
	subss	(%r12), %xmm0
.Ltmp104:
	.loc	1 105 16 is_stmt 0      # audiobeamlibm.c:105:16
	addss	.LCPI0_3(%rip), %xmm0
	movss	%xmm0, -72(%rbp)        # 4-byte Spill
	.loc	1 105 9                 # audiobeamlibm.c:105:9
	leaq	4(%r12), %rbx
	movl	$4, (%rsp)
	movl	$11, %edi
	movl	$2, %esi
	movl	$10, %edx
	movl	$1, %ecx
	movl	$6, %r8d
	movl	$10, %r9d
	callq	_KTimestamp3
	movl	$11, %edi
.Ltmp105:
.LBB0_12:                               # %if.end41
	movl	$4, %edx
	movq	%rbx, %rsi
	callq	_KStore
	.loc	1 109 9 is_stmt 1       # audiobeamlibm.c:109:9
.Ltmp106:
	movss	-72(%rbp), %xmm0        # 4-byte Reload
	movss	%xmm0, 4(%r12)
	callq	_KPopCDep
	#DEBUG_VALUE: audiobeam___ieee754_rem_pio2f:n <- 0
	movl	$50, %r12d
	movl	$50, %edi
	callq	_KPushCDep
	callq	_KPopCDep
	movl	$-1, %r13d
.Ltmp107:
.LBB0_8:                                # %return
	xorl	%eax, %eax
	movl	$51, %r15d
	xorl	%r14d, %r14d
	xorl	%ebx, %ebx
	jmp	.LBB0_29
.LBB0_16:                               # %if.then57
.Ltmp108:
	#DEBUG_VALUE: audiobeam___ieee754_rem_pio2f:y <- R12
	#DEBUG_VALUE: audiobeam___ieee754_rem_pio2f:n <- EBX
	#DEBUG_VALUE: audiobeam___ieee754_rem_pio2f:hx <- [RBP+-80]
	#DEBUG_VALUE: audiobeam___ieee754_rem_pio2f:t <- [RBP+-72]
	#DEBUG_VALUE: audiobeam___ieee754_rem_pio2f:r <- [RBP+-72]
	#DEBUG_VALUE: audiobeam___ieee754_rem_pio2f:w <- [RBP+-76]
	movq	%rbx, -96(%rbp)         # 8-byte Spill
.Ltmp109:
	#DEBUG_VALUE: audiobeam___ieee754_rem_pio2f:n <- [RBP+-96]
	movl	$54, %edi
	callq	_KPushCDep
	movl	$3, %edi
	callq	_KWork
.Ltmp110:
	#DEBUG_VALUE: audiobeam___ieee754_rem_pio2f:r <- undef
	#DEBUG_VALUE: audiobeam___ieee754_rem_pio2f:t <- undef
	.loc	1 121 14                # audiobeamlibm.c:121:14
	movss	-72(%rbp), %xmm0        # 4-byte Reload
.Ltmp111:
	#DEBUG_VALUE: audiobeam___ieee754_rem_pio2f:w <- undef
	#DEBUG_VALUE: audiobeam___ieee754_rem_pio2f:r <- [RBP+-72]
	#DEBUG_VALUE: audiobeam___ieee754_rem_pio2f:t <- [RBP+-72]
	subss	-76(%rbp), %xmm0        # 4-byte Folded Reload
	movss	%xmm0, -100(%rbp)       # 4-byte Spill
.Ltmp112:
	#DEBUG_VALUE: audiobeam___ieee754_rem_pio2f:w <- [RBP+-76]
	movl	$3, (%rsp)
	movl	$18, %edi
	movl	$2, %esi
	movl	$20, %edx
	movl	$15, %ecx
	movl	$16, %r8d
	movl	$16, %r9d
	callq	_KTimestamp3
	movl	$18, %edi
	movl	$4, %edx
	movq	%r12, %rsi
	callq	_KStore
	.loc	1 121 7 is_stmt 0       # audiobeamlibm.c:121:7
	movss	-100(%rbp), %xmm0       # 4-byte Reload
	movss	%xmm0, (%r12)
	callq	_KPopCDep
	xorl	%r15d, %r15d
	xorl	%r14d, %r14d
.Ltmp113:
.LBB0_18:
	#DEBUG_VALUE: audiobeam___ieee754_rem_pio2f:y <- R12
	#DEBUG_VALUE: audiobeam___ieee754_rem_pio2f:n <- [RBP+-96]
	#DEBUG_VALUE: audiobeam___ieee754_rem_pio2f:hx <- [RBP+-80]
	#DEBUG_VALUE: audiobeam___ieee754_rem_pio2f:t <- [RBP+-72]
	#DEBUG_VALUE: audiobeam___ieee754_rem_pio2f:r <- [RBP+-72]
	#DEBUG_VALUE: audiobeam___ieee754_rem_pio2f:w <- [RBP+-76]
	movl	-80(%rbp), %r13d        # 4-byte Reload
.Ltmp114:
	#DEBUG_VALUE: audiobeam___ieee754_rem_pio2f:hx <- R13D
	movl	$43, %ebx
	jmp	.LBB0_22
.Ltmp115:
.LBB0_20:
	#DEBUG_VALUE: audiobeam___ieee754_rem_pio2f:y <- R12
	#DEBUG_VALUE: audiobeam___ieee754_rem_pio2f:n <- [RBP+-96]
	#DEBUG_VALUE: audiobeam___ieee754_rem_pio2f:hx <- R13D
	#DEBUG_VALUE: audiobeam___ieee754_rem_pio2f:t <- [RBP+-104]
	#DEBUG_VALUE: audiobeam___ieee754_rem_pio2f:r <- [RBP+-104]
	#DEBUG_VALUE: audiobeam___ieee754_rem_pio2f:w <- [RBP+-76]
	movl	$38, -84(%rbp)          # 4-byte Folded Spill
	movss	-104(%rbp), %xmm0       # 4-byte Reload
	movss	%xmm0, -72(%rbp)        # 4-byte Spill
.Ltmp116:
	#DEBUG_VALUE: audiobeam___ieee754_rem_pio2f:r <- [RBP+-72]
	#DEBUG_VALUE: audiobeam___ieee754_rem_pio2f:t <- [RBP+-72]
	movl	$45, %ebx
.Ltmp117:
.LBB0_22:                               # %if.end101
	#DEBUG_VALUE: audiobeam___ieee754_rem_pio2f:y <- R12
	#DEBUG_VALUE: audiobeam___ieee754_rem_pio2f:n <- [RBP+-96]
	#DEBUG_VALUE: audiobeam___ieee754_rem_pio2f:hx <- R13D
	movl	$42, %edi
	callq	_KPushCDep
	movl	$29, %edi
	movl	$41, %r8d
	movl	$42, %r9d
	movl	%ebx, %esi
	movl	%r14d, %edx
	movl	%r15d, %ecx
	callq	_KPhi4To1
	movl	$28, %edi
	movl	$41, %r8d
	movl	$42, %r9d
	movl	-84(%rbp), %esi         # 4-byte Reload
	movl	%r14d, %edx
	movl	%r15d, %ecx
	callq	_KPhi4To1
	movl	$10, %edi
	callq	_KWork
	movl	$26, %esi
	movl	$4, %edx
	movq	%r12, %rdi
	callq	_KLoad0
	movss	-72(%rbp), %xmm0        # 4-byte Reload
	.loc	1 145 14 is_stmt 1      # audiobeamlibm.c:145:14
	subss	(%r12), %xmm0
	.loc	1 145 12 is_stmt 0      # audiobeamlibm.c:145:12
	subss	-76(%rbp), %xmm0        # 4-byte Folded Reload
	movss	%xmm0, -72(%rbp)        # 4-byte Spill
	.loc	1 145 5                 # audiobeamlibm.c:145:5
	leaq	4(%r12), %r15
	movl	$4, 16(%rsp)
	movl	$26, 8(%rsp)
	movl	$2, (%rsp)
	movl	$27, %edi
	movl	$2, %esi
	movl	$8, %edx
	movl	$28, %ecx
	movl	$4, %r8d
	movl	$29, %r9d
	callq	_KTimestamp4
	movl	$27, %edi
	movl	$4, %edx
	movq	%r15, %rsi
	callq	_KStore
	movss	-72(%rbp), %xmm0        # 4-byte Reload
	movss	%xmm0, 4(%r12)
	movl	$49, %r14d
	movl	$49, %edi
	movl	$2, %esi
	movl	$5, %edx
	callq	_KTimestamp1
	callq	_KPopCDep
	movl	$49, %edi
	callq	_KPushCDep
	.loc	1 146 10 is_stmt 1      # audiobeamlibm.c:146:10
	testl	%r13d, %r13d
	js	.LBB0_23
.Ltmp118:
# BB#24:                                # %if.else116
	#DEBUG_VALUE: audiobeam___ieee754_rem_pio2f:n <- [RBP+-96]
	callq	_KPopCDep
	movl	$47, %ebx
	xorl	%r12d, %r12d
	movl	$51, %r15d
	movq	-96(%rbp), %r13         # 8-byte Reload
.Ltmp119:
	#DEBUG_VALUE: audiobeam___ieee754_rem_pio2f:n <- R13D
	movl	$42, %eax
	jmp	.LBB0_29
.Ltmp120:
.LBB0_23:                               # %if.then108
	#DEBUG_VALUE: audiobeam___ieee754_rem_pio2f:y <- R12
	#DEBUG_VALUE: audiobeam___ieee754_rem_pio2f:n <- [RBP+-96]
	movl	$15, %edi
	callq	_KWork
	movl	$30, %esi
	movl	$4, %edx
	movq	%r12, %rdi
	callq	_KLoad0
	.loc	1 147 15                # audiobeamlibm.c:147:15
.Ltmp121:
	movss	(%r12), %xmm0
	.loc	1 147 14 is_stmt 0      # audiobeamlibm.c:147:14
	xorps	.LCPI0_8(%rip), %xmm0
	movss	%xmm0, -72(%rbp)        # 4-byte Spill
	movl	$31, %edi
	movl	$2, %esi
	movl	$7, %edx
	movl	$30, %ecx
	movl	$2, %r8d
	callq	_KTimestamp2
	movl	$31, %edi
	movl	$4, %edx
	movq	%r12, %rsi
	callq	_KStore
	.loc	1 147 7                 # audiobeamlibm.c:147:7
	movss	-72(%rbp), %xmm0        # 4-byte Reload
	movss	%xmm0, (%r12)
	movl	$32, %esi
	movl	$4, %edx
	movq	%r15, %rdi
	callq	_KLoad0
	.loc	1 148 15 is_stmt 1      # audiobeamlibm.c:148:15
	movss	4(%r12), %xmm0
	.loc	1 148 14 is_stmt 0      # audiobeamlibm.c:148:14
	xorps	.LCPI0_8(%rip), %xmm0
	movss	%xmm0, -72(%rbp)        # 4-byte Spill
	movl	$33, %edi
	movl	$2, %esi
	movl	$7, %edx
	movl	$32, %ecx
	movl	$2, %r8d
	callq	_KTimestamp2
	movl	$33, %edi
	movl	$4, %edx
	movq	%r15, %rsi
	callq	_KStore
	.loc	1 148 7                 # audiobeamlibm.c:148:7
	movss	-72(%rbp), %xmm0        # 4-byte Reload
	movss	%xmm0, 4(%r12)
	movq	-96(%rbp), %r13         # 8-byte Reload
.Ltmp122:
	#DEBUG_VALUE: audiobeam___ieee754_rem_pio2f:n <- R13D
	.loc	1 149 14 is_stmt 1      # audiobeamlibm.c:149:14
	negl	%r13d
.Ltmp123:
	movl	$46, %ebx
	movl	$46, %edi
	movl	$2, %esi
	movl	$12, %edx
	movl	$15, %ecx
	movl	$8, %r8d
	callq	_KTimestamp2
	callq	_KPopCDep
	xorl	%r12d, %r12d
.Ltmp124:
	movl	$51, %r15d
	movl	$42, %eax
.Ltmp125:
.LBB0_29:                               # %return
	#DEBUG_VALUE: audiobeam___ieee754_rem_pio2f:n <- 0
	movl	%r15d, 8(%rsp)
	movl	%eax, (%rsp)
	movl	$35, %edi
	movl	$5, %edx
	movl	$48, %ecx
	xorl	%eax, %eax
	movl	%ebx, %esi
	movl	%r14d, %r8d
	movl	%r12d, %r9d
	callq	_KPhi
	movl	$35, %edi
	movl	$35, %esi
	xorl	%edx, %edx
	callq	_KTimestamp1
	movl	$35, %edi
	callq	_KReturn
	xorl	%esi, %esi
	movabsq	$9045190757858079850, %rdi # imm = 0x7D86F9121FC6F46A
	callq	_KExitRegion
	.loc	1 158 1                 # audiobeamlibm.c:158:1
	movl	%r13d, %eax
	addq	$88, %rsp
	popq	%rbx
	popq	%r12
	popq	%r13
	popq	%r14
	popq	%r15
	popq	%rbp
	retq
.Ltmp126:
.Ltmp127:
	.size	audiobeam___ieee754_rem_pio2f, .Ltmp127-audiobeam___ieee754_rem_pio2f
.Lfunc_end0:
	.cfi_endproc

	.globl	audiobeam___fabsf
	.align	16, 0x90
	.type	audiobeam___fabsf,@function
audiobeam___fabsf:                      # @audiobeam___fabsf
.Lfunc_begin1:
	.loc	1 247 0                 # audiobeamlibm.c:247:0
	.cfi_startproc
# BB#0:                                 # %entry
	pushq	%rbp
.Ltmp128:
	.cfi_def_cfa_offset 16
.Ltmp129:
	.cfi_offset %rbp, -16
	movq	%rsp, %rbp
.Ltmp130:
	.cfi_def_cfa_register %rbp
	pushq	%r15
	pushq	%r14
	pushq	%rbx
	subq	$24, %rsp
.Ltmp131:
	.cfi_offset %rbx, -40
.Ltmp132:
	.cfi_offset %r14, -32
.Ltmp133:
	.cfi_offset %r15, -24
	#DEBUG_VALUE: audiobeam___fabsf:x <- XMM0
	movss	%xmm0, -44(%rbp)        # 4-byte Spill
.Ltmp134:
	#DEBUG_VALUE: audiobeam___fabsf:x <- [RBP+-44]
	movabsq	$-2946245471555163520, %r14 # imm = 0xD71CD55A7ED9EA80
	xorl	%esi, %esi
	movq	%r14, %rdi
	callq	_KEnterRegion
	movl	$5, %edi
	xorl	%esi, %esi
	callq	_KPrepRTable
	movl	$11, %edi
	callq	_KWork
	movl	$1, %edi
	callq	_KDeqArg
	movl	$1, %edi
	movl	$1, %esi
	xorl	%edx, %edx
	callq	_KTimestamp1
	leaq	-32(%rbp), %rbx
	movl	$1, %edi
	movl	$4, %edx
	movq	%rbx, %rsi
	callq	_KStore
	.loc	1 249 3 prologue_end    # audiobeamlibm.c:249:3
.Ltmp135:
	movss	-44(%rbp), %xmm0        # 4-byte Reload
	movss	%xmm0, -32(%rbp)
	movl	$2, %esi
	movl	$4, %edx
	movq	%rbx, %rdi
	callq	_KLoad0
	movl	$2147483647, %ebx       # imm = 0x7FFFFFFF
.Ltmp136:
	.loc	1 250 3                 # audiobeamlibm.c:250:3
	andl	-32(%rbp), %ebx
	movl	$3, %edi
	movl	$2, %esi
	movl	$1, %edx
	callq	_KTimestamp1
	leaq	-40(%rbp), %r15
	movl	$3, %edi
	movl	$4, %edx
	movq	%r15, %rsi
	callq	_KStore
	movl	%ebx, -40(%rbp)
	movl	$4, %esi
	movl	$4, %edx
	movq	%r15, %rdi
	callq	_KLoad0
	movss	-40(%rbp), %xmm0
	#DEBUG_VALUE: audiobeam___fabsf:x <- [RBP+-44]
	movss	%xmm0, -44(%rbp)        # 4-byte Spill
	movl	$4, %edi
	movl	$4, %esi
	xorl	%edx, %edx
	callq	_KTimestamp1
	movl	$4, %edi
	callq	_KReturn
	xorl	%esi, %esi
	movq	%r14, %rdi
	callq	_KExitRegion
.Ltmp137:
	.loc	1 251 3                 # audiobeamlibm.c:251:3
	movss	-44(%rbp), %xmm0        # 4-byte Reload
	addq	$24, %rsp
	popq	%rbx
	popq	%r14
	popq	%r15
	popq	%rbp
	retq
.Ltmp138:
.Ltmp139:
	.size	audiobeam___fabsf, .Ltmp139-audiobeam___fabsf
.Lfunc_end1:
	.cfi_endproc

	.section	.rodata.cst4,"aM",@progbits,4
	.align	4
.LCPI2_0:
	.long	2907166542              # float -1.13596476E-11
.LCPI2_1:
	.long	823096566               # float 2.08757234E-9
.LCPI2_2:
	.long	3029594748              # float -2.75573143E-7
.LCPI2_3:
	.long	936381697               # float 2.48015876E-5
.LCPI2_4:
	.long	3132492641              # float -0.00138888892
.LCPI2_5:
	.long	1026206379              # float 0.0416666679
.LCPI2_6:
	.long	1049624576              # float 0.28125
.LCPI2_7:
	.long	1056964608              # float 0.5
.LCPI2_8:
	.long	1065353216              # float 1
	.text
	.globl	audiobeam___kernel_cosf
	.align	16, 0x90
	.type	audiobeam___kernel_cosf,@function
audiobeam___kernel_cosf:                # @audiobeam___kernel_cosf
.Lfunc_begin2:
	.loc	1 162 0                 # audiobeamlibm.c:162:0
	.cfi_startproc
# BB#0:                                 # %entry
	pushq	%rbp
.Ltmp140:
	.cfi_def_cfa_offset 16
.Ltmp141:
	.cfi_offset %rbp, -16
	movq	%rsp, %rbp
.Ltmp142:
	.cfi_def_cfa_register %rbp
	pushq	%r15
	pushq	%r14
	pushq	%r13
	pushq	%r12
	pushq	%rbx
	subq	$72, %rsp
.Ltmp143:
	.cfi_offset %rbx, -56
.Ltmp144:
	.cfi_offset %r12, -48
.Ltmp145:
	.cfi_offset %r13, -40
.Ltmp146:
	.cfi_offset %r14, -32
.Ltmp147:
	.cfi_offset %r15, -24
	#DEBUG_VALUE: audiobeam___kernel_cosf:x <- XMM0
	#DEBUG_VALUE: audiobeam___kernel_cosf:y <- XMM1
	movss	%xmm1, -64(%rbp)        # 4-byte Spill
.Ltmp148:
	#DEBUG_VALUE: audiobeam___kernel_cosf:y <- [RBP+-64]
	movss	%xmm0, -60(%rbp)        # 4-byte Spill
.Ltmp149:
	#DEBUG_VALUE: audiobeam___kernel_cosf:x <- [RBP+-60]
	#DEBUG_VALUE: audiobeam___kernel_cosf:x <- undef
	movabsq	$-6683336362439265761, %r14 # imm = 0xA34004FCFA5B321F
	xorl	%esi, %esi
	movq	%r14, %rdi
	callq	_KEnterRegion
	movl	$14, %edi
	xorl	%esi, %esi
	callq	_KPrepRTable
	movl	$2, %edi
	callq	_KDeqArg
	movl	$1, %edi
	callq	_KDeqArg
	movl	$7, %edi
	callq	_KWork
	movl	$1, %edi
	movl	$1, %esi
	xorl	%edx, %edx
	callq	_KTimestamp1
	leaq	-48(%rbp), %rbx
	movl	$1, %edi
	movl	$4, %edx
	movq	%rbx, %rsi
	callq	_KStore
	.loc	1 165 3 prologue_end    # audiobeamlibm.c:165:3
.Ltmp150:
	movss	-60(%rbp), %xmm0        # 4-byte Reload
	movss	%xmm0, -48(%rbp)
.Ltmp151:
	#DEBUG_VALUE: audiobeam___kernel_cosf:x <- [RBP+-60]
	movl	$3, %esi
	movl	$4, %edx
	movq	%rbx, %rdi
	callq	_KLoad0
	movl	$2147483647, %ebx       # imm = 0x7FFFFFFF
.Ltmp152:
	.loc	1 166 3                 # audiobeamlibm.c:166:3
	andl	-48(%rbp), %ebx
.Ltmp153:
	#DEBUG_VALUE: audiobeam___kernel_cosf:ix <- EBX
	movl	$12, %edi
	movl	$3, %esi
	movl	$2, %edx
	callq	_KTimestamp1
	.loc	1 167 8                 # audiobeamlibm.c:167:8
	cmpl	$838860799, %ebx        # imm = 0x31FFFFFF
	ja	.LBB2_3
.Ltmp154:
# BB#1:                                 # %if.then
	#DEBUG_VALUE: audiobeam___kernel_cosf:x <- [RBP+-60]
	#DEBUG_VALUE: audiobeam___kernel_cosf:y <- [RBP+-64]
	#DEBUG_VALUE: audiobeam___kernel_cosf:ix <- EBX
	movl	$12, %edi
	callq	_KPushCDep
	movl	$1, %edi
	callq	_KWork
	.loc	1 168 12                # audiobeamlibm.c:168:12
.Ltmp155:
	cvttss2si	-60(%rbp), %r15d # 4-byte Folded Reload
	movl	$13, %r13d
	movl	$13, %edi
	movl	$1, %esi
	movl	$1, %edx
	movl	$3, %ecx
	movl	$3, %r8d
	callq	_KTimestamp2
	callq	_KPopCDep
.Ltmp156:
	.loc	1 168 10 is_stmt 0      # audiobeamlibm.c:168:10
	testl	%r15d, %r15d
	je	.LBB2_2
.Ltmp157:
.LBB2_3:                                # %if.end4
	#DEBUG_VALUE: audiobeam___kernel_cosf:x <- [RBP+-60]
	#DEBUG_VALUE: audiobeam___kernel_cosf:y <- [RBP+-64]
	#DEBUG_VALUE: audiobeam___kernel_cosf:ix <- EBX
	movl	$12, %edi
	callq	_KPushCDep
	movl	$46, %edi
	callq	_KWork
	.loc	1 170 8 is_stmt 1       # audiobeamlibm.c:170:8
	movss	-60(%rbp), %xmm1        # 4-byte Reload
	mulss	%xmm1, %xmm1
.Ltmp158:
	#DEBUG_VALUE: audiobeam___kernel_cosf:z <- XMM1
	movss	%xmm1, -72(%rbp)        # 4-byte Spill
	movss	.LCPI2_0(%rip), %xmm0
	.loc	1 173 54                # audiobeamlibm.c:173:54
	mulss	%xmm1, %xmm0
	addss	.LCPI2_1(%rip), %xmm0
	.loc	1 172 52                # audiobeamlibm.c:172:52
	mulss	%xmm1, %xmm0
	.loc	1 172 37 is_stmt 0      # audiobeamlibm.c:172:37
	addss	.LCPI2_2(%rip), %xmm0
	.loc	1 171 71 is_stmt 1      # audiobeamlibm.c:171:71
	mulss	%xmm1, %xmm0
	.loc	1 171 56 is_stmt 0      # audiobeamlibm.c:171:56
	addss	.LCPI2_3(%rip), %xmm0
	.loc	1 171 50                # audiobeamlibm.c:171:50
	mulss	%xmm1, %xmm0
	.loc	1 171 35                # audiobeamlibm.c:171:35
	addss	.LCPI2_4(%rip), %xmm0
	.loc	1 171 29                # audiobeamlibm.c:171:29
	mulss	%xmm1, %xmm0
	.loc	1 171 14                # audiobeamlibm.c:171:14
	addss	.LCPI2_5(%rip), %xmm0
	.loc	1 171 8                 # audiobeamlibm.c:171:8
	mulss	%xmm1, %xmm0
.Ltmp159:
	#DEBUG_VALUE: audiobeam___kernel_cosf:r <- XMM0
	#DEBUG_VALUE: audiobeam___kernel_cosf:z <- [RBP+-72]
	movss	%xmm0, -68(%rbp)        # 4-byte Spill
.Ltmp160:
	#DEBUG_VALUE: audiobeam___kernel_cosf:r <- [RBP+-68]
	movl	$8, %r15d
	movl	$8, %edi
	movl	$3, %esi
	movl	$3, %edx
	callq	_KTimestamp1
	callq	_KPopCDep
	movl	$8, %edi
	callq	_KPushCDep
	.loc	1 174 8 is_stmt 1       # audiobeamlibm.c:174:8
	cmpl	$1050253721, %ebx       # imm = 0x3E999999
	ja	.LBB2_5
.Ltmp161:
# BB#4:                                 # %if.then17
	#DEBUG_VALUE: audiobeam___kernel_cosf:x <- [RBP+-60]
	#DEBUG_VALUE: audiobeam___kernel_cosf:y <- [RBP+-64]
	#DEBUG_VALUE: audiobeam___kernel_cosf:z <- [RBP+-72]
	#DEBUG_VALUE: audiobeam___kernel_cosf:r <- [RBP+-68]
	movl	$21, %edi
	callq	_KWork
	movss	.LCPI2_7(%rip), %xmm0
	movss	-72(%rbp), %xmm1        # 4-byte Reload
.Ltmp162:
	#DEBUG_VALUE: audiobeam___kernel_cosf:z <- XMM1
	.loc	1 175 30                # audiobeamlibm.c:175:30
	mulss	%xmm1, %xmm0
	movss	-68(%rbp), %xmm2        # 4-byte Reload
.Ltmp163:
	#DEBUG_VALUE: audiobeam___kernel_cosf:r <- XMM2
	.loc	1 175 52 is_stmt 0      # audiobeamlibm.c:175:52
	mulss	%xmm1, %xmm2
.Ltmp164:
	movss	-60(%rbp), %xmm1        # 4-byte Reload
.Ltmp165:
	#DEBUG_VALUE: audiobeam___kernel_cosf:x <- XMM1
	.loc	1 175 60                # audiobeamlibm.c:175:60
	mulss	-64(%rbp), %xmm1        # 4-byte Folded Reload
.Ltmp166:
	.loc	1 175 52                # audiobeamlibm.c:175:52
	subss	%xmm1, %xmm2
	.loc	1 175 30                # audiobeamlibm.c:175:30
	subss	%xmm2, %xmm0
	movss	.LCPI2_8(%rip), %xmm1
	.loc	1 175 12                # audiobeamlibm.c:175:12
	subss	%xmm0, %xmm1
	movss	%xmm1, -60(%rbp)        # 4-byte Spill
	movl	$58, (%rsp)
	movl	$10, %r12d
	movl	$10, %edi
	movl	$2, %esi
	movl	$11, %edx
	movl	$1, %ecx
	movl	$56, %r8d
	movl	$3, %r9d
	callq	_KTimestamp3
	jmp	.LBB2_9
.LBB2_5:                                # %if.else
.Ltmp167:
	#DEBUG_VALUE: audiobeam___kernel_cosf:x <- [RBP+-60]
	#DEBUG_VALUE: audiobeam___kernel_cosf:y <- [RBP+-64]
	#DEBUG_VALUE: audiobeam___kernel_cosf:ix <- EBX
	#DEBUG_VALUE: audiobeam___kernel_cosf:z <- [RBP+-72]
	#DEBUG_VALUE: audiobeam___kernel_cosf:r <- [RBP+-68]
	movl	$1, %edi
	callq	_KWork
	movl	$9, %edi
	movl	$3, %esi
	movl	$4, %edx
	callq	_KTimestamp1
	callq	_KPopCDep
	movl	$9, %edi
	callq	_KPushCDep
	.loc	1 177 10 is_stmt 1      # audiobeamlibm.c:177:10
.Ltmp168:
	cmpl	$1061683201, %ebx       # imm = 0x3F480001
	jb	.LBB2_7
.Ltmp169:
# BB#6:                                 # %if.then25
	#DEBUG_VALUE: audiobeam___kernel_cosf:x <- [RBP+-60]
	#DEBUG_VALUE: audiobeam___kernel_cosf:y <- [RBP+-64]
	#DEBUG_VALUE: audiobeam___kernel_cosf:z <- [RBP+-72]
	#DEBUG_VALUE: audiobeam___kernel_cosf:r <- [RBP+-68]
	#DEBUG_VALUE: audiobeam___kernel_cosf:qx <- 2.812500e-01
	callq	_KPopCDep
	movss	.LCPI2_6(%rip), %xmm0
	movss	%xmm0, -76(%rbp)        # 4-byte Spill
	xorl	%r12d, %r12d
	jmp	.LBB2_8
.LBB2_2:                                # %if.then3
	movl	$13, %edi
	callq	_KPushCDep
	callq	_KPopCDep
	movss	.LCPI2_8(%rip), %xmm0
	movss	%xmm0, -60(%rbp)        # 4-byte Spill
	xorl	%r15d, %r15d
	xorl	%r12d, %r12d
	jmp	.LBB2_10
.LBB2_7:                                # %if.else26
	#DEBUG_VALUE: audiobeam___kernel_cosf:x <- [RBP+-60]
	#DEBUG_VALUE: audiobeam___kernel_cosf:y <- [RBP+-64]
.Ltmp170:
	#DEBUG_VALUE: audiobeam___kernel_cosf:ix <- EBX
	#DEBUG_VALUE: audiobeam___kernel_cosf:z <- [RBP+-72]
	#DEBUG_VALUE: audiobeam___kernel_cosf:r <- [RBP+-68]
	movl	$6, %edi
	callq	_KWork
	.loc	1 180 7                 # audiobeamlibm.c:180:7
.Ltmp171:
	addl	$-16777216, %ebx        # imm = 0xFFFFFFFFFF000000
.Ltmp172:
	movl	$5, %r12d
	movl	$4, %edi
	movl	$3, %esi
	movl	$5, %edx
	callq	_KTimestamp1
	leaq	-56(%rbp), %r15
	movl	$4, %edi
	movl	$4, %edx
	movq	%r15, %rsi
	callq	_KStore
	movl	%ebx, -56(%rbp)
	movl	$5, %esi
	movl	$4, %edx
	movq	%r15, %rdi
	callq	_KLoad0
	movss	-56(%rbp), %xmm0
.Ltmp173:
	#DEBUG_VALUE: audiobeam___kernel_cosf:qx <- [RBP+-76]
	movss	%xmm0, -76(%rbp)        # 4-byte Spill
	movl	$5, %edi
	movl	$5, %esi
	xorl	%edx, %edx
	callq	_KTimestamp1
	callq	_KPopCDep
.Ltmp174:
.LBB2_8:                                # %if.end30
	#DEBUG_VALUE: audiobeam___kernel_cosf:x <- [RBP+-60]
	#DEBUG_VALUE: audiobeam___kernel_cosf:y <- [RBP+-64]
	#DEBUG_VALUE: audiobeam___kernel_cosf:z <- [RBP+-72]
	#DEBUG_VALUE: audiobeam___kernel_cosf:r <- [RBP+-68]
	movl	$8, %r15d
	movl	$8, %edi
	callq	_KPushCDep
	movl	$7, %edi
	movl	$8, %edx
	movl	$9, %ecx
	movl	%r12d, %esi
	callq	_KPhi2To1
	movl	$25, %edi
	callq	_KWork
	movss	.LCPI2_7(%rip), %xmm0
	movss	-72(%rbp), %xmm1        # 4-byte Reload
.Ltmp175:
	#DEBUG_VALUE: audiobeam___kernel_cosf:z <- XMM1
	.loc	1 181 10                # audiobeamlibm.c:181:10
	mulss	%xmm1, %xmm0
	movss	-76(%rbp), %xmm2        # 4-byte Reload
	subss	%xmm2, %xmm0
.Ltmp176:
	#DEBUG_VALUE: audiobeam___kernel_cosf:hz <- XMM0
	movss	.LCPI2_8(%rip), %xmm3
	.loc	1 182 10                # audiobeamlibm.c:182:10
	subss	%xmm2, %xmm3
.Ltmp177:
	#DEBUG_VALUE: audiobeam___kernel_cosf:a <- XMM3
	movss	-68(%rbp), %xmm2        # 4-byte Reload
.Ltmp178:
	#DEBUG_VALUE: audiobeam___kernel_cosf:r <- XMM2
	.loc	1 183 25                # audiobeamlibm.c:183:25
	mulss	%xmm1, %xmm2
.Ltmp179:
	movss	-60(%rbp), %xmm1        # 4-byte Reload
.Ltmp180:
	#DEBUG_VALUE: audiobeam___kernel_cosf:x <- XMM1
	.loc	1 183 33 is_stmt 0      # audiobeamlibm.c:183:33
	mulss	-64(%rbp), %xmm1        # 4-byte Folded Reload
.Ltmp181:
	.loc	1 183 25                # audiobeamlibm.c:183:25
	subss	%xmm1, %xmm2
	.loc	1 183 18                # audiobeamlibm.c:183:18
	subss	%xmm2, %xmm0
.Ltmp182:
	.loc	1 183 12                # audiobeamlibm.c:183:12
	subss	%xmm0, %xmm3
.Ltmp183:
	movss	%xmm3, -60(%rbp)        # 4-byte Spill
	movl	$6, 16(%rsp)
	movl	$7, 8(%rsp)
	movl	$58, (%rsp)
	movl	$11, %r12d
	movl	$11, %edi
	movl	$2, %esi
	movl	$11, %edx
	movl	$1, %ecx
	movl	$56, %r8d
	movl	$3, %r9d
	callq	_KTimestamp4
.Ltmp184:
.LBB2_9:                                # %return
	callq	_KPopCDep
	xorl	%r13d, %r13d
.LBB2_10:                               # %return
	movl	$6, %edi
	movl	$12, %edx
	movl	%r12d, %esi
	movl	%r13d, %ecx
	movl	%r15d, %r8d
	callq	_KPhi3To1
	movl	$6, %edi
	movl	$6, %esi
	xorl	%edx, %edx
	callq	_KTimestamp1
	movl	$6, %edi
	callq	_KReturn
	xorl	%esi, %esi
	movq	%r14, %rdi
	callq	_KExitRegion
	.loc	1 185 1 is_stmt 1       # audiobeamlibm.c:185:1
	movss	-60(%rbp), %xmm0        # 4-byte Reload
	addq	$72, %rsp
	popq	%rbx
	popq	%r12
	popq	%r13
	popq	%r14
	popq	%r15
	popq	%rbp
	retq
.Ltmp185:
.Ltmp186:
	.size	audiobeam___kernel_cosf, .Ltmp186-audiobeam___kernel_cosf
.Lfunc_end2:
	.cfi_endproc

	.section	.rodata.cst4,"aM",@progbits,4
	.align	4
.LCPI3_0:
	.long	791595475               # float 1.58969102E-10
.LCPI3_1:
	.long	3000446772              # float -2.50507597E-8
.LCPI3_2:
	.long	909700891               # float 2.75573143E-6
.LCPI3_3:
	.long	3109031169              # float -1.98412701E-4
.LCPI3_4:
	.long	1007192201              # float 0.00833333377
.LCPI3_5:
	.long	1056964608              # float 0.5
.LCPI3_6:
	.long	1042983595              # float 0.166666672
.LCPI3_7:
	.long	3190467243              # float -0.166666672
	.text
	.globl	audiobeam___kernel_sinf
	.align	16, 0x90
	.type	audiobeam___kernel_sinf,@function
audiobeam___kernel_sinf:                # @audiobeam___kernel_sinf
.Lfunc_begin3:
	.loc	1 189 0                 # audiobeamlibm.c:189:0
	.cfi_startproc
# BB#0:                                 # %entry
	pushq	%rbp
.Ltmp187:
	.cfi_def_cfa_offset 16
.Ltmp188:
	.cfi_offset %rbp, -16
	movq	%rsp, %rbp
.Ltmp189:
	.cfi_def_cfa_register %rbp
	pushq	%r15
	pushq	%r14
	pushq	%r13
	pushq	%r12
	pushq	%rbx
	subq	$56, %rsp
.Ltmp190:
	.cfi_offset %rbx, -56
.Ltmp191:
	.cfi_offset %r12, -48
.Ltmp192:
	.cfi_offset %r13, -40
.Ltmp193:
	.cfi_offset %r14, -32
.Ltmp194:
	.cfi_offset %r15, -24
	#DEBUG_VALUE: audiobeam___kernel_sinf:x <- XMM0
	#DEBUG_VALUE: audiobeam___kernel_sinf:y <- XMM1
	#DEBUG_VALUE: audiobeam___kernel_sinf:iy <- EDI
	movl	%edi, %r15d
.Ltmp195:
	#DEBUG_VALUE: audiobeam___kernel_sinf:iy <- R15D
	movss	%xmm1, -68(%rbp)        # 4-byte Spill
.Ltmp196:
	#DEBUG_VALUE: audiobeam___kernel_sinf:y <- [RBP+-68]
	movss	%xmm0, -52(%rbp)        # 4-byte Spill
.Ltmp197:
	#DEBUG_VALUE: audiobeam___kernel_sinf:x <- [RBP+-52]
	#DEBUG_VALUE: audiobeam___kernel_sinf:x <- undef
	movabsq	$4152691362527702438, %r14 # imm = 0x39A152CAD54BEDA6
	xorl	%esi, %esi
	movq	%r14, %rdi
	callq	_KEnterRegion
	movl	$11, %edi
	xorl	%esi, %esi
	callq	_KPrepRTable
	movl	$7, %edi
	callq	_KWork
	movl	$3, %edi
	callq	_KDeqArg
	movl	$2, %edi
	callq	_KDeqArg
	movl	$1, %edi
	callq	_KDeqArg
	movl	$1, %edi
	movl	$1, %esi
	xorl	%edx, %edx
	callq	_KTimestamp1
	leaq	-48(%rbp), %rbx
	movl	$1, %edi
	movl	$4, %edx
	movq	%rbx, %rsi
	callq	_KStore
	.loc	1 192 3 prologue_end    # audiobeamlibm.c:192:3
.Ltmp198:
	movss	-52(%rbp), %xmm0        # 4-byte Reload
	movss	%xmm0, -48(%rbp)
.Ltmp199:
	#DEBUG_VALUE: audiobeam___kernel_sinf:x <- [RBP+-52]
	movl	$4, %esi
	movl	$4, %edx
	movq	%rbx, %rdi
	callq	_KLoad0
	movl	$2113929216, %ebx       # imm = 0x7E000000
.Ltmp200:
	.loc	1 193 3                 # audiobeamlibm.c:193:3
	andl	-48(%rbp), %ebx
.Ltmp201:
	#DEBUG_VALUE: audiobeam___kernel_sinf:ix <- EBX
	movl	$8, %edi
	movl	$4, %esi
	movl	$2, %edx
	callq	_KTimestamp1
	.loc	1 194 8                 # audiobeamlibm.c:194:8
	cmpl	$838860799, %ebx        # imm = 0x31FFFFFF
	ja	.LBB3_3
.Ltmp202:
# BB#1:                                 # %if.then
	#DEBUG_VALUE: audiobeam___kernel_sinf:x <- [RBP+-52]
	#DEBUG_VALUE: audiobeam___kernel_sinf:y <- [RBP+-68]
	#DEBUG_VALUE: audiobeam___kernel_sinf:iy <- R15D
	movl	$8, %edi
	callq	_KPushCDep
	movl	$1, %r13d
	movl	$1, %edi
	callq	_KWork
	.loc	1 195 10                # audiobeamlibm.c:195:10
.Ltmp203:
	cvttss2si	-52(%rbp), %r12d # 4-byte Folded Reload
	movl	$9, %ebx
	movl	$9, %edi
	movl	$1, %esi
	movl	$1, %edx
	movl	$4, %ecx
	movl	$3, %r8d
	callq	_KTimestamp2
	callq	_KPopCDep
.Ltmp204:
	.loc	1 195 10 is_stmt 0      # audiobeamlibm.c:195:10
	testl	%r12d, %r12d
	je	.LBB3_2
.Ltmp205:
.LBB3_3:                                # %if.end4
	#DEBUG_VALUE: audiobeam___kernel_sinf:x <- [RBP+-52]
	#DEBUG_VALUE: audiobeam___kernel_sinf:y <- [RBP+-68]
	#DEBUG_VALUE: audiobeam___kernel_sinf:iy <- R15D
	movl	$8, %edi
	callq	_KPushCDep
	movl	$39, %edi
	callq	_KWork
	movss	-52(%rbp), %xmm0        # 4-byte Reload
.Ltmp206:
	#DEBUG_VALUE: audiobeam___kernel_sinf:x <- XMM0
	.loc	1 197 8 is_stmt 1       # audiobeamlibm.c:197:8
	movaps	%xmm0, %xmm2
	mulss	%xmm2, %xmm2
.Ltmp207:
	#DEBUG_VALUE: audiobeam___kernel_sinf:z <- XMM2
	.loc	1 198 8                 # audiobeamlibm.c:198:8
	movss	%xmm2, -60(%rbp)        # 4-byte Spill
	movaps	%xmm2, %xmm1
	mulss	%xmm0, %xmm1
.Ltmp208:
	#DEBUG_VALUE: audiobeam___kernel_sinf:v <- XMM0
	movss	%xmm1, -56(%rbp)        # 4-byte Spill
.Ltmp209:
	#DEBUG_VALUE: audiobeam___kernel_sinf:v <- [RBP+-52]
	#DEBUG_VALUE: audiobeam___kernel_sinf:x <- [RBP+-52]
	movss	.LCPI3_0(%rip), %xmm0
	.loc	1 199 86                # audiobeamlibm.c:199:86
	mulss	%xmm2, %xmm0
	.loc	1 199 71 is_stmt 0      # audiobeamlibm.c:199:71
	addss	.LCPI3_1(%rip), %xmm0
	.loc	1 199 65                # audiobeamlibm.c:199:65
	mulss	%xmm2, %xmm0
	.loc	1 199 50                # audiobeamlibm.c:199:50
	addss	.LCPI3_2(%rip), %xmm0
	.loc	1 199 44                # audiobeamlibm.c:199:44
	mulss	%xmm2, %xmm0
	.loc	1 199 29                # audiobeamlibm.c:199:29
	addss	.LCPI3_3(%rip), %xmm0
	.loc	1 199 23                # audiobeamlibm.c:199:23
	mulss	%xmm2, %xmm0
.Ltmp210:
	#DEBUG_VALUE: audiobeam___kernel_sinf:z <- [RBP+-60]
	.loc	1 199 8                 # audiobeamlibm.c:199:8
	addss	.LCPI3_4(%rip), %xmm0
.Ltmp211:
	#DEBUG_VALUE: audiobeam___kernel_sinf:r <- XMM0
	movss	%xmm0, -64(%rbp)        # 4-byte Spill
.Ltmp212:
	#DEBUG_VALUE: audiobeam___kernel_sinf:r <- [RBP+-64]
	movl	$10, %r12d
	movl	$10, %edi
	movl	$3, %esi
	movl	$1, %edx
	movl	$4, %ecx
	movl	$3, %r8d
	callq	_KTimestamp2
	callq	_KPopCDep
	movl	$10, %edi
	callq	_KPushCDep
	.loc	1 200 8 is_stmt 1       # audiobeamlibm.c:200:8
	testl	%r15d, %r15d
	je	.LBB3_4
.Ltmp213:
# BB#5:                                 # %if.else
	#DEBUG_VALUE: audiobeam___kernel_sinf:x <- [RBP+-52]
	#DEBUG_VALUE: audiobeam___kernel_sinf:y <- [RBP+-68]
	#DEBUG_VALUE: audiobeam___kernel_sinf:z <- [RBP+-60]
	#DEBUG_VALUE: audiobeam___kernel_sinf:v <- [RBP+-52]
	#DEBUG_VALUE: audiobeam___kernel_sinf:r <- [RBP+-64]
	movl	$28, %edi
	callq	_KWork
	movss	.LCPI3_5(%rip), %xmm0
	movss	-68(%rbp), %xmm1        # 4-byte Reload
.Ltmp214:
	#DEBUG_VALUE: audiobeam___kernel_sinf:y <- XMM1
	.loc	1 201 34                # audiobeamlibm.c:201:34
	mulss	%xmm1, %xmm0
	movss	-56(%rbp), %xmm2        # 4-byte Reload
	movss	-64(%rbp), %xmm3        # 4-byte Reload
.Ltmp215:
	#DEBUG_VALUE: audiobeam___kernel_sinf:r <- XMM3
	.loc	1 201 55 is_stmt 0      # audiobeamlibm.c:201:55
	mulss	%xmm2, %xmm3
.Ltmp216:
	.loc	1 201 34                # audiobeamlibm.c:201:34
	subss	%xmm3, %xmm0
	movss	-60(%rbp), %xmm3        # 4-byte Reload
.Ltmp217:
	#DEBUG_VALUE: audiobeam___kernel_sinf:z <- XMM3
	.loc	1 201 28                # audiobeamlibm.c:201:28
	mulss	%xmm0, %xmm3
.Ltmp218:
	subss	%xmm1, %xmm3
	.loc	1 201 71                # audiobeamlibm.c:201:71
	mulss	.LCPI3_6(%rip), %xmm2
	addss	%xmm3, %xmm2
	.loc	1 201 20                # audiobeamlibm.c:201:20
	movss	-52(%rbp), %xmm0        # 4-byte Reload
	subss	%xmm2, %xmm0
	movss	%xmm0, -52(%rbp)        # 4-byte Spill
	movl	$53, 16(%rsp)
	movl	$4, 8(%rsp)
	movl	$51, (%rsp)
	movl	$7, %r13d
	movl	$7, %edi
	movl	$3, %esi
	movl	$19, %edx
	movl	$2, %ecx
	movl	$18, %r8d
	movl	$1, %r9d
	callq	_KTimestamp4
	jmp	.LBB3_6
.Ltmp219:
.LBB3_4:                                # %if.then15
	#DEBUG_VALUE: audiobeam___kernel_sinf:x <- [RBP+-52]
	#DEBUG_VALUE: audiobeam___kernel_sinf:z <- [RBP+-60]
	#DEBUG_VALUE: audiobeam___kernel_sinf:v <- [RBP+-52]
	#DEBUG_VALUE: audiobeam___kernel_sinf:r <- [RBP+-64]
	movl	$14, %edi
	callq	_KWork
	movss	-60(%rbp), %xmm0        # 4-byte Reload
.Ltmp220:
	#DEBUG_VALUE: audiobeam___kernel_sinf:z <- XMM0
	.loc	1 200 50 is_stmt 1      # audiobeamlibm.c:200:50
	mulss	-64(%rbp), %xmm0        # 4-byte Folded Reload
.Ltmp221:
	.loc	1 200 35 is_stmt 0      # audiobeamlibm.c:200:35
	addss	.LCPI3_7(%rip), %xmm0
	movss	-56(%rbp), %xmm1        # 4-byte Reload
	.loc	1 200 29                # audiobeamlibm.c:200:29
	mulss	%xmm0, %xmm1
	.loc	1 200 25                # audiobeamlibm.c:200:25
	movss	-52(%rbp), %xmm0        # 4-byte Reload
	addss	%xmm1, %xmm0
	movss	%xmm0, -52(%rbp)        # 4-byte Spill
	movl	$49, (%rsp)
	movl	$6, %r13d
	movl	$6, %edi
	movl	$3, %esi
	movl	$15, %edx
	movl	$1, %ecx
	movl	$47, %r8d
	movl	$4, %r9d
	callq	_KTimestamp3
.Ltmp222:
.LBB3_6:                                # %return
	callq	_KPopCDep
	xorl	%ebx, %ebx
	jmp	.LBB3_7
.LBB3_2:                                # %if.then3
	#DEBUG_VALUE: audiobeam___kernel_sinf:x <- [RBP+-52]
	movl	$9, %edi
	callq	_KPushCDep
	callq	_KPopCDep
	xorl	%r12d, %r12d
.LBB3_7:                                # %return
	movl	$5, %edi
	movl	$8, %edx
	movl	%r13d, %esi
	movl	%ebx, %ecx
	movl	%r12d, %r8d
	callq	_KPhi3To1
	movl	$5, %edi
	movl	$5, %esi
	xorl	%edx, %edx
	callq	_KTimestamp1
	movl	$5, %edi
	callq	_KReturn
	xorl	%esi, %esi
	movq	%r14, %rdi
	callq	_KExitRegion
	.loc	1 202 1 is_stmt 1       # audiobeamlibm.c:202:1
	movss	-52(%rbp), %xmm0        # 4-byte Reload
	addq	$56, %rsp
	popq	%rbx
	popq	%r12
	popq	%r13
	popq	%r14
	popq	%r15
	popq	%rbp
	retq
.Ltmp223:
.Ltmp224:
	.size	audiobeam___kernel_sinf, .Ltmp224-audiobeam___kernel_sinf
.Lfunc_end3:
	.cfi_endproc

	.globl	audiobeam___copysignf
	.align	16, 0x90
	.type	audiobeam___copysignf,@function
audiobeam___copysignf:                  # @audiobeam___copysignf
.Lfunc_begin4:
	.loc	1 206 0                 # audiobeamlibm.c:206:0
	.cfi_startproc
# BB#0:                                 # %entry
	pushq	%rbp
.Ltmp225:
	.cfi_def_cfa_offset 16
.Ltmp226:
	.cfi_offset %rbp, -16
	movq	%rsp, %rbp
.Ltmp227:
	.cfi_def_cfa_register %rbp
	pushq	%r15
	pushq	%r14
	pushq	%r12
	pushq	%rbx
	subq	$32, %rsp
.Ltmp228:
	.cfi_offset %rbx, -48
.Ltmp229:
	.cfi_offset %r12, -40
.Ltmp230:
	.cfi_offset %r14, -32
.Ltmp231:
	.cfi_offset %r15, -24
	#DEBUG_VALUE: audiobeam___copysignf:x <- XMM0
	#DEBUG_VALUE: audiobeam___copysignf:y <- XMM1
	movss	%xmm1, -60(%rbp)        # 4-byte Spill
.Ltmp232:
	#DEBUG_VALUE: audiobeam___copysignf:y <- [RBP+-60]
	movss	%xmm0, -64(%rbp)        # 4-byte Spill
.Ltmp233:
	#DEBUG_VALUE: audiobeam___copysignf:x <- [RBP+-64]
	movabsq	$121050694331632026, %r14 # imm = 0x1AE0EF71373899A
	xorl	%esi, %esi
	movq	%r14, %rdi
	callq	_KEnterRegion
	movl	$7, %edi
	xorl	%esi, %esi
	callq	_KPrepRTable
	movl	$18, %edi
	callq	_KWork
	movl	$2, %edi
	callq	_KDeqArg
	movl	$1, %edi
	callq	_KDeqArg
	movl	$1, %edi
	movl	$1, %esi
	xorl	%edx, %edx
	callq	_KTimestamp1
	leaq	-40(%rbp), %rbx
	movl	$1, %edi
	movl	$4, %edx
	movq	%rbx, %rsi
	callq	_KStore
	.loc	1 208 3 prologue_end    # audiobeamlibm.c:208:3
.Ltmp234:
	movss	-64(%rbp), %xmm0        # 4-byte Reload
	movss	%xmm0, -40(%rbp)
	movl	$3, %esi
	movl	$4, %edx
	movq	%rbx, %rdi
	callq	_KLoad0
	movl	-40(%rbp), %r12d
.Ltmp235:
	#DEBUG_VALUE: audiobeam___copysignf:ix <- R12D
	movl	$2, %edi
	movl	$2, %esi
	xorl	%edx, %edx
	callq	_KTimestamp1
	leaq	-48(%rbp), %r15
	movl	$2, %edi
	movl	$4, %edx
	movq	%r15, %rsi
	callq	_KStore
.Ltmp236:
	.loc	1 209 3                 # audiobeamlibm.c:209:3
	movss	-60(%rbp), %xmm0        # 4-byte Reload
	movss	%xmm0, -48(%rbp)
	movl	$4, %esi
	movl	$4, %edx
	movq	%r15, %rdi
	callq	_KLoad0
.Ltmp237:
	.loc	1 210 3                 # audiobeamlibm.c:210:3
	andl	$2147483647, %r12d      # imm = 0x7FFFFFFF
.Ltmp238:
	movl	$-2147483648, %ebx      # imm = 0xFFFFFFFF80000000
	andl	-48(%rbp), %ebx
	orl	%r12d, %ebx
	movl	$5, %edi
	movl	$3, %esi
	movl	$2, %edx
	movl	$4, %ecx
	movl	$2, %r8d
	callq	_KTimestamp2
	leaq	-56(%rbp), %r15
	movl	$5, %edi
	movl	$4, %edx
	movq	%r15, %rsi
	callq	_KStore
	movl	%ebx, -56(%rbp)
	movl	$6, %esi
	movl	$4, %edx
	movq	%r15, %rdi
	callq	_KLoad0
	movss	-56(%rbp), %xmm0
.Ltmp239:
	#DEBUG_VALUE: audiobeam___copysignf:x <- [RBP+-60]
	movss	%xmm0, -60(%rbp)        # 4-byte Spill
	movl	$6, %edi
	movl	$6, %esi
	xorl	%edx, %edx
	callq	_KTimestamp1
	movl	$6, %edi
	callq	_KReturn
	xorl	%esi, %esi
	movq	%r14, %rdi
	callq	_KExitRegion
.Ltmp240:
	.loc	1 211 3                 # audiobeamlibm.c:211:3
	movss	-60(%rbp), %xmm0        # 4-byte Reload
	addq	$32, %rsp
	popq	%rbx
	popq	%r12
	popq	%r14
	popq	%r15
	popq	%rbp
	retq
.Ltmp241:
.Ltmp242:
	.size	audiobeam___copysignf, .Ltmp242-audiobeam___copysignf
.Lfunc_end4:
	.cfi_endproc

	.section	.rodata.cst16,"aM",@progbits,16
	.align	16
.LCPI5_0:
	.long	2147483648              # 0x80000000
	.long	2147483648              # 0x80000000
	.long	2147483648              # 0x80000000
	.long	2147483648              # 0x80000000
	.text
	.globl	audiobeam___cosf
	.align	16, 0x90
	.type	audiobeam___cosf,@function
audiobeam___cosf:                       # @audiobeam___cosf
.Lfunc_begin5:
	.loc	1 216 0                 # audiobeamlibm.c:216:0
	.cfi_startproc
# BB#0:                                 # %entry
	pushq	%rbp
.Ltmp243:
	.cfi_def_cfa_offset 16
.Ltmp244:
	.cfi_offset %rbp, -16
	movq	%rsp, %rbp
.Ltmp245:
	.cfi_def_cfa_register %rbp
	pushq	%r15
	pushq	%r14
	pushq	%r13
	pushq	%r12
	pushq	%rbx
	subq	$40, %rsp
.Ltmp246:
	.cfi_offset %rbx, -56
.Ltmp247:
	.cfi_offset %r12, -48
.Ltmp248:
	.cfi_offset %r13, -40
.Ltmp249:
	.cfi_offset %r14, -32
.Ltmp250:
	.cfi_offset %r15, -24
	#DEBUG_VALUE: audiobeam___cosf:x <- XMM0
	movss	%xmm0, -60(%rbp)        # 4-byte Spill
.Ltmp251:
	#DEBUG_VALUE: audiobeam___cosf:x <- [RBP+-60]
	#DEBUG_VALUE: audiobeam___cosf:x <- undef
	movabsq	$-7636652746507765991, %r14 # imm = 0x960528C9AB64B719
	xorl	%r13d, %r13d
	xorl	%esi, %esi
	movq	%r14, %rdi
	callq	_KEnterRegion
	movl	$24, %edi
	xorl	%esi, %esi
	callq	_KPrepRTable
	movl	$7, %edi
	callq	_KWork
	movl	$1, %edi
	callq	_KDeqArg
.Ltmp252:
	#DEBUG_VALUE: audiobeam___cosf:z <- 0.000000e+00
	movl	$1, %edi
	movl	$1, %esi
	xorl	%edx, %edx
	callq	_KTimestamp1
	leaq	-56(%rbp), %rbx
	movl	$1, %edi
	movl	$4, %edx
	movq	%rbx, %rsi
	callq	_KStore
	.loc	1 220 3 prologue_end    # audiobeamlibm.c:220:3
.Ltmp253:
	movss	-60(%rbp), %xmm0        # 4-byte Reload
	movss	%xmm0, -56(%rbp)
.Ltmp254:
	#DEBUG_VALUE: audiobeam___cosf:x <- [RBP+-60]
	movl	$2, %esi
	movl	$4, %edx
	movq	%rbx, %rdi
	callq	_KLoad0
	movl	$2147483647, %ebx       # imm = 0x7FFFFFFF
.Ltmp255:
	.loc	1 222 3                 # audiobeamlibm.c:222:3
	andl	-56(%rbp), %ebx
.Ltmp256:
	#DEBUG_VALUE: audiobeam___cosf:ix <- EBX
	movl	$21, %edi
	movl	$2, %esi
	movl	$2, %edx
	callq	_KTimestamp1
	movl	$21, %edi
	callq	_KPushCDep
	.loc	1 223 8                 # audiobeamlibm.c:223:8
	cmpl	$1061752792, %ebx       # imm = 0x3F490FD8
	ja	.LBB5_2
.Ltmp257:
# BB#1:                                 # %if.then
	#DEBUG_VALUE: audiobeam___cosf:x <- [RBP+-60]
	#DEBUG_VALUE: audiobeam___cosf:z <- 0.000000e+00
	movabsq	$-5426117710102817702, %rdi # imm = 0xB4B28EB103DD945A
	xorl	%esi, %esi
	callq	_KPrepCall
	callq	_KEnqArgConst
	movl	$1, %edi
	callq	_KEnqArg
	movl	$3, %r12d
	movl	$3, %edi
	callq	_KLinkReturn
	xorps	%xmm1, %xmm1
	.loc	1 223 34 is_stmt 0      # audiobeamlibm.c:223:34
.Ltmp258:
	movss	-60(%rbp), %xmm0        # 4-byte Reload
	callq	audiobeam___kernel_cosf
	movss	%xmm0, -60(%rbp)        # 4-byte Spill
	movl	$3, %edi
	movl	$3, %esi
	xorl	%edx, %edx
	callq	_KTimestamp1
	jmp	.LBB5_4
.LBB5_2:                                # %if.else
	#DEBUG_VALUE: audiobeam___cosf:x <- [RBP+-60]
	#DEBUG_VALUE: audiobeam___cosf:z <- 0.000000e+00
.Ltmp259:
	#DEBUG_VALUE: audiobeam___cosf:ix <- EBX
	movl	$1, %edi
	callq	_KWork
	movl	$22, %r13d
	movl	$22, %edi
	movl	$2, %esi
	movl	$3, %edx
	callq	_KTimestamp1
	callq	_KPopCDep
	movl	$22, %edi
	callq	_KPushCDep
	.loc	1 226 10 is_stmt 1      # audiobeamlibm.c:226:10
	cmpl	$2139095040, %ebx       # imm = 0x7F800000
	jb	.LBB5_5
.Ltmp260:
# BB#3:                                 # %if.then2
	#DEBUG_VALUE: audiobeam___cosf:x <- [RBP+-60]
	#DEBUG_VALUE: audiobeam___cosf:z <- 0.000000e+00
	movl	$2, %edi
	callq	_KWork
.Ltmp261:
	#DEBUG_VALUE: audiobeam___cosf:x <- undef
	.loc	1 226 36 is_stmt 0      # audiobeamlibm.c:226:36
	movss	-60(%rbp), %xmm0        # 4-byte Reload
	subss	%xmm0, %xmm0
	movss	%xmm0, -60(%rbp)        # 4-byte Spill
	movl	$18, %r12d
	movl	$18, %edi
	movl	$1, %esi
	movl	$2, %edx
	movl	$2, %ecx
	movl	$5, %r8d
	callq	_KTimestamp2
.LBB5_4:                                # %return
	callq	_KPopCDep
	xorl	%r15d, %r15d
	jmp	.LBB5_15
.LBB5_5:                                # %if.else3
.Ltmp262:
	#DEBUG_VALUE: audiobeam___cosf:x <- [RBP+-60]
	#DEBUG_VALUE: audiobeam___cosf:z <- 0.000000e+00
	movl	$3, %edi
	callq	_KWork
	leaq	-48(%rbp), %rbx
	movl	$4, %esi
	movq	%rbx, %rdi
	callq	_KStoreConst
	.loc	1 229 7 is_stmt 1       # audiobeamlibm.c:229:7
.Ltmp263:
	movl	$0, -48(%rbp)
	.loc	1 230 7                 # audiobeamlibm.c:230:7
	leaq	-44(%rbp), %r12
	movl	$4, %esi
	movq	%r12, %rdi
	callq	_KStoreConst
	movl	$0, -44(%rbp)
	movabsq	$3513335345648661629, %rdi # imm = 0x30C1DFE1E636747D
	xorl	%esi, %esi
	callq	_KPrepCall
	movl	$1, %edi
	callq	_KEnqArg
	movl	$4, %edi
	callq	_KLinkReturn
	.loc	1 231 11                # audiobeamlibm.c:231:11
	movss	-60(%rbp), %xmm0        # 4-byte Reload
	movq	%rbx, %rdi
	callq	audiobeam___ieee754_rem_pio2f
	movl	%eax, %ebx
.Ltmp264:
	#DEBUG_VALUE: audiobeam___cosf:n <- EBX
	.loc	1 232 16                # audiobeamlibm.c:232:16
	andl	$3, %ebx
.Ltmp265:
	movl	$23, %r15d
	movl	$23, %edi
	movl	$2, %esi
	movl	$4, %edx
	movl	$4, %ecx
	movl	$1, %r8d
	callq	_KTimestamp2
	callq	_KPopCDep
	.loc	1 232 7 is_stmt 0       # audiobeamlibm.c:232:7
	cmpl	$2, %ebx
	je	.LBB5_10
# BB#6:                                 # %if.else3
	#DEBUG_VALUE: audiobeam___cosf:z <- 0.000000e+00
	#DEBUG_VALUE: audiobeam___cosf:z <- 0.000000e+00
	movl	$23, %r15d
	movl	$23, %edi
	cmpl	$1, %ebx
	jne	.LBB5_7
# BB#9:                                 # %sw.bb10
	callq	_KPushCDep
	movl	$10, %edi
	callq	_KWork
	leaq	-48(%rbp), %rdi
	movl	$8, %esi
	movl	$4, %edx
	callq	_KLoad0
	.loc	1 236 44 is_stmt 1      # audiobeamlibm.c:236:44
.Ltmp266:
	movss	-48(%rbp), %xmm0
	movss	%xmm0, -60(%rbp)        # 4-byte Spill
	movl	$9, %esi
	movl	$4, %edx
	movq	%r12, %rdi
	callq	_KLoad0
	.loc	1 236 50 is_stmt 0      # audiobeamlibm.c:236:50
	movss	-44(%rbp), %xmm0
	movss	%xmm0, -64(%rbp)        # 4-byte Spill
	movl	$8, %edi
	movl	$8, %esi
	xorl	%edx, %edx
	callq	_KTimestamp1
	movabsq	$-153012479083421427, %rdi # imm = 0xFDE063F60207E10D
	xorl	%esi, %esi
	callq	_KPrepCall
	callq	_KEnqArgConst
	movl	$9, %edi
	movl	$9, %esi
	xorl	%edx, %edx
	callq	_KTimestamp1
	movl	$9, %edi
	callq	_KEnqArg
	movl	$8, %edi
	callq	_KEnqArg
	movl	$10, %edi
	callq	_KLinkReturn
	movl	$1, %edi
	.loc	1 236 19                # audiobeamlibm.c:236:19
	movss	-60(%rbp), %xmm0        # 4-byte Reload
	movss	-64(%rbp), %xmm1        # 4-byte Reload
	callq	audiobeam___kernel_sinf
	.loc	1 236 18                # audiobeamlibm.c:236:18
	xorps	.LCPI5_0(%rip), %xmm0
	movss	%xmm0, -60(%rbp)        # 4-byte Spill
	movl	$2, (%rsp)
	movl	$20, %r12d
	movl	$20, %edi
	movl	$2, %esi
	movl	$6, %edx
	movl	$4, %ecx
	movl	$3, %r8d
	movl	$10, %r9d
	callq	_KTimestamp3
	jmp	.LBB5_14
.LBB5_10:                               # %sw.bb15
	#DEBUG_VALUE: audiobeam___cosf:z <- 0.000000e+00
	movl	$23, %edi
	callq	_KPushCDep
	movl	$10, %edi
	callq	_KWork
	leaq	-48(%rbp), %rdi
	movl	$11, %esi
	movl	$4, %edx
	callq	_KLoad0
	.loc	1 238 44 is_stmt 1      # audiobeamlibm.c:238:44
	movss	-48(%rbp), %xmm0
	movss	%xmm0, -60(%rbp)        # 4-byte Spill
	movl	$12, %esi
	movl	$4, %edx
	movq	%r12, %rdi
	callq	_KLoad0
	.loc	1 238 50 is_stmt 0      # audiobeamlibm.c:238:50
	movss	-44(%rbp), %xmm0
	movss	%xmm0, -64(%rbp)        # 4-byte Spill
	movabsq	$6384517897895676514, %rdi # imm = 0x589A5D3396320A62
	xorl	%esi, %esi
	callq	_KPrepCall
	movl	$12, %edi
	movl	$12, %esi
	xorl	%edx, %edx
	callq	_KTimestamp1
	movl	$12, %edi
	callq	_KEnqArg
	movl	$11, %edi
	movl	$11, %esi
	xorl	%edx, %edx
	callq	_KTimestamp1
	movl	$11, %edi
	callq	_KEnqArg
	movl	$13, %edi
	callq	_KLinkReturn
	.loc	1 238 19                # audiobeamlibm.c:238:19
	movss	-60(%rbp), %xmm0        # 4-byte Reload
	movss	-64(%rbp), %xmm1        # 4-byte Reload
	callq	audiobeam___kernel_cosf
	.loc	1 238 18                # audiobeamlibm.c:238:18
	xorps	.LCPI5_0(%rip), %xmm0
	movss	%xmm0, -60(%rbp)        # 4-byte Spill
	movl	$2, (%rsp)
	movl	$19, %r12d
	movl	$19, %edi
	movl	$2, %esi
	movl	$6, %edx
	movl	$4, %ecx
	movl	$3, %r8d
	movl	$13, %r9d
	callq	_KTimestamp3
	jmp	.LBB5_14
.LBB5_7:                                # %if.else3
	testl	%ebx, %ebx
	jne	.LBB5_12
# BB#8:                                 # %sw.bb
	callq	_KPushCDep
	movl	$8, %edi
	callq	_KWork
	leaq	-48(%rbp), %rdi
	movl	$5, %esi
	movl	$4, %edx
	callq	_KLoad0
	.loc	1 234 44 is_stmt 1      # audiobeamlibm.c:234:44
	movss	-48(%rbp), %xmm0
	movss	%xmm0, -60(%rbp)        # 4-byte Spill
	movl	$6, %esi
	movl	$4, %edx
	movq	%r12, %rdi
	callq	_KLoad0
	.loc	1 234 50 is_stmt 0      # audiobeamlibm.c:234:50
	movss	-44(%rbp), %xmm0
	movss	%xmm0, -64(%rbp)        # 4-byte Spill
	movl	$5, %edi
	movl	$5, %esi
	xorl	%edx, %edx
	callq	_KTimestamp1
	movabsq	$8730505739370413381, %rdi # imm = 0x7928FCB6B8AEBD45
	xorl	%esi, %esi
	callq	_KPrepCall
	movl	$6, %edi
	movl	$6, %esi
	xorl	%edx, %edx
	callq	_KTimestamp1
	movl	$6, %edi
	callq	_KEnqArg
	movl	$5, %edi
	callq	_KEnqArg
	movl	$7, %r12d
	movl	$7, %edi
	callq	_KLinkReturn
	.loc	1 234 19                # audiobeamlibm.c:234:19
	movss	-60(%rbp), %xmm0        # 4-byte Reload
	movss	-64(%rbp), %xmm1        # 4-byte Reload
	callq	audiobeam___kernel_cosf
	movss	%xmm0, -60(%rbp)        # 4-byte Spill
	movl	$7, %edi
	movl	$7, %esi
	jmp	.LBB5_13
.LBB5_12:                               # %sw.default
	callq	_KPushCDep
	movl	$8, %edi
	callq	_KWork
	leaq	-48(%rbp), %rdi
	movl	$14, %esi
	movl	$4, %edx
	callq	_KLoad0
	.loc	1 240 44 is_stmt 1      # audiobeamlibm.c:240:44
	movss	-48(%rbp), %xmm0
	movss	%xmm0, -60(%rbp)        # 4-byte Spill
	movl	$15, %esi
	movl	$4, %edx
	movq	%r12, %rdi
	callq	_KLoad0
	.loc	1 240 50 is_stmt 0      # audiobeamlibm.c:240:50
	movss	-44(%rbp), %xmm0
	movss	%xmm0, -64(%rbp)        # 4-byte Spill
	movl	$14, %edi
	movl	$14, %esi
	xorl	%edx, %edx
	callq	_KTimestamp1
	movl	$15, %edi
	movl	$15, %esi
	xorl	%edx, %edx
	callq	_KTimestamp1
	movabsq	$-8282140028385973670, %rdi # imm = 0x8D0FED865C02AA5A
	xorl	%esi, %esi
	callq	_KPrepCall
	callq	_KEnqArgConst
	movl	$15, %edi
	callq	_KEnqArg
	movl	$14, %edi
	callq	_KEnqArg
	movl	$16, %r12d
	movl	$16, %edi
	callq	_KLinkReturn
	movl	$1, %edi
	.loc	1 240 19                # audiobeamlibm.c:240:19
	movss	-60(%rbp), %xmm0        # 4-byte Reload
	movss	-64(%rbp), %xmm1        # 4-byte Reload
	callq	audiobeam___kernel_sinf
	movss	%xmm0, -60(%rbp)        # 4-byte Spill
	movl	$16, %edi
	movl	$16, %esi
.Ltmp267:
.LBB5_13:                               # %return
	xorl	%edx, %edx
	callq	_KTimestamp1
.LBB5_14:                               # %return
	callq	_KPopCDep
	movl	$22, %r13d
.LBB5_15:                               # %return
	#DEBUG_VALUE: audiobeam___cosf:z <- 0.000000e+00
	movl	$17, %edi
	movl	$21, %edx
	movl	%r12d, %esi
	movl	%r13d, %ecx
	movl	%r15d, %r8d
	callq	_KPhi3To1
	movl	$17, %edi
	movl	$17, %esi
	xorl	%edx, %edx
	callq	_KTimestamp1
	movl	$17, %edi
	callq	_KReturn
	xorl	%esi, %esi
	movq	%r14, %rdi
	callq	_KExitRegion
	.loc	1 243 1 is_stmt 1       # audiobeamlibm.c:243:1
	movss	-60(%rbp), %xmm0        # 4-byte Reload
	addq	$40, %rsp
	popq	%rbx
	popq	%r12
	popq	%r13
	popq	%r14
	popq	%r15
	popq	%rbp
	retq
.Ltmp268:
.Ltmp269:
	.size	audiobeam___cosf, .Ltmp269-audiobeam___cosf
.Lfunc_end5:
	.cfi_endproc

	.section	.rodata.cst4,"aM",@progbits,4
	.align	4
.LCPI6_0:
	.long	1900671690              # float 1.00000002E+30
	.text
	.globl	audiobeam___floorf
	.align	16, 0x90
	.type	audiobeam___floorf,@function
audiobeam___floorf:                     # @audiobeam___floorf
.Lfunc_begin6:
	.loc	1 256 0                 # audiobeamlibm.c:256:0
	.cfi_startproc
# BB#0:                                 # %entry
	pushq	%rbp
.Ltmp270:
	.cfi_def_cfa_offset 16
.Ltmp271:
	.cfi_offset %rbp, -16
	movq	%rsp, %rbp
.Ltmp272:
	.cfi_def_cfa_register %rbp
	pushq	%r15
	pushq	%r14
	pushq	%r13
	pushq	%r12
	pushq	%rbx
	subq	$72, %rsp
.Ltmp273:
	.cfi_offset %rbx, -56
.Ltmp274:
	.cfi_offset %r12, -48
.Ltmp275:
	.cfi_offset %r13, -40
.Ltmp276:
	.cfi_offset %r14, -32
.Ltmp277:
	.cfi_offset %r15, -24
	#DEBUG_VALUE: audiobeam___floorf:x <- XMM0
	movss	%xmm0, -60(%rbp)        # 4-byte Spill
.Ltmp278:
	#DEBUG_VALUE: audiobeam___floorf:x <- [RBP+-60]
	#DEBUG_VALUE: audiobeam___floorf:x <- undef
	movabsq	$2193092422560072784, %rdi # imm = 0x1E6F6DF0564B4450
	xorl	%esi, %esi
	callq	_KEnterRegion
	movl	$19, %edi
	xorl	%esi, %esi
	callq	_KPrepRTable
	movl	$9, %edi
	callq	_KWork
	movl	$1, %edi
	callq	_KDeqArg
	movl	$1, %edi
	movl	$1, %esi
	xorl	%edx, %edx
	callq	_KTimestamp1
	leaq	-48(%rbp), %rbx
	movl	$1, %edi
	movl	$4, %edx
	movq	%rbx, %rsi
	callq	_KStore
	.loc	1 259 3 prologue_end    # audiobeamlibm.c:259:3
.Ltmp279:
	movss	-60(%rbp), %xmm0        # 4-byte Reload
	movss	%xmm0, -48(%rbp)
.Ltmp280:
	#DEBUG_VALUE: audiobeam___floorf:x <- [RBP+-60]
	movl	$2, %esi
	movl	$4, %edx
	movq	%rbx, %rdi
	callq	_KLoad0
	movl	-48(%rbp), %r13d
.Ltmp281:
	#DEBUG_VALUE: audiobeam___floorf:i0 <- R13D
	.loc	1 260 12                # audiobeamlibm.c:260:12
	movl	%r13d, %eax
	shrl	$23, %eax
	.loc	1 260 10 is_stmt 0      # audiobeamlibm.c:260:10
	movzbl	%al, %ebx
	.loc	1 260 8                 # audiobeamlibm.c:260:8
	leal	-127(%rbx), %r15d
.Ltmp282:
	#DEBUG_VALUE: audiobeam___floorf:j0 <- R15D
	movl	$2, %edi
	movl	$2, %esi
	xorl	%edx, %edx
	callq	_KTimestamp1
	movl	$11, %edi
	movl	$2, %esi
	movl	$4, %edx
	callq	_KTimestamp1
	movl	$11, %edi
	callq	_KPushCDep
	movl	$1, %edi
	callq	_KWork
	.loc	1 261 8 is_stmt 1       # audiobeamlibm.c:261:8
	cmpl	$22, %r15d
	jg	.LBB6_19
.Ltmp283:
# BB#1:                                 # %if.then
	#DEBUG_VALUE: audiobeam___floorf:x <- [RBP+-60]
	#DEBUG_VALUE: audiobeam___floorf:i0 <- R13D
	#DEBUG_VALUE: audiobeam___floorf:j0 <- R15D
	movl	$12, %edi
	movl	$2, %esi
	movl	$5, %edx
	callq	_KTimestamp1
	callq	_KPopCDep
	movl	$12, %edi
	callq	_KPushCDep
	.loc	1 262 10                # audiobeamlibm.c:262:10
.Ltmp284:
	cmpl	$126, %ebx
	ja	.LBB6_10
.Ltmp285:
# BB#2:                                 # %if.then2
	#DEBUG_VALUE: audiobeam___floorf:x <- [RBP+-60]
	#DEBUG_VALUE: audiobeam___floorf:i0 <- R13D
	movl	$4, %edi
	callq	_KWork
.Ltmp286:
	#DEBUG_VALUE: audiobeam___floorf:x <- undef
	.loc	1 263 12                # audiobeamlibm.c:263:12
	movss	-60(%rbp), %xmm0        # 4-byte Reload
	addss	.LCPI6_0(%rip), %xmm0
	movss	%xmm0, -60(%rbp)        # 4-byte Spill
	movl	$13, %edi
	movl	$1, %esi
	movl	$4, %edx
	movl	$2, %ecx
	movl	$9, %r8d
	callq	_KTimestamp2
	callq	_KPopCDep
	xorps	%xmm0, %xmm0
.Ltmp287:
	.loc	1 263 12 is_stmt 0      # audiobeamlibm.c:263:12
	movss	-60(%rbp), %xmm1        # 4-byte Reload
	ucomiss	%xmm0, %xmm1
	jbe	.LBB6_3
.Ltmp288:
# BB#4:                                 # %if.then4
	#DEBUG_VALUE: audiobeam___floorf:i0 <- R13D
	movl	$13, %edi
	callq	_KPushCDep
	movl	$1, %edi
	callq	_KWork
	movl	$14, %edi
	movl	$1, %esi
	movl	$5, %edx
	movl	$2, %ecx
	movl	$10, %r8d
	callq	_KTimestamp2
	callq	_KPopCDep
	movl	$14, %edi
	callq	_KPushCDep
	.loc	1 264 14 is_stmt 1      # audiobeamlibm.c:264:14
.Ltmp289:
	testl	%r13d, %r13d
	js	.LBB6_6
.Ltmp290:
# BB#5:                                 # %if.then6
	#DEBUG_VALUE: audiobeam___floorf:i0 <- 0
	callq	_KPopCDep
	xorl	%r13d, %r13d
	movl	$0, -68(%rbp)           # 4-byte Folded Spill
	movl	$13, %r15d
	movl	$14, %r12d
	xorl	%ebx, %ebx
	movl	$0, -64(%rbp)           # 4-byte Folded Spill
	movl	$0, -60(%rbp)           # 4-byte Folded Spill
	jmp	.LBB6_18
.LBB6_19:                               # %if.else29
.Ltmp291:
	#DEBUG_VALUE: audiobeam___floorf:x <- [RBP+-60]
	#DEBUG_VALUE: audiobeam___floorf:j0 <- R15D
	movl	$18, %r12d
	movl	$18, %edi
	movl	$2, %esi
	movl	$5, %edx
	callq	_KTimestamp1
	callq	_KPopCDep
	movl	$18, %edi
	callq	_KPushCDep
	.loc	1 279 10                # audiobeamlibm.c:279:10
.Ltmp292:
	cmpl	$128, %r15d
	jne	.LBB6_21
.Ltmp293:
# BB#20:                                # %if.then31
	#DEBUG_VALUE: audiobeam___floorf:x <- [RBP+-60]
	movl	$2, %edi
	callq	_KWork
.Ltmp294:
	#DEBUG_VALUE: audiobeam___floorf:x <- undef
	.loc	1 279 30 is_stmt 0      # audiobeamlibm.c:279:30
	movss	-60(%rbp), %xmm0        # 4-byte Reload
	addss	%xmm0, %xmm0
	movss	%xmm0, -60(%rbp)        # 4-byte Spill
	movl	$17, %ebx
	movl	$17, %edi
	movl	$1, %esi
	movl	$2, %edx
	movl	$2, %ecx
	movl	$7, %r8d
	callq	_KTimestamp2
	callq	_KPopCDep
	xorl	%r14d, %r14d
	jmp	.LBB6_23
.Ltmp295:
.LBB6_10:                               # %if.else12
	#DEBUG_VALUE: audiobeam___floorf:x <- [RBP+-60]
	#DEBUG_VALUE: audiobeam___floorf:i0 <- R13D
	#DEBUG_VALUE: audiobeam___floorf:j0 <- R15D
	movl	$3, %edi
	callq	_KWork
	movl	$8388607, %r14d         # imm = 0x7FFFFF
	.loc	1 271 11 is_stmt 1      # audiobeamlibm.c:271:11
.Ltmp296:
	movb	%r15b, %cl
	shrl	%cl, %r14d
.Ltmp297:
	#DEBUG_VALUE: audiobeam___floorf:i <- R13D
	movl	$16, %edi
	movl	$2, %esi
	movl	$8, %edx
	callq	_KTimestamp1
	callq	_KPopCDep
	movl	$16, %edi
	callq	_KPushCDep
	.loc	1 272 12                # audiobeamlibm.c:272:12
	testl	%r13d, %r14d
	je	.LBB6_11
.Ltmp298:
# BB#12:                                # %if.end17
	#DEBUG_VALUE: audiobeam___floorf:x <- [RBP+-60]
	#DEBUG_VALUE: audiobeam___floorf:i0 <- R13D
	#DEBUG_VALUE: audiobeam___floorf:j0 <- R15D
	#DEBUG_VALUE: audiobeam___floorf:i <- R13D
	movl	$4, %edi
	callq	_KWork
.Ltmp299:
	#DEBUG_VALUE: audiobeam___floorf:x <- undef
	.loc	1 273 12                # audiobeamlibm.c:273:12
	movss	-60(%rbp), %xmm0        # 4-byte Reload
	addss	.LCPI6_0(%rip), %xmm0
	movss	%xmm0, -60(%rbp)        # 4-byte Spill
	movl	$8, %edi
	movl	$1, %esi
	movl	$4, %edx
	movl	$2, %ecx
	movl	$12, %r8d
	callq	_KTimestamp2
	callq	_KPopCDep
	xorps	%xmm0, %xmm0
.Ltmp300:
	.loc	1 273 12 is_stmt 0      # audiobeamlibm.c:273:12
	movss	-60(%rbp), %xmm1        # 4-byte Reload
	ucomiss	%xmm0, %xmm1
	jbe	.LBB6_13
.Ltmp301:
# BB#14:                                # %if.then20
	#DEBUG_VALUE: audiobeam___floorf:i0 <- R13D
	#DEBUG_VALUE: audiobeam___floorf:j0 <- R15D
	#DEBUG_VALUE: audiobeam___floorf:i <- R13D
	movl	$8, %edi
	callq	_KPushCDep
	movl	$1, %edi
	callq	_KWork
	movl	$2, %ebx
	movl	$9, %edi
	movl	$1, %esi
	movl	$5, %edx
	movl	$2, %ecx
	movl	$13, %r8d
	callq	_KTimestamp2
	callq	_KPopCDep
	.loc	1 274 14 is_stmt 1      # audiobeamlibm.c:274:14
.Ltmp302:
	testl	%r13d, %r13d
	jns	.LBB6_16
.Ltmp303:
# BB#15:                                # %if.then22
	#DEBUG_VALUE: audiobeam___floorf:i0 <- R13D
	#DEBUG_VALUE: audiobeam___floorf:j0 <- R15D
	#DEBUG_VALUE: audiobeam___floorf:i <- R13D
	movl	$9, %edi
	callq	_KPushCDep
	movl	$2, %edi
	callq	_KWork
	movl	$8388608, %eax          # imm = 0x800000
	.loc	1 274 29 is_stmt 0      # audiobeamlibm.c:274:29
.Ltmp304:
	movb	%r15b, %cl
	shrl	%cl, %eax
	.loc	1 274 23                # audiobeamlibm.c:274:23
	addl	%eax, %r13d
.Ltmp305:
	movl	$7, %ebx
	movl	$7, %edi
	movl	$1, %esi
	movl	$7, %edx
	movl	$2, %ecx
	movl	$15, %r8d
	callq	_KTimestamp2
	callq	_KPopCDep
.Ltmp306:
.LBB6_16:                               # %if.end25
	movl	$8, %edi
	callq	_KPushCDep
	movl	$6, %edi
	movl	$8, %edx
	movl	$9, %ecx
	movl	%ebx, %esi
	callq	_KPhi2To1
	movl	$2, %edi
	callq	_KWork
	.loc	1 275 17 is_stmt 1      # audiobeamlibm.c:275:17
	notl	%r14d
	.loc	1 275 9 is_stmt 0       # audiobeamlibm.c:275:9
	andl	%r14d, %r13d
.Ltmp307:
	#DEBUG_VALUE: audiobeam___floorf:i0 <- R13D
	movl	%r13d, -60(%rbp)        # 4-byte Spill
	movl	$1, (%rsp)
	movl	$10, -64(%rbp)          # 4-byte Folded Spill
	movl	$10, %edi
	movl	$1, %esi
	movl	$6, %edx
	movl	$2, %ecx
	movl	$14, %r8d
	movl	$6, %r9d
	callq	_KTimestamp3
	callq	_KPopCDep
	xorl	%r12d, %r12d
	xorl	%r15d, %r15d
	movl	$8, %ebx
.Ltmp308:
	#DEBUG_VALUE: audiobeam___floorf:i0 <- [RBP+-60]
	movl	$0, -68(%rbp)           # 4-byte Folded Spill
	jmp	.LBB6_17
.Ltmp309:
.LBB6_21:                               # %if.else33
	#DEBUG_VALUE: audiobeam___floorf:x <- [RBP+-60]
	callq	_KPopCDep
	xorl	%r14d, %r14d
	jmp	.LBB6_22
.LBB6_3:
.Ltmp310:
	#DEBUG_VALUE: audiobeam___floorf:i0 <- R13D
	movl	%r13d, -60(%rbp)        # 4-byte Spill
.Ltmp311:
	#DEBUG_VALUE: audiobeam___floorf:i0 <- [RBP+-60]
	movl	$0, -68(%rbp)           # 4-byte Folded Spill
	xorl	%r13d, %r13d
	movl	$13, %r15d
	xorl	%ebx, %ebx
	movl	$2, -64(%rbp)           # 4-byte Folded Spill
	xorl	%r12d, %r12d
	jmp	.LBB6_18
.LBB6_11:                               # %if.then16
	#DEBUG_VALUE: audiobeam___floorf:x <- [RBP+-60]
	callq	_KPopCDep
	movl	$12, %r14d
	xorl	%r12d, %r12d
.LBB6_22:                               # %return
	movl	$1, %ebx
	jmp	.LBB6_23
.LBB6_13:
.Ltmp312:
	#DEBUG_VALUE: audiobeam___floorf:i0 <- R13D
	#DEBUG_VALUE: audiobeam___floorf:i <- R13D
	movl	$2, -64(%rbp)           # 4-byte Folded Spill
	xorl	%r12d, %r12d
	movl	%r13d, -60(%rbp)        # 4-byte Spill
.Ltmp313:
	#DEBUG_VALUE: audiobeam___floorf:i <- [RBP+-60]
	#DEBUG_VALUE: audiobeam___floorf:i0 <- [RBP+-60]
	movl	$0, -68(%rbp)           # 4-byte Folded Spill
	movl	$8, %ebx
	xorl	%r15d, %r15d
.LBB6_17:                               # %if.end34
	movl	$16, %r13d
	jmp	.LBB6_18
.LBB6_6:                                # %if.else
.Ltmp314:
	#DEBUG_VALUE: audiobeam___floorf:i0 <- R13D
	movl	$2, %edi
	callq	_KWork
	movl	$15, %edi
	movl	$1, %esi
	movl	$7, %edx
	movl	$2, %ecx
	movl	$12, %r8d
	callq	_KTimestamp2
	callq	_KPopCDep
	.loc	1 267 16 is_stmt 1      # audiobeamlibm.c:267:16
.Ltmp315:
	testl	$2147483647, %r13d      # imm = 0x7FFFFFFF
	je	.LBB6_7
.Ltmp316:
# BB#9:                                 # %if.then9
	movl	$15, -68(%rbp)          # 4-byte Folded Spill
	movl	$15, %edi
	callq	_KPushCDep
.Ltmp317:
	#DEBUG_VALUE: audiobeam___floorf:i0 <- -1082130432
	callq	_KPopCDep
	movl	$-1082130432, -60(%rbp) # 4-byte Folded Spill
                                        # imm = 0xFFFFFFFFBF800000
	xorl	%r13d, %r13d
	xorl	%ebx, %ebx
	movl	$0, -64(%rbp)           # 4-byte Folded Spill
	jmp	.LBB6_8
.LBB6_7:
.Ltmp318:
	#DEBUG_VALUE: audiobeam___floorf:i0 <- R13D
	movl	%r13d, -60(%rbp)        # 4-byte Spill
.Ltmp319:
	#DEBUG_VALUE: audiobeam___floorf:i0 <- [RBP+-60]
	movl	$15, -68(%rbp)          # 4-byte Folded Spill
	xorl	%r13d, %r13d
	xorl	%ebx, %ebx
	movl	$2, -64(%rbp)           # 4-byte Folded Spill
.LBB6_8:                                # %if.end34
	movl	$13, %r15d
	movl	$14, %r12d
.LBB6_18:                               # %if.end34
	movl	$12, %r14d
	movl	$12, %edi
	callq	_KPushCDep
	movl	%ebx, 24(%rsp)
	movl	%r13d, 16(%rsp)
	movl	-68(%rbp), %eax         # 4-byte Reload
	movl	%eax, 8(%rsp)
	movl	%r12d, (%rsp)
	xorl	%r12d, %r12d
	movl	$3, %edi
	movl	$7, %edx
	movl	$11, %ecx
	movl	$12, %r8d
	xorl	%eax, %eax
	movl	-64(%rbp), %esi         # 4-byte Reload
	movl	%r15d, %r9d
	callq	_KPhi
	movl	$5, %edi
	callq	_KWork
	movl	$3, %edi
	movl	$3, %esi
	xorl	%edx, %edx
	callq	_KTimestamp1
	leaq	-56(%rbp), %r15
	movl	$4, %ebx
	movl	$3, %edi
	movl	$4, %edx
	movq	%r15, %rsi
	callq	_KStore
	.loc	1 282 3                 # audiobeamlibm.c:282:3
.Ltmp320:
	movl	-60(%rbp), %eax         # 4-byte Reload
	movl	%eax, -56(%rbp)
	movl	$4, %esi
	movl	$4, %edx
	movq	%r15, %rdi
	callq	_KLoad0
	movss	-56(%rbp), %xmm0
	#DEBUG_VALUE: audiobeam___floorf:x <- [RBP+-60]
	movss	%xmm0, -60(%rbp)        # 4-byte Spill
	movl	$4, %edi
	movl	$4, %esi
	xorl	%edx, %edx
	callq	_KTimestamp1
	callq	_KPopCDep
.Ltmp321:
.LBB6_23:                               # %return
	movl	$5, %edi
	movl	$11, %edx
	movl	%ebx, %esi
	movl	%r14d, %ecx
	movl	%r12d, %r8d
	callq	_KPhi3To1
	movl	$5, %edi
	movl	$5, %esi
	xorl	%edx, %edx
	callq	_KTimestamp1
	movl	$5, %edi
	callq	_KReturn
	xorl	%esi, %esi
	movabsq	$2193092422560072784, %rdi # imm = 0x1E6F6DF0564B4450
	callq	_KExitRegion
	.loc	1 284 1                 # audiobeamlibm.c:284:1
	movss	-60(%rbp), %xmm0        # 4-byte Reload
	addq	$72, %rsp
	popq	%rbx
	popq	%r12
	popq	%r13
	popq	%r14
	popq	%r15
	popq	%rbp
	retq
.Ltmp322:
.Ltmp323:
	.size	audiobeam___floorf, .Ltmp323-audiobeam___floorf
.Lfunc_end6:
	.cfi_endproc

	.globl	audiobeam___isinff
	.align	16, 0x90
	.type	audiobeam___isinff,@function
audiobeam___isinff:                     # @audiobeam___isinff
.Lfunc_begin7:
	.loc	1 288 0                 # audiobeamlibm.c:288:0
	.cfi_startproc
# BB#0:                                 # %entry
	pushq	%rbp
.Ltmp324:
	.cfi_def_cfa_offset 16
.Ltmp325:
	.cfi_offset %rbp, -16
	movq	%rsp, %rbp
.Ltmp326:
	.cfi_def_cfa_register %rbp
	pushq	%r14
	pushq	%rbx
	subq	$16, %rsp
.Ltmp327:
	.cfi_offset %rbx, -32
.Ltmp328:
	.cfi_offset %r14, -24
	#DEBUG_VALUE: audiobeam___isinff:x <- XMM0
	movss	%xmm0, -28(%rbp)        # 4-byte Spill
.Ltmp329:
	#DEBUG_VALUE: audiobeam___isinff:x <- [RBP+-28]
	movabsq	$-6704913230824820943, %r14 # imm = 0xA2F35CF0D2DEAF31
	xorl	%esi, %esi
	movq	%r14, %rdi
	callq	_KEnterRegion
	movl	$4, %edi
	xorl	%esi, %esi
	callq	_KPrepRTable
	movl	$13, %edi
	callq	_KWork
	movl	$1, %edi
	callq	_KDeqArg
	movl	$1, %edi
	movl	$1, %esi
	xorl	%edx, %edx
	callq	_KTimestamp1
	leaq	-24(%rbp), %rbx
	movl	$1, %edi
	movl	$4, %edx
	movq	%rbx, %rsi
	callq	_KStore
	.loc	1 290 3 prologue_end    # audiobeamlibm.c:290:3
.Ltmp330:
	movss	-28(%rbp), %xmm0        # 4-byte Reload
	movss	%xmm0, -24(%rbp)
	movl	$2, %esi
	movl	$4, %edx
	movq	%rbx, %rdi
	callq	_KLoad0
	movl	-24(%rbp), %ebx
.Ltmp331:
	#DEBUG_VALUE: audiobeam___isinff:ix <- EBX
	.loc	1 291 7                 # audiobeamlibm.c:291:7
	movl	%ebx, %eax
	andl	$2147483647, %eax       # imm = 0x7FFFFFFF
.Ltmp332:
	#DEBUG_VALUE: audiobeam___isinff:t <- EAX
	.loc	1 292 3                 # audiobeamlibm.c:292:3
	xorl	$-2139095041, %eax      # imm = 0xFFFFFFFF807FFFFF
.Ltmp333:
	.loc	1 293 8                 # audiobeamlibm.c:293:8
	incl	%eax
	.loc	1 294 13                # audiobeamlibm.c:294:13
	sarl	$31, %eax
	.loc	1 294 10 is_stmt 0      # audiobeamlibm.c:294:10
	notl	%eax
	.loc	1 294 27                # audiobeamlibm.c:294:27
	sarl	$30, %ebx
.Ltmp334:
	.loc	1 294 10                # audiobeamlibm.c:294:10
	andl	%eax, %ebx
	movl	$3, %edi
	movl	$2, %esi
	movl	$7, %edx
	callq	_KTimestamp1
	movl	$3, %edi
	callq	_KReturn
	xorl	%esi, %esi
	movq	%r14, %rdi
	callq	_KExitRegion
	.loc	1 294 3                 # audiobeamlibm.c:294:3
	movl	%ebx, %eax
	addq	$16, %rsp
	popq	%rbx
	popq	%r14
	popq	%rbp
	retq
.Ltmp335:
.Ltmp336:
	.size	audiobeam___isinff, .Ltmp336-audiobeam___isinff
.Lfunc_end7:
	.cfi_endproc

	.section	.rodata.cst4,"aM",@progbits,4
	.align	4
.LCPI8_0:
	.long	1275068416              # float 33554432
.LCPI8_1:
	.long	855638016               # float 2.98023224E-8
.LCPI8_2:
	.long	228737632               # float 1.0E-30
.LCPI8_3:
	.long	1900671690              # float 1.00000002E+30
	.text
	.globl	audiobeam___scalbnf
	.align	16, 0x90
	.type	audiobeam___scalbnf,@function
audiobeam___scalbnf:                    # @audiobeam___scalbnf
.Lfunc_begin8:
	.loc	1 299 0 is_stmt 1       # audiobeamlibm.c:299:0
	.cfi_startproc
# BB#0:                                 # %entry
	pushq	%rbp
.Ltmp337:
	.cfi_def_cfa_offset 16
.Ltmp338:
	.cfi_offset %rbp, -16
	movq	%rsp, %rbp
.Ltmp339:
	.cfi_def_cfa_register %rbp
	pushq	%r15
	pushq	%r14
	pushq	%r13
	pushq	%r12
	pushq	%rbx
	subq	$88, %rsp
.Ltmp340:
	.cfi_offset %rbx, -56
.Ltmp341:
	.cfi_offset %r12, -48
.Ltmp342:
	.cfi_offset %r13, -40
.Ltmp343:
	.cfi_offset %r14, -32
.Ltmp344:
	.cfi_offset %r15, -24
	#DEBUG_VALUE: audiobeam___scalbnf:x <- XMM0
	#DEBUG_VALUE: audiobeam___scalbnf:n <- EDI
	movl	%edi, -84(%rbp)         # 4-byte Spill
.Ltmp345:
	#DEBUG_VALUE: audiobeam___scalbnf:n <- [RBP+-84]
	movss	%xmm0, -76(%rbp)        # 4-byte Spill
.Ltmp346:
	#DEBUG_VALUE: audiobeam___scalbnf:x <- [RBP+-76]
	#DEBUG_VALUE: audiobeam___scalbnf:x <- undef
	movabsq	$-152201930129171308, %rdi # imm = 0xFDE34526A4859C94
	xorl	%r15d, %r15d
	xorl	%esi, %esi
	callq	_KEnterRegion
	movl	$31, %edi
	xorl	%esi, %esi
	callq	_KPrepRTable
	movl	$2, %edi
	callq	_KDeqArg
	movl	$1, -80(%rbp)           # 4-byte Folded Spill
	movl	$1, %edi
	callq	_KDeqArg
	movl	$8, %edi
	callq	_KWork
	movl	$1, %edi
	movl	$1, %esi
	xorl	%edx, %edx
	callq	_KTimestamp1
	leaq	-48(%rbp), %rbx
	movl	$1, %edi
	movl	$4, %edx
	movq	%rbx, %rsi
	callq	_KStore
	.loc	1 301 3 prologue_end    # audiobeamlibm.c:301:3
.Ltmp347:
	movss	-76(%rbp), %xmm0        # 4-byte Reload
	movss	%xmm0, -48(%rbp)
.Ltmp348:
	#DEBUG_VALUE: audiobeam___scalbnf:x <- [RBP+-76]
	movl	$3, %r12d
	movl	$3, %esi
	movl	$4, %edx
	movq	%rbx, %rdi
	callq	_KLoad0
	movl	-48(%rbp), %ebx
.Ltmp349:
	#DEBUG_VALUE: audiobeam___scalbnf:ix <- EBX
	.loc	1 302 7                 # audiobeamlibm.c:302:7
	movl	%ebx, %r13d
	shrl	$23, %r13d
	movl	$19, %edi
	movl	$3, %esi
	movl	$3, %edx
	callq	_KTimestamp1
	movl	$18, %r14d
	movl	$18, %edi
	movl	$3, %esi
	movl	$2, %edx
	callq	_KTimestamp1
	movl	$3, %edi
	movl	$3, %esi
	xorl	%edx, %edx
	callq	_KTimestamp1
	.loc	1 303 8                 # audiobeamlibm.c:303:8
	andl	$255, %r13d
	je	.LBB8_2
.Ltmp350:
# BB#1:
	#DEBUG_VALUE: audiobeam___scalbnf:x <- [RBP+-76]
	#DEBUG_VALUE: audiobeam___scalbnf:n <- [RBP+-84]
	#DEBUG_VALUE: audiobeam___scalbnf:ix <- EBX
	movl	%ebx, -88(%rbp)         # 4-byte Spill
.Ltmp351:
	#DEBUG_VALUE: audiobeam___scalbnf:ix <- [RBP+-88]
	jmp	.LBB8_5
.LBB8_2:                                # %if.then
	#DEBUG_VALUE: audiobeam___scalbnf:x <- [RBP+-76]
	#DEBUG_VALUE: audiobeam___scalbnf:n <- [RBP+-84]
.Ltmp352:
	#DEBUG_VALUE: audiobeam___scalbnf:ix <- EBX
	movl	$19, %edi
	callq	_KPushCDep
	movl	$2, %edi
	callq	_KWork
	movl	$20, %r15d
	movl	$5, %r12d
	movl	$20, %edi
	movl	$3, %esi
	movl	$5, %edx
	callq	_KTimestamp1
	callq	_KPopCDep
	movl	$20, %edi
	callq	_KPushCDep
	.loc	1 304 10                # audiobeamlibm.c:304:10
.Ltmp353:
	testl	$2147483647, %ebx       # imm = 0x7FFFFFFF
	je	.LBB8_3
.Ltmp354:
# BB#4:                                 # %if.end
	#DEBUG_VALUE: audiobeam___scalbnf:x <- [RBP+-76]
	#DEBUG_VALUE: audiobeam___scalbnf:n <- [RBP+-84]
	movl	$13, %edi
	callq	_KWork
.Ltmp355:
	#DEBUG_VALUE: audiobeam___scalbnf:x <- undef
	.loc	1 305 5                 # audiobeamlibm.c:305:5
	movss	-76(%rbp), %xmm0        # 4-byte Reload
	mulss	.LCPI8_0(%rip), %xmm0
	movss	%xmm0, -76(%rbp)        # 4-byte Spill
.Ltmp356:
	#DEBUG_VALUE: audiobeam___scalbnf:x <- [RBP+-76]
	movl	$4, -80(%rbp)           # 4-byte Folded Spill
	movl	$4, %edi
	movl	$1, %esi
	movl	$5, %edx
	movl	$3, %ecx
	movl	$10, %r8d
	callq	_KTimestamp2
	leaq	-56(%rbp), %rbx
	movl	$4, %edi
	movl	$4, %edx
	movq	%rbx, %rsi
	callq	_KStore
	.loc	1 306 5                 # audiobeamlibm.c:306:5
.Ltmp357:
	movss	-76(%rbp), %xmm0        # 4-byte Reload
	movss	%xmm0, -56(%rbp)
	#DEBUG_VALUE: audiobeam___scalbnf:x <- [RBP+-76]
	movl	$5, %esi
	movl	$4, %edx
	movq	%rbx, %rdi
	callq	_KLoad0
	movl	-56(%rbp), %eax
.Ltmp358:
	#DEBUG_VALUE: audiobeam___scalbnf:ix <- EAX
	.loc	1 307 11                # audiobeamlibm.c:307:11
	movl	%eax, -88(%rbp)         # 4-byte Spill
.Ltmp359:
	#DEBUG_VALUE: audiobeam___scalbnf:ix <- [RBP+-88]
	shrl	$23, %eax
	movzbl	%al, %r13d
	.loc	1 307 9 is_stmt 0       # audiobeamlibm.c:307:9
	addl	$-25, %r13d
.Ltmp360:
	#DEBUG_VALUE: audiobeam___scalbnf:k <- R13D
	movl	$17, %r14d
	movl	$17, %edi
	movl	$3, %esi
	movl	$8, %edx
	movl	$5, %ecx
	movl	$3, %r8d
	callq	_KTimestamp2
	movl	$5, %edi
	movl	$5, %esi
	xorl	%edx, %edx
	callq	_KTimestamp1
	callq	_KPopCDep
.Ltmp361:
.LBB8_5:                                # %if.end9
	#DEBUG_VALUE: audiobeam___scalbnf:n <- [RBP+-84]
	movl	$19, %edi
	callq	_KPushCDep
	movl	$7, %edi
	movl	$19, %edx
	movl	-80(%rbp), %esi         # 4-byte Reload
	movl	%r15d, %ecx
	callq	_KPhi2To1
	movl	$11, %edi
	movl	$19, %edx
	movl	%r12d, %esi
	movl	%r15d, %ecx
	callq	_KPhi2To1
	movl	$10, %edi
	movl	$19, %edx
	movl	%r14d, %esi
	movl	%r15d, %ecx
	callq	_KPhi2To1
	movl	$1, %edi
	callq	_KWork
	movl	$7, %edi
	movl	$7, %esi
	xorl	%edx, %edx
	callq	_KTimestamp1
	movl	$26, %ebx
	movl	$26, %edi
	movl	$3, %esi
	movl	$4, %edx
	movl	$10, %ecx
	movl	$1, %r8d
	callq	_KTimestamp2
	callq	_KPopCDep
	movl	$26, %edi
	callq	_KPushCDep
	.loc	1 309 8 is_stmt 1       # audiobeamlibm.c:309:8
	cmpl	$255, %r13d
	jne	.LBB8_7
# BB#6:                                 # %if.then11
	movl	$2, %edi
	callq	_KWork
	.loc	1 309 27 is_stmt 0      # audiobeamlibm.c:309:27
.Ltmp362:
	movss	-76(%rbp), %xmm0        # 4-byte Reload
	addss	%xmm0, %xmm0
	movss	%xmm0, -76(%rbp)        # 4-byte Spill
	movl	$2, (%rsp)
	movl	$21, %edi
	movl	$3, %esi
	movl	$6, %edx
	movl	$10, %ecx
	movl	$3, %r8d
	movl	$7, %r9d
	callq	_KTimestamp3
	callq	_KPopCDep
	movl	$21, %esi
	xorl	%eax, %eax
	xorl	%r15d, %r15d
	xorl	%r13d, %r13d
	xorl	%r14d, %r14d
	xorl	%r12d, %r12d
	jmp	.LBB8_18
.Ltmp363:
.LBB8_7:                                # %if.end12
	#DEBUG_VALUE: audiobeam___scalbnf:n <- [RBP+-84]
	movl	$4, %edi
	callq	_KWork
	movl	$4, (%rsp)
	movl	$27, %r14d
	movl	$27, %edi
	movl	$2, %esi
	movl	$3, %edx
	movl	$3, %ecx
	movl	$7, %r8d
	movl	$10, %r9d
	callq	_KTimestamp3
	callq	_KPopCDep
	movl	$27, %edi
	callq	_KPushCDep
	movl	-84(%rbp), %ebx         # 4-byte Reload
.Ltmp364:
	#DEBUG_VALUE: audiobeam___scalbnf:n <- EBX
	.loc	1 311 8 is_stmt 1       # audiobeamlibm.c:311:8
	cmpl	$50000, %ebx            # imm = 0xC350
	movl	-88(%rbp), %r12d        # 4-byte Reload
	jg	.LBB8_9
.Ltmp365:
# BB#8:                                 # %if.end12
	#DEBUG_VALUE: audiobeam___scalbnf:n <- EBX
	.loc	1 310 7                 # audiobeamlibm.c:310:7
	addl	%ebx, %r13d
.Ltmp366:
	#DEBUG_VALUE: audiobeam___scalbnf:k <- R13D
	cmpl	$255, %r13d
	jge	.LBB8_9
.Ltmp367:
# BB#10:                                # %if.end18
	#DEBUG_VALUE: audiobeam___scalbnf:n <- EBX
	#DEBUG_VALUE: audiobeam___scalbnf:k <- R13D
	movl	$1, %edi
	callq	_KWork
	movl	$5, (%rsp)
	movl	$28, %r15d
	movl	$28, %edi
	movl	$2, %esi
	movl	$4, %edx
	movl	$3, %ecx
	movl	$8, %r8d
	movl	$10, %r9d
	callq	_KTimestamp3
	callq	_KPopCDep
	movl	$28, %edi
	callq	_KPushCDep
	.loc	1 314 8                 # audiobeamlibm.c:314:8
	cmpl	$-50001, %ebx           # imm = 0xFFFFFFFFFFFF3CAF
	jg	.LBB8_12
.Ltmp368:
# BB#11:                                # %if.then20
	movl	$5, %edi
	callq	_KWork
	xorl	%r13d, %r13d
	movabsq	$6623164224250607929, %rdi # imm = 0x5BEA34C55B887939
	xorl	%esi, %esi
	callq	_KPrepCall
	movl	$7, %edi
	callq	_KEnqArg
	callq	_KEnqArgConst
	movl	$8, %edi
	callq	_KLinkReturn
	movss	.LCPI8_2(%rip), %xmm0
	.loc	1 315 29                # audiobeamlibm.c:315:29
.Ltmp369:
	movss	-76(%rbp), %xmm1        # 4-byte Reload
	callq	audiobeam___copysignf
	.loc	1 315 12 is_stmt 0      # audiobeamlibm.c:315:12
	mulss	.LCPI8_2(%rip), %xmm0
	movss	%xmm0, -76(%rbp)        # 4-byte Spill
	movl	$5, 16(%rsp)
	movl	$8, 8(%rsp)
	movl	$10, (%rsp)
	movl	$23, %edi
	movl	$2, %esi
	movl	$9, %edx
	movl	$3, %ecx
	movl	$13, %r8d
	movl	$10, %r9d
	callq	_KTimestamp4
	callq	_KPopCDep
	movl	$23, %esi
	movl	$26, %ebx
	movl	$27, %r14d
	xorl	%eax, %eax
	xorl	%r12d, %r12d
	jmp	.LBB8_18
.Ltmp370:
.LBB8_9:                                # %if.then16
	xorl	%r13d, %r13d
	movabsq	$929558715102202024, %rdi # imm = 0xCE674B9F38908A8
	xorl	%esi, %esi
	callq	_KPrepCall
	movl	$7, %edi
	callq	_KEnqArg
	callq	_KEnqArgConst
	movl	$6, %edi
	callq	_KLinkReturn
	movl	$5, %edi
	callq	_KWork
	movss	.LCPI8_3(%rip), %xmm0
	.loc	1 312 29 is_stmt 1      # audiobeamlibm.c:312:29
.Ltmp371:
	movss	-76(%rbp), %xmm1        # 4-byte Reload
	callq	audiobeam___copysignf
	.loc	1 312 12 is_stmt 0      # audiobeamlibm.c:312:12
	mulss	.LCPI8_3(%rip), %xmm0
	movss	%xmm0, -76(%rbp)        # 4-byte Spill
	movl	$5, 16(%rsp)
	movl	$6, 8(%rsp)
	movl	$9, (%rsp)
	movl	$22, %edi
	movl	$2, %esi
	movl	$8, %edx
	movl	$3, %ecx
	movl	$12, %r8d
	movl	$10, %r9d
	callq	_KTimestamp4
	callq	_KPopCDep
	movl	$22, %esi
	movl	$26, %ebx
	xorl	%eax, %eax
	xorl	%r15d, %r15d
	xorl	%r12d, %r12d
	jmp	.LBB8_18
.Ltmp372:
.LBB8_3:                                # %if.then3
	#DEBUG_VALUE: audiobeam___scalbnf:x <- [RBP+-76]
	callq	_KPopCDep
	movl	$1, %esi
	movl	$20, %r12d
	xorl	%r13d, %r13d
	xorl	%eax, %eax
	xorl	%r15d, %r15d
	xorl	%r14d, %r14d
	xorl	%ebx, %ebx
	jmp	.LBB8_18
.LBB8_12:                               # %if.end23
.Ltmp373:
	#DEBUG_VALUE: audiobeam___scalbnf:k <- R13D
	movl	$1, %edi
	callq	_KWork
	movl	$6, (%rsp)
	movl	$29, %edi
	movl	$2, %esi
	movl	$5, %edx
	movl	$3, %ecx
	movl	$9, %r8d
	movl	$10, %r9d
	callq	_KTimestamp3
	callq	_KPopCDep
	movl	$29, %edi
	callq	_KPushCDep
	.loc	1 317 8 is_stmt 1       # audiobeamlibm.c:317:8
	testl	%r13d, %r13d
	jle	.LBB8_14
.Ltmp374:
# BB#13:                                # %if.then25
	#DEBUG_VALUE: audiobeam___scalbnf:k <- R13D
	movl	$8, %edi
	callq	_KWork
	.loc	1 318 5                 # audiobeamlibm.c:318:5
.Ltmp375:
	andl	$-2139095041, %r12d     # imm = 0xFFFFFFFF807FFFFF
	shll	$23, %r13d
.Ltmp376:
	orl	%r12d, %r13d
	movl	$2, 16(%rsp)
	movl	$11, 8(%rsp)
	movl	$8, (%rsp)
	movl	$9, %edi
	movl	$2, %esi
	movl	$7, %edx
	movl	$3, %ecx
	movl	$11, %r8d
	movl	$10, %r9d
	callq	_KTimestamp4
	leaq	-64(%rbp), %rbx
	movl	$9, %edi
	movl	$4, %edx
	movq	%rbx, %rsi
	callq	_KStore
	movl	%r13d, -64(%rbp)
	movl	$12, %esi
	movl	$4, %edx
	movq	%rbx, %rdi
	callq	_KLoad0
	movss	-64(%rbp), %xmm0
	#DEBUG_VALUE: audiobeam___scalbnf:x <- [RBP+-76]
	movss	%xmm0, -76(%rbp)        # 4-byte Spill
	xorl	%r13d, %r13d
	movl	$12, %edi
	movl	$12, %esi
	xorl	%edx, %edx
	callq	_KTimestamp1
	callq	_KPopCDep
	movl	$12, %esi
	movl	$26, %ebx
	movl	$27, %r14d
	movl	$28, %r15d
	xorl	%r12d, %r12d
	movl	$29, %eax
	jmp	.LBB8_18
.Ltmp377:
.LBB8_14:                               # %if.end29
	#DEBUG_VALUE: audiobeam___scalbnf:k <- R13D
	movl	$1, %edi
	callq	_KWork
	movl	$7, (%rsp)
	movl	$30, %edi
	movl	$2, %esi
	movl	$6, %edx
	movl	$3, %ecx
	movl	$10, %r8d
	movl	$10, %r9d
	callq	_KTimestamp3
	callq	_KPopCDep
	movl	$30, %edi
	callq	_KPushCDep
	.loc	1 321 8                 # audiobeamlibm.c:321:8
	cmpl	$-25, %r13d
	jg	.LBB8_16
.Ltmp378:
# BB#15:                                # %if.then31
	xorl	%r12d, %r12d
	movabsq	$9084788305419479083, %rdi # imm = 0x7E13A6D49C26A82B
	xorl	%esi, %esi
	callq	_KPrepCall
	movl	$7, %edi
	callq	_KEnqArg
	callq	_KEnqArgConst
	movl	$13, %edi
	callq	_KLinkReturn
	movl	$5, %edi
	callq	_KWork
	movss	.LCPI8_2(%rip), %xmm0
	.loc	1 322 29                # audiobeamlibm.c:322:29
.Ltmp379:
	movss	-76(%rbp), %xmm1        # 4-byte Reload
	callq	audiobeam___copysignf
	.loc	1 322 12 is_stmt 0      # audiobeamlibm.c:322:12
	mulss	.LCPI8_2(%rip), %xmm0
	movss	%xmm0, -76(%rbp)        # 4-byte Spill
	movl	$5, 16(%rsp)
	movl	$13, 8(%rsp)
	movl	$12, (%rsp)
	movl	$24, %edi
	movl	$2, %esi
	movl	$11, %edx
	movl	$3, %ecx
	movl	$15, %r8d
	movl	$10, %r9d
	callq	_KTimestamp4
	callq	_KPopCDep
	movl	$24, %esi
	jmp	.LBB8_17
.Ltmp380:
.LBB8_16:                               # %if.end34
	#DEBUG_VALUE: audiobeam___scalbnf:k <- R13D
	movl	$14, %edi
	callq	_KWork
	.loc	1 325 3 is_stmt 1       # audiobeamlibm.c:325:3
.Ltmp381:
	andl	$-2139095041, %r12d     # imm = 0xFFFFFFFF807FFFFF
	shll	$23, %r13d
.Ltmp382:
	addl	$209715200, %r13d       # imm = 0xC800000
	orl	%r12d, %r13d
	movl	$2, 16(%rsp)
	movl	$11, 8(%rsp)
	movl	$10, (%rsp)
	movl	$14, %edi
	movl	$2, %esi
	movl	$9, %edx
	movl	$3, %ecx
	movl	$13, %r8d
	movl	$10, %r9d
	callq	_KTimestamp4
	leaq	-72(%rbp), %rbx
	movl	$14, %edi
	movl	$4, %edx
	movq	%rbx, %rsi
	callq	_KStore
	movl	%r13d, -72(%rbp)
	movl	$15, %esi
	movl	$4, %edx
	movq	%rbx, %rdi
	callq	_KLoad0
	movss	-72(%rbp), %xmm0
.Ltmp383:
	#DEBUG_VALUE: audiobeam___scalbnf:x <- XMM0
	.loc	1 326 10                # audiobeamlibm.c:326:10
	mulss	.LCPI8_1(%rip), %xmm0
.Ltmp384:
	movss	%xmm0, -76(%rbp)        # 4-byte Spill
	movl	$5, 16(%rsp)
	movl	$15, 8(%rsp)
	movl	$12, (%rsp)
	movl	$25, %edi
	movl	$2, %esi
	movl	$11, %edx
	movl	$3, %ecx
	movl	$15, %r8d
	movl	$10, %r9d
	callq	_KTimestamp4
	callq	_KPopCDep
	movl	$25, %esi
	xorl	%r12d, %r12d
.LBB8_17:                               # %return
	movl	$26, %ebx
	movl	$27, %r14d
	movl	$28, %r15d
	movl	$29, %eax
	movl	$30, %r13d
.LBB8_18:                               # %return
	movl	%r13d, 24(%rsp)
	movl	%eax, 16(%rsp)
	movl	%r15d, 8(%rsp)
	movl	%r14d, (%rsp)
	movl	$16, %edi
	movl	$7, %edx
	movl	$19, %ecx
	xorl	%eax, %eax
	movl	%r12d, %r8d
	movl	%ebx, %r9d
	callq	_KPhi
	movl	$16, %edi
	movl	$16, %esi
	xorl	%edx, %edx
	callq	_KTimestamp1
	movl	$16, %edi
	callq	_KReturn
	xorl	%esi, %esi
	movabsq	$-152201930129171308, %rdi # imm = 0xFDE34526A4859C94
	callq	_KExitRegion
	.loc	1 327 1                 # audiobeamlibm.c:327:1
	movss	-76(%rbp), %xmm0        # 4-byte Reload
	addq	$88, %rsp
	popq	%rbx
	popq	%r12
	popq	%r13
	popq	%r14
	popq	%r15
	popq	%rbp
	retq
.Ltmp385:
.Ltmp386:
	.size	audiobeam___scalbnf, .Ltmp386-audiobeam___scalbnf
.Lfunc_end8:
	.cfi_endproc

	.section	.rodata.cst4,"aM",@progbits,4
	.align	4
.LCPI9_0:
	.long	1900671690              # float 1.00000002E+30
	.text
	.globl	audiobeam___ceilf
	.align	16, 0x90
	.type	audiobeam___ceilf,@function
audiobeam___ceilf:                      # @audiobeam___ceilf
.Lfunc_begin9:
	.loc	1 331 0                 # audiobeamlibm.c:331:0
	.cfi_startproc
# BB#0:                                 # %entry
	pushq	%rbp
.Ltmp387:
	.cfi_def_cfa_offset 16
.Ltmp388:
	.cfi_offset %rbp, -16
	movq	%rsp, %rbp
.Ltmp389:
	.cfi_def_cfa_register %rbp
	pushq	%r15
	pushq	%r14
	pushq	%r13
	pushq	%r12
	pushq	%rbx
	subq	$72, %rsp
.Ltmp390:
	.cfi_offset %rbx, -56
.Ltmp391:
	.cfi_offset %r12, -48
.Ltmp392:
	.cfi_offset %r13, -40
.Ltmp393:
	.cfi_offset %r14, -32
.Ltmp394:
	.cfi_offset %r15, -24
	#DEBUG_VALUE: audiobeam___ceilf:x <- XMM0
	movss	%xmm0, -60(%rbp)        # 4-byte Spill
.Ltmp395:
	#DEBUG_VALUE: audiobeam___ceilf:x <- [RBP+-60]
	#DEBUG_VALUE: audiobeam___ceilf:x <- undef
	movabsq	$2066114697359390339, %rdi # imm = 0x1CAC505ED951F683
	xorl	%esi, %esi
	callq	_KEnterRegion
	movl	$19, %edi
	xorl	%esi, %esi
	callq	_KPrepRTable
	movl	$9, %edi
	callq	_KWork
	movl	$1, %edi
	callq	_KDeqArg
	movl	$1, %edi
	movl	$1, %esi
	xorl	%edx, %edx
	callq	_KTimestamp1
	leaq	-48(%rbp), %rbx
	movl	$1, %edi
	movl	$4, %edx
	movq	%rbx, %rsi
	callq	_KStore
	.loc	1 335 3 prologue_end    # audiobeamlibm.c:335:3
.Ltmp396:
	movss	-60(%rbp), %xmm0        # 4-byte Reload
	movss	%xmm0, -48(%rbp)
.Ltmp397:
	#DEBUG_VALUE: audiobeam___ceilf:x <- [RBP+-60]
	movl	$2, %esi
	movl	$4, %edx
	movq	%rbx, %rdi
	callq	_KLoad0
	movl	-48(%rbp), %r12d
.Ltmp398:
	#DEBUG_VALUE: audiobeam___ceilf:i0 <- R12D
	.loc	1 336 12                # audiobeamlibm.c:336:12
	movl	%r12d, %eax
	shrl	$23, %eax
	.loc	1 336 10 is_stmt 0      # audiobeamlibm.c:336:10
	movzbl	%al, %ebx
	.loc	1 336 8                 # audiobeamlibm.c:336:8
	leal	-127(%rbx), %r15d
.Ltmp399:
	#DEBUG_VALUE: audiobeam___ceilf:j0 <- R15D
	movl	$11, %edi
	movl	$2, %esi
	movl	$4, %edx
	callq	_KTimestamp1
	movl	$2, %edi
	movl	$2, %esi
	xorl	%edx, %edx
	callq	_KTimestamp1
	movl	$11, %edi
	callq	_KPushCDep
	movl	$1, %edi
	callq	_KWork
	.loc	1 337 8 is_stmt 1       # audiobeamlibm.c:337:8
	cmpl	$22, %r15d
	jg	.LBB9_19
.Ltmp400:
# BB#1:                                 # %if.then
	#DEBUG_VALUE: audiobeam___ceilf:x <- [RBP+-60]
	#DEBUG_VALUE: audiobeam___ceilf:i0 <- R12D
	#DEBUG_VALUE: audiobeam___ceilf:j0 <- R15D
	movl	$12, %edi
	movl	$2, %esi
	movl	$5, %edx
	callq	_KTimestamp1
	callq	_KPopCDep
	movl	$12, %edi
	callq	_KPushCDep
	.loc	1 338 10                # audiobeamlibm.c:338:10
.Ltmp401:
	cmpl	$126, %ebx
	ja	.LBB9_10
.Ltmp402:
# BB#2:                                 # %if.then2
	#DEBUG_VALUE: audiobeam___ceilf:x <- [RBP+-60]
	#DEBUG_VALUE: audiobeam___ceilf:i0 <- R12D
	movl	$4, %edi
	callq	_KWork
.Ltmp403:
	#DEBUG_VALUE: audiobeam___ceilf:x <- undef
	.loc	1 339 12                # audiobeamlibm.c:339:12
	movss	-60(%rbp), %xmm0        # 4-byte Reload
	addss	.LCPI9_0(%rip), %xmm0
	movss	%xmm0, -60(%rbp)        # 4-byte Spill
	movl	$13, %edi
	movl	$1, %esi
	movl	$4, %edx
	movl	$2, %ecx
	movl	$9, %r8d
	callq	_KTimestamp2
	callq	_KPopCDep
	xorps	%xmm0, %xmm0
.Ltmp404:
	.loc	1 339 12 is_stmt 0      # audiobeamlibm.c:339:12
	movss	-60(%rbp), %xmm1        # 4-byte Reload
	ucomiss	%xmm0, %xmm1
	jbe	.LBB9_3
.Ltmp405:
# BB#4:                                 # %if.then4
	#DEBUG_VALUE: audiobeam___ceilf:i0 <- R12D
	movl	$13, %edi
	callq	_KPushCDep
	movl	$1, %edi
	callq	_KWork
	movl	$14, %edi
	movl	$1, %esi
	movl	$5, %edx
	movl	$2, %ecx
	movl	$10, %r8d
	callq	_KTimestamp2
	callq	_KPopCDep
	movl	$14, %edi
	callq	_KPushCDep
	.loc	1 340 14 is_stmt 1      # audiobeamlibm.c:340:14
.Ltmp406:
	testl	%r12d, %r12d
	js	.LBB9_5
.Ltmp407:
# BB#7:                                 # %if.else
	#DEBUG_VALUE: audiobeam___ceilf:i0 <- R12D
	movl	$1, %edi
	callq	_KWork
	movl	$15, %r13d
	movl	$15, %edi
	movl	$1, %esi
	movl	$6, %edx
	movl	$2, %ecx
	movl	$11, %r8d
	callq	_KTimestamp2
	callq	_KPopCDep
	.loc	1 343 16                # audiobeamlibm.c:343:16
.Ltmp408:
	testl	%r12d, %r12d
	je	.LBB9_8
.Ltmp409:
# BB#9:                                 # %if.then8
	movl	$13, -68(%rbp)          # 4-byte Folded Spill
	movl	$15, %r13d
	movl	$15, %edi
	callq	_KPushCDep
.Ltmp410:
	#DEBUG_VALUE: audiobeam___ceilf:i0 <- 1065353216
	callq	_KPopCDep
	movl	$1065353216, %r12d      # imm = 0x3F800000
	movl	$0, -64(%rbp)           # 4-byte Folded Spill
	movl	$0, -60(%rbp)           # 4-byte Folded Spill
	jmp	.LBB9_6
.LBB9_19:                               # %if.else28
.Ltmp411:
	#DEBUG_VALUE: audiobeam___ceilf:x <- [RBP+-60]
	#DEBUG_VALUE: audiobeam___ceilf:j0 <- R15D
	movl	$18, %r13d
	movl	$18, %edi
	movl	$2, %esi
	movl	$5, %edx
	callq	_KTimestamp1
	callq	_KPopCDep
	movl	$18, %edi
	callq	_KPushCDep
	.loc	1 355 10                # audiobeamlibm.c:355:10
.Ltmp412:
	cmpl	$128, %r15d
	jne	.LBB9_21
.Ltmp413:
# BB#20:                                # %if.then30
	#DEBUG_VALUE: audiobeam___ceilf:x <- [RBP+-60]
	movl	$2, %edi
	callq	_KWork
.Ltmp414:
	#DEBUG_VALUE: audiobeam___ceilf:x <- undef
	.loc	1 355 30 is_stmt 0      # audiobeamlibm.c:355:30
	movss	-60(%rbp), %xmm0        # 4-byte Reload
	addss	%xmm0, %xmm0
	movss	%xmm0, -60(%rbp)        # 4-byte Spill
	movl	$17, %ebx
	movl	$17, %edi
	movl	$1, %esi
	movl	$2, %edx
	movl	$2, %ecx
	movl	$7, %r8d
	callq	_KTimestamp2
	callq	_KPopCDep
	jmp	.LBB9_22
.Ltmp415:
.LBB9_10:                               # %if.else11
	#DEBUG_VALUE: audiobeam___ceilf:x <- [RBP+-60]
	#DEBUG_VALUE: audiobeam___ceilf:i0 <- R12D
	#DEBUG_VALUE: audiobeam___ceilf:j0 <- R15D
	movl	$3, %edi
	callq	_KWork
	movl	$8388607, %r14d         # imm = 0x7FFFFF
	.loc	1 347 11 is_stmt 1      # audiobeamlibm.c:347:11
.Ltmp416:
	movb	%r15b, %cl
	shrl	%cl, %r14d
.Ltmp417:
	#DEBUG_VALUE: audiobeam___ceilf:i <- R12D
	movl	$16, %edi
	movl	$2, %esi
	movl	$8, %edx
	callq	_KTimestamp1
	callq	_KPopCDep
	movl	$16, %edi
	callq	_KPushCDep
	.loc	1 348 12                # audiobeamlibm.c:348:12
	testl	%r12d, %r14d
	je	.LBB9_11
.Ltmp418:
# BB#12:                                # %if.end16
	#DEBUG_VALUE: audiobeam___ceilf:x <- [RBP+-60]
	#DEBUG_VALUE: audiobeam___ceilf:i0 <- R12D
	#DEBUG_VALUE: audiobeam___ceilf:j0 <- R15D
	#DEBUG_VALUE: audiobeam___ceilf:i <- R12D
	movl	$4, %edi
	callq	_KWork
.Ltmp419:
	#DEBUG_VALUE: audiobeam___ceilf:x <- undef
	.loc	1 349 12                # audiobeamlibm.c:349:12
	movss	-60(%rbp), %xmm0        # 4-byte Reload
	addss	.LCPI9_0(%rip), %xmm0
	movss	%xmm0, -60(%rbp)        # 4-byte Spill
	movl	$8, %edi
	movl	$1, %esi
	movl	$4, %edx
	movl	$2, %ecx
	movl	$12, %r8d
	callq	_KTimestamp2
	callq	_KPopCDep
	xorps	%xmm0, %xmm0
.Ltmp420:
	.loc	1 349 12 is_stmt 0      # audiobeamlibm.c:349:12
	movss	-60(%rbp), %xmm1        # 4-byte Reload
	ucomiss	%xmm0, %xmm1
	jbe	.LBB9_13
.Ltmp421:
# BB#15:                                # %if.then19
	#DEBUG_VALUE: audiobeam___ceilf:i0 <- R12D
	#DEBUG_VALUE: audiobeam___ceilf:j0 <- R15D
	#DEBUG_VALUE: audiobeam___ceilf:i <- R12D
	movl	$8, %edi
	callq	_KPushCDep
	movl	$1, %edi
	callq	_KWork
	movl	$2, %ebx
	movl	$9, %edi
	movl	$1, %esi
	movl	$5, %edx
	movl	$2, %ecx
	movl	$13, %r8d
	callq	_KTimestamp2
	callq	_KPopCDep
	.loc	1 350 14 is_stmt 1      # audiobeamlibm.c:350:14
.Ltmp422:
	testl	%r12d, %r12d
	jle	.LBB9_16
.Ltmp423:
# BB#17:                                # %if.then21
	#DEBUG_VALUE: audiobeam___ceilf:i0 <- R12D
	#DEBUG_VALUE: audiobeam___ceilf:j0 <- R15D
	#DEBUG_VALUE: audiobeam___ceilf:i <- R12D
	movl	$16, -64(%rbp)          # 4-byte Folded Spill
	movl	$9, %edi
	callq	_KPushCDep
	movl	$2, %edi
	callq	_KWork
	movl	$8388608, %eax          # imm = 0x800000
	.loc	1 350 29 is_stmt 0      # audiobeamlibm.c:350:29
.Ltmp424:
	movb	%r15b, %cl
	shrl	%cl, %eax
	.loc	1 350 23                # audiobeamlibm.c:350:23
	addl	%eax, %r12d
.Ltmp425:
	movl	$7, %ebx
	movl	$7, %edi
	movl	$1, %esi
	movl	$7, %edx
	movl	$2, %ecx
	movl	$15, %r8d
	callq	_KTimestamp2
	callq	_KPopCDep
	jmp	.LBB9_18
.Ltmp426:
.LBB9_21:                               # %if.else32
	#DEBUG_VALUE: audiobeam___ceilf:x <- [RBP+-60]
	callq	_KPopCDep
	movl	$1, %ebx
.LBB9_22:                               # %return
	xorl	%r14d, %r14d
	jmp	.LBB9_23
.LBB9_3:
.Ltmp427:
	#DEBUG_VALUE: audiobeam___ceilf:i0 <- R12D
	movl	$13, -68(%rbp)          # 4-byte Folded Spill
	movl	$0, -64(%rbp)           # 4-byte Folded Spill
	movl	$2, -60(%rbp)           # 4-byte Folded Spill
	xorl	%r13d, %r13d
	xorl	%r15d, %r15d
	xorl	%ebx, %ebx
	jmp	.LBB9_14
.Ltmp428:
.LBB9_11:                               # %if.then15
	#DEBUG_VALUE: audiobeam___ceilf:x <- [RBP+-60]
	callq	_KPopCDep
	movl	$1, %ebx
	movl	$12, %r14d
	xorl	%r13d, %r13d
	jmp	.LBB9_23
.LBB9_13:
.Ltmp429:
	#DEBUG_VALUE: audiobeam___ceilf:i0 <- R12D
	#DEBUG_VALUE: audiobeam___ceilf:i <- R12D
	movl	$16, -64(%rbp)          # 4-byte Folded Spill
	movl	$2, -60(%rbp)           # 4-byte Folded Spill
	movl	$8, %ebx
	xorl	%r13d, %r13d
	xorl	%r15d, %r15d
	movl	$0, -68(%rbp)           # 4-byte Folded Spill
	jmp	.LBB9_14
.Ltmp430:
.LBB9_5:                                # %if.then6
	#DEBUG_VALUE: audiobeam___ceilf:i0 <- -2147483648
	movl	$13, -68(%rbp)          # 4-byte Folded Spill
	callq	_KPopCDep
	movl	$-2147483648, %r12d     # imm = 0xFFFFFFFF80000000
	movl	$0, -64(%rbp)           # 4-byte Folded Spill
	movl	$0, -60(%rbp)           # 4-byte Folded Spill
	xorl	%r13d, %r13d
.LBB9_6:                                # %if.end33
	movl	$14, %r15d
	xorl	%ebx, %ebx
	jmp	.LBB9_14
.LBB9_8:
	movl	$13, -68(%rbp)          # 4-byte Folded Spill
	movl	$0, -64(%rbp)           # 4-byte Folded Spill
	movl	$14, %r15d
	xorl	%ebx, %ebx
	xorl	%r12d, %r12d
	movl	$2, -60(%rbp)           # 4-byte Folded Spill
	jmp	.LBB9_14
.LBB9_16:
.Ltmp431:
	#DEBUG_VALUE: audiobeam___ceilf:i0 <- R12D
	#DEBUG_VALUE: audiobeam___ceilf:i <- R12D
	movl	$16, -64(%rbp)          # 4-byte Folded Spill
.Ltmp432:
.LBB9_18:                               # %if.end24
	movl	$0, -68(%rbp)           # 4-byte Folded Spill
	movl	$8, %edi
	callq	_KPushCDep
	movl	$6, %edi
	movl	$8, %edx
	movl	$9, %ecx
	movl	%ebx, %esi
	callq	_KPhi2To1
	movl	$2, %edi
	callq	_KWork
	.loc	1 351 17 is_stmt 1      # audiobeamlibm.c:351:17
	notl	%r14d
	.loc	1 351 9 is_stmt 0       # audiobeamlibm.c:351:9
	andl	%r14d, %r12d
.Ltmp433:
	#DEBUG_VALUE: audiobeam___ceilf:i0 <- R12D
	movl	$1, (%rsp)
	movl	$10, -60(%rbp)          # 4-byte Folded Spill
	movl	$10, %edi
	movl	$1, %esi
	movl	$6, %edx
	movl	$2, %ecx
	movl	$14, %r8d
	movl	$6, %r9d
	callq	_KTimestamp3
	callq	_KPopCDep
	xorl	%r13d, %r13d
	xorl	%r15d, %r15d
	movl	$8, %ebx
.Ltmp434:
.LBB9_14:                               # %if.end33
	movl	$12, %r14d
	movl	$12, %edi
	callq	_KPushCDep
	movl	%ebx, 24(%rsp)
	movl	-64(%rbp), %eax         # 4-byte Reload
	movl	%eax, 16(%rsp)
	movl	%r13d, 8(%rsp)
	movl	%r15d, (%rsp)
	xorl	%r13d, %r13d
	movl	$3, %edi
	movl	$7, %edx
	movl	$11, %ecx
	movl	$12, %r8d
	xorl	%eax, %eax
	movl	-60(%rbp), %esi         # 4-byte Reload
	movl	-68(%rbp), %r9d         # 4-byte Reload
	callq	_KPhi
	movl	$5, %edi
	callq	_KWork
	movl	$3, %edi
	movl	$3, %esi
	xorl	%edx, %edx
	callq	_KTimestamp1
	leaq	-56(%rbp), %r15
	movl	$4, %ebx
	movl	$3, %edi
	movl	$4, %edx
	movq	%r15, %rsi
	callq	_KStore
	.loc	1 358 3 is_stmt 1       # audiobeamlibm.c:358:3
.Ltmp435:
	movl	%r12d, -56(%rbp)
	movl	$4, %esi
	movl	$4, %edx
	movq	%r15, %rdi
	callq	_KLoad0
	movss	-56(%rbp), %xmm0
	#DEBUG_VALUE: audiobeam___ceilf:x <- [RBP+-60]
	movss	%xmm0, -60(%rbp)        # 4-byte Spill
	movl	$4, %edi
	movl	$4, %esi
	xorl	%edx, %edx
	callq	_KTimestamp1
	callq	_KPopCDep
.Ltmp436:
.LBB9_23:                               # %return
	movl	$5, %edi
	movl	$11, %edx
	movl	%ebx, %esi
	movl	%r14d, %ecx
	movl	%r13d, %r8d
	callq	_KPhi3To1
	movl	$5, %edi
	movl	$5, %esi
	xorl	%edx, %edx
	callq	_KTimestamp1
	movl	$5, %edi
	callq	_KReturn
	xorl	%esi, %esi
	movabsq	$2066114697359390339, %rdi # imm = 0x1CAC505ED951F683
	callq	_KExitRegion
	.loc	1 360 1                 # audiobeamlibm.c:360:1
	movss	-60(%rbp), %xmm0        # 4-byte Reload
	addq	$72, %rsp
	popq	%rbx
	popq	%r12
	popq	%r13
	popq	%r14
	popq	%r15
	popq	%rbp
	retq
.Ltmp437:
.Ltmp438:
	.size	audiobeam___ceilf, .Ltmp438-audiobeam___ceilf
.Lfunc_end9:
	.cfi_endproc

	.globl	audiobeam___ieee754_sqrtf
	.align	16, 0x90
	.type	audiobeam___ieee754_sqrtf,@function
audiobeam___ieee754_sqrtf:              # @audiobeam___ieee754_sqrtf
.Lfunc_begin10:
	.loc	1 364 0                 # audiobeamlibm.c:364:0
	.cfi_startproc
# BB#0:                                 # %entry
	pushq	%rbp
.Ltmp439:
	.cfi_def_cfa_offset 16
.Ltmp440:
	.cfi_offset %rbp, -16
	movq	%rsp, %rbp
.Ltmp441:
	.cfi_def_cfa_register %rbp
	pushq	%r15
	pushq	%r14
	pushq	%r13
	pushq	%r12
	pushq	%rbx
	subq	$104, %rsp
.Ltmp442:
	.cfi_offset %rbx, -56
.Ltmp443:
	.cfi_offset %r12, -48
.Ltmp444:
	.cfi_offset %r13, -40
.Ltmp445:
	.cfi_offset %r14, -32
.Ltmp446:
	.cfi_offset %r15, -24
	#DEBUG_VALUE: audiobeam___ieee754_sqrtf:x <- XMM0
	movss	%xmm0, -64(%rbp)        # 4-byte Spill
.Ltmp447:
	#DEBUG_VALUE: audiobeam___ieee754_sqrtf:x <- [RBP+-64]
	#DEBUG_VALUE: audiobeam___ieee754_sqrtf:x <- undef
	movabsq	$-3761758873219441472, %r12 # imm = 0xCBCB8C3C4714DCC0
	xorl	%r15d, %r15d
	xorl	%esi, %esi
	movq	%r12, %rdi
	callq	_KEnterRegion
	movl	$46, %edi
	movl	$2, %esi
	callq	_KPrepRTable
	movl	$7, %edi
	callq	_KWork
	movl	$1, %edi
	callq	_KDeqArg
.Ltmp448:
	#DEBUG_VALUE: audiobeam___ieee754_sqrtf:sign <- -2147483648
	movl	$1, %edi
	movl	$1, %esi
	xorl	%edx, %edx
	callq	_KTimestamp1
	leaq	-48(%rbp), %rbx
	movl	$1, %edi
	movl	$4, %edx
	movq	%rbx, %rsi
	callq	_KStore
	.loc	1 370 3 prologue_end    # audiobeamlibm.c:370:3
.Ltmp449:
	movss	-64(%rbp), %xmm0        # 4-byte Reload
	movss	%xmm0, -48(%rbp)
.Ltmp450:
	#DEBUG_VALUE: audiobeam___ieee754_sqrtf:x <- [RBP+-64]
	movl	$2, %esi
	movl	$4, %edx
	movq	%rbx, %rdi
	callq	_KLoad0
	movl	-48(%rbp), %r13d
.Ltmp451:
	#DEBUG_VALUE: audiobeam___ieee754_sqrtf:ix <- R13D
	.loc	1 372 10                # audiobeamlibm.c:372:10
	movl	%r13d, %ebx
	andl	$2139095040, %ebx       # imm = 0x7F800000
	movl	$43, %edi
	movl	$2, %esi
	movl	$2, %edx
	callq	_KTimestamp1
	movl	$2, %edi
	movl	$2, %esi
	xorl	%edx, %edx
	callq	_KTimestamp1
	movl	$43, %edi
	callq	_KPushCDep
.Ltmp452:
	.loc	1 372 8 is_stmt 0       # audiobeamlibm.c:372:8
	cmpl	$2139095040, %ebx       # imm = 0x7F800000
	jne	.LBB10_2
.Ltmp453:
# BB#1:                                 # %if.then
	#DEBUG_VALUE: audiobeam___ieee754_sqrtf:x <- [RBP+-64]
	#DEBUG_VALUE: audiobeam___ieee754_sqrtf:sign <- -2147483648
	movl	$7, %edi
	callq	_KWork
	movss	-64(%rbp), %xmm1        # 4-byte Reload
.Ltmp454:
	#DEBUG_VALUE: audiobeam___ieee754_sqrtf:x <- XMM1
	.loc	1 373 12 is_stmt 1      # audiobeamlibm.c:373:12
	movaps	%xmm1, %xmm0
	mulss	%xmm0, %xmm0
	addss	%xmm0, %xmm1
.Ltmp455:
	movss	%xmm1, -64(%rbp)        # 4-byte Spill
	movl	$41, %r14d
	movl	$41, %edi
	movl	$2, %esi
	movl	$9, %edx
	movl	$1, %ecx
	movl	$7, %r8d
	callq	_KTimestamp2
	callq	_KPopCDep
	xorl	%ebx, %ebx
	xorl	%r13d, %r13d
	jmp	.LBB10_25
.Ltmp456:
.LBB10_2:                               # %if.end
	#DEBUG_VALUE: audiobeam___ieee754_sqrtf:x <- [RBP+-64]
	#DEBUG_VALUE: audiobeam___ieee754_sqrtf:sign <- -2147483648
	#DEBUG_VALUE: audiobeam___ieee754_sqrtf:ix <- R13D
	movl	$1, %edi
	callq	_KWork
	movl	$2, %r12d
	movl	$15, %edi
	movl	$2, %esi
	movl	$3, %edx
	callq	_KTimestamp1
	callq	_KPopCDep
	.loc	1 374 8                 # audiobeamlibm.c:374:8
	testl	%r13d, %r13d
	jg	.LBB10_7
.Ltmp457:
# BB#3:                                 # %if.then2
	#DEBUG_VALUE: audiobeam___ieee754_sqrtf:x <- [RBP+-64]
	#DEBUG_VALUE: audiobeam___ieee754_sqrtf:sign <- -2147483648
	#DEBUG_VALUE: audiobeam___ieee754_sqrtf:ix <- R13D
	movl	%r13d, %r14d
.Ltmp458:
	#DEBUG_VALUE: audiobeam___ieee754_sqrtf:ix <- R14D
	movl	$15, %r13d
	movl	$15, %edi
	callq	_KPushCDep
	movl	$2, %edi
	callq	_KWork
	movl	$44, %ebx
	movl	$44, %edi
	movl	$2, %esi
	movl	$5, %edx
	callq	_KTimestamp1
	callq	_KPopCDep
	movl	$44, %edi
	callq	_KPushCDep
	.loc	1 375 10                # audiobeamlibm.c:375:10
.Ltmp459:
	testl	$2147483647, %r14d      # imm = 0x7FFFFFFF
	je	.LBB10_4
.Ltmp460:
# BB#5:                                 # %if.else
	#DEBUG_VALUE: audiobeam___ieee754_sqrtf:x <- [RBP+-64]
	#DEBUG_VALUE: audiobeam___ieee754_sqrtf:sign <- -2147483648
	#DEBUG_VALUE: audiobeam___ieee754_sqrtf:ix <- R14D
	movl	$1, %edi
	callq	_KWork
	movl	$45, %r15d
	movl	$45, %edi
	movl	$2, %esi
	movl	$6, %edx
	callq	_KTimestamp1
	callq	_KPopCDep
	.loc	1 377 12                # audiobeamlibm.c:377:12
.Ltmp461:
	testl	%r14d, %r14d
	movl	%r14d, %r13d
.Ltmp462:
	#DEBUG_VALUE: audiobeam___ieee754_sqrtf:ix <- R13D
	js	.LBB10_6
.Ltmp463:
.LBB10_7:                               # %if.end11
	#DEBUG_VALUE: audiobeam___ieee754_sqrtf:sign <- -2147483648
	#DEBUG_VALUE: audiobeam___ieee754_sqrtf:ix <- R13D
	movl	$15, %edi
	callq	_KPushCDep
	movl	$2, %edi
	callq	_KWork
	.loc	1 380 9                 # audiobeamlibm.c:380:9
	movl	%r13d, %ebx
	sarl	$23, %ebx
.Ltmp464:
	#DEBUG_VALUE: audiobeam___ieee754_sqrtf:m <- EBX
	movl	$10, %edi
	movl	$2, %esi
	movl	$5, %edx
	callq	_KTimestamp1
	movl	$14, %r14d
	movl	$14, %edi
	movl	$2, %esi
	movl	$4, %edx
	callq	_KTimestamp1
	callq	_KPopCDep
	.loc	1 381 8                 # audiobeamlibm.c:381:8
	testl	%ebx, %ebx
	jne	.LBB10_12
.Ltmp465:
# BB#8:                                 # %if.then13
	#DEBUG_VALUE: audiobeam___ieee754_sqrtf:sign <- -2147483648
	#DEBUG_VALUE: audiobeam___ieee754_sqrtf:ix <- R13D
	movabsq	$-8262192238461187513, %rbx # imm = 0x8D56CBEF20880A47
	movl	$10, %edi
	callq	_KPushCDep
.Ltmp466:
	#DEBUG_VALUE: audiobeam___ieee754_sqrtf:i <- 0
	movl	$12, %edi
	callq	_KInduction
	callq	_KPopCDep
	movl	$1, %esi
	movq	%rbx, %rdi
	callq	_KEnterRegion
	movl	$2, %ebx
	xorl	%r12d, %r12d
	movabsq	$7245523364855574719, %r15 # imm = 0x648D451CA60270BF
	xorl	%r14d, %r14d
	jmp	.LBB10_9
.Ltmp467:
	.align	16, 0x90
.LBB10_10:                              # %for.body
                                        #   in Loop: Header=BB10_9 Depth=1
	#DEBUG_VALUE: audiobeam___ieee754_sqrtf:sign <- -2147483648
	#DEBUG_VALUE: audiobeam___ieee754_sqrtf:i <- 0
	movl	$2, %esi
	movq	%r15, %rdi
	callq	_KEnterRegion
	movl	$11, %r12d
	movl	$11, %edi
	callq	_KPushCDep
	movl	$1, %edi
	callq	_KWork
	.loc	1 384 7                 # audiobeamlibm.c:384:7
.Ltmp468:
	addl	%r13d, %r13d
.Ltmp469:
	#DEBUG_VALUE: audiobeam___ieee754_sqrtf:ix <- R13D
	.loc	1 383 44                # audiobeamlibm.c:383:44
	incl	%r14d
.Ltmp470:
	#DEBUG_VALUE: audiobeam___ieee754_sqrtf:i <- R14D
	movl	$9, %ebx
	movl	$9, %edi
	movl	$8, %esi
	movl	$1, %edx
	movl	$11, %ecx
	movl	$1, %r8d
	callq	_KTimestamp2
	callq	_KPopCDep
	movl	$2, %esi
	movq	%r15, %rdi
	callq	_KExitRegion
.Ltmp471:
.LBB10_9:                               # %for.cond
                                        # =>This Inner Loop Header: Depth=1
	#DEBUG_VALUE: audiobeam___ieee754_sqrtf:sign <- -2147483648
	#DEBUG_VALUE: audiobeam___ieee754_sqrtf:i <- 0
	movl	$10, %edi
	callq	_KPushCDep
	movl	$8, %edi
	movl	$10, %edx
	movl	%ebx, %esi
	movl	%r12d, %ecx
	callq	_KPhi2To1
	movl	$2, %edi
	callq	_KWork
	movl	$8, %edi
	movl	$8, %esi
	xorl	%edx, %edx
	callq	_KTimestamp1
	movl	$11, %edi
	movl	$10, %esi
	movl	$2, %edx
	movl	$8, %ecx
	movl	$2, %r8d
	callq	_KTimestamp2
	movl	$8, %edi
	movl	$11, %esi
	callq	_KPhiAddCond
	callq	_KPopCDep
	.loc	1 383 5 is_stmt 0       # audiobeamlibm.c:383:5
	testl	$8388608, %r13d         # imm = 0x800000
	je	.LBB10_10
.Ltmp472:
# BB#11:                                # %for.cond.pre_exit.for.end
	#DEBUG_VALUE: audiobeam___ieee754_sqrtf:sign <- -2147483648
	#DEBUG_VALUE: audiobeam___ieee754_sqrtf:i <- 0
	movl	$1, %esi
	movabsq	$-8262192238461187513, %rdi # imm = 0x8D56CBEF20880A47
	movl	$1, %ebx
	callq	_KExitRegion
	movl	$10, %edi
	callq	_KPushCDep
	movl	$2, %edi
	callq	_KWork
	.loc	1 385 5 is_stmt 1       # audiobeamlibm.c:385:5
	subl	%r14d, %ebx
.Ltmp473:
	#DEBUG_VALUE: audiobeam___ieee754_sqrtf:m <- EBX
	movl	$13, %r14d
	movl	$13, %edi
	movl	$2, %esi
	movl	$7, %edx
	movl	$12, %ecx
	movl	$2, %r8d
	callq	_KTimestamp2
	callq	_KPopCDep
	movl	$8, %r12d
.Ltmp474:
.LBB10_12:                              # %if.end18
	#DEBUG_VALUE: audiobeam___ieee754_sqrtf:sign <- -2147483648
	movl	$15, %edi
	callq	_KPushCDep
	movl	$16, %edi
	movl	$15, %edx
	movl	$10, %ecx
	movl	%r12d, %esi
	callq	_KPhi2To1
	movl	$4, %edi
	movl	$15, %edx
	movl	$10, %ecx
	movl	%r14d, %esi
	callq	_KPhi2To1
	movl	$5, %edi
	callq	_KWork
	.loc	1 387 3                 # audiobeamlibm.c:387:3
	addl	$-127, %ebx
.Ltmp475:
	#DEBUG_VALUE: audiobeam___ieee754_sqrtf:m <- EBX
	.loc	1 388 10                # audiobeamlibm.c:388:10
	andl	$8388607, %r13d         # imm = 0x7FFFFF
	.loc	1 388 8 is_stmt 0       # audiobeamlibm.c:388:8
	orl	$8388608, %r13d         # imm = 0x800000
.Ltmp476:
	#DEBUG_VALUE: audiobeam___ieee754_sqrtf:ix <- R13D
	movl	$20, %edi
	movl	$2, %esi
	movl	$6, %edx
	movl	$4, %ecx
	movl	$3, %r8d
	callq	_KTimestamp2
	movl	$19, %r14d
	movl	$19, %edi
	movl	$2, %esi
	movl	$5, %edx
	movl	$16, %ecx
	movl	$2, %r8d
	callq	_KTimestamp2
	callq	_KPopCDep
	.loc	1 389 8 is_stmt 1       # audiobeamlibm.c:389:8
	testb	$1, %bl
	movabsq	$-8414650227322985711, %r12 # imm = 0x8B3928337340E311
	je	.LBB10_13
.Ltmp477:
# BB#14:                                # %if.then22
	#DEBUG_VALUE: audiobeam___ieee754_sqrtf:sign <- -2147483648
	#DEBUG_VALUE: audiobeam___ieee754_sqrtf:ix <- R13D
	#DEBUG_VALUE: audiobeam___ieee754_sqrtf:m <- EBX
	movq	%rbx, -96(%rbp)         # 8-byte Spill
.Ltmp478:
	#DEBUG_VALUE: audiobeam___ieee754_sqrtf:m <- [RBP+-96]
	movl	$20, %edi
	callq	_KPushCDep
	movl	$1, %edi
	callq	_KWork
	.loc	1 390 5                 # audiobeamlibm.c:390:5
.Ltmp479:
	addl	%r13d, %r13d
.Ltmp480:
	movl	$3, (%rsp)
	movl	$18, %r14d
	movl	$18, %edi
	movl	$2, %esi
	movl	$7, %edx
	movl	$4, %ecx
	movl	$4, %r8d
	movl	$16, %r9d
	callq	_KTimestamp3
	callq	_KPopCDep
	jmp	.LBB10_15
.Ltmp481:
.LBB10_13:
	#DEBUG_VALUE: audiobeam___ieee754_sqrtf:sign <- -2147483648
	#DEBUG_VALUE: audiobeam___ieee754_sqrtf:ix <- R13D
	#DEBUG_VALUE: audiobeam___ieee754_sqrtf:m <- EBX
	movq	%rbx, -96(%rbp)         # 8-byte Spill
.Ltmp482:
	#DEBUG_VALUE: audiobeam___ieee754_sqrtf:m <- [RBP+-96]
.LBB10_15:                              # %if.end24
	#DEBUG_VALUE: audiobeam___ieee754_sqrtf:sign <- -2147483648
	#DEBUG_VALUE: audiobeam___ieee754_sqrtf:m <- [RBP+-96]
	movl	$15, %edi
	callq	_KPushCDep
	movl	$17, %edi
	movl	$15, %edx
	movl	$20, %ecx
	movl	%r14d, %esi
	callq	_KPhi2To1
	movl	$1, %edi
	callq	_KWork
.Ltmp483:
	#DEBUG_VALUE: audiobeam___ieee754_sqrtf:r <- 16777216
	#DEBUG_VALUE: audiobeam___ieee754_sqrtf:q <- 0
	#DEBUG_VALUE: audiobeam___ieee754_sqrtf:s <- 0
	movl	$28, %r15d
	movl	$28, %edi
	movl	$2, %esi
	movl	$4, %edx
	movl	$17, %ecx
	movl	$1, %r8d
	callq	_KTimestamp2
	callq	_KPopCDep
	movl	$1, %esi
	movq	%r12, %rdi
	callq	_KEnterRegion
	movl	$16777216, %eax         # imm = 0x1000000
	movq	%rax, -64(%rbp)         # 8-byte Spill
	xorl	%ebx, %ebx
	movl	$0, -68(%rbp)           # 4-byte Folded Spill
	xorl	%eax, %eax
	movq	%rax, -88(%rbp)         # 8-byte Spill
	xorl	%r14d, %r14d
	xorl	%eax, %eax
	movq	%rax, -80(%rbp)         # 8-byte Spill
	xorl	%r12d, %r12d
	jmp	.LBB10_16
	.align	16, 0x90
.LBB10_20:                              # %if.end34
                                        #   in Loop: Header=BB10_16 Depth=1
	#DEBUG_VALUE: audiobeam___ieee754_sqrtf:sign <- -2147483648
	#DEBUG_VALUE: audiobeam___ieee754_sqrtf:m <- [RBP+-96]
	#DEBUG_VALUE: audiobeam___ieee754_sqrtf:s <- 0
	#DEBUG_VALUE: audiobeam___ieee754_sqrtf:q <- 0
	#DEBUG_VALUE: audiobeam___ieee754_sqrtf:r <- 16777216
	movl	$23, %ebx
	movl	$23, %edi
	callq	_KPushCDep
	movl	$30, %edi
	movl	$23, %edx
	movl	$33, %ecx
	movl	%r14d, %esi
	callq	_KPhi2To1
	movl	$26, %r14d
	movl	$26, %edi
	movl	$23, %edx
	movl	$33, %ecx
	movl	%r15d, %esi
	callq	_KPhi2To1
	movl	$22, -68(%rbp)          # 4-byte Folded Spill
	movl	$22, %edi
	movl	$23, %edx
	movl	$33, %ecx
	movl	%r12d, %esi
	callq	_KPhi2To1
	movl	$2, %edi
	callq	_KWork
	.loc	1 406 5                 # audiobeamlibm.c:406:5
.Ltmp484:
	movq	-64(%rbp), %rax         # 8-byte Reload
	shrl	%eax
.Ltmp485:
	#DEBUG_VALUE: audiobeam___ieee754_sqrtf:r <- [RBP+-64]
	movq	%rax, -64(%rbp)         # 8-byte Spill
	movl	$31, %r12d
	movl	$31, %edi
	movl	$24, %esi
	movl	$1, %edx
	movl	$23, %ecx
	movl	$1, %r8d
	callq	_KTimestamp2
	movl	$29, %r15d
	movl	$29, %edi
	movl	$23, %esi
	movl	$1, %edx
	movl	$30, %ecx
	movl	$1, %r8d
	callq	_KTimestamp2
	movl	$26, %edi
	movl	$26, %esi
	xorl	%edx, %edx
	callq	_KTimestamp1
	movl	$22, %edi
	movl	$22, %esi
	xorl	%edx, %edx
	callq	_KTimestamp1
	callq	_KPopCDep
	movl	$2, %esi
	movabsq	$2457730046582118012, %rdi # imm = 0x221B9C74AC54D67C
	callq	_KExitRegion
.Ltmp486:
.LBB10_16:                              # %while.cond
                                        # =>This Inner Loop Header: Depth=1
	#DEBUG_VALUE: audiobeam___ieee754_sqrtf:sign <- -2147483648
	#DEBUG_VALUE: audiobeam___ieee754_sqrtf:m <- [RBP+-96]
	#DEBUG_VALUE: audiobeam___ieee754_sqrtf:s <- 0
	#DEBUG_VALUE: audiobeam___ieee754_sqrtf:q <- 0
	#DEBUG_VALUE: audiobeam___ieee754_sqrtf:r <- 16777216
	movl	$15, %edi
	callq	_KPushCDep
	movl	$24, %edi
	movl	$15, %edx
	movl	%r12d, %esi
	movl	%ebx, %ecx
	callq	_KPhi2To1
	movl	$27, %edi
	movl	$15, %edx
	movl	%r15d, %esi
	movl	%ebx, %ecx
	callq	_KPhi2To1
	movl	$25, %edi
	movl	$15, %edx
	movl	%r14d, %esi
	movl	%ebx, %ecx
	callq	_KPhi2To1
	movl	$21, %edi
	movl	$15, %edx
	movl	-68(%rbp), %esi         # 4-byte Reload
	movl	%ebx, %ecx
	callq	_KPhi2To1
	movl	$1, %edi
	callq	_KWork
	movl	$27, %edi
	movl	$27, %esi
	xorl	%edx, %edx
	callq	_KTimestamp1
	movl	$25, %edi
	movl	$25, %esi
	xorl	%edx, %edx
	callq	_KTimestamp1
	movl	$21, %edi
	movl	$21, %esi
	xorl	%edx, %edx
	callq	_KTimestamp1
	movl	$23, %edi
	movl	$15, %esi
	movl	$1, %edx
	movl	$24, %ecx
	movl	$1, %r8d
	callq	_KTimestamp2
	movl	$24, %edi
	movl	$23, %esi
	callq	_KPhiAddCond
	movl	$24, %edi
	movl	$24, %esi
	xorl	%edx, %edx
	callq	_KTimestamp1
	movl	$27, %edi
	movl	$23, %esi
	callq	_KPhiAddCond
	movl	$25, %edi
	movl	$23, %esi
	callq	_KPhiAddCond
	movl	$21, %edi
	movl	$23, %esi
	callq	_KPhiAddCond
	callq	_KPopCDep
	movq	-64(%rbp), %rax         # 8-byte Reload
	.loc	1 398 11 discriminator 2 # audiobeamlibm.c:398:11
.Ltmp487:
	testl	%eax, %eax
	movq	%rax, %rbx
.Ltmp488:
	.loc	1 398 3 is_stmt 0       # audiobeamlibm.c:398:3
	je	.LBB10_21
# BB#17:                                # %while.body
                                        #   in Loop: Header=BB10_16 Depth=1
	#DEBUG_VALUE: audiobeam___ieee754_sqrtf:sign <- -2147483648
	#DEBUG_VALUE: audiobeam___ieee754_sqrtf:m <- [RBP+-96]
	#DEBUG_VALUE: audiobeam___ieee754_sqrtf:s <- 0
	#DEBUG_VALUE: audiobeam___ieee754_sqrtf:q <- 0
	#DEBUG_VALUE: audiobeam___ieee754_sqrtf:r <- 16777216
	.loc	1 393 3 is_stmt 1       # audiobeamlibm.c:393:3
	addl	%r13d, %r13d
	movl	$2, %esi
	movabsq	$2457730046582118012, %rdi # imm = 0x221B9C74AC54D67C
	callq	_KEnterRegion
	movl	$23, %edi
	callq	_KPushCDep
	movl	$2, %edi
	callq	_KWork
	.loc	1 399 9                 # audiobeamlibm.c:399:9
.Ltmp489:
	movq	-80(%rbp), %rax         # 8-byte Reload
	leal	(%rbx,%rax), %ebx
.Ltmp490:
	#DEBUG_VALUE: audiobeam___ieee754_sqrtf:t <- EBX
	movl	$2, 16(%rsp)
	movl	$23, 8(%rsp)
	movl	$2, (%rsp)
	movl	$25, %r15d
	movl	$27, %r14d
	movl	$33, %edi
	movl	$25, %esi
	movl	$2, %edx
	movl	$27, %ecx
	movl	$1, %r8d
	movl	$24, %r9d
	callq	_KTimestamp4
	callq	_KPopCDep
	movl	%r13d, %eax
	.loc	1 400 10                # audiobeamlibm.c:400:10
.Ltmp491:
                                        # kill: R13D<def> EAX<kill>
	subl	%ebx, %r13d
	movl	$21, %r12d
	jge	.LBB10_19
.Ltmp492:
# BB#18:                                #   in Loop: Header=BB10_16 Depth=1
	#DEBUG_VALUE: audiobeam___ieee754_sqrtf:sign <- -2147483648
	#DEBUG_VALUE: audiobeam___ieee754_sqrtf:m <- [RBP+-96]
	#DEBUG_VALUE: audiobeam___ieee754_sqrtf:s <- 0
	#DEBUG_VALUE: audiobeam___ieee754_sqrtf:q <- 0
	#DEBUG_VALUE: audiobeam___ieee754_sqrtf:r <- 16777216
	movl	%eax, %r13d
	jmp	.LBB10_20
	.align	16, 0x90
.LBB10_19:                              # %if.then30
                                        #   in Loop: Header=BB10_16 Depth=1
	#DEBUG_VALUE: audiobeam___ieee754_sqrtf:sign <- -2147483648
	#DEBUG_VALUE: audiobeam___ieee754_sqrtf:m <- [RBP+-96]
	#DEBUG_VALUE: audiobeam___ieee754_sqrtf:s <- 0
	#DEBUG_VALUE: audiobeam___ieee754_sqrtf:q <- 0
	#DEBUG_VALUE: audiobeam___ieee754_sqrtf:r <- 16777216
.Ltmp493:
	#DEBUG_VALUE: audiobeam___ieee754_sqrtf:t <- EBX
	movl	$33, %edi
	callq	_KPushCDep
	movl	$3, %edi
	callq	_KWork
	movq	-64(%rbp), %rcx         # 8-byte Reload
	.loc	1 401 14                # audiobeamlibm.c:401:14
.Ltmp494:
	addl	%ecx, %ebx
.Ltmp495:
	#DEBUG_VALUE: audiobeam___ieee754_sqrtf:s <- EBX
	#DEBUG_VALUE: audiobeam___ieee754_sqrtf:ix <- R13D
	.loc	1 403 7                 # audiobeamlibm.c:403:7
	movq	-88(%rbp), %rax         # 8-byte Reload
	addl	%ecx, %eax
.Ltmp496:
	#DEBUG_VALUE: audiobeam___ieee754_sqrtf:q <- [RBP+-88]
	movq	%rax, -88(%rbp)         # 8-byte Spill
	movl	$3, 16(%rsp)
	movl	$23, 8(%rsp)
	movl	$3, (%rsp)
	movl	$35, %r14d
	movl	$35, %edi
	movl	$25, %esi
	movl	$3, %edx
	movl	$27, %ecx
	movl	$2, %r8d
	movl	$24, %r9d
	callq	_KTimestamp4
	movl	$3, 16(%rsp)
	movl	$23, 8(%rsp)
	movl	$3, (%rsp)
	movl	$34, %r15d
	movl	$34, %edi
	movl	$25, %esi
	movl	$3, %edx
	movl	$27, %ecx
	movl	$2, %r8d
	movl	$24, %r9d
	callq	_KTimestamp4
	movl	$3, 32(%rsp)
	movl	$23, 24(%rsp)
	movl	$3, 16(%rsp)
	movl	$24, 8(%rsp)
	movl	$2, (%rsp)
	movl	$32, %r12d
	movl	$32, %edi
	movl	$21, %esi
	movl	$1, %edx
	movl	$25, %ecx
	movl	$3, %r8d
	movl	$27, %r9d
	callq	_KTimestamp5
	callq	_KPopCDep
	movl	%ebx, %eax
.Ltmp497:
	#DEBUG_VALUE: audiobeam___ieee754_sqrtf:s <- [RBP+-80]
	movq	%rax, -80(%rbp)         # 8-byte Spill
	jmp	.LBB10_20
.Ltmp498:
.LBB10_21:                              # %while.cond.pre_exit.while.end
	#DEBUG_VALUE: audiobeam___ieee754_sqrtf:sign <- -2147483648
	#DEBUG_VALUE: audiobeam___ieee754_sqrtf:m <- [RBP+-96]
	#DEBUG_VALUE: audiobeam___ieee754_sqrtf:s <- 0
	#DEBUG_VALUE: audiobeam___ieee754_sqrtf:q <- 0
	#DEBUG_VALUE: audiobeam___ieee754_sqrtf:r <- 16777216
	movl	$1, %esi
	movabsq	$-8414650227322985711, %rdi # imm = 0x8B3928337340E311
	callq	_KExitRegion
	movl	%r13d, %r14d
	movl	$15, %r13d
	movl	$15, %edi
	callq	_KPushCDep
	movl	$2, %edi
	callq	_KWork
	movq	-96(%rbp), %rbx         # 8-byte Reload
.Ltmp499:
	#DEBUG_VALUE: audiobeam___ieee754_sqrtf:m <- EBX
	.loc	1 391 3                 # audiobeamlibm.c:391:3
	shrl	%ebx
.Ltmp500:
	movl	$38, %edi
	movl	$2, %esi
	movl	$4, %edx
	movl	$27, %ecx
	movl	$1, %r8d
	callq	_KTimestamp2
	callq	_KPopCDep
	.loc	1 409 8                 # audiobeamlibm.c:409:8
.Ltmp501:
	testl	%r14d, %r14d
	movl	$21, %r15d
	je	.LBB10_22
# BB#23:                                # %if.then38
	#DEBUG_VALUE: audiobeam___ieee754_sqrtf:sign <- -2147483648
	#DEBUG_VALUE: audiobeam___ieee754_sqrtf:s <- 0
	#DEBUG_VALUE: audiobeam___ieee754_sqrtf:q <- 0
	#DEBUG_VALUE: audiobeam___ieee754_sqrtf:r <- 16777216
	movl	$38, %edi
	callq	_KPushCDep
	movl	$2, %edi
	callq	_KWork
.Ltmp502:
	#DEBUG_VALUE: audiobeam___ieee754_sqrtf:z <- 1.000000e+00
	movl	$39, -64(%rbp)          # 4-byte Folded Spill
	movl	$39, %edi
	movl	$2, %esi
	movl	$6, %edx
	movl	$27, %ecx
	movl	$3, %r8d
	callq	_KTimestamp2
	callq	_KPopCDep
	movl	$39, %edi
	callq	_KPushCDep
	movl	$2, %edi
	callq	_KWork
	movl	$40, %r12d
	movl	$40, %edi
	movl	$2, %esi
	movl	$8, %edx
	movl	$27, %ecx
	movl	$5, %r8d
	callq	_KTimestamp2
	callq	_KPopCDep
	movl	$40, %edi
	callq	_KPushCDep
	movl	$2, %edi
	callq	_KWork
	movq	-88(%rbp), %rax         # 8-byte Reload
	.loc	1 416 16                # audiobeamlibm.c:416:16
.Ltmp503:
	movl	%eax, %r14d
	andl	$1, %r14d
	.loc	1 416 9 is_stmt 0       # audiobeamlibm.c:416:9
	addl	%eax, %r14d
.Ltmp504:
	#DEBUG_VALUE: audiobeam___ieee754_sqrtf:q <- R14D
	movl	$7, (%rsp)
	movl	$37, %r15d
	movl	$37, %edi
	movl	$2, %esi
	movl	$10, %edx
	movl	$21, %ecx
	movl	$2, %r8d
	movl	$27, %r9d
	callq	_KTimestamp3
	callq	_KPopCDep
                                        # kill: R14D<def> R14D<kill> R14<def>
.Ltmp505:
	jmp	.LBB10_24
.Ltmp506:
.LBB10_22:
	#DEBUG_VALUE: audiobeam___ieee754_sqrtf:sign <- -2147483648
	#DEBUG_VALUE: audiobeam___ieee754_sqrtf:s <- 0
	#DEBUG_VALUE: audiobeam___ieee754_sqrtf:q <- 0
	#DEBUG_VALUE: audiobeam___ieee754_sqrtf:r <- 16777216
	xorl	%r12d, %r12d
	movl	$0, -64(%rbp)           # 4-byte Folded Spill
	movq	-88(%rbp), %r14         # 8-byte Reload
.LBB10_24:                              # %if.end49
	#DEBUG_VALUE: audiobeam___ieee754_sqrtf:sign <- -2147483648
	#DEBUG_VALUE: audiobeam___ieee754_sqrtf:s <- 0
	#DEBUG_VALUE: audiobeam___ieee754_sqrtf:q <- 0
	#DEBUG_VALUE: audiobeam___ieee754_sqrtf:r <- 16777216
	movl	$15, %edi
	callq	_KPushCDep
	movl	$5, %edi
	movl	$15, %edx
	movl	$38, %ecx
	movl	%r15d, %esi
	movl	-64(%rbp), %r8d         # 4-byte Reload
	movl	%r12d, %r9d
	callq	_KPhi4To1
	movl	$9, %edi
	callq	_KWork
	.loc	1 419 10 is_stmt 1      # audiobeamlibm.c:419:10
	sarl	%r14d
	.loc	1 420 11                # audiobeamlibm.c:420:11
	shll	$23, %ebx
	.loc	1 420 3 is_stmt 0       # audiobeamlibm.c:420:3
	leal	1056964608(%rbx,%r14), %ebx
.Ltmp507:
	#DEBUG_VALUE: audiobeam___ieee754_sqrtf:ix <- EBX
	movl	$3, (%rsp)
	movl	$3, %edi
	movl	$2, %esi
	movl	$7, %edx
	movl	$4, %ecx
	movl	$4, %r8d
	movl	$5, %r9d
	callq	_KTimestamp3
	leaq	-56(%rbp), %r12
	movl	$3, %edi
	movl	$4, %edx
	movq	%r12, %rsi
	callq	_KStore
	.loc	1 421 3 is_stmt 1       # audiobeamlibm.c:421:3
.Ltmp508:
	movl	%ebx, -56(%rbp)
	movl	$6, %r14d
	movl	$6, %esi
	movl	$4, %edx
	movq	%r12, %rdi
	callq	_KLoad0
	movss	-56(%rbp), %xmm0
.Ltmp509:
	#DEBUG_VALUE: audiobeam___ieee754_sqrtf:z <- [RBP+-64]
	movss	%xmm0, -64(%rbp)        # 4-byte Spill
	movl	$6, %edi
	movl	$6, %esi
	xorl	%edx, %edx
	callq	_KTimestamp1
	callq	_KPopCDep
	xorl	%ebx, %ebx
.Ltmp510:
	movabsq	$-3761758873219441472, %r12 # imm = 0xCBCB8C3C4714DCC0
	xorl	%r15d, %r15d
.Ltmp511:
.LBB10_25:                              # %return
	#DEBUG_VALUE: audiobeam___ieee754_sqrtf:sign <- -2147483648
	movl	$7, %edi
	movl	$43, %edx
	movl	%r14d, %esi
	movl	%r13d, %ecx
	movl	%ebx, %r8d
	movl	%r15d, %r9d
	callq	_KPhi4To1
	movl	$7, %edi
	movl	$7, %esi
	xorl	%edx, %edx
	callq	_KTimestamp1
	movl	$7, %edi
	callq	_KReturn
	xorl	%esi, %esi
	movq	%r12, %rdi
	callq	_KExitRegion
	.loc	1 423 1                 # audiobeamlibm.c:423:1
	movss	-64(%rbp), %xmm0        # 4-byte Reload
	addq	$104, %rsp
	popq	%rbx
	popq	%r12
	popq	%r13
	popq	%r14
	popq	%r15
	popq	%rbp
	retq
.LBB10_4:                               # %if.then5
	#DEBUG_VALUE: audiobeam___ieee754_sqrtf:x <- [RBP+-64]
	#DEBUG_VALUE: audiobeam___ieee754_sqrtf:sign <- -2147483648
	callq	_KPopCDep
	movl	$1, %r14d
	xorl	%r15d, %r15d
	movabsq	$-3761758873219441472, %r12 # imm = 0xCBCB8C3C4714DCC0
	jmp	.LBB10_25
.LBB10_6:                               # %if.then7
	#DEBUG_VALUE: audiobeam___ieee754_sqrtf:x <- [RBP+-64]
	#DEBUG_VALUE: audiobeam___ieee754_sqrtf:sign <- -2147483648
	movl	$45, %edi
	callq	_KPushCDep
	movl	$24, %edi
	callq	_KWork
	movss	-64(%rbp), %xmm0        # 4-byte Reload
.Ltmp512:
	#DEBUG_VALUE: audiobeam___ieee754_sqrtf:x <- XMM0
	.loc	1 378 18                # audiobeamlibm.c:378:18
	subss	%xmm0, %xmm0
.Ltmp513:
	.loc	1 378 16 is_stmt 0      # audiobeamlibm.c:378:16
	divss	%xmm0, %xmm0
	movss	%xmm0, -64(%rbp)        # 4-byte Spill
	movl	$42, %r14d
	movl	$42, %edi
	movl	$2, %esi
	movl	$28, %edx
	movl	$1, %ecx
	movl	$22, %r8d
	callq	_KTimestamp2
	callq	_KPopCDep
	movl	$15, %r13d
	movl	$44, %ebx
	movabsq	$-3761758873219441472, %r12 # imm = 0xCBCB8C3C4714DCC0
	jmp	.LBB10_25
.Ltmp514:
.Ltmp515:
	.size	audiobeam___ieee754_sqrtf, .Ltmp515-audiobeam___ieee754_sqrtf
.Lfunc_end10:
	.cfi_endproc

	.type	audiobeam_npio2_hw,@object # @audiobeam_npio2_hw
	.section	.rodata,"a",@progbits
	.align	16
audiobeam_npio2_hw:
	.long	1070141184              # 0x3fc90f00
	.long	1078529792              # 0x40490f00
	.long	1083624192              # 0x4096cb00
	.long	1086918400              # 0x40c90f00
	.long	1090212608              # 0x40fb5300
	.long	1092012800              # 0x4116cb00
	.long	1093659904              # 0x412fed00
	.long	1095307008              # 0x41490f00
	.long	1096954112              # 0x41623100
	.long	1098601216              # 0x417b5300
	.long	1099577856              # 0x418a3a00
	.long	1100401408              # 0x4196cb00
	.long	1101224960              # 0x41a35c00
	.long	1102048512              # 0x41afed00
	.long	1102872064              # 0x41bc7e00
	.long	1103695616              # 0x41c90f00
	.long	1104519168              # 0x41d5a000
	.long	1105342720              # 0x41e23100
	.long	1106166272              # 0x41eec200
	.long	1106989824              # 0x41fb5300
	.long	1107554816              # 0x4203f200
	.long	1107966464              # 0x420a3a00
	.long	1108378368              # 0x42108300
	.long	1108790016              # 0x4216cb00
	.long	1109201920              # 0x421d1400
	.long	1109613568              # 0x42235c00
	.long	1110025472              # 0x4229a500
	.long	1110437120              # 0x422fed00
	.long	1110849024              # 0x42363600
	.long	1111260672              # 0x423c7e00
	.long	1111672576              # 0x4242c700
	.long	1112084224              # 0x42490f00
	.size	audiobeam_npio2_hw, 128

	.type	krem_prefixb790707bba63007c_krem_callsiteId_krem_audiobeamlibm.c_krem_audiobeam___ieee754_rem_pio2f_krem_115_krem_115_krem_,@object # @krem_prefixb790707bba63007c_krem_callsiteId_krem_audiobeamlibm.c_krem_audiobeam___ieee754_rem_pio2f_krem_115_krem_115_krem_
	.bss
	.globl	krem_prefixb790707bba63007c_krem_callsiteId_krem_audiobeamlibm.c_krem_audiobeam___ieee754_rem_pio2f_krem_115_krem_115_krem_
krem_prefixb790707bba63007c_krem_callsiteId_krem_audiobeamlibm.c_krem_audiobeam___ieee754_rem_pio2f_krem_115_krem_115_krem_:
	.byte	0                       # 0x0
	.size	krem_prefixb790707bba63007c_krem_callsiteId_krem_audiobeamlibm.c_krem_audiobeam___ieee754_rem_pio2f_krem_115_krem_115_krem_, 1

	.type	krem_prefixb4b28eb103dd945a_krem_callsiteId_krem_audiobeamlibm.c_krem_audiobeam___cosf_krem_223_krem_223_krem_,@object # @krem_prefixb4b28eb103dd945a_krem_callsiteId_krem_audiobeamlibm.c_krem_audiobeam___cosf_krem_223_krem_223_krem_
	.globl	krem_prefixb4b28eb103dd945a_krem_callsiteId_krem_audiobeamlibm.c_krem_audiobeam___cosf_krem_223_krem_223_krem_
krem_prefixb4b28eb103dd945a_krem_callsiteId_krem_audiobeamlibm.c_krem_audiobeam___cosf_krem_223_krem_223_krem_:
	.byte	0                       # 0x0
	.size	krem_prefixb4b28eb103dd945a_krem_callsiteId_krem_audiobeamlibm.c_krem_audiobeam___cosf_krem_223_krem_223_krem_, 1

	.type	krem_prefix30c1dfe1e636747d_krem_callsiteId_krem_audiobeamlibm.c_krem_audiobeam___cosf_krem_231_krem_231_krem_,@object # @krem_prefix30c1dfe1e636747d_krem_callsiteId_krem_audiobeamlibm.c_krem_audiobeam___cosf_krem_231_krem_231_krem_
	.globl	krem_prefix30c1dfe1e636747d_krem_callsiteId_krem_audiobeamlibm.c_krem_audiobeam___cosf_krem_231_krem_231_krem_
krem_prefix30c1dfe1e636747d_krem_callsiteId_krem_audiobeamlibm.c_krem_audiobeam___cosf_krem_231_krem_231_krem_:
	.byte	0                       # 0x0
	.size	krem_prefix30c1dfe1e636747d_krem_callsiteId_krem_audiobeamlibm.c_krem_audiobeam___cosf_krem_231_krem_231_krem_, 1

	.type	krem_prefix7928fcb6b8aebd45_krem_callsiteId_krem_audiobeamlibm.c_krem_audiobeam___cosf_krem_234_krem_234_krem_,@object # @krem_prefix7928fcb6b8aebd45_krem_callsiteId_krem_audiobeamlibm.c_krem_audiobeam___cosf_krem_234_krem_234_krem_
	.globl	krem_prefix7928fcb6b8aebd45_krem_callsiteId_krem_audiobeamlibm.c_krem_audiobeam___cosf_krem_234_krem_234_krem_
krem_prefix7928fcb6b8aebd45_krem_callsiteId_krem_audiobeamlibm.c_krem_audiobeam___cosf_krem_234_krem_234_krem_:
	.byte	0                       # 0x0
	.size	krem_prefix7928fcb6b8aebd45_krem_callsiteId_krem_audiobeamlibm.c_krem_audiobeam___cosf_krem_234_krem_234_krem_, 1

	.type	krem_prefixfde063f60207e10d_krem_callsiteId_krem_audiobeamlibm.c_krem_audiobeam___cosf_krem_236_krem_236_krem_,@object # @krem_prefixfde063f60207e10d_krem_callsiteId_krem_audiobeamlibm.c_krem_audiobeam___cosf_krem_236_krem_236_krem_
	.globl	krem_prefixfde063f60207e10d_krem_callsiteId_krem_audiobeamlibm.c_krem_audiobeam___cosf_krem_236_krem_236_krem_
krem_prefixfde063f60207e10d_krem_callsiteId_krem_audiobeamlibm.c_krem_audiobeam___cosf_krem_236_krem_236_krem_:
	.byte	0                       # 0x0
	.size	krem_prefixfde063f60207e10d_krem_callsiteId_krem_audiobeamlibm.c_krem_audiobeam___cosf_krem_236_krem_236_krem_, 1

	.type	krem_prefix589a5d3396320a62_krem_callsiteId_krem_audiobeamlibm.c_krem_audiobeam___cosf_krem_238_krem_238_krem_,@object # @krem_prefix589a5d3396320a62_krem_callsiteId_krem_audiobeamlibm.c_krem_audiobeam___cosf_krem_238_krem_238_krem_
	.globl	krem_prefix589a5d3396320a62_krem_callsiteId_krem_audiobeamlibm.c_krem_audiobeam___cosf_krem_238_krem_238_krem_
krem_prefix589a5d3396320a62_krem_callsiteId_krem_audiobeamlibm.c_krem_audiobeam___cosf_krem_238_krem_238_krem_:
	.byte	0                       # 0x0
	.size	krem_prefix589a5d3396320a62_krem_callsiteId_krem_audiobeamlibm.c_krem_audiobeam___cosf_krem_238_krem_238_krem_, 1

	.type	krem_prefix8d0fed865c02aa5a_krem_callsiteId_krem_audiobeamlibm.c_krem_audiobeam___cosf_krem_240_krem_240_krem_,@object # @krem_prefix8d0fed865c02aa5a_krem_callsiteId_krem_audiobeamlibm.c_krem_audiobeam___cosf_krem_240_krem_240_krem_
	.globl	krem_prefix8d0fed865c02aa5a_krem_callsiteId_krem_audiobeamlibm.c_krem_audiobeam___cosf_krem_240_krem_240_krem_
krem_prefix8d0fed865c02aa5a_krem_callsiteId_krem_audiobeamlibm.c_krem_audiobeam___cosf_krem_240_krem_240_krem_:
	.byte	0                       # 0x0
	.size	krem_prefix8d0fed865c02aa5a_krem_callsiteId_krem_audiobeamlibm.c_krem_audiobeam___cosf_krem_240_krem_240_krem_, 1

	.type	krem_prefix0ce674b9f38908a8_krem_callsiteId_krem_audiobeamlibm.c_krem_audiobeam___scalbnf_krem_312_krem_312_krem_,@object # @krem_prefix0ce674b9f38908a8_krem_callsiteId_krem_audiobeamlibm.c_krem_audiobeam___scalbnf_krem_312_krem_312_krem_
	.globl	krem_prefix0ce674b9f38908a8_krem_callsiteId_krem_audiobeamlibm.c_krem_audiobeam___scalbnf_krem_312_krem_312_krem_
krem_prefix0ce674b9f38908a8_krem_callsiteId_krem_audiobeamlibm.c_krem_audiobeam___scalbnf_krem_312_krem_312_krem_:
	.byte	0                       # 0x0
	.size	krem_prefix0ce674b9f38908a8_krem_callsiteId_krem_audiobeamlibm.c_krem_audiobeam___scalbnf_krem_312_krem_312_krem_, 1

	.type	krem_prefix5bea34c55b887939_krem_callsiteId_krem_audiobeamlibm.c_krem_audiobeam___scalbnf_krem_315_krem_315_krem_,@object # @krem_prefix5bea34c55b887939_krem_callsiteId_krem_audiobeamlibm.c_krem_audiobeam___scalbnf_krem_315_krem_315_krem_
	.globl	krem_prefix5bea34c55b887939_krem_callsiteId_krem_audiobeamlibm.c_krem_audiobeam___scalbnf_krem_315_krem_315_krem_
krem_prefix5bea34c55b887939_krem_callsiteId_krem_audiobeamlibm.c_krem_audiobeam___scalbnf_krem_315_krem_315_krem_:
	.byte	0                       # 0x0
	.size	krem_prefix5bea34c55b887939_krem_callsiteId_krem_audiobeamlibm.c_krem_audiobeam___scalbnf_krem_315_krem_315_krem_, 1

	.type	krem_prefix7e13a6d49c26a82b_krem_callsiteId_krem_audiobeamlibm.c_krem_audiobeam___scalbnf_krem_322_krem_322_krem_,@object # @krem_prefix7e13a6d49c26a82b_krem_callsiteId_krem_audiobeamlibm.c_krem_audiobeam___scalbnf_krem_322_krem_322_krem_
	.globl	krem_prefix7e13a6d49c26a82b_krem_callsiteId_krem_audiobeamlibm.c_krem_audiobeam___scalbnf_krem_322_krem_322_krem_
krem_prefix7e13a6d49c26a82b_krem_callsiteId_krem_audiobeamlibm.c_krem_audiobeam___scalbnf_krem_322_krem_322_krem_:
	.byte	0                       # 0x0
	.size	krem_prefix7e13a6d49c26a82b_krem_callsiteId_krem_audiobeamlibm.c_krem_audiobeam___scalbnf_krem_322_krem_322_krem_, 1

	.type	krem_prefix01ae0ef71373899a_krem_func_krem_audiobeamlibm.c_krem_audiobeam___copysignf_krem_205_krem_205_krem_,@object # @krem_prefix01ae0ef71373899a_krem_func_krem_audiobeamlibm.c_krem_audiobeam___copysignf_krem_205_krem_205_krem_
	.globl	krem_prefix01ae0ef71373899a_krem_func_krem_audiobeamlibm.c_krem_audiobeam___copysignf_krem_205_krem_205_krem_
krem_prefix01ae0ef71373899a_krem_func_krem_audiobeamlibm.c_krem_audiobeam___copysignf_krem_205_krem_205_krem_:
	.byte	0                       # 0x0
	.size	krem_prefix01ae0ef71373899a_krem_func_krem_audiobeamlibm.c_krem_audiobeam___copysignf_krem_205_krem_205_krem_, 1

	.type	krem_prefix1cac505ed951f683_krem_func_krem_audiobeamlibm.c_krem_audiobeam___ceilf_krem_330_krem_330_krem_,@object # @krem_prefix1cac505ed951f683_krem_func_krem_audiobeamlibm.c_krem_audiobeam___ceilf_krem_330_krem_330_krem_
	.globl	krem_prefix1cac505ed951f683_krem_func_krem_audiobeamlibm.c_krem_audiobeam___ceilf_krem_330_krem_330_krem_
krem_prefix1cac505ed951f683_krem_func_krem_audiobeamlibm.c_krem_audiobeam___ceilf_krem_330_krem_330_krem_:
	.byte	0                       # 0x0
	.size	krem_prefix1cac505ed951f683_krem_func_krem_audiobeamlibm.c_krem_audiobeam___ceilf_krem_330_krem_330_krem_, 1

	.type	krem_prefix1e6f6df0564b4450_krem_func_krem_audiobeamlibm.c_krem_audiobeam___floorf_krem_255_krem_255_krem_,@object # @krem_prefix1e6f6df0564b4450_krem_func_krem_audiobeamlibm.c_krem_audiobeam___floorf_krem_255_krem_255_krem_
	.globl	krem_prefix1e6f6df0564b4450_krem_func_krem_audiobeamlibm.c_krem_audiobeam___floorf_krem_255_krem_255_krem_
krem_prefix1e6f6df0564b4450_krem_func_krem_audiobeamlibm.c_krem_audiobeam___floorf_krem_255_krem_255_krem_:
	.byte	0                       # 0x0
	.size	krem_prefix1e6f6df0564b4450_krem_func_krem_audiobeamlibm.c_krem_audiobeam___floorf_krem_255_krem_255_krem_, 1

	.type	krem_prefix221b9c74ac54d67c_krem_loop_body_krem_audiobeamlibm.c_krem_audiobeam___ieee754_sqrtf_krem_367_krem_406_krem_,@object # @krem_prefix221b9c74ac54d67c_krem_loop_body_krem_audiobeamlibm.c_krem_audiobeam___ieee754_sqrtf_krem_367_krem_406_krem_
	.globl	krem_prefix221b9c74ac54d67c_krem_loop_body_krem_audiobeamlibm.c_krem_audiobeam___ieee754_sqrtf_krem_367_krem_406_krem_
krem_prefix221b9c74ac54d67c_krem_loop_body_krem_audiobeamlibm.c_krem_audiobeam___ieee754_sqrtf_krem_367_krem_406_krem_:
	.byte	0                       # 0x0
	.size	krem_prefix221b9c74ac54d67c_krem_loop_body_krem_audiobeamlibm.c_krem_audiobeam___ieee754_sqrtf_krem_367_krem_406_krem_, 1

	.type	krem_prefix39a152cad54beda6_krem_func_krem_audiobeamlibm.c_krem_audiobeam___kernel_sinf_krem_188_krem_188_krem_,@object # @krem_prefix39a152cad54beda6_krem_func_krem_audiobeamlibm.c_krem_audiobeam___kernel_sinf_krem_188_krem_188_krem_
	.globl	krem_prefix39a152cad54beda6_krem_func_krem_audiobeamlibm.c_krem_audiobeam___kernel_sinf_krem_188_krem_188_krem_
krem_prefix39a152cad54beda6_krem_func_krem_audiobeamlibm.c_krem_audiobeam___kernel_sinf_krem_188_krem_188_krem_:
	.byte	0                       # 0x0
	.size	krem_prefix39a152cad54beda6_krem_func_krem_audiobeamlibm.c_krem_audiobeam___kernel_sinf_krem_188_krem_188_krem_, 1

	.type	krem_prefix648d451ca60270bf_krem_loop_body_krem_audiobeamlibm.c_krem_audiobeam___ieee754_sqrtf_krem_367_krem_384_krem_,@object # @krem_prefix648d451ca60270bf_krem_loop_body_krem_audiobeamlibm.c_krem_audiobeam___ieee754_sqrtf_krem_367_krem_384_krem_
	.globl	krem_prefix648d451ca60270bf_krem_loop_body_krem_audiobeamlibm.c_krem_audiobeam___ieee754_sqrtf_krem_367_krem_384_krem_
krem_prefix648d451ca60270bf_krem_loop_body_krem_audiobeamlibm.c_krem_audiobeam___ieee754_sqrtf_krem_367_krem_384_krem_:
	.byte	0                       # 0x0
	.size	krem_prefix648d451ca60270bf_krem_loop_body_krem_audiobeamlibm.c_krem_audiobeam___ieee754_sqrtf_krem_367_krem_384_krem_, 1

	.type	krem_prefix7d86f9121fc6f46a_krem_func_krem_audiobeamlibm.c_krem_audiobeam___ieee754_rem_pio2f_krem_77_krem_77_krem_,@object # @krem_prefix7d86f9121fc6f46a_krem_func_krem_audiobeamlibm.c_krem_audiobeam___ieee754_rem_pio2f_krem_77_krem_77_krem_
	.globl	krem_prefix7d86f9121fc6f46a_krem_func_krem_audiobeamlibm.c_krem_audiobeam___ieee754_rem_pio2f_krem_77_krem_77_krem_
krem_prefix7d86f9121fc6f46a_krem_func_krem_audiobeamlibm.c_krem_audiobeam___ieee754_rem_pio2f_krem_77_krem_77_krem_:
	.byte	0                       # 0x0
	.size	krem_prefix7d86f9121fc6f46a_krem_func_krem_audiobeamlibm.c_krem_audiobeam___ieee754_rem_pio2f_krem_77_krem_77_krem_, 1

	.type	krem_prefix8b3928337340e311_krem_loop_krem_audiobeamlibm.c_krem_audiobeam___ieee754_sqrtf_krem_367_krem_406_krem_,@object # @krem_prefix8b3928337340e311_krem_loop_krem_audiobeamlibm.c_krem_audiobeam___ieee754_sqrtf_krem_367_krem_406_krem_
	.globl	krem_prefix8b3928337340e311_krem_loop_krem_audiobeamlibm.c_krem_audiobeam___ieee754_sqrtf_krem_367_krem_406_krem_
krem_prefix8b3928337340e311_krem_loop_krem_audiobeamlibm.c_krem_audiobeam___ieee754_sqrtf_krem_367_krem_406_krem_:
	.byte	0                       # 0x0
	.size	krem_prefix8b3928337340e311_krem_loop_krem_audiobeamlibm.c_krem_audiobeam___ieee754_sqrtf_krem_367_krem_406_krem_, 1

	.type	krem_prefix8d56cbef20880a47_krem_loop_krem_audiobeamlibm.c_krem_audiobeam___ieee754_sqrtf_krem_367_krem_384_krem_,@object # @krem_prefix8d56cbef20880a47_krem_loop_krem_audiobeamlibm.c_krem_audiobeam___ieee754_sqrtf_krem_367_krem_384_krem_
	.globl	krem_prefix8d56cbef20880a47_krem_loop_krem_audiobeamlibm.c_krem_audiobeam___ieee754_sqrtf_krem_367_krem_384_krem_
krem_prefix8d56cbef20880a47_krem_loop_krem_audiobeamlibm.c_krem_audiobeam___ieee754_sqrtf_krem_367_krem_384_krem_:
	.byte	0                       # 0x0
	.size	krem_prefix8d56cbef20880a47_krem_loop_krem_audiobeamlibm.c_krem_audiobeam___ieee754_sqrtf_krem_367_krem_384_krem_, 1

	.type	krem_prefix960528c9ab64b719_krem_func_krem_audiobeamlibm.c_krem_audiobeam___cosf_krem_215_krem_215_krem_,@object # @krem_prefix960528c9ab64b719_krem_func_krem_audiobeamlibm.c_krem_audiobeam___cosf_krem_215_krem_215_krem_
	.globl	krem_prefix960528c9ab64b719_krem_func_krem_audiobeamlibm.c_krem_audiobeam___cosf_krem_215_krem_215_krem_
krem_prefix960528c9ab64b719_krem_func_krem_audiobeamlibm.c_krem_audiobeam___cosf_krem_215_krem_215_krem_:
	.byte	0                       # 0x0
	.size	krem_prefix960528c9ab64b719_krem_func_krem_audiobeamlibm.c_krem_audiobeam___cosf_krem_215_krem_215_krem_, 1

	.type	krem_prefixa2f35cf0d2deaf31_krem_func_krem_audiobeamlibm.c_krem_audiobeam___isinff_krem_287_krem_287_krem_,@object # @krem_prefixa2f35cf0d2deaf31_krem_func_krem_audiobeamlibm.c_krem_audiobeam___isinff_krem_287_krem_287_krem_
	.globl	krem_prefixa2f35cf0d2deaf31_krem_func_krem_audiobeamlibm.c_krem_audiobeam___isinff_krem_287_krem_287_krem_
krem_prefixa2f35cf0d2deaf31_krem_func_krem_audiobeamlibm.c_krem_audiobeam___isinff_krem_287_krem_287_krem_:
	.byte	0                       # 0x0
	.size	krem_prefixa2f35cf0d2deaf31_krem_func_krem_audiobeamlibm.c_krem_audiobeam___isinff_krem_287_krem_287_krem_, 1

	.type	krem_prefixa34004fcfa5b321f_krem_func_krem_audiobeamlibm.c_krem_audiobeam___kernel_cosf_krem_161_krem_161_krem_,@object # @krem_prefixa34004fcfa5b321f_krem_func_krem_audiobeamlibm.c_krem_audiobeam___kernel_cosf_krem_161_krem_161_krem_
	.globl	krem_prefixa34004fcfa5b321f_krem_func_krem_audiobeamlibm.c_krem_audiobeam___kernel_cosf_krem_161_krem_161_krem_
krem_prefixa34004fcfa5b321f_krem_func_krem_audiobeamlibm.c_krem_audiobeam___kernel_cosf_krem_161_krem_161_krem_:
	.byte	0                       # 0x0
	.size	krem_prefixa34004fcfa5b321f_krem_func_krem_audiobeamlibm.c_krem_audiobeam___kernel_cosf_krem_161_krem_161_krem_, 1

	.type	krem_prefixcbcb8c3c4714dcc0_krem_func_krem_audiobeamlibm.c_krem_audiobeam___ieee754_sqrtf_krem_363_krem_363_krem_,@object # @krem_prefixcbcb8c3c4714dcc0_krem_func_krem_audiobeamlibm.c_krem_audiobeam___ieee754_sqrtf_krem_363_krem_363_krem_
	.globl	krem_prefixcbcb8c3c4714dcc0_krem_func_krem_audiobeamlibm.c_krem_audiobeam___ieee754_sqrtf_krem_363_krem_363_krem_
krem_prefixcbcb8c3c4714dcc0_krem_func_krem_audiobeamlibm.c_krem_audiobeam___ieee754_sqrtf_krem_363_krem_363_krem_:
	.byte	0                       # 0x0
	.size	krem_prefixcbcb8c3c4714dcc0_krem_func_krem_audiobeamlibm.c_krem_audiobeam___ieee754_sqrtf_krem_363_krem_363_krem_, 1

	.type	krem_prefixd71cd55a7ed9ea80_krem_func_krem_audiobeamlibm.c_krem_audiobeam___fabsf_krem_246_krem_246_krem_,@object # @krem_prefixd71cd55a7ed9ea80_krem_func_krem_audiobeamlibm.c_krem_audiobeam___fabsf_krem_246_krem_246_krem_
	.globl	krem_prefixd71cd55a7ed9ea80_krem_func_krem_audiobeamlibm.c_krem_audiobeam___fabsf_krem_246_krem_246_krem_
krem_prefixd71cd55a7ed9ea80_krem_func_krem_audiobeamlibm.c_krem_audiobeam___fabsf_krem_246_krem_246_krem_:
	.byte	0                       # 0x0
	.size	krem_prefixd71cd55a7ed9ea80_krem_func_krem_audiobeamlibm.c_krem_audiobeam___fabsf_krem_246_krem_246_krem_, 1

	.type	krem_prefixfde34526a4859c94_krem_func_krem_audiobeamlibm.c_krem_audiobeam___scalbnf_krem_298_krem_298_krem_,@object # @krem_prefixfde34526a4859c94_krem_func_krem_audiobeamlibm.c_krem_audiobeam___scalbnf_krem_298_krem_298_krem_
	.globl	krem_prefixfde34526a4859c94_krem_func_krem_audiobeamlibm.c_krem_audiobeam___scalbnf_krem_298_krem_298_krem_
krem_prefixfde34526a4859c94_krem_func_krem_audiobeamlibm.c_krem_audiobeam___scalbnf_krem_298_krem_298_krem_:
	.byte	0                       # 0x0
	.size	krem_prefixfde34526a4859c94_krem_func_krem_audiobeamlibm.c_krem_audiobeam___scalbnf_krem_298_krem_298_krem_, 1

	.section	.rodata,"a",@progbits
.Ldebug_end0:
	.text
.Ldebug_end1:
	.section	".note.GNU-stack","",@progbits