	.text
	.file	"bitonic.simplifycfg.mem2reg.indvars.elimsinglephis.criticalpath.regioninstrument.renamemain.O3.bc"
	.text
	.globl	bitonic_init
	.align	16, 0x90
	.type	bitonic_init,@function
bitonic_init:                           # @bitonic_init
.Lfunc_begin0:
	.loc	1 49 0                  # bitonic.c:49:0
	.cfi_startproc
# BB#0:                                 # %entry
	pushq	%rbp
.Ltmp0:
	.cfi_def_cfa_offset 16
.Ltmp1:
	.cfi_offset %rbp, -16
	movq	%rsp, %rbp
.Ltmp2:
	.cfi_def_cfa_register %rbp
	pushq	%r15
	pushq	%r14
	pushq	%r13
	pushq	%r12
	pushq	%rbx
	pushq	%rax
.Ltmp3:
	.cfi_offset %rbx, -56
.Ltmp4:
	.cfi_offset %r12, -48
.Ltmp5:
	.cfi_offset %r13, -40
.Ltmp6:
	.cfi_offset %r14, -32
.Ltmp7:
	.cfi_offset %r15, -24
	movabsq	$-1611291204231842462, %r14 # imm = 0xE9A38B2FCE0CB562
	movabsq	$-5588810779745703566, %r15 # imm = 0xB2708E34E4622972
	xorl	%esi, %esi
	movq	%r14, %rdi
	callq	_KEnterRegion
	movl	$4, %edi
	movl	$2, %esi
	callq	_KPrepRTable
.Ltmp8:
	#DEBUG_VALUE: bitonic_init:i <- 0
	movl	$2, %edi
	callq	_KInduction
	movl	$1, %esi
	movq	%r15, %rdi
	callq	_KEnterRegion
	movl	$1, %edi
	callq	_KWork
	movl	$3, %edi
	movl	$2, %esi
	movl	$1, %edx
	callq	_KTimestamp1
	movl	$2, %edi
	movl	$2, %esi
	xorl	%edx, %edx
	callq	_KTimestamp1
	movl	$bitonic_a, %ebx
	movabsq	$-1717375739259995262, %r12 # imm = 0xE82AA7DD3B88BB82
	movl	$32, %r13d
	.align	16, 0x90
.LBB0_1:                                # %for.body
                                        # =>This Inner Loop Header: Depth=1
	#DEBUG_VALUE: bitonic_init:i <- 0
	movl	$2, %esi
	movq	%r12, %rdi
	callq	_KEnterRegion
	movl	$3, %edi
	callq	_KPushCDep
	movl	$2, %edi
	callq	_KWork
	movl	$1, %edi
	movl	$2, %esi
	movl	$1, %edx
	movl	$3, %ecx
	movl	$1, %r8d
	callq	_KTimestamp2
	movl	$1, %edi
	movl	$4, %edx
	movq	%rbx, %rsi
	callq	_KStore
	.loc	1 55 5 prologue_end     # bitonic.c:55:5
.Ltmp9:
	movl	%r13d, (%rbx)
	callq	_KPopCDep
	movl	$2, %esi
	movq	%r12, %rdi
	callq	_KExitRegion
	movl	$1, %edi
	callq	_KWork
	movl	$3, %edi
	movl	$2, %esi
	movl	$1, %edx
	callq	_KTimestamp1
	movl	$2, %edi
	movl	$2, %esi
	xorl	%edx, %edx
	callq	_KTimestamp1
.Ltmp10:
	.loc	1 54 3                  # bitonic.c:54:3
	addq	$4, %rbx
	decq	%r13
	jne	.LBB0_1
.Ltmp11:
# BB#2:                                 # %for.cond.pre_exit.for.end
	#DEBUG_VALUE: bitonic_init:i <- 0
	movl	$1, %esi
	movq	%r15, %rdi
	callq	_KExitRegion
	xorl	%esi, %esi
	movq	%r14, %rdi
	addq	$8, %rsp
	popq	%rbx
	popq	%r12
	popq	%r13
	popq	%r14
	popq	%r15
	popq	%rbp
	jmp	_KExitRegion            # TAILCALL
.Ltmp12:
	.size	bitonic_init, .Ltmp12-bitonic_init
.Lfunc_end0:
	.cfi_endproc

	.globl	bitonic_return
	.align	16, 0x90
	.type	bitonic_return,@function
bitonic_return:                         # @bitonic_return
.Lfunc_begin1:
	.loc	1 60 0                  # bitonic.c:60:0
	.cfi_startproc
# BB#0:                                 # %entry
	pushq	%rbp
.Ltmp13:
	.cfi_def_cfa_offset 16
.Ltmp14:
	.cfi_offset %rbp, -16
	movq	%rsp, %rbp
.Ltmp15:
	.cfi_def_cfa_register %rbp
	pushq	%r15
	pushq	%r14
	pushq	%rbx
	pushq	%rax
.Ltmp16:
	.cfi_offset %rbx, -40
.Ltmp17:
	.cfi_offset %r14, -32
.Ltmp18:
	.cfi_offset %r15, -24
	movabsq	$-613423439032617291, %r14 # imm = 0xF77CAEA1DB8FF6B5
	xorl	%r15d, %r15d
	xorl	%esi, %esi
	movq	%r14, %rdi
	callq	_KEnterRegion
	movl	$5, %edi
	xorl	%esi, %esi
	callq	_KPrepRTable
	movl	$16, %edi
	callq	_KWork
.Ltmp19:
	#DEBUG_VALUE: bitonic_return:checksum <- 0
	movl	$bitonic_a, %edi
	movl	$1, %esi
	movl	$4, %edx
	callq	_KLoad0
	.loc	1 63 15 prologue_end    # bitonic.c:63:15
.Ltmp20:
	movl	bitonic_a(%rip), %ebx
	movl	$bitonic_a+84, %edi
	movl	$2, %esi
	movl	$4, %edx
	callq	_KLoad0
	addl	bitonic_a+84(%rip), %ebx
	movl	$bitonic_a+124, %edi
	movl	$3, %esi
	movl	$4, %edx
	callq	_KLoad0
	addl	bitonic_a+124(%rip), %ebx
.Ltmp21:
	#DEBUG_VALUE: bitonic_return:checksum <- EBX
	.loc	1 65 12                 # bitonic.c:65:12
	cmpl	$55, %ebx
	movl	$-1, %ebx
.Ltmp22:
	cmovel	%r15d, %ebx
	movl	$3, (%rsp)
	movl	$4, %edi
	movl	$1, %esi
	movl	$4, %edx
	movl	$2, %ecx
	movl	$4, %r8d
	movl	$3, %r9d
	callq	_KTimestamp3
	movl	$4, %edi
	callq	_KReturn
	xorl	%esi, %esi
	movq	%r14, %rdi
	callq	_KExitRegion
	.loc	1 65 3 is_stmt 0        # bitonic.c:65:3
	movl	%ebx, %eax
	addq	$8, %rsp
	popq	%rbx
	popq	%r14
	popq	%r15
	popq	%rbp
	retq
.Ltmp23:
.Ltmp24:
	.size	bitonic_return, .Ltmp24-bitonic_return
.Lfunc_end1:
	.cfi_endproc

	.globl	bitonic_compare
	.align	16, 0x90
	.type	bitonic_compare,@function
bitonic_compare:                        # @bitonic_compare
.Lfunc_begin2:
	.loc	1 79 0 is_stmt 1        # bitonic.c:79:0
	.cfi_startproc
# BB#0:                                 # %entry
	pushq	%rbp
.Ltmp25:
	.cfi_def_cfa_offset 16
.Ltmp26:
	.cfi_offset %rbp, -16
	movq	%rsp, %rbp
.Ltmp27:
	.cfi_def_cfa_register %rbp
	pushq	%r15
	pushq	%r14
	pushq	%r13
	pushq	%r12
	pushq	%rbx
	pushq	%rax
.Ltmp28:
	.cfi_offset %rbx, -56
.Ltmp29:
	.cfi_offset %r12, -48
.Ltmp30:
	.cfi_offset %r13, -40
.Ltmp31:
	.cfi_offset %r14, -32
.Ltmp32:
	.cfi_offset %r15, -24
	#DEBUG_VALUE: bitonic_compare:i <- EDI
	#DEBUG_VALUE: bitonic_compare:j <- ESI
	#DEBUG_VALUE: bitonic_compare:dir <- EDX
	movl	%edx, %r12d
.Ltmp33:
	#DEBUG_VALUE: bitonic_compare:dir <- R12D
	movl	%esi, %r15d
.Ltmp34:
	#DEBUG_VALUE: bitonic_compare:j <- R15D
	movl	%edi, %ebx
.Ltmp35:
	#DEBUG_VALUE: bitonic_compare:i <- EBX
	movabsq	$-6810026285526367531, %rdi # imm = 0xA17DED2CA420C2D5
	xorl	%esi, %esi
	callq	_KEnterRegion
	movl	$13, %edi
	xorl	%esi, %esi
	callq	_KPrepRTable
	movl	$10, %edi
	callq	_KWork
	movl	$3, %edi
	callq	_KDeqArg
	movl	$2, %edi
	callq	_KDeqArg
	movl	$1, %edi
	callq	_KDeqArg
	.loc	1 80 17 prologue_end    # bitonic.c:80:17
.Ltmp36:
	movslq	%ebx, %rbx
.Ltmp37:
	leaq	bitonic_a(,%rbx,4), %r13
	movl	$4, %esi
	movl	$5, %edx
	movl	$4, %ecx
	movq	%r13, %rdi
	callq	_KLoad1
	movl	bitonic_a(,%rbx,4), %ebx
	.loc	1 80 34 is_stmt 0       # bitonic.c:80:34
	movslq	%r15d, %r14
	leaq	bitonic_a(,%r14,4), %r15
.Ltmp38:
	movl	$6, %esi
	movl	$7, %edx
	movl	$4, %ecx
	movq	%r15, %rdi
	callq	_KLoad1
	.loc	1 80 17                 # bitonic.c:80:17
	cmpl	bitonic_a(,%r14,4), %ebx
	setg	%al
	movzbl	%al, %ebx
	movl	$2, (%rsp)
	movl	$12, %edi
	movl	$3, %esi
	movl	$1, %edx
	movl	$4, %ecx
	movl	$2, %r8d
	movl	$6, %r9d
	callq	_KTimestamp3
.Ltmp39:
	.loc	1 80 8                  # bitonic.c:80:8
	cmpl	%r12d, %ebx
	jne	.LBB2_2
.Ltmp40:
# BB#1:                                 # %if.then
	movl	$12, %edi
	callq	_KPushCDep
	movl	$10, %edi
	callq	_KWork
	movl	$8, %esi
	movl	$9, %edx
	movl	$4, %ecx
	movq	%r13, %rdi
	callq	_KLoad1
	.loc	1 81 13 is_stmt 1       # bitonic.c:81:13
.Ltmp41:
	movl	(%r13), %r12d
.Ltmp42:
	#DEBUG_VALUE: h <- R12D
	movl	$10, %esi
	movl	$11, %edx
	movl	$4, %ecx
	movq	%r15, %rdi
	callq	_KLoad1
	.loc	1 82 22                 # bitonic.c:82:22
	movl	(%r15), %ebx
	movl	$10, %edi
	movl	$10, %esi
	xorl	%edx, %edx
	callq	_KTimestamp1
	movl	$10, %edi
	movl	$4, %edx
	movq	%r13, %rsi
	callq	_KStore
	.loc	1 82 5 is_stmt 0        # bitonic.c:82:5
	movl	%ebx, (%r13)
	movl	$8, %edi
	movl	$8, %esi
	xorl	%edx, %edx
	callq	_KTimestamp1
	movl	$8, %edi
	movl	$4, %edx
	movq	%r15, %rsi
	callq	_KStore
	.loc	1 83 5 is_stmt 1        # bitonic.c:83:5
	movl	%r12d, (%r15)
	callq	_KPopCDep
.Ltmp43:
.LBB2_2:                                # %if.end
	xorl	%esi, %esi
	movabsq	$-6810026285526367531, %rdi # imm = 0xA17DED2CA420C2D5
	addq	$8, %rsp
	popq	%rbx
	popq	%r12
	popq	%r13
	popq	%r14
	popq	%r15
	popq	%rbp
	jmp	_KExitRegion            # TAILCALL
.Ltmp44:
	.size	bitonic_compare, .Ltmp44-bitonic_compare
.Lfunc_end2:
	.cfi_endproc

	.globl	bitonic_merge
	.align	16, 0x90
	.type	bitonic_merge,@function
bitonic_merge:                          # @bitonic_merge
.Lfunc_begin3:
	.loc	1 94 0                  # bitonic.c:94:0
	.cfi_startproc
# BB#0:                                 # %entry
	pushq	%rbp
.Ltmp45:
	.cfi_def_cfa_offset 16
.Ltmp46:
	.cfi_offset %rbp, -16
	movq	%rsp, %rbp
.Ltmp47:
	.cfi_def_cfa_register %rbp
	pushq	%r15
	pushq	%r14
	pushq	%r13
	pushq	%r12
	pushq	%rbx
	subq	$40, %rsp
.Ltmp48:
	.cfi_offset %rbx, -56
.Ltmp49:
	.cfi_offset %r12, -48
.Ltmp50:
	.cfi_offset %r13, -40
.Ltmp51:
	.cfi_offset %r14, -32
.Ltmp52:
	.cfi_offset %r15, -24
	#DEBUG_VALUE: bitonic_merge:lo <- EDI
	#DEBUG_VALUE: bitonic_merge:cnt <- ESI
	#DEBUG_VALUE: bitonic_merge:dir <- EDX
.Ltmp53:
	#DEBUG_VALUE: bitonic_merge:i <- EDI
	movl	%edx, -48(%rbp)         # 4-byte Spill
.Ltmp54:
	#DEBUG_VALUE: bitonic_merge:dir <- [RBP+-48]
	movl	%esi, %r14d
.Ltmp55:
	#DEBUG_VALUE: bitonic_merge:cnt <- R14D
	movl	%r14d, -52(%rbp)        # 4-byte Spill
	movl	%edi, %r15d
.Ltmp56:
	#DEBUG_VALUE: bitonic_merge:i <- R15D
	#DEBUG_VALUE: bitonic_merge:lo <- R15D
	movq	%r15, -64(%rbp)         # 8-byte Spill
	movabsq	$-5318089480008395114, %rdi # imm = 0xB63259CB5C5B9696
	xorl	%r12d, %r12d
	xorl	%esi, %esi
	callq	_KEnterRegion
	movl	$11, %edi
	movl	$2, %esi
	callq	_KPrepRTable
	movl	$10, %edi
	callq	_KWork
	movl	$3, %edi
	callq	_KDeqArg
	movl	$2, %edi
	callq	_KDeqArg
	movl	$1, %r13d
	movl	$1, %edi
	callq	_KDeqArg
	.loc	1 95 11 prologue_end    # bitonic.c:95:11
.Ltmp57:
	movl	%r14d, %ebx
	shrl	$31, %ebx
	addl	%r14d, %ebx
.Ltmp58:
	#DEBUG_VALUE: bitonic_merge:cnt <- [RBP+-52]
	sarl	%ebx
.Ltmp59:
	#DEBUG_VALUE: bitonic_merge:k <- EBX
	movl	$6, %edi
	movl	$2, %esi
	movl	$10, %edx
	callq	_KTimestamp1
	movl	$1, %esi
	movabsq	$-4639930624245758959, %rdi # imm = 0xBF9BA7AE3F600411
	callq	_KEnterRegion
	.loc	1 98 21                 # bitonic.c:98:21
.Ltmp60:
	leal	(%rbx,%r15), %eax
	movl	%eax, -44(%rbp)         # 4-byte Spill
	movabsq	$-8061534653252654852, %r14 # imm = 0x901FACF1D85FA8FC
                                        # kill: R15D<def> R15D<kill> R15<kill> R15<def>
.Ltmp61:
	#DEBUG_VALUE: bitonic_merge:i <- [RBP+-64]
	#DEBUG_VALUE: bitonic_merge:lo <- [RBP+-64]
	jmp	.LBB3_1
.Ltmp62:
	.align	16, 0x90
.LBB3_2:                                # %for.body
                                        #   in Loop: Header=BB3_1 Depth=1
	#DEBUG_VALUE: bitonic_merge:lo <- [RBP+-64]
	#DEBUG_VALUE: bitonic_merge:cnt <- [RBP+-52]
	#DEBUG_VALUE: bitonic_merge:dir <- [RBP+-48]
	#DEBUG_VALUE: bitonic_merge:i <- [RBP+-64]
	#DEBUG_VALUE: bitonic_merge:k <- EBX
	movl	$2, %esi
	movq	%r14, %rdi
	callq	_KEnterRegion
	movl	$7, %r12d
	movl	$7, %edi
	callq	_KPushCDep
	movl	$2, %edi
	callq	_KWork
	xorl	%esi, %esi
	movabsq	$-7228736614699767657, %rdi # imm = 0x9BAE5E5931F5E897
	callq	_KPrepCall
	movl	$3, %edi
	callq	_KEnqArg
	movl	$1, (%rsp)
	movl	$5, %edi
	movl	$7, %esi
	movl	$1, %edx
	movl	$6, %ecx
	movl	$1, %r8d
	movl	$4, %r9d
	callq	_KTimestamp3
	movl	$5, %edi
	callq	_KEnqArg
	movl	$4, %edi
	callq	_KEnqArg
	.loc	1 99 5                  # bitonic.c:99:5
	leal	(%rbx,%r15), %esi
	movl	%r15d, %edi
	movl	-48(%rbp), %edx         # 4-byte Reload
	callq	bitonic_compare
	.loc	1 98 29                 # bitonic.c:98:29
	incl	%r15d
.Ltmp63:
	#DEBUG_VALUE: bitonic_merge:i <- R15D
	movl	$9, %r13d
	movl	$9, %edi
	movl	$7, %esi
	movl	$1, %edx
	movl	$4, %ecx
	movl	$1, %r8d
	callq	_KTimestamp2
	callq	_KPopCDep
	movl	$2, %esi
	movq	%r14, %rdi
	callq	_KExitRegion
.Ltmp64:
.LBB3_1:                                # %for.cond
                                        # =>This Inner Loop Header: Depth=1
	#DEBUG_VALUE: bitonic_merge:lo <- [RBP+-64]
	#DEBUG_VALUE: bitonic_merge:cnt <- [RBP+-52]
	#DEBUG_VALUE: bitonic_merge:dir <- [RBP+-48]
	#DEBUG_VALUE: bitonic_merge:i <- [RBP+-64]
	#DEBUG_VALUE: bitonic_merge:k <- EBX
	movl	$4, %edi
	movl	%r13d, %esi
	movl	%r12d, %edx
	callq	_KPhi1To1
	movl	$2, %edi
	callq	_KWork
	movl	$3, %edi
	movl	$3, %esi
	xorl	%edx, %edx
	callq	_KTimestamp1
	movl	$1, (%rsp)
	movl	$7, %edi
	movl	$1, %esi
	movl	$2, %edx
	movl	$6, %ecx
	movl	$2, %r8d
	movl	$4, %r9d
	callq	_KTimestamp3
	movl	$4, %edi
	movl	$4, %esi
	xorl	%edx, %edx
	callq	_KTimestamp1
	movl	$4, %edi
	movl	$7, %esi
	callq	_KPhiAddCond
	.loc	1 98 3 is_stmt 0        # bitonic.c:98:3
	cmpl	-44(%rbp), %r15d        # 4-byte Folded Reload
	jl	.LBB3_2
.Ltmp65:
# BB#3:                                 # %for.cond.pre_exit.for.end
	#DEBUG_VALUE: bitonic_merge:lo <- [RBP+-64]
	#DEBUG_VALUE: bitonic_merge:cnt <- [RBP+-52]
	#DEBUG_VALUE: bitonic_merge:dir <- [RBP+-48]
	#DEBUG_VALUE: bitonic_merge:i <- [RBP+-64]
	#DEBUG_VALUE: bitonic_merge:k <- EBX
	movl	$1, %esi
	movabsq	$-4639930624245758959, %rdi # imm = 0xBF9BA7AE3F600411
	callq	_KExitRegion
	movl	$1, %edi
	callq	_KWork
	movl	$10, %edi
	movl	$2, %esi
	movl	$11, %edx
	callq	_KTimestamp1
	.loc	1 101 8 is_stmt 1       # bitonic.c:101:8
	cmpl	$4, -52(%rbp)           # 4-byte Folded Reload
	jl	.LBB3_5
.Ltmp66:
# BB#4:                                 # %if.then
	#DEBUG_VALUE: bitonic_merge:lo <- [RBP+-64]
	#DEBUG_VALUE: bitonic_merge:dir <- [RBP+-48]
	#DEBUG_VALUE: bitonic_merge:i <- [RBP+-64]
	#DEBUG_VALUE: bitonic_merge:k <- EBX
	movl	$10, %edi
	callq	_KPushCDep
	movl	$1, %edi
	movl	$1, %esi
	xorl	%edx, %edx
	callq	_KTimestamp1
	movabsq	$1841377995043608926, %rdi # imm = 0x198DE387CBCB995E
	xorl	%esi, %esi
	callq	_KPrepCall
	movl	$3, %edi
	callq	_KEnqArg
	movl	$6, %edi
	callq	_KEnqArg
	movl	$1, %edi
	callq	_KEnqArg
	movl	$1, %edi
	callq	_KWork
	.loc	1 102 5                 # bitonic.c:102:5
.Ltmp67:
	movq	-64(%rbp), %rdi         # 8-byte Reload
                                        # kill: EDI<def> EDI<kill> RDI<kill>
	movl	%ebx, %esi
	movl	-48(%rbp), %r14d        # 4-byte Reload
.Ltmp68:
	#DEBUG_VALUE: bitonic_merge:dir <- R14D
	movl	%r14d, %edx
	callq	bitonic_merge
	movabsq	$-9024082581120392180, %rdi # imm = 0x82C404B44087640C
	xorl	%esi, %esi
	callq	_KPrepCall
	movl	$3, %edi
	callq	_KEnqArg
	movl	$6, %edi
	callq	_KEnqArg
	movl	$8, %edi
	movl	$1, %esi
	movl	$1, %edx
	movl	$2, %ecx
	movl	$12, %r8d
	callq	_KTimestamp2
	movl	$8, %edi
	callq	_KEnqArg
	.loc	1 103 5                 # bitonic.c:103:5
	movl	-44(%rbp), %edi         # 4-byte Reload
	movl	%ebx, %esi
	movl	%r14d, %edx
	callq	bitonic_merge
	callq	_KPopCDep
.Ltmp69:
.LBB3_5:                                # %if.end
	xorl	%esi, %esi
	movabsq	$-5318089480008395114, %rdi # imm = 0xB63259CB5C5B9696
	addq	$40, %rsp
	popq	%rbx
	popq	%r12
	popq	%r13
	popq	%r14
	popq	%r15
	popq	%rbp
	jmp	_KExitRegion            # TAILCALL
.Ltmp70:
	.size	bitonic_merge, .Ltmp70-bitonic_merge
.Lfunc_end3:
	.cfi_endproc

	.globl	bitonic_sort
	.align	16, 0x90
	.type	bitonic_sort,@function
bitonic_sort:                           # @bitonic_sort
.Lfunc_begin4:
	.loc	1 113 0                 # bitonic.c:113:0
	.cfi_startproc
# BB#0:                                 # %entry
	pushq	%rbp
.Ltmp71:
	.cfi_def_cfa_offset 16
.Ltmp72:
	.cfi_offset %rbp, -16
	movq	%rsp, %rbp
.Ltmp73:
	.cfi_def_cfa_register %rbp
	pushq	%r15
	pushq	%r14
	pushq	%r13
	pushq	%r12
	pushq	%rbx
	pushq	%rax
.Ltmp74:
	.cfi_offset %rbx, -56
.Ltmp75:
	.cfi_offset %r12, -48
.Ltmp76:
	.cfi_offset %r13, -40
.Ltmp77:
	.cfi_offset %r14, -32
.Ltmp78:
	.cfi_offset %r15, -24
	#DEBUG_VALUE: bitonic_sort:lo <- EDI
	#DEBUG_VALUE: bitonic_sort:cnt <- ESI
	#DEBUG_VALUE: bitonic_sort:dir <- EDX
.Ltmp79:
	#DEBUG_VALUE: bitonic_sort:k <- ESI
	movl	%edx, %r15d
.Ltmp80:
	#DEBUG_VALUE: bitonic_sort:dir <- R15D
	movl	%esi, %r13d
.Ltmp81:
	#DEBUG_VALUE: bitonic_sort:k <- R13D
	#DEBUG_VALUE: bitonic_sort:cnt <- R13D
	movl	%edi, %r12d
.Ltmp82:
	#DEBUG_VALUE: bitonic_sort:lo <- R12D
	movabsq	$3417557582785453683, %rbx # imm = 0x2F6D9A83B95E9E73
	xorl	%esi, %esi
	movq	%rbx, %rdi
	callq	_KEnterRegion
	movl	$7, %edi
	xorl	%esi, %esi
	callq	_KPrepRTable
	movl	$11, %edi
	callq	_KWork
	movl	$3, %edi
	callq	_KDeqArg
	movl	$2, %edi
	callq	_KDeqArg
	movl	$1, %edi
	callq	_KDeqArg
	movl	$1, %edi
	movl	$1, %esi
	xorl	%edx, %edx
	callq	_KTimestamp1
	movl	$4, %edi
	movl	$2, %esi
	movl	$10, %edx
	callq	_KTimestamp1
	movl	$6, %edi
	movl	$2, %esi
	movl	$1, %edx
	callq	_KTimestamp1
	.loc	1 118 8 prologue_end    # bitonic.c:118:8
.Ltmp83:
	cmpl	$2, %r13d
	jl	.LBB4_2
.Ltmp84:
# BB#1:                                 # %if.then
	#DEBUG_VALUE: bitonic_sort:lo <- R12D
	#DEBUG_VALUE: bitonic_sort:cnt <- R13D
	#DEBUG_VALUE: bitonic_sort:dir <- R15D
	#DEBUG_VALUE: bitonic_sort:k <- R13D
	.loc	1 115 3                 # bitonic.c:115:3
	movl	%r13d, %ebx
	shrl	$31, %ebx
	addl	%r13d, %ebx
	sarl	%ebx
.Ltmp85:
	#DEBUG_VALUE: bitonic_sort:k <- EBX
	movl	$6, %edi
	callq	_KPushCDep
	movl	$1, %edi
	callq	_KWork
	movabsq	$4935916126269528001, %rdi # imm = 0x447FE590B36AD7C1
	xorl	%esi, %esi
	callq	_KPrepCall
	callq	_KEnqArgConst
	movl	$4, %edi
	callq	_KEnqArg
	movl	$1, %edi
	callq	_KEnqArg
	movl	$1, %edx
	.loc	1 119 5                 # bitonic.c:119:5
.Ltmp86:
	movl	%r12d, %edi
	movl	%ebx, %esi
	callq	bitonic_sort
	.loc	1 120 19                # bitonic.c:120:19
	leal	(%rbx,%r12), %r14d
	movabsq	$-116538901342091626, %rdi # imm = 0xFE61F87C96FD8696
	xorl	%esi, %esi
	callq	_KPrepCall
	callq	_KEnqArgConst
	movl	$4, %edi
	callq	_KEnqArg
	movl	$5, %edi
	movl	$1, %esi
	movl	$1, %edx
	movl	$2, %ecx
	movl	$11, %r8d
	callq	_KTimestamp2
	movl	$5, %edi
	callq	_KEnqArg
	xorl	%edx, %edx
	.loc	1 120 5 is_stmt 0       # bitonic.c:120:5
	movl	%r14d, %edi
	movl	%ebx, %esi
	movabsq	$3417557582785453683, %rbx # imm = 0x2F6D9A83B95E9E73
.Ltmp87:
	callq	bitonic_sort
	callq	_KPopCDep
.Ltmp88:
.LBB4_2:                                # %if.end
	#DEBUG_VALUE: bitonic_sort:lo <- R12D
	#DEBUG_VALUE: bitonic_sort:cnt <- R13D
	#DEBUG_VALUE: bitonic_sort:dir <- R15D
	#DEBUG_VALUE: bitonic_sort:k <- R13D
	movl	$2, %edi
	movl	$2, %esi
	xorl	%edx, %edx
	callq	_KTimestamp1
	movl	$3, %edi
	movl	$3, %esi
	xorl	%edx, %edx
	callq	_KTimestamp1
	movabsq	$-5371115126670962597, %rdi # imm = 0xB575F73FEB0CD05B
	xorl	%esi, %esi
	callq	_KPrepCall
	movl	$3, %edi
	callq	_KEnqArg
	movl	$2, %edi
	callq	_KEnqArg
	movl	$1, %edi
	callq	_KEnqArg
	.loc	1 123 3 is_stmt 1       # bitonic.c:123:3
	movl	%r12d, %edi
	movl	%r13d, %esi
	movl	%r15d, %edx
	callq	bitonic_merge
	xorl	%esi, %esi
	movq	%rbx, %rdi
	addq	$8, %rsp
	popq	%rbx
	popq	%r12
.Ltmp89:
	popq	%r13
.Ltmp90:
	popq	%r14
	popq	%r15
.Ltmp91:
	popq	%rbp
	jmp	_KExitRegion            # TAILCALL
.Ltmp92:
.Ltmp93:
	.size	bitonic_sort, .Ltmp93-bitonic_sort
.Lfunc_end4:
	.cfi_endproc

	.globl	bitonic_main
	.align	16, 0x90
	.type	bitonic_main,@function
bitonic_main:                           # @bitonic_main
.Lfunc_begin5:
	.loc	1 135 0                 # bitonic.c:135:0
	.cfi_startproc
# BB#0:                                 # %entry
	pushq	%rbp
.Ltmp94:
	.cfi_def_cfa_offset 16
.Ltmp95:
	.cfi_offset %rbp, -16
	movq	%rsp, %rbp
.Ltmp96:
	.cfi_def_cfa_register %rbp
	pushq	%r15
	pushq	%r14
	pushq	%r12
	pushq	%rbx
.Ltmp97:
	.cfi_offset %rbx, -48
.Ltmp98:
	.cfi_offset %r12, -40
.Ltmp99:
	.cfi_offset %r14, -32
.Ltmp100:
	.cfi_offset %r15, -24
	movabsq	$-8767698147522645855, %r15 # imm = 0x8652E0FCF30FF0A1
	movabsq	$300613296356090049, %r14 # imm = 0x42BFE33481060C1
	xorl	%esi, %esi
	movq	%r14, %rdi
	callq	_KEnterRegion
	movl	$3, %edi
	movl	$2, %esi
	callq	_KPrepRTable
	movabsq	$-5133019387754693163, %rdi # imm = 0xB8C3DA100FB03DD5
	xorl	%esi, %esi
	callq	_KPrepCall
	callq	_KEnqArgConst
	callq	_KEnqArgConst
	callq	_KEnqArgConst
	movl	$32, %ebx
	xorl	%edi, %edi
	movl	$32, %esi
	movl	$1, %edx
	.loc	1 141 3 prologue_end    # bitonic.c:141:3
.Ltmp101:
	callq	bitonic_sort
.Ltmp102:
	#DEBUG_VALUE: bitonic_main:i <- 0
	movl	$1, %edi
	callq	_KInduction
	movl	$1, %esi
	movq	%r15, %rdi
	callq	_KEnterRegion
	movl	$1, %edi
	callq	_KWork
	movl	$2, %edi
	movl	$1, %esi
	movl	$1, %edx
	callq	_KTimestamp1
	movabsq	$-8776922517932717713, %r12 # imm = 0x86321B78D97E496F
	.align	16, 0x90
.LBB5_1:                                # %for.inc
                                        # =>This Inner Loop Header: Depth=1
	#DEBUG_VALUE: bitonic_main:i <- 0
	movl	$2, %esi
	movq	%r12, %rdi
	callq	_KEnterRegion
	movl	$2, %edi
	callq	_KPushCDep
	callq	_KPopCDep
	movl	$2, %esi
	movq	%r12, %rdi
	callq	_KExitRegion
	movl	$1, %edi
	callq	_KWork
	movl	$2, %edi
	movl	$1, %esi
	movl	$1, %edx
	callq	_KTimestamp1
	.loc	1 146 3                 # bitonic.c:146:3
.Ltmp103:
	decl	%ebx
	jne	.LBB5_1
.Ltmp104:
# BB#2:                                 # %for.cond.pre_exit.for.end
	#DEBUG_VALUE: bitonic_main:i <- 0
	movl	$1, %esi
	movq	%r15, %rdi
	callq	_KExitRegion
	xorl	%esi, %esi
	movq	%r14, %rdi
	popq	%rbx
	popq	%r12
	popq	%r14
	popq	%r15
	popq	%rbp
	jmp	_KExitRegion            # TAILCALL
.Ltmp105:
	.size	bitonic_main, .Ltmp105-bitonic_main
.Lfunc_end5:
	.cfi_endproc

	.globl	__main
	.align	16, 0x90
	.type	__main,@function
__main:                                 # @__main
.Lfunc_begin6:
	.loc	1 152 0                 # bitonic.c:152:0
	.cfi_startproc
# BB#0:                                 # %entry
	pushq	%rbp
.Ltmp106:
	.cfi_def_cfa_offset 16
.Ltmp107:
	.cfi_offset %rbp, -16
	movq	%rsp, %rbp
.Ltmp108:
	.cfi_def_cfa_register %rbp
	pushq	%r14
	pushq	%rbx
.Ltmp109:
	.cfi_offset %rbx, -32
.Ltmp110:
	.cfi_offset %r14, -24
	callq	_KInit
	movabsq	$-3677947425469889523, %r14 # imm = 0xCCF54E4D9A4E040D
	xorl	%esi, %esi
	movq	%r14, %rdi
	callq	_KEnterRegion
	movl	$2, %edi
	xorl	%esi, %esi
	callq	_KPrepRTable
	movabsq	$7490100453098339857, %rdi # imm = 0x67F22EAD86EB3E11
	xorl	%esi, %esi
	callq	_KPrepCall
	.loc	1 153 3 prologue_end    # bitonic.c:153:3
.Ltmp111:
	callq	bitonic_init
	movabsq	$-6330518748498600704, %rdi # imm = 0xA8257ABD1FCA5D00
	xorl	%esi, %esi
	callq	_KPrepCall
	.loc	1 154 3                 # bitonic.c:154:3
	callq	bitonic_main
	movabsq	$9006569909503366127, %rdi # imm = 0x7CFDC39D24AB93EF
	xorl	%esi, %esi
	callq	_KPrepCall
	movl	$1, %edi
	callq	_KLinkReturn
	.loc	1 156 12                # bitonic.c:156:12
	callq	bitonic_return
	movl	%eax, %ebx
	movl	$1, %edi
	movl	$1, %esi
	xorl	%edx, %edx
	callq	_KTimestamp1
	movl	$1, %edi
	callq	_KReturn
	xorl	%esi, %esi
	movq	%r14, %rdi
	callq	_KExitRegion
	callq	_KDeinit
	.loc	1 156 3 is_stmt 0       # bitonic.c:156:3
	movl	%ebx, %eax
	popq	%rbx
	popq	%r14
	popq	%rbp
	retq
.Ltmp112:
.Ltmp113:
	.size	__main, .Ltmp113-__main
.Lfunc_end6:
	.cfi_endproc

	.type	bitonic_numiters,@object # @bitonic_numiters
	.data
	.globl	bitonic_numiters
	.align	4
bitonic_numiters:
	.long	10                      # 0xa
	.size	bitonic_numiters, 4

	.type	bitonic_ASCENDING,@object # @bitonic_ASCENDING
	.section	.rodata,"a",@progbits
	.globl	bitonic_ASCENDING
	.align	4
bitonic_ASCENDING:
	.long	1                       # 0x1
	.size	bitonic_ASCENDING, 4

	.type	bitonic_DESCENDING,@object # @bitonic_DESCENDING
	.globl	bitonic_DESCENDING
	.align	4
bitonic_DESCENDING:
	.long	0                       # 0x0
	.size	bitonic_DESCENDING, 4

	.type	bitonic_CHECKSUM,@object # @bitonic_CHECKSUM
	.globl	bitonic_CHECKSUM
	.align	4
bitonic_CHECKSUM:
	.long	55                      # 0x37
	.size	bitonic_CHECKSUM, 4

	.type	bitonic_a,@object       # @bitonic_a
	.comm	bitonic_a,128,16
	.type	krem_prefix9bae5e5931f5e897_krem_callsiteId_krem_bitonic.c_krem_bitonic_merge_krem_99_krem_99_krem_,@object # @krem_prefix9bae5e5931f5e897_krem_callsiteId_krem_bitonic.c_krem_bitonic_merge_krem_99_krem_99_krem_
	.bss
	.globl	krem_prefix9bae5e5931f5e897_krem_callsiteId_krem_bitonic.c_krem_bitonic_merge_krem_99_krem_99_krem_
krem_prefix9bae5e5931f5e897_krem_callsiteId_krem_bitonic.c_krem_bitonic_merge_krem_99_krem_99_krem_:
	.byte	0                       # 0x0
	.size	krem_prefix9bae5e5931f5e897_krem_callsiteId_krem_bitonic.c_krem_bitonic_merge_krem_99_krem_99_krem_, 1

	.type	krem_prefix198de387cbcb995e_krem_callsiteId_krem_bitonic.c_krem_bitonic_merge_krem_102_krem_102_krem_,@object # @krem_prefix198de387cbcb995e_krem_callsiteId_krem_bitonic.c_krem_bitonic_merge_krem_102_krem_102_krem_
	.globl	krem_prefix198de387cbcb995e_krem_callsiteId_krem_bitonic.c_krem_bitonic_merge_krem_102_krem_102_krem_
krem_prefix198de387cbcb995e_krem_callsiteId_krem_bitonic.c_krem_bitonic_merge_krem_102_krem_102_krem_:
	.byte	0                       # 0x0
	.size	krem_prefix198de387cbcb995e_krem_callsiteId_krem_bitonic.c_krem_bitonic_merge_krem_102_krem_102_krem_, 1

	.type	krem_prefix82c404b44087640c_krem_callsiteId_krem_bitonic.c_krem_bitonic_merge_krem_103_krem_103_krem_,@object # @krem_prefix82c404b44087640c_krem_callsiteId_krem_bitonic.c_krem_bitonic_merge_krem_103_krem_103_krem_
	.globl	krem_prefix82c404b44087640c_krem_callsiteId_krem_bitonic.c_krem_bitonic_merge_krem_103_krem_103_krem_
krem_prefix82c404b44087640c_krem_callsiteId_krem_bitonic.c_krem_bitonic_merge_krem_103_krem_103_krem_:
	.byte	0                       # 0x0
	.size	krem_prefix82c404b44087640c_krem_callsiteId_krem_bitonic.c_krem_bitonic_merge_krem_103_krem_103_krem_, 1

	.type	krem_prefix447fe590b36ad7c1_krem_callsiteId_krem_bitonic.c_krem_bitonic_sort_krem_119_krem_119_krem_,@object # @krem_prefix447fe590b36ad7c1_krem_callsiteId_krem_bitonic.c_krem_bitonic_sort_krem_119_krem_119_krem_
	.globl	krem_prefix447fe590b36ad7c1_krem_callsiteId_krem_bitonic.c_krem_bitonic_sort_krem_119_krem_119_krem_
krem_prefix447fe590b36ad7c1_krem_callsiteId_krem_bitonic.c_krem_bitonic_sort_krem_119_krem_119_krem_:
	.byte	0                       # 0x0
	.size	krem_prefix447fe590b36ad7c1_krem_callsiteId_krem_bitonic.c_krem_bitonic_sort_krem_119_krem_119_krem_, 1

	.type	krem_prefixfe61f87c96fd8696_krem_callsiteId_krem_bitonic.c_krem_bitonic_sort_krem_120_krem_120_krem_,@object # @krem_prefixfe61f87c96fd8696_krem_callsiteId_krem_bitonic.c_krem_bitonic_sort_krem_120_krem_120_krem_
	.globl	krem_prefixfe61f87c96fd8696_krem_callsiteId_krem_bitonic.c_krem_bitonic_sort_krem_120_krem_120_krem_
krem_prefixfe61f87c96fd8696_krem_callsiteId_krem_bitonic.c_krem_bitonic_sort_krem_120_krem_120_krem_:
	.byte	0                       # 0x0
	.size	krem_prefixfe61f87c96fd8696_krem_callsiteId_krem_bitonic.c_krem_bitonic_sort_krem_120_krem_120_krem_, 1

	.type	krem_prefixb575f73feb0cd05b_krem_callsiteId_krem_bitonic.c_krem_bitonic_sort_krem_123_krem_123_krem_,@object # @krem_prefixb575f73feb0cd05b_krem_callsiteId_krem_bitonic.c_krem_bitonic_sort_krem_123_krem_123_krem_
	.globl	krem_prefixb575f73feb0cd05b_krem_callsiteId_krem_bitonic.c_krem_bitonic_sort_krem_123_krem_123_krem_
krem_prefixb575f73feb0cd05b_krem_callsiteId_krem_bitonic.c_krem_bitonic_sort_krem_123_krem_123_krem_:
	.byte	0                       # 0x0
	.size	krem_prefixb575f73feb0cd05b_krem_callsiteId_krem_bitonic.c_krem_bitonic_sort_krem_123_krem_123_krem_, 1

	.type	krem_prefixb8c3da100fb03dd5_krem_callsiteId_krem_bitonic.c_krem_bitonic_main_krem_141_krem_141_krem_,@object # @krem_prefixb8c3da100fb03dd5_krem_callsiteId_krem_bitonic.c_krem_bitonic_main_krem_141_krem_141_krem_
	.globl	krem_prefixb8c3da100fb03dd5_krem_callsiteId_krem_bitonic.c_krem_bitonic_main_krem_141_krem_141_krem_
krem_prefixb8c3da100fb03dd5_krem_callsiteId_krem_bitonic.c_krem_bitonic_main_krem_141_krem_141_krem_:
	.byte	0                       # 0x0
	.size	krem_prefixb8c3da100fb03dd5_krem_callsiteId_krem_bitonic.c_krem_bitonic_main_krem_141_krem_141_krem_, 1

	.type	krem_prefix67f22ead86eb3e11_krem_callsiteId_krem_bitonic.c_krem_main_krem_153_krem_153_krem_,@object # @krem_prefix67f22ead86eb3e11_krem_callsiteId_krem_bitonic.c_krem_main_krem_153_krem_153_krem_
	.globl	krem_prefix67f22ead86eb3e11_krem_callsiteId_krem_bitonic.c_krem_main_krem_153_krem_153_krem_
krem_prefix67f22ead86eb3e11_krem_callsiteId_krem_bitonic.c_krem_main_krem_153_krem_153_krem_:
	.byte	0                       # 0x0
	.size	krem_prefix67f22ead86eb3e11_krem_callsiteId_krem_bitonic.c_krem_main_krem_153_krem_153_krem_, 1

	.type	krem_prefixa8257abd1fca5d00_krem_callsiteId_krem_bitonic.c_krem_main_krem_154_krem_154_krem_,@object # @krem_prefixa8257abd1fca5d00_krem_callsiteId_krem_bitonic.c_krem_main_krem_154_krem_154_krem_
	.globl	krem_prefixa8257abd1fca5d00_krem_callsiteId_krem_bitonic.c_krem_main_krem_154_krem_154_krem_
krem_prefixa8257abd1fca5d00_krem_callsiteId_krem_bitonic.c_krem_main_krem_154_krem_154_krem_:
	.byte	0                       # 0x0
	.size	krem_prefixa8257abd1fca5d00_krem_callsiteId_krem_bitonic.c_krem_main_krem_154_krem_154_krem_, 1

	.type	krem_prefix7cfdc39d24ab93ef_krem_callsiteId_krem_bitonic.c_krem_main_krem_156_krem_156_krem_,@object # @krem_prefix7cfdc39d24ab93ef_krem_callsiteId_krem_bitonic.c_krem_main_krem_156_krem_156_krem_
	.globl	krem_prefix7cfdc39d24ab93ef_krem_callsiteId_krem_bitonic.c_krem_main_krem_156_krem_156_krem_
krem_prefix7cfdc39d24ab93ef_krem_callsiteId_krem_bitonic.c_krem_main_krem_156_krem_156_krem_:
	.byte	0                       # 0x0
	.size	krem_prefix7cfdc39d24ab93ef_krem_callsiteId_krem_bitonic.c_krem_main_krem_156_krem_156_krem_, 1

	.type	krem_prefix042bfe33481060c1_krem_func_krem_bitonic.c_krem_bitonic_main_krem_134_krem_134_krem_,@object # @krem_prefix042bfe33481060c1_krem_func_krem_bitonic.c_krem_bitonic_main_krem_134_krem_134_krem_
	.globl	krem_prefix042bfe33481060c1_krem_func_krem_bitonic.c_krem_bitonic_main_krem_134_krem_134_krem_
krem_prefix042bfe33481060c1_krem_func_krem_bitonic.c_krem_bitonic_main_krem_134_krem_134_krem_:
	.byte	0                       # 0x0
	.size	krem_prefix042bfe33481060c1_krem_func_krem_bitonic.c_krem_bitonic_main_krem_134_krem_134_krem_, 1

	.type	krem_prefix2f6d9a83b95e9e73_krem_func_krem_bitonic.c_krem_bitonic_sort_krem_112_krem_112_krem_,@object # @krem_prefix2f6d9a83b95e9e73_krem_func_krem_bitonic.c_krem_bitonic_sort_krem_112_krem_112_krem_
	.globl	krem_prefix2f6d9a83b95e9e73_krem_func_krem_bitonic.c_krem_bitonic_sort_krem_112_krem_112_krem_
krem_prefix2f6d9a83b95e9e73_krem_func_krem_bitonic.c_krem_bitonic_sort_krem_112_krem_112_krem_:
	.byte	0                       # 0x0
	.size	krem_prefix2f6d9a83b95e9e73_krem_func_krem_bitonic.c_krem_bitonic_sort_krem_112_krem_112_krem_, 1

	.type	krem_prefix86321b78d97e496f_krem_loop_body_krem_bitonic.c_krem_bitonic_main_krem_136_krem_146_krem_,@object # @krem_prefix86321b78d97e496f_krem_loop_body_krem_bitonic.c_krem_bitonic_main_krem_136_krem_146_krem_
	.globl	krem_prefix86321b78d97e496f_krem_loop_body_krem_bitonic.c_krem_bitonic_main_krem_136_krem_146_krem_
krem_prefix86321b78d97e496f_krem_loop_body_krem_bitonic.c_krem_bitonic_main_krem_136_krem_146_krem_:
	.byte	0                       # 0x0
	.size	krem_prefix86321b78d97e496f_krem_loop_body_krem_bitonic.c_krem_bitonic_main_krem_136_krem_146_krem_, 1

	.type	krem_prefix8652e0fcf30ff0a1_krem_loop_krem_bitonic.c_krem_bitonic_main_krem_136_krem_146_krem_,@object # @krem_prefix8652e0fcf30ff0a1_krem_loop_krem_bitonic.c_krem_bitonic_main_krem_136_krem_146_krem_
	.globl	krem_prefix8652e0fcf30ff0a1_krem_loop_krem_bitonic.c_krem_bitonic_main_krem_136_krem_146_krem_
krem_prefix8652e0fcf30ff0a1_krem_loop_krem_bitonic.c_krem_bitonic_main_krem_136_krem_146_krem_:
	.byte	0                       # 0x0
	.size	krem_prefix8652e0fcf30ff0a1_krem_loop_krem_bitonic.c_krem_bitonic_main_krem_136_krem_146_krem_, 1

	.type	krem_prefix901facf1d85fa8fc_krem_loop_body_krem_bitonic.c_krem_bitonic_merge_krem_96_krem_99_krem_,@object # @krem_prefix901facf1d85fa8fc_krem_loop_body_krem_bitonic.c_krem_bitonic_merge_krem_96_krem_99_krem_
	.globl	krem_prefix901facf1d85fa8fc_krem_loop_body_krem_bitonic.c_krem_bitonic_merge_krem_96_krem_99_krem_
krem_prefix901facf1d85fa8fc_krem_loop_body_krem_bitonic.c_krem_bitonic_merge_krem_96_krem_99_krem_:
	.byte	0                       # 0x0
	.size	krem_prefix901facf1d85fa8fc_krem_loop_body_krem_bitonic.c_krem_bitonic_merge_krem_96_krem_99_krem_, 1

	.type	krem_prefixa17ded2ca420c2d5_krem_func_krem_bitonic.c_krem_bitonic_compare_krem_78_krem_78_krem_,@object # @krem_prefixa17ded2ca420c2d5_krem_func_krem_bitonic.c_krem_bitonic_compare_krem_78_krem_78_krem_
	.globl	krem_prefixa17ded2ca420c2d5_krem_func_krem_bitonic.c_krem_bitonic_compare_krem_78_krem_78_krem_
krem_prefixa17ded2ca420c2d5_krem_func_krem_bitonic.c_krem_bitonic_compare_krem_78_krem_78_krem_:
	.byte	0                       # 0x0
	.size	krem_prefixa17ded2ca420c2d5_krem_func_krem_bitonic.c_krem_bitonic_compare_krem_78_krem_78_krem_, 1

	.type	krem_prefixb2708e34e4622972_krem_loop_krem_bitonic.c_krem_bitonic_init_krem_51_krem_55_krem_,@object # @krem_prefixb2708e34e4622972_krem_loop_krem_bitonic.c_krem_bitonic_init_krem_51_krem_55_krem_
	.globl	krem_prefixb2708e34e4622972_krem_loop_krem_bitonic.c_krem_bitonic_init_krem_51_krem_55_krem_
krem_prefixb2708e34e4622972_krem_loop_krem_bitonic.c_krem_bitonic_init_krem_51_krem_55_krem_:
	.byte	0                       # 0x0
	.size	krem_prefixb2708e34e4622972_krem_loop_krem_bitonic.c_krem_bitonic_init_krem_51_krem_55_krem_, 1

	.type	krem_prefixb63259cb5c5b9696_krem_func_krem_bitonic.c_krem_bitonic_merge_krem_93_krem_93_krem_,@object # @krem_prefixb63259cb5c5b9696_krem_func_krem_bitonic.c_krem_bitonic_merge_krem_93_krem_93_krem_
	.globl	krem_prefixb63259cb5c5b9696_krem_func_krem_bitonic.c_krem_bitonic_merge_krem_93_krem_93_krem_
krem_prefixb63259cb5c5b9696_krem_func_krem_bitonic.c_krem_bitonic_merge_krem_93_krem_93_krem_:
	.byte	0                       # 0x0
	.size	krem_prefixb63259cb5c5b9696_krem_func_krem_bitonic.c_krem_bitonic_merge_krem_93_krem_93_krem_, 1

	.type	krem_prefixbf9ba7ae3f600411_krem_loop_krem_bitonic.c_krem_bitonic_merge_krem_96_krem_99_krem_,@object # @krem_prefixbf9ba7ae3f600411_krem_loop_krem_bitonic.c_krem_bitonic_merge_krem_96_krem_99_krem_
	.globl	krem_prefixbf9ba7ae3f600411_krem_loop_krem_bitonic.c_krem_bitonic_merge_krem_96_krem_99_krem_
krem_prefixbf9ba7ae3f600411_krem_loop_krem_bitonic.c_krem_bitonic_merge_krem_96_krem_99_krem_:
	.byte	0                       # 0x0
	.size	krem_prefixbf9ba7ae3f600411_krem_loop_krem_bitonic.c_krem_bitonic_merge_krem_96_krem_99_krem_, 1

	.type	krem_prefixccf54e4d9a4e040d_krem_func_krem_bitonic.c_krem_main_krem_151_krem_151_krem_,@object # @krem_prefixccf54e4d9a4e040d_krem_func_krem_bitonic.c_krem_main_krem_151_krem_151_krem_
	.globl	krem_prefixccf54e4d9a4e040d_krem_func_krem_bitonic.c_krem_main_krem_151_krem_151_krem_
krem_prefixccf54e4d9a4e040d_krem_func_krem_bitonic.c_krem_main_krem_151_krem_151_krem_:
	.byte	0                       # 0x0
	.size	krem_prefixccf54e4d9a4e040d_krem_func_krem_bitonic.c_krem_main_krem_151_krem_151_krem_, 1

	.type	krem_prefixe82aa7dd3b88bb82_krem_loop_body_krem_bitonic.c_krem_bitonic_init_krem_51_krem_55_krem_,@object # @krem_prefixe82aa7dd3b88bb82_krem_loop_body_krem_bitonic.c_krem_bitonic_init_krem_51_krem_55_krem_
	.globl	krem_prefixe82aa7dd3b88bb82_krem_loop_body_krem_bitonic.c_krem_bitonic_init_krem_51_krem_55_krem_
krem_prefixe82aa7dd3b88bb82_krem_loop_body_krem_bitonic.c_krem_bitonic_init_krem_51_krem_55_krem_:
	.byte	0                       # 0x0
	.size	krem_prefixe82aa7dd3b88bb82_krem_loop_body_krem_bitonic.c_krem_bitonic_init_krem_51_krem_55_krem_, 1

	.type	krem_prefixe9a38b2fce0cb562_krem_func_krem_bitonic.c_krem_bitonic_init_krem_48_krem_48_krem_,@object # @krem_prefixe9a38b2fce0cb562_krem_func_krem_bitonic.c_krem_bitonic_init_krem_48_krem_48_krem_
	.globl	krem_prefixe9a38b2fce0cb562_krem_func_krem_bitonic.c_krem_bitonic_init_krem_48_krem_48_krem_
krem_prefixe9a38b2fce0cb562_krem_func_krem_bitonic.c_krem_bitonic_init_krem_48_krem_48_krem_:
	.byte	0                       # 0x0
	.size	krem_prefixe9a38b2fce0cb562_krem_func_krem_bitonic.c_krem_bitonic_init_krem_48_krem_48_krem_, 1

	.type	krem_prefixf77caea1db8ff6b5_krem_func_krem_bitonic.c_krem_bitonic_return_krem_59_krem_59_krem_,@object # @krem_prefixf77caea1db8ff6b5_krem_func_krem_bitonic.c_krem_bitonic_return_krem_59_krem_59_krem_
	.globl	krem_prefixf77caea1db8ff6b5_krem_func_krem_bitonic.c_krem_bitonic_return_krem_59_krem_59_krem_
krem_prefixf77caea1db8ff6b5_krem_func_krem_bitonic.c_krem_bitonic_return_krem_59_krem_59_krem_:
	.byte	0                       # 0x0
	.size	krem_prefixf77caea1db8ff6b5_krem_func_krem_bitonic.c_krem_bitonic_return_krem_59_krem_59_krem_, 1

	.data
.Ldebug_end1:
	.section	.rodata,"a",@progbits
.Ldebug_end2:
	.text
.Ldebug_end3:
	.section	".note.GNU-stack","",@progbits