	.text
	.file	"kmp.simplifycfg.mem2reg.indvars.elimsinglephis.criticalpath.regioninstrument.renamemain.O3.bc"
	.text
	.globl	CPF
	.align	16, 0x90
	.type	CPF,@function
CPF:                                    # @CPF
.Lfunc_begin0:
	.file	1 "kmp.c"
	.loc	1 7 0                   # kmp.c:7:0
	.cfi_startproc
# BB#0:                                 # %entry
	pushq	%rbp
.Ltmp0:
	.cfi_def_cfa_offset 16
.Ltmp1:
	.cfi_offset %rbp, -16
	movq	%rsp, %rbp
.Ltmp2:
	.cfi_def_cfa_register %rbp
	pushq	%r15
	pushq	%r14
	pushq	%r13
	pushq	%r12
	pushq	%rbx
	subq	$72, %rsp
.Ltmp3:
	.cfi_offset %rbx, -56
.Ltmp4:
	.cfi_offset %r12, -48
.Ltmp5:
	.cfi_offset %r13, -40
.Ltmp6:
	.cfi_offset %r14, -32
.Ltmp7:
	.cfi_offset %r15, -24
	#DEBUG_VALUE: CPF:pattern <- RDI
	#DEBUG_VALUE: CPF:kmpNext <- RSI
	movq	%rsi, %r15
.Ltmp8:
	#DEBUG_VALUE: CPF:kmpNext <- R15
	movq	%r15, -88(%rbp)         # 8-byte Spill
	movq	%rdi, -56(%rbp)         # 8-byte Spill
.Ltmp9:
	#DEBUG_VALUE: CPF:pattern <- [RBP+-56]
	movabsq	$-792275336204617012, %rdi # imm = 0xF50145C785387ACC
	movabsq	$4363267685620095766, %r14 # imm = 0x3C8D70D7AD539B16
	xorl	%ebx, %ebx
	xorl	%esi, %esi
	callq	_KEnterRegion
	movl	$19, %edi
	movl	$4, %esi
	callq	_KPrepRTable
	movl	$1, %edi
	callq	_KWork
.Ltmp10:
	#DEBUG_VALUE: CPF:k <- 0
	movl	$4, %esi
	movq	%r15, %rdi
	callq	_KStoreConst
	.loc	1 10 5 prologue_end     # kmp.c:10:5
.Ltmp11:
	movl	$0, (%r15)
.Ltmp12:
	#DEBUG_VALUE: CPF:q <- 1
	#DEBUG_VALUE: CPF:kmpNext <- [RBP+-88]
	movl	$1, %esi
	movq	%r14, %rdi
	callq	_KEnterRegion
	movl	$1, %r14d
	movabsq	$-2273790900226819863, %r13 # imm = 0xE071DF392A76F8E9
	xorl	%r15d, %r15d
	xorl	%esi, %esi
	movl	$0, -68(%rbp)           # 4-byte Folded Spill
	jmp	.LBB0_1
	.align	16, 0x90
.LBB0_10:                               # %if.end
                                        #   in Loop: Header=BB0_1 Depth=1
	#DEBUG_VALUE: CPF:pattern <- [RBP+-56]
	#DEBUG_VALUE: CPF:kmpNext <- [RBP+-88]
	#DEBUG_VALUE: CPF:k <- 0
	#DEBUG_VALUE: CPF:q <- 1
	movl	%r12d, -68(%rbp)        # 4-byte Spill
	movl	$11, %edi
	callq	_KPushCDep
	movl	$9, %edi
	movl	$11, %edx
	movl	$18, %ecx
	movl	%r15d, %esi
	callq	_KPhi2To1
	movl	$2, %edi
	callq	_KWork
	movl	$9, %edi
	movl	$9, %esi
	xorl	%edx, %edx
	callq	_KTimestamp1
	movl	$9, %edi
	movl	$4, %edx
	movq	-64(%rbp), %rbx         # 8-byte Reload
	movq	%rbx, %rsi
	callq	_KStore
	.loc	1 19 9                  # kmp.c:19:9
.Ltmp13:
	movl	%r12d, (%rbx)
	movl	$11, %ebx
.Ltmp14:
	.loc	1 12 10                 # kmp.c:12:10
	incq	%r14
	movl	$10, %r15d
	movl	$10, %edi
	movl	$4, %esi
	movl	$1, %edx
	movl	$11, %ecx
	movl	$1, %r8d
	callq	_KTimestamp2
	callq	_KPopCDep
	movl	$2, %esi
	movabsq	$8931222981877126256, %rdi # imm = 0x7BF213FB7C975470
	callq	_KExitRegion
	movl	$9, %esi
.Ltmp15:
.LBB0_1:                                # %for.cond
                                        # =>This Loop Header: Depth=1
                                        #     Child Loop BB0_3 Depth 2
	#DEBUG_VALUE: CPF:pattern <- [RBP+-56]
	#DEBUG_VALUE: CPF:kmpNext <- [RBP+-88]
	#DEBUG_VALUE: CPF:k <- 0
	#DEBUG_VALUE: CPF:q <- 1
	movl	$12, %edi
	movl	%ebx, %edx
	callq	_KPhi1To1
	movl	$4, %edi
	movl	%r15d, %esi
	movl	%ebx, %edx
	callq	_KPhi1To1
	movl	$1, %edi
	callq	_KWork
	movl	$12, %edi
	movl	$12, %esi
	xorl	%edx, %edx
	callq	_KTimestamp1
	movl	$11, %edi
	movl	$4, %esi
	movl	$1, %edx
	callq	_KTimestamp1
	movl	$12, %edi
	movl	$11, %esi
	callq	_KPhiAddCond
	movl	$4, %edi
	movl	$11, %esi
	callq	_KPhiAddCond
	movl	$4, %edi
	movl	$4, %esi
	xorl	%edx, %edx
	callq	_KTimestamp1
	.loc	1 12 10 is_stmt 0       # kmp.c:12:10
	cmpq	$4, %r14
	je	.LBB0_11
# BB#2:                                 # %while.cond.preheader
                                        #   in Loop: Header=BB0_1 Depth=1
	#DEBUG_VALUE: CPF:pattern <- [RBP+-56]
	#DEBUG_VALUE: CPF:kmpNext <- [RBP+-88]
	#DEBUG_VALUE: CPF:k <- 0
	#DEBUG_VALUE: CPF:q <- 1
	movl	$2, %esi
	movabsq	$8931222981877126256, %rdi # imm = 0x7BF213FB7C975470
	callq	_KEnterRegion
	movl	$11, %edi
	callq	_KPushCDep
	callq	_KPopCDep
	movl	$1, %esi
	movabsq	$-524187773982022159, %rdi # imm = 0xF8B9B5FF3032E5F1
	callq	_KEnterRegion
	.loc	1 13 43 is_stmt 1       # kmp.c:13:43
.Ltmp16:
	movq	-56(%rbp), %rax         # 8-byte Reload
	leaq	(%rax,%r14), %rax
	.loc	1 14 17                 # kmp.c:14:17
.Ltmp17:
	movq	%rax, -48(%rbp)         # 8-byte Spill
	movq	-88(%rbp), %rax         # 8-byte Reload
	leaq	(%rax,%r14,4), %rax
	movq	%rax, -64(%rbp)         # 8-byte Spill
	movq	%r14, -80(%rbp)         # 8-byte Spill
	movl	$12, %r14d
	xorl	%ebx, %ebx
	xorl	%r15d, %r15d
	movl	-68(%rbp), %r12d        # 4-byte Reload
	jmp	.LBB0_3
	.align	16, 0x90
.LBB0_5:                                # %while.body
                                        #   in Loop: Header=BB0_3 Depth=2
	#DEBUG_VALUE: CPF:pattern <- [RBP+-56]
	#DEBUG_VALUE: CPF:kmpNext <- [RBP+-88]
	#DEBUG_VALUE: CPF:k <- 0
	#DEBUG_VALUE: CPF:q <- 1
	movl	$15, %edi
	callq	_KPushCDep
	movl	$4, %edi
	callq	_KWork
	movl	$5, %r14d
	movl	$5, %esi
	movl	$4, %edx
	movl	$4, %ecx
	movq	-64(%rbp), %rbx         # 8-byte Reload
	movq	%rbx, %rdi
	callq	_KLoad1
	movl	(%rbx), %r12d
.Ltmp18:
	#DEBUG_VALUE: CPF:k <- R12D
	movl	$15, %ebx
	movl	$5, %edi
	movl	$5, %esi
	xorl	%edx, %edx
	callq	_KTimestamp1
	callq	_KPopCDep
	movl	$2, %esi
	movq	%r13, %rdi
	callq	_KExitRegion
	movl	$14, %r15d
.Ltmp19:
.LBB0_3:                                # %while.cond
                                        #   Parent Loop BB0_1 Depth=1
                                        # =>  This Inner Loop Header: Depth=2
	#DEBUG_VALUE: CPF:pattern <- [RBP+-56]
	#DEBUG_VALUE: CPF:kmpNext <- [RBP+-88]
	#DEBUG_VALUE: CPF:k <- 0
	#DEBUG_VALUE: CPF:q <- 1
	movl	$11, %edi
	callq	_KPushCDep
	movl	$13, %edi
	movl	$11, %edx
	movl	%r14d, %esi
	movl	%r15d, %ecx
	movl	%ebx, %r8d
	callq	_KPhi3To1
	movl	$1, %edi
	callq	_KWork
	movl	$13, %edi
	movl	$13, %esi
	xorl	%edx, %edx
	callq	_KTimestamp1
	movl	$14, %edi
	movl	$11, %esi
	movl	$1, %edx
	movl	$13, %ecx
	movl	$1, %r8d
	callq	_KTimestamp2
	movl	$13, %edi
	movl	$14, %esi
	callq	_KPhiAddCond
	callq	_KPopCDep
	.loc	1 13 20 discriminator 4 # kmp.c:13:20
.Ltmp20:
	testl	%r12d, %r12d
	jle	.LBB0_6
.Ltmp21:
# BB#4:                                 # %land.rhs
                                        #   in Loop: Header=BB0_3 Depth=2
	#DEBUG_VALUE: CPF:pattern <- [RBP+-56]
	#DEBUG_VALUE: CPF:kmpNext <- [RBP+-88]
	#DEBUG_VALUE: CPF:k <- 0
	#DEBUG_VALUE: CPF:q <- 1
	movl	$2, %esi
	movq	%r13, %rdi
	callq	_KEnterRegion
	movl	$14, %edi
	callq	_KPushCDep
	movl	$9, %edi
	callq	_KWork
	.loc	1 13 29 is_stmt 0       # kmp.c:13:29
	movslq	%r12d, %rbx
	movq	-56(%rbp), %r15         # 8-byte Reload
.Ltmp22:
	#DEBUG_VALUE: CPF:pattern <- R15
	leaq	(%r15,%rbx), %r14
	movl	$1, %esi
	movl	$2, %edx
	movl	$1, %ecx
	movq	%r14, %rdi
	callq	_KLoad1
	movzbl	(%r15,%rbx), %r15d
.Ltmp23:
	#DEBUG_VALUE: CPF:pattern <- [RBP+-56]
	movl	$3, %esi
	movl	$4, %edx
	movl	$1, %ecx
	movq	-48(%rbp), %rbx         # 8-byte Reload
	movq	%rbx, %rdi
	callq	_KLoad1
	movzbl	(%rbx), %ebx
	movl	$1, (%rsp)
	movl	$15, %edi
	movl	$14, %esi
	movl	$1, %edx
	movl	$1, %ecx
	movl	$1, %r8d
	movl	$3, %r9d
	callq	_KTimestamp3
	callq	_KPopCDep
	cmpl	%ebx, %r15d
	jne	.LBB0_5
# BB#7:                                 # %land.rhs.pre_exit.while.end
                                        #   in Loop: Header=BB0_1 Depth=1
	#DEBUG_VALUE: CPF:pattern <- [RBP+-56]
	#DEBUG_VALUE: CPF:kmpNext <- [RBP+-88]
	#DEBUG_VALUE: CPF:k <- 0
	#DEBUG_VALUE: CPF:q <- 1
	movl	$2, %esi
	movq	%r13, %rdi
	callq	_KExitRegion
	movl	$1, %esi
	movabsq	$-524187773982022159, %rdi # imm = 0xF8B9B5FF3032E5F1
	callq	_KExitRegion
	jmp	.LBB0_8
	.align	16, 0x90
.LBB0_6:                                # %while.cond.pre_exit.while.end
                                        #   in Loop: Header=BB0_1 Depth=1
	#DEBUG_VALUE: CPF:pattern <- [RBP+-56]
	#DEBUG_VALUE: CPF:kmpNext <- [RBP+-88]
	#DEBUG_VALUE: CPF:k <- 0
	#DEBUG_VALUE: CPF:q <- 1
	movl	$1, %esi
	movabsq	$-524187773982022159, %rdi # imm = 0xF8B9B5FF3032E5F1
	callq	_KExitRegion
	.loc	1 16 12 is_stmt 1       # kmp.c:16:12
.Ltmp24:
	movslq	%r12d, %r14
	addq	-56(%rbp), %r14         # 8-byte Folded Reload
.Ltmp25:
.LBB0_8:                                # %while.end
                                        #   in Loop: Header=BB0_1 Depth=1
	#DEBUG_VALUE: CPF:pattern <- [RBP+-56]
	#DEBUG_VALUE: CPF:kmpNext <- [RBP+-88]
	#DEBUG_VALUE: CPF:k <- 0
	#DEBUG_VALUE: CPF:q <- 1
	movl	$11, %edi
	callq	_KPushCDep
	movl	$16, %r15d
	movl	$16, %edi
	movl	$13, %esi
	movl	$11, %edx
	callq	_KPhi1To1
	movl	$9, %edi
	callq	_KWork
	movl	$6, %esi
	movl	$7, %edx
	movl	$1, %ecx
	movq	%r14, %rdi
	callq	_KLoad1
	.loc	1 16 12 is_stmt 0       # kmp.c:16:12
	movzbl	(%r14), %r14d
	movl	$8, %esi
	movl	$4, %edx
	movl	$1, %ecx
	movq	-48(%rbp), %rbx         # 8-byte Reload
	movq	%rbx, %rdi
	callq	_KLoad1
	movzbl	(%rbx), %ebx
	movl	$1, (%rsp)
	movl	$18, %edi
	movl	$11, %esi
	movl	$1, %edx
	movl	$6, %ecx
	movl	$1, %r8d
	movl	$8, %r9d
	callq	_KTimestamp3
	movl	$16, %edi
	movl	$16, %esi
	xorl	%edx, %edx
	callq	_KTimestamp1
	callq	_KPopCDep
	cmpl	%ebx, %r14d
	movq	-80(%rbp), %r14         # 8-byte Reload
	jne	.LBB0_10
# BB#9:                                 # %if.then
                                        #   in Loop: Header=BB0_1 Depth=1
	#DEBUG_VALUE: CPF:pattern <- [RBP+-56]
	#DEBUG_VALUE: CPF:kmpNext <- [RBP+-88]
	#DEBUG_VALUE: CPF:k <- 0
	#DEBUG_VALUE: CPF:q <- 1
	movl	$18, %edi
	callq	_KPushCDep
	movl	$1, %edi
	callq	_KWork
	.loc	1 17 13 is_stmt 1       # kmp.c:17:13
.Ltmp26:
	incl	%r12d
.Ltmp27:
	#DEBUG_VALUE: CPF:k <- R12D
	movl	$2, 16(%rsp)
	movl	$8, 8(%rsp)
	movl	$2, (%rsp)
	movl	$17, %r15d
	movl	$17, %edi
	movl	$11, %esi
	movl	$2, %edx
	movl	$16, %ecx
	movl	$1, %r8d
	movl	$6, %r9d
	callq	_KTimestamp4
	callq	_KPopCDep
	jmp	.LBB0_10
.Ltmp28:
.LBB0_11:                               # %for.cond.pre_exit.for.end
	#DEBUG_VALUE: CPF:k <- 0
	#DEBUG_VALUE: CPF:q <- 1
	movl	$1, %esi
	movabsq	$4363267685620095766, %rdi # imm = 0x3C8D70D7AD539B16
	callq	_KExitRegion
	xorl	%esi, %esi
	movabsq	$-792275336204617012, %rdi # imm = 0xF50145C785387ACC
	addq	$72, %rsp
	popq	%rbx
	popq	%r12
	popq	%r13
	popq	%r14
	popq	%r15
	popq	%rbp
	jmp	_KExitRegion            # TAILCALL
.Ltmp29:
	.size	CPF, .Ltmp29-CPF
.Lfunc_end0:
	.cfi_endproc

	.globl	kmp
	.align	16, 0x90
	.type	kmp,@function
kmp:                                    # @kmp
.Lfunc_begin1:
	.loc	1 24 0                  # kmp.c:24:0
	.cfi_startproc
# BB#0:                                 # %entry
	pushq	%rbp
.Ltmp30:
	.cfi_def_cfa_offset 16
.Ltmp31:
	.cfi_offset %rbp, -16
	movq	%rsp, %rbp
.Ltmp32:
	.cfi_def_cfa_register %rbp
	pushq	%r15
	pushq	%r14
	pushq	%r13
	pushq	%r12
	pushq	%rbx
	subq	$88, %rsp
.Ltmp33:
	.cfi_offset %rbx, -56
.Ltmp34:
	.cfi_offset %r12, -48
.Ltmp35:
	.cfi_offset %r13, -40
.Ltmp36:
	.cfi_offset %r14, -32
.Ltmp37:
	.cfi_offset %r15, -24
	#DEBUG_VALUE: kmp:pattern <- RDI
	#DEBUG_VALUE: kmp:input <- RSI
	#DEBUG_VALUE: kmp:kmpNext <- RDX
	#DEBUG_VALUE: kmp:n_matches <- RCX
	movq	%rcx, %rbx
.Ltmp38:
	#DEBUG_VALUE: kmp:n_matches <- RBX
	movq	%rbx, -88(%rbp)         # 8-byte Spill
	movq	%rdx, %r15
.Ltmp39:
	#DEBUG_VALUE: kmp:kmpNext <- R15
	movq	%r15, -48(%rbp)         # 8-byte Spill
	movq	%rsi, -80(%rbp)         # 8-byte Spill
.Ltmp40:
	#DEBUG_VALUE: kmp:input <- [RBP+-80]
	movq	%rdi, %r12
.Ltmp41:
	#DEBUG_VALUE: kmp:pattern <- R12
	movq	%r12, -64(%rbp)         # 8-byte Spill
	movabsq	$-587370462160726923, %r14 # imm = 0xF7D93DAD3B5A5475
	movabsq	$-4941834649987288158, %rdi # imm = 0xBB6B13919CCA73A2
	xorl	%r13d, %r13d
	xorl	%esi, %esi
	callq	_KEnterRegion
	movl	$24, %edi
	movl	$4, %esi
	callq	_KPrepRTable
	movl	$1, %edi
	callq	_KWork
	movl	$4, %esi
	movq	%rbx, %rdi
	callq	_KStoreConst
	.loc	1 26 5 prologue_end     # kmp.c:26:5
.Ltmp42:
	movl	$0, (%rbx)
.Ltmp43:
	#DEBUG_VALUE: kmp:n_matches <- [RBP+-88]
	movabsq	$2080993556849339643, %rdi # imm = 0x1CE12C9D47E1ACFB
	xorl	%esi, %esi
	callq	_KPrepCall
	.loc	1 28 5                  # kmp.c:28:5
	movq	%r12, %rdi
.Ltmp44:
	#DEBUG_VALUE: kmp:pattern <- [RBP+-64]
	movq	%r15, %rsi
.Ltmp45:
	#DEBUG_VALUE: kmp:kmpNext <- [RBP+-48]
	callq	CPF
.Ltmp46:
	#DEBUG_VALUE: kmp:i <- 0
	#DEBUG_VALUE: kmp:q <- 0
	movl	$11, %edi
	callq	_KInduction
	movl	$1, %esi
	movq	%r14, %rdi
	callq	_KEnterRegion
	movabsq	$5533611626903057859, %rbx # imm = 0x4CCB5674D28735C3
	xorl	%r15d, %r15d
	xorl	%r12d, %r12d
	xorl	%r14d, %r14d
	jmp	.LBB1_1
	.align	16, 0x90
.LBB1_12:                               # %for.inc
                                        #   in Loop: Header=BB1_1 Depth=1
	#DEBUG_VALUE: kmp:pattern <- [RBP+-64]
	#DEBUG_VALUE: kmp:input <- [RBP+-80]
	#DEBUG_VALUE: kmp:kmpNext <- [RBP+-48]
	#DEBUG_VALUE: kmp:n_matches <- [RBP+-88]
	#DEBUG_VALUE: kmp:q <- 0
	#DEBUG_VALUE: kmp:i <- 0
	movl	$10, %r15d
	movl	$10, %edi
	callq	_KPushCDep
	movl	$16, %r12d
	movl	$16, %edi
	movl	$10, %edx
	movl	$23, %ecx
	movl	%r13d, %esi
	callq	_KPhi2To1
	movq	-72(%rbp), %r13         # 8-byte Reload
	.loc	1 31 10                 # kmp.c:31:10
.Ltmp47:
	incq	%r13
	movl	$16, %edi
	movl	$16, %esi
	xorl	%edx, %edx
	callq	_KTimestamp1
	callq	_KPopCDep
	movl	$2, %esi
	movabsq	$5533611626903057859, %rbx # imm = 0x4CCB5674D28735C3
	movq	%rbx, %rdi
	callq	_KExitRegion
.Ltmp48:
.LBB1_1:                                # %for.cond
                                        # =>This Loop Header: Depth=1
                                        #     Child Loop BB1_3 Depth 2
	#DEBUG_VALUE: kmp:pattern <- [RBP+-64]
	#DEBUG_VALUE: kmp:input <- [RBP+-80]
	#DEBUG_VALUE: kmp:kmpNext <- [RBP+-48]
	#DEBUG_VALUE: kmp:n_matches <- [RBP+-88]
	#DEBUG_VALUE: kmp:q <- 0
	#DEBUG_VALUE: kmp:i <- 0
	movl	$15, %edi
	movl	%r12d, %esi
	movl	%r15d, %edx
	callq	_KPhi1To1
	movl	$1, %edi
	callq	_KWork
	movl	$10, %edi
	movl	$11, %esi
	movl	$1, %edx
	callq	_KTimestamp1
	movl	$15, %edi
	movl	$10, %esi
	callq	_KPhiAddCond
	movl	$15, %edi
	movl	$15, %esi
	xorl	%edx, %edx
	callq	_KTimestamp1
	.loc	1 31 10 is_stmt 0       # kmp.c:31:10
	cmpq	$32411, %r13            # imm = 0x7E9B
	je	.LBB1_13
# BB#2:                                 # %while.cond.preheader
                                        #   in Loop: Header=BB1_1 Depth=1
	#DEBUG_VALUE: kmp:pattern <- [RBP+-64]
	#DEBUG_VALUE: kmp:input <- [RBP+-80]
	#DEBUG_VALUE: kmp:kmpNext <- [RBP+-48]
	#DEBUG_VALUE: kmp:n_matches <- [RBP+-88]
	#DEBUG_VALUE: kmp:q <- 0
	#DEBUG_VALUE: kmp:i <- 0
	movl	$2, %esi
	movq	%rbx, %rdi
	callq	_KEnterRegion
	movl	$10, %edi
	callq	_KPushCDep
	callq	_KPopCDep
	movl	$1, %esi
	movabsq	$-136070380226582012, %rdi # imm = 0xFE1C94B5CA246A04
	callq	_KEnterRegion
	.loc	1 32 44 is_stmt 1       # kmp.c:32:44
.Ltmp49:
	movq	-80(%rbp), %rax         # 8-byte Reload
	leaq	(%rax,%r13), %rax
	movq	%rax, -56(%rbp)         # 8-byte Spill
	movq	%r13, -72(%rbp)         # 8-byte Spill
	movl	$15, %r15d
	xorl	%r12d, %r12d
	movabsq	$-1853859652944371322, %rbx # imm = 0xE645C477C2D26186
	jmp	.LBB1_3
	.align	16, 0x90
.LBB1_7:                                # %while.body
                                        #   in Loop: Header=BB1_3 Depth=2
	#DEBUG_VALUE: kmp:pattern <- [RBP+-64]
	#DEBUG_VALUE: kmp:input <- [RBP+-80]
	#DEBUG_VALUE: kmp:kmpNext <- [RBP+-48]
	#DEBUG_VALUE: kmp:n_matches <- [RBP+-88]
	#DEBUG_VALUE: kmp:q <- 0
	#DEBUG_VALUE: kmp:i <- 0
	movl	$18, %r12d
	movl	$18, %edi
	callq	_KPushCDep
	movl	$4, %r15d
	movl	$4, %edi
	callq	_KWork
	movq	-48(%rbp), %rbx         # 8-byte Reload
.Ltmp50:
	#DEBUG_VALUE: kmp:kmpNext <- RBX
	.loc	1 33 17                 # kmp.c:33:17
	leaq	(%rbx,%r13,4), %rdi
	movl	$4, %esi
	movl	$5, %edx
	movl	$4, %ecx
	callq	_KLoad1
	movl	(%rbx,%r13,4), %r14d
.Ltmp51:
	#DEBUG_VALUE: kmp:q <- R14D
	#DEBUG_VALUE: kmp:kmpNext <- [RBP+-48]
	movl	$4, %edi
	movl	$4, %esi
	xorl	%edx, %edx
	callq	_KTimestamp1
	callq	_KPopCDep
	movl	$2, %esi
	movabsq	$-1853859652944371322, %rbx # imm = 0xE645C477C2D26186
	movq	%rbx, %rdi
	callq	_KExitRegion
.Ltmp52:
.LBB1_3:                                # %while.cond
                                        #   Parent Loop BB1_1 Depth=1
                                        # =>  This Inner Loop Header: Depth=2
	#DEBUG_VALUE: kmp:pattern <- [RBP+-64]
	#DEBUG_VALUE: kmp:input <- [RBP+-80]
	#DEBUG_VALUE: kmp:kmpNext <- [RBP+-48]
	#DEBUG_VALUE: kmp:n_matches <- [RBP+-88]
	#DEBUG_VALUE: kmp:q <- 0
	#DEBUG_VALUE: kmp:i <- 0
	movl	$2, %esi
	movq	%rbx, %rdi
	callq	_KEnterRegion
	movl	$10, %edi
	callq	_KPushCDep
	movl	$17, %edi
	movl	$10, %edx
	movl	%r15d, %esi
	movl	%r12d, %ecx
	callq	_KPhi2To1
	movl	$1, %edi
	callq	_KWork
	movl	$19, %edi
	movl	$10, %esi
	movl	$1, %edx
	movl	$17, %ecx
	movl	$1, %r8d
	callq	_KTimestamp2
	movl	$17, %edi
	movl	$17, %esi
	xorl	%edx, %edx
	callq	_KTimestamp1
	callq	_KPopCDep
	.loc	1 32 21 discriminator 4 # kmp.c:32:21
.Ltmp53:
	testl	%r14d, %r14d
	jle	.LBB1_4
.Ltmp54:
# BB#5:                                 # %land.rhs
                                        #   in Loop: Header=BB1_3 Depth=2
	#DEBUG_VALUE: kmp:pattern <- [RBP+-64]
	#DEBUG_VALUE: kmp:input <- [RBP+-80]
	#DEBUG_VALUE: kmp:kmpNext <- [RBP+-48]
	#DEBUG_VALUE: kmp:n_matches <- [RBP+-88]
	#DEBUG_VALUE: kmp:q <- 0
	#DEBUG_VALUE: kmp:i <- 0
	movl	$19, %edi
	callq	_KPushCDep
	movl	$9, %edi
	callq	_KWork
	.loc	1 32 30 is_stmt 0       # kmp.c:32:30
	movslq	%r14d, %r13
	movq	-64(%rbp), %rbx         # 8-byte Reload
.Ltmp55:
	#DEBUG_VALUE: kmp:pattern <- RBX
	leaq	(%rbx,%r13), %rdi
	movl	$1, %esi
	movl	$2, %edx
	movl	$1, %ecx
	callq	_KLoad1
	movzbl	(%rbx,%r13), %r15d
.Ltmp56:
	#DEBUG_VALUE: kmp:pattern <- [RBP+-64]
	movl	$3, %esi
	movl	$1, %edx
	movq	-56(%rbp), %rbx         # 8-byte Reload
	movq	%rbx, %rdi
	callq	_KLoad0
	movzbl	(%rbx), %eax
	cmpl	%eax, %r15d
	setne	%r15b
	movl	$1, (%rsp)
	movl	$20, %ebx
	movl	$20, %edi
	movl	$19, %esi
	movl	$1, %edx
	movl	$1, %ecx
	movl	$1, %r8d
	movl	$3, %r9d
	callq	_KTimestamp3
	callq	_KPopCDep
	jmp	.LBB1_6
	.align	16, 0x90
.LBB1_4:                                # %while.cond.land.end_crit_edge
                                        #   in Loop: Header=BB1_3 Depth=2
	#DEBUG_VALUE: kmp:pattern <- [RBP+-64]
	#DEBUG_VALUE: kmp:input <- [RBP+-80]
	#DEBUG_VALUE: kmp:kmpNext <- [RBP+-48]
	#DEBUG_VALUE: kmp:n_matches <- [RBP+-88]
	#DEBUG_VALUE: kmp:q <- 0
	#DEBUG_VALUE: kmp:i <- 0
	.loc	1 33 17 is_stmt 1       # kmp.c:33:17
.Ltmp57:
	movslq	%r14d, %r13
	xorl	%ebx, %ebx
	xorl	%r15d, %r15d
.Ltmp58:
.LBB1_6:                                # %land.end
                                        #   in Loop: Header=BB1_3 Depth=2
	#DEBUG_VALUE: kmp:pattern <- [RBP+-64]
	#DEBUG_VALUE: kmp:input <- [RBP+-80]
	#DEBUG_VALUE: kmp:kmpNext <- [RBP+-48]
	#DEBUG_VALUE: kmp:n_matches <- [RBP+-88]
	#DEBUG_VALUE: kmp:q <- 0
	#DEBUG_VALUE: kmp:i <- 0
	movl	$10, %edi
	callq	_KPushCDep
	movl	$18, %edi
	movl	$10, %edx
	movl	$19, %ecx
	movl	%ebx, %esi
	callq	_KPhi2To1
	movl	$18, %edi
	movl	$18, %esi
	xorl	%edx, %edx
	callq	_KTimestamp1
	callq	_KPopCDep
	.loc	1 32 14 discriminator 3 # kmp.c:32:14
	testb	%r15b, %r15b
	jne	.LBB1_7
# BB#8:                                 # %land.end.pre_exit.while.end
                                        #   in Loop: Header=BB1_1 Depth=1
	#DEBUG_VALUE: kmp:pattern <- [RBP+-64]
	#DEBUG_VALUE: kmp:input <- [RBP+-80]
	#DEBUG_VALUE: kmp:kmpNext <- [RBP+-48]
	#DEBUG_VALUE: kmp:n_matches <- [RBP+-88]
	#DEBUG_VALUE: kmp:q <- 0
	#DEBUG_VALUE: kmp:i <- 0
	movl	$2, %esi
	movabsq	$-1853859652944371322, %rdi # imm = 0xE645C477C2D26186
	callq	_KExitRegion
	movl	$1, %esi
	movabsq	$-136070380226582012, %rdi # imm = 0xFE1C94B5CA246A04
	callq	_KExitRegion
	movl	$10, %edi
	callq	_KPushCDep
	movl	$9, %edi
	callq	_KWork
	movq	-64(%rbp), %rbx         # 8-byte Reload
.Ltmp59:
	#DEBUG_VALUE: kmp:pattern <- RBX
	.loc	1 35 13                 # kmp.c:35:13
	leaq	(%rbx,%r13), %rdi
	movl	$6, %esi
	movl	$5, %edx
	movl	$1, %ecx
	callq	_KLoad1
.Ltmp60:
	.loc	1 35 13 is_stmt 0       # kmp.c:35:13
	movzbl	(%rbx,%r13), %r15d
.Ltmp61:
	#DEBUG_VALUE: kmp:pattern <- [RBP+-64]
	movl	$7, %esi
	movl	$1, %edx
	movq	-56(%rbp), %rbx         # 8-byte Reload
	movq	%rbx, %rdi
	callq	_KLoad0
	movzbl	(%rbx), %ebx
	movl	$1, (%rsp)
	movl	$22, %edi
	movl	$7, %esi
	movl	$1, %edx
	movl	$10, %ecx
	movl	$1, %r8d
	movl	$6, %r9d
	callq	_KTimestamp3
	callq	_KPopCDep
	movl	$17, %r12d
	cmpl	%ebx, %r15d
	jne	.LBB1_10
# BB#9:                                 # %if.then
                                        #   in Loop: Header=BB1_1 Depth=1
	#DEBUG_VALUE: kmp:pattern <- [RBP+-64]
	#DEBUG_VALUE: kmp:input <- [RBP+-80]
	#DEBUG_VALUE: kmp:kmpNext <- [RBP+-48]
	#DEBUG_VALUE: kmp:n_matches <- [RBP+-88]
	#DEBUG_VALUE: kmp:q <- 0
	#DEBUG_VALUE: kmp:i <- 0
	movl	$22, %edi
	callq	_KPushCDep
	movl	$1, %edi
	callq	_KWork
	.loc	1 36 13 is_stmt 1       # kmp.c:36:13
.Ltmp62:
	incl	%r14d
.Ltmp63:
	#DEBUG_VALUE: kmp:q <- R14D
	movl	$2, 16(%rsp)
	movl	$6, 8(%rsp)
	movl	$1, (%rsp)
	movl	$21, %r12d
	movl	$21, %edi
	movl	$7, %esi
	movl	$2, %edx
	movl	$10, %ecx
	movl	$2, %r8d
	movl	$17, %r9d
	callq	_KTimestamp4
	callq	_KPopCDep
.Ltmp64:
.LBB1_10:                               # %if.end
                                        #   in Loop: Header=BB1_1 Depth=1
	#DEBUG_VALUE: kmp:pattern <- [RBP+-64]
	#DEBUG_VALUE: kmp:input <- [RBP+-80]
	#DEBUG_VALUE: kmp:kmpNext <- [RBP+-48]
	#DEBUG_VALUE: kmp:n_matches <- [RBP+-88]
	#DEBUG_VALUE: kmp:q <- 0
	#DEBUG_VALUE: kmp:i <- 0
	movl	$10, %edi
	callq	_KPushCDep
	movl	$12, %r13d
	movl	$12, %edi
	movl	$10, %edx
	movl	$22, %ecx
	movl	%r12d, %esi
	callq	_KPhi2To1
	movl	$1, %edi
	callq	_KWork
	movl	$23, %edi
	movl	$10, %esi
	movl	$1, %edx
	movl	$12, %ecx
	movl	$1, %r8d
	callq	_KTimestamp2
	movl	$12, %edi
	movl	$12, %esi
	xorl	%edx, %edx
	callq	_KTimestamp1
	callq	_KPopCDep
	.loc	1 38 13                 # kmp.c:38:13
	cmpl	$4, %r14d
	jl	.LBB1_12
# BB#11:                                # %if.then20
                                        #   in Loop: Header=BB1_1 Depth=1
	#DEBUG_VALUE: kmp:pattern <- [RBP+-64]
	#DEBUG_VALUE: kmp:input <- [RBP+-80]
	#DEBUG_VALUE: kmp:kmpNext <- [RBP+-48]
	#DEBUG_VALUE: kmp:n_matches <- [RBP+-88]
	#DEBUG_VALUE: kmp:q <- 0
	#DEBUG_VALUE: kmp:i <- 0
	movl	$23, %edi
	callq	_KPushCDep
	movl	$11, %edi
	callq	_KWork
	movl	$8, %esi
	movl	$4, %edx
	movq	-88(%rbp), %rbx         # 8-byte Reload
.Ltmp65:
	#DEBUG_VALUE: kmp:n_matches <- RBX
	movq	%rbx, %rdi
	callq	_KLoad0
	.loc	1 39 13                 # kmp.c:39:13
.Ltmp66:
	movl	(%rbx), %r15d
	incl	%r15d
	movl	$2, (%rsp)
	movl	$9, %edi
	movl	$10, %esi
	movl	$2, %edx
	movl	$8, %ecx
	movl	$1, %r8d
	movl	$12, %r9d
	callq	_KTimestamp3
	movl	$9, %edi
	movl	$4, %edx
	movq	%rbx, %rsi
	callq	_KStore
	movl	%r15d, (%rbx)
.Ltmp67:
	#DEBUG_VALUE: kmp:n_matches <- [RBP+-88]
	.loc	1 40 25                 # kmp.c:40:25
	decl	%r14d
	.loc	1 40 17 is_stmt 0       # kmp.c:40:17
	movslq	%r14d, %r14
	movq	-48(%rbp), %rbx         # 8-byte Reload
.Ltmp68:
	#DEBUG_VALUE: kmp:kmpNext <- RBX
	leaq	(%rbx,%r14,4), %rdi
	movl	$13, %r13d
	movl	$13, %esi
	movl	$14, %edx
	movl	$4, %ecx
	callq	_KLoad1
	movl	(%rbx,%r14,4), %r14d
.Ltmp69:
	#DEBUG_VALUE: kmp:q <- R14D
	#DEBUG_VALUE: kmp:kmpNext <- [RBP+-48]
	movl	$13, %edi
	movl	$13, %esi
	xorl	%edx, %edx
	callq	_KTimestamp1
	callq	_KPopCDep
	jmp	.LBB1_12
.Ltmp70:
.LBB1_13:                               # %for.cond.pre_exit.for.end
	#DEBUG_VALUE: kmp:q <- 0
	#DEBUG_VALUE: kmp:i <- 0
	movl	$1, %esi
	movabsq	$-587370462160726923, %rdi # imm = 0xF7D93DAD3B5A5475
	callq	_KExitRegion
	callq	_KReturnConst
	xorl	%esi, %esi
	movabsq	$-4941834649987288158, %rdi # imm = 0xBB6B13919CCA73A2
	callq	_KExitRegion
	xorl	%eax, %eax
	.loc	1 43 5 is_stmt 1        # kmp.c:43:5
	addq	$88, %rsp
	popq	%rbx
	popq	%r12
	popq	%r13
	popq	%r14
	popq	%r15
	popq	%rbp
	retq
.Ltmp71:
.Ltmp72:
	.size	kmp, .Ltmp72-kmp
.Lfunc_end1:
	.cfi_endproc

	.type	krem_prefix1ce12c9d47e1acfb_krem_callsiteId_krem_kmp.c_krem_kmp_krem_28_krem_28_krem_,@object # @krem_prefix1ce12c9d47e1acfb_krem_callsiteId_krem_kmp.c_krem_kmp_krem_28_krem_28_krem_
	.bss
	.globl	krem_prefix1ce12c9d47e1acfb_krem_callsiteId_krem_kmp.c_krem_kmp_krem_28_krem_28_krem_
krem_prefix1ce12c9d47e1acfb_krem_callsiteId_krem_kmp.c_krem_kmp_krem_28_krem_28_krem_:
	.byte	0                       # 0x0
	.size	krem_prefix1ce12c9d47e1acfb_krem_callsiteId_krem_kmp.c_krem_kmp_krem_28_krem_28_krem_, 1

	.type	krem_prefix3c8d70d7ad539b16_krem_loop_krem_kmp.c_krem_CPF_krem_8_krem_19_krem_,@object # @krem_prefix3c8d70d7ad539b16_krem_loop_krem_kmp.c_krem_CPF_krem_8_krem_19_krem_
	.globl	krem_prefix3c8d70d7ad539b16_krem_loop_krem_kmp.c_krem_CPF_krem_8_krem_19_krem_
krem_prefix3c8d70d7ad539b16_krem_loop_krem_kmp.c_krem_CPF_krem_8_krem_19_krem_:
	.byte	0                       # 0x0
	.size	krem_prefix3c8d70d7ad539b16_krem_loop_krem_kmp.c_krem_CPF_krem_8_krem_19_krem_, 1

	.type	krem_prefix4ccb5674d28735c3_krem_loop_body_krem_kmp.c_krem_kmp_krem_25_krem_41_krem_,@object # @krem_prefix4ccb5674d28735c3_krem_loop_body_krem_kmp.c_krem_kmp_krem_25_krem_41_krem_
	.globl	krem_prefix4ccb5674d28735c3_krem_loop_body_krem_kmp.c_krem_kmp_krem_25_krem_41_krem_
krem_prefix4ccb5674d28735c3_krem_loop_body_krem_kmp.c_krem_kmp_krem_25_krem_41_krem_:
	.byte	0                       # 0x0
	.size	krem_prefix4ccb5674d28735c3_krem_loop_body_krem_kmp.c_krem_kmp_krem_25_krem_41_krem_, 1

	.type	krem_prefix7bf213fb7c975470_krem_loop_body_krem_kmp.c_krem_CPF_krem_8_krem_19_krem_,@object # @krem_prefix7bf213fb7c975470_krem_loop_body_krem_kmp.c_krem_CPF_krem_8_krem_19_krem_
	.globl	krem_prefix7bf213fb7c975470_krem_loop_body_krem_kmp.c_krem_CPF_krem_8_krem_19_krem_
krem_prefix7bf213fb7c975470_krem_loop_body_krem_kmp.c_krem_CPF_krem_8_krem_19_krem_:
	.byte	0                       # 0x0
	.size	krem_prefix7bf213fb7c975470_krem_loop_body_krem_kmp.c_krem_CPF_krem_8_krem_19_krem_, 1

	.type	krem_prefixbb6b13919cca73a2_krem_func_krem_kmp.c_krem_kmp_krem_24_krem_24_krem_,@object # @krem_prefixbb6b13919cca73a2_krem_func_krem_kmp.c_krem_kmp_krem_24_krem_24_krem_
	.globl	krem_prefixbb6b13919cca73a2_krem_func_krem_kmp.c_krem_kmp_krem_24_krem_24_krem_
krem_prefixbb6b13919cca73a2_krem_func_krem_kmp.c_krem_kmp_krem_24_krem_24_krem_:
	.byte	0                       # 0x0
	.size	krem_prefixbb6b13919cca73a2_krem_func_krem_kmp.c_krem_kmp_krem_24_krem_24_krem_, 1

	.type	krem_prefixe071df392a76f8e9_krem_loop_body_krem_kmp.c_krem_CPF_krem_8_krem_14_krem_,@object # @krem_prefixe071df392a76f8e9_krem_loop_body_krem_kmp.c_krem_CPF_krem_8_krem_14_krem_
	.globl	krem_prefixe071df392a76f8e9_krem_loop_body_krem_kmp.c_krem_CPF_krem_8_krem_14_krem_
krem_prefixe071df392a76f8e9_krem_loop_body_krem_kmp.c_krem_CPF_krem_8_krem_14_krem_:
	.byte	0                       # 0x0
	.size	krem_prefixe071df392a76f8e9_krem_loop_body_krem_kmp.c_krem_CPF_krem_8_krem_14_krem_, 1

	.type	krem_prefixe645c477c2d26186_krem_loop_body_krem_kmp.c_krem_kmp_krem_25_krem_33_krem_,@object # @krem_prefixe645c477c2d26186_krem_loop_body_krem_kmp.c_krem_kmp_krem_25_krem_33_krem_
	.globl	krem_prefixe645c477c2d26186_krem_loop_body_krem_kmp.c_krem_kmp_krem_25_krem_33_krem_
krem_prefixe645c477c2d26186_krem_loop_body_krem_kmp.c_krem_kmp_krem_25_krem_33_krem_:
	.byte	0                       # 0x0
	.size	krem_prefixe645c477c2d26186_krem_loop_body_krem_kmp.c_krem_kmp_krem_25_krem_33_krem_, 1

	.type	krem_prefixf50145c785387acc_krem_func_krem_kmp.c_krem_CPF_krem_7_krem_7_krem_,@object # @krem_prefixf50145c785387acc_krem_func_krem_kmp.c_krem_CPF_krem_7_krem_7_krem_
	.globl	krem_prefixf50145c785387acc_krem_func_krem_kmp.c_krem_CPF_krem_7_krem_7_krem_
krem_prefixf50145c785387acc_krem_func_krem_kmp.c_krem_CPF_krem_7_krem_7_krem_:
	.byte	0                       # 0x0
	.size	krem_prefixf50145c785387acc_krem_func_krem_kmp.c_krem_CPF_krem_7_krem_7_krem_, 1

	.type	krem_prefixf7d93dad3b5a5475_krem_loop_krem_kmp.c_krem_kmp_krem_25_krem_41_krem_,@object # @krem_prefixf7d93dad3b5a5475_krem_loop_krem_kmp.c_krem_kmp_krem_25_krem_41_krem_
	.globl	krem_prefixf7d93dad3b5a5475_krem_loop_krem_kmp.c_krem_kmp_krem_25_krem_41_krem_
krem_prefixf7d93dad3b5a5475_krem_loop_krem_kmp.c_krem_kmp_krem_25_krem_41_krem_:
	.byte	0                       # 0x0
	.size	krem_prefixf7d93dad3b5a5475_krem_loop_krem_kmp.c_krem_kmp_krem_25_krem_41_krem_, 1

	.type	krem_prefixf8b9b5ff3032e5f1_krem_loop_krem_kmp.c_krem_CPF_krem_8_krem_14_krem_,@object # @krem_prefixf8b9b5ff3032e5f1_krem_loop_krem_kmp.c_krem_CPF_krem_8_krem_14_krem_
	.globl	krem_prefixf8b9b5ff3032e5f1_krem_loop_krem_kmp.c_krem_CPF_krem_8_krem_14_krem_
krem_prefixf8b9b5ff3032e5f1_krem_loop_krem_kmp.c_krem_CPF_krem_8_krem_14_krem_:
	.byte	0                       # 0x0
	.size	krem_prefixf8b9b5ff3032e5f1_krem_loop_krem_kmp.c_krem_CPF_krem_8_krem_14_krem_, 1

	.type	krem_prefixfe1c94b5ca246a04_krem_loop_krem_kmp.c_krem_kmp_krem_25_krem_33_krem_,@object # @krem_prefixfe1c94b5ca246a04_krem_loop_krem_kmp.c_krem_kmp_krem_25_krem_33_krem_
	.globl	krem_prefixfe1c94b5ca246a04_krem_loop_krem_kmp.c_krem_kmp_krem_25_krem_33_krem_
krem_prefixfe1c94b5ca246a04_krem_loop_krem_kmp.c_krem_kmp_krem_25_krem_33_krem_:
	.byte	0                       # 0x0
	.size	krem_prefixfe1c94b5ca246a04_krem_loop_krem_kmp.c_krem_kmp_krem_25_krem_33_krem_, 1

	.text
.Ldebug_end0:
	.file	2 "/usr/include/x86_64-linux-gnu/sys/types.h"
	.section	".note.GNU-stack","",@progbits