	.text
	.file	"local_support.simplifycfg.mem2reg.indvars.elimsinglephis.criticalpath.regioninstrument.renamemain.O3.bc"
	.text
	.globl	run_benchmark
	.align	16, 0x90
	.type	run_benchmark,@function
run_benchmark:                          # @run_benchmark
.Lfunc_begin0:
	.loc	1 6 0                   # local_support.c:6:0
	.cfi_startproc
# BB#0:                                 # %entry
	pushq	%rbp
.Ltmp0:
	.cfi_def_cfa_offset 16
.Ltmp1:
	.cfi_offset %rbp, -16
	movq	%rsp, %rbp
.Ltmp2:
	.cfi_def_cfa_register %rbp
	pushq	%r14
	pushq	%rbx
.Ltmp3:
	.cfi_offset %rbx, -32
.Ltmp4:
	.cfi_offset %r14, -24
	#DEBUG_VALUE: run_benchmark:vargs <- RDI
	movq	%rdi, %rbx
.Ltmp5:
	#DEBUG_VALUE: run_benchmark:vargs <- RBX
	movabsq	$3862668819228705092, %r14 # imm = 0x359AF4D3671AC144
	xorl	%esi, %esi
	movq	%r14, %rdi
	callq	_KEnterRegion
	movl	$2, %edi
	xorl	%esi, %esi
	callq	_KPrepRTable
	movabsq	$8529996880469001576, %rdi # imm = 0x7660A2F80B8B8568
	xorl	%esi, %esi
	callq	_KPrepCall
	movl	$1, %edi
	callq	_KLinkReturn
	.loc	1 8 23 prologue_end     # local_support.c:8:23
.Ltmp6:
	leaq	4(%rbx), %rsi
	.loc	1 8 36 is_stmt 0        # local_support.c:8:36
	leaq	32416(%rbx), %rdx
	.loc	1 8 51                  # local_support.c:8:51
	leaq	32432(%rbx), %rcx
	.loc	1 8 3                   # local_support.c:8:3
	movq	%rbx, %rdi
	callq	kmp
	xorl	%esi, %esi
	movq	%r14, %rdi
	popq	%rbx
.Ltmp7:
	popq	%r14
	popq	%rbp
	jmp	_KExitRegion            # TAILCALL
.Ltmp8:
.Ltmp9:
	.size	run_benchmark, .Ltmp9-run_benchmark
.Lfunc_end0:
	.cfi_endproc

	.globl	input_to_data
	.align	16, 0x90
	.type	input_to_data,@function
input_to_data:                          # @input_to_data
.Lfunc_begin1:
	.loc	1 18 0 is_stmt 1        # local_support.c:18:0
	.cfi_startproc
# BB#0:                                 # %entry
	pushq	%rbp
.Ltmp10:
	.cfi_def_cfa_offset 16
.Ltmp11:
	.cfi_offset %rbp, -16
	movq	%rsp, %rbp
.Ltmp12:
	.cfi_def_cfa_register %rbp
	pushq	%r15
	pushq	%r14
	pushq	%r12
	pushq	%rbx
.Ltmp13:
	.cfi_offset %rbx, -48
.Ltmp14:
	.cfi_offset %r12, -40
.Ltmp15:
	.cfi_offset %r14, -32
.Ltmp16:
	.cfi_offset %r15, -24
	#DEBUG_VALUE: input_to_data:fd <- EDI
	#DEBUG_VALUE: input_to_data:vdata <- RSI
	movq	%rsi, %r15
.Ltmp17:
	#DEBUG_VALUE: input_to_data:vdata <- R15
	movl	%edi, %ebx
.Ltmp18:
	#DEBUG_VALUE: input_to_data:fd <- EBX
	movabsq	$-6621481163062197625, %r14 # imm = 0xA41BC5F6DCBCC287
	xorl	%esi, %esi
	movq	%r14, %rdi
	callq	_KEnterRegion
	movl	$4, %edi
	xorl	%esi, %esi
	callq	_KPrepRTable
	movl	$1, %edi
	callq	_KDeqArg
	xorl	%esi, %esi
	movl	$32436, %edx            # imm = 0x7EB4
	.loc	1 22 3 prologue_end     # local_support.c:22:3
.Ltmp19:
	movq	%r15, %rdi
	callq	memset
	movabsq	$-1993189723613795903, %rdi # imm = 0xE456C481BA0A69C1
	xorl	%esi, %esi
	callq	_KPrepCall
	movl	$1, %edi
	movl	$1, %esi
	xorl	%edx, %edx
	callq	_KTimestamp1
	movl	$1, %edi
	callq	_KEnqArg
	.loc	1 24 7                  # local_support.c:24:7
	movl	%ebx, %edi
.Ltmp20:
	#DEBUG_VALUE: input_to_data:fd <- EDI
	callq	readfile
	movq	%rax, %rbx
.Ltmp21:
	#DEBUG_VALUE: input_to_data:p <- RBX
	movabsq	$-7773845289601164280, %rdi # imm = 0x941DC0E58E7A9C08
.Ltmp22:
	xorl	%esi, %esi
	callq	_KPrepCall
	callq	_KEnqArgConst
	movl	$1, %esi
	.loc	1 26 7                  # local_support.c:26:7
	movq	%rbx, %rdi
	callq	find_section_start
	movq	%rax, %r12
.Ltmp23:
	#DEBUG_VALUE: input_to_data:s <- R12
	movabsq	$782789933538655314, %rdi # imm = 0xADD074C1252BC52
	xorl	%esi, %esi
	callq	_KPrepCall
	callq	_KEnqArgConst
	movl	$2, %edi
	callq	_KLinkReturn
	movl	$4, %edx
	.loc	1 27 3                  # local_support.c:27:3
	movq	%r12, %rdi
	movq	%r15, %rsi
	callq	parse_string
	movabsq	$-250842785628314898, %rdi # imm = 0xFC84D3D0C427A2EE
	xorl	%esi, %esi
	callq	_KPrepCall
	callq	_KEnqArgConst
	movl	$2, %esi
	.loc	1 29 7                  # local_support.c:29:7
	movq	%rbx, %rdi
	callq	find_section_start
	movq	%rax, %r12
.Ltmp24:
	#DEBUG_VALUE: input_to_data:s <- R12
	.loc	1 30 19                 # local_support.c:30:19
	addq	$4, %r15
.Ltmp25:
	movabsq	$-324848532010284172, %rdi # imm = 0xFB7DE7FB33B84B74
	xorl	%esi, %esi
	callq	_KPrepCall
	callq	_KEnqArgConst
	movl	$3, %edi
	callq	_KLinkReturn
	movl	$32411, %edx            # imm = 0x7E9B
	.loc	1 30 3 is_stmt 0        # local_support.c:30:3
	movq	%r12, %rdi
	movq	%r15, %rsi
	callq	parse_string
	.loc	1 31 3 is_stmt 1        # local_support.c:31:3
	movq	%rbx, %rdi
	callq	free
	movq	%rbx, %rdi
	callq	_KFree
	xorl	%esi, %esi
	movq	%r14, %rdi
	popq	%rbx
.Ltmp26:
	popq	%r12
.Ltmp27:
	popq	%r14
	popq	%r15
	popq	%rbp
	jmp	_KExitRegion            # TAILCALL
.Ltmp28:
.Ltmp29:
	.size	input_to_data, .Ltmp29-input_to_data
.Lfunc_end1:
	.cfi_endproc

	.globl	data_to_input
	.align	16, 0x90
	.type	data_to_input,@function
data_to_input:                          # @data_to_input
.Lfunc_begin2:
	.loc	1 34 0                  # local_support.c:34:0
	.cfi_startproc
# BB#0:                                 # %entry
	pushq	%rbp
.Ltmp30:
	.cfi_def_cfa_offset 16
.Ltmp31:
	.cfi_offset %rbp, -16
	movq	%rsp, %rbp
.Ltmp32:
	.cfi_def_cfa_register %rbp
	pushq	%r15
	pushq	%r14
	pushq	%rbx
	pushq	%rax
.Ltmp33:
	.cfi_offset %rbx, -40
.Ltmp34:
	.cfi_offset %r14, -32
.Ltmp35:
	.cfi_offset %r15, -24
	#DEBUG_VALUE: data_to_input:fd <- EDI
	#DEBUG_VALUE: data_to_input:vdata <- RSI
	movq	%rsi, %r15
.Ltmp36:
	#DEBUG_VALUE: data_to_input:vdata <- R15
	movl	%edi, %ebx
.Ltmp37:
	#DEBUG_VALUE: data_to_input:fd <- EBX
	movabsq	$8265711678329185454, %r14 # imm = 0x72B5B4FA529BE4AE
	xorl	%esi, %esi
	movq	%r14, %rdi
	callq	_KEnterRegion
	movl	$6, %edi
	xorl	%esi, %esi
	callq	_KPrepRTable
	movl	$1, %edi
	callq	_KDeqArg
	movabsq	$-3681419575134453250, %rdi # imm = 0xCCE8F866C2F101FE
	xorl	%esi, %esi
	callq	_KPrepCall
	movl	$1, %edi
	movl	$1, %esi
	xorl	%edx, %edx
	callq	_KTimestamp1
	movl	$1, %edi
	callq	_KEnqArg
	movl	$2, %edi
	callq	_KLinkReturn
	.loc	1 37 3 prologue_end     # local_support.c:37:3
.Ltmp38:
	movl	%ebx, %edi
	callq	write_section_header
	movabsq	$-6871032354335469159, %rdi # imm = 0xA0A5307A5F9E5199
	xorl	%esi, %esi
	callq	_KPrepCall
	callq	_KEnqArgConst
	movl	$1, %edi
	callq	_KEnqArg
	movl	$3, %edi
	callq	_KLinkReturn
	movl	$4, %edx
	.loc	1 38 3                  # local_support.c:38:3
	movl	%ebx, %edi
	movq	%r15, %rsi
	callq	write_string
	movabsq	$-281345025543057582, %rdi # imm = 0xFC1876309D2ECF52
	xorl	%esi, %esi
	callq	_KPrepCall
	movl	$1, %edi
	callq	_KEnqArg
	movl	$4, %edi
	callq	_KLinkReturn
	.loc	1 40 3                  # local_support.c:40:3
	movl	%ebx, %edi
	callq	write_section_header
	.loc	1 41 20                 # local_support.c:41:20
	addq	$4, %r15
.Ltmp39:
	movabsq	$9071652641761594328, %rdi # imm = 0x7DE4FC0395EF0BD8
	xorl	%esi, %esi
	callq	_KPrepCall
	callq	_KEnqArgConst
	movl	$1, %edi
	callq	_KEnqArg
	movl	$5, %edi
	callq	_KLinkReturn
	movl	$32411, %edx            # imm = 0x7E9B
	.loc	1 41 3 is_stmt 0        # local_support.c:41:3
	movl	%ebx, %edi
	movq	%r15, %rsi
	callq	write_string
	xorl	%esi, %esi
	movq	%r14, %rdi
	addq	$8, %rsp
	popq	%rbx
.Ltmp40:
	popq	%r14
	popq	%r15
	popq	%rbp
	jmp	_KExitRegion            # TAILCALL
.Ltmp41:
.Ltmp42:
	.size	data_to_input, .Ltmp42-data_to_input
.Lfunc_end2:
	.cfi_endproc

	.globl	output_to_data
	.align	16, 0x90
	.type	output_to_data,@function
output_to_data:                         # @output_to_data
.Lfunc_begin3:
	.loc	1 49 0 is_stmt 1        # local_support.c:49:0
	.cfi_startproc
# BB#0:                                 # %entry
	pushq	%rbp
.Ltmp43:
	.cfi_def_cfa_offset 16
.Ltmp44:
	.cfi_offset %rbp, -16
	movq	%rsp, %rbp
.Ltmp45:
	.cfi_def_cfa_register %rbp
	pushq	%r15
	pushq	%r14
	pushq	%r12
	pushq	%rbx
.Ltmp46:
	.cfi_offset %rbx, -48
.Ltmp47:
	.cfi_offset %r12, -40
.Ltmp48:
	.cfi_offset %r14, -32
.Ltmp49:
	.cfi_offset %r15, -24
	#DEBUG_VALUE: output_to_data:fd <- EDI
	#DEBUG_VALUE: output_to_data:vdata <- RSI
	movq	%rsi, %r12
.Ltmp50:
	#DEBUG_VALUE: output_to_data:vdata <- R12
	movl	%edi, %r15d
.Ltmp51:
	#DEBUG_VALUE: output_to_data:fd <- R15D
	movabsq	$-4765534862784228176, %r14 # imm = 0xBDDD6B4A8B0194B0
	xorl	%esi, %esi
	movq	%r14, %rdi
	callq	_KEnterRegion
	movl	$3, %edi
	xorl	%esi, %esi
	callq	_KPrepRTable
	movl	$1, %edi
	callq	_KDeqArg
	xorl	%esi, %esi
	movl	$32436, %edx            # imm = 0x7EB4
	.loc	1 53 3 prologue_end     # local_support.c:53:3
.Ltmp52:
	movq	%r12, %rdi
	callq	memset
	movabsq	$-385552952406818665, %rdi # imm = 0xFAA63DA1EDB04097
	xorl	%esi, %esi
	callq	_KPrepCall
	movl	$1, %edi
	movl	$1, %esi
	xorl	%edx, %edx
	callq	_KTimestamp1
	movl	$1, %edi
	callq	_KEnqArg
	.loc	1 55 7                  # local_support.c:55:7
	movl	%r15d, %edi
.Ltmp53:
	#DEBUG_VALUE: output_to_data:fd <- EDI
	callq	readfile
	movq	%rax, %rbx
.Ltmp54:
	#DEBUG_VALUE: output_to_data:p <- RBX
	movabsq	$6643313995768179371, %rdi # imm = 0x5C31CAE1A124AAAB
.Ltmp55:
	xorl	%esi, %esi
	callq	_KPrepCall
	callq	_KEnqArgConst
	movl	$1, %esi
	.loc	1 57 7                  # local_support.c:57:7
	movq	%rbx, %rdi
	callq	find_section_start
	movq	%rax, %r15
.Ltmp56:
	#DEBUG_VALUE: output_to_data:s <- R15
	.loc	1 58 26                 # local_support.c:58:26
	addq	$32432, %r12            # imm = 0x7EB0
.Ltmp57:
	movabsq	$-3240041808338003435, %rdi # imm = 0xD3090F244C995A15
	xorl	%esi, %esi
	callq	_KPrepCall
	callq	_KEnqArgConst
	movl	$2, %edi
	callq	_KLinkReturn
	movl	$1, %edx
	.loc	1 58 3 is_stmt 0        # local_support.c:58:3
	movq	%r15, %rdi
	movq	%r12, %rsi
	callq	parse_int32_t_array
	.loc	1 59 3 is_stmt 1        # local_support.c:59:3
	movq	%rbx, %rdi
	callq	free
	movq	%rbx, %rdi
	callq	_KFree
	xorl	%esi, %esi
	movq	%r14, %rdi
	popq	%rbx
.Ltmp58:
	popq	%r12
	popq	%r14
	popq	%r15
.Ltmp59:
	popq	%rbp
	jmp	_KExitRegion            # TAILCALL
.Ltmp60:
.Ltmp61:
	.size	output_to_data, .Ltmp61-output_to_data
.Lfunc_end3:
	.cfi_endproc

	.globl	data_to_output
	.align	16, 0x90
	.type	data_to_output,@function
data_to_output:                         # @data_to_output
.Lfunc_begin4:
	.loc	1 62 0                  # local_support.c:62:0
	.cfi_startproc
# BB#0:                                 # %entry
	pushq	%rbp
.Ltmp62:
	.cfi_def_cfa_offset 16
.Ltmp63:
	.cfi_offset %rbp, -16
	movq	%rsp, %rbp
.Ltmp64:
	.cfi_def_cfa_register %rbp
	pushq	%r15
	pushq	%r14
	pushq	%rbx
	pushq	%rax
.Ltmp65:
	.cfi_offset %rbx, -40
.Ltmp66:
	.cfi_offset %r14, -32
.Ltmp67:
	.cfi_offset %r15, -24
	#DEBUG_VALUE: data_to_output:fd <- EDI
	#DEBUG_VALUE: data_to_output:vdata <- RSI
	movq	%rsi, %rbx
.Ltmp68:
	#DEBUG_VALUE: data_to_output:vdata <- RBX
	movl	%edi, %r15d
.Ltmp69:
	#DEBUG_VALUE: data_to_output:fd <- R15D
	movabsq	$2262382145700601508, %r14 # imm = 0x1F6598932CAB9EA4
	xorl	%esi, %esi
	movq	%r14, %rdi
	callq	_KEnterRegion
	movl	$4, %edi
	xorl	%esi, %esi
	callq	_KPrepRTable
	movl	$1, %edi
	callq	_KDeqArg
	movabsq	$-3411391565196058204, %rdi # imm = 0xD0A84D721EB9A1A4
	xorl	%esi, %esi
	callq	_KPrepCall
	movl	$1, %edi
	movl	$1, %esi
	xorl	%edx, %edx
	callq	_KTimestamp1
	movl	$1, %edi
	callq	_KEnqArg
	movl	$2, %edi
	callq	_KLinkReturn
	.loc	1 65 3 prologue_end     # local_support.c:65:3
.Ltmp70:
	movl	%r15d, %edi
	callq	write_section_header
	.loc	1 66 27                 # local_support.c:66:27
	addq	$32432, %rbx            # imm = 0x7EB0
.Ltmp71:
	movabsq	$4983694839061206089, %rdi # imm = 0x4529A40D2730D449
	xorl	%esi, %esi
	callq	_KPrepCall
	callq	_KEnqArgConst
	movl	$1, %edi
	callq	_KEnqArg
	movl	$3, %edi
	callq	_KLinkReturn
	movl	$1, %edx
	.loc	1 66 3 is_stmt 0        # local_support.c:66:3
	movl	%r15d, %edi
	movq	%rbx, %rsi
	callq	write_int32_t_array
	xorl	%esi, %esi
	movq	%r14, %rdi
	addq	$8, %rsp
	popq	%rbx
	popq	%r14
	popq	%r15
.Ltmp72:
	popq	%rbp
	jmp	_KExitRegion            # TAILCALL
.Ltmp73:
.Ltmp74:
	.size	data_to_output, .Ltmp74-data_to_output
.Lfunc_end4:
	.cfi_endproc

	.globl	check_data
	.align	16, 0x90
	.type	check_data,@function
check_data:                             # @check_data
.Lfunc_begin5:
	.loc	1 69 0 is_stmt 1        # local_support.c:69:0
	.cfi_startproc
# BB#0:                                 # %entry
	pushq	%rbp
.Ltmp75:
	.cfi_def_cfa_offset 16
.Ltmp76:
	.cfi_offset %rbp, -16
	movq	%rsp, %rbp
.Ltmp77:
	.cfi_def_cfa_register %rbp
	pushq	%r15
	pushq	%r14
	pushq	%rbx
	pushq	%rax
.Ltmp78:
	.cfi_offset %rbx, -40
.Ltmp79:
	.cfi_offset %r14, -32
.Ltmp80:
	.cfi_offset %r15, -24
	#DEBUG_VALUE: check_data:vdata <- RDI
	#DEBUG_VALUE: check_data:vref <- RSI
	movq	%rsi, %r15
.Ltmp81:
	#DEBUG_VALUE: check_data:vref <- R15
	movq	%rdi, %rbx
.Ltmp82:
	#DEBUG_VALUE: check_data:vdata <- RBX
	movabsq	$-5781956682475224108, %r14 # imm = 0xAFC25D080A5E43D4
	xorl	%esi, %esi
	movq	%r14, %rdi
	callq	_KEnterRegion
	movl	$4, %edi
	xorl	%esi, %esi
	callq	_KPrepRTable
	movl	$12, %edi
	callq	_KWork
.Ltmp83:
	#DEBUG_VALUE: check_data:has_errors <- 0
	.loc	1 74 18 prologue_end    # local_support.c:74:18
	leaq	32432(%rbx), %rdi
	movl	$1, %esi
	movl	$4, %edx
	callq	_KLoad0
	movl	32432(%rbx), %ebx
.Ltmp84:
	.loc	1 74 40 is_stmt 0       # local_support.c:74:40
	leaq	32432(%r15), %rdi
	movl	$2, %esi
	movl	$4, %edx
	callq	_KLoad0
	.loc	1 77 10 is_stmt 1       # local_support.c:77:10
	cmpl	32432(%r15), %ebx
	sete	%al
	movzbl	%al, %ebx
	movl	$3, %edi
	movl	$1, %esi
	movl	$4, %edx
	movl	$2, %ecx
	movl	$4, %r8d
	callq	_KTimestamp2
	movl	$3, %edi
	callq	_KReturn
	xorl	%esi, %esi
	movq	%r14, %rdi
	callq	_KExitRegion
	.loc	1 77 3 is_stmt 0        # local_support.c:77:3
	movl	%ebx, %eax
	addq	$8, %rsp
	popq	%rbx
	popq	%r14
	popq	%r15
.Ltmp85:
	popq	%rbp
	retq
.Ltmp86:
.Ltmp87:
	.size	check_data, .Ltmp87-check_data
.Lfunc_end5:
	.cfi_endproc

	.type	INPUT_SIZE,@object      # @INPUT_SIZE
	.data
	.globl	INPUT_SIZE
	.align	4
INPUT_SIZE:
	.long	32436                   # 0x7eb4
	.size	INPUT_SIZE, 4

	.type	krem_prefix7660a2f80b8b8568_krem_callsiteId_krem_local_support.c_krem_run_benchmark_krem_8_krem_8_krem_,@object # @krem_prefix7660a2f80b8b8568_krem_callsiteId_krem_local_support.c_krem_run_benchmark_krem_8_krem_8_krem_
	.bss
	.globl	krem_prefix7660a2f80b8b8568_krem_callsiteId_krem_local_support.c_krem_run_benchmark_krem_8_krem_8_krem_
krem_prefix7660a2f80b8b8568_krem_callsiteId_krem_local_support.c_krem_run_benchmark_krem_8_krem_8_krem_:
	.byte	0                       # 0x0
	.size	krem_prefix7660a2f80b8b8568_krem_callsiteId_krem_local_support.c_krem_run_benchmark_krem_8_krem_8_krem_, 1

	.type	krem_prefixe456c481ba0a69c1_krem_callsiteId_krem_local_support.c_krem_input_to_data_krem_24_krem_24_krem_,@object # @krem_prefixe456c481ba0a69c1_krem_callsiteId_krem_local_support.c_krem_input_to_data_krem_24_krem_24_krem_
	.globl	krem_prefixe456c481ba0a69c1_krem_callsiteId_krem_local_support.c_krem_input_to_data_krem_24_krem_24_krem_
krem_prefixe456c481ba0a69c1_krem_callsiteId_krem_local_support.c_krem_input_to_data_krem_24_krem_24_krem_:
	.byte	0                       # 0x0
	.size	krem_prefixe456c481ba0a69c1_krem_callsiteId_krem_local_support.c_krem_input_to_data_krem_24_krem_24_krem_, 1

	.type	krem_prefix941dc0e58e7a9c08_krem_callsiteId_krem_local_support.c_krem_input_to_data_krem_26_krem_26_krem_,@object # @krem_prefix941dc0e58e7a9c08_krem_callsiteId_krem_local_support.c_krem_input_to_data_krem_26_krem_26_krem_
	.globl	krem_prefix941dc0e58e7a9c08_krem_callsiteId_krem_local_support.c_krem_input_to_data_krem_26_krem_26_krem_
krem_prefix941dc0e58e7a9c08_krem_callsiteId_krem_local_support.c_krem_input_to_data_krem_26_krem_26_krem_:
	.byte	0                       # 0x0
	.size	krem_prefix941dc0e58e7a9c08_krem_callsiteId_krem_local_support.c_krem_input_to_data_krem_26_krem_26_krem_, 1

	.type	krem_prefix0add074c1252bc52_krem_callsiteId_krem_local_support.c_krem_input_to_data_krem_27_krem_27_krem_,@object # @krem_prefix0add074c1252bc52_krem_callsiteId_krem_local_support.c_krem_input_to_data_krem_27_krem_27_krem_
	.globl	krem_prefix0add074c1252bc52_krem_callsiteId_krem_local_support.c_krem_input_to_data_krem_27_krem_27_krem_
krem_prefix0add074c1252bc52_krem_callsiteId_krem_local_support.c_krem_input_to_data_krem_27_krem_27_krem_:
	.byte	0                       # 0x0
	.size	krem_prefix0add074c1252bc52_krem_callsiteId_krem_local_support.c_krem_input_to_data_krem_27_krem_27_krem_, 1

	.type	krem_prefixfc84d3d0c427a2ee_krem_callsiteId_krem_local_support.c_krem_input_to_data_krem_29_krem_29_krem_,@object # @krem_prefixfc84d3d0c427a2ee_krem_callsiteId_krem_local_support.c_krem_input_to_data_krem_29_krem_29_krem_
	.globl	krem_prefixfc84d3d0c427a2ee_krem_callsiteId_krem_local_support.c_krem_input_to_data_krem_29_krem_29_krem_
krem_prefixfc84d3d0c427a2ee_krem_callsiteId_krem_local_support.c_krem_input_to_data_krem_29_krem_29_krem_:
	.byte	0                       # 0x0
	.size	krem_prefixfc84d3d0c427a2ee_krem_callsiteId_krem_local_support.c_krem_input_to_data_krem_29_krem_29_krem_, 1

	.type	krem_prefixfb7de7fb33b84b74_krem_callsiteId_krem_local_support.c_krem_input_to_data_krem_30_krem_30_krem_,@object # @krem_prefixfb7de7fb33b84b74_krem_callsiteId_krem_local_support.c_krem_input_to_data_krem_30_krem_30_krem_
	.globl	krem_prefixfb7de7fb33b84b74_krem_callsiteId_krem_local_support.c_krem_input_to_data_krem_30_krem_30_krem_
krem_prefixfb7de7fb33b84b74_krem_callsiteId_krem_local_support.c_krem_input_to_data_krem_30_krem_30_krem_:
	.byte	0                       # 0x0
	.size	krem_prefixfb7de7fb33b84b74_krem_callsiteId_krem_local_support.c_krem_input_to_data_krem_30_krem_30_krem_, 1

	.type	krem_prefixcce8f866c2f101fe_krem_callsiteId_krem_local_support.c_krem_data_to_input_krem_37_krem_37_krem_,@object # @krem_prefixcce8f866c2f101fe_krem_callsiteId_krem_local_support.c_krem_data_to_input_krem_37_krem_37_krem_
	.globl	krem_prefixcce8f866c2f101fe_krem_callsiteId_krem_local_support.c_krem_data_to_input_krem_37_krem_37_krem_
krem_prefixcce8f866c2f101fe_krem_callsiteId_krem_local_support.c_krem_data_to_input_krem_37_krem_37_krem_:
	.byte	0                       # 0x0
	.size	krem_prefixcce8f866c2f101fe_krem_callsiteId_krem_local_support.c_krem_data_to_input_krem_37_krem_37_krem_, 1

	.type	krem_prefixa0a5307a5f9e5199_krem_callsiteId_krem_local_support.c_krem_data_to_input_krem_38_krem_38_krem_,@object # @krem_prefixa0a5307a5f9e5199_krem_callsiteId_krem_local_support.c_krem_data_to_input_krem_38_krem_38_krem_
	.globl	krem_prefixa0a5307a5f9e5199_krem_callsiteId_krem_local_support.c_krem_data_to_input_krem_38_krem_38_krem_
krem_prefixa0a5307a5f9e5199_krem_callsiteId_krem_local_support.c_krem_data_to_input_krem_38_krem_38_krem_:
	.byte	0                       # 0x0
	.size	krem_prefixa0a5307a5f9e5199_krem_callsiteId_krem_local_support.c_krem_data_to_input_krem_38_krem_38_krem_, 1

	.type	krem_prefixfc1876309d2ecf52_krem_callsiteId_krem_local_support.c_krem_data_to_input_krem_40_krem_40_krem_,@object # @krem_prefixfc1876309d2ecf52_krem_callsiteId_krem_local_support.c_krem_data_to_input_krem_40_krem_40_krem_
	.globl	krem_prefixfc1876309d2ecf52_krem_callsiteId_krem_local_support.c_krem_data_to_input_krem_40_krem_40_krem_
krem_prefixfc1876309d2ecf52_krem_callsiteId_krem_local_support.c_krem_data_to_input_krem_40_krem_40_krem_:
	.byte	0                       # 0x0
	.size	krem_prefixfc1876309d2ecf52_krem_callsiteId_krem_local_support.c_krem_data_to_input_krem_40_krem_40_krem_, 1

	.type	krem_prefix7de4fc0395ef0bd8_krem_callsiteId_krem_local_support.c_krem_data_to_input_krem_41_krem_41_krem_,@object # @krem_prefix7de4fc0395ef0bd8_krem_callsiteId_krem_local_support.c_krem_data_to_input_krem_41_krem_41_krem_
	.globl	krem_prefix7de4fc0395ef0bd8_krem_callsiteId_krem_local_support.c_krem_data_to_input_krem_41_krem_41_krem_
krem_prefix7de4fc0395ef0bd8_krem_callsiteId_krem_local_support.c_krem_data_to_input_krem_41_krem_41_krem_:
	.byte	0                       # 0x0
	.size	krem_prefix7de4fc0395ef0bd8_krem_callsiteId_krem_local_support.c_krem_data_to_input_krem_41_krem_41_krem_, 1

	.type	krem_prefixfaa63da1edb04097_krem_callsiteId_krem_local_support.c_krem_output_to_data_krem_55_krem_55_krem_,@object # @krem_prefixfaa63da1edb04097_krem_callsiteId_krem_local_support.c_krem_output_to_data_krem_55_krem_55_krem_
	.globl	krem_prefixfaa63da1edb04097_krem_callsiteId_krem_local_support.c_krem_output_to_data_krem_55_krem_55_krem_
krem_prefixfaa63da1edb04097_krem_callsiteId_krem_local_support.c_krem_output_to_data_krem_55_krem_55_krem_:
	.byte	0                       # 0x0
	.size	krem_prefixfaa63da1edb04097_krem_callsiteId_krem_local_support.c_krem_output_to_data_krem_55_krem_55_krem_, 1

	.type	krem_prefix5c31cae1a124aaab_krem_callsiteId_krem_local_support.c_krem_output_to_data_krem_57_krem_57_krem_,@object # @krem_prefix5c31cae1a124aaab_krem_callsiteId_krem_local_support.c_krem_output_to_data_krem_57_krem_57_krem_
	.globl	krem_prefix5c31cae1a124aaab_krem_callsiteId_krem_local_support.c_krem_output_to_data_krem_57_krem_57_krem_
krem_prefix5c31cae1a124aaab_krem_callsiteId_krem_local_support.c_krem_output_to_data_krem_57_krem_57_krem_:
	.byte	0                       # 0x0
	.size	krem_prefix5c31cae1a124aaab_krem_callsiteId_krem_local_support.c_krem_output_to_data_krem_57_krem_57_krem_, 1

	.type	krem_prefixd3090f244c995a15_krem_callsiteId_krem_local_support.c_krem_output_to_data_krem_58_krem_58_krem_,@object # @krem_prefixd3090f244c995a15_krem_callsiteId_krem_local_support.c_krem_output_to_data_krem_58_krem_58_krem_
	.globl	krem_prefixd3090f244c995a15_krem_callsiteId_krem_local_support.c_krem_output_to_data_krem_58_krem_58_krem_
krem_prefixd3090f244c995a15_krem_callsiteId_krem_local_support.c_krem_output_to_data_krem_58_krem_58_krem_:
	.byte	0                       # 0x0
	.size	krem_prefixd3090f244c995a15_krem_callsiteId_krem_local_support.c_krem_output_to_data_krem_58_krem_58_krem_, 1

	.type	krem_prefixd0a84d721eb9a1a4_krem_callsiteId_krem_local_support.c_krem_data_to_output_krem_65_krem_65_krem_,@object # @krem_prefixd0a84d721eb9a1a4_krem_callsiteId_krem_local_support.c_krem_data_to_output_krem_65_krem_65_krem_
	.globl	krem_prefixd0a84d721eb9a1a4_krem_callsiteId_krem_local_support.c_krem_data_to_output_krem_65_krem_65_krem_
krem_prefixd0a84d721eb9a1a4_krem_callsiteId_krem_local_support.c_krem_data_to_output_krem_65_krem_65_krem_:
	.byte	0                       # 0x0
	.size	krem_prefixd0a84d721eb9a1a4_krem_callsiteId_krem_local_support.c_krem_data_to_output_krem_65_krem_65_krem_, 1

	.type	krem_prefix4529a40d2730d449_krem_callsiteId_krem_local_support.c_krem_data_to_output_krem_66_krem_66_krem_,@object # @krem_prefix4529a40d2730d449_krem_callsiteId_krem_local_support.c_krem_data_to_output_krem_66_krem_66_krem_
	.globl	krem_prefix4529a40d2730d449_krem_callsiteId_krem_local_support.c_krem_data_to_output_krem_66_krem_66_krem_
krem_prefix4529a40d2730d449_krem_callsiteId_krem_local_support.c_krem_data_to_output_krem_66_krem_66_krem_:
	.byte	0                       # 0x0
	.size	krem_prefix4529a40d2730d449_krem_callsiteId_krem_local_support.c_krem_data_to_output_krem_66_krem_66_krem_, 1

	.type	krem_prefix1f6598932cab9ea4_krem_func_krem_local_support.c_krem_data_to_output_krem_62_krem_62_krem_,@object # @krem_prefix1f6598932cab9ea4_krem_func_krem_local_support.c_krem_data_to_output_krem_62_krem_62_krem_
	.globl	krem_prefix1f6598932cab9ea4_krem_func_krem_local_support.c_krem_data_to_output_krem_62_krem_62_krem_
krem_prefix1f6598932cab9ea4_krem_func_krem_local_support.c_krem_data_to_output_krem_62_krem_62_krem_:
	.byte	0                       # 0x0
	.size	krem_prefix1f6598932cab9ea4_krem_func_krem_local_support.c_krem_data_to_output_krem_62_krem_62_krem_, 1

	.type	krem_prefix359af4d3671ac144_krem_func_krem_local_support.c_krem_run_benchmark_krem_6_krem_6_krem_,@object # @krem_prefix359af4d3671ac144_krem_func_krem_local_support.c_krem_run_benchmark_krem_6_krem_6_krem_
	.globl	krem_prefix359af4d3671ac144_krem_func_krem_local_support.c_krem_run_benchmark_krem_6_krem_6_krem_
krem_prefix359af4d3671ac144_krem_func_krem_local_support.c_krem_run_benchmark_krem_6_krem_6_krem_:
	.byte	0                       # 0x0
	.size	krem_prefix359af4d3671ac144_krem_func_krem_local_support.c_krem_run_benchmark_krem_6_krem_6_krem_, 1

	.type	krem_prefix72b5b4fa529be4ae_krem_func_krem_local_support.c_krem_data_to_input_krem_34_krem_34_krem_,@object # @krem_prefix72b5b4fa529be4ae_krem_func_krem_local_support.c_krem_data_to_input_krem_34_krem_34_krem_
	.globl	krem_prefix72b5b4fa529be4ae_krem_func_krem_local_support.c_krem_data_to_input_krem_34_krem_34_krem_
krem_prefix72b5b4fa529be4ae_krem_func_krem_local_support.c_krem_data_to_input_krem_34_krem_34_krem_:
	.byte	0                       # 0x0
	.size	krem_prefix72b5b4fa529be4ae_krem_func_krem_local_support.c_krem_data_to_input_krem_34_krem_34_krem_, 1

	.type	krem_prefixa41bc5f6dcbcc287_krem_func_krem_local_support.c_krem_input_to_data_krem_18_krem_18_krem_,@object # @krem_prefixa41bc5f6dcbcc287_krem_func_krem_local_support.c_krem_input_to_data_krem_18_krem_18_krem_
	.globl	krem_prefixa41bc5f6dcbcc287_krem_func_krem_local_support.c_krem_input_to_data_krem_18_krem_18_krem_
krem_prefixa41bc5f6dcbcc287_krem_func_krem_local_support.c_krem_input_to_data_krem_18_krem_18_krem_:
	.byte	0                       # 0x0
	.size	krem_prefixa41bc5f6dcbcc287_krem_func_krem_local_support.c_krem_input_to_data_krem_18_krem_18_krem_, 1

	.type	krem_prefixafc25d080a5e43d4_krem_func_krem_local_support.c_krem_check_data_krem_69_krem_69_krem_,@object # @krem_prefixafc25d080a5e43d4_krem_func_krem_local_support.c_krem_check_data_krem_69_krem_69_krem_
	.globl	krem_prefixafc25d080a5e43d4_krem_func_krem_local_support.c_krem_check_data_krem_69_krem_69_krem_
krem_prefixafc25d080a5e43d4_krem_func_krem_local_support.c_krem_check_data_krem_69_krem_69_krem_:
	.byte	0                       # 0x0
	.size	krem_prefixafc25d080a5e43d4_krem_func_krem_local_support.c_krem_check_data_krem_69_krem_69_krem_, 1

	.type	krem_prefixbddd6b4a8b0194b0_krem_func_krem_local_support.c_krem_output_to_data_krem_49_krem_49_krem_,@object # @krem_prefixbddd6b4a8b0194b0_krem_func_krem_local_support.c_krem_output_to_data_krem_49_krem_49_krem_
	.globl	krem_prefixbddd6b4a8b0194b0_krem_func_krem_local_support.c_krem_output_to_data_krem_49_krem_49_krem_
krem_prefixbddd6b4a8b0194b0_krem_func_krem_local_support.c_krem_output_to_data_krem_49_krem_49_krem_:
	.byte	0                       # 0x0
	.size	krem_prefixbddd6b4a8b0194b0_krem_func_krem_local_support.c_krem_output_to_data_krem_49_krem_49_krem_, 1

	.data
.Ldebug_end0:
	.text
.Ldebug_end1:
	.section	".note.GNU-stack","",@progbits