	.text
	.file	"susan.simplifycfg.mem2reg.indvars.elimsinglephis.criticalpath.regioninstrument.renamemain.O3.bc"
	.text
	.globl	exit_error
	.align	16, 0x90
	.type	exit_error,@function
exit_error:                             # @exit_error
	.cfi_startproc
# BB#0:                                 # %entry
	pushq	%rbp
.Ltmp0:
	.cfi_def_cfa_offset 16
.Ltmp1:
	.cfi_offset %rbp, -16
	movq	%rsp, %rbp
.Ltmp2:
	.cfi_def_cfa_register %rbp
	pushq	%rbx
	pushq	%rax
.Ltmp3:
	.cfi_offset %rbx, -24
	#DEBUG_VALUE: exit_error:message <- RDI
	movabsq	$-7131228994629441968, %rbx # imm = 0x9D08C90323256650
	xorl	%esi, %esi
	movq	%rbx, %rdi
	callq	_KEnterRegion
	movl	$1, %edi
	xorl	%esi, %esi
	callq	_KPrepRTable
	#DEBUG_VALUE: exit_error:j <- 1
	#DEBUG_VALUE: exit_error:i <- 0
	xorl	%esi, %esi
	movq	%rbx, %rdi
	addq	$8, %rsp
	popq	%rbx
	popq	%rbp
	jmp	_KExitRegion            # TAILCALL
.Ltmp4:
	.size	exit_error, .Ltmp4-exit_error
	.cfi_endproc

	.globl	getint
	.align	16, 0x90
	.type	getint,@function
getint:                                 # @getint
.Lfunc_begin1:
	.loc	2 303 0                 # susan.c:303:0
	.cfi_startproc
# BB#0:                                 # %entry
	pushq	%rbp
.Ltmp5:
	.cfi_def_cfa_offset 16
.Ltmp6:
	.cfi_offset %rbp, -16
	movq	%rsp, %rbp
.Ltmp7:
	.cfi_def_cfa_register %rbp
	pushq	%r15
	pushq	%r14
	pushq	%r13
	pushq	%r12
	pushq	%rbx
	subq	$10024, %rsp            # imm = 0x2728
.Ltmp8:
	.cfi_offset %rbx, -56
.Ltmp9:
	.cfi_offset %r12, -48
.Ltmp10:
	.cfi_offset %r13, -40
.Ltmp11:
	.cfi_offset %r14, -32
.Ltmp12:
	.cfi_offset %r15, -24
	#DEBUG_VALUE: getint:fd <- RDI
	movq	%rdi, %rbx
.Ltmp13:
	#DEBUG_VALUE: getint:fd <- RBX
	movq	%rbx, -10056(%rbp)      # 8-byte Spill
	movabsq	$-1357713451555161958, %rdi # imm = 0xED286ECF2D48F89A
	movabsq	$-3318319763266470995, %r14 # imm = 0xD1F2F5C1AB57FBAD
	xorl	%r15d, %r15d
	xorl	%esi, %esi
	callq	_KEnterRegion
	movl	$14, %edi
	movl	$2, %esi
	callq	_KPrepRTable
	movabsq	$7598259771463498621, %rdi # imm = 0x697271013D38FB7D
	xorl	%esi, %esi
	callq	_KPrepCall
	movl	$1, %r13d
	movl	$1, %edi
	callq	_KLinkReturn
	.loc	2 307 7 prologue_end    # susan.c:307:7
.Ltmp14:
	movq	%rbx, %rdi
.Ltmp15:
	#DEBUG_VALUE: getint:fd <- [RBP+-10056]
	callq	wccfgetc
	movl	%eax, %r12d
.Ltmp16:
	#DEBUG_VALUE: getint:c <- R12D
	movl	$1, %edi
	movl	$1, %esi
	xorl	%edx, %edx
	callq	_KTimestamp1
	movl	$1, %esi
	movq	%r14, %rdi
	callq	_KEnterRegion
	movabsq	$-3664318099131056514, %r14 # imm = 0xCD25BA1A6D423E7E
	jmp	.LBB1_1
.Ltmp17:
	.align	16, 0x90
.LBB1_6:                                # %if.end8
                                        #   in Loop: Header=BB1_1 Depth=1
	#DEBUG_VALUE: getint:fd <- [RBP+-10056]
	movl	$6, %r15d
	movl	$6, %edi
	callq	_KPushCDep
	xorl	%esi, %esi
	movabsq	$-6176752052590582419, %rdi # imm = 0xAA47C4BBE7AC656D
	callq	_KPrepCall
	movl	$2, %r13d
	movl	$2, %edi
	callq	_KLinkReturn
	.loc	2 316 9                 # susan.c:316:9
.Ltmp18:
	movq	-10056(%rbp), %rdi      # 8-byte Reload
	callq	wccfgetc
	movl	%eax, %r12d
.Ltmp19:
	#DEBUG_VALUE: getint:c <- R12D
	movl	$2, %edi
	movl	$2, %esi
	xorl	%edx, %edx
	callq	_KTimestamp1
	callq	_KPopCDep
	movl	$2, %esi
	movq	%r14, %rdi
	callq	_KExitRegion
.Ltmp20:
.LBB1_1:                                # %while.body
                                        # =>This Inner Loop Header: Depth=1
	#DEBUG_VALUE: getint:fd <- [RBP+-10056]
	movl	$2, %esi
	movq	%r14, %rdi
	callq	_KEnterRegion
	movl	$5, %edi
	movl	%r13d, %esi
	movl	%r15d, %edx
	callq	_KPhi1To1
	movl	$1, %edi
	callq	_KWork
	movl	$5, %edi
	movl	$5, %esi
	xorl	%edx, %edx
	callq	_KTimestamp1
	movl	$7, %edi
	movl	$5, %esi
	movl	$1, %edx
	callq	_KTimestamp1
	.loc	2 310 9                 # susan.c:310:9
	cmpl	$35, %r12d
	jne	.LBB1_3
# BB#2:                                 # %if.then
                                        #   in Loop: Header=BB1_1 Depth=1
	#DEBUG_VALUE: getint:fd <- [RBP+-10056]
	movl	$7, %edi
	callq	_KPushCDep
	xorl	%esi, %esi
	movabsq	$3613442513818254684, %rdi # imm = 0x322586D24C6E7D5C
	callq	_KPrepCall
	callq	_KEnqArgConst
	movl	$9000, %esi             # imm = 0x2328
	leaq	-10048(%rbp), %rdi
	.loc	2 311 7                 # susan.c:311:7
.Ltmp21:
	movq	-10056(%rbp), %rdx      # 8-byte Reload
	callq	wccfgets
	callq	_KPopCDep
.Ltmp22:
.LBB1_3:                                # %if.end
                                        #   in Loop: Header=BB1_1 Depth=1
	#DEBUG_VALUE: getint:fd <- [RBP+-10056]
	movl	$1, %edi
	callq	_KWork
	movl	$12, %edi
	movl	$5, %esi
	movl	$1, %edx
	callq	_KTimestamp1
	.loc	2 312 9                 # susan.c:312:9
	cmpl	$-1, %r12d
	jne	.LBB1_5
# BB#4:                                 # %if.then3
                                        #   in Loop: Header=BB1_1 Depth=1
	#DEBUG_VALUE: getint:fd <- [RBP+-10056]
	movl	$12, %edi
	callq	_KPushCDep
	xorl	%esi, %esi
	movabsq	$-7151825391457635818, %rdi # imm = 0x9CBF9CB2CE8C7216
	callq	_KPrepCall
	xorl	%esi, %esi
	movabsq	$-7131228994629441968, %rbx # imm = 0x9D08C90323256650
	.loc	2 313 7                 # susan.c:313:7
.Ltmp23:
	movq	%rbx, %rdi
	callq	_KEnterRegion
	movl	$1, %edi
	xorl	%esi, %esi
	callq	_KPrepRTable
.Ltmp24:
	#DEBUG_VALUE: exit_error:j <- 1
	#DEBUG_VALUE: exit_error:i <- 0
	xorl	%esi, %esi
	movq	%rbx, %rdi
	callq	_KExitRegion
	callq	_KPopCDep
.Ltmp25:
.LBB1_5:                                # %if.end4
                                        #   in Loop: Header=BB1_1 Depth=1
	#DEBUG_VALUE: getint:fd <- [RBP+-10056]
	movl	$3, %edi
	callq	_KWork
	.loc	2 314 9                 # susan.c:314:9
	leal	-48(%r12), %ebx
	movl	$6, %edi
	movl	$5, %esi
	movl	$2, %edx
	callq	_KTimestamp1
	cmpl	$10, %ebx
	jae	.LBB1_6
.Ltmp26:
# BB#7:                                 # %if.end4.pre_exit.while.end
	#DEBUG_VALUE: getint:fd <- [RBP+-10056]
	movl	$2, %esi
	movq	%r14, %rdi
	callq	_KExitRegion
	movl	$1, %esi
	movabsq	$-3318319763266470995, %rdi # imm = 0xD1F2F5C1AB57FBAD
	callq	_KExitRegion
.Ltmp27:
	#DEBUG_VALUE: getint:i <- 0
	movl	$1, %esi
	movabsq	$1154375300863807730, %rdi # imm = 0x10052A385178D0F2
	callq	_KEnterRegion
	movl	$5, %r13d
	xorl	%r15d, %r15d
	movabsq	$-4936599135664076682, %r14 # imm = 0xBB7DAD3DC83E0876
	xorl	%esi, %esi
	xorl	%ebx, %ebx
	.align	16, 0x90
.LBB1_8:                                # %while.body10
                                        # =>This Inner Loop Header: Depth=1
	#DEBUG_VALUE: getint:fd <- [RBP+-10056]
	#DEBUG_VALUE: getint:i <- 0
	movl	$10, %edi
                                        # kill: ESI<def> ESI<kill> RSI<kill>
	movl	%r15d, %edx
	callq	_KPhi1To1
	movl	$8, %edi
	movl	%r13d, %esi
	movl	%r15d, %edx
	callq	_KPhi1To1
	movl	$5, %edi
	callq	_KWork
	.loc	2 323 10                # susan.c:323:10
.Ltmp28:
	imull	$10, %ebx, %eax
	.loc	2 323 9 is_stmt 0       # susan.c:323:9
	leal	-48(%r12,%rax), %ebx
.Ltmp29:
	#DEBUG_VALUE: getint:i <- EBX
	xorl	%esi, %esi
	movabsq	$-1058257384718967309, %rdi # imm = 0xF1505083F6E45DF3
	callq	_KPrepCall
	movl	$3, %edi
	callq	_KLinkReturn
	.loc	2 324 9 is_stmt 1       # susan.c:324:9
	movq	-10056(%rbp), %rdi      # 8-byte Reload
	callq	wccfgetc
	movl	%eax, %r12d
.Ltmp30:
	#DEBUG_VALUE: getint:c <- R12D
	movl	$9, %edi
	movl	$3, %esi
	movl	$1, %edx
	callq	_KTimestamp1
	movl	$10, %edi
	movl	$9, %esi
	callq	_KPhiAddCond
	movl	$11, %edi
	movl	$8, %esi
	movl	$2, %edx
	movl	$10, %ecx
	movl	$3, %r8d
	callq	_KTimestamp2
	movl	$8, %edi
	movl	$9, %esi
	callq	_KPhiAddCond
	movl	$3, %edi
	movl	$3, %esi
	xorl	%edx, %edx
	callq	_KTimestamp1
	.loc	2 325 9                 # susan.c:325:9
	cmpl	$-1, %r12d
	je	.LBB1_9
.Ltmp31:
# BB#10:                                # %if.end14
                                        #   in Loop: Header=BB1_8 Depth=1
	#DEBUG_VALUE: getint:fd <- [RBP+-10056]
	#DEBUG_VALUE: getint:c <- R12D
	#DEBUG_VALUE: getint:i <- EBX
	movl	$2, %esi
	movq	%r14, %rdi
	callq	_KEnterRegion
	movl	$9, %r15d
	movl	$9, %edi
	callq	_KPushCDep
	movl	$3, %r13d
	movl	$3, %edi
	callq	_KWork
	movq	%rbx, -10064(%rbp)      # 8-byte Spill
.Ltmp32:
	#DEBUG_VALUE: getint:i <- [RBP+-10064]
	.loc	2 326 9                 # susan.c:326:9
	movl	%r12d, %ebx
	addl	$-48, %ebx
	movl	$13, %edi
	movl	$3, %esi
	movl	$2, %edx
	movl	$9, %ecx
	movl	$2, %r8d
	callq	_KTimestamp2
	callq	_KPopCDep
	movl	$2, %esi
	movq	%r14, %rdi
	callq	_KExitRegion
	movl	$11, %esi
	cmpl	$10, %ebx
	movq	-10064(%rbp), %rbx      # 8-byte Reload
.Ltmp33:
	#DEBUG_VALUE: getint:i <- EBX
	jb	.LBB1_8
.Ltmp34:
# BB#11:                                # %if.end14.pre_exit.while.end19
	#DEBUG_VALUE: getint:i <- EBX
	movl	$1, %esi
	movabsq	$1154375300863807730, %rdi # imm = 0x10052A385178D0F2
	callq	_KExitRegion
	movl	$13, %edi
	jmp	.LBB1_12
.Ltmp35:
.LBB1_9:                                # %while.body10.pre_exit.if.then13
	#DEBUG_VALUE: getint:i <- EBX
	movl	$1, %esi
	movabsq	$1154375300863807730, %rdi # imm = 0x10052A385178D0F2
	callq	_KExitRegion
	movl	$9, %edi
.Ltmp36:
.LBB1_12:                               # %return
	callq	_KPushCDep
	callq	_KPopCDep
.Ltmp37:
	#DEBUG_VALUE: getint:i <- EBX
	movl	$4, %edi
	movl	$11, %esi
	xorl	%edx, %edx
	xorl	%eax, %eax
	callq	_KPhi
	movl	$4, %edi
	movl	$4, %esi
	xorl	%edx, %edx
	callq	_KTimestamp1
	movl	$4, %edi
	callq	_KReturn
	xorl	%esi, %esi
	movabsq	$-1357713451555161958, %rdi # imm = 0xED286ECF2D48F89A
	callq	_KExitRegion
	.loc	2 330 1                 # susan.c:330:1
	movl	%ebx, %eax
	addq	$10024, %rsp            # imm = 0x2728
	popq	%rbx
.Ltmp38:
	popq	%r12
	popq	%r13
	popq	%r14
	popq	%r15
	popq	%rbp
	retq
.Ltmp39:
.Ltmp40:
	.size	getint, .Ltmp40-getint
.Lfunc_end1:
	.cfi_endproc

	.globl	get_image
	.align	16, 0x90
	.type	get_image,@function
get_image:                              # @get_image
.Lfunc_begin2:
	.loc	2 335 0                 # susan.c:335:0
	.cfi_startproc
# BB#0:                                 # %entry
	pushq	%rbp
.Ltmp41:
	.cfi_def_cfa_offset 16
.Ltmp42:
	.cfi_offset %rbp, -16
	movq	%rsp, %rbp
.Ltmp43:
	.cfi_def_cfa_register %rbp
	pushq	%r15
	pushq	%r14
	pushq	%r13
	pushq	%r12
	pushq	%rbx
	subq	$136, %rsp
.Ltmp44:
	.cfi_offset %rbx, -56
.Ltmp45:
	.cfi_offset %r12, -48
.Ltmp46:
	.cfi_offset %r13, -40
.Ltmp47:
	.cfi_offset %r14, -32
.Ltmp48:
	.cfi_offset %r15, -24
	#DEBUG_VALUE: get_image:fd <- RDI
	#DEBUG_VALUE: get_image:in <- RSI
	#DEBUG_VALUE: get_image:x_size <- RDX
	#DEBUG_VALUE: get_image:y_size <- RCX
	movq	%rcx, -160(%rbp)        # 8-byte Spill
.Ltmp49:
	#DEBUG_VALUE: get_image:y_size <- [RBP+-160]
	movq	%rdx, %r13
.Ltmp50:
	#DEBUG_VALUE: get_image:x_size <- R13
	movq	%rsi, -152(%rbp)        # 8-byte Spill
.Ltmp51:
	#DEBUG_VALUE: get_image:in <- [RBP+-152]
	movq	%rdi, %r15
.Ltmp52:
	#DEBUG_VALUE: get_image:fd <- R15
	movabsq	$1371072232125695809, %rdi # imm = 0x130706EE4D410741
	xorl	%esi, %esi
	callq	_KEnterRegion
	movl	$23, %edi
	xorl	%esi, %esi
	callq	_KPrepRTable
	movl	$7, %edi
	callq	_KWork
	movabsq	$-1824419593904605951, %rdi # imm = 0xE6AE5C0BA80DB501
	xorl	%esi, %esi
	callq	_KPrepCall
	callq	_KEnqArgConst
	callq	_KEnqArgConst
	movl	$1, %edi
	callq	_KLinkReturn
	xorl	%esi, %esi
	xorl	%edx, %edx
	.loc	2 339 3 prologue_end    # susan.c:339:3
.Ltmp53:
	movq	%r15, %rdi
	callq	wccfseek
	movabsq	$834405922606150355, %rdi # imm = 0xB9467C4076BF2D3
	xorl	%esi, %esi
	callq	_KPrepCall
	movl	$2, %edi
	callq	_KLinkReturn
	.loc	2 343 13                # susan.c:343:13
	movq	%r15, %rdi
	callq	wccfgetc
	movl	%eax, %ebx
	movl	$3, %edi
	movl	$2, %esi
	xorl	%edx, %edx
	callq	_KTimestamp1
	leaq	-144(%rbp), %r14
	movl	$3, %edi
	movl	$1, %edx
	movq	%r14, %rsi
	callq	_KStore
	.loc	2 343 3 is_stmt 0       # susan.c:343:3
	movb	%bl, -144(%rbp)
	movabsq	$-7477917213638943215, %rdi # imm = 0x983919E9F5459E11
	xorl	%esi, %esi
	callq	_KPrepCall
	movl	$4, %edi
	callq	_KLinkReturn
	.loc	2 344 13 is_stmt 1      # susan.c:344:13
	movq	%r15, %rdi
	callq	wccfgetc
	movl	%eax, %ebx
	.loc	2 344 3 is_stmt 0       # susan.c:344:3
	leaq	-143(%rbp), %r12
	movl	$5, %edi
	movl	$4, %esi
	xorl	%edx, %edx
	callq	_KTimestamp1
	movl	$5, %edi
	movl	$1, %edx
	movq	%r12, %rsi
	callq	_KStore
	movb	%bl, -143(%rbp)
	movl	$6, %esi
	movl	$1, %edx
	movq	%r14, %rdi
	callq	_KLoad0
	.loc	2 345 6 is_stmt 1       # susan.c:345:6
	movzbl	-144(%rbp), %ebx
	movl	$20, %edi
	movl	$6, %esi
	movl	$1, %edx
	callq	_KTimestamp1
	cmpl	$80, %ebx
	jne	.LBB2_2
.Ltmp54:
# BB#1:                                 # %land.lhs.true
	#DEBUG_VALUE: get_image:fd <- R15
	#DEBUG_VALUE: get_image:in <- [RBP+-152]
	#DEBUG_VALUE: get_image:x_size <- R13
	#DEBUG_VALUE: get_image:y_size <- [RBP+-160]
	movl	$20, %edi
	callq	_KPushCDep
	movl	$5, %edi
	callq	_KWork
	movl	$7, %esi
	movl	$1, %edx
	movq	%r12, %rdi
	callq	_KLoad0
	.loc	2 345 26 is_stmt 0 discriminator 1 # susan.c:345:26
.Ltmp55:
	movzbl	-143(%rbp), %ebx
	movl	$21, %edi
	movl	$7, %esi
	movl	$1, %edx
	movl	$6, %ecx
	movl	$2, %r8d
	callq	_KTimestamp2
	callq	_KPopCDep
	cmpl	$53, %ebx
	je	.LBB2_3
.Ltmp56:
.LBB2_2:                                # %if.then
	#DEBUG_VALUE: get_image:fd <- R15
	#DEBUG_VALUE: get_image:in <- [RBP+-152]
	#DEBUG_VALUE: get_image:x_size <- R13
	#DEBUG_VALUE: get_image:y_size <- [RBP+-160]
	movl	$20, %edi
	callq	_KPushCDep
	movabsq	$-5478825451288088564, %rdi # imm = 0xB3F74D47B59AB00C
	xorl	%esi, %esi
	callq	_KPrepCall
	xorl	%esi, %esi
	movabsq	$-7131228994629441968, %rbx # imm = 0x9D08C90323256650
	.loc	2 346 5 is_stmt 1       # susan.c:346:5
	movq	%rbx, %rdi
	callq	_KEnterRegion
	movl	$1, %edi
	xorl	%esi, %esi
	callq	_KPrepRTable
.Ltmp57:
	#DEBUG_VALUE: exit_error:j <- 1
	#DEBUG_VALUE: exit_error:i <- 0
	xorl	%esi, %esi
	movq	%rbx, %rdi
	callq	_KExitRegion
	callq	_KPopCDep
.Ltmp58:
.LBB2_3:                                # %if.end
	#DEBUG_VALUE: get_image:fd <- R15
	#DEBUG_VALUE: get_image:in <- [RBP+-152]
	#DEBUG_VALUE: get_image:x_size <- R13
	#DEBUG_VALUE: get_image:y_size <- [RBP+-160]
	movl	$28, %edi
	callq	_KWork
	movabsq	$-2897594641827885251, %rdi # imm = 0xD7C9AD067EC60F3D
	xorl	%esi, %esi
	callq	_KPrepCall
	movl	$8, %edi
	callq	_KLinkReturn
	.loc	2 348 13                # susan.c:348:13
	movq	%r15, %rdi
	callq	getint
	movl	%eax, %ebx
	movl	$8, %edi
	movl	$8, %esi
	xorl	%edx, %edx
	callq	_KTimestamp1
	movl	$8, %edi
	movl	$4, %edx
	movq	%r13, %rsi
	callq	_KStore
	.loc	2 348 3 is_stmt 0       # susan.c:348:3
	movl	%ebx, (%r13)
	movabsq	$2239059118548790907, %rdi # imm = 0x1F12BC67C0332E7B
	xorl	%esi, %esi
	callq	_KPrepCall
	movl	$9, %edi
	callq	_KLinkReturn
	.loc	2 349 13 is_stmt 1      # susan.c:349:13
	movq	%r15, %rdi
	callq	getint
	movl	%eax, %ebx
	movl	$9, %edi
	movl	$9, %esi
	xorl	%edx, %edx
	callq	_KTimestamp1
	movl	$9, %edi
	movl	$4, %edx
	movq	-160(%rbp), %r12        # 8-byte Reload
.Ltmp59:
	#DEBUG_VALUE: get_image:y_size <- R12
	movq	%r12, %rsi
	callq	_KStore
	.loc	2 349 3 is_stmt 0       # susan.c:349:3
	movl	%ebx, (%r12)
	movabsq	$-7296156358551277574, %rdi # imm = 0x9ABED872D6D7EFFA
	xorl	%esi, %esi
	callq	_KPrepCall
	movl	$10, %edi
	callq	_KLinkReturn
	.loc	2 350 9 is_stmt 1       # susan.c:350:9
	movq	%r15, %rdi
	callq	getint
	movl	$11, %esi
	movl	$4, %edx
	movq	%r13, %rdi
	callq	_KLoad0
	.loc	2 354 29                # susan.c:354:29
	movl	(%r13), %ebx
	movl	$12, %esi
	movl	$4, %edx
	movq	%r12, %rdi
	callq	_KLoad0
	imull	(%r12), %ebx
	movabsq	$-7659040783631524030, %rdi # imm = 0x95B59EFC9369DF42
	xorl	%esi, %esi
	callq	_KPrepCall
	movl	$13, %edi
	movl	$11, %esi
	movl	$2, %edx
	movl	$12, %ecx
	movl	$2, %r8d
	callq	_KTimestamp2
	movl	$13, %edi
	callq	_KEnqArg
	.loc	2 354 19 is_stmt 0      # susan.c:354:19
	movl	%ebx, %edi
	callq	wccmalloc
	movq	%rax, %r14
	movl	$14, %edi
	movl	$14, %esi
	xorl	%edx, %edx
	callq	_KTimestamp1
	movl	$14, %edi
	movl	$8, %edx
	movq	-152(%rbp), %rbx        # 8-byte Reload
.Ltmp60:
	#DEBUG_VALUE: get_image:in <- RBX
	movq	%rbx, %rsi
	callq	_KStore
	.loc	2 354 3                 # susan.c:354:3
	movq	%r14, (%rbx)
	movl	$15, %esi
	movl	$8, %edx
	movq	%rbx, %rdi
	callq	_KLoad0
	.loc	2 356 16 is_stmt 1      # susan.c:356:16
.Ltmp61:
	movq	(%rbx), %r14
	movl	$16, %esi
	movl	$4, %edx
	movq	%r13, %rdi
	callq	_KLoad0
	.loc	2 356 22 is_stmt 0      # susan.c:356:22
	movslq	(%r13), %r13
.Ltmp62:
	movl	$17, %esi
	movl	$4, %edx
	movq	%r12, %rdi
	callq	_KLoad0
	movslq	(%r12), %rbx
.Ltmp63:
	imulq	%r13, %rbx
	movabsq	$8626039824690872774, %rdi # imm = 0x77B5D984911281C6
	xorl	%esi, %esi
	callq	_KPrepCall
	movl	$19, %edi
	movl	$16, %esi
	movl	$2, %edx
	movl	$17, %ecx
	movl	$2, %r8d
	callq	_KTimestamp2
	movl	$19, %edi
	callq	_KEnqArg
	callq	_KEnqArgConst
	movl	$18, %edi
	callq	_KLinkReturn
	movl	$1, %esi
	.loc	2 356 7                 # susan.c:356:7
	movq	%r14, %rdi
	movq	%rbx, %rdx
	movq	%r15, %rcx
	callq	wccfread
	movq	%rax, %rbx
	movl	$22, %edi
	movl	$18, %esi
	movl	$1, %edx
	callq	_KTimestamp1
.Ltmp64:
	.loc	2 356 7                 # susan.c:356:7
	testq	%rbx, %rbx
	jne	.LBB2_5
.Ltmp65:
# BB#4:                                 # %if.then21
	movl	$22, %edi
	callq	_KPushCDep
	movabsq	$5823555256234113436, %rdi # imm = 0x50D16CA6A9B1799C
	xorl	%esi, %esi
	callq	_KPrepCall
	xorl	%esi, %esi
	movabsq	$-7131228994629441968, %rbx # imm = 0x9D08C90323256650
	.loc	2 357 5 is_stmt 1       # susan.c:357:5
.Ltmp66:
	movq	%rbx, %rdi
	callq	_KEnterRegion
	movl	$1, %edi
	xorl	%esi, %esi
	callq	_KPrepRTable
.Ltmp67:
	#DEBUG_VALUE: exit_error:j <- 1
	#DEBUG_VALUE: exit_error:i <- 0
	xorl	%esi, %esi
	movq	%rbx, %rdi
	callq	_KExitRegion
	callq	_KPopCDep
.Ltmp68:
.LBB2_5:                                # %if.end22
	xorl	%esi, %esi
	movabsq	$1371072232125695809, %rdi # imm = 0x130706EE4D410741
	callq	_KExitRegion
	.loc	2 358 1                 # susan.c:358:1
	addq	$136, %rsp
	popq	%rbx
	popq	%r12
	popq	%r13
	popq	%r14
	popq	%r15
	popq	%rbp
	retq
.Ltmp69:
.Ltmp70:
	.size	get_image, .Ltmp70-get_image
.Lfunc_end2:
	.cfi_endproc

	.globl	put_image
	.align	16, 0x90
	.type	put_image,@function
put_image:                              # @put_image
.Lfunc_begin3:
	.loc	2 362 0                 # susan.c:362:0
	.cfi_startproc
# BB#0:                                 # %entry
	pushq	%rbp
.Ltmp71:
	.cfi_def_cfa_offset 16
.Ltmp72:
	.cfi_offset %rbp, -16
	movq	%rsp, %rbp
.Ltmp73:
	.cfi_def_cfa_register %rbp
	pushq	%r15
	pushq	%r14
	pushq	%r12
	pushq	%rbx
	subq	$16, %rsp
.Ltmp74:
	.cfi_offset %rbx, -48
.Ltmp75:
	.cfi_offset %r12, -40
.Ltmp76:
	.cfi_offset %r14, -32
.Ltmp77:
	.cfi_offset %r15, -24
	#DEBUG_VALUE: put_image:in <- RDI
	#DEBUG_VALUE: put_image:x_size <- ESI
	#DEBUG_VALUE: put_image:y_size <- EDX
	movl	%edx, %r12d
.Ltmp78:
	#DEBUG_VALUE: put_image:y_size <- R12D
	movl	%esi, %ebx
.Ltmp79:
	#DEBUG_VALUE: put_image:x_size <- EBX
	movabsq	$2335811408570188459, %r14 # imm = 0x206A7819B62182AB
	movabsq	$1747623979026571445, %r15 # imm = 0x1840CEBFE6D560B5
	xorl	%esi, %esi
	movq	%r14, %rdi
.Ltmp80:
	callq	_KEnterRegion
	movl	$5, %edi
	movl	$2, %esi
	callq	_KPrepRTable
	movl	$2, %edi
	callq	_KDeqArg
	movl	$1, %edi
	callq	_KDeqArg
.Ltmp81:
	#DEBUG_VALUE: put_image:i <- 0
	movl	$3, %edi
	callq	_KInduction
	movl	$1, %esi
	movq	%r15, %rdi
	callq	_KEnterRegion
	movl	$3, %edi
	callq	_KWork
	.loc	2 366 20 prologue_end   # susan.c:366:20
.Ltmp82:
	imull	%r12d, %ebx
.Ltmp83:
	movl	$3, (%rsp)
	movl	$4, %edi
	movl	$3, %esi
	movl	$1, %edx
	movl	$1, %ecx
	movl	$3, %r8d
	movl	$2, %r9d
	callq	_KTimestamp3
.Ltmp84:
	.loc	2 366 3 is_stmt 0       # susan.c:366:3
	testl	%ebx, %ebx
	jle	.LBB3_3
.Ltmp85:
# BB#1:                                 # %for.inc.lr.ph
	#DEBUG_VALUE: put_image:in <- RDI
	#DEBUG_VALUE: put_image:i <- 0
	movabsq	$7310997652907248868, %r12 # imm = 0x6575E1A147404CE4
.Ltmp86:
	.align	16, 0x90
.LBB3_2:                                # %for.inc
                                        # =>This Inner Loop Header: Depth=1
	#DEBUG_VALUE: put_image:in <- RDI
	#DEBUG_VALUE: put_image:i <- 0
	movl	$2, %esi
	movq	%r12, %rdi
.Ltmp87:
	callq	_KEnterRegion
	movl	$4, %edi
	callq	_KPushCDep
	callq	_KPopCDep
	movl	$2, %esi
	movq	%r12, %rdi
	callq	_KExitRegion
	movl	$3, %edi
	callq	_KWork
	movl	$3, (%rsp)
	movl	$4, %edi
	movl	$3, %esi
	movl	$1, %edx
	movl	$1, %ecx
	movl	$3, %r8d
	movl	$2, %r9d
	callq	_KTimestamp3
	decl	%ebx
	jne	.LBB3_2
.Ltmp88:
.LBB3_3:                                # %for.cond.pre_exit.for.end
	#DEBUG_VALUE: put_image:in <- RDI
	#DEBUG_VALUE: put_image:i <- 0
	movl	$1, %esi
	movq	%r15, %rdi
.Ltmp89:
	callq	_KExitRegion
	xorl	%esi, %esi
	movq	%r14, %rdi
	addq	$16, %rsp
	popq	%rbx
	popq	%r12
	popq	%r14
	popq	%r15
	popq	%rbp
	jmp	_KExitRegion            # TAILCALL
.Ltmp90:
	.size	put_image, .Ltmp90-put_image
.Lfunc_end3:
	.cfi_endproc

	.globl	int_to_uchar
	.align	16, 0x90
	.type	int_to_uchar,@function
int_to_uchar:                           # @int_to_uchar
.Lfunc_begin4:
	.loc	2 373 0 is_stmt 1       # susan.c:373:0
	.cfi_startproc
# BB#0:                                 # %entry
	pushq	%rbp
.Ltmp91:
	.cfi_def_cfa_offset 16
.Ltmp92:
	.cfi_offset %rbp, -16
	movq	%rsp, %rbp
.Ltmp93:
	.cfi_def_cfa_register %rbp
	pushq	%r15
	pushq	%r14
	pushq	%r13
	pushq	%r12
	pushq	%rbx
	subq	$56, %rsp
.Ltmp94:
	.cfi_offset %rbx, -56
.Ltmp95:
	.cfi_offset %r12, -48
.Ltmp96:
	.cfi_offset %r13, -40
.Ltmp97:
	.cfi_offset %r14, -32
.Ltmp98:
	.cfi_offset %r15, -24
	#DEBUG_VALUE: int_to_uchar:r <- RDI
	#DEBUG_VALUE: int_to_uchar:in <- RSI
	#DEBUG_VALUE: int_to_uchar:size <- EDX
	movl	%edx, %ebx
.Ltmp99:
	#DEBUG_VALUE: int_to_uchar:size <- EBX
	movl	%ebx, -68(%rbp)         # 4-byte Spill
	movq	%rsi, -64(%rbp)         # 8-byte Spill
.Ltmp100:
	#DEBUG_VALUE: int_to_uchar:in <- [RBP+-64]
	movq	%rdi, %r13
.Ltmp101:
	#DEBUG_VALUE: int_to_uchar:r <- R13
	movabsq	$-2676067267658388031, %rdi # imm = 0xDADCB2FF9C2BEDC1
	xorl	%r15d, %r15d
	xorl	%esi, %esi
	callq	_KEnterRegion
	movl	$27, %edi
	movl	$2, %esi
	callq	_KPrepRTable
	movl	$1, %edi
	callq	_KDeqArg
	movl	$8, %edi
	callq	_KWork
	movl	$2, %esi
	movl	$1, %edx
	movq	%r13, %rdi
	callq	_KLoad0
	.loc	2 374 16 prologue_end   # susan.c:374:16
.Ltmp102:
	movsbl	(%r13), %eax
	movl	%eax, -44(%rbp)         # 4-byte Spill
	movl	$3, %esi
	movl	$1, %edx
	movq	%r13, %rdi
	callq	_KLoad0
	.loc	2 374 28 is_stmt 0      # susan.c:374:28
	movsbl	(%r13), %eax
.Ltmp103:
	#DEBUG_VALUE: int_to_uchar:i <- 0
	.loc	2 377 8 is_stmt 1       # susan.c:377:8
	movl	%eax, -48(%rbp)         # 4-byte Spill
	movslq	%ebx, %rax
.Ltmp104:
	#DEBUG_VALUE: int_to_uchar:size <- [RBP+-68]
	movq	%rax, -56(%rbp)         # 8-byte Spill
	movl	$21, %r14d
	movl	$21, %edi
	movl	$3, %esi
	xorl	%edx, %edx
	callq	_KTimestamp1
	movl	$19, %edi
	movl	$1, %esi
	xorl	%edx, %edx
	callq	_KTimestamp1
	movl	$16, %edi
	callq	_KInduction
	movl	$17, %r12d
	movl	$17, %edi
	movl	$2, %esi
	xorl	%edx, %edx
	callq	_KTimestamp1
	movl	$1, %esi
	movabsq	$7864750305935368319, %rdi # imm = 0x6D2534BBE86C207F
	callq	_KEnterRegion
	xorl	%ebx, %ebx
	jmp	.LBB4_1
.Ltmp105:
	.align	16, 0x90
.LBB4_6:                                # %for.inc
                                        #   in Loop: Header=BB4_1 Depth=1
	#DEBUG_VALUE: int_to_uchar:r <- R13
	#DEBUG_VALUE: int_to_uchar:in <- [RBP+-64]
	#DEBUG_VALUE: int_to_uchar:size <- [RBP+-68]
	#DEBUG_VALUE: int_to_uchar:i <- 0
	movl	%ebx, -48(%rbp)         # 4-byte Spill
	movl	$20, %ebx
	movl	$20, %edi
	callq	_KPushCDep
	movl	$22, %r14d
	movl	$22, %edi
	movl	$26, %edx
	movl	$20, %ecx
	movl	%r12d, %esi
	callq	_KPhi2To1
	.loc	2 377 3 is_stmt 0       # susan.c:377:3
.Ltmp106:
	incq	%r15
	movl	$22, %edi
	movl	$22, %esi
	xorl	%edx, %edx
	callq	_KTimestamp1
	callq	_KPopCDep
	movl	$2, %esi
	movabsq	$-811406223395391219, %rdi # imm = 0xF4BD4E56BDF9F90D
	callq	_KExitRegion
	movl	$18, %r12d
.Ltmp107:
.LBB4_1:                                # %for.cond
                                        # =>This Inner Loop Header: Depth=1
	#DEBUG_VALUE: int_to_uchar:r <- R13
	#DEBUG_VALUE: int_to_uchar:in <- [RBP+-64]
	#DEBUG_VALUE: int_to_uchar:size <- [RBP+-68]
	#DEBUG_VALUE: int_to_uchar:i <- 0
	movl	$13, %edi
	movl	%r14d, %esi
	movl	%ebx, %edx
	callq	_KPhi1To1
	movl	$15, %edi
	movl	%r12d, %esi
	movl	%ebx, %edx
	callq	_KPhi1To1
	movl	$1, %edi
	callq	_KWork
	movl	$13, %edi
	movl	$13, %esi
	xorl	%edx, %edx
	callq	_KTimestamp1
	movl	$20, %edi
	movl	$19, %esi
	movl	$1, %edx
	movl	$16, %ecx
	movl	$1, %r8d
	callq	_KTimestamp2
	movl	$13, %edi
	movl	$20, %esi
	callq	_KPhiAddCond
	movl	$15, %edi
	movl	$20, %esi
	callq	_KPhiAddCond
	movl	$15, %edi
	movl	$15, %esi
	xorl	%edx, %edx
	callq	_KTimestamp1
	movq	-56(%rbp), %rbx         # 8-byte Reload
	.loc	2 377 3                 # susan.c:377:3
	cmpq	%rbx, %r15
	jge	.LBB4_7
.Ltmp108:
# BB#2:                                 # %for.body
                                        #   in Loop: Header=BB4_1 Depth=1
	#DEBUG_VALUE: int_to_uchar:r <- R13
	#DEBUG_VALUE: int_to_uchar:in <- [RBP+-64]
	#DEBUG_VALUE: int_to_uchar:size <- [RBP+-68]
	#DEBUG_VALUE: int_to_uchar:i <- 0
	movl	$2, %esi
	movabsq	$-811406223395391219, %rdi # imm = 0xF4BD4E56BDF9F90D
	callq	_KEnterRegion
	movl	$20, %edi
	callq	_KPushCDep
	movl	$5, %edi
	callq	_KWork
	leaq	(%r13,%r15), %r14
	movl	$4, %esi
	movl	$1, %edx
	movq	%r14, %rdi
	callq	_KLoad0
	.loc	2 378 10 is_stmt 1      # susan.c:378:10
.Ltmp109:
	movsbl	(%r13,%r15), %ebx
	movl	$1, (%rsp)
	movl	$15, %r12d
	movl	$24, %edi
	movl	$4, %esi
	movl	$1, %edx
	movl	$20, %ecx
	movl	$1, %r8d
	movl	$15, %r9d
	callq	_KTimestamp3
	callq	_KPopCDep
	movl	-44(%rbp), %eax         # 4-byte Reload
.Ltmp110:
	.loc	2 378 10 is_stmt 0      # susan.c:378:10
	cmpl	%eax, %ebx
	movl	%eax, %ebx
	jle	.LBB4_4
.Ltmp111:
# BB#3:                                 # %if.then
                                        #   in Loop: Header=BB4_1 Depth=1
	#DEBUG_VALUE: int_to_uchar:r <- R13
	#DEBUG_VALUE: int_to_uchar:in <- [RBP+-64]
	#DEBUG_VALUE: int_to_uchar:size <- [RBP+-68]
	#DEBUG_VALUE: int_to_uchar:i <- 0
	movl	$24, %edi
	callq	_KPushCDep
	movl	$4, %edi
	callq	_KWork
	movl	$5, %esi
	movl	$1, %edx
	movq	%r14, %rdi
	callq	_KLoad0
	.loc	2 379 13 is_stmt 1      # susan.c:379:13
.Ltmp112:
	movsbl	(%r14), %ebx
	movl	$1, 16(%rsp)
	movl	$15, 8(%rsp)
	movl	$1, (%rsp)
	movl	$23, %r12d
	movl	$23, %edi
	movl	$4, %esi
	movl	$1, %edx
	movl	$5, %ecx
	xorl	%r8d, %r8d
	movl	$20, %r9d
	callq	_KTimestamp4
	callq	_KPopCDep
.Ltmp113:
.LBB4_4:                                # %if.end
                                        #   in Loop: Header=BB4_1 Depth=1
	#DEBUG_VALUE: int_to_uchar:r <- R13
	#DEBUG_VALUE: int_to_uchar:in <- [RBP+-64]
	#DEBUG_VALUE: int_to_uchar:size <- [RBP+-68]
	#DEBUG_VALUE: int_to_uchar:i <- 0
	movl	%ebx, -44(%rbp)         # 4-byte Spill
	movl	$20, %edi
	callq	_KPushCDep
	movl	$18, %edi
	movl	$20, %edx
	movl	$24, %ecx
	movl	%r12d, %esi
	callq	_KPhi2To1
	movl	$5, %edi
	callq	_KWork
	movl	$6, %esi
	movl	$1, %edx
	movq	%r14, %rdi
	callq	_KLoad0
	.loc	2 380 10                # susan.c:380:10
.Ltmp114:
	movsbl	(%r14), %ebx
	movl	$1, (%rsp)
	movl	$13, %r12d
	movl	$26, %edi
	movl	$20, %esi
	movl	$1, %edx
	movl	$6, %ecx
	movl	$1, %r8d
	movl	$13, %r9d
	callq	_KTimestamp3
	movl	$18, %edi
	movl	$18, %esi
	xorl	%edx, %edx
	callq	_KTimestamp1
	callq	_KPopCDep
	movl	-48(%rbp), %eax         # 4-byte Reload
.Ltmp115:
	.loc	2 380 10 is_stmt 0      # susan.c:380:10
	cmpl	%eax, %ebx
	movl	%eax, %ebx
	jge	.LBB4_6
.Ltmp116:
# BB#5:                                 # %if.then16
                                        #   in Loop: Header=BB4_1 Depth=1
	#DEBUG_VALUE: int_to_uchar:r <- R13
	#DEBUG_VALUE: int_to_uchar:in <- [RBP+-64]
	#DEBUG_VALUE: int_to_uchar:size <- [RBP+-68]
	#DEBUG_VALUE: int_to_uchar:i <- 0
	movl	$26, %edi
	callq	_KPushCDep
	movl	$4, %edi
	callq	_KWork
	movl	$7, %esi
	movl	$1, %edx
	movq	%r14, %rdi
	callq	_KLoad0
	.loc	2 381 13 is_stmt 1      # susan.c:381:13
.Ltmp117:
	movsbl	(%r14), %ebx
	movl	$0, 16(%rsp)
	movl	$7, 8(%rsp)
	movl	$1, (%rsp)
	movl	$25, %r12d
	movl	$25, %edi
	movl	$20, %esi
	movl	$1, %edx
	movl	$6, %ecx
	movl	$1, %r8d
	movl	$13, %r9d
	callq	_KTimestamp4
	callq	_KPopCDep
	jmp	.LBB4_6
.Ltmp118:
.LBB4_7:                                # %for.cond.pre_exit.for.end
	#DEBUG_VALUE: int_to_uchar:r <- R13
	#DEBUG_VALUE: int_to_uchar:in <- [RBP+-64]
	#DEBUG_VALUE: int_to_uchar:size <- [RBP+-68]
	#DEBUG_VALUE: int_to_uchar:i <- 0
	movl	$1, %esi
	movabsq	$7864750305935368319, %rdi # imm = 0x6D2534BBE86C207F
	callq	_KExitRegion
	movl	$1, %edi
	callq	_KWork
	movl	$14, %edi
	movl	$13, %esi
	movl	$1, %edx
	movl	$15, %ecx
	movl	$1, %r8d
	callq	_KTimestamp2
	movl	$10, %edi
	movl	$1, %esi
	xorl	%edx, %edx
	callq	_KTimestamp1
	movl	$12, %edi
	callq	_KInduction
	movl	$1, %esi
	movabsq	$1356285183461826490, %rdi # imm = 0x12D27E303E5E1FBA
	callq	_KEnterRegion
	movl	$1, %edi
	callq	_KWork
	movl	$11, %edi
	movl	$10, %esi
	movl	$1, %edx
	movl	$12, %ecx
	movl	$1, %r8d
	callq	_KTimestamp2
	.loc	2 387 3                 # susan.c:387:3
.Ltmp119:
	cmpl	$0, -68(%rbp)           # 4-byte Folded Reload
	movq	-64(%rbp), %r12         # 8-byte Reload
.Ltmp120:
	#DEBUG_VALUE: int_to_uchar:in <- R12
	jle	.LBB4_10
.Ltmp121:
# BB#8:                                 # %for.body24.lr.ph
	#DEBUG_VALUE: int_to_uchar:r <- R13
	#DEBUG_VALUE: int_to_uchar:in <- R12
	#DEBUG_VALUE: int_to_uchar:i <- 0
	.loc	2 384 3                 # susan.c:384:3
	movl	-44(%rbp), %eax         # 4-byte Reload
	subl	-48(%rbp), %eax         # 4-byte Folded Reload
.Ltmp122:
	#DEBUG_VALUE: int_to_uchar:max_r <- [RBP+-44]
	movl	%eax, -44(%rbp)         # 4-byte Spill
	movabsq	$-1685443978513927515, %r14 # imm = 0xE89C19A1A3DB32A5
.Ltmp123:
	.align	16, 0x90
.LBB4_9:                                # %for.body24
                                        # =>This Inner Loop Header: Depth=1
	#DEBUG_VALUE: int_to_uchar:i <- 0
	#DEBUG_VALUE: int_to_uchar:max_r <- [RBP+-44]
	movl	$2, %esi
	movq	%r14, %rdi
	callq	_KEnterRegion
	movl	$11, %edi
	callq	_KPushCDep
	movl	$18, %edi
	callq	_KWork
	movl	$8, %esi
	movl	$1, %edx
	movq	%r13, %rdi
	callq	_KLoad0
	.loc	2 388 33                # susan.c:388:33
.Ltmp124:
	movsbl	(%r13), %eax
	subl	-48(%rbp), %eax         # 4-byte Folded Reload
	.loc	2 388 27 is_stmt 0      # susan.c:388:27
	imull	$255, %eax, %eax
	.loc	2 388 21                # susan.c:388:21
	cltd
	idivl	-44(%rbp)               # 4-byte Folded Reload
	movl	%eax, %r15d
	movl	$13, 16(%rsp)
	movl	$13, 8(%rsp)
	movl	$13, (%rsp)
	movl	$9, %edi
	movl	$14, %esi
	movl	$10, %edx
	movl	$11, %ecx
	movl	$13, %r8d
	movl	$8, %r9d
	callq	_KTimestamp4
	movl	$9, %edi
	movl	$1, %edx
	movq	%r12, %rsi
	callq	_KStore
	.loc	2 388 5                 # susan.c:388:5
	movb	%r15b, (%r12)
	callq	_KPopCDep
	movl	$2, %esi
	movq	%r14, %rdi
	callq	_KExitRegion
	movl	$1, %edi
	callq	_KWork
	movl	$11, %edi
	movl	$10, %esi
	movl	$1, %edx
	movl	$12, %ecx
	movl	$1, %r8d
	callq	_KTimestamp2
.Ltmp125:
	.loc	2 387 3 is_stmt 1       # susan.c:387:3
	incq	%r12
	incq	%r13
	decq	%rbx
	jne	.LBB4_9
.Ltmp126:
.LBB4_10:                               # %for.cond21.pre_exit.for.end34
	#DEBUG_VALUE: int_to_uchar:i <- 0
	movl	$1, %esi
	movabsq	$1356285183461826490, %rdi # imm = 0x12D27E303E5E1FBA
	callq	_KExitRegion
	xorl	%esi, %esi
	movabsq	$-2676067267658388031, %rdi # imm = 0xDADCB2FF9C2BEDC1
	addq	$56, %rsp
	popq	%rbx
	popq	%r12
	popq	%r13
	popq	%r14
	popq	%r15
	popq	%rbp
	jmp	_KExitRegion            # TAILCALL
.Ltmp127:
	.size	int_to_uchar, .Ltmp127-int_to_uchar
.Lfunc_end4:
	.cfi_endproc

	.section	.rodata.cst16,"aM",@progbits,16
	.align	16
.LCPI5_0:
	.long	2147483648              # 0x80000000
	.long	2147483648              # 0x80000000
	.long	2147483648              # 0x80000000
	.long	2147483648              # 0x80000000
	.section	.rodata.cst4,"aM",@progbits,4
	.align	4
.LCPI5_1:
	.long	1120403456              # float 100
	.text
	.globl	setup_brightness_lut
	.align	16, 0x90
	.type	setup_brightness_lut,@function
setup_brightness_lut:                   # @setup_brightness_lut
.Lfunc_begin5:
	.loc	2 394 0                 # susan.c:394:0
	.cfi_startproc
# BB#0:                                 # %entry
	pushq	%rbp
.Ltmp128:
	.cfi_def_cfa_offset 16
.Ltmp129:
	.cfi_offset %rbp, -16
	movq	%rsp, %rbp
.Ltmp130:
	.cfi_def_cfa_register %rbp
	pushq	%r15
	pushq	%r14
	pushq	%r13
	pushq	%r12
	pushq	%rbx
	subq	$56, %rsp
.Ltmp131:
	.cfi_offset %rbx, -56
.Ltmp132:
	.cfi_offset %r12, -48
.Ltmp133:
	.cfi_offset %r13, -40
.Ltmp134:
	.cfi_offset %r14, -32
.Ltmp135:
	.cfi_offset %r15, -24
	#DEBUG_VALUE: setup_brightness_lut:bp <- RDI
	#DEBUG_VALUE: setup_brightness_lut:thresh <- ESI
	#DEBUG_VALUE: setup_brightness_lut:form <- EDX
	movl	%edx, -44(%rbp)         # 4-byte Spill
.Ltmp136:
	#DEBUG_VALUE: setup_brightness_lut:form <- [RBP+-44]
	movl	%esi, %r12d
.Ltmp137:
	#DEBUG_VALUE: setup_brightness_lut:thresh <- R12D
	movq	%rdi, %r14
.Ltmp138:
	#DEBUG_VALUE: setup_brightness_lut:bp <- R14
	movq	%r14, -56(%rbp)         # 8-byte Spill
	movabsq	$-227718247055886495, %rdi # imm = 0xFCD6FB75F75BF761
	movabsq	$3139353040646990940, %r13 # imm = 0x2B9138F51C4E6C5C
	xorl	%ebx, %ebx
	xorl	%esi, %esi
	callq	_KEnterRegion
	movl	$17, %edi
	movl	$2, %esi
	callq	_KPrepRTable
	movl	$2, %edi
	callq	_KDeqArg
	movl	$1, %edi
	callq	_KDeqArg
	movl	$6, %edi
	callq	_KWork
	movabsq	$497863463913406220, %rdi # imm = 0x6E8C42EC1343F0C
	xorl	%esi, %esi
	callq	_KPrepCall
	callq	_KEnqArgConst
	movl	$516, %edi              # imm = 0x204
	.loc	2 398 24 prologue_end   # susan.c:398:24
.Ltmp139:
	callq	wccmalloc
	movq	%rax, %r15
	movl	$3, %edi
	movl	$3, %esi
	xorl	%edx, %edx
	callq	_KTimestamp1
	movl	$3, %edi
	movl	$8, %edx
	movq	%r14, %rsi
	callq	_KStore
	.loc	2 398 3 is_stmt 0       # susan.c:398:3
	movq	%r15, (%r14)
	movl	$4, %esi
	movl	$8, %edx
	movq	%r14, %rdi
	callq	_KLoad0
	.loc	2 399 7 is_stmt 1       # susan.c:399:7
	movq	(%r14), %r15
	addq	$258, %r15              # imm = 0x102
	movl	$5, %edi
	movl	$4, %esi
	xorl	%edx, %edx
	callq	_KTimestamp1
	movl	$5, %edi
	movl	$8, %edx
	movq	%r14, %rsi
	callq	_KStore
	.loc	2 399 3 is_stmt 0       # susan.c:399:3
	movq	%r15, (%r14)
.Ltmp140:
	#DEBUG_VALUE: setup_brightness_lut:k <- -256
	#DEBUG_VALUE: setup_brightness_lut:bp <- [RBP+-56]
	movl	$1, %esi
	movabsq	$7810100646999479705, %rdi # imm = 0x6C630D28A473D599
	callq	_KEnterRegion
	.loc	2 403 22 is_stmt 1      # susan.c:403:22
.Ltmp141:
	cvtsi2ssl	%r12d, %xmm0
	movss	%xmm0, -60(%rbp)        # 4-byte Spill
	movq	$-256, %r12
.Ltmp142:
	cmpl	$6, -44(%rbp)           # 4-byte Folded Reload
	jne	.LBB5_4
# BB#1:
	#DEBUG_VALUE: setup_brightness_lut:bp <- [RBP+-56]
	#DEBUG_VALUE: setup_brightness_lut:k <- -256
	xorl	%edx, %edx
	jmp	.LBB5_2
	.align	16, 0x90
.LBB5_3:                                # %if.end.us
                                        #   in Loop: Header=BB5_2 Depth=1
	#DEBUG_VALUE: setup_brightness_lut:bp <- [RBP+-56]
	#DEBUG_VALUE: setup_brightness_lut:k <- -256
	movl	$2, %esi
	movq	%r13, %r14
	movq	%r14, %rdi
	callq	_KEnterRegion
	movl	$8, %edi
	callq	_KPushCDep
	movl	$26, %edi
	callq	_KWork
	.loc	2 403 11 is_stmt 0      # susan.c:403:11
	cvtsi2ssl	%r12d, %xmm0
	.loc	2 403 10                # susan.c:403:10
	divss	-60(%rbp), %xmm0        # 4-byte Folded Reload
.Ltmp143:
	#DEBUG_VALUE: setup_brightness_lut:temp <- XMM0
	.loc	2 404 10 is_stmt 1      # susan.c:404:10
	mulss	%xmm0, %xmm0
.Ltmp144:
	movss	%xmm0, -44(%rbp)        # 4-byte Spill
.Ltmp145:
	#DEBUG_VALUE: setup_brightness_lut:temp <- [RBP+-44]
	movl	$16, %edi
	movl	$8, %esi
	movl	$1, %edx
	movl	$2, %ecx
	movl	$1, %r8d
	callq	_KTimestamp2
	movl	$25, (%rsp)
	movl	$15, %edi
	movl	$9, %esi
	movl	$25, %edx
	movl	$8, %ecx
	movl	$25, %r8d
	movl	$1, %r9d
	callq	_KTimestamp3
	callq	_KPopCDep
	movl	$16, %edi
	callq	_KPushCDep
	movl	$10, %edi
	callq	_KWork
	movss	-44(%rbp), %xmm1        # 4-byte Reload
.Ltmp146:
	#DEBUG_VALUE: setup_brightness_lut:temp <- XMM1
	.loc	2 406 12                # susan.c:406:12
	movaps	%xmm1, %xmm0
	mulss	%xmm0, %xmm0
	mulss	%xmm1, %xmm0
.Ltmp147:
	#DEBUG_VALUE: setup_brightness_lut:temp <- XMM0
	movss	%xmm0, -44(%rbp)        # 4-byte Spill
.Ltmp148:
	#DEBUG_VALUE: setup_brightness_lut:temp <- [RBP+-44]
	movl	$35, 16(%rsp)
	movl	$1, 8(%rsp)
	movl	$11, (%rsp)
	movl	$14, %edi
	movl	$9, %esi
	movl	$35, %edx
	movl	$8, %ecx
	movl	$35, %r8d
	movl	$2, %r9d
	callq	_KTimestamp4
	callq	_KPopCDep
	movl	$8, %edi
	callq	_KPushCDep
	movl	$10, %edi
	movl	$14, %esi
	movl	$16, %edx
	movl	$8, %ecx
	callq	_KPhi2To1
	movl	$13, %edi
	callq	_KWork
.Ltmp149:
	.loc	2 407 21                # susan.c:407:21
	movss	-44(%rbp), %xmm0        # 4-byte Reload
	xorps	.LCPI5_0(%rip), %xmm0
	movss	%xmm0, -44(%rbp)        # 4-byte Spill
	xorl	%esi, %esi
	movabsq	$1208584412934306817, %rdi # imm = 0x10C5C11EC605FC01
	callq	_KPrepCall
	movl	$7, %edi
	movl	$8, %esi
	movl	$2, %edx
	movl	$10, %ecx
	movl	$2, %r8d
	callq	_KTimestamp2
	movl	$7, %edi
	callq	_KEnqArg
	movl	$6, %edi
	callq	_KLinkReturn
	.loc	2 407 16 is_stmt 0      # susan.c:407:16
	movss	-44(%rbp), %xmm0        # 4-byte Reload
	callq	expf
	.loc	2 407 10                # susan.c:407:10
	mulss	.LCPI5_1(%rip), %xmm0
.Ltmp150:
	#DEBUG_VALUE: setup_brightness_lut:temp <- XMM0
	.loc	2 408 15 is_stmt 1      # susan.c:408:15
	cvttss2si	%xmm0, %r15d
	movl	$11, %esi
	movl	$8, %edx
	movq	-56(%rbp), %rbx         # 8-byte Reload
.Ltmp151:
	#DEBUG_VALUE: setup_brightness_lut:bp <- RBX
	movq	%rbx, %rdi
	callq	_KLoad0
	.loc	2 408 7 is_stmt 0       # susan.c:408:7
	movq	(%rbx), %r13
.Ltmp152:
	#DEBUG_VALUE: setup_brightness_lut:bp <- [RBP+-56]
	movl	$12, %edi
	movl	$8, %esi
	movl	$5, %edx
	movl	$6, %ecx
	movl	$5, %r8d
	callq	_KTimestamp2
	leaq	(%r13,%r12), %rsi
	movl	$12, %edi
	movl	$1, %edx
	callq	_KStore
	.loc	2 408 5                 # susan.c:408:5
	movb	%r15b, (%r13,%r12)
	movl	$13, %ebx
.Ltmp153:
	.loc	2 402 3 is_stmt 1       # susan.c:402:3
	incq	%r12
	movl	$13, %edi
	movl	$9, %esi
	movl	$1, %edx
	movl	$8, %ecx
	movl	$1, %r8d
	callq	_KTimestamp2
	callq	_KPopCDep
	movl	$2, %esi
	movq	%r14, %rdi
	movq	%r14, %r13
	callq	_KExitRegion
	movl	$8, %edx
.Ltmp154:
.LBB5_2:                                # %for.cond.us
                                        # =>This Inner Loop Header: Depth=1
	#DEBUG_VALUE: setup_brightness_lut:bp <- [RBP+-56]
	#DEBUG_VALUE: setup_brightness_lut:k <- -256
	movl	$9, %edi
	movl	%ebx, %esi
                                        # kill: EDX<def> EDX<kill> RDX<kill>
	callq	_KPhi1To1
	movl	$1, %edi
	callq	_KWork
	movl	$8, %edi
	movl	$9, %esi
	movl	$1, %edx
	callq	_KTimestamp1
	movl	$9, %edi
	movl	$8, %esi
	callq	_KPhiAddCond
	movl	$9, %edi
	movl	$9, %esi
	xorl	%edx, %edx
	callq	_KTimestamp1
	.loc	2 402 3 is_stmt 0       # susan.c:402:3
	cmpq	$257, %r12              # imm = 0x101
	jne	.LBB5_3
	jmp	.LBB5_7
.LBB5_4:
	#DEBUG_VALUE: setup_brightness_lut:bp <- [RBP+-56]
	#DEBUG_VALUE: setup_brightness_lut:k <- -256
	xorl	%r15d, %r15d
	jmp	.LBB5_5
	.align	16, 0x90
.LBB5_6:                                # %if.end
                                        #   in Loop: Header=BB5_5 Depth=1
	#DEBUG_VALUE: setup_brightness_lut:bp <- [RBP+-56]
	#DEBUG_VALUE: setup_brightness_lut:k <- -256
	movl	$2, %esi
	movq	%r13, %r14
	movq	%r14, %rdi
	callq	_KEnterRegion
	movl	$8, %r15d
	movl	$8, %edi
	callq	_KPushCDep
	movl	$26, %edi
	callq	_KWork
	.loc	2 403 11 is_stmt 1      # susan.c:403:11
.Ltmp155:
	cvtsi2ssl	%r12d, %xmm0
	.loc	2 403 10 is_stmt 0      # susan.c:403:10
	divss	-60(%rbp), %xmm0        # 4-byte Folded Reload
.Ltmp156:
	#DEBUG_VALUE: setup_brightness_lut:temp <- XMM0
	.loc	2 404 10 is_stmt 1      # susan.c:404:10
	mulss	%xmm0, %xmm0
.Ltmp157:
	movss	%xmm0, -44(%rbp)        # 4-byte Spill
.Ltmp158:
	#DEBUG_VALUE: setup_brightness_lut:temp <- [RBP+-44]
	movl	$16, %edi
	movl	$8, %esi
	movl	$1, %edx
	movl	$2, %ecx
	movl	$1, %r8d
	callq	_KTimestamp2
	movl	$25, (%rsp)
	movl	$15, %edi
	movl	$9, %esi
	movl	$25, %edx
	movl	$8, %ecx
	movl	$25, %r8d
	movl	$1, %r9d
	callq	_KTimestamp3
	callq	_KPopCDep
	movl	$8, %edi
	callq	_KPushCDep
	movl	$10, %edi
	movl	$15, %esi
	movl	$16, %edx
	movl	$8, %ecx
	callq	_KPhi2To1
	movl	$13, %edi
	callq	_KWork
	.loc	2 407 21                # susan.c:407:21
	movss	-44(%rbp), %xmm0        # 4-byte Reload
	xorps	.LCPI5_0(%rip), %xmm0
	movss	%xmm0, -44(%rbp)        # 4-byte Spill
	xorl	%esi, %esi
	movabsq	$1208584412934306817, %rdi # imm = 0x10C5C11EC605FC01
	callq	_KPrepCall
	movl	$7, %edi
	movl	$8, %esi
	movl	$2, %edx
	movl	$10, %ecx
	movl	$2, %r8d
	callq	_KTimestamp2
	movl	$7, %edi
	callq	_KEnqArg
	movl	$6, %edi
	callq	_KLinkReturn
	.loc	2 407 16 is_stmt 0      # susan.c:407:16
	movss	-44(%rbp), %xmm0        # 4-byte Reload
	callq	expf
	.loc	2 407 10                # susan.c:407:10
	mulss	.LCPI5_1(%rip), %xmm0
.Ltmp159:
	#DEBUG_VALUE: setup_brightness_lut:temp <- XMM0
	.loc	2 408 15 is_stmt 1      # susan.c:408:15
	cvttss2si	%xmm0, %r13d
	movl	$11, %esi
	movl	$8, %edx
	movq	-56(%rbp), %rbx         # 8-byte Reload
.Ltmp160:
	#DEBUG_VALUE: setup_brightness_lut:bp <- RBX
	movq	%rbx, %rdi
	callq	_KLoad0
	.loc	2 408 7 is_stmt 0       # susan.c:408:7
	movq	(%rbx), %rbx
.Ltmp161:
	#DEBUG_VALUE: setup_brightness_lut:bp <- [RBP+-56]
	movl	$12, %edi
	movl	$8, %esi
	movl	$5, %edx
	movl	$6, %ecx
	movl	$5, %r8d
	callq	_KTimestamp2
	leaq	(%rbx,%r12), %rsi
	movl	$12, %edi
	movl	$1, %edx
	callq	_KStore
	.loc	2 408 5                 # susan.c:408:5
	movb	%r13b, (%rbx,%r12)
	movl	$13, %ebx
.Ltmp162:
	.loc	2 402 3 is_stmt 1       # susan.c:402:3
	incq	%r12
	movl	$13, %edi
	movl	$9, %esi
	movl	$1, %edx
	movl	$8, %ecx
	movl	$1, %r8d
	callq	_KTimestamp2
	callq	_KPopCDep
	movl	$2, %esi
	movq	%r14, %rdi
	movq	%r14, %r13
	callq	_KExitRegion
.Ltmp163:
.LBB5_5:                                # %for.cond
                                        # =>This Inner Loop Header: Depth=1
	#DEBUG_VALUE: setup_brightness_lut:bp <- [RBP+-56]
	#DEBUG_VALUE: setup_brightness_lut:k <- -256
	movl	$9, %edi
	movl	%ebx, %esi
	movl	%r15d, %edx
	callq	_KPhi1To1
	movl	$1, %edi
	callq	_KWork
	movl	$8, %edi
	movl	$9, %esi
	movl	$1, %edx
	callq	_KTimestamp1
	movl	$9, %edi
	movl	$8, %esi
	callq	_KPhiAddCond
	movl	$9, %edi
	movl	$9, %esi
	xorl	%edx, %edx
	callq	_KTimestamp1
	.loc	2 402 3 is_stmt 0       # susan.c:402:3
	cmpq	$257, %r12              # imm = 0x101
	jne	.LBB5_6
.Ltmp164:
.LBB5_7:                                # %for.cond.pre_exit.for.end
	#DEBUG_VALUE: setup_brightness_lut:k <- -256
	movl	$1, %esi
	movabsq	$7810100646999479705, %rdi # imm = 0x6C630D28A473D599
	callq	_KExitRegion
	xorl	%esi, %esi
	movabsq	$-227718247055886495, %rdi # imm = 0xFCD6FB75F75BF761
	addq	$56, %rsp
	popq	%rbx
	popq	%r12
	popq	%r13
	popq	%r14
	popq	%r15
	popq	%rbp
	jmp	_KExitRegion            # TAILCALL
.Ltmp165:
	.size	setup_brightness_lut, .Ltmp165-setup_brightness_lut
.Lfunc_end5:
	.cfi_endproc

	.globl	susan_principle
	.align	16, 0x90
	.type	susan_principle,@function
susan_principle:                        # @susan_principle
.Lfunc_begin6:
	.loc	2 415 0 is_stmt 1       # susan.c:415:0
	.cfi_startproc
# BB#0:                                 # %entry
	pushq	%rbp
.Ltmp166:
	.cfi_def_cfa_offset 16
.Ltmp167:
	.cfi_offset %rbp, -16
	movq	%rsp, %rbp
.Ltmp168:
	.cfi_def_cfa_register %rbp
	pushq	%r15
	pushq	%r14
	pushq	%r13
	pushq	%r12
	pushq	%rbx
	subq	$1048, %rsp             # imm = 0x418
.Ltmp169:
	.cfi_offset %rbx, -56
.Ltmp170:
	.cfi_offset %r12, -48
.Ltmp171:
	.cfi_offset %r13, -40
.Ltmp172:
	.cfi_offset %r14, -32
.Ltmp173:
	.cfi_offset %r15, -24
	#DEBUG_VALUE: susan_principle:in <- RDI
	#DEBUG_VALUE: susan_principle:r <- RSI
	#DEBUG_VALUE: susan_principle:bp <- RDX
	#DEBUG_VALUE: susan_principle:max_no <- ECX
	#DEBUG_VALUE: susan_principle:x_size <- R8D
	#DEBUG_VALUE: susan_principle:y_size <- R9D
	movl	%r9d, %ebx
.Ltmp174:
	#DEBUG_VALUE: susan_principle:y_size <- EBX
	movl	%r8d, %r13d
.Ltmp175:
	#DEBUG_VALUE: susan_principle:x_size <- R13D
	movl	%ecx, -240(%rbp)        # 4-byte Spill
.Ltmp176:
	#DEBUG_VALUE: susan_principle:max_no <- [RBP+-240]
	movq	%rdx, -304(%rbp)        # 8-byte Spill
.Ltmp177:
	#DEBUG_VALUE: susan_principle:bp <- [RBP+-304]
	movq	%rsi, %r12
.Ltmp178:
	#DEBUG_VALUE: susan_principle:r <- R12
	movq	%rdi, %r14
.Ltmp179:
	#DEBUG_VALUE: susan_principle:in <- R14
	movq	%r14, -256(%rbp)        # 8-byte Spill
	movabsq	$-6311205294499707348, %rdi # imm = 0xA86A18390CC7C62C
	xorl	%esi, %esi
	callq	_KEnterRegion
	movl	$129, %edi
	movl	$4, %esi
	callq	_KPrepRTable
	movl	$3, %edi
	callq	_KDeqArg
	movl	$2, %edi
	callq	_KDeqArg
	movl	$1, %edi
	callq	_KDeqArg
	movl	$4, %edi
	callq	_KWork
	.loc	2 419 17 prologue_end   # susan.c:419:17
.Ltmp180:
	movl	%r13d, %eax
	imull	%ebx, %eax
	leal	(,%rax,4), %r15d
	movl	$4, %edi
	movl	$2, %esi
	movl	$4, %edx
	movl	$3, %ecx
	movl	$4, %r8d
	callq	_KTimestamp2
	movabsq	$-3309751525746477078, %rdi # imm = 0xD2116685ED12F7EA
	xorl	%esi, %esi
	callq	_KPrepCall
	movl	$4, %edi
	callq	_KEnqArg
	callq	_KEnqArgConst
	xorl	%esi, %esi
	.loc	2 419 3 is_stmt 0       # susan.c:419:3
	movq	%r12, %rdi
	movl	%r15d, %edx
	callq	wccmemset
.Ltmp181:
	#DEBUG_VALUE: susan_principle:i <- 3
	movl	$1, %esi
	movabsq	$168965887160537462, %rdi # imm = 0x2584994435CD176
	callq	_KEnterRegion
	.loc	2 422 14 is_stmt 1      # susan.c:422:14
.Ltmp182:
	addl	$-3, %ebx
.Ltmp183:
	.loc	2 422 12 is_stmt 0      # susan.c:422:12
	movslq	%ebx, %rax
	.loc	2 424 16 is_stmt 1      # susan.c:424:16
.Ltmp184:
	movq	%rax, -504(%rbp)        # 8-byte Spill
	leal	-3(%r13), %eax
	.loc	2 424 14 is_stmt 0      # susan.c:424:14
	movslq	%eax, %rdx
	movq	%rdx, -248(%rbp)        # 8-byte Spill
	movslq	%r13d, %rcx
	movq	%rcx, -512(%rbp)        # 8-byte Spill
	leaq	(%rcx,%rcx,2), %rax
	addq	%rax, %r12
.Ltmp185:
	movq	%r12, -312(%rbp)        # 8-byte Spill
	addq	%r14, %rax
	movq	%rax, -264(%rbp)        # 8-byte Spill
	leal	-6(%rcx), %eax
	cltq
	leal	-5(%rcx), %ecx
	movslq	%ecx, %rsi
	leaq	(%rsi,%rsi), %rcx
	leaq	(%rcx,%rax,2), %rcx
	addq	%r14, %rcx
	movq	%rcx, -280(%rbp)        # 8-byte Spill
	leaq	(%rdx,%rax,2), %rcx
	addq	%r14, %rcx
	movq	%rcx, -288(%rbp)        # 8-byte Spill
	leaq	30(%rsi,%rsi), %rcx
	movq	%rcx, -320(%rbp)        # 8-byte Spill
	leaq	29(%rsi,%rsi), %rcx
	movq	%rcx, -328(%rbp)        # 8-byte Spill
	leaq	28(%rsi,%rsi), %rcx
	movq	%rcx, -336(%rbp)        # 8-byte Spill
	leaq	27(%rsi,%rsi), %rcx
	movq	%rcx, -344(%rbp)        # 8-byte Spill
	leaq	26(%rsi,%rsi), %rcx
	movq	%rcx, -352(%rbp)        # 8-byte Spill
	addq	%rdx, %rsi
	addq	%r14, %rsi
	movq	%rsi, -272(%rbp)        # 8-byte Spill
	leaq	26(%rax,%rax), %rcx
	movq	%rcx, -360(%rbp)        # 8-byte Spill
	leaq	25(%rax,%rax), %rcx
	movq	%rcx, -368(%rbp)        # 8-byte Spill
	leaq	24(%rax,%rax), %rcx
	movq	%rcx, -376(%rbp)        # 8-byte Spill
	leaq	23(%rax,%rax), %rcx
	movq	%rcx, -384(%rbp)        # 8-byte Spill
	leaq	22(%rax,%rax), %rcx
	movq	%rcx, -392(%rbp)        # 8-byte Spill
	leaq	21(%rax,%rax), %rcx
	movq	%rcx, -400(%rbp)        # 8-byte Spill
	leaq	20(%rax,%rax), %rcx
	movq	%rcx, -408(%rbp)        # 8-byte Spill
	leaq	20(%rax), %rcx
	movq	%rcx, -416(%rbp)        # 8-byte Spill
	leaq	19(%rax), %rcx
	movq	%rcx, -424(%rbp)        # 8-byte Spill
	leaq	18(%rax), %rcx
	movq	%rcx, -432(%rbp)        # 8-byte Spill
	leaq	16(%rax), %rcx
	movq	%rcx, -440(%rbp)        # 8-byte Spill
	leaq	15(%rax), %rcx
	movq	%rcx, -448(%rbp)        # 8-byte Spill
	leaq	14(%rax), %rax
	movq	%rax, -456(%rbp)        # 8-byte Spill
	leaq	32(%rdx,%rdx), %rax
	movq	%rax, -464(%rbp)        # 8-byte Spill
	leaq	31(%rdx,%rdx), %rax
	movq	%rax, -472(%rbp)        # 8-byte Spill
	leaq	30(%rdx,%rdx), %rax
	movq	%rax, -480(%rbp)        # 8-byte Spill
	leaq	(%r14,%rdx), %rax
	movq	%rax, -296(%rbp)        # 8-byte Spill
.Ltmp186:
	#DEBUG_VALUE: susan_principle:in <- [RBP+-256]
	movl	$3, %ebx
	movl	$14, %eax
	movq	%rax, -488(%rbp)        # 8-byte Spill
	movabsq	$-5497179217924242332, %r12 # imm = 0xB3B618A068F74464
	xorl	%r15d, %r15d
	xorl	%r14d, %r14d
	jmp	.LBB6_1
.Ltmp187:
	.align	16, 0x90
.LBB6_7:                                # %for.cond4.pre_exit.for.inc287
                                        #   in Loop: Header=BB6_1 Depth=1
	#DEBUG_VALUE: susan_principle:in <- [RBP+-256]
	#DEBUG_VALUE: susan_principle:bp <- [RBP+-304]
	#DEBUG_VALUE: susan_principle:max_no <- [RBP+-240]
	#DEBUG_VALUE: susan_principle:i <- 3
	#DEBUG_VALUE: susan_principle:j <- 3
	movl	$1, %esi
	movabsq	$3634085653773543179, %rdi # imm = 0x326EDDA5DC83E70B
	callq	_KExitRegion
	movl	$122, %r14d
	movl	$122, %edi
	callq	_KPushCDep
	movl	$1, %edi
	callq	_KWork
	movq	-496(%rbp), %rbx        # 8-byte Reload
	.loc	2 422 3 is_stmt 1       # susan.c:422:3
	incq	%rbx
	movl	$126, %r15d
	movl	$126, %edi
	movl	$123, %esi
	movl	$1, %edx
	movl	$122, %ecx
	movl	$1, %r8d
	callq	_KTimestamp2
	callq	_KPopCDep
	movl	$2, %esi
	movabsq	$8909183441481442723, %rdi # imm = 0x7BA3C7231C4B25A3
	callq	_KExitRegion
	movq	-512(%rbp), %rax        # 8-byte Reload
	addq	%rax, -488(%rbp)        # 8-byte Folded Spill
	addq	%rax, -464(%rbp)        # 8-byte Folded Spill
	addq	%rax, -472(%rbp)        # 8-byte Folded Spill
	addq	%rax, -480(%rbp)        # 8-byte Folded Spill
	addq	%rax, -320(%rbp)        # 8-byte Folded Spill
	addq	%rax, -328(%rbp)        # 8-byte Folded Spill
	addq	%rax, -336(%rbp)        # 8-byte Folded Spill
	addq	%rax, -344(%rbp)        # 8-byte Folded Spill
	addq	%rax, -352(%rbp)        # 8-byte Folded Spill
	addq	%rax, -360(%rbp)        # 8-byte Folded Spill
	addq	%rax, -368(%rbp)        # 8-byte Folded Spill
	addq	%rax, -376(%rbp)        # 8-byte Folded Spill
	addq	%rax, -384(%rbp)        # 8-byte Folded Spill
	addq	%rax, -392(%rbp)        # 8-byte Folded Spill
	addq	%rax, -400(%rbp)        # 8-byte Folded Spill
	addq	%rax, -408(%rbp)        # 8-byte Folded Spill
	addq	%rax, -416(%rbp)        # 8-byte Folded Spill
	addq	%rax, -424(%rbp)        # 8-byte Folded Spill
	addq	%rax, -432(%rbp)        # 8-byte Folded Spill
	addq	%rax, -440(%rbp)        # 8-byte Folded Spill
	addq	%rax, -448(%rbp)        # 8-byte Folded Spill
	addq	%rax, -456(%rbp)        # 8-byte Folded Spill
.Ltmp188:
.LBB6_1:                                # %for.cond
                                        # =>This Loop Header: Depth=1
                                        #     Child Loop BB6_3 Depth 2
	#DEBUG_VALUE: susan_principle:in <- [RBP+-256]
	#DEBUG_VALUE: susan_principle:bp <- [RBP+-304]
	#DEBUG_VALUE: susan_principle:max_no <- [RBP+-240]
	#DEBUG_VALUE: susan_principle:i <- 3
	movl	$123, %edi
	movl	%r15d, %esi
	movl	%r14d, %edx
	callq	_KPhi1To1
	movl	$2, %edi
	callq	_KWork
	movl	$122, %edi
	movl	$123, %esi
	movl	$1, %edx
	movl	$3, %ecx
	movl	$2, %r8d
	callq	_KTimestamp2
	movl	$123, %edi
	movl	$122, %esi
	callq	_KPhiAddCond
	movl	$123, %edi
	movl	$123, %esi
	xorl	%edx, %edx
	callq	_KTimestamp1
	.loc	2 422 3 is_stmt 0       # susan.c:422:3
	cmpq	-504(%rbp), %rbx        # 8-byte Folded Reload
	jge	.LBB6_8
# BB#2:                                 # %for.body
                                        #   in Loop: Header=BB6_1 Depth=1
	#DEBUG_VALUE: susan_principle:in <- [RBP+-256]
	#DEBUG_VALUE: susan_principle:bp <- [RBP+-304]
	#DEBUG_VALUE: susan_principle:max_no <- [RBP+-240]
	#DEBUG_VALUE: susan_principle:i <- 3
	movq	%rbx, -496(%rbp)        # 8-byte Spill
	movl	$2, %esi
	movabsq	$8909183441481442723, %rdi # imm = 0x7BA3C7231C4B25A3
	callq	_KEnterRegion
	movl	$122, %edi
	callq	_KPushCDep
	#DEBUG_VALUE: susan_principle:j <- 3
	callq	_KPopCDep
	movl	$1, %esi
	movabsq	$3634085653773543179, %rdi # imm = 0x326EDDA5DC83E70B
	callq	_KEnterRegion
	xorl	%ebx, %ebx
	movq	-456(%rbp), %rax        # 8-byte Reload
	movq	%rax, -88(%rbp)         # 8-byte Spill
	movq	-448(%rbp), %rax        # 8-byte Reload
	movq	%rax, -96(%rbp)         # 8-byte Spill
	movq	-440(%rbp), %rax        # 8-byte Reload
	movq	%rax, -104(%rbp)        # 8-byte Spill
	movq	-432(%rbp), %rax        # 8-byte Reload
	movq	%rax, -112(%rbp)        # 8-byte Spill
	movq	-424(%rbp), %rax        # 8-byte Reload
	movq	%rax, -120(%rbp)        # 8-byte Spill
	movq	-416(%rbp), %rax        # 8-byte Reload
	movq	%rax, -72(%rbp)         # 8-byte Spill
	movq	-408(%rbp), %rax        # 8-byte Reload
	movq	%rax, -128(%rbp)        # 8-byte Spill
	movq	-400(%rbp), %rax        # 8-byte Reload
	movq	%rax, -136(%rbp)        # 8-byte Spill
	movq	-392(%rbp), %rax        # 8-byte Reload
	movq	%rax, -144(%rbp)        # 8-byte Spill
	movq	-384(%rbp), %rax        # 8-byte Reload
	movq	%rax, -152(%rbp)        # 8-byte Spill
	movq	-376(%rbp), %rax        # 8-byte Reload
	movq	%rax, -160(%rbp)        # 8-byte Spill
	movq	-368(%rbp), %rax        # 8-byte Reload
	movq	%rax, -168(%rbp)        # 8-byte Spill
	movq	-360(%rbp), %rax        # 8-byte Reload
	movq	%rax, -64(%rbp)         # 8-byte Spill
	movq	-352(%rbp), %rax        # 8-byte Reload
	movq	%rax, -176(%rbp)        # 8-byte Spill
	movq	-344(%rbp), %rax        # 8-byte Reload
	movq	%rax, -184(%rbp)        # 8-byte Spill
	movq	-336(%rbp), %rax        # 8-byte Reload
	movq	%rax, -192(%rbp)        # 8-byte Spill
	movq	-328(%rbp), %rax        # 8-byte Reload
	movq	%rax, -200(%rbp)        # 8-byte Spill
	movq	-320(%rbp), %rax        # 8-byte Reload
	movq	%rax, -80(%rbp)         # 8-byte Spill
	movq	-480(%rbp), %rax        # 8-byte Reload
	movq	%rax, -208(%rbp)        # 8-byte Spill
	movq	-472(%rbp), %rax        # 8-byte Reload
	movq	%rax, -216(%rbp)        # 8-byte Spill
	movq	-464(%rbp), %rax        # 8-byte Reload
	movq	%rax, -224(%rbp)        # 8-byte Spill
	movq	-488(%rbp), %r14        # 8-byte Reload
	xorl	%r15d, %r15d
	movl	$3, %r13d
	jmp	.LBB6_3
	.align	16, 0x90
.LBB6_6:                                # %for.inc
                                        #   in Loop: Header=BB6_3 Depth=2
	#DEBUG_VALUE: susan_principle:in <- [RBP+-256]
	#DEBUG_VALUE: susan_principle:bp <- [RBP+-304]
	#DEBUG_VALUE: susan_principle:max_no <- [RBP+-240]
	#DEBUG_VALUE: susan_principle:i <- 3
	#DEBUG_VALUE: susan_principle:j <- 3
	movl	$124, %ebx
	movl	$124, %edi
	callq	_KPushCDep
	movl	$1, %edi
	callq	_KWork
	movq	-232(%rbp), %r13        # 8-byte Reload
	.loc	2 424 5 is_stmt 1       # susan.c:424:5
.Ltmp189:
	incq	%r13
	movl	$127, %r15d
	movl	$127, %edi
	movl	$125, %esi
	movl	$1, %edx
	movl	$124, %ecx
	movl	$1, %r8d
	callq	_KTimestamp2
	callq	_KPopCDep
	movl	$2, %esi
	movabsq	$-5497179217924242332, %r12 # imm = 0xB3B618A068F74464
	movq	%r12, %rdi
	callq	_KExitRegion
	incq	%r14
	incq	-224(%rbp)              # 8-byte Folded Spill
	incq	-216(%rbp)              # 8-byte Folded Spill
	incq	-208(%rbp)              # 8-byte Folded Spill
	incq	-80(%rbp)               # 8-byte Folded Spill
	incq	-200(%rbp)              # 8-byte Folded Spill
	incq	-192(%rbp)              # 8-byte Folded Spill
	incq	-184(%rbp)              # 8-byte Folded Spill
	incq	-176(%rbp)              # 8-byte Folded Spill
	incq	-64(%rbp)               # 8-byte Folded Spill
	incq	-168(%rbp)              # 8-byte Folded Spill
	incq	-160(%rbp)              # 8-byte Folded Spill
	incq	-152(%rbp)              # 8-byte Folded Spill
	incq	-144(%rbp)              # 8-byte Folded Spill
	incq	-136(%rbp)              # 8-byte Folded Spill
	incq	-128(%rbp)              # 8-byte Folded Spill
	incq	-72(%rbp)               # 8-byte Folded Spill
	incq	-120(%rbp)              # 8-byte Folded Spill
	incq	-112(%rbp)              # 8-byte Folded Spill
	incq	-104(%rbp)              # 8-byte Folded Spill
	incq	-96(%rbp)               # 8-byte Folded Spill
	incq	-88(%rbp)               # 8-byte Folded Spill
.Ltmp190:
.LBB6_3:                                # %for.cond4
                                        #   Parent Loop BB6_1 Depth=1
                                        # =>  This Inner Loop Header: Depth=2
	#DEBUG_VALUE: susan_principle:in <- [RBP+-256]
	#DEBUG_VALUE: susan_principle:bp <- [RBP+-304]
	#DEBUG_VALUE: susan_principle:max_no <- [RBP+-240]
	#DEBUG_VALUE: susan_principle:i <- 3
	#DEBUG_VALUE: susan_principle:j <- 3
	movl	$122, %edi
	callq	_KPushCDep
	movl	$125, %edi
	movl	$122, %edx
	movl	%r15d, %esi
	movl	%ebx, %ecx
	callq	_KPhi2To1
	movl	$2, %edi
	callq	_KWork
	movl	$2, (%rsp)
	movl	$124, %edi
	movl	$122, %esi
	movl	$2, %edx
	movl	$125, %ecx
	movl	$1, %r8d
	movl	$2, %r9d
	callq	_KTimestamp3
	movl	$125, %edi
	movl	$124, %esi
	callq	_KPhiAddCond
	movl	$125, %edi
	movl	$125, %esi
	xorl	%edx, %edx
	callq	_KTimestamp1
	callq	_KPopCDep
	.loc	2 424 5 is_stmt 0       # susan.c:424:5
	cmpq	-248(%rbp), %r13        # 8-byte Folded Reload
	jge	.LBB6_7
# BB#4:                                 # %for.body8
                                        #   in Loop: Header=BB6_3 Depth=2
	#DEBUG_VALUE: susan_principle:in <- [RBP+-256]
	#DEBUG_VALUE: susan_principle:bp <- [RBP+-304]
	#DEBUG_VALUE: susan_principle:max_no <- [RBP+-240]
	#DEBUG_VALUE: susan_principle:i <- 3
	#DEBUG_VALUE: susan_principle:j <- 3
	movq	%r13, -232(%rbp)        # 8-byte Spill
	movl	$2, %esi
	movq	%r12, %rdi
	callq	_KEnterRegion
	movl	$124, %edi
	callq	_KPushCDep
	movl	$377, %edi              # imm = 0x179
	callq	_KWork
.Ltmp191:
	#DEBUG_VALUE: susan_principle:n <- 100
	movq	-264(%rbp), %rbx        # 8-byte Reload
	leaq	-11(%rbx,%r14), %rdi
	movl	$5, %esi
	movl	$6, %edx
	movl	$1, %ecx
	callq	_KLoad1
	.loc	2 427 10 is_stmt 1      # susan.c:427:10
.Ltmp192:
	movzbl	-11(%rbx,%r14), %r15d
	movq	%r15, -48(%rbp)         # 8-byte Spill
	movq	%r14, -56(%rbp)         # 8-byte Spill
	movq	-256(%rbp), %r14        # 8-byte Reload
.Ltmp193:
	#DEBUG_VALUE: susan_principle:in <- R14
	movq	-56(%rbp), %rax         # 8-byte Reload
	leaq	-12(%r14,%rax), %rdi
	movl	$7, %esi
	movl	$1, %edx
	callq	_KLoad0
	.loc	2 429 12                # susan.c:429:12
	movq	-56(%rbp), %rax         # 8-byte Reload
	movzbl	-12(%r14,%rax), %eax
	movq	%r15, %rbx
	movq	%r15, %r13
	subq	%rax, %rbx
	movq	-304(%rbp), %r12        # 8-byte Reload
.Ltmp194:
	#DEBUG_VALUE: susan_principle:bp <- R12
	leaq	(%r12,%rbx), %rdi
	movl	$8, %esi
	movl	$9, %edx
	movl	$1, %ecx
	callq	_KLoad1
	.loc	2 429 10 is_stmt 0      # susan.c:429:10
	movzbl	(%r12,%rbx), %ebx
	movq	-56(%rbp), %rax         # 8-byte Reload
	leaq	-11(%r14,%rax), %rdi
	movl	$10, %esi
	movl	$1, %edx
	callq	_KLoad0
	.loc	2 430 12 is_stmt 1      # susan.c:430:12
	movq	-56(%rbp), %rax         # 8-byte Reload
	movzbl	-11(%r14,%rax), %eax
	movq	%r13, %r15
	subq	%rax, %r15
	leaq	(%r12,%r15), %rdi
	movl	$11, %esi
	movl	$12, %edx
	movl	$1, %ecx
	callq	_KLoad1
	.loc	2 430 10 is_stmt 0      # susan.c:430:10
	movzbl	(%r12,%r15), %r15d
	.loc	2 429 7 is_stmt 1       # susan.c:429:7
	addl	%ebx, %r15d
	movq	-56(%rbp), %rax         # 8-byte Reload
	leaq	-10(%r14,%rax), %rdi
	movl	$13, %esi
	movl	$1, %edx
	callq	_KLoad0
	.loc	2 431 12                # susan.c:431:12
	movq	-56(%rbp), %rax         # 8-byte Reload
	movzbl	-10(%r14,%rax), %eax
.Ltmp195:
	#DEBUG_VALUE: susan_principle:in <- [RBP+-256]
	movq	%r13, %rbx
	subq	%rax, %rbx
	leaq	(%r12,%rbx), %rdi
	movl	$14, %esi
	movl	$15, %edx
	movl	$1, %ecx
	callq	_KLoad1
	.loc	2 431 10 is_stmt 0      # susan.c:431:10
	movzbl	(%r12,%rbx), %r14d
	.loc	2 430 7 is_stmt 1       # susan.c:430:7
	addl	%r15d, %r14d
	movq	-296(%rbp), %r13        # 8-byte Reload
	movq	-56(%rbp), %rax         # 8-byte Reload
	leaq	-10(%r13,%rax), %rdi
	movl	$16, %esi
	movl	$17, %edx
	movl	$1, %ecx
	callq	_KLoad1
	.loc	2 434 12                # susan.c:434:12
	movq	-56(%rbp), %rax         # 8-byte Reload
	movzbl	-10(%r13,%rax), %eax
	movq	-48(%rbp), %rbx         # 8-byte Reload
	subq	%rax, %rbx
	leaq	(%r12,%rbx), %rdi
	movl	$18, %esi
	movl	$19, %edx
	movl	$1, %ecx
	callq	_KLoad1
	.loc	2 434 10 is_stmt 0      # susan.c:434:10
	movzbl	(%r12,%rbx), %r15d
	.loc	2 431 7 is_stmt 1       # susan.c:431:7
	addl	%r14d, %r15d
	movq	-56(%rbp), %rax         # 8-byte Reload
	leaq	-9(%r13,%rax), %rdi
	movl	$20, %esi
	movl	$1, %edx
	callq	_KLoad0
	.loc	2 435 12                # susan.c:435:12
	movq	-56(%rbp), %rax         # 8-byte Reload
	movzbl	-9(%r13,%rax), %eax
	movq	-48(%rbp), %rbx         # 8-byte Reload
	subq	%rax, %rbx
	leaq	(%r12,%rbx), %rdi
	movl	$21, %esi
	movl	$22, %edx
	movl	$1, %ecx
	callq	_KLoad1
	.loc	2 435 10 is_stmt 0      # susan.c:435:10
	movzbl	(%r12,%rbx), %r14d
	.loc	2 434 7 is_stmt 1       # susan.c:434:7
	addl	%r15d, %r14d
	movq	-56(%rbp), %rax         # 8-byte Reload
	leaq	-8(%r13,%rax), %rdi
	movl	$23, %esi
	movl	$1, %edx
	callq	_KLoad0
	.loc	2 436 12                # susan.c:436:12
	movq	-56(%rbp), %rax         # 8-byte Reload
	movzbl	-8(%r13,%rax), %eax
	movq	-48(%rbp), %rbx         # 8-byte Reload
	subq	%rax, %rbx
	leaq	(%r12,%rbx), %rdi
	movl	$24, %esi
	movl	$25, %edx
	movl	$1, %ecx
	callq	_KLoad1
	.loc	2 436 10 is_stmt 0      # susan.c:436:10
	movzbl	(%r12,%rbx), %r15d
	.loc	2 435 7 is_stmt 1       # susan.c:435:7
	addl	%r14d, %r15d
	movq	-56(%rbp), %rax         # 8-byte Reload
	leaq	-7(%r13,%rax), %rdi
	movl	$26, %esi
	movl	$1, %edx
	callq	_KLoad0
	.loc	2 437 12                # susan.c:437:12
	movq	-56(%rbp), %rax         # 8-byte Reload
	movzbl	-7(%r13,%rax), %eax
	movq	-48(%rbp), %rbx         # 8-byte Reload
	subq	%rax, %rbx
	leaq	(%r12,%rbx), %rdi
	movl	$27, %esi
	movl	$28, %edx
	movl	$1, %ecx
	callq	_KLoad1
	.loc	2 437 10 is_stmt 0      # susan.c:437:10
	movzbl	(%r12,%rbx), %r14d
	.loc	2 436 7 is_stmt 1       # susan.c:436:7
	addl	%r15d, %r14d
	movq	-56(%rbp), %rax         # 8-byte Reload
	leaq	-6(%r13,%rax), %rdi
	movl	$29, %esi
	movl	$1, %edx
	callq	_KLoad0
	.loc	2 438 12                # susan.c:438:12
	movq	-56(%rbp), %rax         # 8-byte Reload
	movzbl	-6(%r13,%rax), %eax
	movq	-48(%rbp), %rbx         # 8-byte Reload
	subq	%rax, %rbx
	leaq	(%r12,%rbx), %rdi
	movl	$30, %esi
	movl	$31, %edx
	movl	$1, %ecx
	callq	_KLoad1
	.loc	2 438 10 is_stmt 0      # susan.c:438:10
	movzbl	(%r12,%rbx), %r15d
	.loc	2 437 7 is_stmt 1       # susan.c:437:7
	addl	%r14d, %r15d
	movq	-272(%rbp), %r13        # 8-byte Reload
	movq	-56(%rbp), %rax         # 8-byte Reload
	leaq	-6(%r13,%rax), %rdi
	movl	$32, %esi
	movl	$33, %edx
	movl	$1, %ecx
	callq	_KLoad1
	.loc	2 441 12                # susan.c:441:12
	movq	-56(%rbp), %rax         # 8-byte Reload
	movzbl	-6(%r13,%rax), %eax
	movq	-48(%rbp), %rbx         # 8-byte Reload
	subq	%rax, %rbx
	leaq	(%r12,%rbx), %rdi
	movl	$34, %esi
	movl	$35, %edx
	movl	$1, %ecx
	callq	_KLoad1
	.loc	2 441 10 is_stmt 0      # susan.c:441:10
	movzbl	(%r12,%rbx), %r14d
	.loc	2 438 7 is_stmt 1       # susan.c:438:7
	addl	%r15d, %r14d
	movq	-56(%rbp), %rax         # 8-byte Reload
	leaq	-5(%r13,%rax), %rdi
	movl	$36, %esi
	movl	$1, %edx
	callq	_KLoad0
	.loc	2 442 12                # susan.c:442:12
	movq	-56(%rbp), %rax         # 8-byte Reload
	movzbl	-5(%r13,%rax), %eax
	movq	-48(%rbp), %rbx         # 8-byte Reload
	subq	%rax, %rbx
	leaq	(%r12,%rbx), %rdi
	movl	$37, %esi
	movl	$38, %edx
	movl	$1, %ecx
	callq	_KLoad1
	.loc	2 442 10 is_stmt 0      # susan.c:442:10
	movzbl	(%r12,%rbx), %r15d
	.loc	2 441 7 is_stmt 1       # susan.c:441:7
	addl	%r14d, %r15d
	movq	-56(%rbp), %rax         # 8-byte Reload
	leaq	-4(%r13,%rax), %rdi
	movl	$39, %esi
	movl	$1, %edx
	callq	_KLoad0
	.loc	2 443 12                # susan.c:443:12
	movq	-56(%rbp), %rax         # 8-byte Reload
	movzbl	-4(%r13,%rax), %eax
	movq	-48(%rbp), %rbx         # 8-byte Reload
	subq	%rax, %rbx
	leaq	(%r12,%rbx), %rdi
	movl	$40, %esi
	movl	$41, %edx
	movl	$1, %ecx
	callq	_KLoad1
	.loc	2 443 10 is_stmt 0      # susan.c:443:10
	movzbl	(%r12,%rbx), %r14d
	.loc	2 442 7 is_stmt 1       # susan.c:442:7
	addl	%r15d, %r14d
	movq	-56(%rbp), %rax         # 8-byte Reload
	leaq	-3(%r13,%rax), %rdi
	movl	$42, %esi
	movl	$1, %edx
	callq	_KLoad0
	.loc	2 444 12                # susan.c:444:12
	movq	-56(%rbp), %rax         # 8-byte Reload
	movzbl	-3(%r13,%rax), %eax
	movq	-48(%rbp), %rbx         # 8-byte Reload
	subq	%rax, %rbx
	leaq	(%r12,%rbx), %rdi
	movl	$43, %esi
	movl	$44, %edx
	movl	$1, %ecx
	callq	_KLoad1
	.loc	2 444 10 is_stmt 0      # susan.c:444:10
	movzbl	(%r12,%rbx), %r15d
	.loc	2 443 7 is_stmt 1       # susan.c:443:7
	addl	%r14d, %r15d
	movq	-56(%rbp), %rax         # 8-byte Reload
	leaq	-2(%r13,%rax), %rdi
	movl	$45, %esi
	movl	$1, %edx
	callq	_KLoad0
	.loc	2 445 12                # susan.c:445:12
	movq	-56(%rbp), %rax         # 8-byte Reload
	movzbl	-2(%r13,%rax), %eax
	movq	-48(%rbp), %rbx         # 8-byte Reload
	subq	%rax, %rbx
	leaq	(%r12,%rbx), %rdi
	movl	$46, %esi
	movl	$47, %edx
	movl	$1, %ecx
	callq	_KLoad1
	.loc	2 445 10 is_stmt 0      # susan.c:445:10
	movzbl	(%r12,%rbx), %r14d
	.loc	2 444 7 is_stmt 1       # susan.c:444:7
	addl	%r15d, %r14d
	movq	-56(%rbp), %rax         # 8-byte Reload
	leaq	-1(%r13,%rax), %rdi
	movl	$48, %esi
	movl	$1, %edx
	callq	_KLoad0
	.loc	2 446 12                # susan.c:446:12
	movq	-56(%rbp), %rax         # 8-byte Reload
	movzbl	-1(%r13,%rax), %eax
	movq	-48(%rbp), %rbx         # 8-byte Reload
	subq	%rax, %rbx
	leaq	(%r12,%rbx), %rdi
	movl	$49, %esi
	movl	$50, %edx
	movl	$1, %ecx
	callq	_KLoad1
	.loc	2 446 10 is_stmt 0      # susan.c:446:10
	movzbl	(%r12,%rbx), %r15d
	.loc	2 445 7 is_stmt 1       # susan.c:445:7
	addl	%r14d, %r15d
	movq	-56(%rbp), %rax         # 8-byte Reload
	leaq	(%r13,%rax), %rdi
	movl	$51, %esi
	movl	$1, %edx
	callq	_KLoad0
	.loc	2 447 12                # susan.c:447:12
	movq	-56(%rbp), %rax         # 8-byte Reload
	movzbl	(%r13,%rax), %eax
	movq	-48(%rbp), %rbx         # 8-byte Reload
	subq	%rax, %rbx
	leaq	(%r12,%rbx), %rdi
	movl	$52, %esi
	movl	$53, %edx
	movl	$1, %ecx
	callq	_KLoad1
	.loc	2 447 10 is_stmt 0      # susan.c:447:10
	movzbl	(%r12,%rbx), %r14d
	.loc	2 446 7 is_stmt 1       # susan.c:446:7
	addl	%r15d, %r14d
	movq	-88(%rbp), %rax         # 8-byte Reload
	leaq	(%r13,%rax), %rdi
	movl	$54, %esi
	movl	$55, %edx
	movl	$1, %ecx
	callq	_KLoad1
	.loc	2 450 12                # susan.c:450:12
	movq	-72(%rbp), %rax         # 8-byte Reload
	movzbl	-6(%r13,%rax), %eax
	movq	-48(%rbp), %rbx         # 8-byte Reload
	subq	%rax, %rbx
	leaq	(%r12,%rbx), %rdi
	movl	$56, %esi
	movl	$57, %edx
	movl	$1, %ecx
	callq	_KLoad1
	.loc	2 450 10 is_stmt 0      # susan.c:450:10
	movzbl	(%r12,%rbx), %r15d
	.loc	2 447 7 is_stmt 1       # susan.c:447:7
	addl	%r14d, %r15d
	movq	-96(%rbp), %rax         # 8-byte Reload
	leaq	(%r13,%rax), %rdi
	movl	$58, %esi
	movl	$1, %edx
	callq	_KLoad0
	.loc	2 451 12                # susan.c:451:12
	movq	-72(%rbp), %rax         # 8-byte Reload
	movzbl	-5(%r13,%rax), %eax
	movq	-48(%rbp), %rbx         # 8-byte Reload
	subq	%rax, %rbx
	leaq	(%r12,%rbx), %rdi
	movl	$59, %esi
	movl	$60, %edx
	movl	$1, %ecx
	callq	_KLoad1
	.loc	2 451 10 is_stmt 0      # susan.c:451:10
	movzbl	(%r12,%rbx), %r14d
	.loc	2 450 7 is_stmt 1       # susan.c:450:7
	addl	%r15d, %r14d
	movq	-104(%rbp), %rax        # 8-byte Reload
	leaq	(%r13,%rax), %rdi
	movl	$61, %esi
	movl	$1, %edx
	callq	_KLoad0
	.loc	2 452 12                # susan.c:452:12
	movq	-72(%rbp), %rax         # 8-byte Reload
	movzbl	-4(%r13,%rax), %eax
	movq	-48(%rbp), %rbx         # 8-byte Reload
	subq	%rax, %rbx
	leaq	(%r12,%rbx), %rdi
	movl	$62, %esi
	movl	$63, %edx
	movl	$1, %ecx
	callq	_KLoad1
	.loc	2 452 10 is_stmt 0      # susan.c:452:10
	movzbl	(%r12,%rbx), %r15d
	.loc	2 451 7 is_stmt 1       # susan.c:451:7
	addl	%r14d, %r15d
	movq	-112(%rbp), %rax        # 8-byte Reload
	leaq	(%r13,%rax), %rdi
	movl	$64, %esi
	movl	$1, %edx
	callq	_KLoad0
	.loc	2 454 12                # susan.c:454:12
	movq	-72(%rbp), %rax         # 8-byte Reload
	movzbl	-2(%r13,%rax), %eax
	movq	-48(%rbp), %rbx         # 8-byte Reload
	subq	%rax, %rbx
	leaq	(%r12,%rbx), %rdi
	movl	$65, %esi
	movl	$66, %edx
	movl	$1, %ecx
	callq	_KLoad1
	.loc	2 454 10 is_stmt 0      # susan.c:454:10
	movzbl	(%r12,%rbx), %r14d
	.loc	2 452 7 is_stmt 1       # susan.c:452:7
	addl	%r15d, %r14d
	movq	-120(%rbp), %rax        # 8-byte Reload
	leaq	(%r13,%rax), %rdi
	movl	$67, %esi
	movl	$1, %edx
	callq	_KLoad0
	.loc	2 455 12                # susan.c:455:12
	movq	-72(%rbp), %rax         # 8-byte Reload
	movzbl	-1(%r13,%rax), %eax
	movq	-48(%rbp), %rbx         # 8-byte Reload
	subq	%rax, %rbx
	leaq	(%r12,%rbx), %rdi
	movl	$68, %esi
	movl	$69, %edx
	movl	$1, %ecx
	callq	_KLoad1
	.loc	2 455 10 is_stmt 0      # susan.c:455:10
	movzbl	(%r12,%rbx), %r15d
	.loc	2 454 7 is_stmt 1       # susan.c:454:7
	addl	%r14d, %r15d
	movq	-72(%rbp), %rbx         # 8-byte Reload
	leaq	(%r13,%rbx), %rdi
	movl	$70, %esi
	movl	$1, %edx
	callq	_KLoad0
	.loc	2 456 12                # susan.c:456:12
	movzbl	(%r13,%rbx), %eax
	movq	-48(%rbp), %rbx         # 8-byte Reload
	subq	%rax, %rbx
	leaq	(%r12,%rbx), %rdi
	movl	$71, %esi
	movl	$72, %edx
	movl	$1, %ecx
	callq	_KLoad1
	.loc	2 456 10 is_stmt 0      # susan.c:456:10
	movzbl	(%r12,%rbx), %r14d
	.loc	2 455 7 is_stmt 1       # susan.c:455:7
	addl	%r15d, %r14d
	movq	-128(%rbp), %rax        # 8-byte Reload
	leaq	(%r13,%rax), %rdi
	movl	$73, %esi
	movl	$74, %edx
	movl	$1, %ecx
	callq	_KLoad1
	.loc	2 459 12                # susan.c:459:12
	movq	-64(%rbp), %rax         # 8-byte Reload
	movzbl	-6(%r13,%rax), %eax
	movq	-48(%rbp), %rbx         # 8-byte Reload
	subq	%rax, %rbx
	leaq	(%r12,%rbx), %rdi
	movl	$75, %esi
	movl	$76, %edx
	movl	$1, %ecx
	callq	_KLoad1
	.loc	2 459 10 is_stmt 0      # susan.c:459:10
	movzbl	(%r12,%rbx), %r15d
	.loc	2 456 7 is_stmt 1       # susan.c:456:7
	addl	%r14d, %r15d
	movq	-136(%rbp), %rax        # 8-byte Reload
	leaq	(%r13,%rax), %rdi
	movl	$77, %esi
	movl	$1, %edx
	callq	_KLoad0
	.loc	2 460 12                # susan.c:460:12
	movq	-64(%rbp), %rax         # 8-byte Reload
	movzbl	-5(%r13,%rax), %eax
	movq	-48(%rbp), %rbx         # 8-byte Reload
	subq	%rax, %rbx
	leaq	(%r12,%rbx), %rdi
	movl	$78, %esi
	movl	$79, %edx
	movl	$1, %ecx
	callq	_KLoad1
	.loc	2 460 10 is_stmt 0      # susan.c:460:10
	movzbl	(%r12,%rbx), %r14d
	.loc	2 459 7 is_stmt 1       # susan.c:459:7
	addl	%r15d, %r14d
	movq	-144(%rbp), %rax        # 8-byte Reload
	leaq	(%r13,%rax), %rdi
	movl	$80, %esi
	movl	$1, %edx
	callq	_KLoad0
	.loc	2 461 12                # susan.c:461:12
	movq	-64(%rbp), %rax         # 8-byte Reload
	movzbl	-4(%r13,%rax), %eax
	movq	-48(%rbp), %rbx         # 8-byte Reload
	subq	%rax, %rbx
	leaq	(%r12,%rbx), %rdi
	movl	$81, %esi
	movl	$82, %edx
	movl	$1, %ecx
	callq	_KLoad1
	.loc	2 461 10 is_stmt 0      # susan.c:461:10
	movzbl	(%r12,%rbx), %r15d
	.loc	2 460 7 is_stmt 1       # susan.c:460:7
	addl	%r14d, %r15d
	movq	-152(%rbp), %rax        # 8-byte Reload
	leaq	(%r13,%rax), %rdi
	movl	$83, %esi
	movl	$1, %edx
	callq	_KLoad0
	.loc	2 462 12                # susan.c:462:12
	movq	-64(%rbp), %rax         # 8-byte Reload
	movzbl	-3(%r13,%rax), %eax
	movq	-48(%rbp), %rbx         # 8-byte Reload
	subq	%rax, %rbx
	leaq	(%r12,%rbx), %rdi
	movl	$84, %esi
	movl	$85, %edx
	movl	$1, %ecx
	callq	_KLoad1
	.loc	2 462 10 is_stmt 0      # susan.c:462:10
	movzbl	(%r12,%rbx), %r14d
	.loc	2 461 7 is_stmt 1       # susan.c:461:7
	addl	%r15d, %r14d
	movq	-160(%rbp), %rax        # 8-byte Reload
	leaq	(%r13,%rax), %rdi
	movl	$86, %esi
	movl	$1, %edx
	callq	_KLoad0
	.loc	2 463 12                # susan.c:463:12
	movq	-64(%rbp), %rax         # 8-byte Reload
	movzbl	-2(%r13,%rax), %eax
	movq	-48(%rbp), %rbx         # 8-byte Reload
	subq	%rax, %rbx
	leaq	(%r12,%rbx), %rdi
	movl	$87, %esi
	movl	$88, %edx
	movl	$1, %ecx
	callq	_KLoad1
	.loc	2 463 10 is_stmt 0      # susan.c:463:10
	movzbl	(%r12,%rbx), %r15d
	.loc	2 462 7 is_stmt 1       # susan.c:462:7
	addl	%r14d, %r15d
	movq	-168(%rbp), %rax        # 8-byte Reload
	leaq	(%r13,%rax), %rdi
	movl	$89, %esi
	movl	$1, %edx
	callq	_KLoad0
	.loc	2 464 12                # susan.c:464:12
	movq	-64(%rbp), %rax         # 8-byte Reload
	movzbl	-1(%r13,%rax), %eax
	movq	-48(%rbp), %rbx         # 8-byte Reload
	subq	%rax, %rbx
	leaq	(%r12,%rbx), %rdi
	movl	$90, %esi
	movl	$91, %edx
	movl	$1, %ecx
	callq	_KLoad1
	.loc	2 464 10 is_stmt 0      # susan.c:464:10
	movzbl	(%r12,%rbx), %r14d
	.loc	2 463 7 is_stmt 1       # susan.c:463:7
	addl	%r15d, %r14d
	movq	-64(%rbp), %rbx         # 8-byte Reload
	leaq	(%r13,%rbx), %rdi
	movl	$92, %esi
	movl	$1, %edx
	callq	_KLoad0
	.loc	2 465 12                # susan.c:465:12
	movzbl	(%r13,%rbx), %eax
	movq	-48(%rbp), %rbx         # 8-byte Reload
	subq	%rax, %rbx
	leaq	(%r12,%rbx), %rdi
	movl	$93, %esi
	movl	$94, %edx
	movl	$1, %ecx
	callq	_KLoad1
	.loc	2 465 10 is_stmt 0      # susan.c:465:10
	movzbl	(%r12,%rbx), %r15d
	.loc	2 464 7 is_stmt 1       # susan.c:464:7
	addl	%r14d, %r15d
	movq	-288(%rbp), %r13        # 8-byte Reload
	movq	-176(%rbp), %rax        # 8-byte Reload
	leaq	(%r13,%rax), %rdi
	movl	$95, %esi
	movl	$96, %edx
	movl	$1, %ecx
	callq	_KLoad1
	.loc	2 468 12                # susan.c:468:12
	movq	-80(%rbp), %rax         # 8-byte Reload
	movzbl	-4(%r13,%rax), %eax
	movq	-48(%rbp), %rbx         # 8-byte Reload
	subq	%rax, %rbx
	leaq	(%r12,%rbx), %rdi
	movl	$97, %esi
	movl	$98, %edx
	movl	$1, %ecx
	callq	_KLoad1
	.loc	2 468 10 is_stmt 0      # susan.c:468:10
	movzbl	(%r12,%rbx), %r14d
	.loc	2 465 7 is_stmt 1       # susan.c:465:7
	addl	%r15d, %r14d
	movq	-184(%rbp), %rax        # 8-byte Reload
	leaq	(%r13,%rax), %rdi
	movl	$99, %esi
	movl	$1, %edx
	callq	_KLoad0
	.loc	2 469 12                # susan.c:469:12
	movq	-80(%rbp), %rax         # 8-byte Reload
	movzbl	-3(%r13,%rax), %eax
	movq	-48(%rbp), %rbx         # 8-byte Reload
	subq	%rax, %rbx
	leaq	(%r12,%rbx), %rdi
	movl	$100, %esi
	movl	$101, %edx
	movl	$1, %ecx
	callq	_KLoad1
	.loc	2 469 10 is_stmt 0      # susan.c:469:10
	movzbl	(%r12,%rbx), %r15d
	.loc	2 468 7 is_stmt 1       # susan.c:468:7
	addl	%r14d, %r15d
	movq	-192(%rbp), %rax        # 8-byte Reload
	leaq	(%r13,%rax), %rdi
	movl	$102, %esi
	movl	$1, %edx
	callq	_KLoad0
	.loc	2 470 12                # susan.c:470:12
	movq	-80(%rbp), %rax         # 8-byte Reload
	movzbl	-2(%r13,%rax), %eax
	movq	-48(%rbp), %rbx         # 8-byte Reload
	subq	%rax, %rbx
	leaq	(%r12,%rbx), %rdi
	movl	$103, %esi
	movl	$104, %edx
	movl	$1, %ecx
	callq	_KLoad1
	.loc	2 470 10 is_stmt 0      # susan.c:470:10
	movzbl	(%r12,%rbx), %r14d
	.loc	2 469 7 is_stmt 1       # susan.c:469:7
	addl	%r15d, %r14d
	movq	-200(%rbp), %rax        # 8-byte Reload
	leaq	(%r13,%rax), %rdi
	movl	$105, %esi
	movl	$1, %edx
	callq	_KLoad0
	.loc	2 471 12                # susan.c:471:12
	movq	-80(%rbp), %rax         # 8-byte Reload
	movzbl	-1(%r13,%rax), %eax
	movq	-48(%rbp), %rbx         # 8-byte Reload
	subq	%rax, %rbx
	leaq	(%r12,%rbx), %rdi
	movl	$106, %esi
	movl	$107, %edx
	movl	$1, %ecx
	callq	_KLoad1
	.loc	2 471 10 is_stmt 0      # susan.c:471:10
	movzbl	(%r12,%rbx), %r15d
	.loc	2 470 7 is_stmt 1       # susan.c:470:7
	addl	%r14d, %r15d
	movq	-80(%rbp), %rbx         # 8-byte Reload
	leaq	(%r13,%rbx), %rdi
	movl	$108, %esi
	movl	$1, %edx
	callq	_KLoad0
	.loc	2 472 12                # susan.c:472:12
	movzbl	(%r13,%rbx), %eax
	movq	-48(%rbp), %rbx         # 8-byte Reload
	subq	%rax, %rbx
	leaq	(%r12,%rbx), %rdi
	movl	$109, %esi
	movl	$110, %edx
	movl	$1, %ecx
	callq	_KLoad1
	.loc	2 472 10 is_stmt 0      # susan.c:472:10
	movzbl	(%r12,%rbx), %eax
	.loc	2 471 7 is_stmt 1       # susan.c:471:7
	addl	%r15d, %eax
	movl	%eax, -236(%rbp)        # 4-byte Spill
	movq	-280(%rbp), %r13        # 8-byte Reload
	movq	-208(%rbp), %rax        # 8-byte Reload
	leaq	(%r13,%rax), %rdi
	movl	$111, %esi
	movl	$112, %edx
	movl	$1, %ecx
	callq	_KLoad1
	movq	-224(%rbp), %r14        # 8-byte Reload
	.loc	2 475 12                # susan.c:475:12
	movzbl	-2(%r13,%r14), %eax
	movq	-48(%rbp), %rbx         # 8-byte Reload
	subq	%rax, %rbx
	leaq	(%r12,%rbx), %rdi
	movl	$113, %esi
	movl	$114, %edx
	movl	$1, %ecx
	callq	_KLoad1
	.loc	2 475 10 is_stmt 0      # susan.c:475:10
	movzbl	(%r12,%rbx), %r15d
	.loc	2 472 7 is_stmt 1       # susan.c:472:7
	addl	-236(%rbp), %r15d       # 4-byte Folded Reload
	movq	-216(%rbp), %rax        # 8-byte Reload
	leaq	(%r13,%rax), %rdi
	movl	$115, %esi
	movl	$1, %edx
	callq	_KLoad0
	.loc	2 476 12                # susan.c:476:12
	movzbl	-1(%r13,%r14), %eax
	movq	-48(%rbp), %rbx         # 8-byte Reload
	subq	%rax, %rbx
	leaq	(%r12,%rbx), %rdi
	movl	$116, %esi
	movl	$117, %edx
	movl	$1, %ecx
	callq	_KLoad1
	.loc	2 476 10 is_stmt 0      # susan.c:476:10
	movzbl	(%r12,%rbx), %ebx
	.loc	2 475 7 is_stmt 1       # susan.c:475:7
	addl	%r15d, %ebx
	leaq	(%r13,%r14), %rdi
	movl	$118, %esi
	movl	$1, %edx
	callq	_KLoad0
	.loc	2 477 12                # susan.c:477:12
	movzbl	(%r13,%r14), %eax
	movq	-56(%rbp), %r14         # 8-byte Reload
	movq	-48(%rbp), %rcx         # 8-byte Reload
	subq	%rax, %rcx
	leaq	(%r12,%rcx), %rdi
	movq	%rcx, %r15
	movl	$119, %esi
	movl	$120, %edx
	movl	$1, %ecx
	callq	_KLoad1
	.loc	2 477 10 is_stmt 0      # susan.c:477:10
	movzbl	(%r12,%r15), %eax
.Ltmp196:
	#DEBUG_VALUE: susan_principle:bp <- [RBP+-304]
	.loc	2 477 7                 # susan.c:477:7
	leal	100(%rax,%rbx), %ebx
.Ltmp197:
	#DEBUG_VALUE: susan_principle:n <- EBX
	movl	$2, 568(%rsp)
	movl	$119, 560(%rsp)
	movl	$3, 552(%rsp)
	movl	$116, 544(%rsp)
	movl	$4, 536(%rsp)
	movl	$113, 528(%rsp)
	movl	$10, 520(%rsp)
	movl	$93, 512(%rsp)
	movl	$11, 504(%rsp)
	movl	$90, 496(%rsp)
	movl	$12, 488(%rsp)
	movl	$87, 480(%rsp)
	movl	$13, 472(%rsp)
	movl	$84, 464(%rsp)
	movl	$14, 456(%rsp)
	movl	$81, 448(%rsp)
	movl	$15, 440(%rsp)
	movl	$78, 432(%rsp)
	movl	$16, 424(%rsp)
	movl	$75, 416(%rsp)
	movl	$17, 408(%rsp)
	movl	$71, 400(%rsp)
	movl	$18, 392(%rsp)
	movl	$68, 384(%rsp)
	movl	$5, 376(%rsp)
	movl	$109, 368(%rsp)
	movl	$6, 360(%rsp)
	movl	$106, 352(%rsp)
	movl	$7, 344(%rsp)
	movl	$103, 336(%rsp)
	movl	$8, 328(%rsp)
	movl	$100, 320(%rsp)
	movl	$9, 312(%rsp)
	movl	$97, 304(%rsp)
	movl	$32, 296(%rsp)
	movl	$24, 288(%rsp)
	movl	$34, 280(%rsp)
	movl	$18, 272(%rsp)
	movl	$25, 264(%rsp)
	movl	$46, 256(%rsp)
	movl	$24, 248(%rsp)
	movl	$49, 240(%rsp)
	movl	$23, 232(%rsp)
	movl	$52, 224(%rsp)
	movl	$35, 216(%rsp)
	movl	$14, 208(%rsp)
	movl	$37, 200(%rsp)
	movl	$8, 192(%rsp)
	movl	$29, 184(%rsp)
	movl	$34, 176(%rsp)
	movl	$37, 168(%rsp)
	movl	$124, 160(%rsp)
	movl	$27, 152(%rsp)
	movl	$40, 144(%rsp)
	movl	$36, 136(%rsp)
	movl	$11, 128(%rsp)
	movl	$30, 120(%rsp)
	movl	$30, 112(%rsp)
	movl	$31, 104(%rsp)
	movl	$27, 96(%rsp)
	movl	$21, 88(%rsp)
	movl	$59, 80(%rsp)
	movl	$20, 72(%rsp)
	movl	$62, 64(%rsp)
	movl	$28, 56(%rsp)
	movl	$37, 48(%rsp)
	movl	$1, 40(%rsp)
	movl	$1, 32(%rsp)
	movl	$26, 24(%rsp)
	movl	$43, 16(%rsp)
	movl	$22, 8(%rsp)
	movl	$56, (%rsp)
	movl	$128, %edi
	movl	$38, %esi
	movl	$21, %edx
	movl	$33, %ecx
	movl	$65, %r8d
	movl	$19, %r9d
	xorl	%eax, %eax
	callq	_KTimestamp
	callq	_KPopCDep
	.loc	2 479 11 is_stmt 1      # susan.c:479:11
.Ltmp198:
	cmpl	-240(%rbp), %ebx        # 4-byte Folded Reload
	jg	.LBB6_6
.Ltmp199:
# BB#5:                                 # %if.then
                                        #   in Loop: Header=BB6_3 Depth=2
	#DEBUG_VALUE: susan_principle:in <- [RBP+-256]
	#DEBUG_VALUE: susan_principle:bp <- [RBP+-304]
	#DEBUG_VALUE: susan_principle:max_no <- [RBP+-240]
	#DEBUG_VALUE: susan_principle:i <- 3
	#DEBUG_VALUE: susan_principle:j <- 3
	#DEBUG_VALUE: susan_principle:n <- EBX
	movl	$128, %edi
	callq	_KPushCDep
	movl	$5, %edi
	callq	_KWork
	.loc	2 480 25                # susan.c:480:25
	movl	-240(%rbp), %r15d       # 4-byte Reload
	subl	%ebx, %r15d
	movl	$3, 568(%rsp)
	movl	$119, 560(%rsp)
	movl	$4, 552(%rsp)
	movl	$116, 544(%rsp)
	movl	$5, 536(%rsp)
	movl	$113, 528(%rsp)
	movl	$11, 520(%rsp)
	movl	$93, 512(%rsp)
	movl	$12, 504(%rsp)
	movl	$90, 496(%rsp)
	movl	$13, 488(%rsp)
	movl	$87, 480(%rsp)
	movl	$14, 472(%rsp)
	movl	$84, 464(%rsp)
	movl	$15, 456(%rsp)
	movl	$81, 448(%rsp)
	movl	$16, 440(%rsp)
	movl	$78, 432(%rsp)
	movl	$17, 424(%rsp)
	movl	$75, 416(%rsp)
	movl	$18, 408(%rsp)
	movl	$71, 400(%rsp)
	movl	$19, 392(%rsp)
	movl	$68, 384(%rsp)
	movl	$6, 376(%rsp)
	movl	$109, 368(%rsp)
	movl	$7, 360(%rsp)
	movl	$106, 352(%rsp)
	movl	$8, 344(%rsp)
	movl	$103, 336(%rsp)
	movl	$9, 328(%rsp)
	movl	$100, 320(%rsp)
	movl	$10, 312(%rsp)
	movl	$97, 304(%rsp)
	movl	$33, 296(%rsp)
	movl	$24, 288(%rsp)
	movl	$35, 280(%rsp)
	movl	$18, 272(%rsp)
	movl	$26, 264(%rsp)
	movl	$46, 256(%rsp)
	movl	$25, 248(%rsp)
	movl	$49, 240(%rsp)
	movl	$24, 232(%rsp)
	movl	$52, 224(%rsp)
	movl	$36, 216(%rsp)
	movl	$14, 208(%rsp)
	movl	$38, 200(%rsp)
	movl	$8, 192(%rsp)
	movl	$30, 184(%rsp)
	movl	$34, 176(%rsp)
	movl	$38, 168(%rsp)
	movl	$124, 160(%rsp)
	movl	$28, 152(%rsp)
	movl	$40, 144(%rsp)
	movl	$37, 136(%rsp)
	movl	$11, 128(%rsp)
	movl	$31, 120(%rsp)
	movl	$30, 112(%rsp)
	movl	$32, 104(%rsp)
	movl	$27, 96(%rsp)
	movl	$22, 88(%rsp)
	movl	$59, 80(%rsp)
	movl	$21, 72(%rsp)
	movl	$62, 64(%rsp)
	movl	$29, 56(%rsp)
	movl	$37, 48(%rsp)
	movl	$2, 40(%rsp)
	movl	$1, 32(%rsp)
	movl	$27, 24(%rsp)
	movl	$43, 16(%rsp)
	movl	$23, 8(%rsp)
	movl	$56, (%rsp)
	movl	$121, %edi
	movl	$38, %esi
	movl	$21, %edx
	movl	$34, %ecx
	movl	$65, %r8d
	movl	$20, %r9d
	xorl	%eax, %eax
	callq	_KTimestamp
	movq	-312(%rbp), %rbx        # 8-byte Reload
.Ltmp200:
	leaq	-11(%rbx,%r14), %rsi
	movl	$121, %edi
	movl	$1, %edx
	callq	_KStore
	.loc	2 480 9 is_stmt 0       # susan.c:480:9
	movb	%r15b, -11(%rbx,%r14)
	callq	_KPopCDep
	jmp	.LBB6_6
.Ltmp201:
.LBB6_8:                                # %for.cond.pre_exit.for.end289
	#DEBUG_VALUE: susan_principle:i <- 3
	movl	$1, %esi
	movabsq	$168965887160537462, %rdi # imm = 0x2584994435CD176
	callq	_KExitRegion
	xorl	%esi, %esi
	movabsq	$-6311205294499707348, %rdi # imm = 0xA86A18390CC7C62C
	addq	$1048, %rsp             # imm = 0x418
	popq	%rbx
	popq	%r12
	popq	%r13
	popq	%r14
	popq	%r15
	popq	%rbp
	jmp	_KExitRegion            # TAILCALL
.Ltmp202:
	.size	susan_principle, .Ltmp202-susan_principle
.Lfunc_end6:
	.cfi_endproc

	.globl	susan_principle_small
	.align	16, 0x90
	.type	susan_principle_small,@function
susan_principle_small:                  # @susan_principle_small
.Lfunc_begin7:
	.loc	2 488 0 is_stmt 1       # susan.c:488:0
	.cfi_startproc
# BB#0:                                 # %entry
	pushq	%rbp
.Ltmp203:
	.cfi_def_cfa_offset 16
.Ltmp204:
	.cfi_offset %rbp, -16
	movq	%rsp, %rbp
.Ltmp205:
	.cfi_def_cfa_register %rbp
	pushq	%r15
	pushq	%r14
	pushq	%r13
	pushq	%r12
	pushq	%rbx
	subq	$248, %rsp
.Ltmp206:
	.cfi_offset %rbx, -56
.Ltmp207:
	.cfi_offset %r12, -48
.Ltmp208:
	.cfi_offset %r13, -40
.Ltmp209:
	.cfi_offset %r14, -32
.Ltmp210:
	.cfi_offset %r15, -24
	#DEBUG_VALUE: susan_principle_small:in <- RDI
	#DEBUG_VALUE: susan_principle_small:r <- RSI
	#DEBUG_VALUE: susan_principle_small:bp <- RDX
	#DEBUG_VALUE: susan_principle_small:max_no <- ECX
	#DEBUG_VALUE: susan_principle_small:x_size <- R8D
	#DEBUG_VALUE: susan_principle_small:y_size <- R9D
	movl	%r9d, %ebx
.Ltmp211:
	#DEBUG_VALUE: susan_principle_small:y_size <- EBX
	movl	%r8d, %r15d
.Ltmp212:
	#DEBUG_VALUE: susan_principle_small:x_size <- R15D
	movl	%ecx, -64(%rbp)         # 4-byte Spill
.Ltmp213:
	#DEBUG_VALUE: susan_principle_small:max_no <- [RBP+-64]
	movq	%rdx, -112(%rbp)        # 8-byte Spill
.Ltmp214:
	#DEBUG_VALUE: susan_principle_small:bp <- [RBP+-112]
	movq	%rsi, %r12
.Ltmp215:
	#DEBUG_VALUE: susan_principle_small:r <- R12
	movq	%rdi, %r14
.Ltmp216:
	#DEBUG_VALUE: susan_principle_small:in <- R14
	movq	%r14, -80(%rbp)         # 8-byte Spill
	movabsq	$-1035175965619911472, %rdi # imm = 0xF1A250F1A13404D0
	xorl	%esi, %esi
	callq	_KEnterRegion
	movl	$41, %edi
	movl	$4, %esi
	callq	_KPrepRTable
	movl	$3, %edi
	callq	_KDeqArg
	movl	$2, %edi
	callq	_KDeqArg
	movl	$1, %edi
	callq	_KDeqArg
	movl	$4, %edi
	callq	_KWork
	.loc	2 492 17 prologue_end   # susan.c:492:17
.Ltmp217:
	movl	%r15d, %eax
	imull	%ebx, %eax
	leal	(,%rax,4), %r13d
	movabsq	$7640908711251933825, %rdi # imm = 0x6A09F5FD575BFA81
	xorl	%esi, %esi
	callq	_KPrepCall
	movl	$4, %edi
	movl	$2, %esi
	movl	$4, %edx
	movl	$3, %ecx
	movl	$4, %r8d
	callq	_KTimestamp2
	movl	$4, %edi
	callq	_KEnqArg
	callq	_KEnqArgConst
	xorl	%esi, %esi
	.loc	2 492 3 is_stmt 0       # susan.c:492:3
	movq	%r12, %rdi
	movl	%r13d, %edx
	callq	wccmemset
.Ltmp218:
	#DEBUG_VALUE: susan_principle_small:i <- 1
	movl	$1, %esi
	movabsq	$-2261105782188377318, %rdi # imm = 0xE09EF0455D147B1A
	callq	_KEnterRegion
	.loc	2 495 14 is_stmt 1      # susan.c:495:14
.Ltmp219:
	decl	%ebx
.Ltmp220:
	.loc	2 495 12 is_stmt 0      # susan.c:495:12
	movslq	%ebx, %rax
	.loc	2 497 16 is_stmt 1      # susan.c:497:16
.Ltmp221:
	movq	%rax, -144(%rbp)        # 8-byte Spill
	leal	-1(%r15), %eax
	.loc	2 497 14 is_stmt 0      # susan.c:497:14
	cltq
	movq	%rax, -72(%rbp)         # 8-byte Spill
	movslq	%r15d, %rax
	.loc	2 505 10 is_stmt 1      # susan.c:505:10
.Ltmp222:
	movq	%rax, -152(%rbp)        # 8-byte Spill
	addl	$-2, %r15d
.Ltmp223:
	addq	%rax, %r12
.Ltmp224:
	movq	%r12, -120(%rbp)        # 8-byte Spill
	leaq	(%r14,%rax), %rax
	movq	%rax, -88(%rbp)         # 8-byte Spill
	movslq	%r15d, %rax
	leaq	(%r14,%rax,2), %rcx
	movq	%rcx, -104(%rbp)        # 8-byte Spill
	addq	%r14, %rax
	movq	%rax, -96(%rbp)         # 8-byte Spill
.Ltmp225:
	#DEBUG_VALUE: susan_principle_small:in <- [RBP+-80]
	movl	$1, %r14d
	movabsq	$8218491359967797053, %rbx # imm = 0x720DF259347F5F3D
	xorl	%eax, %eax
	movq	%rax, -128(%rbp)        # 8-byte Spill
	xorl	%r15d, %r15d
	xorl	%r13d, %r13d
	jmp	.LBB7_1
.Ltmp226:
	.align	16, 0x90
.LBB7_7:                                # %for.cond4.pre_exit.for.inc83
                                        #   in Loop: Header=BB7_1 Depth=1
	#DEBUG_VALUE: susan_principle_small:in <- [RBP+-80]
	#DEBUG_VALUE: susan_principle_small:bp <- [RBP+-112]
	#DEBUG_VALUE: susan_principle_small:max_no <- [RBP+-64]
	#DEBUG_VALUE: susan_principle_small:i <- 1
	#DEBUG_VALUE: susan_principle_small:j <- 1
	movl	$1, %esi
	movabsq	$2088541292896768789, %rdi # imm = 0x1CFBFD3D85D8D315
	callq	_KExitRegion
	movl	$34, %r13d
	movl	$34, %edi
	callq	_KPushCDep
	movl	$1, %edi
	callq	_KWork
	movq	-136(%rbp), %r14        # 8-byte Reload
	.loc	2 495 3                 # susan.c:495:3
	incq	%r14
	movl	$38, %r15d
	movl	$38, %edi
	movl	$35, %esi
	movl	$1, %edx
	movl	$34, %ecx
	movl	$1, %r8d
	callq	_KTimestamp2
	callq	_KPopCDep
	movl	$2, %esi
	movabsq	$1695542720768415827, %rdi # imm = 0x1787C71F04E69853
	callq	_KExitRegion
	movq	-128(%rbp), %rax        # 8-byte Reload
	addq	-152(%rbp), %rax        # 8-byte Folded Reload
	movq	%rax, -128(%rbp)        # 8-byte Spill
.Ltmp227:
.LBB7_1:                                # %for.cond
                                        # =>This Loop Header: Depth=1
                                        #     Child Loop BB7_3 Depth 2
	#DEBUG_VALUE: susan_principle_small:in <- [RBP+-80]
	#DEBUG_VALUE: susan_principle_small:bp <- [RBP+-112]
	#DEBUG_VALUE: susan_principle_small:max_no <- [RBP+-64]
	#DEBUG_VALUE: susan_principle_small:i <- 1
	movl	$35, %edi
	movl	%r15d, %esi
	movl	%r13d, %edx
	callq	_KPhi1To1
	movl	$2, %edi
	callq	_KWork
	movl	$34, %edi
	movl	$3, %esi
	movl	$2, %edx
	movl	$35, %ecx
	movl	$1, %r8d
	callq	_KTimestamp2
	movl	$35, %edi
	movl	$34, %esi
	callq	_KPhiAddCond
	movl	$35, %edi
	movl	$35, %esi
	xorl	%edx, %edx
	callq	_KTimestamp1
	.loc	2 495 3 is_stmt 0       # susan.c:495:3
	cmpq	-144(%rbp), %r14        # 8-byte Folded Reload
	jge	.LBB7_8
# BB#2:                                 # %for.body
                                        #   in Loop: Header=BB7_1 Depth=1
	#DEBUG_VALUE: susan_principle_small:in <- [RBP+-80]
	#DEBUG_VALUE: susan_principle_small:bp <- [RBP+-112]
	#DEBUG_VALUE: susan_principle_small:max_no <- [RBP+-64]
	#DEBUG_VALUE: susan_principle_small:i <- 1
	movq	%r14, -136(%rbp)        # 8-byte Spill
	movl	$2, %esi
	movabsq	$1695542720768415827, %rdi # imm = 0x1787C71F04E69853
	callq	_KEnterRegion
	movl	$34, %edi
	callq	_KPushCDep
	#DEBUG_VALUE: susan_principle_small:j <- 1
	callq	_KPopCDep
	movl	$1, %esi
	movabsq	$2088541292896768789, %rdi # imm = 0x1CFBFD3D85D8D315
	callq	_KEnterRegion
	xorl	%r13d, %r13d
	movq	-128(%rbp), %r14        # 8-byte Reload
	xorl	%r15d, %r15d
	movl	$1, %r12d
	jmp	.LBB7_3
	.align	16, 0x90
.LBB7_6:                                # %for.inc
                                        #   in Loop: Header=BB7_3 Depth=2
	#DEBUG_VALUE: susan_principle_small:in <- [RBP+-80]
	#DEBUG_VALUE: susan_principle_small:bp <- [RBP+-112]
	#DEBUG_VALUE: susan_principle_small:max_no <- [RBP+-64]
	#DEBUG_VALUE: susan_principle_small:i <- 1
	#DEBUG_VALUE: susan_principle_small:j <- 1
	movl	$36, %r13d
	movl	$36, %edi
	callq	_KPushCDep
	movl	$1, %edi
	callq	_KWork
	movq	-56(%rbp), %r12         # 8-byte Reload
	.loc	2 497 5 is_stmt 1       # susan.c:497:5
.Ltmp228:
	incq	%r12
	movl	$39, %r15d
	movl	$39, %edi
	movl	$37, %esi
	movl	$1, %edx
	movl	$36, %ecx
	movl	$1, %r8d
	callq	_KTimestamp2
	callq	_KPopCDep
	movl	$2, %esi
	movabsq	$8218491359967797053, %rbx # imm = 0x720DF259347F5F3D
	movq	%rbx, %rdi
	callq	_KExitRegion
	incq	%r14
.Ltmp229:
.LBB7_3:                                # %for.cond4
                                        #   Parent Loop BB7_1 Depth=1
                                        # =>  This Inner Loop Header: Depth=2
	#DEBUG_VALUE: susan_principle_small:in <- [RBP+-80]
	#DEBUG_VALUE: susan_principle_small:bp <- [RBP+-112]
	#DEBUG_VALUE: susan_principle_small:max_no <- [RBP+-64]
	#DEBUG_VALUE: susan_principle_small:i <- 1
	#DEBUG_VALUE: susan_principle_small:j <- 1
	movl	$34, %edi
	callq	_KPushCDep
	movl	$37, %edi
	movl	$34, %edx
	movl	%r15d, %esi
	movl	%r13d, %ecx
	callq	_KPhi2To1
	movl	$2, %edi
	callq	_KWork
	movl	$1, (%rsp)
	movl	$36, %edi
	movl	$2, %esi
	movl	$2, %edx
	movl	$34, %ecx
	movl	$2, %r8d
	movl	$37, %r9d
	callq	_KTimestamp3
	movl	$37, %edi
	movl	$36, %esi
	callq	_KPhiAddCond
	movl	$37, %edi
	movl	$37, %esi
	xorl	%edx, %edx
	callq	_KTimestamp1
	callq	_KPopCDep
	.loc	2 497 5 is_stmt 0       # susan.c:497:5
	cmpq	-72(%rbp), %r12         # 8-byte Folded Reload
	jge	.LBB7_7
# BB#4:                                 # %for.body8
                                        #   in Loop: Header=BB7_3 Depth=2
	#DEBUG_VALUE: susan_principle_small:in <- [RBP+-80]
	#DEBUG_VALUE: susan_principle_small:bp <- [RBP+-112]
	#DEBUG_VALUE: susan_principle_small:max_no <- [RBP+-64]
	#DEBUG_VALUE: susan_principle_small:i <- 1
	#DEBUG_VALUE: susan_principle_small:j <- 1
	movq	%r12, -56(%rbp)         # 8-byte Spill
	movl	$2, %esi
	movq	%rbx, %rdi
	callq	_KEnterRegion
	movl	$36, %edi
	callq	_KPushCDep
	movl	$93, %edi
	callq	_KWork
.Ltmp230:
	#DEBUG_VALUE: susan_principle_small:n <- 100
	movq	-88(%rbp), %rbx         # 8-byte Reload
	leaq	1(%rbx,%r14), %rdi
	movl	$5, %esi
	movl	$6, %edx
	movl	$1, %ecx
	callq	_KLoad1
	.loc	2 500 10 is_stmt 1      # susan.c:500:10
.Ltmp231:
	movzbl	1(%rbx,%r14), %eax
	movq	%rax, -48(%rbp)         # 8-byte Spill
	movq	%rax, %r15
	movq	-80(%rbp), %r13         # 8-byte Reload
.Ltmp232:
	#DEBUG_VALUE: susan_principle_small:in <- R13
	leaq	(%r13,%r14), %rdi
	movl	$7, %esi
	movl	$1, %edx
	callq	_KLoad0
	.loc	2 502 12                # susan.c:502:12
	movzbl	(%r13,%r14), %eax
	movq	%r15, %rbx
	subq	%rax, %rbx
	movq	-112(%rbp), %r12        # 8-byte Reload
.Ltmp233:
	#DEBUG_VALUE: susan_principle_small:bp <- R12
	leaq	(%r12,%rbx), %rdi
	movl	$8, %esi
	movl	$9, %edx
	movl	$1, %ecx
	callq	_KLoad1
	.loc	2 502 10 is_stmt 0      # susan.c:502:10
	movzbl	(%r12,%rbx), %eax
	movl	%eax, -60(%rbp)         # 4-byte Spill
	leaq	1(%r13,%r14), %rdi
	movl	$10, %esi
	movl	$1, %edx
	callq	_KLoad0
	.loc	2 503 12 is_stmt 1      # susan.c:503:12
	movzbl	1(%r13,%r14), %eax
	movq	%r15, %rbx
	subq	%rax, %rbx
	leaq	(%r12,%rbx), %rdi
	movl	$11, %esi
	movl	$12, %edx
	movl	$1, %ecx
	callq	_KLoad1
	.loc	2 503 10 is_stmt 0      # susan.c:503:10
	movzbl	(%r12,%rbx), %r15d
	.loc	2 502 7 is_stmt 1       # susan.c:502:7
	addl	-60(%rbp), %r15d        # 4-byte Folded Reload
	leaq	2(%r13,%r14), %rdi
	movl	$13, %esi
	movl	$1, %edx
	callq	_KLoad0
	.loc	2 504 12                # susan.c:504:12
	movzbl	2(%r13,%r14), %eax
.Ltmp234:
	#DEBUG_VALUE: susan_principle_small:in <- [RBP+-80]
	movq	-48(%rbp), %r13         # 8-byte Reload
	movq	%r13, %rbx
	subq	%rax, %rbx
	leaq	(%r12,%rbx), %rdi
	movl	$14, %esi
	movl	$15, %edx
	movl	$1, %ecx
	callq	_KLoad1
	.loc	2 504 10 is_stmt 0      # susan.c:504:10
	movzbl	(%r12,%rbx), %eax
	.loc	2 503 7 is_stmt 1       # susan.c:503:7
	addl	%r15d, %eax
	movl	%eax, -60(%rbp)         # 4-byte Spill
	movq	-96(%rbp), %r15         # 8-byte Reload
	leaq	2(%r15,%r14), %rdi
	movl	$16, %esi
	movl	$17, %edx
	movl	$1, %ecx
	callq	_KLoad1
	.loc	2 507 12                # susan.c:507:12
	movzbl	2(%r15,%r14), %eax
	movq	%r13, %rbx
	subq	%rax, %rbx
	leaq	(%r12,%rbx), %rdi
	movl	$18, %esi
	movl	$19, %edx
	movl	$1, %ecx
	callq	_KLoad1
	.loc	2 507 10 is_stmt 0      # susan.c:507:10
	movzbl	(%r12,%rbx), %r13d
	.loc	2 504 7 is_stmt 1       # susan.c:504:7
	addl	-60(%rbp), %r13d        # 4-byte Folded Reload
	leaq	4(%r15,%r14), %rdi
	movl	$20, %esi
	movl	$1, %edx
	callq	_KLoad0
	.loc	2 509 12                # susan.c:509:12
	movzbl	4(%r15,%r14), %eax
	movq	-48(%rbp), %rbx         # 8-byte Reload
	subq	%rax, %rbx
	leaq	(%r12,%rbx), %rdi
	movl	$21, %esi
	movl	$22, %edx
	movl	$1, %ecx
	callq	_KLoad1
	.loc	2 509 10 is_stmt 0      # susan.c:509:10
	movzbl	(%r12,%rbx), %eax
	.loc	2 507 7 is_stmt 1       # susan.c:507:7
	addl	%r13d, %eax
	movl	%eax, -60(%rbp)         # 4-byte Spill
	movq	-104(%rbp), %r15        # 8-byte Reload
	leaq	4(%r15,%r14), %rdi
	movl	$23, %esi
	movl	$24, %edx
	movl	$1, %ecx
	callq	_KLoad1
	.loc	2 512 12                # susan.c:512:12
	movzbl	4(%r15,%r14), %eax
	movq	-48(%rbp), %rbx         # 8-byte Reload
	subq	%rax, %rbx
	leaq	(%r12,%rbx), %rdi
	movl	$25, %esi
	movl	$26, %edx
	movl	$1, %ecx
	callq	_KLoad1
	.loc	2 512 10 is_stmt 0      # susan.c:512:10
	movzbl	(%r12,%rbx), %r13d
	.loc	2 509 7 is_stmt 1       # susan.c:509:7
	addl	-60(%rbp), %r13d        # 4-byte Folded Reload
	leaq	5(%r15,%r14), %rdi
	movl	$27, %esi
	movl	$1, %edx
	callq	_KLoad0
	.loc	2 513 12                # susan.c:513:12
	movzbl	5(%r15,%r14), %eax
	movq	-48(%rbp), %rbx         # 8-byte Reload
	subq	%rax, %rbx
	leaq	(%r12,%rbx), %rdi
	movl	$28, %esi
	movl	$29, %edx
	movl	$1, %ecx
	callq	_KLoad1
	.loc	2 513 10 is_stmt 0      # susan.c:513:10
	movzbl	(%r12,%rbx), %ebx
	.loc	2 512 7 is_stmt 1       # susan.c:512:7
	addl	%r13d, %ebx
	leaq	6(%r15,%r14), %rdi
	movl	$30, %esi
	movl	$1, %edx
	callq	_KLoad0
	.loc	2 514 12                # susan.c:514:12
	movzbl	6(%r15,%r14), %eax
	movq	-48(%rbp), %rcx         # 8-byte Reload
	subq	%rax, %rcx
	leaq	(%r12,%rcx), %rdi
	movq	%rcx, %r15
	movl	$31, %esi
	movl	$32, %edx
	movl	$1, %ecx
	callq	_KLoad1
	.loc	2 514 10 is_stmt 0      # susan.c:514:10
	movzbl	(%r12,%r15), %eax
.Ltmp235:
	#DEBUG_VALUE: susan_principle_small:bp <- [RBP+-112]
	.loc	2 514 7                 # susan.c:514:7
	leal	100(%rax,%rbx), %ebx
.Ltmp236:
	#DEBUG_VALUE: susan_principle_small:n <- EBX
	movl	$3, 120(%rsp)
	movl	$28, 112(%rsp)
	movl	$4, 104(%rsp)
	movl	$25, 96(%rsp)
	movl	$5, 88(%rsp)
	movl	$21, 80(%rsp)
	movl	$6, 72(%rsp)
	movl	$18, 64(%rsp)
	movl	$7, 56(%rsp)
	movl	$14, 48(%rsp)
	movl	$9, 40(%rsp)
	movl	$36, 32(%rsp)
	movl	$1, 24(%rsp)
	movl	$1, 16(%rsp)
	movl	$8, 8(%rsp)
	movl	$11, (%rsp)
	movl	$40, %edi
	movl	$10, %esi
	movl	$31, %edx
	movl	$2, %ecx
	movl	$8, %r8d
	movl	$9, %r9d
	xorl	%eax, %eax
	callq	_KTimestamp
	callq	_KPopCDep
	.loc	2 516 11 is_stmt 1      # susan.c:516:11
.Ltmp237:
	cmpl	-64(%rbp), %ebx         # 4-byte Folded Reload
	jg	.LBB7_6
.Ltmp238:
# BB#5:                                 # %if.then
                                        #   in Loop: Header=BB7_3 Depth=2
	#DEBUG_VALUE: susan_principle_small:in <- [RBP+-80]
	#DEBUG_VALUE: susan_principle_small:bp <- [RBP+-112]
	#DEBUG_VALUE: susan_principle_small:max_no <- [RBP+-64]
	#DEBUG_VALUE: susan_principle_small:i <- 1
	#DEBUG_VALUE: susan_principle_small:j <- 1
	#DEBUG_VALUE: susan_principle_small:n <- EBX
	movl	$40, %edi
	callq	_KPushCDep
	movl	$5, %edi
	callq	_KWork
	.loc	2 517 25                # susan.c:517:25
	movl	-64(%rbp), %r15d        # 4-byte Reload
	subl	%ebx, %r15d
	movl	$4, 120(%rsp)
	movl	$28, 112(%rsp)
	movl	$5, 104(%rsp)
	movl	$25, 96(%rsp)
	movl	$6, 88(%rsp)
	movl	$21, 80(%rsp)
	movl	$7, 72(%rsp)
	movl	$18, 64(%rsp)
	movl	$8, 56(%rsp)
	movl	$14, 48(%rsp)
	movl	$10, 40(%rsp)
	movl	$36, 32(%rsp)
	movl	$2, 24(%rsp)
	movl	$1, 16(%rsp)
	movl	$9, 8(%rsp)
	movl	$11, (%rsp)
	movl	$33, %edi
	movl	$10, %esi
	movl	$31, %edx
	movl	$3, %ecx
	movl	$8, %r8d
	movl	$10, %r9d
	xorl	%eax, %eax
	callq	_KTimestamp
	movq	-120(%rbp), %rbx        # 8-byte Reload
.Ltmp239:
	leaq	1(%rbx,%r14), %rsi
	movl	$33, %edi
	movl	$1, %edx
	callq	_KStore
	.loc	2 517 9 is_stmt 0       # susan.c:517:9
	movb	%r15b, 1(%rbx,%r14)
	callq	_KPopCDep
	jmp	.LBB7_6
.Ltmp240:
.LBB7_8:                                # %for.cond.pre_exit.for.end85
	#DEBUG_VALUE: susan_principle_small:i <- 1
	movl	$1, %esi
	movabsq	$-2261105782188377318, %rdi # imm = 0xE09EF0455D147B1A
	callq	_KExitRegion
	xorl	%esi, %esi
	movabsq	$-1035175965619911472, %rdi # imm = 0xF1A250F1A13404D0
	addq	$248, %rsp
	popq	%rbx
	popq	%r12
	popq	%r13
	popq	%r14
	popq	%r15
	popq	%rbp
	jmp	_KExitRegion            # TAILCALL
.Ltmp241:
	.size	susan_principle_small, .Ltmp241-susan_principle_small
.Lfunc_end7:
	.cfi_endproc

	.globl	median
	.align	16, 0x90
	.type	median,@function
median:                                 # @median
.Lfunc_begin8:
	.loc	2 524 0 is_stmt 1       # susan.c:524:0
	.cfi_startproc
# BB#0:                                 # %entry
	pushq	%rbp
.Ltmp242:
	.cfi_def_cfa_offset 16
.Ltmp243:
	.cfi_offset %rbp, -16
	movq	%rsp, %rbp
.Ltmp244:
	.cfi_def_cfa_register %rbp
	pushq	%r15
	pushq	%r14
	pushq	%r13
	pushq	%r12
	pushq	%rbx
	subq	$72, %rsp
.Ltmp245:
	.cfi_offset %rbx, -56
.Ltmp246:
	.cfi_offset %r12, -48
.Ltmp247:
	.cfi_offset %r13, -40
.Ltmp248:
	.cfi_offset %r14, -32
.Ltmp249:
	.cfi_offset %r15, -24
	#DEBUG_VALUE: median:in <- RDI
	#DEBUG_VALUE: median:i <- ESI
	#DEBUG_VALUE: median:j <- EDX
	#DEBUG_VALUE: median:x_size <- ECX
	movl	%ecx, %ebx
.Ltmp250:
	#DEBUG_VALUE: median:x_size <- EBX
	movl	%ebx, -96(%rbp)         # 4-byte Spill
	movl	%edx, %r14d
.Ltmp251:
	#DEBUG_VALUE: median:j <- R14D
	movl	%r14d, -92(%rbp)        # 4-byte Spill
	movl	%esi, %r12d
.Ltmp252:
	#DEBUG_VALUE: median:i <- R12D
	movq	%rdi, %r13
.Ltmp253:
	#DEBUG_VALUE: median:in <- R13
	movabsq	$-1372586425655108364, %rdi # imm = 0xECF397EB0B4DDCF4
	movl	$0, -88(%rbp)           # 4-byte Folded Spill
	xorl	%esi, %esi
	callq	_KEnterRegion
	movl	$42, %edi
	movl	$4, %esi
	callq	_KPrepRTable
	movl	$76, %edi
	callq	_KWork
	movl	$3, %edi
	callq	_KDeqArg
	movl	$2, %edi
	callq	_KDeqArg
	movl	$1, %edi
	callq	_KDeqArg
	.loc	2 527 12 prologue_end   # susan.c:527:12
.Ltmp254:
	leal	-1(%r12), %eax
	.loc	2 527 11 is_stmt 0      # susan.c:527:11
	imull	%ebx, %eax
.Ltmp255:
	#DEBUG_VALUE: median:x_size <- [RBP+-96]
	addl	%r14d, %eax
.Ltmp256:
	#DEBUG_VALUE: median:j <- [RBP+-92]
	.loc	2 527 8                 # susan.c:527:8
	movslq	%eax, %rbx
	leaq	-1(%r13,%rbx), %rdi
	movl	$4, %esi
	movl	$5, %edx
	movl	$1, %ecx
	callq	_KLoad1
	movzbl	-1(%r13,%rbx), %r15d
	movl	$6, %edi
	movl	$4, %esi
	xorl	%edx, %edx
	callq	_KTimestamp1
	leaq	-80(%rbp), %rsi
	movl	$6, %edi
	movl	$4, %edx
	callq	_KStore
	.loc	2 527 3                 # susan.c:527:3
	movl	%r15d, -80(%rbp)
	.loc	2 528 8 is_stmt 1       # susan.c:528:8
	leaq	(%r13,%rbx), %rdi
	movl	$7, -84(%rbp)           # 4-byte Folded Spill
	movl	$7, %esi
	movl	$8, %edx
	movl	$1, %ecx
	callq	_KLoad1
	movzbl	(%r13,%rbx), %r15d
	.loc	2 528 3 is_stmt 0       # susan.c:528:3
	leaq	-76(%rbp), %r14
	movl	$9, %edi
	movl	$7, %esi
	xorl	%edx, %edx
	callq	_KTimestamp1
	movl	$9, %edi
	movl	$4, %edx
	movq	%r14, %rsi
	callq	_KStore
	movl	%r15d, -76(%rbp)
	.loc	2 529 8 is_stmt 1       # susan.c:529:8
	leaq	1(%r13,%rbx), %rdi
	movl	$10, %esi
	movl	$11, %edx
	movl	$1, %ecx
	callq	_KLoad1
	movzbl	1(%r13,%rbx), %ebx
	.loc	2 529 3 is_stmt 0       # susan.c:529:3
	leaq	-72(%rbp), %r15
	movl	$12, %edi
	movl	$10, %esi
	xorl	%edx, %edx
	callq	_KTimestamp1
	movl	$12, %edi
	movl	$4, %edx
	movq	%r15, %rsi
	callq	_KStore
	movl	%ebx, -72(%rbp)
	movl	-96(%rbp), %r14d        # 4-byte Reload
.Ltmp257:
	#DEBUG_VALUE: median:x_size <- R14D
	.loc	2 530 11 is_stmt 1      # susan.c:530:11
	movl	%r14d, %eax
	imull	%r12d, %eax
	addl	-92(%rbp), %eax         # 4-byte Folded Reload
	.loc	2 530 8 is_stmt 0       # susan.c:530:8
	movslq	%eax, %rbx
	leaq	-1(%rbx,%r13), %rdi
	movl	$13, %esi
	movl	$14, %edx
	movl	$1, %ecx
	callq	_KLoad1
	movzbl	-1(%rbx,%r13), %r15d
	movl	$15, %edi
	movl	$13, %esi
	xorl	%edx, %edx
	callq	_KTimestamp1
	movl	$15, %edi
	movl	$4, %edx
	.loc	2 530 3                 # susan.c:530:3
	leaq	-68(%rbp), %rsi
	callq	_KStore
	movl	%r15d, -68(%rbp)
	.loc	2 531 8 is_stmt 1       # susan.c:531:8
	leaq	1(%rbx,%r13), %rdi
	movl	$16, %esi
	movl	$17, %edx
	movl	$1, %ecx
	callq	_KLoad1
	movzbl	1(%rbx,%r13), %ebx
	.loc	2 531 3 is_stmt 0       # susan.c:531:3
	leaq	-64(%rbp), %r15
	movl	$18, %edi
	movl	$16, %esi
	xorl	%edx, %edx
	callq	_KTimestamp1
	movl	$18, %edi
	movl	$4, %edx
	movq	%r15, %rsi
	callq	_KStore
	movl	%ebx, -64(%rbp)
	.loc	2 532 12 is_stmt 1      # susan.c:532:12
	incl	%r12d
.Ltmp258:
	.loc	2 532 11 is_stmt 0      # susan.c:532:11
	imull	%r14d, %r12d
	addl	-92(%rbp), %r12d        # 4-byte Folded Reload
	.loc	2 532 8                 # susan.c:532:8
	movslq	%r12d, %rbx
	leaq	-1(%r13,%rbx), %rdi
	movl	$19, %esi
	movl	$20, %edx
	movl	$1, %ecx
	callq	_KLoad1
	movzbl	-1(%r13,%rbx), %r15d
	.loc	2 532 3                 # susan.c:532:3
	leaq	-60(%rbp), %r12
	movl	$21, %edi
	movl	$19, %esi
	xorl	%edx, %edx
	callq	_KTimestamp1
	movl	$21, %edi
	movl	$4, %edx
	movq	%r12, %rsi
	callq	_KStore
	movl	%r15d, -60(%rbp)
	.loc	2 533 8 is_stmt 1       # susan.c:533:8
	leaq	(%r13,%rbx), %rdi
	movl	$22, %esi
	movl	$23, %edx
	movl	$1, %ecx
	callq	_KLoad1
	movzbl	(%r13,%rbx), %r15d
	.loc	2 533 3 is_stmt 0       # susan.c:533:3
	leaq	-56(%rbp), %r12
	movl	$24, %edi
	movl	$22, %esi
	xorl	%edx, %edx
	callq	_KTimestamp1
	movl	$24, %edi
	movl	$4, %edx
	movq	%r12, %rsi
	callq	_KStore
	movl	%r15d, -56(%rbp)
	.loc	2 534 8 is_stmt 1       # susan.c:534:8
	leaq	1(%r13,%rbx), %rdi
	movl	$25, %esi
	movl	$26, %edx
	movl	$1, %ecx
	callq	_KLoad1
	movzbl	1(%r13,%rbx), %ebx
	.loc	2 534 3 is_stmt 0       # susan.c:534:3
	leaq	-52(%rbp), %r15
	movl	$27, %edi
	movl	$25, %esi
	xorl	%edx, %edx
	callq	_KTimestamp1
	movl	$27, %edi
	movl	$4, %edx
	movq	%r15, %rsi
	callq	_KStore
	movl	%ebx, -52(%rbp)
.Ltmp259:
	#DEBUG_VALUE: median:k <- 0
	movl	$38, %edi
	callq	_KInduction
	movl	$1, %esi
	movabsq	$-2150277845436317499, %rdi # imm = 0xE228ADB1366040C5
	callq	_KEnterRegion
	movabsq	$-8440517024847328314, %rbx # imm = 0x8ADD427C55568BC6
	movabsq	$-9136747935094205178, %r12 # imm = 0x8133C0295E6D1506
	movabsq	$-2402006825089494253, %r13 # imm = 0xDEAA5B84DA7A1313
.Ltmp260:
	xorl	%r15d, %r15d
	xorl	%r14d, %r14d
.Ltmp261:
	jmp	.LBB8_1
	.align	16, 0x90
.LBB8_7:                                # %for.cond56.pre_exit.for.inc78
                                        #   in Loop: Header=BB8_1 Depth=1
	#DEBUG_VALUE: median:k <- 0
.Ltmp262:
	#DEBUG_VALUE: median:l <- 0
	movl	$1, %esi
	movabsq	$-9136747935094205178, %r12 # imm = 0x8133C0295E6D1506
	movq	%r12, %rdi
	callq	_KExitRegion
	movl	$37, %r15d
	movl	$37, %edi
	callq	_KPushCDep
	movl	$1, %edi
	callq	_KWork
	movl	-88(%rbp), %r14d        # 4-byte Reload
	.loc	2 537 17 is_stmt 1      # susan.c:537:17
.Ltmp263:
	incl	%r14d
.Ltmp264:
	#DEBUG_VALUE: median:k <- R14D
	.loc	2 537 3 is_stmt 0       # susan.c:537:3
	decl	-84(%rbp)               # 4-byte Folded Spill
	movl	$36, -88(%rbp)          # 4-byte Folded Spill
	movl	$36, %edi
	movl	$35, %esi
	movl	$1, %edx
	movl	$37, %ecx
	movl	$1, %r8d
	callq	_KTimestamp2
	callq	_KPopCDep
	movl	$2, %esi
	movabsq	$-8440517024847328314, %rbx # imm = 0x8ADD427C55568BC6
	movq	%rbx, %rdi
	callq	_KExitRegion
.Ltmp265:
.LBB8_1:                                # %for.cond
                                        # =>This Loop Header: Depth=1
                                        #     Child Loop BB8_4 Depth 2
	#DEBUG_VALUE: median:k <- 0
	movl	$35, %edi
	movl	-88(%rbp), %esi         # 4-byte Reload
	movl	%r15d, %edx
	callq	_KPhi1To1
	movl	$1, %edi
	callq	_KWork
	movl	$35, %edi
	movl	$35, %esi
	xorl	%edx, %edx
	callq	_KTimestamp1
	movl	$37, %edi
	movl	$38, %esi
	movl	$1, %edx
	callq	_KTimestamp1
	movl	$35, %edi
	movl	$37, %esi
	callq	_KPhiAddCond
	.loc	2 537 3                 # susan.c:537:3
	cmpl	$7, %r14d
	je	.LBB8_8
# BB#2:                                 # %for.body
                                        #   in Loop: Header=BB8_1 Depth=1
	#DEBUG_VALUE: median:k <- 0
	movl	%r14d, -88(%rbp)        # 4-byte Spill
	movl	$2, %esi
	movq	%rbx, %rdi
	callq	_KEnterRegion
	movl	$37, %edi
	callq	_KPushCDep
	#DEBUG_VALUE: median:l <- 0
	movl	$39, %edi
	callq	_KInduction
	callq	_KPopCDep
	movl	$1, %esi
	movq	%r12, %rdi
	callq	_KEnterRegion
	movl	$37, %edi
	callq	_KPushCDep
	movl	$1, %edi
	callq	_KWork
	movl	$1, (%rsp)
	movl	$40, %edi
	movl	$35, %esi
	movl	$1, %edx
	movl	$37, %ecx
	movl	$1, %r8d
	movl	$39, %r9d
	callq	_KTimestamp3
	callq	_KPopCDep
	.loc	2 539 5 is_stmt 1       # susan.c:539:5
.Ltmp266:
	cmpl	$0, -84(%rbp)           # 4-byte Folded Reload
	je	.LBB8_7
.Ltmp267:
# BB#3:                                 # %for.body60.preheader
                                        #   in Loop: Header=BB8_1 Depth=1
	#DEBUG_VALUE: median:k <- 0
	#DEBUG_VALUE: median:l <- 0
	xorl	%r12d, %r12d
	.loc	2 528 3                 # susan.c:528:3
	leaq	-76(%rbp), %rbx
	.align	16, 0x90
.LBB8_4:                                # %for.body60
                                        #   Parent Loop BB8_1 Depth=1
                                        # =>  This Inner Loop Header: Depth=2
	#DEBUG_VALUE: median:k <- 0
	#DEBUG_VALUE: median:l <- 0
	movl	$2, %esi
	movq	%r13, %rdi
	callq	_KEnterRegion
	movl	$40, %edi
	callq	_KPushCDep
	movl	$9, %edi
	callq	_KWork
	leaq	-4(%rbx), %r14
	movl	$28, %esi
	movl	$4, %edx
	movq	%r14, %rdi
	callq	_KLoad0
	.loc	2 540 11                # susan.c:540:11
.Ltmp268:
	movl	-4(%rbx), %r15d
	movl	$29, %esi
	movl	$4, %edx
	movq	%rbx, %rdi
	callq	_KLoad0
.Ltmp269:
	.loc	2 540 11 is_stmt 0      # susan.c:540:11
	movl	(%rbx), %r13d
	callq	_KPopCDep
	movl	$1, (%rsp)
	movl	$41, %edi
	movl	$40, %esi
	movl	$1, %edx
	movl	$28, %ecx
	movl	$1, %r8d
	movl	$29, %r9d
	callq	_KTimestamp3
	cmpl	%r13d, %r15d
	jle	.LBB8_6
# BB#5:                                 # %if.then
                                        #   in Loop: Header=BB8_4 Depth=2
	#DEBUG_VALUE: median:k <- 0
	#DEBUG_VALUE: median:l <- 0
	movl	$41, %edi
	callq	_KPushCDep
	movl	$10, %edi
	callq	_KWork
	movl	$30, %esi
	movl	$4, %edx
	movq	%r14, %rdi
	callq	_KLoad0
	.loc	2 541 13 is_stmt 1      # susan.c:541:13
.Ltmp270:
	movl	-4(%rbx), %r15d
.Ltmp271:
	#DEBUG_VALUE: median:tmp <- R15D
	movl	$31, %esi
	movl	$4, %edx
	movq	%rbx, %rdi
	callq	_KLoad0
	.loc	2 542 14                # susan.c:542:14
	movl	(%rbx), %r13d
	movl	$31, %edi
	movl	$31, %esi
	xorl	%edx, %edx
	callq	_KTimestamp1
	movl	$31, %edi
	movl	$4, %edx
	movq	%r14, %rsi
	callq	_KStore
	.loc	2 542 9 is_stmt 0       # susan.c:542:9
	movl	%r13d, -4(%rbx)
	movl	$30, %edi
	movl	$30, %esi
	xorl	%edx, %edx
	callq	_KTimestamp1
	movl	$30, %edi
	movl	$4, %edx
	movq	%rbx, %rsi
	callq	_KStore
	.loc	2 543 9 is_stmt 1       # susan.c:543:9
	movl	%r15d, (%rbx)
	callq	_KPopCDep
.Ltmp272:
.LBB8_6:                                # %for.inc
                                        #   in Loop: Header=BB8_4 Depth=2
	#DEBUG_VALUE: median:k <- 0
	#DEBUG_VALUE: median:l <- 0
	movl	$40, %edi
	callq	_KPushCDep
	callq	_KPopCDep
	movl	$2, %esi
	movabsq	$-2402006825089494253, %r14 # imm = 0xDEAA5B84DA7A1313
	movq	%r14, %rdi
	callq	_KExitRegion
	movl	$37, %edi
	callq	_KPushCDep
	movl	$1, %edi
	callq	_KWork
	movl	$1, (%rsp)
	movl	$40, %edi
	movl	$35, %esi
	movl	$1, %edx
	movl	$37, %ecx
	movl	$1, %r8d
	movl	$39, %r9d
	callq	_KTimestamp3
	callq	_KPopCDep
	.loc	2 539 5                 # susan.c:539:5
	incl	%r12d
	addq	$4, %rbx
	cmpl	%r12d, -84(%rbp)        # 4-byte Folded Reload
	movq	%r14, %r13
	jne	.LBB8_4
	jmp	.LBB8_7
.Ltmp273:
.LBB8_8:                                # %for.cond.pre_exit.for.end80
	#DEBUG_VALUE: median:k <- 0
	movl	$1, %esi
	movabsq	$-2150277845436317499, %rdi # imm = 0xE228ADB1366040C5
	callq	_KExitRegion
	movl	$19, %edi
	callq	_KWork
	movl	$32, %esi
	movl	$4, %edx
	.loc	2 530 3                 # susan.c:530:3
	leaq	-68(%rbp), %rdi
	callq	_KLoad0
	.loc	2 548 12                # susan.c:548:12
	movl	-68(%rbp), %r14d
	movl	$33, %esi
	movl	$4, %edx
	.loc	2 531 3                 # susan.c:531:3
	leaq	-64(%rbp), %rdi
	callq	_KLoad0
	.loc	2 548 12                # susan.c:548:12
	addl	-64(%rbp), %r14d
	.loc	2 548 11 is_stmt 0      # susan.c:548:11
	movl	%r14d, %ebx
	shrl	$31, %ebx
	addl	%r14d, %ebx
	shrl	%ebx
	movl	$34, %edi
	movl	$32, %esi
	movl	$11, %edx
	movl	$33, %ecx
	movl	$11, %r8d
	callq	_KTimestamp2
	movl	$34, %edi
	callq	_KReturn
	xorl	%esi, %esi
	movabsq	$-1372586425655108364, %rdi # imm = 0xECF397EB0B4DDCF4
	callq	_KExitRegion
	.loc	2 548 3                 # susan.c:548:3
	movzbl	%bl, %eax
	addq	$72, %rsp
	popq	%rbx
	popq	%r12
	popq	%r13
	popq	%r14
	popq	%r15
	popq	%rbp
	retq
.Ltmp274:
.Ltmp275:
	.size	median, .Ltmp275-median
.Lfunc_end8:
	.cfi_endproc

	.globl	enlarge
	.align	16, 0x90
	.type	enlarge,@function
enlarge:                                # @enlarge
.Lfunc_begin9:
	.loc	2 555 0 is_stmt 1       # susan.c:555:0
	.cfi_startproc
# BB#0:                                 # %entry
	pushq	%rbp
.Ltmp276:
	.cfi_def_cfa_offset 16
.Ltmp277:
	.cfi_offset %rbp, -16
	movq	%rsp, %rbp
.Ltmp278:
	.cfi_def_cfa_register %rbp
	pushq	%r15
	pushq	%r14
	pushq	%r13
	pushq	%r12
	pushq	%rbx
	subq	$120, %rsp
.Ltmp279:
	.cfi_offset %rbx, -56
.Ltmp280:
	.cfi_offset %r12, -48
.Ltmp281:
	.cfi_offset %r13, -40
.Ltmp282:
	.cfi_offset %r14, -32
.Ltmp283:
	.cfi_offset %r15, -24
	#DEBUG_VALUE: enlarge:in <- RDI
	#DEBUG_VALUE: enlarge:tmp_image <- RSI
	#DEBUG_VALUE: enlarge:x_size <- RDX
	#DEBUG_VALUE: enlarge:y_size <- RCX
	#DEBUG_VALUE: enlarge:border <- R8D
	movl	%r8d, %r15d
.Ltmp284:
	#DEBUG_VALUE: enlarge:border <- R15D
	movq	%r15, -104(%rbp)        # 8-byte Spill
	movq	%rcx, %r14
.Ltmp285:
	#DEBUG_VALUE: enlarge:y_size <- R14
	movq	%r14, -80(%rbp)         # 8-byte Spill
	movq	%rdx, %rbx
.Ltmp286:
	#DEBUG_VALUE: enlarge:x_size <- RBX
	movq	%rbx, -88(%rbp)         # 8-byte Spill
	movq	%rsi, -112(%rbp)        # 8-byte Spill
.Ltmp287:
	#DEBUG_VALUE: enlarge:tmp_image <- [RBP+-112]
	#DEBUG_VALUE: enlarge:tmp_image <- undef
	movq	%rdi, -128(%rbp)        # 8-byte Spill
.Ltmp288:
	#DEBUG_VALUE: enlarge:in <- [RBP+-128]
	#DEBUG_VALUE: enlarge:in <- undef
	movabsq	$-1743347248707288118, %rdi # imm = 0xE7CE62E9F8A5C3CA
	xorl	%r12d, %r12d
	xorl	%esi, %esi
	callq	_KEnterRegion
	movl	$41, %edi
	movl	$4, %esi
	callq	_KPrepRTable
	movl	$1, %edi
	callq	_KDeqArg
.Ltmp289:
	#DEBUG_VALUE: enlarge:i <- 0
	movl	$33, %edi
	callq	_KInduction
	movabsq	$-6427245449217649987, %rdi # imm = 0xA6CDD6512322D2BD
	movl	$1, %esi
	callq	_KEnterRegion
	movl	$5, %edi
	callq	_KWork
	movl	$2, %esi
	movl	$4, %edx
	movq	%r14, %rdi
	callq	_KLoad0
	.loc	2 559 3 prologue_end    # susan.c:559:3
.Ltmp290:
	movl	(%r14), %r14d
.Ltmp291:
	#DEBUG_VALUE: enlarge:y_size <- [RBP+-80]
	movl	$37, %edi
	movl	$33, %esi
	movl	$1, %edx
	movl	$2, %ecx
	movl	$1, %r8d
	callq	_KTimestamp2
	cmpl	$0, %r14d
	jle	.LBB9_3
.Ltmp292:
# BB#1:                                 # %for.body.lr.ph
	#DEBUG_VALUE: enlarge:in <- [RBP+-128]
	#DEBUG_VALUE: enlarge:tmp_image <- [RBP+-112]
	#DEBUG_VALUE: enlarge:x_size <- RBX
	#DEBUG_VALUE: enlarge:y_size <- [RBP+-80]
	#DEBUG_VALUE: enlarge:border <- R15D
	#DEBUG_VALUE: enlarge:i <- 0
	.loc	2 560 46                # susan.c:560:46
	leal	(%r15,%r15), %eax
	.loc	2 560 16 is_stmt 0      # susan.c:560:16
	movl	%eax, -48(%rbp)         # 4-byte Spill
	movslq	%r15d, %rax
	movq	%rax, -56(%rbp)         # 8-byte Spill
	movabsq	$-2220280079414845344, %r13 # imm = 0xE12FFB08049A2060
.Ltmp293:
	.align	16, 0x90
.LBB9_2:                                # %for.body
                                        # =>This Inner Loop Header: Depth=1
	#DEBUG_VALUE: enlarge:in <- [RBP+-128]
	#DEBUG_VALUE: enlarge:tmp_image <- [RBP+-112]
	#DEBUG_VALUE: enlarge:x_size <- RBX
	#DEBUG_VALUE: enlarge:y_size <- [RBP+-80]
	#DEBUG_VALUE: enlarge:border <- R15D
	#DEBUG_VALUE: enlarge:i <- 0
	movl	$2, %esi
	movq	%r13, %rdi
	callq	_KEnterRegion
	movl	$37, %edi
	callq	_KPushCDep
	movl	$24, %edi
	callq	_KWork
	movl	$3, %esi
	movl	$4, %edx
	movq	%rbx, %rdi
	callq	_KLoad0
	movl	(%rbx), %eax
	.loc	2 560 38                # susan.c:560:38
	addl	-48(%rbp), %eax         # 4-byte Folded Reload
	.loc	2 560 26                # susan.c:560:26
	leal	(%r15,%r12), %ecx
	imull	%eax, %ecx
	.loc	2 560 16                # susan.c:560:16
	movslq	%ecx, %r14
	addq	-56(%rbp), %r14         # 8-byte Folded Reload
	movq	-112(%rbp), %rax        # 8-byte Reload
.Ltmp294:
	#DEBUG_VALUE: enlarge:tmp_image <- RAX
	movq	%rax, -112(%rbp)        # 8-byte Spill
	addq	%rax, %r14
	movl	$4, %esi
	movl	$8, %edx
	movq	%rbx, %r13
.Ltmp295:
	#DEBUG_VALUE: enlarge:x_size <- R13
	movq	-128(%rbp), %rbx        # 8-byte Reload
.Ltmp296:
	#DEBUG_VALUE: enlarge:in <- RBX
	movq	%rbx, %rdi
	callq	_KLoad0
	.loc	2 561 7 is_stmt 1       # susan.c:561:7
	movq	(%rbx), %rbx
.Ltmp297:
	#DEBUG_VALUE: enlarge:in <- [RBP+-128]
	movl	$5, %esi
	movl	$4, %edx
	movq	%r13, %rdi
	callq	_KLoad0
.Ltmp298:
	#DEBUG_VALUE: enlarge:border <- [RBP+-104]
	movslq	(%r13), %r15
	movslq	%r12d, %r12
	.loc	2 561 11 is_stmt 0      # susan.c:561:11
	imulq	%r12, %r15
	.loc	2 561 7                 # susan.c:561:7
	addq	%rbx, %r15
	movl	$6, %esi
	movl	$4, %edx
	movq	%r13, %rdi
	callq	_KLoad0
	.loc	2 561 23                # susan.c:561:23
	movl	(%r13), %ebx
.Ltmp299:
	#DEBUG_VALUE: enlarge:x_size <- [RBP+-88]
	movl	$6, %edi
	movl	$6, %esi
	xorl	%edx, %edx
	callq	_KTimestamp1
	xorl	%esi, %esi
	movabsq	$727698410713524081, %rdi # imm = 0xA194DD95A322771
	callq	_KPrepCall
	movl	$6, %edi
	callq	_KEnqArg
	.loc	2 560 5 is_stmt 1       # susan.c:560:5
	movq	%r14, %rdi
	movq	%r15, %rsi
	movq	-104(%rbp), %r15        # 8-byte Reload
.Ltmp300:
	#DEBUG_VALUE: enlarge:border <- R15D
	movl	%ebx, %edx
	callq	wccmemcpy
.Ltmp301:
	.loc	2 559 23                # susan.c:559:23
	incl	%r12d
.Ltmp302:
	#DEBUG_VALUE: enlarge:i <- R12D
	callq	_KPopCDep
	movl	$2, %esi
	movabsq	$-2220280079414845344, %rdi # imm = 0xE12FFB08049A2060
	movq	%rdi, %r13
	callq	_KExitRegion
	movl	$5, %edi
	callq	_KWork
	movl	$2, %esi
	movl	$4, %edx
.Ltmp303:
	#DEBUG_VALUE: enlarge:tmp_image <- undef
	movq	-80(%rbp), %rbx         # 8-byte Reload
.Ltmp304:
	#DEBUG_VALUE: enlarge:y_size <- RBX
	movq	%rbx, %rdi
	callq	_KLoad0
	.loc	2 559 12 is_stmt 0      # susan.c:559:12
	movl	(%rbx), %r14d
.Ltmp305:
	#DEBUG_VALUE: enlarge:y_size <- [RBP+-80]
	#DEBUG_VALUE: enlarge:tmp_image <- [RBP+-112]
	movq	-88(%rbp), %rbx         # 8-byte Reload
.Ltmp306:
	#DEBUG_VALUE: enlarge:x_size <- RBX
	movl	$37, %edi
	movl	$33, %esi
	movl	$1, %edx
	movl	$2, %ecx
	movl	$1, %r8d
	callq	_KTimestamp2
	cmpl	%r14d, %r12d
.Ltmp307:
	.loc	2 559 3                 # susan.c:559:3
	jl	.LBB9_2
.Ltmp308:
.LBB9_3:                                # %for.cond.pre_exit.for.end
	#DEBUG_VALUE: enlarge:in <- [RBP+-128]
	#DEBUG_VALUE: enlarge:tmp_image <- [RBP+-112]
	#DEBUG_VALUE: enlarge:x_size <- RBX
	#DEBUG_VALUE: enlarge:y_size <- [RBP+-80]
	#DEBUG_VALUE: enlarge:border <- R15D
	#DEBUG_VALUE: enlarge:i <- 0
	movabsq	$1914068568387663127, %r14 # imm = 0x1A902338C67CB517
	movl	$1, %esi
	movabsq	$-6427245449217649987, %rdi # imm = 0xA6CDD6512322D2BD
	callq	_KExitRegion
	movl	$34, %edi
	callq	_KInduction
	movl	$1, %esi
	movq	%r14, %rdi
	callq	_KEnterRegion
	movl	$1, %edi
	callq	_KWork
	movl	$38, %edi
	movl	$1, %esi
	movl	$1, %edx
	movl	$34, %ecx
	movl	$1, %r8d
	callq	_KTimestamp2
	.loc	2 565 3 is_stmt 1       # susan.c:565:3
.Ltmp309:
	testl	%r15d, %r15d
	movq	%rbx, %r12
.Ltmp310:
	#DEBUG_VALUE: enlarge:x_size <- R12
	jle	.LBB9_6
.Ltmp311:
# BB#4:                                 # %for.body10.lr.ph
	#DEBUG_VALUE: enlarge:in <- [RBP+-128]
	#DEBUG_VALUE: enlarge:tmp_image <- [RBP+-112]
	#DEBUG_VALUE: enlarge:x_size <- R12
	#DEBUG_VALUE: enlarge:y_size <- [RBP+-80]
	#DEBUG_VALUE: enlarge:border <- R15D
	#DEBUG_VALUE: enlarge:i <- 0
	.loc	2 566 48                # susan.c:566:48
	leal	(%r15,%r15), %eax
	.loc	2 566 16 is_stmt 0      # susan.c:566:16
	movl	%eax, -56(%rbp)         # 4-byte Spill
	movslq	%r15d, %rax
	movq	%rax, -64(%rbp)         # 8-byte Spill
	xorl	%eax, %eax
	movq	%rax, -48(%rbp)         # 8-byte Spill
	movl	$-1, %ebx
	movabsq	$2488617510920339882, %r14 # imm = 0x22895870E03941AA
.Ltmp312:
	.align	16, 0x90
.LBB9_5:                                # %for.body10
                                        # =>This Inner Loop Header: Depth=1
	#DEBUG_VALUE: enlarge:in <- [RBP+-128]
	#DEBUG_VALUE: enlarge:tmp_image <- [RBP+-112]
	#DEBUG_VALUE: enlarge:x_size <- R12
	#DEBUG_VALUE: enlarge:y_size <- [RBP+-80]
	#DEBUG_VALUE: enlarge:border <- R15D
	#DEBUG_VALUE: enlarge:i <- 0
	movq	%rbx, -72(%rbp)         # 8-byte Spill
	movl	$2, %esi
	movq	%r14, %rdi
	callq	_KEnterRegion
	movl	$38, %edi
	callq	_KPushCDep
	movl	$60, %edi
	callq	_KWork
	movl	$7, %esi
	movl	$4, %edx
	movq	%r12, %rdi
	callq	_KLoad0
	movl	(%r12), %eax
	.loc	2 566 40                # susan.c:566:40
	addl	-56(%rbp), %eax         # 4-byte Folded Reload
	.loc	2 566 26                # susan.c:566:26
	leal	(%r15,%rbx), %ecx
	imull	%eax, %ecx
	.loc	2 566 16                # susan.c:566:16
	movslq	%ecx, %r14
	addq	-64(%rbp), %r14         # 8-byte Folded Reload
	addq	-112(%rbp), %r14        # 8-byte Folded Reload
	movl	$8, %esi
	movl	$8, %edx
	movq	%r12, %r13
.Ltmp313:
	#DEBUG_VALUE: enlarge:x_size <- R13
	movq	-128(%rbp), %r12        # 8-byte Reload
.Ltmp314:
	#DEBUG_VALUE: enlarge:in <- R12
	movq	%r12, %rdi
	callq	_KLoad0
	#DEBUG_VALUE: enlarge:tmp_image <- [RBP+-112]
	.loc	2 567 7 is_stmt 1       # susan.c:567:7
	movq	(%r12), %rbx
	movl	$9, %esi
	movl	$4, %edx
	movq	%r13, %rdi
	callq	_KLoad0
.Ltmp315:
	#DEBUG_VALUE: enlarge:border <- [RBP+-104]
	movslq	(%r13), %r15
	movq	-48(%rbp), %rax         # 8-byte Reload
	cltq
	.loc	2 567 11 is_stmt 0      # susan.c:567:11
	movq	%rax, -48(%rbp)         # 8-byte Spill
	imulq	%rax, %r15
	.loc	2 567 7                 # susan.c:567:7
	addq	%rbx, %r15
	movl	$10, %esi
	movl	$4, %edx
	movq	%r13, %rdi
	callq	_KLoad0
	.loc	2 567 22                # susan.c:567:22
	movl	(%r13), %ebx
	movl	$10, %edi
	movl	$10, %esi
	xorl	%edx, %edx
	callq	_KTimestamp1
	xorl	%esi, %esi
	movabsq	$1225019029300093612, %rdi # imm = 0x110024511486A2AC
	callq	_KPrepCall
	movl	$10, %edi
	callq	_KEnqArg
	.loc	2 566 5 is_stmt 1       # susan.c:566:5
	movq	%r14, %rdi
	movq	%r15, %rsi
	movl	%ebx, %edx
	callq	wccmemcpy
	movl	$11, %esi
	movl	$4, %edx
	movq	-80(%rbp), %r15         # 8-byte Reload
.Ltmp316:
	#DEBUG_VALUE: enlarge:y_size <- R15
	movq	%r15, %rdi
	callq	_KLoad0
	.loc	2 568 26                # susan.c:568:26
	movq	-104(%rbp), %rax        # 8-byte Reload
	movq	-48(%rbp), %rcx         # 8-byte Reload
	leal	(%rax,%rcx), %ebx
	addl	(%r15), %ebx
	movl	$12, %esi
	movl	$4, %edx
	movq	%r13, %rdi
	callq	_KLoad0
	movl	(%r13), %eax
	.loc	2 568 46 is_stmt 0      # susan.c:568:46
	addl	-56(%rbp), %eax         # 4-byte Folded Reload
	.loc	2 568 26                # susan.c:568:26
	imull	%ebx, %eax
	.loc	2 568 16                # susan.c:568:16
	movslq	%eax, %r14
	addq	-64(%rbp), %r14         # 8-byte Folded Reload
	addq	-112(%rbp), %r14        # 8-byte Folded Reload
	movl	$13, %esi
	movl	$8, %edx
	movq	%r12, %rdi
	callq	_KLoad0
	.loc	2 569 7 is_stmt 1       # susan.c:569:7
	movq	(%r12), %rax
	movq	%rax, -96(%rbp)         # 8-byte Spill
.Ltmp317:
	#DEBUG_VALUE: enlarge:in <- [RBP+-128]
	movq	%r13, %r12
.Ltmp318:
	#DEBUG_VALUE: enlarge:x_size <- R12
	movl	$14, %esi
	movl	$4, %edx
	movq	%r15, %rdi
	callq	_KLoad0
	movl	(%r15), %ebx
.Ltmp319:
	#DEBUG_VALUE: enlarge:y_size <- [RBP+-80]
	movq	-72(%rbp), %r13         # 8-byte Reload
	.loc	2 569 11 is_stmt 0      # susan.c:569:11
	addl	%r13d, %ebx
	movl	$15, %esi
	movl	$4, %edx
	movq	%r12, %rdi
	callq	_KLoad0
	.loc	2 569 7                 # susan.c:569:7
	movslq	(%r12), %rax
	movslq	%ebx, %r15
	.loc	2 569 11                # susan.c:569:11
	imulq	%rax, %r15
	.loc	2 569 7                 # susan.c:569:7
	addq	-96(%rbp), %r15         # 8-byte Folded Reload
	movl	$16, %esi
	movl	$4, %edx
	movq	%r12, %rdi
	callq	_KLoad0
	.loc	2 569 34                # susan.c:569:34
	movl	(%r12), %ebx
	movl	$16, %edi
	movl	$16, %esi
	xorl	%edx, %edx
	callq	_KTimestamp1
	xorl	%esi, %esi
	movabsq	$-8835717508499494144, %rdi # imm = 0x856139BD5A302B00
	callq	_KPrepCall
	movl	$16, %edi
	callq	_KEnqArg
	.loc	2 568 5 is_stmt 1       # susan.c:568:5
	movq	%r14, %rdi
	movq	%r15, %rsi
	movq	-104(%rbp), %r15        # 8-byte Reload
.Ltmp320:
	#DEBUG_VALUE: enlarge:border <- R15D
	movl	%ebx, %edx
	callq	wccmemcpy
.Ltmp321:
	.loc	2 565 22                # susan.c:565:22
	movq	-48(%rbp), %rax         # 8-byte Reload
	incl	%eax
.Ltmp322:
	#DEBUG_VALUE: enlarge:i <- undef
	movq	%rax, -48(%rbp)         # 8-byte Spill
.Ltmp323:
	#DEBUG_VALUE: enlarge:i <- [RBP+-48]
	callq	_KPopCDep
	movl	$2, %esi
	movabsq	$2488617510920339882, %rdi # imm = 0x22895870E03941AA
	movq	%rdi, %r14
	callq	_KExitRegion
	movl	$1, %edi
	callq	_KWork
	movl	$38, %edi
	movl	$1, %esi
	movl	$1, %edx
	movl	$34, %ecx
	movl	$1, %r8d
	callq	_KTimestamp2
	movq	%r13, %rcx
.Ltmp324:
	.loc	2 565 3 is_stmt 0       # susan.c:565:3
	leal	-1(%r15,%rcx), %eax
	leal	-1(%rcx), %ecx
	cmpl	$-1, %eax
	movl	%ecx, %ebx
	jne	.LBB9_5
.Ltmp325:
.LBB9_6:                                # %for.cond8.pre_exit.for.end40
	#DEBUG_VALUE: enlarge:in <- [RBP+-128]
	#DEBUG_VALUE: enlarge:tmp_image <- [RBP+-112]
	#DEBUG_VALUE: enlarge:x_size <- R12
	#DEBUG_VALUE: enlarge:y_size <- [RBP+-80]
	#DEBUG_VALUE: enlarge:border <- R15D
	#DEBUG_VALUE: enlarge:i <- 0
	movq	%r12, -88(%rbp)         # 8-byte Spill
	movq	%r15, -104(%rbp)        # 8-byte Spill
.Ltmp326:
	#DEBUG_VALUE: enlarge:x_size <- [RBP+-88]
	movabsq	$-2911295776187417331, %r14 # imm = 0xD798FFEA9040FD0D
	movl	$1, %esi
	movabsq	$1914068568387663127, %rdi # imm = 0x1A902338C67CB517
	callq	_KExitRegion
	movl	$35, %edi
	callq	_KInduction
	movl	$1, %esi
	movq	%r14, %rdi
	callq	_KEnterRegion
	movl	$1, %edi
	callq	_KWork
	movl	$39, %edi
	movl	$1, %esi
	movl	$1, %edx
	movl	$35, %ecx
	movl	$1, %r8d
	callq	_KTimestamp2
	.loc	2 575 24 is_stmt 1      # susan.c:575:24
.Ltmp327:
	leal	(%r15,%r15), %eax
.Ltmp328:
	.loc	2 573 3                 # susan.c:573:3
	movl	%eax, -48(%rbp)         # 4-byte Spill
	testl	%r15d, %r15d
.Ltmp329:
	#DEBUG_VALUE: enlarge:border <- [RBP+-104]
	movq	-112(%rbp), %r14        # 8-byte Reload
.Ltmp330:
	#DEBUG_VALUE: enlarge:tmp_image <- R14
	movq	-80(%rbp), %r15         # 8-byte Reload
.Ltmp331:
	#DEBUG_VALUE: enlarge:y_size <- R15
	jle	.LBB9_12
.Ltmp332:
# BB#7:                                 # %for.body43.lr.ph
	#DEBUG_VALUE: enlarge:in <- [RBP+-128]
	#DEBUG_VALUE: enlarge:tmp_image <- R14
	#DEBUG_VALUE: enlarge:x_size <- [RBP+-88]
	#DEBUG_VALUE: enlarge:y_size <- R15
	#DEBUG_VALUE: enlarge:border <- [RBP+-104]
	#DEBUG_VALUE: enlarge:i <- 0
	.loc	2 576 17                # susan.c:576:17
	movq	-104(%rbp), %rax        # 8-byte Reload
	leal	-1(%rax), %eax
	movl	%eax, -132(%rbp)        # 4-byte Spill
	movabsq	$6299209432877649555, %rcx # imm = 0x576B499AC4764E93
	xorl	%ebx, %ebx
	movabsq	$-7709514218120633796, %r12 # imm = 0x95024DAA5618A23C
	movabsq	$5945787179452063855, %r13 # imm = 0x5283ADF0054FE06F
	xorl	%eax, %eax
.Ltmp333:
	.align	16, 0x90
.LBB9_8:                                # %for.body43
                                        # =>This Loop Header: Depth=1
                                        #     Child Loop BB9_9 Depth 2
	#DEBUG_VALUE: enlarge:in <- [RBP+-128]
	#DEBUG_VALUE: enlarge:tmp_image <- R14
	#DEBUG_VALUE: enlarge:x_size <- [RBP+-88]
	#DEBUG_VALUE: enlarge:y_size <- R15
	#DEBUG_VALUE: enlarge:border <- [RBP+-104]
	#DEBUG_VALUE: enlarge:i <- 0
	movq	%rax, -120(%rbp)        # 8-byte Spill
	movl	$2, %esi
	movq	%rcx, %rdi
	callq	_KEnterRegion
	movl	$39, %edi
	callq	_KPushCDep
.Ltmp334:
	#DEBUG_VALUE: enlarge:j <- 0
	movl	$36, %edi
	callq	_KInduction
	callq	_KPopCDep
	movl	$1, %esi
	movq	%r12, %rdi
	callq	_KEnterRegion
	.loc	2 576 60 is_stmt 0      # susan.c:576:60
	movq	-104(%rbp), %rax        # 8-byte Reload
	movq	-120(%rbp), %rcx        # 8-byte Reload
	leal	(%rcx,%rax), %eax
	.loc	2 576 17                # susan.c:576:17
	movl	%eax, -56(%rbp)         # 4-byte Spill
	addl	-132(%rbp), %ebx        # 4-byte Folded Reload
	movl	%ebx, -96(%rbp)         # 4-byte Spill
	xorl	%r12d, %r12d
	jmp	.LBB9_9
.Ltmp335:
	.align	16, 0x90
.LBB9_10:                               # %for.body48
                                        #   in Loop: Header=BB9_9 Depth=2
	#DEBUG_VALUE: enlarge:tmp_image <- R14
	#DEBUG_VALUE: enlarge:x_size <- [RBP+-88]
	#DEBUG_VALUE: enlarge:y_size <- R15
	#DEBUG_VALUE: enlarge:border <- [RBP+-104]
	#DEBUG_VALUE: enlarge:i <- 0
	#DEBUG_VALUE: enlarge:j <- 0
	movl	$2, %esi
	movq	%r13, %rdi
	callq	_KEnterRegion
	movl	$40, %edi
	callq	_KPushCDep
	movl	$66, %edi
	callq	_KWork
	movl	$18, %esi
	movl	$4, %edx
	movq	-88(%rbp), %r13         # 8-byte Reload
.Ltmp336:
	#DEBUG_VALUE: enlarge:x_size <- R13
	movq	%r13, %rdi
	callq	_KLoad0
	movl	(%r13), %eax
	movl	-48(%rbp), %ecx         # 4-byte Reload
	.loc	2 576 63                # susan.c:576:63
	addl	%ecx, %eax
	movl	%ecx, %r15d
.Ltmp337:
	.loc	2 576 60                # susan.c:576:60
	movl	%r12d, -72(%rbp)        # 4-byte Spill
	imull	%r12d, %eax
	addl	-56(%rbp), %eax         # 4-byte Folded Reload
	.loc	2 576 50                # susan.c:576:50
	movslq	%eax, %rbx
	leaq	(%r14,%rbx), %rdi
	movl	$19, %esi
	movl	$20, %edx
	movl	$1, %ecx
	callq	_KLoad1
	#DEBUG_VALUE: enlarge:in <- [RBP+-128]
	movb	(%r14,%rbx), %al
	movb	%al, -64(%rbp)          # 1-byte Spill
	movl	$21, %esi
	movl	$4, %edx
	movq	%r13, %rdi
	callq	_KLoad0
	movl	(%r13), %eax
	.loc	2 576 20                # susan.c:576:20
	addl	%r15d, %eax
	.loc	2 576 17                # susan.c:576:17
	imull	%r12d, %eax
	movl	-96(%rbp), %r12d        # 4-byte Reload
	addl	%r12d, %eax
.Ltmp338:
	#DEBUG_VALUE: enlarge:y_size <- [RBP+-80]
	.loc	2 576 7                 # susan.c:576:7
	movslq	%eax, %r15
	leaq	(%r14,%r15), %rbx
	movl	$19, %edi
	movl	$19, %esi
	xorl	%edx, %edx
	callq	_KTimestamp1
	movl	$19, %edi
	movl	$1, %edx
	movq	%rbx, %rsi
	callq	_KStore
	movb	-64(%rbp), %al          # 1-byte Reload
	movb	%al, (%r14,%r15)
	movl	$22, %esi
	movl	$4, %edx
	movq	%r13, %rdi
	callq	_KLoad0
	movl	(%r13), %ebx
	.loc	2 577 70 is_stmt 1      # susan.c:577:70
	addl	-48(%rbp), %ebx         # 4-byte Folded Reload
	movl	-72(%rbp), %r15d        # 4-byte Reload
	.loc	2 577 67 is_stmt 0      # susan.c:577:67
	imull	%r15d, %ebx
	movl	$23, %esi
	movl	$4, %edx
	movq	%r13, %rdi
	callq	_KLoad0
	movl	(%r13), %eax
	addl	%r12d, %eax
	addl	%ebx, %eax
	.loc	2 577 57                # susan.c:577:57
	movslq	%eax, %rbx
	leaq	(%r14,%rbx), %rdi
	movl	$24, %esi
	movl	$25, %edx
	movl	$1, %ecx
	callq	_KLoad1
	movb	(%r14,%rbx), %al
	movb	%al, -64(%rbp)          # 1-byte Spill
	movl	$26, %esi
	movl	$4, %edx
	movq	%r13, %rdi
	callq	_KLoad0
	movl	(%r13), %ebx
	.loc	2 577 20                # susan.c:577:20
	addl	-48(%rbp), %ebx         # 4-byte Folded Reload
	.loc	2 577 17                # susan.c:577:17
	imull	%r15d, %ebx
	movl	%r15d, %r12d
	movl	$27, %esi
	movl	$4, %edx
	movq	%r13, %rdi
	callq	_KLoad0
	movl	(%r13), %eax
.Ltmp339:
	#DEBUG_VALUE: enlarge:x_size <- [RBP+-88]
	addl	-56(%rbp), %eax         # 4-byte Folded Reload
	addl	%ebx, %eax
	.loc	2 577 7                 # susan.c:577:7
	movslq	%eax, %rbx
	leaq	(%r14,%rbx), %r15
	movl	$24, %edi
	movl	$24, %esi
	xorl	%edx, %edx
	callq	_KTimestamp1
	movl	$24, %edi
	movl	$1, %edx
	movq	%r15, %rsi
	movq	-80(%rbp), %r15         # 8-byte Reload
.Ltmp340:
	#DEBUG_VALUE: enlarge:y_size <- R15
	callq	_KStore
	movb	-64(%rbp), %al          # 1-byte Reload
	movb	%al, (%r14,%rbx)
.Ltmp341:
	.loc	2 575 34 is_stmt 1      # susan.c:575:34
	incl	%r12d
.Ltmp342:
	#DEBUG_VALUE: enlarge:j <- R12D
	callq	_KPopCDep
	movl	$2, %esi
	movabsq	$5945787179452063855, %rdi # imm = 0x5283ADF0054FE06F
	movq	%rdi, %r13
	callq	_KExitRegion
.Ltmp343:
.LBB9_9:                                # %for.cond44
                                        #   Parent Loop BB9_8 Depth=1
                                        # =>  This Inner Loop Header: Depth=2
	#DEBUG_VALUE: enlarge:in <- [RBP+-128]
	#DEBUG_VALUE: enlarge:tmp_image <- R14
	#DEBUG_VALUE: enlarge:x_size <- [RBP+-88]
	#DEBUG_VALUE: enlarge:y_size <- R15
	#DEBUG_VALUE: enlarge:border <- [RBP+-104]
	#DEBUG_VALUE: enlarge:i <- 0
	#DEBUG_VALUE: enlarge:j <- 0
	movl	$39, %edi
	callq	_KPushCDep
	movl	$17, %esi
	movl	$4, %edx
	movq	%r15, %rdi
	callq	_KLoad0
	movl	$8, %edi
	callq	_KWork
	movl	(%r15), %ebx
	.loc	2 575 16 is_stmt 0      # susan.c:575:16
	addl	-48(%rbp), %ebx         # 4-byte Folded Reload
	movl	$2, 16(%rsp)
	movl	$17, 8(%rsp)
	movl	$1, (%rsp)
	movl	$40, %edi
	movl	$1, %esi
	movl	$4, %edx
	movl	$39, %ecx
	movl	$4, %r8d
	movl	$36, %r9d
	callq	_KTimestamp4
	callq	_KPopCDep
.Ltmp344:
	.loc	2 575 5                 # susan.c:575:5
	cmpl	%ebx, %r12d
	jl	.LBB9_10
.Ltmp345:
# BB#11:                                # %for.cond44.pre_exit.for.inc82
                                        #   in Loop: Header=BB9_8 Depth=1
	#DEBUG_VALUE: enlarge:in <- [RBP+-128]
	#DEBUG_VALUE: enlarge:tmp_image <- R14
	#DEBUG_VALUE: enlarge:x_size <- [RBP+-88]
	#DEBUG_VALUE: enlarge:y_size <- R15
	#DEBUG_VALUE: enlarge:border <- [RBP+-104]
	#DEBUG_VALUE: enlarge:i <- 0
	#DEBUG_VALUE: enlarge:j <- 0
	movl	$1, %esi
	movabsq	$-7709514218120633796, %rax # imm = 0x95024DAA5618A23C
	movq	%rax, %rdi
	callq	_KExitRegion
	movl	$39, %edi
	callq	_KPushCDep
	movq	-120(%rbp), %r12        # 8-byte Reload
	.loc	2 573 22 is_stmt 1      # susan.c:573:22
	leal	1(%r12), %eax
.Ltmp346:
	#DEBUG_VALUE: enlarge:i <- [RBP+-56]
	movl	%eax, -56(%rbp)         # 4-byte Spill
	callq	_KPopCDep
	movl	$2, %esi
	movabsq	$6299209432877649555, %rbx # imm = 0x576B499AC4764E93
	movq	%rbx, %rdi
	callq	_KExitRegion
	movl	%r12d, %ebx
	notl	%ebx
	movl	$1, %edi
	callq	_KWork
	movl	$39, %edi
	movl	$1, %esi
	movl	$1, %edx
	movl	$35, %ecx
	movl	$1, %r8d
	callq	_KTimestamp2
	movabsq	$6299209432877649555, %rcx # imm = 0x576B499AC4764E93
	movl	-132(%rbp), %eax        # 4-byte Reload
.Ltmp347:
	.loc	2 573 3 is_stmt 0       # susan.c:573:3
	cmpl	%eax, %r12d
	movabsq	$-7709514218120633796, %r12 # imm = 0x95024DAA5618A23C
	movl	-56(%rbp), %edx         # 4-byte Reload
	movl	%edx, %eax
.Ltmp348:
	#DEBUG_VALUE: enlarge:i <- EAX
	jne	.LBB9_8
.Ltmp349:
.LBB9_12:                               # %for.cond41.pre_exit.for.end84
	#DEBUG_VALUE: enlarge:in <- [RBP+-128]
	#DEBUG_VALUE: enlarge:tmp_image <- R14
	#DEBUG_VALUE: enlarge:x_size <- [RBP+-88]
	#DEBUG_VALUE: enlarge:y_size <- R15
	#DEBUG_VALUE: enlarge:i <- 0
	movl	$1, %esi
	movabsq	$-2911295776187417331, %rdi # imm = 0xD798FFEA9040FD0D
	callq	_KExitRegion
	movl	$17, %edi
	callq	_KWork
	movl	$28, %esi
	movl	$4, %edx
	movq	-88(%rbp), %rbx         # 8-byte Reload
.Ltmp350:
	#DEBUG_VALUE: enlarge:x_size <- RBX
	movq	%rbx, %rdi
	callq	_KLoad0
	movl	(%rbx), %r13d
	movl	-48(%rbp), %r12d        # 4-byte Reload
	.loc	2 581 3 is_stmt 1       # susan.c:581:3
	addl	%r12d, %r13d
	movl	$29, %edi
	movl	$1, %esi
	movl	$3, %edx
	movl	$28, %ecx
	movl	$1, %r8d
	callq	_KTimestamp2
	movl	$29, %edi
	movl	$4, %edx
	movq	%rbx, %rsi
	callq	_KStore
	movl	%r13d, (%rbx)
	movl	$30, %esi
	movl	$4, %edx
	movq	%r15, %rdi
	callq	_KLoad0
	.loc	2 582 3                 # susan.c:582:3
	addl	(%r15), %r12d
	movl	$31, %edi
	movl	$1, %esi
	movl	$3, %edx
	movl	$30, %ecx
	movl	$1, %r8d
	callq	_KTimestamp2
	movl	$31, %edi
	movl	$4, %edx
	movq	%r15, %rsi
	callq	_KStore
	movl	%r12d, (%r15)
	movl	$32, %edi
	movl	$32, %esi
	xorl	%edx, %edx
	callq	_KTimestamp1
	movl	$32, %edi
	movl	$8, %edx
	movq	-128(%rbp), %rbx        # 8-byte Reload
.Ltmp351:
	#DEBUG_VALUE: enlarge:in <- RBX
	movq	%rbx, %rsi
	callq	_KStore
	.loc	2 583 3                 # susan.c:583:3
	movq	%r14, (%rbx)
	xorl	%esi, %esi
	movabsq	$-1743347248707288118, %rdi # imm = 0xE7CE62E9F8A5C3CA
	addq	$120, %rsp
	popq	%rbx
.Ltmp352:
	popq	%r12
	popq	%r13
	popq	%r14
.Ltmp353:
	popq	%r15
.Ltmp354:
	popq	%rbp
	jmp	_KExitRegion            # TAILCALL
.Ltmp355:
.Ltmp356:
	.size	enlarge, .Ltmp356-enlarge
.Lfunc_end9:
	.cfi_endproc

	.section	.rodata.cst8,"aM",@progbits,8
	.align	8
.LCPI10_0:
	.quad	4609434218613702656     # double 1.5
.LCPI10_3:
	.quad	4636737291354636288     # double 100
	.section	.rodata.cst4,"aM",@progbits,4
	.align	4
.LCPI10_1:
	.long	1097859072              # float 15
	.section	.rodata.cst16,"aM",@progbits,16
	.align	16
.LCPI10_2:
	.long	2147483648              # 0x80000000
	.long	2147483648              # 0x80000000
	.long	2147483648              # 0x80000000
	.long	2147483648              # 0x80000000
	.text
	.globl	susan_smoothing
	.align	16, 0x90
	.type	susan_smoothing,@function
susan_smoothing:                        # @susan_smoothing
.Lfunc_begin10:
	.loc	2 589 0                 # susan.c:589:0
	.cfi_startproc
# BB#0:                                 # %entry
	pushq	%rbp
.Ltmp357:
	.cfi_def_cfa_offset 16
.Ltmp358:
	.cfi_offset %rbp, -16
	movq	%rsp, %rbp
.Ltmp359:
	.cfi_def_cfa_register %rbp
	pushq	%r15
	pushq	%r14
	pushq	%r13
	pushq	%r12
	pushq	%rbx
	subq	$504, %rsp              # imm = 0x1F8
.Ltmp360:
	.cfi_offset %rbx, -56
.Ltmp361:
	.cfi_offset %r12, -48
.Ltmp362:
	.cfi_offset %r13, -40
.Ltmp363:
	.cfi_offset %r14, -32
.Ltmp364:
	.cfi_offset %r15, -24
	#DEBUG_VALUE: susan_smoothing:three_by_three <- EDI
	#DEBUG_VALUE: susan_smoothing:in <- RSI
	#DEBUG_VALUE: susan_smoothing:dt <- XMM0
	#DEBUG_VALUE: susan_smoothing:x_size <- EDX
	#DEBUG_VALUE: susan_smoothing:y_size <- ECX
	#DEBUG_VALUE: susan_smoothing:bp <- R8
	movq	%r8, -112(%rbp)         # 8-byte Spill
.Ltmp365:
	#DEBUG_VALUE: susan_smoothing:bp <- [RBP+-112]
	movl	%ecx, %r14d
.Ltmp366:
	#DEBUG_VALUE: susan_smoothing:y_size <- R14D
	movl	%edx, %r13d
.Ltmp367:
	#DEBUG_VALUE: susan_smoothing:x_size <- R13D
	movss	%xmm0, -88(%rbp)        # 4-byte Spill
.Ltmp368:
	#DEBUG_VALUE: susan_smoothing:dt <- [RBP+-88]
	movq	%rsi, %rbx
.Ltmp369:
	#DEBUG_VALUE: susan_smoothing:in <- RBX
	movl	%edi, %r12d
.Ltmp370:
	#DEBUG_VALUE: susan_smoothing:three_by_three <- R12D
	movl	%r12d, -64(%rbp)        # 4-byte Spill
	movabsq	$-5223185220444022319, %rdi # imm = 0xB78384B7335D19D1
	xorl	%esi, %esi
	callq	_KEnterRegion
	movl	$146, %edi
	movl	$8, %esi
	callq	_KPrepRTable
	movl	$4, %edi
	callq	_KDeqArg
	movl	$3, %edi
	callq	_KDeqArg
	movl	$2, %edi
	callq	_KDeqArg
	movl	$1, %edi
	callq	_KDeqArg
	movl	$8, %edi
	callq	_KWork
	movl	$5, %edi
	movl	$5, %esi
	xorl	%edx, %edx
	callq	_KTimestamp1
	leaq	-48(%rbp), %r15
.Ltmp371:
	#DEBUG_VALUE: susan_smoothing:in <- [R15+0]
	movl	$5, %edi
	movl	$8, %edx
	movq	%r15, %rsi
	callq	_KStore
	movq	%rbx, -48(%rbp)
	movl	$3, %edi
	movl	$3, %esi
	xorl	%edx, %edx
	callq	_KTimestamp1
	leaq	-52(%rbp), %rsi
	movl	$3, %edi
	movl	$4, %edx
	callq	_KStore
	movl	%r13d, -52(%rbp)
	movl	$4, %edi
	movl	$4, %esi
	xorl	%edx, %edx
	callq	_KTimestamp1
	leaq	-56(%rbp), %rsi
	movl	$4, %edi
	movl	$4, %edx
	callq	_KStore
	movl	%r14d, -56(%rbp)
	movl	$6, %esi
	movl	$8, %edx
	movq	%r15, %rdi
	callq	_KLoad0
	.loc	2 593 41 prologue_end   # susan.c:593:41
.Ltmp372:
	movq	-48(%rbp), %rax
.Ltmp373:
	#DEBUG_VALUE: susan_smoothing:out <- [RBP+-160]
	movq	%rax, -160(%rbp)        # 8-byte Spill
	movl	$6, %edi
	movl	$6, %esi
	xorl	%edx, %edx
	callq	_KTimestamp1
	movl	$96, %edi
	movl	$1, %esi
	movl	$1, %edx
	callq	_KTimestamp1
	movl	$96, %edi
	callq	_KPushCDep
	.loc	2 599 7                 # susan.c:599:7
	testl	%r12d, %r12d
.Ltmp374:
	#DEBUG_VALUE: susan_smoothing:three_by_three <- [RBP+-64]
	je	.LBB10_1
.Ltmp375:
# BB#2:                                 # %if.else
	#DEBUG_VALUE: susan_smoothing:three_by_three <- [RBP+-64]
	#DEBUG_VALUE: susan_smoothing:dt <- [RBP+-88]
	#DEBUG_VALUE: susan_smoothing:bp <- [RBP+-112]
	#DEBUG_VALUE: susan_smoothing:out <- [RBP+-160]
	#DEBUG_VALUE: susan_smoothing:mask_size <- 1
	callq	_KPopCDep
	movl	$1, %r13d
	xorl	%ebx, %ebx
	jmp	.LBB10_3
.LBB10_1:                               # %if.then
	#DEBUG_VALUE: susan_smoothing:three_by_three <- [RBP+-64]
	#DEBUG_VALUE: susan_smoothing:dt <- [RBP+-88]
	#DEBUG_VALUE: susan_smoothing:bp <- [RBP+-112]
	#DEBUG_VALUE: susan_smoothing:out <- [RBP+-160]
	movl	$6, %edi
	callq	_KWork
	.loc	2 600 30                # susan.c:600:30
.Ltmp376:
	movss	-88(%rbp), %xmm0        # 4-byte Reload
	cvtss2sd	%xmm0, %xmm0
	.loc	2 600 24 is_stmt 0      # susan.c:600:24
	mulsd	.LCPI10_0(%rip), %xmm0
	.loc	2 600 18                # susan.c:600:18
	cvttsd2si	%xmm0, %r13d
	.loc	2 600 17                # susan.c:600:17
	incl	%r13d
.Ltmp377:
	#DEBUG_VALUE: susan_smoothing:mask_size <- R13D
	movl	$95, %ebx
	movl	$95, %edi
	movl	$1, %esi
	movl	$7, %edx
	movl	$2, %ecx
	movl	$6, %r8d
	callq	_KTimestamp2
	callq	_KPopCDep
.Ltmp378:
.LBB10_3:                               # %if.end
	#DEBUG_VALUE: susan_smoothing:three_by_three <- [RBP+-64]
	#DEBUG_VALUE: susan_smoothing:dt <- [RBP+-88]
	#DEBUG_VALUE: susan_smoothing:bp <- [RBP+-112]
	#DEBUG_VALUE: susan_smoothing:out <- [RBP+-160]
	movq	%r13, -96(%rbp)         # 8-byte Spill
	movabsq	$-7131228994629441968, %r14 # imm = 0x9D08C90323256650
	movl	$12, %edi
	movl	$96, %edx
	movl	%ebx, %esi
	callq	_KPhi1To1
	movl	$4, %edi
	callq	_KWork
.Ltmp379:
	#DEBUG_VALUE: susan_smoothing:total <- 0
	movl	$12, %edi
	movl	$12, %esi
	xorl	%edx, %edx
	callq	_KTimestamp1
	movl	$143, %edi
	movl	$2, %esi
	movl	$3, %edx
	callq	_KTimestamp1
.Ltmp380:
	#DEBUG_VALUE: susan_smoothing:dt <- undef
	.loc	2 605 8 is_stmt 1       # susan.c:605:8
	movss	-88(%rbp), %xmm0        # 4-byte Reload
	ucomiss	.LCPI10_1(%rip), %xmm0
.Ltmp381:
	#DEBUG_VALUE: susan_smoothing:dt <- [RBP+-88]
	jbe	.LBB10_5
# BB#4:                                 # %if.then14
	#DEBUG_VALUE: susan_smoothing:three_by_three <- [RBP+-64]
	#DEBUG_VALUE: susan_smoothing:dt <- [RBP+-88]
	#DEBUG_VALUE: susan_smoothing:bp <- [RBP+-112]
	#DEBUG_VALUE: susan_smoothing:out <- [RBP+-160]
	#DEBUG_VALUE: susan_smoothing:total <- 0
	movl	$143, %edi
	callq	_KPushCDep
	movabsq	$8658709889535339052, %rdi # imm = 0x7829EAC4CAEA6A2C
	xorl	%esi, %esi
	callq	_KPrepCall
	xorl	%esi, %esi
	.loc	2 606 5                 # susan.c:606:5
.Ltmp382:
	movq	%r14, %rdi
	callq	_KEnterRegion
	movl	$1, %edi
	xorl	%esi, %esi
	callq	_KPrepRTable
.Ltmp383:
	#DEBUG_VALUE: exit_error:j <- 1
	#DEBUG_VALUE: exit_error:i <- 0
	xorl	%esi, %esi
	movq	%r14, %rdi
	callq	_KExitRegion
	callq	_KPopCDep
.Ltmp384:
.LBB10_5:                               # %if.end15
	#DEBUG_VALUE: susan_smoothing:three_by_three <- [RBP+-64]
	#DEBUG_VALUE: susan_smoothing:dt <- [RBP+-88]
	#DEBUG_VALUE: susan_smoothing:bp <- [RBP+-112]
	#DEBUG_VALUE: susan_smoothing:out <- [RBP+-160]
	#DEBUG_VALUE: susan_smoothing:total <- 0
	movl	$8, %edi
	callq	_KWork
.Ltmp385:
	#DEBUG_VALUE: susan_smoothing:i <- R13D
	.loc	2 611 9                 # susan.c:611:9
	leal	(%r13,%r13), %r15d
	leal	1(%r13,%r13), %r12d
.Ltmp386:
	#DEBUG_VALUE: susan_smoothing:n_max <- R12D
	leaq	-52(%rbp), %rdi
.Ltmp387:
	#DEBUG_VALUE: susan_smoothing:x_size <- [RDI+0]
	movl	$7, %esi
	movl	$4, %edx
	callq	_KLoad0
	movl	-52(%rbp), %ebx
	movl	$144, %edi
.Ltmp388:
	movl	$12, %esi
	movl	$4, %edx
	movl	$7, %ecx
	movl	$1, %r8d
	callq	_KTimestamp2
	cmpl	%ebx, %r12d
	jg	.LBB10_7
.Ltmp389:
# BB#6:                                 # %lor.lhs.false
	#DEBUG_VALUE: susan_smoothing:three_by_three <- [RBP+-64]
	#DEBUG_VALUE: susan_smoothing:dt <- [RBP+-88]
	#DEBUG_VALUE: susan_smoothing:bp <- [RBP+-112]
	#DEBUG_VALUE: susan_smoothing:out <- [RBP+-160]
	#DEBUG_VALUE: susan_smoothing:total <- 0
	#DEBUG_VALUE: susan_smoothing:i <- R13D
	#DEBUG_VALUE: susan_smoothing:n_max <- R12D
	movl	$144, %edi
	callq	_KPushCDep
	movl	$8, %edi
	callq	_KWork
	leaq	-56(%rbp), %rdi
.Ltmp390:
	#DEBUG_VALUE: susan_smoothing:y_size <- [RDI+0]
	movl	$8, %esi
	movl	$4, %edx
	callq	_KLoad0
	.loc	2 611 8 is_stmt 0       # susan.c:611:8
	movl	-56(%rbp), %ebx
	movl	$1, (%rsp)
	movl	$145, %edi
.Ltmp391:
	movl	$12, %esi
	movl	$8, %edx
	movl	$7, %ecx
	movl	$5, %r8d
	movl	$8, %r9d
	callq	_KTimestamp3
	callq	_KPopCDep
	cmpl	%ebx, %r12d
	jle	.LBB10_8
.Ltmp392:
.LBB10_7:                               # %if.then24
	#DEBUG_VALUE: susan_smoothing:three_by_three <- [RBP+-64]
	#DEBUG_VALUE: susan_smoothing:dt <- [RBP+-88]
	#DEBUG_VALUE: susan_smoothing:bp <- [RBP+-112]
	#DEBUG_VALUE: susan_smoothing:out <- [RBP+-160]
	#DEBUG_VALUE: susan_smoothing:total <- 0
	#DEBUG_VALUE: susan_smoothing:i <- R13D
	#DEBUG_VALUE: susan_smoothing:n_max <- R12D
	movl	$144, %edi
	callq	_KPushCDep
	movabsq	$7035442982042186985, %rdi # imm = 0x61A2EA1DE623B4E9
	xorl	%esi, %esi
	callq	_KPrepCall
	xorl	%esi, %esi
	.loc	2 612 5 is_stmt 1       # susan.c:612:5
.Ltmp393:
	movq	%r14, %rdi
	callq	_KEnterRegion
	movl	$1, %edi
	xorl	%esi, %esi
	callq	_KPrepRTable
.Ltmp394:
	#DEBUG_VALUE: exit_error:j <- 1
	#DEBUG_VALUE: exit_error:i <- 0
	xorl	%esi, %esi
	movq	%r14, %rdi
	callq	_KExitRegion
	callq	_KPopCDep
.Ltmp395:
.LBB10_8:                               # %if.end25
	#DEBUG_VALUE: susan_smoothing:three_by_three <- [RBP+-64]
	#DEBUG_VALUE: susan_smoothing:dt <- [RBP+-88]
	#DEBUG_VALUE: susan_smoothing:bp <- [RBP+-112]
	#DEBUG_VALUE: susan_smoothing:out <- [RBP+-160]
	#DEBUG_VALUE: susan_smoothing:total <- 0
	#DEBUG_VALUE: susan_smoothing:i <- R13D
	#DEBUG_VALUE: susan_smoothing:n_max <- R12D
	movl	%r12d, -120(%rbp)       # 4-byte Spill
.Ltmp396:
	#DEBUG_VALUE: susan_smoothing:n_max <- [RBP+-120]
	movl	$17, %edi
	callq	_KWork
	leaq	-52(%rbp), %r14
.Ltmp397:
	#DEBUG_VALUE: susan_smoothing:x_size <- [R14+0]
	movl	$9, %esi
	movl	$4, %edx
	movq	%r14, %rdi
	callq	_KLoad0
	movl	-52(%rbp), %ebx
	.loc	2 615 36                # susan.c:615:36
	addl	%r15d, %ebx
	leaq	-56(%rbp), %r12
.Ltmp398:
	#DEBUG_VALUE: susan_smoothing:y_size <- [R12+0]
	movl	$10, %esi
	movl	$4, %edx
	movq	%r12, %rdi
	callq	_KLoad0
	.loc	2 615 59 is_stmt 0      # susan.c:615:59
	addl	-56(%rbp), %r15d
	.loc	2 615 35                # susan.c:615:35
	imull	%ebx, %r15d
	movabsq	$-7451186784083513192, %rdi # imm = 0x98981119139DF098
	xorl	%esi, %esi
	callq	_KPrepCall
	movl	$3, (%rsp)
	movl	$11, %edi
	movl	$12, %esi
	movl	$5, %edx
	movl	$9, %ecx
	movl	$3, %r8d
	movl	$10, %r9d
	callq	_KTimestamp3
	movl	$11, %edi
	callq	_KEnqArg
	.loc	2 615 24                # susan.c:615:24
	movl	%r15d, %edi
	callq	wccmalloc
	movq	%rax, %rbx
.Ltmp399:
	#DEBUG_VALUE: susan_smoothing:tmp_image <- RBX
	movabsq	$2535192744519199697, %rdi # imm = 0x232ED05E7E36EBD1
	xorl	%esi, %esi
	callq	_KPrepCall
	movl	$12, %edi
	callq	_KEnqArg
	leaq	-48(%rbp), %rdi
.Ltmp400:
	#DEBUG_VALUE: susan_smoothing:in <- [RDI+0]
	.loc	2 616 3 is_stmt 1       # susan.c:616:3
	movq	%rbx, %rsi
	movq	%r14, %rdx
	movq	%r12, %rcx
	movl	%r13d, %r8d
	callq	enlarge
	movl	$18, %edi
.Ltmp401:
	movl	$1, %esi
	movl	$1, %edx
	callq	_KTimestamp1
	movl	$18, %edi
	callq	_KPushCDep
	.loc	2 618 7                 # susan.c:618:7
	cmpl	$0, -64(%rbp)           # 4-byte Folded Reload
	je	.LBB10_9
.Ltmp402:
# BB#30:                                # %if.else130
	#DEBUG_VALUE: susan_smoothing:bp <- [RBP+-112]
	#DEBUG_VALUE: susan_smoothing:out <- [RBP+-160]
	#DEBUG_VALUE: susan_smoothing:total <- 0
	movabsq	$4431436282168790827, %rbx # imm = 0x3D7F9FD1E372CF2B
.Ltmp403:
	#DEBUG_VALUE: susan_smoothing:i <- 1
	callq	_KPopCDep
	movl	$1, %esi
	movq	%rbx, %rdi
	callq	_KEnterRegion
	movl	$6, %r14d
	movl	$0, %eax
	movq	%rax, -248(%rbp)        # 8-byte Spill
	xorl	%ebx, %ebx
	xorl	%r15d, %r15d
	movq	-160(%rbp), %r12        # 8-byte Reload
.Ltmp404:
	#DEBUG_VALUE: susan_smoothing:out <- R12
	movl	$1, %r13d
	jmp	.LBB10_31
.Ltmp405:
	.align	16, 0x90
.LBB10_38:                              # %for.cond136.pre_exit.for.inc255
                                        #   in Loop: Header=BB10_31 Depth=1
	#DEBUG_VALUE: susan_smoothing:bp <- [RBP+-112]
	#DEBUG_VALUE: susan_smoothing:total <- 0
	#DEBUG_VALUE: susan_smoothing:i <- 1
	#DEBUG_VALUE: susan_smoothing:x_size <- [R15+0]
	#DEBUG_VALUE: susan_smoothing:x_size <- [RBP+-64]
	#DEBUG_VALUE: susan_smoothing:y_size <- undef
	#DEBUG_VALUE: susan_smoothing:j <- 1
	movl	$1, %esi
	movabsq	$-3739626490254177794, %rdi # imm = 0xCC1A2D853FC249FE
	callq	_KExitRegion
	movl	$92, %ebx
	movl	$92, %edi
	callq	_KPushCDep
	movl	$1, %edi
	callq	_KWork
	movl	-228(%rbp), %r13d       # 4-byte Reload
	.loc	2 675 25                # susan.c:675:25
.Ltmp406:
	incl	%r13d
.Ltmp407:
	#DEBUG_VALUE: susan_smoothing:i <- R13D
	movl	$135, %r15d
	movl	$135, %edi
	movl	$89, %esi
	movl	$1, %edx
	movl	$92, %ecx
	movl	$1, %r8d
	callq	_KTimestamp2
	callq	_KPopCDep
	movl	$2, %esi
	movabsq	$5323751915927827752, %rdi # imm = 0x49E1C4293D2EF528
	callq	_KExitRegion
	movq	-248(%rbp), %rax        # 8-byte Reload
	incl	%eax
	movq	%rax, -248(%rbp)        # 8-byte Spill
	movl	$137, %r14d
.Ltmp408:
.LBB10_31:                              # %for.cond131
                                        # =>This Loop Header: Depth=1
                                        #     Child Loop BB10_33 Depth 2
	#DEBUG_VALUE: susan_smoothing:bp <- [RBP+-112]
	#DEBUG_VALUE: susan_smoothing:total <- 0
	#DEBUG_VALUE: susan_smoothing:i <- 1
	movl	%r13d, -228(%rbp)       # 4-byte Spill
	movq	%r12, -160(%rbp)        # 8-byte Spill
	movl	$18, %edi
	callq	_KPushCDep
	movl	$136, %edi
	movl	$18, %edx
	movl	%r14d, %esi
	movl	%ebx, %ecx
	callq	_KPhi2To1
	movl	$89, %edi
	movl	$18, %edx
	movl	%r15d, %esi
	movl	%ebx, %ecx
	callq	_KPhi2To1
	#DEBUG_VALUE: susan_smoothing:y_size <- undef
	movl	$47, %esi
	movl	$4, %edx
	leaq	-56(%rbp), %rdi
	callq	_KLoad0
	movl	$6, %edi
	callq	_KWork
	.loc	2 675 16 is_stmt 0      # susan.c:675:16
	movl	-56(%rbp), %ebx
	decl	%ebx
	movl	$2, (%rsp)
	movl	$92, %edi
	movl	$18, %esi
	movl	$2, %edx
	movl	$89, %ecx
	movl	$1, %r8d
	movl	$47, %r9d
	callq	_KTimestamp3
	movl	$89, %edi
	movl	$89, %esi
	xorl	%edx, %edx
	callq	_KTimestamp1
	movl	$136, %edi
	movl	$136, %esi
	xorl	%edx, %edx
	callq	_KTimestamp1
	movl	$136, %edi
	movl	$92, %esi
	callq	_KPhiAddCond
	movl	$89, %edi
	movl	$92, %esi
	callq	_KPhiAddCond
	callq	_KPopCDep
.Ltmp409:
	.loc	2 675 5                 # susan.c:675:5
	cmpl	%ebx, %r13d
	jge	.LBB10_40
# BB#32:                                # %for.body135
                                        #   in Loop: Header=BB10_31 Depth=1
	#DEBUG_VALUE: susan_smoothing:bp <- [RBP+-112]
	#DEBUG_VALUE: susan_smoothing:total <- 0
	#DEBUG_VALUE: susan_smoothing:i <- 1
	#DEBUG_VALUE: susan_smoothing:y_size <- undef
	movl	%r13d, -228(%rbp)       # 4-byte Spill
	movl	$2, %esi
	movabsq	$5323751915927827752, %rdi # imm = 0x49E1C4293D2EF528
	callq	_KEnterRegion
	movl	$92, %edi
	callq	_KPushCDep
	#DEBUG_VALUE: susan_smoothing:j <- 1
	callq	_KPopCDep
	movl	$1, %esi
	movabsq	$-3739626490254177794, %rdi # imm = 0xCC1A2D853FC249FE
	callq	_KEnterRegion
	movl	$136, %r14d
	xorl	%ebx, %ebx
	movl	$6, %r13d
	xorl	%r15d, %r15d
	jmp	.LBB10_33
	.align	16, 0x90
.LBB10_37:                              # %for.inc252
                                        #   in Loop: Header=BB10_33 Depth=2
	movl	$11, %esi
	movl	$78, %edx
	movl	$5, %ecx
	movl	$81, %r8d
	movl	$4, %r9d
	xorl	%eax, %eax
	callq	_KTimestamp
	callq	_KPopCDep
	movq	-160(%rbp), %r12        # 8-byte Reload
	#DEBUG_VALUE: susan_smoothing:bp <- [RBP+-112]
.Ltmp410:
	#DEBUG_VALUE: susan_smoothing:in <- [RBP+-80]
	#DEBUG_VALUE: susan_smoothing:total <- 0
	#DEBUG_VALUE: susan_smoothing:i <- 1
	#DEBUG_VALUE: susan_smoothing:x_size <- [RBP+-64]
	#DEBUG_VALUE: susan_smoothing:y_size <- undef
	#DEBUG_VALUE: susan_smoothing:j <- 1
	#DEBUG_VALUE: susan_smoothing:area <- 0
	movl	$93, %ebx
	movl	$93, %edi
	callq	_KPushCDep
	movl	$139, %r14d
	movl	$139, %edi
	movl	$93, %edx
	movl	$142, %ecx
	movl	%r15d, %esi
	callq	_KPhi2To1
	movl	$1, %edi
	callq	_KWork
	movl	$139, %edi
	movl	$139, %esi
	xorl	%edx, %edx
	callq	_KTimestamp1
	movl	$138, %r15d
	movl	$138, %edi
	movl	$91, %esi
	movl	$1, %edx
	movl	$93, %ecx
	movl	$1, %r8d
	callq	_KTimestamp2
	callq	_KPopCDep
	movl	$2, %esi
	movabsq	$-564299616005201610, %rdi # imm = 0xF82B347D311EE136
	callq	_KExitRegion
	movq	-72(%rbp), %r13         # 8-byte Reload
	incq	%r13
.LBB10_33:                              # %for.cond136
                                        #   Parent Loop BB10_31 Depth=1
                                        # =>  This Inner Loop Header: Depth=2
	#DEBUG_VALUE: susan_smoothing:bp <- [RBP+-112]
	#DEBUG_VALUE: susan_smoothing:total <- 0
	#DEBUG_VALUE: susan_smoothing:i <- 1
	#DEBUG_VALUE: susan_smoothing:y_size <- undef
	#DEBUG_VALUE: susan_smoothing:j <- 1
	leaq	-6(%r12,%r13), %r12
	movl	$92, %edi
	callq	_KPushCDep
	movl	$137, %edi
	movl	$92, %edx
	movl	%r14d, %esi
	movl	%ebx, %ecx
	callq	_KPhi2To1
	movl	$91, %edi
	movl	$92, %edx
	movl	%r15d, %esi
	movl	%ebx, %ecx
	callq	_KPhi2To1
	#DEBUG_VALUE: susan_smoothing:x_size <- [RBP+-64]
	movl	$48, %esi
	movl	$4, %edx
	leaq	-52(%rbp), %r15
.Ltmp411:
	#DEBUG_VALUE: susan_smoothing:x_size <- [R15+0]
	movq	%r15, %rdi
	callq	_KLoad0
	movl	$6, %edi
	callq	_KWork
	.loc	2 677 16 is_stmt 1      # susan.c:677:16
.Ltmp412:
	movslq	-52(%rbp), %r14
	.loc	2 677 18 is_stmt 0      # susan.c:677:18
	decq	%r14
	.loc	2 677 16                # susan.c:677:16
	leaq	-5(%r13), %rbx
	movl	$91, %edi
	movl	$91, %esi
	xorl	%edx, %edx
	callq	_KTimestamp1
	movl	$2, (%rsp)
	movl	$93, %edi
	movl	$92, %esi
	movl	$2, %edx
	movl	$91, %ecx
	movl	$1, %r8d
	movl	$48, %r9d
	callq	_KTimestamp3
	movl	$137, %edi
	movl	$93, %esi
	callq	_KPhiAddCond
	movl	$91, %edi
	movl	$93, %esi
	callq	_KPhiAddCond
	movl	$137, %edi
	movl	$137, %esi
	xorl	%edx, %edx
	callq	_KTimestamp1
	callq	_KPopCDep
.Ltmp413:
	.loc	2 677 7                 # susan.c:677:7
	cmpq	%r14, %rbx
	jge	.LBB10_38
.Ltmp414:
# BB#34:                                # %for.body140
                                        #   in Loop: Header=BB10_33 Depth=2
	#DEBUG_VALUE: susan_smoothing:bp <- [RBP+-112]
	#DEBUG_VALUE: susan_smoothing:total <- 0
	#DEBUG_VALUE: susan_smoothing:i <- 1
	#DEBUG_VALUE: susan_smoothing:x_size <- [R15+0]
	#DEBUG_VALUE: susan_smoothing:y_size <- undef
	#DEBUG_VALUE: susan_smoothing:j <- 1
	movq	%rbx, -240(%rbp)        # 8-byte Spill
	movq	%r12, -128(%rbp)        # 8-byte Spill
	movl	$2, %esi
	movabsq	$-564299616005201610, %rdi # imm = 0xF82B347D311EE136
	callq	_KEnterRegion
	movl	$93, %edi
	callq	_KPushCDep
	movl	$155, %edi
	callq	_KWork
	#DEBUG_VALUE: susan_smoothing:area <- 0
	#DEBUG_VALUE: susan_smoothing:in <- [RBP+-80]
	movl	$49, %esi
	movl	$8, %edx
	leaq	-48(%rbp), %rax
	movq	%rax, %rbx
.Ltmp415:
	#DEBUG_VALUE: susan_smoothing:in <- [RBX+0]
	movq	%rbx, %rdi
	callq	_KLoad0
	.loc	2 680 14 is_stmt 1      # susan.c:680:14
.Ltmp416:
	movq	-48(%rbp), %r14
	movl	$50, %esi
	movl	$4, %edx
	movq	%r15, %rdi
	callq	_KLoad0
	movq	%r15, %rdi
.Ltmp417:
	#DEBUG_VALUE: susan_smoothing:x_size <- [RDI+0]
	movl	-52(%rbp), %r15d
	movq	-248(%rbp), %rax        # 8-byte Reload
	imull	%eax, %r15d
	movl	$51, %esi
	movl	$4, %edx
.Ltmp418:
	#DEBUG_VALUE: susan_smoothing:x_size <- undef
	callq	_KLoad0
	movl	-52(%rbp), %eax
	.loc	2 681 18                # susan.c:681:18
	imull	-228(%rbp), %eax        # 4-byte Folded Reload
	movq	%r13, -72(%rbp)         # 8-byte Spill
	leal	-5(%r13,%rax), %eax
	movslq	%eax, %r12
	movl	$52, %esi
	movl	$8, %edx
	movq	%rbx, %rdi
.Ltmp419:
	#DEBUG_VALUE: susan_smoothing:in <- undef
	callq	_KLoad0
	movq	-48(%rbp), %rbx
	leaq	(%rbx,%r12), %rdi
	movl	$53, %esi
	movl	$54, %edx
	movl	$1, %ecx
	callq	_KLoad1
	.loc	2 682 14                # susan.c:682:14
	movzbl	(%rbx,%r12), %eax
	movq	%rax, -64(%rbp)         # 8-byte Spill
	movq	%rax, %r12
	movslq	%r15d, %r15
	addq	%r14, %r15
	leaq	-6(%r13,%r15), %rdi
	movl	$55, %esi
	movl	$1, %edx
	callq	_KLoad0
	.loc	2 684 33                # susan.c:684:33
	movzbl	-6(%r13,%r15), %eax
	movq	%rax, -168(%rbp)        # 8-byte Spill
	movq	%r12, %rbx
	movq	%r12, %r14
	subq	%rax, %rbx
	movq	-112(%rbp), %r12        # 8-byte Reload
.Ltmp420:
	#DEBUG_VALUE: susan_smoothing:bp <- R12
	leaq	(%r12,%rbx), %rdi
	movl	$56, %esi
	movl	$57, %edx
	movl	$1, %ecx
	callq	_KLoad1
	.loc	2 684 31 is_stmt 0      # susan.c:684:31
	movzbl	(%r12,%rbx), %eax
	movq	%rax, -136(%rbp)        # 8-byte Spill
	leaq	-5(%r13,%r15), %rdi
	movl	$58, %esi
	movl	$1, %edx
	callq	_KLoad0
	.loc	2 685 33 is_stmt 1      # susan.c:685:33
	movzbl	-5(%r13,%r15), %eax
	movq	%rax, -176(%rbp)        # 8-byte Spill
	movq	%r14, %rbx
	subq	%rax, %rbx
	leaq	(%r12,%rbx), %rdi
	movl	$59, %esi
	movl	$60, %edx
	movl	$1, %ecx
	callq	_KLoad1
	.loc	2 685 31 is_stmt 0      # susan.c:685:31
	movzbl	(%r12,%rbx), %eax
	movq	%rax, -144(%rbp)        # 8-byte Spill
	leaq	-4(%r13,%r15), %rdi
	movl	$61, %esi
	movl	$1, %edx
	callq	_KLoad0
	.loc	2 686 31 is_stmt 1      # susan.c:686:31
	movzbl	-4(%r13,%r15), %eax
	movq	%rax, -184(%rbp)        # 8-byte Spill
	movq	%r14, %rbx
	subq	%rax, %rbx
	leaq	(%r12,%rbx), %rdi
	movl	$62, %esi
	movl	$63, %edx
	movl	$1, %ecx
	callq	_KLoad1
	.loc	2 686 29 is_stmt 0      # susan.c:686:29
	movzbl	(%r12,%rbx), %eax
	movl	%eax, -96(%rbp)         # 4-byte Spill
	movl	$64, %esi
	movl	$4, %edx
	leaq	-52(%rbp), %rdi
	callq	_KLoad0
	.loc	2 687 15 is_stmt 1      # susan.c:687:15
	movl	-52(%rbp), %eax
	addl	$-2, %eax
	movslq	%eax, %rbx
	movq	%rbx, -80(%rbp)         # 8-byte Spill
	movq	%r13, %r14
	leaq	(%r14,%rbx), %rax
	movq	%rax, -152(%rbp)        # 8-byte Spill
	leaq	-4(%r15,%rax), %rdi
	movq	%rax, %r13
	movl	$65, %esi
	movl	$66, %edx
	movl	$1, %ecx
	callq	_KLoad1
	leaq	(%r15,%rbx), %rax
	.loc	2 688 33                # susan.c:688:33
	movq	%rax, -88(%rbp)         # 8-byte Spill
	movzbl	-4(%r14,%rax), %eax
	movq	%rax, -192(%rbp)        # 8-byte Spill
	movq	-64(%rbp), %r14         # 8-byte Reload
	movq	%r14, %rbx
	subq	%rax, %rbx
	leaq	(%r12,%rbx), %rdi
	movl	$67, %esi
	movl	$68, %edx
	movl	$1, %ecx
	callq	_KLoad1
	.loc	2 688 31 is_stmt 0      # susan.c:688:31
	movzbl	(%r12,%rbx), %eax
	movl	%eax, -100(%rbp)        # 4-byte Spill
	leaq	-3(%r15,%r13), %rdi
	movl	$69, %esi
	movl	$1, %edx
	callq	_KLoad0
	movq	-72(%rbp), %r13         # 8-byte Reload
	.loc	2 689 33 is_stmt 1      # susan.c:689:33
	movq	-88(%rbp), %rax         # 8-byte Reload
	movzbl	-3(%r13,%rax), %eax
	movq	%rax, -200(%rbp)        # 8-byte Spill
	movq	%r14, %rbx
	subq	%rax, %rbx
	leaq	(%r12,%rbx), %rdi
	movl	$70, %esi
	movl	$71, %edx
	movl	$1, %ecx
	callq	_KLoad1
	.loc	2 689 31 is_stmt 0      # susan.c:689:31
	movzbl	(%r12,%rbx), %eax
	movl	%eax, -120(%rbp)        # 4-byte Spill
	movq	-152(%rbp), %rax        # 8-byte Reload
	leaq	-2(%r15,%rax), %rdi
	movl	$72, %esi
	movl	$1, %edx
	callq	_KLoad0
	.loc	2 690 31 is_stmt 1      # susan.c:690:31
	movq	-88(%rbp), %rax         # 8-byte Reload
	movzbl	-2(%r13,%rax), %eax
	movq	%rax, -208(%rbp)        # 8-byte Spill
	subq	%rax, %r14
	leaq	(%r12,%r14), %rdi
	movl	$73, %esi
	movl	$74, %edx
	movl	$1, %ecx
	callq	_KLoad1
	.loc	2 690 29 is_stmt 0      # susan.c:690:29
	movzbl	(%r12,%r14), %eax
	movl	%eax, -88(%rbp)         # 4-byte Spill
	movl	$75, %esi
	movl	$4, %edx
	leaq	-52(%rbp), %rdi
	#DEBUG_VALUE: susan_smoothing:x_size <- undef
	callq	_KLoad0
	.loc	2 691 15 is_stmt 1      # susan.c:691:15
	movl	-52(%rbp), %eax
	addl	$-2, %eax
	movslq	%eax, %r14
	movq	%r13, %rbx
	leaq	(%rbx,%r14), %r13
	addq	-80(%rbp), %r13         # 8-byte Folded Reload
	leaq	(%r15,%r13), %rax
	movq	%rax, -152(%rbp)        # 8-byte Spill
	leaq	-2(%r15,%r13), %rdi
	movl	$76, %esi
	movl	$77, %edx
	movl	$1, %ecx
	callq	_KLoad1
	.loc	2 692 20                # susan.c:692:20
	addq	-80(%rbp), %r14         # 8-byte Folded Reload
	addq	%r15, %r14
	.loc	2 692 33 is_stmt 0      # susan.c:692:33
	movzbl	-2(%rbx,%r14), %eax
	movq	%rax, -216(%rbp)        # 8-byte Spill
	movq	-64(%rbp), %rbx         # 8-byte Reload
	subq	%rax, %rbx
	leaq	(%r12,%rbx), %rdi
	movl	$78, %esi
	movl	$79, %edx
	movl	$1, %ecx
	callq	_KLoad1
	.loc	2 692 31                # susan.c:692:31
	movzbl	(%r12,%rbx), %eax
	movl	%eax, -80(%rbp)         # 4-byte Spill
	leaq	-1(%r15,%r13), %rdi
	movl	$80, %esi
	movl	$1, %edx
	callq	_KLoad0
	movq	-72(%rbp), %r15         # 8-byte Reload
	.loc	2 693 33 is_stmt 1      # susan.c:693:33
	movzbl	-1(%r15,%r14), %eax
	movq	%rax, -224(%rbp)        # 8-byte Spill
	movq	-64(%rbp), %r13         # 8-byte Reload
	movq	%r13, %rbx
	subq	%rax, %rbx
	leaq	(%r12,%rbx), %rdi
	movl	$81, %esi
	movl	$82, %edx
	movl	$1, %ecx
	callq	_KLoad1
	.loc	2 693 31 is_stmt 0      # susan.c:693:31
	movzbl	(%r12,%rbx), %ebx
	movl	$83, %esi
	movl	$1, %edx
	movq	-152(%rbp), %rdi        # 8-byte Reload
	callq	_KLoad0
	movq	%r15, %rax
	movl	%ebx, %r15d
	.loc	2 694 31 is_stmt 1      # susan.c:694:31
	movzbl	(%rax,%r14), %ecx
	movq	%rcx, -152(%rbp)        # 8-byte Spill
	movq	%r13, %rbx
	subq	%rcx, %rbx
	leaq	(%r12,%rbx), %rdi
	movl	$84, %esi
	movl	$85, %edx
	movl	$1, %ecx
	callq	_KLoad1
	.loc	2 694 29 is_stmt 0      # susan.c:694:29
	movzbl	(%r12,%rbx), %r13d
.Ltmp421:
	#DEBUG_VALUE: susan_smoothing:bp <- [RBP+-112]
	movq	-144(%rbp), %rbx        # 8-byte Reload
	movq	-136(%rbp), %r12        # 8-byte Reload
	.loc	2 685 49 is_stmt 1      # susan.c:685:49
	leal	(%r12,%rbx), %r14d
	.loc	2 686 47                # susan.c:686:47
	addl	-96(%rbp), %r14d        # 4-byte Folded Reload
	.loc	2 688 49                # susan.c:688:49
	addl	-100(%rbp), %r14d       # 4-byte Folded Reload
	.loc	2 689 49                # susan.c:689:49
	addl	-120(%rbp), %r14d       # 4-byte Folded Reload
	.loc	2 690 47                # susan.c:690:47
	addl	-88(%rbp), %r14d        # 4-byte Folded Reload
	.loc	2 692 49                # susan.c:692:49
	addl	-80(%rbp), %r14d        # 4-byte Folded Reload
	.loc	2 693 49                # susan.c:693:49
	addl	%r15d, %r14d
	.loc	2 694 47                # susan.c:694:47
	addl	%r13d, %r14d
	movl	$3, 120(%rsp)
	movl	$84, 112(%rsp)
	movl	$7, 104(%rsp)
	movl	$70, 96(%rsp)
	movl	$8, 88(%rsp)
	movl	$67, 80(%rsp)
	movl	$9, 72(%rsp)
	movl	$62, 64(%rsp)
	movl	$10, 56(%rsp)
	movl	$59, 48(%rsp)
	movl	$11, 40(%rsp)
	movl	$56, 32(%rsp)
	movl	$11, 24(%rsp)
	movl	$93, 16(%rsp)
	movl	$6, 8(%rsp)
	movl	$73, (%rsp)
	movl	$142, %edi
	movl	$10, %esi
	movl	$78, %edx
	movl	$5, %ecx
	movl	$81, %r8d
	movl	$4, %r9d
	xorl	%eax, %eax
	callq	_KTimestamp
	callq	_KPopCDep
	movl	$142, %edi
	callq	_KPushCDep
	.loc	2 697 13                # susan.c:697:13
	addl	$-100, %r14d
	je	.LBB10_35
# BB#36:                                # %if.else245
                                        #   in Loop: Header=BB10_33 Depth=2
	#DEBUG_VALUE: susan_smoothing:bp <- [RBP+-112]
	#DEBUG_VALUE: susan_smoothing:total <- 0
	#DEBUG_VALUE: susan_smoothing:i <- 1
	#DEBUG_VALUE: susan_smoothing:y_size <- undef
	#DEBUG_VALUE: susan_smoothing:j <- 1
	#DEBUG_VALUE: susan_smoothing:area <- 0
	.loc	2 684 71                # susan.c:684:71
	movq	-168(%rbp), %rax        # 8-byte Reload
.Ltmp422:
	#DEBUG_VALUE: susan_smoothing:x_size <- [RBP+-64]
	#DEBUG_VALUE: susan_smoothing:in <- [RBP+-80]
	imull	%eax, %r12d
.Ltmp423:
	#DEBUG_VALUE: susan_smoothing:total <- R12D
	.loc	2 685 71                # susan.c:685:71
	movq	-176(%rbp), %rax        # 8-byte Reload
	imull	%eax, %ebx
	.loc	2 685 62 is_stmt 0      # susan.c:685:62
	addl	%r12d, %ebx
.Ltmp424:
	#DEBUG_VALUE: susan_smoothing:total <- EBX
	.loc	2 686 69 is_stmt 1      # susan.c:686:69
	movq	-184(%rbp), %rax        # 8-byte Reload
	movl	-96(%rbp), %ecx         # 4-byte Reload
	imull	%eax, %ecx
	.loc	2 686 60 is_stmt 0      # susan.c:686:60
	addl	%ebx, %ecx
.Ltmp425:
	#DEBUG_VALUE: susan_smoothing:total <- ECX
	.loc	2 688 71 is_stmt 1      # susan.c:688:71
	movq	-192(%rbp), %rax        # 8-byte Reload
	movl	-100(%rbp), %edx        # 4-byte Reload
	imull	%eax, %edx
	.loc	2 688 62 is_stmt 0      # susan.c:688:62
	addl	%ecx, %edx
.Ltmp426:
	#DEBUG_VALUE: susan_smoothing:total <- EDX
	.loc	2 689 71 is_stmt 1      # susan.c:689:71
	movq	-200(%rbp), %rax        # 8-byte Reload
	movl	-120(%rbp), %ecx        # 4-byte Reload
	imull	%eax, %ecx
	.loc	2 689 62 is_stmt 0      # susan.c:689:62
	addl	%edx, %ecx
.Ltmp427:
	#DEBUG_VALUE: susan_smoothing:total <- ECX
	.loc	2 690 69 is_stmt 1      # susan.c:690:69
	movq	-208(%rbp), %rax        # 8-byte Reload
	movl	-88(%rbp), %edx         # 4-byte Reload
	imull	%eax, %edx
	.loc	2 690 60 is_stmt 0      # susan.c:690:60
	addl	%ecx, %edx
.Ltmp428:
	#DEBUG_VALUE: susan_smoothing:total <- EDX
	.loc	2 692 71 is_stmt 1      # susan.c:692:71
	movq	-216(%rbp), %rax        # 8-byte Reload
	movl	-80(%rbp), %ecx         # 4-byte Reload
	imull	%eax, %ecx
	.loc	2 692 62 is_stmt 0      # susan.c:692:62
	addl	%edx, %ecx
.Ltmp429:
	#DEBUG_VALUE: susan_smoothing:total <- ECX
	.loc	2 693 71 is_stmt 1      # susan.c:693:71
	movq	-224(%rbp), %rax        # 8-byte Reload
	imull	%eax, %r15d
	.loc	2 693 62 is_stmt 0      # susan.c:693:62
	addl	%ecx, %r15d
.Ltmp430:
	#DEBUG_VALUE: susan_smoothing:total <- R15D
	.loc	2 694 69 is_stmt 1      # susan.c:694:69
	movq	-152(%rbp), %rax        # 8-byte Reload
	imull	%eax, %r13d
	.loc	2 694 60 is_stmt 0      # susan.c:694:60
	addl	%r15d, %r13d
.Ltmp431:
	#DEBUG_VALUE: susan_smoothing:total <- R13D
	movl	$14, %edi
	callq	_KWork
	.loc	2 700 19 is_stmt 1      # susan.c:700:19
.Ltmp432:
	movq	-64(%rbp), %rax         # 8-byte Reload
	imull	$-100, %eax, %eax
	addl	%r13d, %eax
	.loc	2 700 18 is_stmt 0      # susan.c:700:18
	cltd
	idivl	%r14d
	movl	%eax, %r14d
	movl	$16, 280(%rsp)
	movl	$84, 272(%rsp)
	movl	$14, 264(%rsp)
	movl	$83, 256(%rsp)
	movl	$17, 248(%rsp)
	movl	$72, 240(%rsp)
	movl	$20, 232(%rsp)
	movl	$70, 224(%rsp)
	movl	$18, 216(%rsp)
	movl	$69, 208(%rsp)
	movl	$21, 200(%rsp)
	movl	$67, 192(%rsp)
	movl	$19, 184(%rsp)
	movl	$65, 176(%rsp)
	movl	$22, 168(%rsp)
	movl	$62, 160(%rsp)
	movl	$20, 152(%rsp)
	movl	$61, 144(%rsp)
	movl	$23, 136(%rsp)
	movl	$59, 128(%rsp)
	movl	$21, 120(%rsp)
	movl	$58, 112(%rsp)
	movl	$24, 104(%rsp)
	movl	$56, 96(%rsp)
	movl	$22, 88(%rsp)
	movl	$55, 80(%rsp)
	movl	$13, 72(%rsp)
	movl	$53, 64(%rsp)
	movl	$24, 56(%rsp)
	movl	$93, 48(%rsp)
	movl	$19, 40(%rsp)
	movl	$73, 32(%rsp)
	movl	$17, 24(%rsp)
	movl	$81, 16(%rsp)
	movl	$15, 8(%rsp)
	movl	$80, (%rsp)
	movl	$94, %edi
	movl	$20, %esi
	movl	$76, %edx
	movl	$16, %ecx
	movl	$78, %r8d
	movl	$18, %r9d
	xorl	%eax, %eax
	callq	_KTimestamp
	movl	$94, %edi
	movl	$1, %edx
	movq	-128(%rbp), %rbx        # 8-byte Reload
	movq	%rbx, %rsi
	callq	_KStore
	.loc	2 700 11                # susan.c:700:11
	movb	%r14b, (%rbx)
	movl	$3, 136(%rsp)
	movl	$84, 128(%rsp)
	movl	$7, 120(%rsp)
	movl	$70, 112(%rsp)
	movl	$8, 104(%rsp)
	movl	$67, 96(%rsp)
	movl	$9, 88(%rsp)
	movl	$62, 80(%rsp)
	movl	$10, 72(%rsp)
	movl	$59, 64(%rsp)
	movl	$11, 56(%rsp)
	movl	$56, 48(%rsp)
	movl	$11, 40(%rsp)
	movl	$93, 32(%rsp)
	movl	$0, 24(%rsp)
	movl	$137, 16(%rsp)
	movl	$6, 8(%rsp)
	movl	$73, (%rsp)
	movl	$141, %r15d
	movl	$141, %edi
	jmp	.LBB10_37
.Ltmp433:
	.align	16, 0x90
.LBB10_35:                              # %if.then242
                                        #   in Loop: Header=BB10_33 Depth=2
	#DEBUG_VALUE: susan_smoothing:bp <- [RBP+-112]
	#DEBUG_VALUE: susan_smoothing:in <- undef
	#DEBUG_VALUE: susan_smoothing:total <- 0
	#DEBUG_VALUE: susan_smoothing:i <- 1
	#DEBUG_VALUE: susan_smoothing:x_size <- undef
	#DEBUG_VALUE: susan_smoothing:y_size <- undef
	#DEBUG_VALUE: susan_smoothing:j <- 1
	#DEBUG_VALUE: susan_smoothing:area <- 0
	movl	$86, %esi
	movl	$8, %edx
	leaq	-48(%rbp), %rdi
.Ltmp434:
	#DEBUG_VALUE: susan_smoothing:in <- [RBP+-80]
	callq	_KLoad0
	movl	$9, %edi
	callq	_KWork
	.loc	2 698 25 is_stmt 1      # susan.c:698:25
	movq	-48(%rbp), %rbx
	movl	$87, %esi
	movl	$4, %edx
	leaq	-52(%rbp), %rdi
.Ltmp435:
	#DEBUG_VALUE: susan_smoothing:x_size <- [RBP+-64]
	callq	_KLoad0
	.loc	2 698 32 is_stmt 0      # susan.c:698:32
	movl	-52(%rbp), %r14d
	xorl	%esi, %esi
	movabsq	$5650713404744792224, %rdi # imm = 0x4E6B5DE72159F8A0
	callq	_KPrepCall
	movl	$87, %edi
	movl	$87, %esi
	xorl	%edx, %edx
	callq	_KTimestamp1
	movl	$87, %edi
	callq	_KEnqArg
	movl	$3, 136(%rsp)
	movl	$84, 128(%rsp)
	movl	$7, 120(%rsp)
	movl	$70, 112(%rsp)
	movl	$8, 104(%rsp)
	movl	$67, 96(%rsp)
	movl	$9, 88(%rsp)
	movl	$62, 80(%rsp)
	movl	$10, 72(%rsp)
	movl	$59, 64(%rsp)
	movl	$11, 56(%rsp)
	movl	$56, 48(%rsp)
	movl	$11, 40(%rsp)
	movl	$93, 32(%rsp)
	movl	$0, 24(%rsp)
	movl	$91, 16(%rsp)
	movl	$6, 8(%rsp)
	movl	$73, (%rsp)
	movl	$90, %edi
	movl	$11, %esi
	movl	$78, %edx
	movl	$5, %ecx
	movl	$81, %r8d
	movl	$4, %r9d
	xorl	%eax, %eax
	callq	_KTimestamp
	movl	$90, %edi
	callq	_KEnqArg
	movl	$89, %edi
	callq	_KEnqArg
	movl	$88, %edi
	callq	_KLinkReturn
	.loc	2 698 18                # susan.c:698:18
	movq	%rbx, %rdi
	movl	-228(%rbp), %esi        # 4-byte Reload
	movq	-240(%rbp), %rdx        # 8-byte Reload
                                        # kill: EDX<def> EDX<kill> RDX<kill>
	movl	%r14d, %ecx
	callq	median
	movb	%al, %r14b
	movl	$88, %edi
	movl	$88, %esi
	xorl	%edx, %edx
	callq	_KTimestamp1
	movl	$88, %edi
	movl	$1, %edx
	movq	-128(%rbp), %rbx        # 8-byte Reload
	movq	%rbx, %rsi
	callq	_KStore
	.loc	2 698 11                # susan.c:698:11
	movb	%r14b, (%rbx)
	movl	$3, 136(%rsp)
	movl	$84, 128(%rsp)
	movl	$7, 120(%rsp)
	movl	$70, 112(%rsp)
	movl	$8, 104(%rsp)
	movl	$67, 96(%rsp)
	movl	$9, 88(%rsp)
	movl	$62, 80(%rsp)
	movl	$10, 72(%rsp)
	movl	$59, 64(%rsp)
	movl	$11, 56(%rsp)
	movl	$56, 48(%rsp)
	movl	$11, 40(%rsp)
	movl	$93, 32(%rsp)
	movl	$0, 24(%rsp)
	movl	$137, 16(%rsp)
	movl	$6, 8(%rsp)
	movl	$73, (%rsp)
	movl	$140, %r15d
	movl	$140, %edi
	jmp	.LBB10_37
.Ltmp436:
.LBB10_40:                              # %for.cond131.pre_exit.if.end258.loopexit1
	#DEBUG_VALUE: susan_smoothing:total <- 0
	#DEBUG_VALUE: susan_smoothing:i <- 1
	movl	$1, %esi
	movabsq	$4431436282168790827, %rdi # imm = 0x3D7F9FD1E372CF2B
	jmp	.LBB10_41
.LBB10_9:                               # %if.then33
	#DEBUG_VALUE: susan_smoothing:dt <- [RBP+-88]
	#DEBUG_VALUE: susan_smoothing:bp <- [RBP+-112]
.Ltmp437:
	#DEBUG_VALUE: susan_smoothing:out <- [RBP+-160]
	#DEBUG_VALUE: susan_smoothing:total <- 0
	#DEBUG_VALUE: susan_smoothing:i <- R13D
	#DEBUG_VALUE: susan_smoothing:n_max <- [RBP+-120]
	movabsq	$5742392520067669281, %r15 # imm = 0x4FB113928F7E5D21
	movl	$17, %edi
	callq	_KWork
	leaq	-52(%rbp), %rdi
.Ltmp438:
	#DEBUG_VALUE: susan_smoothing:x_size <- [RDI+0]
	movl	$13, %esi
	movl	$4, %edx
	callq	_KLoad0
	.loc	2 660 11 is_stmt 1      # susan.c:660:11
.Ltmp439:
	movslq	-52(%rbp), %rax
.Ltmp440:
	.loc	2 626 41                # susan.c:626:41
	movq	%rax, -152(%rbp)        # 8-byte Spill
	movl	-120(%rbp), %ebx        # 4-byte Reload
	imull	%ebx, %ebx
	movl	$14, %edi
.Ltmp441:
	movl	$1, %esi
	movl	$6, %edx
	movl	$12, %ecx
	movl	$5, %r8d
	callq	_KTimestamp2
	xorl	%eax, %eax
	movq	%rax, -72(%rbp)         # 8-byte Spill
	movabsq	$-4479082115933656585, %rdi # imm = 0xC1D71A8BF7F829F7
	xorl	%esi, %esi
	callq	_KPrepCall
	movl	$14, %edi
	callq	_KEnqArg
	.loc	2 626 31 is_stmt 0      # susan.c:626:31
	movl	%ebx, %edi
	callq	wccmalloc
	movq	%rax, -200(%rbp)        # 8-byte Spill
.Ltmp442:
	#DEBUG_VALUE: susan_smoothing:dp <- [RBP+-200]
	#DEBUG_VALUE: susan_smoothing:dp <- undef
	#DEBUG_VALUE: susan_smoothing:dpt <- [RBP+-200]
	#DEBUG_VALUE: susan_smoothing:dpt <- undef
	movss	-88(%rbp), %xmm0        # 4-byte Reload
.Ltmp443:
	#DEBUG_VALUE: susan_smoothing:dt <- XMM0
	.loc	2 628 16 is_stmt 1      # susan.c:628:16
	mulss	%xmm0, %xmm0
.Ltmp444:
	.loc	2 628 14 is_stmt 0      # susan.c:628:14
	xorps	.LCPI10_2(%rip), %xmm0
.Ltmp445:
	#DEBUG_VALUE: susan_smoothing:temp <- XMM0
	movss	%xmm0, -88(%rbp)        # 4-byte Spill
.Ltmp446:
	#DEBUG_VALUE: susan_smoothing:temp <- [RBP+-88]
	.loc	2 631 11 is_stmt 1      # susan.c:631:11
	movl	%r13d, %r14d
	negl	%r14d
.Ltmp447:
	#DEBUG_VALUE: susan_smoothing:j <- R14D
	#DEBUG_VALUE: susan_smoothing:y <- R14D
	#DEBUG_VALUE: susan_smoothing:x <- R14D
	#DEBUG_VALUE: susan_smoothing:i <- R14D
	movl	%r14d, -144(%rbp)       # 4-byte Spill
	movl	$22, %edi
	movl	$1, %esi
	movl	$8, %edx
	movl	$2, %ecx
	movl	$7, %r8d
	callq	_KTimestamp2
	movl	$100, %ebx
	movl	$100, %edi
	movl	$100, %esi
	xorl	%edx, %edx
	callq	_KTimestamp1
	movl	$97, %r12d
	movl	$97, %edi
	movl	$1, %esi
	movl	$2, %edx
	movl	$12, %ecx
	movl	$1, %r8d
	callq	_KTimestamp2
	callq	_KPopCDep
	movl	$1, %esi
	movq	%r15, %rdi
	callq	_KEnterRegion
	movabsq	$-283635305535167608, %r15 # imm = 0xFC1053313FD12388
	movq	-200(%rbp), %rax        # 8-byte Reload
.Ltmp448:
	#DEBUG_VALUE: susan_smoothing:j <- [RBP+-144]
	#DEBUG_VALUE: susan_smoothing:y <- [RBP+-144]
	#DEBUG_VALUE: susan_smoothing:x <- [RBP+-144]
	#DEBUG_VALUE: susan_smoothing:i <- [RBP+-144]
	movq	%rax, -64(%rbp)         # 8-byte Spill
.Ltmp449:
	#DEBUG_VALUE: susan_smoothing:dp <- [RBP+-200]
	#DEBUG_VALUE: susan_smoothing:dpt <- [RBP+-200]
	jmp	.LBB10_10
	.align	16, 0x90
.LBB10_14:                              # %for.cond44.pre_exit.for.inc57
                                        #   in Loop: Header=BB10_10 Depth=1
	#DEBUG_VALUE: susan_smoothing:bp <- [RBP+-112]
	#DEBUG_VALUE: susan_smoothing:out <- [RBP+-160]
	#DEBUG_VALUE: susan_smoothing:total <- 0
	#DEBUG_VALUE: susan_smoothing:i <- [RBP+-144]
	#DEBUG_VALUE: susan_smoothing:n_max <- [RBP+-120]
	#DEBUG_VALUE: susan_smoothing:dpt <- [RBP+-200]
	#DEBUG_VALUE: susan_smoothing:dp <- [RBP+-200]
	#DEBUG_VALUE: susan_smoothing:temp <- [RBP+-88]
	#DEBUG_VALUE: susan_smoothing:x <- [RBP+-144]
	#DEBUG_VALUE: susan_smoothing:y <- [RBP+-144]
	#DEBUG_VALUE: susan_smoothing:j <- [RBP+-144]
	movl	$1, %esi
	movabsq	$7023754674377589043, %rdi # imm = 0x617963A9B3C40133
	callq	_KExitRegion
	movl	$19, %eax
	movq	%rax, -72(%rbp)         # 8-byte Spill
	movl	$19, %edi
	callq	_KPushCDep
	movl	$1, %edi
	callq	_KWork
	movl	-100(%rbp), %r14d       # 4-byte Reload
	.loc	2 631 37 is_stmt 0      # susan.c:631:37
.Ltmp450:
	incl	%r14d
.Ltmp451:
	#DEBUG_VALUE: susan_smoothing:i <- R14D
	movl	$98, %r12d
	movl	$98, %edi
	movl	$17, %esi
	movl	$1, %edx
	movl	$19, %ecx
	movl	$1, %r8d
	callq	_KTimestamp2
	callq	_KPopCDep
	movl	$2, %esi
	movabsq	$8484195976633747768, %rdi # imm = 0x75BDEB4A200D8938
	callq	_KExitRegion
	movl	$101, %ebx
	movq	-96(%rbp), %r13         # 8-byte Reload
.Ltmp452:
.LBB10_10:                              # %for.cond
                                        # =>This Loop Header: Depth=1
                                        #     Child Loop BB10_12 Depth 2
	#DEBUG_VALUE: susan_smoothing:bp <- [RBP+-112]
	#DEBUG_VALUE: susan_smoothing:out <- [RBP+-160]
	#DEBUG_VALUE: susan_smoothing:total <- 0
	#DEBUG_VALUE: susan_smoothing:i <- [RBP+-144]
	#DEBUG_VALUE: susan_smoothing:n_max <- [RBP+-120]
	#DEBUG_VALUE: susan_smoothing:dpt <- [RBP+-200]
	#DEBUG_VALUE: susan_smoothing:dp <- [RBP+-200]
	#DEBUG_VALUE: susan_smoothing:temp <- [RBP+-88]
	#DEBUG_VALUE: susan_smoothing:x <- [RBP+-144]
	#DEBUG_VALUE: susan_smoothing:y <- [RBP+-144]
	#DEBUG_VALUE: susan_smoothing:j <- [RBP+-144]
	movl	$18, %edi
	callq	_KPushCDep
	movl	$99, %edi
	movl	$18, %edx
	movl	%ebx, %esi
	movq	-72(%rbp), %rbx         # 8-byte Reload
	movl	%ebx, %ecx
	callq	_KPhi2To1
	movl	$17, %edi
	movl	$18, %edx
	movl	%r12d, %esi
	movl	%ebx, %ecx
	callq	_KPhi2To1
	movl	$1, %edi
	callq	_KWork
	movl	$1, (%rsp)
	movl	$19, %edi
	movl	$12, %esi
	movl	$1, %edx
	movl	$18, %ecx
	movl	$1, %r8d
	movl	$17, %r9d
	callq	_KTimestamp3
	movl	$17, %edi
	movl	$17, %esi
	xorl	%edx, %edx
	callq	_KTimestamp1
	movl	$99, %edi
	movl	$99, %esi
	xorl	%edx, %edx
	callq	_KTimestamp1
	movl	$99, %edi
	movl	$19, %esi
	callq	_KPhiAddCond
	movl	$17, %edi
	movl	$19, %esi
	callq	_KPhiAddCond
	callq	_KPopCDep
	.loc	2 631 23                # susan.c:631:23
	cmpl	%r13d, %r14d
.Ltmp453:
	.loc	2 631 5                 # susan.c:631:5
	jg	.LBB10_15
# BB#11:                                # %for.body
                                        #   in Loop: Header=BB10_10 Depth=1
	#DEBUG_VALUE: susan_smoothing:bp <- [RBP+-112]
	#DEBUG_VALUE: susan_smoothing:out <- [RBP+-160]
	#DEBUG_VALUE: susan_smoothing:total <- 0
	#DEBUG_VALUE: susan_smoothing:i <- [RBP+-144]
	#DEBUG_VALUE: susan_smoothing:n_max <- [RBP+-120]
	#DEBUG_VALUE: susan_smoothing:dpt <- [RBP+-200]
	#DEBUG_VALUE: susan_smoothing:dp <- [RBP+-200]
	#DEBUG_VALUE: susan_smoothing:temp <- [RBP+-88]
	#DEBUG_VALUE: susan_smoothing:x <- [RBP+-144]
	#DEBUG_VALUE: susan_smoothing:y <- [RBP+-144]
	#DEBUG_VALUE: susan_smoothing:j <- [RBP+-144]
	movl	$2, %esi
	movabsq	$8484195976633747768, %rdi # imm = 0x75BDEB4A200D8938
	callq	_KEnterRegion
	movl	$19, %edi
	callq	_KPushCDep
	movl	$1, %edi
	callq	_KWork
	movl	$102, %ebx
	movl	$102, %edi
	movl	$12, %esi
	movl	$1, %edx
	movl	$19, %ecx
	movl	$1, %r8d
	callq	_KTimestamp2
	callq	_KPopCDep
	movl	$1, %esi
	movabsq	$7023754674377589043, %rdi # imm = 0x617963A9B3C40133
	callq	_KEnterRegion
	.loc	2 634 44 is_stmt 1      # susan.c:634:44
.Ltmp454:
	movl	%r14d, %eax
	movl	%r14d, -100(%rbp)       # 4-byte Spill
	imull	%eax, %eax
	movl	%eax, -80(%rbp)         # 4-byte Spill
	movl	$99, %r14d
	xorl	%r12d, %r12d
	movl	-144(%rbp), %r13d       # 4-byte Reload
	jmp	.LBB10_12
	.align	16, 0x90
.LBB10_13:                              # %for.body47
                                        #   in Loop: Header=BB10_12 Depth=2
	#DEBUG_VALUE: susan_smoothing:bp <- [RBP+-112]
	#DEBUG_VALUE: susan_smoothing:out <- [RBP+-160]
	#DEBUG_VALUE: susan_smoothing:total <- 0
	#DEBUG_VALUE: susan_smoothing:i <- [RBP+-144]
	#DEBUG_VALUE: susan_smoothing:n_max <- [RBP+-120]
	#DEBUG_VALUE: susan_smoothing:dpt <- [RBP+-200]
	#DEBUG_VALUE: susan_smoothing:dp <- [RBP+-200]
	#DEBUG_VALUE: susan_smoothing:temp <- [RBP+-88]
	#DEBUG_VALUE: susan_smoothing:x <- [RBP+-144]
	#DEBUG_VALUE: susan_smoothing:y <- [RBP+-144]
	#DEBUG_VALUE: susan_smoothing:j <- [RBP+-144]
	movl	$2, %esi
	movq	%r15, %rdi
	callq	_KEnterRegion
	movl	$20, %r12d
	movl	$20, %edi
	callq	_KPushCDep
	movl	$32, %edi
	callq	_KWork
	.loc	2 634 50 is_stmt 0      # susan.c:634:50
	movl	%r13d, %eax
	imull	%eax, %eax
	.loc	2 634 43                # susan.c:634:43
	addl	-80(%rbp), %eax         # 4-byte Folded Reload
	.loc	2 634 35                # susan.c:634:35
	cvtsi2ssl	%eax, %xmm0
	.loc	2 634 34                # susan.c:634:34
	divss	-88(%rbp), %xmm0        # 4-byte Folded Reload
	movss	%xmm0, -72(%rbp)        # 4-byte Spill
	xorl	%esi, %esi
	movabsq	$-1753604850774163345, %rdi # imm = 0xE7A9F1ADE134406F
	callq	_KPrepCall
	movl	$23, 16(%rsp)
	movl	$20, 8(%rsp)
	movl	$23, (%rsp)
	movl	$16, %edi
	movl	$22, %esi
	movl	$20, %edx
	movl	$17, %ecx
	movl	$23, %r8d
	movl	$21, %r9d
	callq	_KTimestamp4
	movl	$16, %edi
	callq	_KEnqArg
	movl	$15, %edi
	callq	_KLinkReturn
	.loc	2 634 28                # susan.c:634:28
	movss	-72(%rbp), %xmm0        # 4-byte Reload
	callq	expf
	cvtss2sd	%xmm0, %xmm0
	.loc	2 634 20                # susan.c:634:20
	mulsd	.LCPI10_3(%rip), %xmm0
	.loc	2 634 13                # susan.c:634:13
	cvttsd2si	%xmm0, %r14d
.Ltmp455:
	#DEBUG_VALUE: susan_smoothing:x <- R14D
	#DEBUG_VALUE: susan_smoothing:dpt <- [RBP+-64]
	movl	$23, %edi
	movl	$20, %esi
	movl	$5, %edx
	movl	$15, %ecx
	movl	$5, %r8d
	callq	_KTimestamp2
	movl	$23, %edi
	movl	$1, %edx
	movq	-64(%rbp), %rbx         # 8-byte Reload
.Ltmp456:
	#DEBUG_VALUE: susan_smoothing:dpt <- RBX
	movq	%rbx, %rsi
	callq	_KStore
	.loc	2 635 9 is_stmt 1       # susan.c:635:9
	movb	%r14b, (%rbx)
	.loc	2 635 10 is_stmt 0      # susan.c:635:10
	leaq	1(%rbx), %rbx
.Ltmp457:
	movq	%rbx, -64(%rbp)         # 8-byte Spill
.Ltmp458:
	.loc	2 633 39 is_stmt 1      # susan.c:633:39
	incl	%r13d
.Ltmp459:
	#DEBUG_VALUE: susan_smoothing:j <- R13D
	movl	$104, %r14d
.Ltmp460:
	movl	$104, %edi
	movl	$101, %esi
	xorl	%edx, %edx
	movl	$20, %ecx
	xorl	%r8d, %r8d
	callq	_KTimestamp2
	movl	$103, %ebx
	movl	$103, %edi
	movl	$21, %esi
	movl	$1, %edx
	movl	$20, %ecx
	movl	$1, %r8d
	callq	_KTimestamp2
	callq	_KPopCDep
	movl	$2, %esi
	movq	%r15, %rdi
	callq	_KExitRegion
.Ltmp461:
.LBB10_12:                              # %for.cond44
                                        #   Parent Loop BB10_10 Depth=1
                                        # =>  This Inner Loop Header: Depth=2
	#DEBUG_VALUE: susan_smoothing:bp <- [RBP+-112]
	#DEBUG_VALUE: susan_smoothing:out <- [RBP+-160]
	#DEBUG_VALUE: susan_smoothing:total <- 0
	#DEBUG_VALUE: susan_smoothing:i <- [RBP+-144]
	#DEBUG_VALUE: susan_smoothing:n_max <- [RBP+-120]
	#DEBUG_VALUE: susan_smoothing:dpt <- [RBP+-200]
	#DEBUG_VALUE: susan_smoothing:dp <- [RBP+-200]
	#DEBUG_VALUE: susan_smoothing:temp <- [RBP+-88]
	#DEBUG_VALUE: susan_smoothing:x <- [RBP+-144]
	#DEBUG_VALUE: susan_smoothing:y <- [RBP+-144]
	#DEBUG_VALUE: susan_smoothing:j <- [RBP+-144]
	movl	$19, %edi
	callq	_KPushCDep
	movl	$101, %edi
	movl	$19, %edx
	movl	%r14d, %esi
	movl	%r12d, %ecx
	callq	_KPhi2To1
	movl	$21, %edi
	movl	$19, %edx
	movl	%ebx, %esi
	movl	%r12d, %ecx
	callq	_KPhi2To1
	movl	$1, %edi
	callq	_KWork
	movl	$21, %edi
	movl	$21, %esi
	xorl	%edx, %edx
	callq	_KTimestamp1
	movl	$1, (%rsp)
	movl	$20, %edi
	movl	$12, %esi
	movl	$1, %edx
	movl	$19, %ecx
	movl	$1, %r8d
	movl	$21, %r9d
	callq	_KTimestamp3
	movl	$101, %edi
	movl	$20, %esi
	callq	_KPhiAddCond
	movl	$21, %edi
	movl	$20, %esi
	callq	_KPhiAddCond
	movl	$101, %edi
	movl	$101, %esi
	xorl	%edx, %edx
	callq	_KTimestamp1
	callq	_KPopCDep
	.loc	2 633 25 is_stmt 0      # susan.c:633:25
	movq	-96(%rbp), %rax         # 8-byte Reload
	cmpl	%eax, %r13d
	jle	.LBB10_13
	jmp	.LBB10_14
.Ltmp462:
.LBB10_15:                              # %for.cond.pre_exit.for.end59
	#DEBUG_VALUE: susan_smoothing:bp <- [RBP+-112]
	#DEBUG_VALUE: susan_smoothing:out <- [RBP+-160]
	#DEBUG_VALUE: susan_smoothing:total <- 0
	#DEBUG_VALUE: susan_smoothing:i <- [RBP+-144]
	#DEBUG_VALUE: susan_smoothing:n_max <- [RBP+-120]
	#DEBUG_VALUE: susan_smoothing:dpt <- [RBP+-200]
	#DEBUG_VALUE: susan_smoothing:dp <- [RBP+-200]
	#DEBUG_VALUE: susan_smoothing:x <- [RBP+-144]
	#DEBUG_VALUE: susan_smoothing:y <- [RBP+-144]
	#DEBUG_VALUE: susan_smoothing:j <- [RBP+-144]
	movabsq	$-5798603695125984165, %r15 # imm = 0xAF8738A95EBF8C5B
	movl	$1, %esi
	movabsq	$5742392520067669281, %rdi # imm = 0x4FB113928F7E5D21
	callq	_KExitRegion
	movl	$18, %edi
	callq	_KPushCDep
	movl	$1, %edi
	callq	_KWork
	.loc	2 660 11 is_stmt 1      # susan.c:660:11
.Ltmp463:
	movslq	-120(%rbp), %rax        # 4-byte Folded Reload
.Ltmp464:
	.loc	2 624 17                # susan.c:624:17
	subq	%rax, -152(%rbp)        # 8-byte Folded Spill
.Ltmp465:
	#DEBUG_VALUE: susan_smoothing:increment <- [RBP+-152]
	movslq	%r13d, %rax
	movq	%rax, -184(%rbp)        # 8-byte Spill
	movl	$1, (%rsp)
	movl	$12, %r12d
	movl	$120, %edi
	movl	$1, %esi
	movl	$5, %edx
	movl	$12, %ecx
	movl	$4, %r8d
	movl	$13, %r9d
	callq	_KTimestamp3
	xorl	%ebx, %ebx
	movl	$109, %edi
	movl	$1, %esi
	movl	$1, %edx
	movl	$12, %ecx
	xorl	%r8d, %r8d
	callq	_KTimestamp2
	callq	_KPopCDep
	movl	$1, %esi
	movq	%r15, %rdi
	callq	_KEnterRegion
	movl	$6, %r15d
	movl	%r13d, %r14d
	jmp	.LBB10_16
	.align	16, 0x90
.LBB10_29:                              # %for.cond65.pre_exit.for.inc127
                                        #   in Loop: Header=BB10_16 Depth=1
	#DEBUG_VALUE: susan_smoothing:bp <- [RBP+-112]
	#DEBUG_VALUE: susan_smoothing:total <- 0
	#DEBUG_VALUE: susan_smoothing:i <- [RBP+-144]
.Ltmp466:
	#DEBUG_VALUE: susan_smoothing:x_size <- [R15+0]
	#DEBUG_VALUE: susan_smoothing:x_size <- [RBP+-64]
	#DEBUG_VALUE: susan_smoothing:y_size <- undef
	#DEBUG_VALUE: susan_smoothing:dpt <- [RBP+-200]
	#DEBUG_VALUE: susan_smoothing:dp <- [RBP+-200]
	#DEBUG_VALUE: susan_smoothing:x <- [RBP+-144]
	#DEBUG_VALUE: susan_smoothing:y <- [RBP+-144]
	#DEBUG_VALUE: susan_smoothing:j <- [RBP+-144]
	#DEBUG_VALUE: susan_smoothing:increment <- [RBP+-152]
	movl	$1, %esi
	movabsq	$59435523480839419, %rdi # imm = 0xD3284B301D64FB
	callq	_KExitRegion
	movl	$43, %ebx
	movl	$43, %edi
	callq	_KPushCDep
	movl	$1, %edi
	callq	_KWork
	movl	-176(%rbp), %r14d       # 4-byte Reload
	.loc	2 642 41                # susan.c:642:41
.Ltmp467:
	incl	%r14d
.Ltmp468:
	#DEBUG_VALUE: susan_smoothing:i <- R14D
	movl	$105, %r12d
	movl	$105, %edi
	movl	$39, %esi
	movl	$1, %edx
	movl	$43, %ecx
	movl	$1, %r8d
	callq	_KTimestamp2
	callq	_KPopCDep
	movl	$2, %esi
	movabsq	$-6680966110772947221, %rdi # imm = 0xA34870B832F496EB
	callq	_KExitRegion
	movl	$107, %r15d
.Ltmp469:
.LBB10_16:                              # %for.cond60
                                        # =>This Loop Header: Depth=1
                                        #     Child Loop BB10_18 Depth 2
                                        #       Child Loop BB10_20 Depth 3
                                        #         Child Loop BB10_22 Depth 4
	#DEBUG_VALUE: susan_smoothing:bp <- [RBP+-112]
	#DEBUG_VALUE: susan_smoothing:total <- 0
	#DEBUG_VALUE: susan_smoothing:i <- [RBP+-144]
	#DEBUG_VALUE: susan_smoothing:dpt <- [RBP+-200]
	#DEBUG_VALUE: susan_smoothing:dp <- [RBP+-200]
	#DEBUG_VALUE: susan_smoothing:x <- [RBP+-144]
	#DEBUG_VALUE: susan_smoothing:y <- [RBP+-144]
	#DEBUG_VALUE: susan_smoothing:j <- [RBP+-144]
	#DEBUG_VALUE: susan_smoothing:increment <- [RBP+-152]
	movl	$18, %edi
	callq	_KPushCDep
	movl	$106, %edi
	movl	$18, %edx
	movl	%r15d, %esi
	movl	%ebx, %ecx
	callq	_KPhi2To1
	movl	$39, %edi
	movl	$18, %edx
	movl	%r12d, %esi
	movl	%ebx, %ecx
	callq	_KPhi2To1
	#DEBUG_VALUE: susan_smoothing:y_size <- undef
	movl	$24, %esi
	movl	$4, %edx
	leaq	-56(%rbp), %rdi
	callq	_KLoad0
	movl	$6, %edi
	callq	_KWork
	.loc	2 642 24 is_stmt 0      # susan.c:642:24
	movl	-56(%rbp), %ebx
	subl	%r13d, %ebx
	movl	$2, 16(%rsp)
	movl	$24, 8(%rsp)
	movl	$1, (%rsp)
	movl	$43, %edi
	movl	$12, %esi
	movl	$2, %edx
	movl	$18, %ecx
	movl	$2, %r8d
	movl	$39, %r9d
	callq	_KTimestamp4
	movl	$39, %edi
	movl	$39, %esi
	xorl	%edx, %edx
	callq	_KTimestamp1
	movl	$106, %edi
	movl	$106, %esi
	xorl	%edx, %edx
	callq	_KTimestamp1
	movl	$106, %edi
	movl	$43, %esi
	callq	_KPhiAddCond
	movl	$39, %edi
	movl	$43, %esi
	callq	_KPhiAddCond
	callq	_KPopCDep
.Ltmp470:
	.loc	2 642 5                 # susan.c:642:5
	cmpl	%ebx, %r14d
	jge	.LBB10_39
# BB#17:                                # %for.body64
                                        #   in Loop: Header=BB10_16 Depth=1
	#DEBUG_VALUE: susan_smoothing:bp <- [RBP+-112]
	#DEBUG_VALUE: susan_smoothing:total <- 0
	#DEBUG_VALUE: susan_smoothing:i <- [RBP+-144]
	#DEBUG_VALUE: susan_smoothing:y_size <- undef
	#DEBUG_VALUE: susan_smoothing:dpt <- [RBP+-200]
	#DEBUG_VALUE: susan_smoothing:dp <- [RBP+-200]
	#DEBUG_VALUE: susan_smoothing:x <- [RBP+-144]
	#DEBUG_VALUE: susan_smoothing:y <- [RBP+-144]
	#DEBUG_VALUE: susan_smoothing:j <- [RBP+-144]
	#DEBUG_VALUE: susan_smoothing:increment <- [RBP+-152]
	movl	$2, %esi
	movabsq	$-6680966110772947221, %rdi # imm = 0xA34870B832F496EB
	callq	_KEnterRegion
	movl	$43, %edi
	callq	_KPushCDep
	callq	_KPopCDep
	movl	$1, %esi
	movabsq	$59435523480839419, %rdi # imm = 0xD3284B301D64FB
	callq	_KEnterRegion
	.loc	2 648 21 is_stmt 1      # susan.c:648:21
.Ltmp471:
	movl	%r14d, %eax
	movl	%r14d, -176(%rbp)       # 4-byte Spill
	subl	%r13d, %eax
	movl	%eax, -192(%rbp)        # 4-byte Spill
	movl	$106, %r14d
	movl	$109, %r15d
	xorl	%ebx, %ebx
	movq	-184(%rbp), %r12        # 8-byte Reload
	jmp	.LBB10_18
	.align	16, 0x90
.LBB10_28:                              # %for.inc124
                                        #   in Loop: Header=BB10_18 Depth=2
	#DEBUG_VALUE: susan_smoothing:bp <- [RBP+-112]
.Ltmp472:
	#DEBUG_VALUE: susan_smoothing:in <- [RBP+-72]
	#DEBUG_VALUE: susan_smoothing:total <- 0
	#DEBUG_VALUE: susan_smoothing:i <- [RBP+-144]
	#DEBUG_VALUE: susan_smoothing:x_size <- [RBP+-64]
	#DEBUG_VALUE: susan_smoothing:y_size <- undef
	#DEBUG_VALUE: susan_smoothing:dpt <- [RBP+-200]
	#DEBUG_VALUE: susan_smoothing:dp <- [RBP+-200]
	#DEBUG_VALUE: susan_smoothing:x <- [RBP+-144]
	#DEBUG_VALUE: susan_smoothing:y <- [RBP+-144]
	#DEBUG_VALUE: susan_smoothing:j <- [RBP+-144]
	#DEBUG_VALUE: susan_smoothing:increment <- [RBP+-152]
	#DEBUG_VALUE: susan_smoothing:area <- 0
	.loc	2 664 12                # susan.c:664:12
	incq	%rbx
	movq	%rbx, -160(%rbp)        # 8-byte Spill
	movl	$44, %ebx
	movl	$44, %edi
	callq	_KPushCDep
	movl	$110, %r14d
	movl	$110, %edi
	movl	$44, %edx
	movl	$134, %ecx
	movl	%r15d, %esi
	callq	_KPhi2To1
	movl	$1, %edi
	callq	_KWork
.Ltmp473:
	.loc	2 644 7                 # susan.c:644:7
	incq	%r12
	movl	$110, %edi
	movl	$110, %esi
	xorl	%edx, %edx
	callq	_KTimestamp1
	movl	$108, %r15d
	movl	$108, %edi
	movl	$41, %esi
	movl	$1, %edx
	movl	$44, %ecx
	movl	$1, %r8d
	callq	_KTimestamp2
	callq	_KPopCDep
	movl	$2, %esi
	movabsq	$-7771137896160781348, %rdi # imm = 0x94275F41B6C29BDC
	callq	_KExitRegion
.LBB10_18:                              # %for.cond65
                                        #   Parent Loop BB10_16 Depth=1
                                        # =>  This Loop Header: Depth=2
                                        #       Child Loop BB10_20 Depth 3
                                        #         Child Loop BB10_22 Depth 4
	#DEBUG_VALUE: susan_smoothing:bp <- [RBP+-112]
	#DEBUG_VALUE: susan_smoothing:total <- 0
	#DEBUG_VALUE: susan_smoothing:i <- [RBP+-144]
	#DEBUG_VALUE: susan_smoothing:y_size <- undef
	#DEBUG_VALUE: susan_smoothing:dpt <- [RBP+-200]
	#DEBUG_VALUE: susan_smoothing:dp <- [RBP+-200]
	#DEBUG_VALUE: susan_smoothing:x <- [RBP+-144]
	#DEBUG_VALUE: susan_smoothing:y <- [RBP+-144]
	#DEBUG_VALUE: susan_smoothing:j <- [RBP+-144]
	#DEBUG_VALUE: susan_smoothing:increment <- [RBP+-152]
	movl	$43, %edi
	callq	_KPushCDep
	movl	$107, %edi
	movl	$43, %edx
	movl	%r14d, %esi
	movl	%ebx, %ecx
	callq	_KPhi2To1
	movl	$41, %edi
	movl	$43, %edx
	movl	%r15d, %esi
	movl	%ebx, %ecx
	callq	_KPhi2To1
	#DEBUG_VALUE: susan_smoothing:x_size <- [RBP+-64]
	movl	$25, %esi
	movl	$4, %edx
	leaq	-52(%rbp), %r15
.Ltmp474:
	#DEBUG_VALUE: susan_smoothing:x_size <- [R15+0]
	movq	%r15, %rdi
	callq	_KLoad0
	movl	$6, %edi
	callq	_KWork
	.loc	2 644 24 is_stmt 0      # susan.c:644:24
	movslq	-52(%rbp), %rbx
	movq	-184(%rbp), %r14        # 8-byte Reload
	.loc	2 644 26                # susan.c:644:26
	subq	%r14, %rbx
	movl	$2, 16(%rsp)
	movl	$25, 8(%rsp)
	movl	$1, (%rsp)
	movl	$44, %edi
	movl	$12, %esi
	movl	$2, %edx
	movl	$43, %ecx
	movl	$2, %r8d
	movl	$41, %r9d
	callq	_KTimestamp4
	movl	$41, %edi
	movl	$41, %esi
	xorl	%edx, %edx
	callq	_KTimestamp1
	movl	$107, %edi
	movl	$44, %esi
	callq	_KPhiAddCond
	movl	$41, %edi
	movl	$44, %esi
	callq	_KPhiAddCond
	movl	$107, %edi
	movl	$107, %esi
	xorl	%edx, %edx
	callq	_KTimestamp1
	callq	_KPopCDep
.Ltmp475:
	.loc	2 644 7                 # susan.c:644:7
	cmpq	%rbx, %r12
	jge	.LBB10_29
.Ltmp476:
# BB#19:                                # %for.body69
                                        #   in Loop: Header=BB10_18 Depth=2
	#DEBUG_VALUE: susan_smoothing:bp <- [RBP+-112]
	#DEBUG_VALUE: susan_smoothing:total <- 0
	#DEBUG_VALUE: susan_smoothing:i <- [RBP+-144]
	#DEBUG_VALUE: susan_smoothing:x_size <- [R15+0]
	#DEBUG_VALUE: susan_smoothing:y_size <- undef
	#DEBUG_VALUE: susan_smoothing:dpt <- [RBP+-200]
	#DEBUG_VALUE: susan_smoothing:dp <- [RBP+-200]
	#DEBUG_VALUE: susan_smoothing:x <- [RBP+-144]
	#DEBUG_VALUE: susan_smoothing:y <- [RBP+-144]
	#DEBUG_VALUE: susan_smoothing:j <- [RBP+-144]
	#DEBUG_VALUE: susan_smoothing:increment <- [RBP+-152]
	movl	$2, %esi
	movabsq	$-7771137896160781348, %rdi # imm = 0x94275F41B6C29BDC
	movq	%r12, %r13
	movq	%r13, -168(%rbp)        # 8-byte Spill
	callq	_KEnterRegion
	movl	$44, %edi
	callq	_KPushCDep
	movl	$28, %edi
	callq	_KWork
	#DEBUG_VALUE: susan_smoothing:area <- 0
	#DEBUG_VALUE: susan_smoothing:in <- [RBP+-72]
	movl	$26, %esi
	movl	$8, %edx
	leaq	-48(%rbp), %rbx
.Ltmp477:
	#DEBUG_VALUE: susan_smoothing:in <- [RBX+0]
	movq	%rbx, %rdi
	callq	_KLoad0
	.loc	2 648 14 is_stmt 1      # susan.c:648:14
.Ltmp478:
	movq	-48(%rbp), %r12
	movl	$27, %esi
	movl	$4, %edx
	movq	%r15, %rdi
	callq	_KLoad0
	movslq	-52(%rbp), %rax
	movslq	-192(%rbp), %rcx        # 4-byte Folded Reload
	.loc	2 648 20 is_stmt 0      # susan.c:648:20
	imulq	%rax, %rcx
	.loc	2 648 14                # susan.c:648:14
	movq	%r13, %rax
	subq	%r14, %rax
	addq	%rcx, %rax
	addq	%r12, %rax
.Ltmp479:
	#DEBUG_VALUE: susan_smoothing:ip <- RAX
	movq	%rax, -64(%rbp)         # 8-byte Spill
.Ltmp480:
	#DEBUG_VALUE: susan_smoothing:ip <- [RBP+-64]
	movl	$28, %esi
	movl	$4, %edx
	movq	%r15, %rdi
.Ltmp481:
	#DEBUG_VALUE: susan_smoothing:x_size <- [RBP+-64]
	callq	_KLoad0
	movl	-52(%rbp), %eax
	.loc	2 649 21 is_stmt 1      # susan.c:649:21
	imull	-176(%rbp), %eax        # 4-byte Folded Reload
	addl	%r13d, %eax
	.loc	2 649 18 is_stmt 0      # susan.c:649:18
	movslq	%eax, %r14
	movl	$29, %esi
	movl	$8, %edx
	movq	%rbx, %rdi
.Ltmp482:
	#DEBUG_VALUE: susan_smoothing:in <- [RBP+-72]
	callq	_KLoad0
	movq	-48(%rbp), %rbx
	leaq	(%rbx,%r14), %rdi
	movl	$30, %esi
	movl	$31, %edx
	movl	$1, %ecx
	callq	_KLoad1
	.loc	2 650 14 is_stmt 1      # susan.c:650:14
	movzbl	(%rbx,%r14), %eax
	movq	%rax, -120(%rbp)        # 8-byte Spill
	movl	$2, 48(%rsp)
	movl	$27, 40(%rsp)
	movl	$0, 32(%rsp)
	movl	$26, 24(%rsp)
	movl	$3, 16(%rsp)
	movl	$44, 8(%rsp)
	movl	$0, (%rsp)
	movl	$117, -72(%rbp)         # 4-byte Folded Spill
	movl	$117, %edi
	movl	$12, %esi
	movl	$3, %edx
	movl	$39, %ecx
	movl	$3, %r8d
	movl	$41, %r9d
	callq	_KTimestamp6
	movl	$114, -80(%rbp)         # 4-byte Folded Spill
	movl	$114, %edi
	movl	$12, %esi
	movl	$1, %edx
	movl	$44, %ecx
	movl	$1, %r8d
	callq	_KTimestamp2
	callq	_KPopCDep
	movl	$1, %esi
	movabsq	$7279609226088015983, %rdi # imm = 0x65065E05A8A1E86F
	callq	_KEnterRegion
	movl	$100, %r13d
	xorl	%ebx, %ebx
	xorl	%r12d, %r12d
	movl	$0, -100(%rbp)          # 4-byte Folded Spill
	movl	-144(%rbp), %r14d       # 4-byte Reload
	movq	-200(%rbp), %rax        # 8-byte Reload
	movq	%rax, -88(%rbp)         # 8-byte Spill
	xorl	%r15d, %r15d
	movl	$0, -128(%rbp)          # 4-byte Folded Spill
	jmp	.LBB10_20
	.align	16, 0x90
.LBB10_24:                              # %for.cond87.pre_exit.for.end105
                                        #   in Loop: Header=BB10_20 Depth=3
	#DEBUG_VALUE: susan_smoothing:bp <- [RBP+-112]
	#DEBUG_VALUE: susan_smoothing:in <- [RBP+-72]
	#DEBUG_VALUE: susan_smoothing:total <- 0
	#DEBUG_VALUE: susan_smoothing:i <- [RBP+-144]
	#DEBUG_VALUE: susan_smoothing:x_size <- [RBP+-64]
	#DEBUG_VALUE: susan_smoothing:y_size <- undef
	#DEBUG_VALUE: susan_smoothing:dpt <- [RBP+-200]
	#DEBUG_VALUE: susan_smoothing:dp <- [RBP+-200]
	#DEBUG_VALUE: susan_smoothing:x <- [RBP+-144]
	#DEBUG_VALUE: susan_smoothing:y <- [RBP+-144]
	#DEBUG_VALUE: susan_smoothing:j <- [RBP+-144]
	#DEBUG_VALUE: susan_smoothing:increment <- [RBP+-152]
	#DEBUG_VALUE: susan_smoothing:area <- 0
	movl	$1, %esi
	movabsq	$-7124757590071050771, %rdi # imm = 0x9D1FC6B86D0BFDED
	callq	_KExitRegion
	movl	$112, %ebx
	movl	$112, %edi
	callq	_KPushCDep
	movl	$1, %edi
	callq	_KWork
	.loc	2 660 11                # susan.c:660:11
.Ltmp483:
	movq	-64(%rbp), %rax         # 8-byte Reload
	addq	-152(%rbp), %rax        # 8-byte Folded Reload
	#DEBUG_VALUE: susan_smoothing:ip <- [RBP+-64]
.Ltmp484:
	.loc	2 652 41                # susan.c:652:41
	movq	%rax, -64(%rbp)         # 8-byte Spill
	movl	-136(%rbp), %r14d       # 4-byte Reload
	incl	%r14d
.Ltmp485:
	#DEBUG_VALUE: susan_smoothing:y <- R14D
	movl	$0, (%rsp)
	movl	$118, -72(%rbp)         # 4-byte Folded Spill
	movl	$118, %edi
	movl	$120, %esi
	xorl	%edx, %edx
	movl	$112, %ecx
	xorl	%r8d, %r8d
	movl	$119, %r9d
	callq	_KTimestamp3
	movl	$115, -80(%rbp)         # 4-byte Folded Spill
	movl	$115, %edi
	movl	$113, %esi
	movl	$1, %edx
	movl	$112, %ecx
	movl	$1, %r8d
	callq	_KTimestamp2
	callq	_KPopCDep
	movl	$2, %esi
	movabsq	$3079480225462572598, %rdi # imm = 0x2ABC82F303895636
	callq	_KExitRegion
	movl	$123, %r15d
	movl	$122, %r13d
	movl	$111, %r12d
.Ltmp486:
.LBB10_20:                              # %for.cond82
                                        #   Parent Loop BB10_16 Depth=1
                                        #     Parent Loop BB10_18 Depth=2
                                        # =>    This Loop Header: Depth=3
                                        #         Child Loop BB10_22 Depth 4
	#DEBUG_VALUE: susan_smoothing:bp <- [RBP+-112]
	#DEBUG_VALUE: susan_smoothing:in <- [RBP+-72]
	#DEBUG_VALUE: susan_smoothing:total <- 0
	#DEBUG_VALUE: susan_smoothing:i <- [RBP+-144]
	#DEBUG_VALUE: susan_smoothing:x_size <- [RBP+-64]
	#DEBUG_VALUE: susan_smoothing:y_size <- undef
	#DEBUG_VALUE: susan_smoothing:dpt <- [RBP+-200]
	#DEBUG_VALUE: susan_smoothing:dp <- [RBP+-200]
	#DEBUG_VALUE: susan_smoothing:x <- [RBP+-144]
	#DEBUG_VALUE: susan_smoothing:y <- [RBP+-144]
	#DEBUG_VALUE: susan_smoothing:j <- [RBP+-144]
	#DEBUG_VALUE: susan_smoothing:increment <- [RBP+-152]
	#DEBUG_VALUE: susan_smoothing:area <- 0
	movl	$44, %edi
	callq	_KPushCDep
	movl	$46, %edi
	movl	$44, %edx
	movl	%r15d, %esi
	movl	%ebx, %ecx
	callq	_KPhi2To1
	movl	$121, %edi
	movl	$44, %edx
	movl	%r13d, %esi
	movl	%ebx, %ecx
	callq	_KPhi2To1
	movl	$116, %edi
	movl	$44, %edx
	movl	-72(%rbp), %esi         # 4-byte Reload
	movl	%ebx, %ecx
	callq	_KPhi2To1
	movl	$113, %edi
	movl	$44, %edx
	movl	-80(%rbp), %esi         # 4-byte Reload
	movl	%ebx, %ecx
	callq	_KPhi2To1
	movl	$42, %edi
	movl	$44, %edx
	movl	%r12d, %esi
	movl	%ebx, %ecx
	callq	_KPhi2To1
	movl	$1, %edi
	callq	_KWork
	movl	$46, %edi
	movl	$46, %esi
	xorl	%edx, %edx
	callq	_KTimestamp1
	movl	$42, %edi
	movl	$42, %esi
	xorl	%edx, %edx
	callq	_KTimestamp1
	movl	$121, %edi
	movl	$121, %esi
	xorl	%edx, %edx
	callq	_KTimestamp1
	movl	$116, %edi
	movl	$116, %esi
	xorl	%edx, %edx
	callq	_KTimestamp1
	movl	$1, (%rsp)
	movl	$112, %edi
	movl	$12, %esi
	movl	$1, %edx
	movl	$44, %ecx
	movl	$1, %r8d
	movl	$113, %r9d
	callq	_KTimestamp3
	movl	$46, %edi
	movl	$112, %esi
	callq	_KPhiAddCond
	movl	$121, %edi
	movl	$112, %esi
	callq	_KPhiAddCond
	movl	$116, %edi
	movl	$112, %esi
	callq	_KPhiAddCond
	movl	$113, %edi
	movl	$112, %esi
	callq	_KPhiAddCond
	movl	$113, %edi
	movl	$113, %esi
	xorl	%edx, %edx
	callq	_KTimestamp1
	movl	$42, %edi
	movl	$112, %esi
	callq	_KPhiAddCond
	callq	_KPopCDep
	movq	-96(%rbp), %r13         # 8-byte Reload
	.loc	2 652 27 is_stmt 0      # susan.c:652:27
	cmpl	%r13d, %r14d
.Ltmp487:
	.loc	2 652 9                 # susan.c:652:9
	jg	.LBB10_25
# BB#21:                                # %for.body85
                                        #   in Loop: Header=BB10_20 Depth=3
	#DEBUG_VALUE: susan_smoothing:bp <- [RBP+-112]
	#DEBUG_VALUE: susan_smoothing:in <- [RBP+-72]
	#DEBUG_VALUE: susan_smoothing:total <- 0
	#DEBUG_VALUE: susan_smoothing:i <- [RBP+-144]
	#DEBUG_VALUE: susan_smoothing:x_size <- [RBP+-64]
	#DEBUG_VALUE: susan_smoothing:y_size <- undef
	#DEBUG_VALUE: susan_smoothing:dpt <- [RBP+-200]
	#DEBUG_VALUE: susan_smoothing:dp <- [RBP+-200]
	#DEBUG_VALUE: susan_smoothing:x <- [RBP+-144]
	#DEBUG_VALUE: susan_smoothing:y <- [RBP+-144]
	#DEBUG_VALUE: susan_smoothing:j <- [RBP+-144]
	#DEBUG_VALUE: susan_smoothing:increment <- [RBP+-152]
	#DEBUG_VALUE: susan_smoothing:area <- 0
	movl	%r14d, -136(%rbp)       # 4-byte Spill
	movl	$2, %esi
	movabsq	$3079480225462572598, %rdi # imm = 0x2ABC82F303895636
	callq	_KEnterRegion
	movl	$112, %edi
	callq	_KPushCDep
	movl	$1, %edi
	callq	_KWork
	movl	$127, -80(%rbp)         # 4-byte Folded Spill
	movl	$127, %edi
	movl	$12, %esi
	movl	$1, %edx
	movl	$112, %ecx
	movl	$1, %r8d
	callq	_KTimestamp2
	callq	_KPopCDep
	movl	$1, %esi
	movabsq	$-7124757590071050771, %rdi # imm = 0x9D1FC6B86D0BFDED
	callq	_KEnterRegion
	movl	$46, %ebx
	movl	$121, %r13d
	movl	$116, %r12d
	movl	$42, %r15d
	xorl	%r14d, %r14d
	movl	-144(%rbp), %eax        # 4-byte Reload
	movl	%eax, -72(%rbp)         # 4-byte Spill
	jmp	.LBB10_22
	.align	16, 0x90
.LBB10_23:                              # %for.body90
                                        #   in Loop: Header=BB10_22 Depth=4
	#DEBUG_VALUE: susan_smoothing:bp <- [RBP+-112]
	#DEBUG_VALUE: susan_smoothing:in <- [RBP+-72]
	#DEBUG_VALUE: susan_smoothing:total <- 0
	#DEBUG_VALUE: susan_smoothing:i <- [RBP+-144]
	#DEBUG_VALUE: susan_smoothing:x_size <- [RBP+-64]
	#DEBUG_VALUE: susan_smoothing:y_size <- undef
	#DEBUG_VALUE: susan_smoothing:dpt <- [RBP+-200]
	#DEBUG_VALUE: susan_smoothing:dp <- [RBP+-200]
	#DEBUG_VALUE: susan_smoothing:x <- [RBP+-144]
	#DEBUG_VALUE: susan_smoothing:y <- [RBP+-144]
	#DEBUG_VALUE: susan_smoothing:j <- [RBP+-144]
	#DEBUG_VALUE: susan_smoothing:increment <- [RBP+-152]
	#DEBUG_VALUE: susan_smoothing:area <- 0
	movl	$2, %esi
	movabsq	$-8572017095767004266, %rax # imm = 0x890A13DE2E3B6B96
	movq	%rax, %rdi
	callq	_KEnterRegion
	movl	$125, %r14d
	movl	$125, %edi
	callq	_KPushCDep
	movl	$20, %edi
	callq	_KWork
	#DEBUG_VALUE: susan_smoothing:ip <- [RBP+-64]
	movl	$32, %esi
	movl	$1, %edx
	movq	-64(%rbp), %rbx         # 8-byte Reload
.Ltmp488:
	#DEBUG_VALUE: susan_smoothing:ip <- RBX
	movq	%rbx, %rdi
	callq	_KLoad0
	.loc	2 656 30 is_stmt 1      # susan.c:656:30
.Ltmp489:
	movzbl	(%rbx), %r12d
	.loc	2 655 27                # susan.c:655:27
	leaq	1(%rbx), %rbx
.Ltmp490:
	#DEBUG_VALUE: susan_smoothing:brightness <- R12D
	#DEBUG_VALUE: susan_smoothing:dpt <- [RBP+-88]
	movq	%rbx, -64(%rbp)         # 8-byte Spill
	movl	$33, %esi
	movl	$1, %edx
	movq	-88(%rbp), %rbx         # 8-byte Reload
.Ltmp491:
	#DEBUG_VALUE: susan_smoothing:dpt <- RBX
	movq	%rbx, %rdi
	callq	_KLoad0
	.loc	2 656 19                # susan.c:656:19
	movzbl	(%rbx), %r15d
	.loc	2 656 20 is_stmt 0      # susan.c:656:20
	leaq	1(%rbx), %rbx
.Ltmp492:
	movq	%rbx, -88(%rbp)         # 8-byte Spill
	.loc	2 656 30                # susan.c:656:30
	movq	-120(%rbp), %rbx        # 8-byte Reload
	subq	%r12, %rbx
	movq	-112(%rbp), %r13        # 8-byte Reload
.Ltmp493:
	#DEBUG_VALUE: susan_smoothing:bp <- R13
	leaq	(%r13,%rbx), %rdi
	movl	$34, %esi
	movl	$35, %edx
	movl	$1, %ecx
	callq	_KLoad1
	.loc	2 656 28                # susan.c:656:28
	movzbl	(%r13,%rbx), %eax
.Ltmp494:
	#DEBUG_VALUE: susan_smoothing:bp <- [RBP+-112]
	.loc	2 656 19                # susan.c:656:19
	imull	%r15d, %eax
.Ltmp495:
	#DEBUG_VALUE: susan_smoothing:tmp <- [RBP+-128]
	.loc	2 657 13 is_stmt 1      # susan.c:657:13
	addl	%eax, -100(%rbp)        # 4-byte Folded Spill
.Ltmp496:
	#DEBUG_VALUE: susan_smoothing:area <- [RBP+-100]
	.loc	2 658 22                # susan.c:658:22
	imull	%r12d, %eax
	.loc	2 658 13 is_stmt 0      # susan.c:658:13
	addl	%eax, -128(%rbp)        # 4-byte Folded Spill
.Ltmp497:
	#DEBUG_VALUE: susan_smoothing:total <- [RBP+-128]
	.loc	2 654 43 is_stmt 1      # susan.c:654:43
	incl	-72(%rbp)               # 4-byte Folded Spill
.Ltmp498:
	#DEBUG_VALUE: susan_smoothing:x <- [RBP+-72]
	movl	$5, 32(%rsp)
	movl	$34, 24(%rsp)
	movl	$5, 16(%rsp)
	movl	$33, 8(%rsp)
	movl	$3, (%rsp)
	movl	$131, %ebx
	movl	$131, %edi
	movl	$123, %esi
	movl	$1, %edx
	movl	$125, %ecx
	movl	$5, %r8d
	movl	$32, %r9d
	callq	_KTimestamp5
	movl	$130, %r13d
	movl	$130, %edi
	movl	$122, %esi
	xorl	%edx, %edx
	movl	$125, %ecx
	xorl	%r8d, %r8d
	callq	_KTimestamp2
	movl	$129, %r12d
.Ltmp499:
	movl	$129, %edi
	movl	$119, %esi
	xorl	%edx, %edx
	movl	$125, %ecx
	xorl	%r8d, %r8d
	callq	_KTimestamp2
	movl	$128, -80(%rbp)         # 4-byte Folded Spill
	movl	$128, %edi
	movl	$126, %esi
	movl	$1, %edx
	movl	$125, %ecx
	movl	$1, %r8d
	callq	_KTimestamp2
	movl	$3, 16(%rsp)
	movl	$34, 8(%rsp)
	movl	$3, (%rsp)
	movl	$124, %r15d
	movl	$124, %edi
	movl	$111, %esi
	movl	$1, %edx
	movl	$125, %ecx
	movl	$3, %r8d
	movl	$33, %r9d
	callq	_KTimestamp4
	callq	_KPopCDep
	movl	$2, %esi
	movabsq	$-8572017095767004266, %rdi # imm = 0x890A13DE2E3B6B96
	callq	_KExitRegion
.LBB10_22:                              # %for.cond87
                                        #   Parent Loop BB10_16 Depth=1
                                        #     Parent Loop BB10_18 Depth=2
                                        #       Parent Loop BB10_20 Depth=3
                                        # =>      This Inner Loop Header: Depth=4
	#DEBUG_VALUE: susan_smoothing:bp <- [RBP+-112]
	#DEBUG_VALUE: susan_smoothing:in <- [RBP+-72]
.Ltmp500:
	#DEBUG_VALUE: susan_smoothing:total <- 0
	#DEBUG_VALUE: susan_smoothing:i <- [RBP+-144]
	#DEBUG_VALUE: susan_smoothing:x_size <- [RBP+-64]
	#DEBUG_VALUE: susan_smoothing:y_size <- undef
	#DEBUG_VALUE: susan_smoothing:dpt <- [RBP+-200]
	#DEBUG_VALUE: susan_smoothing:dp <- [RBP+-200]
	#DEBUG_VALUE: susan_smoothing:x <- [RBP+-144]
	#DEBUG_VALUE: susan_smoothing:y <- [RBP+-144]
	#DEBUG_VALUE: susan_smoothing:j <- [RBP+-144]
	#DEBUG_VALUE: susan_smoothing:increment <- [RBP+-152]
	#DEBUG_VALUE: susan_smoothing:area <- 0
	movl	$112, %edi
	callq	_KPushCDep
	movl	$123, %edi
	movl	$112, %edx
	movl	%ebx, %esi
	movl	%r14d, %ecx
	callq	_KPhi2To1
	movl	$122, %edi
	movl	$112, %edx
	movl	%r13d, %esi
	movl	%r14d, %ecx
	callq	_KPhi2To1
	movl	$119, %edi
	movl	$112, %edx
	movl	%r12d, %esi
	movl	%r14d, %ecx
	callq	_KPhi2To1
	movl	$126, %edi
	movl	$112, %edx
	movl	-80(%rbp), %esi         # 4-byte Reload
	movl	%r14d, %ecx
	callq	_KPhi2To1
	movl	$111, %edi
	movl	$112, %edx
	movl	%r15d, %esi
	movl	%r14d, %ecx
	callq	_KPhi2To1
	movl	$1, %edi
	callq	_KWork
	movl	$1, (%rsp)
	movl	$125, %edi
	movl	$12, %esi
	movl	$1, %edx
	movl	$112, %ecx
	movl	$1, %r8d
	movl	$126, %r9d
	callq	_KTimestamp3
	movl	$123, %edi
	movl	$125, %esi
	callq	_KPhiAddCond
	movl	$122, %edi
	movl	$125, %esi
	callq	_KPhiAddCond
	movl	$119, %edi
	movl	$125, %esi
	callq	_KPhiAddCond
	movl	$126, %edi
	movl	$125, %esi
	callq	_KPhiAddCond
	movl	$126, %edi
	movl	$126, %esi
	xorl	%edx, %edx
	callq	_KTimestamp1
	movl	$111, %edi
	movl	$125, %esi
	callq	_KPhiAddCond
	movl	$123, %edi
	movl	$123, %esi
	xorl	%edx, %edx
	callq	_KTimestamp1
	movl	$122, %edi
	movl	$122, %esi
	xorl	%edx, %edx
	callq	_KTimestamp1
	movl	$119, %edi
	movl	$119, %esi
	xorl	%edx, %edx
	callq	_KTimestamp1
	movl	$111, %edi
	movl	$111, %esi
	xorl	%edx, %edx
	callq	_KTimestamp1
	callq	_KPopCDep
	movq	-96(%rbp), %rax         # 8-byte Reload
	.loc	2 654 29 is_stmt 0      # susan.c:654:29
	cmpl	%eax, -72(%rbp)         # 4-byte Folded Reload
	jle	.LBB10_23
	jmp	.LBB10_24
.Ltmp501:
	.align	16, 0x90
.LBB10_25:                              # %for.cond82.pre_exit.for.end110
                                        #   in Loop: Header=BB10_18 Depth=2
	#DEBUG_VALUE: susan_smoothing:bp <- [RBP+-112]
	#DEBUG_VALUE: susan_smoothing:in <- [RBP+-72]
	#DEBUG_VALUE: susan_smoothing:total <- 0
	#DEBUG_VALUE: susan_smoothing:i <- [RBP+-144]
	#DEBUG_VALUE: susan_smoothing:x_size <- [RBP+-64]
	#DEBUG_VALUE: susan_smoothing:y_size <- undef
	#DEBUG_VALUE: susan_smoothing:dpt <- [RBP+-200]
	#DEBUG_VALUE: susan_smoothing:dp <- [RBP+-200]
	#DEBUG_VALUE: susan_smoothing:x <- [RBP+-144]
	#DEBUG_VALUE: susan_smoothing:y <- [RBP+-144]
	#DEBUG_VALUE: susan_smoothing:j <- [RBP+-144]
	#DEBUG_VALUE: susan_smoothing:increment <- [RBP+-152]
	#DEBUG_VALUE: susan_smoothing:area <- 0
	movl	$1, %esi
	movabsq	$7279609226088015983, %rdi # imm = 0x65065E05A8A1E86F
	callq	_KExitRegion
	movl	$44, %edi
	callq	_KPushCDep
	movl	$2, %edi
	callq	_KWork
	movl	$134, %edi
	movl	$44, %esi
	movl	$2, %edx
	movl	$42, %ecx
	movl	$2, %r8d
	callq	_KTimestamp2
	callq	_KPopCDep
	movl	$134, %edi
	callq	_KPushCDep
	movl	-100(%rbp), %ebx        # 4-byte Reload
	.loc	2 663 13 is_stmt 1      # susan.c:663:13
	addl	$-10000, %ebx           # imm = 0xFFFFFFFFFFFFD8F0
	je	.LBB10_26
# BB#27:                                # %if.else117
                                        #   in Loop: Header=BB10_18 Depth=2
	#DEBUG_VALUE: susan_smoothing:bp <- [RBP+-112]
	#DEBUG_VALUE: susan_smoothing:in <- [RBP+-72]
	#DEBUG_VALUE: susan_smoothing:total <- 0
	#DEBUG_VALUE: susan_smoothing:i <- [RBP+-144]
	#DEBUG_VALUE: susan_smoothing:x_size <- [RBP+-64]
	#DEBUG_VALUE: susan_smoothing:y_size <- undef
	#DEBUG_VALUE: susan_smoothing:dpt <- [RBP+-200]
	#DEBUG_VALUE: susan_smoothing:dp <- [RBP+-200]
	#DEBUG_VALUE: susan_smoothing:x <- [RBP+-144]
	#DEBUG_VALUE: susan_smoothing:y <- [RBP+-144]
	#DEBUG_VALUE: susan_smoothing:j <- [RBP+-144]
	#DEBUG_VALUE: susan_smoothing:increment <- [RBP+-152]
	#DEBUG_VALUE: susan_smoothing:area <- 0
.Ltmp502:
	#DEBUG_VALUE: susan_smoothing:centre <- [RBP+-120]
	movl	$14, %edi
	callq	_KWork
	.loc	2 666 20                # susan.c:666:20
.Ltmp503:
	movq	-120(%rbp), %rax        # 8-byte Reload
	imull	$-10000, %eax, %ecx     # imm = 0xFFFFFFFFFFFFD8F0
	movl	-128(%rbp), %eax        # 4-byte Reload
	addl	%ecx, %eax
	.loc	2 666 19 is_stmt 0      # susan.c:666:19
	cltd
	idivl	%ebx
	movl	%eax, %r14d
	movl	$11, 16(%rsp)
	movl	$46, 8(%rsp)
	movl	$15, (%rsp)
	movl	$45, %edi
	movl	$44, %esi
	movl	$15, %edx
	movl	$30, %ecx
	movl	$13, %r8d
	movl	$42, %r9d
	callq	_KTimestamp4
	movl	$45, %edi
	movl	$1, %edx
	movq	-160(%rbp), %rbx        # 8-byte Reload
	movq	%rbx, %rsi
	callq	_KStore
	.loc	2 666 11                # susan.c:666:11
	movb	%r14b, (%rbx)
	movl	$2, (%rsp)
	movl	$133, %r15d
	movl	$133, %edi
	movl	$107, %esi
	xorl	%edx, %edx
	movl	$44, %ecx
	movl	$2, %r8d
	movl	$42, %r9d
	callq	_KTimestamp3
	callq	_KPopCDep
	movq	-168(%rbp), %r12        # 8-byte Reload
	jmp	.LBB10_28
	.align	16, 0x90
.LBB10_26:                              # %if.then114
                                        #   in Loop: Header=BB10_18 Depth=2
	#DEBUG_VALUE: susan_smoothing:bp <- [RBP+-112]
	#DEBUG_VALUE: susan_smoothing:in <- [RBP+-72]
	#DEBUG_VALUE: susan_smoothing:total <- 0
	#DEBUG_VALUE: susan_smoothing:i <- [RBP+-144]
	#DEBUG_VALUE: susan_smoothing:x_size <- [RBP+-64]
	#DEBUG_VALUE: susan_smoothing:y_size <- undef
	#DEBUG_VALUE: susan_smoothing:dpt <- [RBP+-200]
	#DEBUG_VALUE: susan_smoothing:dp <- [RBP+-200]
	#DEBUG_VALUE: susan_smoothing:x <- [RBP+-144]
	#DEBUG_VALUE: susan_smoothing:y <- [RBP+-144]
	#DEBUG_VALUE: susan_smoothing:j <- [RBP+-144]
	#DEBUG_VALUE: susan_smoothing:increment <- [RBP+-152]
	#DEBUG_VALUE: susan_smoothing:area <- 0
	movl	$36, %esi
	movl	$8, %edx
	leaq	-48(%rbp), %rdi
	callq	_KLoad0
	movl	$9, %edi
	callq	_KWork
	.loc	2 664 25 is_stmt 1      # susan.c:664:25
	movq	-48(%rbp), %r14
	movl	$37, %esi
	movl	$4, %edx
	leaq	-52(%rbp), %rdi
	callq	_KLoad0
	.loc	2 664 32 is_stmt 0      # susan.c:664:32
	movl	-52(%rbp), %ebx
	xorl	%esi, %esi
	movabsq	$-47961156778941384, %rdi # imm = 0xFF559B94FF2CA438
	callq	_KPrepCall
	movl	$37, %edi
	movl	$37, %esi
	xorl	%edx, %edx
	callq	_KTimestamp1
	movl	$37, %edi
	callq	_KEnqArg
	movl	$2, (%rsp)
	movl	$40, %edi
	movl	$41, %esi
	xorl	%edx, %edx
	movl	$44, %ecx
	movl	$2, %r8d
	movl	$42, %r9d
	callq	_KTimestamp3
	movl	$40, %edi
	callq	_KEnqArg
	movl	$39, %edi
	callq	_KEnqArg
	movl	$38, %edi
	callq	_KLinkReturn
	.loc	2 664 18                # susan.c:664:18
	movq	%r14, %rdi
	movl	-176(%rbp), %esi        # 4-byte Reload
	movq	-168(%rbp), %r12        # 8-byte Reload
	movl	%r12d, %edx
	movl	%ebx, %ecx
	callq	median
	movb	%al, %r14b
	movl	$38, %edi
	movl	$38, %esi
	xorl	%edx, %edx
	callq	_KTimestamp1
	movl	$38, %edi
	movl	$1, %edx
	movq	-160(%rbp), %rbx        # 8-byte Reload
	movq	%rbx, %rsi
	callq	_KStore
	.loc	2 664 11                # susan.c:664:11
	movb	%r14b, (%rbx)
	movl	$2, (%rsp)
	movl	$132, %r15d
	movl	$132, %edi
	movl	$107, %esi
	xorl	%edx, %edx
	movl	$44, %ecx
	movl	$2, %r8d
	movl	$42, %r9d
	callq	_KTimestamp3
	callq	_KPopCDep
	jmp	.LBB10_28
.Ltmp504:
.LBB10_39:                              # %for.cond60.pre_exit.if.end258.loopexit
	#DEBUG_VALUE: susan_smoothing:total <- 0
	movl	$1, %esi
	movabsq	$-5798603695125984165, %rdi # imm = 0xAF8738A95EBF8C5B
.LBB10_41:                              # %if.end258
	callq	_KExitRegion
	movl	$18, %edi
	callq	_KPushCDep
	callq	_KPopCDep
	#DEBUG_VALUE: susan_smoothing:total <- 0
	xorl	%esi, %esi
	movabsq	$-5223185220444022319, %rdi # imm = 0xB78384B7335D19D1
	callq	_KExitRegion
	.loc	2 704 1 is_stmt 1       # susan.c:704:1
	addq	$504, %rsp              # imm = 0x1F8
	popq	%rbx
	popq	%r12
	popq	%r13
	popq	%r14
	popq	%r15
	popq	%rbp
	retq
.Ltmp505:
.Ltmp506:
	.size	susan_smoothing, .Ltmp506-susan_smoothing
.Lfunc_end10:
	.cfi_endproc

	.globl	edge_draw
	.align	16, 0x90
	.type	edge_draw,@function
edge_draw:                              # @edge_draw
.Lfunc_begin11:
	.loc	2 709 0                 # susan.c:709:0
	.cfi_startproc
# BB#0:                                 # %entry
	pushq	%rbp
.Ltmp507:
	.cfi_def_cfa_offset 16
.Ltmp508:
	.cfi_offset %rbp, -16
	movq	%rsp, %rbp
.Ltmp509:
	.cfi_def_cfa_register %rbp
	pushq	%r15
	pushq	%r14
	pushq	%r13
	pushq	%r12
	pushq	%rbx
	subq	$72, %rsp
.Ltmp510:
	.cfi_offset %rbx, -56
.Ltmp511:
	.cfi_offset %r12, -48
.Ltmp512:
	.cfi_offset %r13, -40
.Ltmp513:
	.cfi_offset %r14, -32
.Ltmp514:
	.cfi_offset %r15, -24
	#DEBUG_VALUE: edge_draw:in <- RDI
	#DEBUG_VALUE: edge_draw:mid <- RSI
	#DEBUG_VALUE: edge_draw:x_size <- EDX
	#DEBUG_VALUE: edge_draw:y_size <- ECX
	#DEBUG_VALUE: edge_draw:drawing_mode <- R8D
.Ltmp515:
	#DEBUG_VALUE: edge_draw:midp <- RSI
	movl	%r8d, %ebx
.Ltmp516:
	#DEBUG_VALUE: edge_draw:drawing_mode <- EBX
	movl	%ecx, %r12d
.Ltmp517:
	#DEBUG_VALUE: edge_draw:y_size <- R12D
	movl	%edx, -64(%rbp)         # 4-byte Spill
.Ltmp518:
	#DEBUG_VALUE: edge_draw:x_size <- [RBP+-64]
	movq	%rsi, -48(%rbp)         # 8-byte Spill
.Ltmp519:
	#DEBUG_VALUE: edge_draw:midp <- [RBP+-48]
	#DEBUG_VALUE: edge_draw:mid <- [RBP+-48]
	movq	%rdi, %r15
.Ltmp520:
	#DEBUG_VALUE: edge_draw:in <- R15
	movabsq	$4741285338494877574, %rdi # imm = 0x41CC6DE51BC13F86
	xorl	%r13d, %r13d
	xorl	%esi, %esi
	callq	_KEnterRegion
	movl	$19, %edi
	movl	$2, %esi
	callq	_KPrepRTable
	movl	$1, %edi
	callq	_KWork
	movl	$3, %edi
	callq	_KDeqArg
	movl	$2, %edi
	callq	_KDeqArg
	movl	$1, %edi
	callq	_KDeqArg
	movl	$9, %r14d
	movl	$9, %edi
	movl	$9, %esi
	xorl	%edx, %edx
	callq	_KTimestamp1
	movl	$11, %edi
	movl	$3, %esi
	movl	$1, %edx
	callq	_KTimestamp1
	.loc	2 713 7 prologue_end    # susan.c:713:7
.Ltmp521:
	testl	%ebx, %ebx
	movabsq	$1632331352137955187, %rbx # imm = 0x16A734B75FEA7773
.Ltmp522:
	.loc	2 713 7 is_stmt 0       # susan.c:713:7
	je	.LBB11_2
.Ltmp523:
# BB#1:                                 # %entry.if.end18_crit_edge
	#DEBUG_VALUE: edge_draw:in <- R15
	#DEBUG_VALUE: edge_draw:mid <- [RBP+-48]
	#DEBUG_VALUE: edge_draw:x_size <- [RBP+-64]
	#DEBUG_VALUE: edge_draw:y_size <- R12D
	.loc	2 731 15 is_stmt 1      # susan.c:731:15
	imull	-64(%rbp), %r12d        # 4-byte Folded Reload
.Ltmp524:
	movl	%r12d, -52(%rbp)        # 4-byte Spill
	jmp	.LBB11_8
.Ltmp525:
.LBB11_2:                               # %if.then
	#DEBUG_VALUE: edge_draw:in <- R15
	#DEBUG_VALUE: edge_draw:mid <- [RBP+-48]
	#DEBUG_VALUE: edge_draw:x_size <- [RBP+-64]
	#DEBUG_VALUE: edge_draw:y_size <- R12D
	movabsq	$-9216291908556765195, %rbx # imm = 0x80192756D42AC7F5
	movl	$11, %edi
	callq	_KPushCDep
.Ltmp526:
	#DEBUG_VALUE: edge_draw:i <- 0
	movl	$7, %edi
	callq	_KInduction
	callq	_KPopCDep
	movl	$1, %esi
	movq	%rbx, %rdi
	callq	_KEnterRegion
	movl	-64(%rbp), %eax         # 4-byte Reload
.Ltmp527:
	#DEBUG_VALUE: edge_draw:x_size <- EAX
	.loc	2 717 17                # susan.c:717:17
	imull	%eax, %r12d
.Ltmp528:
	movl	%r12d, -52(%rbp)        # 4-byte Spill
	.loc	2 719 15                # susan.c:719:15
.Ltmp529:
	cltq
.Ltmp530:
	.loc	2 720 48                # susan.c:720:48
	movq	%rax, -72(%rbp)         # 8-byte Spill
	leal	-2(%rax), %eax
	.loc	2 720 43 is_stmt 0      # susan.c:720:43
	cltq
	movq	%rax, -80(%rbp)         # 8-byte Spill
	movabsq	$2124515623799661988, %r12 # imm = 0x1D7BCBB42458A5A4
	xorl	%ebx, %ebx
	jmp	.LBB11_3
.Ltmp531:
	.align	16, 0x90
.LBB11_6:                               # %if.end
                                        #   in Loop: Header=BB11_3 Depth=1
	#DEBUG_VALUE: edge_draw:in <- R15
	#DEBUG_VALUE: edge_draw:mid <- [RBP+-48]
	#DEBUG_VALUE: edge_draw:i <- 0
	movl	$12, %r13d
	movl	$12, %edi
	callq	_KPushCDep
	movl	$10, %r14d
	movl	$10, %edi
	movl	$8, %esi
	xorl	%edx, %edx
	movl	$12, %ecx
	xorl	%r8d, %r8d
	callq	_KTimestamp2
	callq	_KPopCDep
	movl	$2, %esi
	movq	%r12, %rdi
	callq	_KExitRegion
	movq	-64(%rbp), %rbx         # 8-byte Reload
	incq	%rbx
.Ltmp532:
.LBB11_3:                               # %for.cond
                                        # =>This Inner Loop Header: Depth=1
	#DEBUG_VALUE: edge_draw:in <- R15
	#DEBUG_VALUE: edge_draw:mid <- [RBP+-48]
	#DEBUG_VALUE: edge_draw:i <- 0
	movl	$11, %edi
	callq	_KPushCDep
	movl	$8, %edi
	movl	$11, %edx
	movl	%r14d, %esi
	movl	%r13d, %ecx
	callq	_KPhi2To1
	movl	$3, %edi
	callq	_KWork
	movl	$8, %edi
	movl	$8, %esi
	xorl	%edx, %edx
	callq	_KTimestamp1
	movl	$1, 16(%rsp)
	movl	$7, 8(%rsp)
	movl	$3, (%rsp)
	movl	$12, %edi
	movl	$1, %esi
	movl	$3, %edx
	movl	$2, %ecx
	movl	$3, %r8d
	movl	$11, %r9d
	callq	_KTimestamp4
	movl	$8, %edi
	movl	$12, %esi
	callq	_KPhiAddCond
	callq	_KPopCDep
	.loc	2 717 5 is_stmt 1       # susan.c:717:5
	cmpl	-52(%rbp), %ebx         # 4-byte Folded Reload
	jge	.LBB11_7
.Ltmp533:
# BB#4:                                 # %for.body
                                        #   in Loop: Header=BB11_3 Depth=1
	#DEBUG_VALUE: edge_draw:in <- R15
	#DEBUG_VALUE: edge_draw:mid <- [RBP+-48]
	#DEBUG_VALUE: edge_draw:i <- 0
	movq	-48(%rbp), %rax         # 8-byte Reload
	movq	%rbx, -64(%rbp)         # 8-byte Spill
	leaq	(%rax,%rbx), %rbx
	movl	$2, %esi
	movq	%r12, %rdi
	callq	_KEnterRegion
	movl	$12, %edi
	callq	_KPushCDep
	movl	$5, %edi
	callq	_KWork
	movl	$4, %esi
	movl	$1, %edx
	movq	%rbx, %rdi
	callq	_KLoad0
	.loc	2 718 11                # susan.c:718:11
.Ltmp534:
	movzbl	(%rbx), %r14d
	movl	$17, %edi
	movl	$12, %esi
	movl	$1, %edx
	movl	$4, %ecx
	movl	$1, %r8d
	callq	_KTimestamp2
	callq	_KPopCDep
	cmpl	$7, %r14d
	ja	.LBB11_6
.Ltmp535:
# BB#5:                                 # %if.then4
                                        #   in Loop: Header=BB11_3 Depth=1
	#DEBUG_VALUE: edge_draw:in <- R15
	#DEBUG_VALUE: edge_draw:mid <- [RBP+-48]
	#DEBUG_VALUE: edge_draw:i <- 0
	movl	$17, %edi
	callq	_KPushCDep
	movl	$16, %edi
	callq	_KWork
	.loc	2 719 21                # susan.c:719:21
.Ltmp536:
	subq	-48(%rbp), %rbx         # 8-byte Folded Reload
	.loc	2 719 15 is_stmt 0      # susan.c:719:15
	subq	-72(%rbp), %rbx         # 8-byte Folded Reload
	leaq	-1(%r15,%rbx), %rdi
.Ltmp537:
	#DEBUG_VALUE: edge_draw:inp <- RDI
	.loc	2 720 10 is_stmt 1      # susan.c:720:10
	leaq	(%r15,%rbx), %r14
.Ltmp538:
	#DEBUG_VALUE: edge_draw:inp <- R14
	movl	$1, %esi
	callq	_KStoreConst
	.loc	2 720 9 is_stmt 0       # susan.c:720:9
	movb	$-1, -1(%r15,%rbx)
	.loc	2 720 22                # susan.c:720:22
	leaq	1(%r15,%rbx), %r13
.Ltmp539:
	#DEBUG_VALUE: edge_draw:inp <- R13
	movl	$1, %esi
	movq	%r14, %rdi
	callq	_KStoreConst
	.loc	2 720 21                # susan.c:720:21
	movb	$-1, (%r15,%rbx)
	movl	$1, %esi
	movq	%r13, %rdi
	callq	_KStoreConst
	.loc	2 720 33                # susan.c:720:33
	movb	$-1, 1(%r15,%rbx)
	movq	-80(%rbp), %r12         # 8-byte Reload
	.loc	2 720 43                # susan.c:720:43
	leaq	1(%rbx,%r12), %rbx
	leaq	(%r15,%rbx), %rdi
.Ltmp540:
	#DEBUG_VALUE: edge_draw:inp <- RDI
	.loc	2 721 10 is_stmt 1      # susan.c:721:10
	leaq	1(%r15,%rbx), %r14
.Ltmp541:
	#DEBUG_VALUE: edge_draw:inp <- R14
	movl	$1, %esi
	callq	_KStoreConst
	.loc	2 721 9 is_stmt 0       # susan.c:721:9
	movb	$-1, (%r15,%rbx)
	.loc	2 721 22                # susan.c:721:22
	leaq	2(%r15,%rbx), %r13
.Ltmp542:
	#DEBUG_VALUE: edge_draw:inp <- R13
	movl	$5, %esi
	movl	$1, %edx
	movq	%r14, %rdi
	callq	_KLoad0
	movl	$1, %esi
	movq	%r13, %rdi
	callq	_KStoreConst
	.loc	2 721 33                # susan.c:721:33
	movb	$-1, 2(%r15,%rbx)
	.loc	2 721 43                # susan.c:721:43
	leaq	2(%r12,%rbx), %rbx
	movabsq	$2124515623799661988, %r12 # imm = 0x1D7BCBB42458A5A4
	leaq	(%r15,%rbx), %rdi
.Ltmp543:
	#DEBUG_VALUE: edge_draw:inp <- RDI
	.loc	2 722 10 is_stmt 1      # susan.c:722:10
	leaq	1(%r15,%rbx), %r14
.Ltmp544:
	#DEBUG_VALUE: edge_draw:inp <- R14
	movl	$1, %esi
	callq	_KStoreConst
	.loc	2 722 9 is_stmt 0       # susan.c:722:9
	movb	$-1, (%r15,%rbx)
	.loc	2 722 22                # susan.c:722:22
	leaq	2(%r15,%rbx), %r13
.Ltmp545:
	#DEBUG_VALUE: edge_draw:inp <- R13
	movl	$1, %esi
	movq	%r14, %rdi
	callq	_KStoreConst
	.loc	2 722 21                # susan.c:722:21
	movb	$-1, 1(%r15,%rbx)
	movl	$1, %esi
	movq	%r13, %rdi
	callq	_KStoreConst
	.loc	2 722 33                # susan.c:722:33
	movb	$-1, 2(%r15,%rbx)
	callq	_KPopCDep
	jmp	.LBB11_6
.Ltmp546:
.LBB11_7:                               # %for.cond.pre_exit.if.end18.loopexit
	#DEBUG_VALUE: edge_draw:in <- R15
	#DEBUG_VALUE: edge_draw:mid <- [RBP+-48]
	#DEBUG_VALUE: edge_draw:i <- 0
	movl	$1, %esi
	movabsq	$-9216291908556765195, %rdi # imm = 0x80192756D42AC7F5
	callq	_KExitRegion
	movl	$11, %edi
	callq	_KPushCDep
	callq	_KPopCDep
	movabsq	$1632331352137955187, %rbx # imm = 0x16A734B75FEA7773
.Ltmp547:
.LBB11_8:                               # %if.end18
	#DEBUG_VALUE: edge_draw:in <- R15
	#DEBUG_VALUE: edge_draw:i <- 0
	movl	$13, %edi
	callq	_KInduction
	movl	$1, %esi
	movq	%rbx, %rdi
	callq	_KEnterRegion
	movl	$9, %r13d
	xorl	%r12d, %r12d
	movabsq	$2692774874239681455, %r14 # imm = 0x255EA87B2F2743AF
	xorl	%ebx, %ebx
	jmp	.LBB11_9
.Ltmp548:
	.align	16, 0x90
.LBB11_12:                              # %if.end32
                                        #   in Loop: Header=BB11_9 Depth=1
	#DEBUG_VALUE: edge_draw:in <- R15
	#DEBUG_VALUE: edge_draw:i <- 0
	movl	$16, %ebx
	movl	$16, %edi
	callq	_KPushCDep
	movl	$15, %r13d
	movl	$15, %edi
	movl	$14, %esi
	xorl	%edx, %edx
	movl	$16, %ecx
	xorl	%r8d, %r8d
	callq	_KTimestamp2
	callq	_KPopCDep
	movl	$2, %esi
	movq	%r14, %rdi
	callq	_KExitRegion
	incq	%r12
.Ltmp549:
.LBB11_9:                               # %for.cond19
                                        # =>This Inner Loop Header: Depth=1
	#DEBUG_VALUE: edge_draw:in <- R15
	#DEBUG_VALUE: edge_draw:i <- 0
	movl	$14, %edi
	movl	%r13d, %esi
	movl	%ebx, %edx
	callq	_KPhi1To1
	movl	$3, %edi
	callq	_KWork
	movl	$14, %edi
	movl	$14, %esi
	xorl	%edx, %edx
	callq	_KTimestamp1
	movl	$1, (%rsp)
	movl	$16, %edi
	movl	$1, %esi
	movl	$3, %edx
	movl	$2, %ecx
	movl	$3, %r8d
	movl	$13, %r9d
	callq	_KTimestamp3
	movl	$14, %edi
	movl	$16, %esi
	callq	_KPhiAddCond
	.loc	2 731 3 is_stmt 1       # susan.c:731:3
.Ltmp550:
	cmpl	-52(%rbp), %r12d        # 4-byte Folded Reload
	jge	.LBB11_13
.Ltmp551:
# BB#10:                                # %for.body23
                                        #   in Loop: Header=BB11_9 Depth=1
	#DEBUG_VALUE: edge_draw:in <- R15
	#DEBUG_VALUE: edge_draw:i <- 0
	movq	-48(%rbp), %rax         # 8-byte Reload
	leaq	(%rax,%r12), %rbx
	movl	$2, %esi
	movq	%r14, %rdi
	callq	_KEnterRegion
	movl	$16, %edi
	callq	_KPushCDep
	movl	$6, %esi
	movl	$1, %edx
	movq	%rbx, %rdi
	callq	_KLoad0
	movl	$5, %edi
	callq	_KWork
	.loc	2 732 9                 # susan.c:732:9
.Ltmp552:
	movzbl	(%rbx), %r13d
	movl	$18, %edi
	movl	$16, %esi
	movl	$1, %edx
	movl	$6, %ecx
	movl	$1, %r8d
	callq	_KTimestamp2
	callq	_KPopCDep
	cmpl	$7, %r13d
	ja	.LBB11_12
.Ltmp553:
# BB#11:                                # %if.then27
                                        #   in Loop: Header=BB11_9 Depth=1
	#DEBUG_VALUE: edge_draw:in <- R15
	#DEBUG_VALUE: edge_draw:i <- 0
	movl	$18, %edi
	callq	_KPushCDep
	movl	$2, %edi
	callq	_KWork
	.loc	2 733 15                # susan.c:733:15
.Ltmp554:
	subq	-48(%rbp), %rbx         # 8-byte Folded Reload
	.loc	2 733 9 is_stmt 0       # susan.c:733:9
	leaq	(%r15,%rbx), %rdi
	movl	$1, %esi
	callq	_KStoreConst
	.loc	2 733 7                 # susan.c:733:7
	movb	$0, (%r15,%rbx)
	callq	_KPopCDep
	jmp	.LBB11_12
.Ltmp555:
.LBB11_13:                              # %for.cond19.pre_exit.for.end36
	#DEBUG_VALUE: edge_draw:i <- 0
	movl	$1, %esi
	movabsq	$1632331352137955187, %rdi # imm = 0x16A734B75FEA7773
	callq	_KExitRegion
	xorl	%esi, %esi
	movabsq	$4741285338494877574, %rdi # imm = 0x41CC6DE51BC13F86
	addq	$72, %rsp
	popq	%rbx
	popq	%r12
	popq	%r13
	popq	%r14
	popq	%r15
	popq	%rbp
	jmp	_KExitRegion            # TAILCALL
.Ltmp556:
	.size	edge_draw, .Ltmp556-edge_draw
.Lfunc_end11:
	.cfi_endproc

	.section	.rodata.cst8,"aM",@progbits,8
	.align	8
.LCPI12_0:
	.quad	4604480259023595110     # double 0.69999999999999996
	.text
	.globl	susan_thin
	.align	16, 0x90
	.type	susan_thin,@function
susan_thin:                             # @susan_thin
.Lfunc_begin12:
	.loc	2 740 0 is_stmt 1       # susan.c:740:0
	.cfi_startproc
# BB#0:                                 # %entry
	pushq	%rbp
.Ltmp557:
	.cfi_def_cfa_offset 16
.Ltmp558:
	.cfi_offset %rbp, -16
	movq	%rsp, %rbp
.Ltmp559:
	.cfi_def_cfa_register %rbp
	pushq	%r15
	pushq	%r14
	pushq	%r13
	pushq	%r12
	pushq	%rbx
	subq	$680, %rsp              # imm = 0x2A8
.Ltmp560:
	.cfi_offset %rbx, -56
.Ltmp561:
	.cfi_offset %r12, -48
.Ltmp562:
	.cfi_offset %r13, -40
.Ltmp563:
	.cfi_offset %r14, -32
.Ltmp564:
	.cfi_offset %r15, -24
	#DEBUG_VALUE: susan_thin:r <- RDI
	#DEBUG_VALUE: susan_thin:mid <- RSI
	#DEBUG_VALUE: susan_thin:x_size <- EDX
	#DEBUG_VALUE: susan_thin:y_size <- ECX
	movl	%ecx, %ebx
.Ltmp565:
	#DEBUG_VALUE: susan_thin:y_size <- EBX
	movl	%edx, %r15d
.Ltmp566:
	#DEBUG_VALUE: susan_thin:x_size <- R15D
	movq	%r15, -152(%rbp)        # 8-byte Spill
	movq	%rsi, -176(%rbp)        # 8-byte Spill
.Ltmp567:
	#DEBUG_VALUE: susan_thin:mid <- [RBP+-176]
	movq	%rdi, -224(%rbp)        # 8-byte Spill
.Ltmp568:
	#DEBUG_VALUE: susan_thin:r <- [RBP+-224]
	movabsq	$-2660891841875396626, %rdi # imm = 0xDB129CF7C34837EE
	movabsq	$5475059367311067671, %r14 # imm = 0x4BFB517C88C04A17
	xorl	%esi, %esi
	callq	_KEnterRegion
	movl	$301, %edi              # imm = 0x12D
	movl	$8, %esi
	callq	_KPrepRTable
	movl	$2, %edi
	callq	_KDeqArg
	movl	$1, %edi
	callq	_KDeqArg
.Ltmp569:
	#DEBUG_VALUE: susan_thin:i <- 4
	movl	$1, %esi
	movq	%r14, %rdi
	callq	_KEnterRegion
	.loc	2 749 14 prologue_end   # susan.c:749:14
.Ltmp570:
	addl	$-4, %ebx
.Ltmp571:
	movl	%ebx, -252(%rbp)        # 4-byte Spill
	.loc	2 751 16                # susan.c:751:16
.Ltmp572:
	leal	-4(%r15), %eax
	.loc	2 761 16                # susan.c:761:16
.Ltmp573:
	movl	%eax, -212(%rbp)        # 4-byte Spill
	movslq	%r15d, %rax
	.loc	2 783 37                # susan.c:783:37
.Ltmp574:
	movq	%rax, -240(%rbp)        # 8-byte Spill
.Ltmp575:
	#DEBUG_VALUE: susan_thin:x_size <- [RBP+-152]
	movl	$4, %r13d
	movl	$0, %r14d
	movl	$0, %ebx
                                        # implicit-def: EAX
	movq	%rax, -120(%rbp)        # 8-byte Spill
	xorl	%r12d, %r12d
                                        # implicit-def: EAX
	movq	%rax, -128(%rbp)        # 8-byte Spill
	xorl	%r15d, %r15d
	jmp	.LBB12_1
.Ltmp576:
	.align	16, 0x90
.LBB12_97:                              # %for.cond1.pre_exit.for.inc835
                                        #   in Loop: Header=BB12_1 Depth=1
	#DEBUG_VALUE: susan_thin:r <- [RBP+-224]
	#DEBUG_VALUE: susan_thin:mid <- [RBP+-176]
	#DEBUG_VALUE: susan_thin:x_size <- [RBP+-152]
	#DEBUG_VALUE: susan_thin:i <- 4
	#DEBUG_VALUE: susan_thin:j <- 4
	movl	$1, %esi
	movabsq	$8880739456499723873, %r13 # imm = 0x7B3EB97BC7762E61
	movq	%r13, %rdi
	callq	_KExitRegion
	movl	$22, %ebx
	movl	$22, %edi
	callq	_KPushCDep
	movl	$1, %edi
	callq	_KWork
	movq	-168(%rbp), %r13        # 8-byte Reload
	.loc	2 749 23                # susan.c:749:23
	incl	%r13d
.Ltmp577:
	#DEBUG_VALUE: susan_thin:i <- R13D
	movl	$219, %r15d
	movl	$219, %edi
	movl	$22, %esi
	movl	$1, %edx
	movl	$220, %ecx
	movl	$1, %r8d
	callq	_KTimestamp2
	callq	_KPopCDep
	movl	$2, %esi
	movabsq	$591741925414604618, %rdi # imm = 0x8364A255F0B0F4A
	callq	_KExitRegion
	movl	$218, %r12d
	movl	$216, %r14d
.Ltmp578:
.LBB12_1:                               # %for.cond
                                        # =>This Loop Header: Depth=1
                                        #     Child Loop BB12_3 Depth 2
                                        #       Child Loop BB12_30 Depth 3
                                        #         Child Loop BB12_32 Depth 4
	#DEBUG_VALUE: susan_thin:r <- [RBP+-224]
	#DEBUG_VALUE: susan_thin:mid <- [RBP+-176]
	#DEBUG_VALUE: susan_thin:x_size <- [RBP+-152]
	#DEBUG_VALUE: susan_thin:i <- 4
	movq	%r13, -168(%rbp)        # 8-byte Spill
	movl	$23, %edi
	movl	%r15d, %esi
	movl	%ebx, %edx
	callq	_KPhi1To1
	movl	$217, %edi
	movl	%r12d, %esi
	movl	%ebx, %edx
	callq	_KPhi1To1
	movl	$215, %edi
	movl	%r14d, %esi
	movl	%ebx, %edx
	callq	_KPhi1To1
	movl	$2, %edi
	callq	_KWork
	movl	$22, %edi
	movl	$23, %esi
	movl	$1, %edx
	movl	$2, %ecx
	movl	$2, %r8d
	callq	_KTimestamp2
	movl	$23, %edi
	movl	$23, %esi
	xorl	%edx, %edx
	callq	_KTimestamp1
	movl	$217, %edi
	movl	$217, %esi
	xorl	%edx, %edx
	callq	_KTimestamp1
	movl	$217, %edi
	movl	$22, %esi
	callq	_KPhiAddCond
	movl	$215, %edi
	movl	$215, %esi
	xorl	%edx, %edx
	callq	_KTimestamp1
	movl	$23, %edi
	movl	$22, %esi
	callq	_KPhiAddCond
	movl	$215, %edi
	movl	$22, %esi
	callq	_KPhiAddCond
	.loc	2 749 3 is_stmt 0       # susan.c:749:3
	cmpl	-252(%rbp), %r13d       # 4-byte Folded Reload
	jge	.LBB12_98
# BB#2:                                 # %for.body
                                        #   in Loop: Header=BB12_1 Depth=1
	#DEBUG_VALUE: susan_thin:r <- [RBP+-224]
	#DEBUG_VALUE: susan_thin:mid <- [RBP+-176]
	#DEBUG_VALUE: susan_thin:x_size <- [RBP+-152]
	#DEBUG_VALUE: susan_thin:i <- 4
	movl	$2, %esi
	movabsq	$591741925414604618, %rdi # imm = 0x8364A255F0B0F4A
	callq	_KEnterRegion
	movl	$22, %edi
	callq	_KPushCDep
	#DEBUG_VALUE: susan_thin:j <- 4
	callq	_KPopCDep
	movl	$1, %esi
	movabsq	$8880739456499723873, %rdi # imm = 0x7B3EB97BC7762E61
	callq	_KEnterRegion
	movl	$4, %r12d
	movl	$23, -88(%rbp)          # 4-byte Folded Spill
	movl	$217, %r15d
	movl	$215, %r14d
	xorl	%r13d, %r13d
	xorl	%ebx, %ebx
	jmp	.LBB12_3
	.align	16, 0x90
.LBB12_96:                              # %for.inc832
                                        #   in Loop: Header=BB12_3 Depth=2
	#DEBUG_VALUE: susan_thin:r <- [RBP+-224]
	#DEBUG_VALUE: susan_thin:mid <- [RBP+-176]
	#DEBUG_VALUE: susan_thin:x_size <- [RBP+-152]
	#DEBUG_VALUE: susan_thin:i <- 4
	#DEBUG_VALUE: susan_thin:j <- 4
	movl	$24, %r13d
	movl	$24, %edi
	callq	_KPushCDep
	movl	-112(%rbp), %eax        # 4-byte Reload
	movl	%eax, 16(%rsp)
	movl	%r14d, 8(%rsp)
	movl	%r12d, (%rsp)
	movl	$225, %edi
	movl	$6, %edx
	movl	$24, %ecx
	movl	$249, %r8d
	xorl	%eax, %eax
	movl	-88(%rbp), %esi         # 4-byte Reload
	movl	%ebx, %r9d
	callq	_KPhi
	movl	%r14d, 8(%rsp)
	movl	%r12d, (%rsp)
	movl	$223, -88(%rbp)         # 4-byte Folded Spill
	movl	$223, %edi
	movl	$5, %edx
	movl	$24, %ecx
	movl	$249, %r8d
	xorl	%eax, %eax
	movl	%r15d, %esi
	movl	%ebx, %r9d
	callq	_KPhi
	movl	$222, %r15d
	movl	$222, %edi
	movl	$24, %edx
	movl	$249, %ecx
	movl	-104(%rbp), %esi        # 4-byte Reload
	callq	_KPhi2To1
	movl	$221, %r14d
	movl	$221, %edi
	movl	$24, %edx
	movl	$249, %ecx
	movl	-96(%rbp), %esi         # 4-byte Reload
	callq	_KPhi2To1
	movl	$1, %edi
	callq	_KWork
	movq	-144(%rbp), %r12        # 8-byte Reload
	.loc	2 751 25 is_stmt 1      # susan.c:751:25
.Ltmp579:
	incl	%r12d
.Ltmp580:
	#DEBUG_VALUE: susan_thin:j <- R12D
	movl	$224, %ebx
	movl	$224, %edi
	movl	$24, %esi
	movl	$1, %edx
	movl	$225, %ecx
	movl	$1, %r8d
	callq	_KTimestamp2
	movl	$223, %edi
	movl	$223, %esi
	xorl	%edx, %edx
	callq	_KTimestamp1
	movl	$222, %edi
	movl	$222, %esi
	xorl	%edx, %edx
	callq	_KTimestamp1
	movl	$221, %edi
	movl	$221, %esi
	xorl	%edx, %edx
	callq	_KTimestamp1
	callq	_KPopCDep
	movl	$2, %esi
	movabsq	$-4845568851963120398, %rdi # imm = 0xBCC114CD540A74F2
	callq	_KExitRegion
.Ltmp581:
.LBB12_3:                               # %for.cond1
                                        #   Parent Loop BB12_1 Depth=1
                                        # =>  This Loop Header: Depth=2
                                        #       Child Loop BB12_30 Depth 3
                                        #         Child Loop BB12_32 Depth 4
	#DEBUG_VALUE: susan_thin:r <- [RBP+-224]
	#DEBUG_VALUE: susan_thin:mid <- [RBP+-176]
	#DEBUG_VALUE: susan_thin:x_size <- [RBP+-152]
	#DEBUG_VALUE: susan_thin:i <- 4
	#DEBUG_VALUE: susan_thin:j <- 4
	movl	$22, %edi
	callq	_KPushCDep
	movl	$25, %edi
	movl	$22, %edx
	movl	%ebx, %esi
	movl	%r13d, %ecx
	callq	_KPhi2To1
	movl	$220, %edi
	movl	$22, %edx
	movl	-88(%rbp), %esi         # 4-byte Reload
	movl	%r13d, %ecx
	callq	_KPhi2To1
	movl	$218, %edi
	movl	$22, %edx
	movl	%r15d, %esi
	movl	%r13d, %ecx
	callq	_KPhi2To1
	movl	$216, %edi
	movl	$22, %edx
	movl	%r14d, %esi
	movl	%r13d, %ecx
	callq	_KPhi2To1
	movl	$2, %edi
	callq	_KWork
	movl	$2, (%rsp)
	movl	$24, %edi
	movl	$22, %esi
	movl	$2, %edx
	movl	$25, %ecx
	movl	$1, %r8d
	movl	$1, %r9d
	callq	_KTimestamp3
	movl	$25, %edi
	movl	$25, %esi
	xorl	%edx, %edx
	callq	_KTimestamp1
	movl	$25, %edi
	movl	$24, %esi
	callq	_KPhiAddCond
	movl	$220, %edi
	movl	$24, %esi
	callq	_KPhiAddCond
	movl	$218, %edi
	movl	$24, %esi
	callq	_KPhiAddCond
	movl	$216, %edi
	movl	$24, %esi
	callq	_KPhiAddCond
	movl	$220, %edi
	movl	$220, %esi
	xorl	%edx, %edx
	callq	_KTimestamp1
	movl	$218, %edi
	movl	$218, %esi
	xorl	%edx, %edx
	callq	_KTimestamp1
	movl	$216, %edi
	movl	$216, %esi
	xorl	%edx, %edx
	callq	_KTimestamp1
	callq	_KPopCDep
	.loc	2 751 5 is_stmt 0       # susan.c:751:5
	cmpl	-212(%rbp), %r12d       # 4-byte Folded Reload
	jge	.LBB12_97
# BB#4:                                 # %for.body4
                                        #   in Loop: Header=BB12_3 Depth=2
	#DEBUG_VALUE: susan_thin:r <- [RBP+-224]
	#DEBUG_VALUE: susan_thin:mid <- [RBP+-176]
	#DEBUG_VALUE: susan_thin:x_size <- [RBP+-152]
	#DEBUG_VALUE: susan_thin:i <- 4
	#DEBUG_VALUE: susan_thin:j <- 4
	movl	$2, %esi
	movabsq	$-4845568851963120398, %rdi # imm = 0xBCC114CD540A74F2
	callq	_KEnterRegion
	movl	$24, %edi
	callq	_KPushCDep
	movl	$8, %edi
	callq	_KWork
	movq	-168(%rbp), %r13        # 8-byte Reload
	.loc	2 752 15 is_stmt 1      # susan.c:752:15
.Ltmp582:
	movl	%r13d, %eax
	movq	-152(%rbp), %rcx        # 8-byte Reload
.Ltmp583:
	#DEBUG_VALUE: susan_thin:x_size <- undef
	imull	%ecx, %eax
.Ltmp584:
	#DEBUG_VALUE: susan_thin:x_size <- [RBP+-152]
	addl	%r12d, %eax
	.loc	2 752 11 is_stmt 0      # susan.c:752:11
	movslq	%eax, %r15
	movq	-176(%rbp), %rbx        # 8-byte Reload
.Ltmp585:
	#DEBUG_VALUE: susan_thin:mid <- RBX
	leaq	(%rbx,%r15), %rdi
	movq	%rdi, -184(%rbp)        # 8-byte Spill
	movl	$3, %esi
	movl	$4, %edx
	movl	$1, %ecx
	callq	_KLoad1
.Ltmp586:
	.loc	2 752 11                # susan.c:752:11
	movzbl	(%rbx,%r15), %r14d
	movl	$249, %edi
	movl	$24, %esi
	movl	$1, %edx
	movl	$3, %ecx
	movl	$1, %r8d
	callq	_KTimestamp2
	callq	_KPopCDep
	cmpl	$7, %r14d
	ja	.LBB12_5
.Ltmp587:
# BB#6:                                 # %if.then
                                        #   in Loop: Header=BB12_3 Depth=2
	#DEBUG_VALUE: susan_thin:r <- [RBP+-224]
	#DEBUG_VALUE: susan_thin:mid <- RBX
	#DEBUG_VALUE: susan_thin:x_size <- [RBP+-152]
	#DEBUG_VALUE: susan_thin:i <- 4
	#DEBUG_VALUE: susan_thin:j <- 4
	movl	$249, %edi
	callq	_KPushCDep
	movl	$58, %edi
	callq	_KWork
	movq	-224(%rbp), %r14        # 8-byte Reload
.Ltmp588:
	#DEBUG_VALUE: susan_thin:r <- R14
	.loc	2 753 18 is_stmt 1      # susan.c:753:18
	leaq	(%r14,%r15), %rdi
	movl	$5, %esi
	movl	$6, %edx
	movl	$1, %ecx
	callq	_KLoad1
	movb	(%r14,%r15), %al
	movq	%r15, -104(%rbp)        # 8-byte Spill
	.loc	2 756 19                # susan.c:756:19
	movb	%al, -225(%rbp)         # 1-byte Spill
.Ltmp589:
	#DEBUG_VALUE: susan_thin:r <- [RBP+-224]
	leal	-1(%r13), %eax
	movq	%rax, -160(%rbp)        # 8-byte Spill
	movq	%rbx, %r14
.Ltmp590:
	#DEBUG_VALUE: susan_thin:mid <- R14
	.loc	2 756 18 is_stmt 0      # susan.c:756:18
	movl	%eax, %r13d
	movq	-152(%rbp), %rax        # 8-byte Reload
	imull	%eax, %r13d
	#DEBUG_VALUE: susan_thin:x_size <- [RBP+-152]
	.loc	2 756 12                # susan.c:756:12
	movslq	%r13d, %rax
	movslq	%r12d, %rbx
	movq	%r12, -144(%rbp)        # 8-byte Spill
	addq	%rax, %rbx
	leaq	-1(%r14,%rbx), %rdi
.Ltmp591:
	#DEBUG_VALUE: susan_thin:mp <- RDI
	movl	$7, %esi
	movl	$1, %edx
	callq	_KLoad0
	.loc	2 758 14 is_stmt 1      # susan.c:758:14
	movzbl	-1(%r14,%rbx), %r12d
	.loc	2 759 16                # susan.c:759:16
	leaq	(%r14,%rbx), %rdi
.Ltmp592:
	movl	$8, %esi
	movl	$1, %edx
	callq	_KLoad0
	.loc	2 759 14 is_stmt 0      # susan.c:759:14
	movzbl	(%r14,%rbx), %eax
	cmpl	$8, %eax
	sbbl	%r15d, %r15d
	andl	$1, %r15d
	.loc	2 758 14 is_stmt 1      # susan.c:758:14
	cmpl	$8, %r12d
	.loc	2 758 13 is_stmt 0      # susan.c:758:13
	adcl	$0, %r15d
	.loc	2 760 16 is_stmt 1      # susan.c:760:16
	leaq	1(%r14,%rbx), %rdi
	movl	$9, %esi
	movl	$1, %edx
	callq	_KLoad0
	.loc	2 760 14 is_stmt 0      # susan.c:760:14
	movzbl	1(%r14,%rbx), %eax
	cmpl	$8, %eax
	.loc	2 758 13 is_stmt 1      # susan.c:758:13
	adcl	$0, %r15d
	movq	-240(%rbp), %r12        # 8-byte Reload
	.loc	2 761 16                # susan.c:761:16
	leaq	-1(%r12,%rbx), %rbx
	leaq	(%r14,%rbx), %rdi
	movl	$10, %esi
	movl	$11, %edx
	movl	$1, %ecx
	callq	_KLoad1
	.loc	2 761 14 is_stmt 0      # susan.c:761:14
	movzbl	(%r14,%rbx), %eax
	cmpl	$8, %eax
	.loc	2 758 13 is_stmt 1      # susan.c:758:13
	adcl	$0, %r15d
	.loc	2 762 16                # susan.c:762:16
	leaq	2(%r14,%rbx), %rdi
	movl	$12, %esi
	movl	$1, %edx
	callq	_KLoad0
	.loc	2 762 14 is_stmt 0      # susan.c:762:14
	movzbl	2(%r14,%rbx), %eax
	cmpl	$8, %eax
	.loc	2 758 13 is_stmt 1      # susan.c:758:13
	adcl	$0, %r15d
	.loc	2 763 16                # susan.c:763:16
	addq	%r12, %rbx
	leaq	(%r14,%rbx), %rdi
	movl	$13, %esi
	movl	$14, %edx
	movl	$1, %ecx
	callq	_KLoad1
	.loc	2 763 14 is_stmt 0      # susan.c:763:14
	movzbl	(%r14,%rbx), %eax
	cmpl	$8, %eax
	.loc	2 758 13 is_stmt 1      # susan.c:758:13
	adcl	$0, %r15d
	.loc	2 764 16                # susan.c:764:16
	leaq	1(%r14,%rbx), %rdi
	movl	$15, %esi
	movl	$1, %edx
	callq	_KLoad0
	.loc	2 764 14 is_stmt 0      # susan.c:764:14
	movzbl	1(%r14,%rbx), %eax
	cmpl	$8, %eax
	.loc	2 758 13 is_stmt 1      # susan.c:758:13
	adcl	$0, %r15d
	.loc	2 765 16                # susan.c:765:16
	leaq	2(%r14,%rbx), %rdi
	movl	$16, %esi
	movl	$1, %edx
	callq	_KLoad0
	.loc	2 765 14 is_stmt 0      # susan.c:765:14
	movzbl	2(%r14,%rbx), %eax
.Ltmp593:
	#DEBUG_VALUE: susan_thin:mid <- [RBP+-176]
	cmpl	$8, %eax
	sbbl	%ebx, %ebx
	andl	$1, %ebx
	movl	$3, 120(%rsp)
	movl	$16, 112(%rsp)
	movl	$4, 104(%rsp)
	movl	$15, 96(%rsp)
	movl	$5, 88(%rsp)
	movl	$13, 80(%rsp)
	movl	$6, 72(%rsp)
	movl	$12, 64(%rsp)
	movl	$7, 56(%rsp)
	movl	$10, 48(%rsp)
	movl	$8, 40(%rsp)
	movl	$9, 32(%rsp)
	movl	$9, 24(%rsp)
	movl	$8, 16(%rsp)
	movl	$9, 8(%rsp)
	movl	$7, (%rsp)
	movl	$282, %edi              # imm = 0x11A
	movl	$10, %esi
	movl	$24, %edx
	movl	$10, %ecx
	movl	$3, %r8d
	movl	$10, %r9d
	xorl	%eax, %eax
	callq	_KTimestamp
	callq	_KPopCDep
	.loc	2 769 13 is_stmt 1      # susan.c:769:13
	addl	%r15d, %ebx
	movq	-184(%rbp), %r14        # 8-byte Reload
	jne	.LBB12_8
# BB#7:                                 # %if.then71
                                        #   in Loop: Header=BB12_3 Depth=2
	#DEBUG_VALUE: susan_thin:r <- [RBP+-224]
	#DEBUG_VALUE: susan_thin:mid <- [RBP+-176]
	#DEBUG_VALUE: susan_thin:x_size <- [RBP+-152]
	#DEBUG_VALUE: susan_thin:i <- 4
	#DEBUG_VALUE: susan_thin:j <- 4
	movl	$282, %edi              # imm = 0x11A
	callq	_KPushCDep
	movl	$4, %edi
	callq	_KWork
	movl	$1, %esi
	movq	%r14, %rdi
	callq	_KStoreConst
	.loc	2 770 11                # susan.c:770:11
.Ltmp594:
	movb	$100, (%r14)
	callq	_KPopCDep
.Ltmp595:
.LBB12_8:                               # %if.end
                                        #   in Loop: Header=BB12_3 Depth=2
	#DEBUG_VALUE: susan_thin:r <- [RBP+-224]
	#DEBUG_VALUE: susan_thin:mid <- [RBP+-176]
	#DEBUG_VALUE: susan_thin:x_size <- [RBP+-152]
	#DEBUG_VALUE: susan_thin:i <- 4
	#DEBUG_VALUE: susan_thin:j <- 4
	movl	$249, %edi
	callq	_KPushCDep
	movl	$1, %edi
	callq	_KWork
	movl	$3, 120(%rsp)
	movl	$16, 112(%rsp)
	movl	$4, 104(%rsp)
	movl	$15, 96(%rsp)
	movl	$5, 88(%rsp)
	movl	$13, 80(%rsp)
	movl	$6, 72(%rsp)
	movl	$12, 64(%rsp)
	movl	$7, 56(%rsp)
	movl	$10, 48(%rsp)
	movl	$8, 40(%rsp)
	movl	$9, 32(%rsp)
	movl	$9, 24(%rsp)
	movl	$8, 16(%rsp)
	movl	$9, 8(%rsp)
	movl	$7, (%rsp)
	movl	$250, %edi
	movl	$10, %esi
	movl	$24, %edx
	movl	$10, %ecx
	movl	$3, %r8d
	movl	$10, %r9d
	xorl	%eax, %eax
	callq	_KTimestamp
	callq	_KPopCDep
	.loc	2 776 14                # susan.c:776:14
	cmpl	$1, %ebx
	jne	.LBB12_9
# BB#10:                                # %land.lhs.true
                                        #   in Loop: Header=BB12_3 Depth=2
	#DEBUG_VALUE: susan_thin:r <- [RBP+-224]
	#DEBUG_VALUE: susan_thin:mid <- [RBP+-176]
	#DEBUG_VALUE: susan_thin:x_size <- [RBP+-152]
	#DEBUG_VALUE: susan_thin:i <- 4
	#DEBUG_VALUE: susan_thin:j <- 4
	movl	$218, -96(%rbp)         # 4-byte Folded Spill
	movl	$216, -88(%rbp)         # 4-byte Folded Spill
	movl	$25, -208(%rbp)         # 4-byte Folded Spill
	movl	$220, -196(%rbp)        # 4-byte Folded Spill
	movl	$250, %edi
	callq	_KPushCDep
	movl	$8, %edi
	callq	_KWork
	movl	$17, %esi
	movl	$18, %edx
	movl	$1, %ecx
	movq	%r14, %rdi
	callq	_KLoad1
	movzbl	(%r14), %r15d
	movl	$1, 136(%rsp)
	movl	$17, 128(%rsp)
	movl	$4, 120(%rsp)
	movl	$16, 112(%rsp)
	movl	$5, 104(%rsp)
	movl	$15, 96(%rsp)
	movl	$6, 88(%rsp)
	movl	$13, 80(%rsp)
	movl	$7, 72(%rsp)
	movl	$12, 64(%rsp)
	movl	$8, 56(%rsp)
	movl	$10, 48(%rsp)
	movl	$9, 40(%rsp)
	movl	$9, 32(%rsp)
	movl	$10, 24(%rsp)
	movl	$8, 16(%rsp)
	movl	$10, 8(%rsp)
	movl	$7, (%rsp)
	xorl	%r12d, %r12d
	movl	$228, %edi
	movl	$11, %esi
	movl	$24, %edx
	movl	$11, %ecx
	movl	$3, %r8d
	movl	$11, %r9d
	xorl	%eax, %eax
	callq	_KTimestamp
	callq	_KPopCDep
	cmpl	$5, %r15d
	ja	.LBB12_11
# BB#12:                                # %if.then85
                                        #   in Loop: Header=BB12_3 Depth=2
	#DEBUG_VALUE: susan_thin:r <- [RBP+-224]
	#DEBUG_VALUE: susan_thin:mid <- [RBP+-176]
	#DEBUG_VALUE: susan_thin:x_size <- [RBP+-152]
	#DEBUG_VALUE: susan_thin:i <- 4
	#DEBUG_VALUE: susan_thin:j <- 4
	movl	%ebx, -192(%rbp)        # 4-byte Spill
	movl	$228, %edi
	callq	_KPushCDep
	movl	$87, %edi
	callq	_KWork
	movq	-144(%rbp), %rax        # 8-byte Reload
	.loc	2 783 18                # susan.c:783:18
.Ltmp596:
	addl	%eax, %r13d
	.loc	2 783 16 is_stmt 0      # susan.c:783:16
	movslq	%r13d, %rbx
	movq	%rbx, -88(%rbp)         # 8-byte Spill
	movq	-224(%rbp), %r15        # 8-byte Reload
.Ltmp597:
	#DEBUG_VALUE: susan_thin:r <- R15
	leaq	-1(%r15,%rbx), %rdi
	movl	$19, %esi
	movl	$20, %edx
	movl	$1, %ecx
	callq	_KLoad1
	movsbl	-1(%r15,%rbx), %r14d
	movl	$0, 152(%rsp)
	movl	$19, 144(%rsp)
	movl	$1, 136(%rsp)
	movl	$17, 128(%rsp)
	movl	$4, 120(%rsp)
	movl	$16, 112(%rsp)
	movl	$5, 104(%rsp)
	movl	$15, 96(%rsp)
	movl	$6, 88(%rsp)
	movl	$13, 80(%rsp)
	movl	$7, 72(%rsp)
	movl	$12, 64(%rsp)
	movl	$8, 56(%rsp)
	movl	$10, 48(%rsp)
	movl	$9, 40(%rsp)
	movl	$9, 32(%rsp)
	movl	$10, 24(%rsp)
	movl	$8, 16(%rsp)
	movl	$10, 8(%rsp)
	movl	$7, (%rsp)
	movl	$21, %edi
	movl	$12, %esi
	movl	$24, %edx
	movl	$11, %ecx
	movl	$3, %r8d
	movl	$11, %r9d
	xorl	%eax, %eax
	callq	_KTimestamp
	movl	$21, %edi
	movl	$4, %edx
	leaq	-80(%rbp), %rax
	movq	%rax, %rsi
	callq	_KStore
	.loc	2 783 11                # susan.c:783:11
	movl	%r14d, -80(%rbp)
	.loc	2 783 42                # susan.c:783:42
	leaq	(%r15,%rbx), %rdi
	movl	$26, %esi
	movl	$27, %edx
	movl	$1, %ecx
	callq	_KLoad1
	movsbl	(%r15,%rbx), %r14d
	movl	$0, 152(%rsp)
	movl	$26, 144(%rsp)
	movl	$1, 136(%rsp)
	movl	$17, 128(%rsp)
	movl	$4, 120(%rsp)
	movl	$16, 112(%rsp)
	movl	$5, 104(%rsp)
	movl	$15, 96(%rsp)
	movl	$6, 88(%rsp)
	movl	$13, 80(%rsp)
	movl	$7, 72(%rsp)
	movl	$12, 64(%rsp)
	movl	$8, 56(%rsp)
	movl	$10, 48(%rsp)
	movl	$9, 40(%rsp)
	movl	$9, 32(%rsp)
	movl	$10, 24(%rsp)
	movl	$8, 16(%rsp)
	movl	$10, 8(%rsp)
	movl	$7, (%rsp)
	movl	$28, %edi
	movl	$12, %esi
	movl	$24, %edx
	movl	$11, %ecx
	movl	$3, %r8d
	movl	$11, %r9d
	xorl	%eax, %eax
	callq	_KTimestamp
	movl	$28, %edi
	movl	$4, %edx
	.loc	2 783 37                # susan.c:783:37
	leaq	-76(%rbp), %rax
	movq	%rax, %rsi
	callq	_KStore
	movl	%r14d, -76(%rbp)
	.loc	2 783 66                # susan.c:783:66
	leaq	1(%r15,%rbx), %rdi
	movl	$29, %esi
	movl	$30, %edx
	movl	$1, %ecx
	callq	_KLoad1
	movsbl	1(%r15,%rbx), %r14d
	movl	$0, 152(%rsp)
	movl	$29, 144(%rsp)
	movl	$1, 136(%rsp)
	movl	$17, 128(%rsp)
	movl	$4, 120(%rsp)
	movl	$16, 112(%rsp)
	movl	$5, 104(%rsp)
	movl	$15, 96(%rsp)
	movl	$6, 88(%rsp)
	movl	$13, 80(%rsp)
	movl	$7, 72(%rsp)
	movl	$12, 64(%rsp)
	movl	$8, 56(%rsp)
	movl	$10, 48(%rsp)
	movl	$9, 40(%rsp)
	movl	$9, 32(%rsp)
	movl	$10, 24(%rsp)
	movl	$8, 16(%rsp)
	movl	$10, 8(%rsp)
	movl	$7, (%rsp)
	movl	$31, %edi
	movl	$12, %esi
	movl	$24, %edx
	movl	$11, %ecx
	movl	$3, %r8d
	movl	$11, %r9d
	xorl	%eax, %eax
	callq	_KTimestamp
	movl	$31, %edi
	movl	$4, %edx
	.loc	2 783 61                # susan.c:783:61
	leaq	-72(%rbp), %rax
	movq	%rax, %rsi
	callq	_KStore
	movl	%r14d, -72(%rbp)
	movq	-104(%rbp), %rbx        # 8-byte Reload
	.loc	2 784 16 is_stmt 1      # susan.c:784:16
	leaq	-1(%r15,%rbx), %rdi
	movl	$32, %esi
	movl	$33, %edx
	movl	$1, %ecx
	callq	_KLoad1
	movsbl	-1(%r15,%rbx), %r14d
	movl	$0, 152(%rsp)
	movl	$32, 144(%rsp)
	movl	$1, 136(%rsp)
	movl	$17, 128(%rsp)
	movl	$4, 120(%rsp)
	movl	$16, 112(%rsp)
	movl	$5, 104(%rsp)
	movl	$15, 96(%rsp)
	movl	$6, 88(%rsp)
	movl	$13, 80(%rsp)
	movl	$7, 72(%rsp)
	movl	$12, 64(%rsp)
	movl	$8, 56(%rsp)
	movl	$10, 48(%rsp)
	movl	$9, 40(%rsp)
	movl	$9, 32(%rsp)
	movl	$10, 24(%rsp)
	movl	$8, 16(%rsp)
	movl	$10, 8(%rsp)
	movl	$7, (%rsp)
	movl	$34, %edi
	movl	$12, %esi
	movl	$24, %edx
	movl	$11, %ecx
	movl	$3, %r8d
	movl	$11, %r9d
	xorl	%eax, %eax
	callq	_KTimestamp
	movl	$34, %edi
	movl	$4, %edx
	.loc	2 784 11 is_stmt 0      # susan.c:784:11
	leaq	-68(%rbp), %r12
	movq	%r12, %rsi
	callq	_KStore
	movl	%r14d, -68(%rbp)
	movl	$4, %esi
	.loc	2 784 37                # susan.c:784:37
	leaq	-64(%rbp), %rdi
	callq	_KStoreConst
	movl	$0, -64(%rbp)
	.loc	2 784 66                # susan.c:784:66
	leaq	1(%r15,%rbx), %rdi
	movl	$35, %esi
	movl	$36, %edx
	movl	$1, %ecx
	callq	_KLoad1
	movsbl	1(%r15,%rbx), %r14d
	movl	$0, 152(%rsp)
	movl	$35, 144(%rsp)
	movl	$1, 136(%rsp)
	movl	$17, 128(%rsp)
	movl	$4, 120(%rsp)
	movl	$16, 112(%rsp)
	movl	$5, 104(%rsp)
	movl	$15, 96(%rsp)
	movl	$6, 88(%rsp)
	movl	$13, 80(%rsp)
	movl	$7, 72(%rsp)
	movl	$12, 64(%rsp)
	movl	$8, 56(%rsp)
	movl	$10, 48(%rsp)
	movl	$9, 40(%rsp)
	movl	$9, 32(%rsp)
	movl	$10, 24(%rsp)
	movl	$8, 16(%rsp)
	movl	$10, 8(%rsp)
	movl	$7, (%rsp)
	movl	$37, %edi
	movl	$12, %esi
	movl	$24, %edx
	movl	$11, %ecx
	movl	$3, %r8d
	movl	$11, %r9d
	xorl	%eax, %eax
	callq	_KTimestamp
	movl	$37, %edi
	movl	$4, %edx
	.loc	2 784 61                # susan.c:784:61
	leaq	-60(%rbp), %rax
	movq	%rax, %rsi
	callq	_KStore
	movl	%r14d, -60(%rbp)
	.loc	2 785 19 is_stmt 1      # susan.c:785:19
	movq	-168(%rbp), %rax        # 8-byte Reload
	leal	1(%rax), %eax
	.loc	2 785 18 is_stmt 0      # susan.c:785:18
	movq	-152(%rbp), %rcx        # 8-byte Reload
	imull	%ecx, %eax
	movq	-144(%rbp), %rcx        # 8-byte Reload
	addl	%ecx, %eax
	.loc	2 785 16                # susan.c:785:16
	movslq	%eax, %r13
	leaq	-1(%r15,%r13), %rdi
	movl	$38, %esi
	movl	$39, %edx
	movl	$1, %ecx
	callq	_KLoad1
	movsbl	-1(%r15,%r13), %r14d
	movl	$0, 152(%rsp)
	movl	$38, 144(%rsp)
	movl	$1, 136(%rsp)
	movl	$17, 128(%rsp)
	movl	$4, 120(%rsp)
	movl	$16, 112(%rsp)
	movl	$5, 104(%rsp)
	movl	$15, 96(%rsp)
	movl	$6, 88(%rsp)
	movl	$13, 80(%rsp)
	movl	$7, 72(%rsp)
	movl	$12, 64(%rsp)
	movl	$8, 56(%rsp)
	movl	$10, 48(%rsp)
	movl	$9, 40(%rsp)
	movl	$9, 32(%rsp)
	movl	$10, 24(%rsp)
	movl	$8, 16(%rsp)
	movl	$10, 8(%rsp)
	movl	$7, (%rsp)
	movl	$40, %edi
	movl	$12, %esi
	movl	$24, %edx
	movl	$11, %ecx
	movl	$3, %r8d
	movl	$11, %r9d
	xorl	%eax, %eax
	callq	_KTimestamp
	movl	$40, %edi
	movl	$4, %edx
	.loc	2 785 11                # susan.c:785:11
	leaq	-56(%rbp), %r12
	movq	%r12, %rsi
	callq	_KStore
	movl	%r14d, -56(%rbp)
	.loc	2 785 42                # susan.c:785:42
	leaq	(%r15,%r13), %rdi
	movl	$41, %esi
	movl	$42, %edx
	movl	$1, %ecx
	callq	_KLoad1
	movsbl	(%r15,%r13), %r14d
	movl	$0, 152(%rsp)
	movl	$41, 144(%rsp)
	movl	$1, 136(%rsp)
	movl	$17, 128(%rsp)
	movl	$4, 120(%rsp)
	movl	$16, 112(%rsp)
	movl	$5, 104(%rsp)
	movl	$15, 96(%rsp)
	movl	$6, 88(%rsp)
	movl	$13, 80(%rsp)
	movl	$7, 72(%rsp)
	movl	$12, 64(%rsp)
	movl	$8, 56(%rsp)
	movl	$10, 48(%rsp)
	movl	$9, 40(%rsp)
	movl	$9, 32(%rsp)
	movl	$10, 24(%rsp)
	movl	$8, 16(%rsp)
	movl	$10, 8(%rsp)
	movl	$7, (%rsp)
	movl	$43, %edi
	movl	$12, %esi
	movl	$24, %edx
	movl	$11, %ecx
	movl	$3, %r8d
	movl	$11, %r9d
	xorl	%eax, %eax
	callq	_KTimestamp
	movl	$43, %edi
	movl	$4, %edx
	.loc	2 785 37                # susan.c:785:37
	leaq	-52(%rbp), %rax
	movq	%rax, %rsi
	callq	_KStore
	movl	%r14d, -52(%rbp)
	.loc	2 785 66                # susan.c:785:66
	leaq	1(%r15,%r13), %rdi
	movl	$44, %esi
	movl	$45, %edx
	movl	$1, %ecx
	callq	_KLoad1
	movsbl	1(%r15,%r13), %ebx
.Ltmp598:
	#DEBUG_VALUE: susan_thin:r <- [RBP+-224]
	movq	-88(%rbp), %r15         # 8-byte Reload
	movl	$0, 152(%rsp)
	movl	$44, 144(%rsp)
	movl	$1, 136(%rsp)
	movl	$17, 128(%rsp)
	movl	$4, 120(%rsp)
	movl	$16, 112(%rsp)
	movl	$5, 104(%rsp)
	movl	$15, 96(%rsp)
	movl	$6, 88(%rsp)
	movl	$13, 80(%rsp)
	movl	$7, 72(%rsp)
	movl	$12, 64(%rsp)
	movl	$8, 56(%rsp)
	movl	$10, 48(%rsp)
	movl	$9, 40(%rsp)
	movl	$9, 32(%rsp)
	movl	$10, 24(%rsp)
	movl	$8, 16(%rsp)
	movl	$10, 8(%rsp)
	movl	$7, (%rsp)
	movl	$46, %edi
	movl	$12, %esi
	movl	$24, %edx
	movl	$11, %ecx
	movl	$3, %r8d
	movl	$11, %r9d
	xorl	%eax, %eax
	callq	_KTimestamp
	movl	$46, %edi
	movl	$4, %edx
	.loc	2 785 61                # susan.c:785:61
	leaq	-48(%rbp), %r14
	movq	%r14, %rsi
	callq	_KStore
	movl	%ebx, -48(%rbp)
	movq	-176(%rbp), %r14        # 8-byte Reload
.Ltmp599:
	#DEBUG_VALUE: susan_thin:mid <- R14
	.loc	2 787 15 is_stmt 1      # susan.c:787:15
	leaq	-1(%r14,%r15), %rdi
	movl	$47, %esi
	movl	$48, %edx
	movl	$1, %ecx
	callq	_KLoad1
.Ltmp600:
	.loc	2 787 15 is_stmt 0      # susan.c:787:15
	movzbl	-1(%r14,%r15), %ebx
	movl	$1, 152(%rsp)
	movl	$47, 144(%rsp)
	movl	$2, 136(%rsp)
	movl	$17, 128(%rsp)
	movl	$5, 120(%rsp)
	movl	$16, 112(%rsp)
	movl	$6, 104(%rsp)
	movl	$15, 96(%rsp)
	movl	$7, 88(%rsp)
	movl	$13, 80(%rsp)
	movl	$8, 72(%rsp)
	movl	$12, 64(%rsp)
	movl	$9, 56(%rsp)
	movl	$10, 48(%rsp)
	movl	$10, 40(%rsp)
	movl	$9, 32(%rsp)
	movl	$11, 24(%rsp)
	movl	$8, 16(%rsp)
	movl	$11, 8(%rsp)
	movl	$7, (%rsp)
	movl	$283, %edi              # imm = 0x11B
	movl	$12, %esi
	movl	$24, %edx
	movl	$12, %ecx
	movl	$3, %r8d
	movl	$12, %r9d
	xorl	%eax, %eax
	callq	_KTimestamp
	callq	_KPopCDep
	movl	$283, %edi              # imm = 0x11B
	callq	_KPushCDep
	cmpl	$7, %ebx
	ja	.LBB12_14
.Ltmp601:
# BB#13:                                # %if.then156
                                        #   in Loop: Header=BB12_3 Depth=2
	#DEBUG_VALUE: susan_thin:r <- [RBP+-224]
	#DEBUG_VALUE: susan_thin:mid <- R14
	#DEBUG_VALUE: susan_thin:mid <- [RBP+-176]
	#DEBUG_VALUE: susan_thin:x_size <- [RBP+-152]
	#DEBUG_VALUE: susan_thin:i <- 4
	#DEBUG_VALUE: susan_thin:j <- 4
	movl	$38, %edi
	callq	_KWork
	movl	$4, %esi
	leaq	-80(%rbp), %r14
	movq	%r14, %rdi
	callq	_KStoreConst
	.loc	2 787 49 discriminator 1 # susan.c:787:49
.Ltmp602:
	movl	$0, -80(%rbp)
	movl	$4, %esi
.Ltmp603:
	.loc	2 783 37 is_stmt 1      # susan.c:783:37
	leaq	-76(%rbp), %rdi
	callq	_KStoreConst
	.loc	2 787 57                # susan.c:787:57
.Ltmp604:
	movl	$0, -76(%rbp)
	movl	$4, %esi
.Ltmp605:
	.loc	2 784 11                # susan.c:784:11
	leaq	-68(%rbp), %rdi
	callq	_KStoreConst
	.loc	2 787 65                # susan.c:787:65
.Ltmp606:
	movl	$0, -68(%rbp)
	movl	$49, %esi
	movl	$4, %edx
.Ltmp607:
	.loc	2 783 61                # susan.c:783:61
	leaq	-72(%rbp), %r15
	movq	%r15, %rdi
	callq	_KLoad0
	.loc	2 787 73                # susan.c:787:73
.Ltmp608:
	movl	-72(%rbp), %ebx
	addl	%ebx, %ebx
	movl	$2, 168(%rsp)
	movl	$49, 160(%rsp)
	movl	$3, 152(%rsp)
	movl	$47, 144(%rsp)
	movl	$4, 136(%rsp)
	movl	$17, 128(%rsp)
	movl	$7, 120(%rsp)
	movl	$16, 112(%rsp)
	movl	$8, 104(%rsp)
	movl	$15, 96(%rsp)
	movl	$9, 88(%rsp)
	movl	$13, 80(%rsp)
	movl	$10, 72(%rsp)
	movl	$12, 64(%rsp)
	movl	$11, 56(%rsp)
	movl	$10, 48(%rsp)
	movl	$12, 40(%rsp)
	movl	$9, 32(%rsp)
	movl	$13, 24(%rsp)
	movl	$8, 16(%rsp)
	movl	$13, 8(%rsp)
	movl	$7, (%rsp)
	movl	$50, %edi
	movl	$13, %esi
	movl	$24, %edx
	movl	$14, %ecx
	movl	$3, %r8d
	movl	$14, %r9d
	xorl	%eax, %eax
	callq	_KTimestamp
	movl	$50, %edi
	movl	$4, %edx
	movq	%r15, %rsi
	callq	_KStore
	movl	%ebx, -72(%rbp)
	movl	$51, %esi
	movl	$4, %edx
	movq	%r12, %rdi
	callq	_KLoad0
	.loc	2 788 49                # susan.c:788:49
	movl	-56(%rbp), %ebx
	addl	%ebx, %ebx
	movl	$2, 168(%rsp)
	movl	$51, 160(%rsp)
	movl	$3, 152(%rsp)
	movl	$47, 144(%rsp)
	movl	$4, 136(%rsp)
	movl	$17, 128(%rsp)
	movl	$7, 120(%rsp)
	movl	$16, 112(%rsp)
	movl	$8, 104(%rsp)
	movl	$15, 96(%rsp)
	movl	$9, 88(%rsp)
	movl	$13, 80(%rsp)
	movl	$10, 72(%rsp)
	movl	$12, 64(%rsp)
	movl	$11, 56(%rsp)
	movl	$10, 48(%rsp)
	movl	$12, 40(%rsp)
	movl	$9, 32(%rsp)
	movl	$13, 24(%rsp)
	movl	$8, 16(%rsp)
	movl	$13, 8(%rsp)
	movl	$7, (%rsp)
	movl	$52, %edi
	movl	$13, %esi
	movl	$24, %edx
	movl	$14, %ecx
	movl	$3, %r8d
	movl	$14, %r9d
	xorl	%eax, %eax
	callq	_KTimestamp
	movl	$52, %edi
	movl	$4, %edx
	movq	%r12, %rsi
	callq	_KStore
	movl	%ebx, -56(%rbp)
	movl	$53, %esi
	movl	$4, %edx
.Ltmp609:
	.loc	2 784 61                # susan.c:784:61
	leaq	-60(%rbp), %rbx
	movq	%rbx, %rdi
	callq	_KLoad0
	.loc	2 788 58                # susan.c:788:58
.Ltmp610:
	movl	-60(%rbp), %eax
	leal	(%rax,%rax,2), %r15d
	movl	$2, 168(%rsp)
	movl	$53, 160(%rsp)
	movl	$3, 152(%rsp)
	movl	$47, 144(%rsp)
	movl	$4, 136(%rsp)
	movl	$17, 128(%rsp)
	movl	$7, 120(%rsp)
	movl	$16, 112(%rsp)
	movl	$8, 104(%rsp)
	movl	$15, 96(%rsp)
	movl	$9, 88(%rsp)
	movl	$13, 80(%rsp)
	movl	$10, 72(%rsp)
	movl	$12, 64(%rsp)
	movl	$11, 56(%rsp)
	movl	$10, 48(%rsp)
	movl	$12, 40(%rsp)
	movl	$9, 32(%rsp)
	movl	$13, 24(%rsp)
	movl	$8, 16(%rsp)
	movl	$13, 8(%rsp)
	movl	$7, (%rsp)
	movl	$54, %edi
	movl	$13, %esi
	movl	$24, %edx
	movl	$14, %ecx
	movl	$3, %r8d
	movl	$14, %r9d
	xorl	%eax, %eax
	callq	_KTimestamp
	movl	$54, %edi
	movl	$4, %edx
	movq	%rbx, %rsi
	callq	_KStore
	movl	%r15d, -60(%rbp)
	movl	$55, %esi
	movl	$4, %edx
.Ltmp611:
	.loc	2 785 37                # susan.c:785:37
	leaq	-52(%rbp), %rbx
	movq	%rbx, %rdi
	callq	_KLoad0
	.loc	2 788 67                # susan.c:788:67
.Ltmp612:
	movl	-52(%rbp), %eax
	leal	(%rax,%rax,2), %r15d
	movl	$2, 168(%rsp)
	movl	$55, 160(%rsp)
	movl	$3, 152(%rsp)
	movl	$47, 144(%rsp)
	movl	$4, 136(%rsp)
	movl	$17, 128(%rsp)
	movl	$7, 120(%rsp)
	movl	$16, 112(%rsp)
	movl	$8, 104(%rsp)
	movl	$15, 96(%rsp)
	movl	$9, 88(%rsp)
	movl	$13, 80(%rsp)
	movl	$10, 72(%rsp)
	movl	$12, 64(%rsp)
	movl	$11, 56(%rsp)
	movl	$10, 48(%rsp)
	movl	$12, 40(%rsp)
	movl	$9, 32(%rsp)
	movl	$13, 24(%rsp)
	movl	$8, 16(%rsp)
	movl	$13, 8(%rsp)
	movl	$7, (%rsp)
	movl	$56, %edi
	movl	$13, %esi
	movl	$24, %edx
	movl	$14, %ecx
	movl	$3, %r8d
	movl	$14, %r9d
	xorl	%eax, %eax
	callq	_KTimestamp
	movl	$56, %edi
	movl	$4, %edx
	movq	%rbx, %rsi
	callq	_KStore
	movl	%r15d, -52(%rbp)
	movl	$57, %esi
	movl	$4, %edx
.Ltmp613:
	.loc	2 785 61                # susan.c:785:61
	leaq	-48(%rbp), %r15
	movq	%r15, %rdi
	callq	_KLoad0
	.loc	2 788 76                # susan.c:788:76
.Ltmp614:
	movl	-48(%rbp), %ebx
	shll	$2, %ebx
	movl	$2, 168(%rsp)
	movl	$57, 160(%rsp)
	movl	$3, 152(%rsp)
	movl	$47, 144(%rsp)
	movl	$4, 136(%rsp)
	movl	$17, 128(%rsp)
	movl	$7, 120(%rsp)
	movl	$16, 112(%rsp)
	movl	$8, 104(%rsp)
	movl	$15, 96(%rsp)
	movl	$9, 88(%rsp)
	movl	$13, 80(%rsp)
	movl	$10, 72(%rsp)
	movl	$12, 64(%rsp)
	movl	$11, 56(%rsp)
	movl	$10, 48(%rsp)
	movl	$12, 40(%rsp)
	movl	$9, 32(%rsp)
	movl	$13, 24(%rsp)
